ARM GAS  C:\Users\164\AppData\Local\Temp\ccprxMAM.s 			page 1


   1              		.syntax unified
   2              		.cpu cortex-m3
   3              		.fpu softvfp
   4              		.eabi_attribute 20, 1
   5              		.eabi_attribute 21, 1
   6              		.eabi_attribute 23, 3
   7              		.eabi_attribute 24, 1
   8              		.eabi_attribute 25, 1
   9              		.eabi_attribute 26, 1
  10              		.eabi_attribute 30, 1
  11              		.eabi_attribute 34, 1
  12              		.eabi_attribute 18, 4
  13              		.thumb
  14              		.syntax unified
  15              		.file	"alloc.c"
  16              		.text
  17              	.Ltext0:
  18              		.cfi_sections	.debug_frame
  19              		.section	.text.merge_block,"ax",%progbits
  20              		.align	2
  21              		.thumb
  22              		.thumb_func
  23              		.type	merge_block, %function
  24              	merge_block:
  25              	.LFB81:
  26              		.file 1 "..\\..\\mruby_c2\\Design01.cydsn\\alloc.c"
   1:..\..\mruby_c2\Design01.cydsn/alloc.c **** /*! @file
   2:..\..\mruby_c2\Design01.cydsn/alloc.c ****   @brief
   3:..\..\mruby_c2\Design01.cydsn/alloc.c ****   mrubyc memory management.
   4:..\..\mruby_c2\Design01.cydsn/alloc.c **** 
   5:..\..\mruby_c2\Design01.cydsn/alloc.c ****   <pre>
   6:..\..\mruby_c2\Design01.cydsn/alloc.c ****   Copyright (C) 2015-2018 Kyushu Institute of Technology.
   7:..\..\mruby_c2\Design01.cydsn/alloc.c ****   Copyright (C) 2015-2018 Shimane IT Open-Innovation Center.
   8:..\..\mruby_c2\Design01.cydsn/alloc.c **** 
   9:..\..\mruby_c2\Design01.cydsn/alloc.c ****   This file is distributed under BSD 3-Clause License.
  10:..\..\mruby_c2\Design01.cydsn/alloc.c **** 
  11:..\..\mruby_c2\Design01.cydsn/alloc.c ****   Memory management for objects in mruby/c.
  12:..\..\mruby_c2\Design01.cydsn/alloc.c **** 
  13:..\..\mruby_c2\Design01.cydsn/alloc.c ****   </pre>
  14:..\..\mruby_c2\Design01.cydsn/alloc.c **** */
  15:..\..\mruby_c2\Design01.cydsn/alloc.c **** 
  16:..\..\mruby_c2\Design01.cydsn/alloc.c **** #include "vm_config.h"
  17:..\..\mruby_c2\Design01.cydsn/alloc.c **** #include <stddef.h>
  18:..\..\mruby_c2\Design01.cydsn/alloc.c **** #include <string.h>
  19:..\..\mruby_c2\Design01.cydsn/alloc.c **** #include <assert.h>
  20:..\..\mruby_c2\Design01.cydsn/alloc.c **** #include "alloc.h"
  21:..\..\mruby_c2\Design01.cydsn/alloc.c **** #include "console.h"
  22:..\..\mruby_c2\Design01.cydsn/alloc.c **** 
  23:..\..\mruby_c2\Design01.cydsn/alloc.c **** 
  24:..\..\mruby_c2\Design01.cydsn/alloc.c **** // Layer 1st(f) and 2nd(s) model
  25:..\..\mruby_c2\Design01.cydsn/alloc.c **** // last 4bit is ignored
  26:..\..\mruby_c2\Design01.cydsn/alloc.c **** // f : size
  27:..\..\mruby_c2\Design01.cydsn/alloc.c **** // 0 : 0000-007f
  28:..\..\mruby_c2\Design01.cydsn/alloc.c **** // 1 : 0080-00ff
  29:..\..\mruby_c2\Design01.cydsn/alloc.c **** // 2 : 0100-01ff
  30:..\..\mruby_c2\Design01.cydsn/alloc.c **** // 3 : 0200-03ff
  31:..\..\mruby_c2\Design01.cydsn/alloc.c **** // 4 : 0400-07ff
ARM GAS  C:\Users\164\AppData\Local\Temp\ccprxMAM.s 			page 2


  32:..\..\mruby_c2\Design01.cydsn/alloc.c **** // 5 : 0800-0fff
  33:..\..\mruby_c2\Design01.cydsn/alloc.c **** // 6 : 1000-1fff
  34:..\..\mruby_c2\Design01.cydsn/alloc.c **** // 7 : 2000-3fff
  35:..\..\mruby_c2\Design01.cydsn/alloc.c **** // 8 : 4000-7fff
  36:..\..\mruby_c2\Design01.cydsn/alloc.c **** // 9 : 8000-ffff
  37:..\..\mruby_c2\Design01.cydsn/alloc.c **** 
  38:..\..\mruby_c2\Design01.cydsn/alloc.c **** #ifndef MRBC_ALLOC_FLI_BIT_WIDTH	// 0000 0000 0000 0000
  39:..\..\mruby_c2\Design01.cydsn/alloc.c **** # define MRBC_ALLOC_FLI_BIT_WIDTH 9	// ~~~~~~~~~~~
  40:..\..\mruby_c2\Design01.cydsn/alloc.c **** #endif
  41:..\..\mruby_c2\Design01.cydsn/alloc.c **** #ifndef MRBC_ALLOC_SLI_BIT_WIDTH	// 0000 0000 0000 0000
  42:..\..\mruby_c2\Design01.cydsn/alloc.c **** # define MRBC_ALLOC_SLI_BIT_WIDTH 3	//            ~~~
  43:..\..\mruby_c2\Design01.cydsn/alloc.c **** #endif
  44:..\..\mruby_c2\Design01.cydsn/alloc.c **** #ifndef MRBC_ALLOC_IGNORE_LSBS		// 0000 0000 0000 0000
  45:..\..\mruby_c2\Design01.cydsn/alloc.c **** # define MRBC_ALLOC_IGNORE_LSBS	  4	//                ~~~~
  46:..\..\mruby_c2\Design01.cydsn/alloc.c **** #endif
  47:..\..\mruby_c2\Design01.cydsn/alloc.c **** #ifndef MRBC_ALLOC_MEMSIZE_T
  48:..\..\mruby_c2\Design01.cydsn/alloc.c **** # define MRBC_ALLOC_MEMSIZE_T     uint16_t
  49:..\..\mruby_c2\Design01.cydsn/alloc.c **** #endif
  50:..\..\mruby_c2\Design01.cydsn/alloc.c **** 
  51:..\..\mruby_c2\Design01.cydsn/alloc.c **** #define FLI(x) (((x) >> MRBC_ALLOC_SLI_BIT_WIDTH) & ((1 << MRBC_ALLOC_FLI_BIT_WIDTH) - 1))
  52:..\..\mruby_c2\Design01.cydsn/alloc.c **** #define SLI(x) ((x) & ((1 << MRBC_ALLOC_SLI_BIT_WIDTH) - 1))
  53:..\..\mruby_c2\Design01.cydsn/alloc.c **** 
  54:..\..\mruby_c2\Design01.cydsn/alloc.c **** 
  55:..\..\mruby_c2\Design01.cydsn/alloc.c **** // define flags
  56:..\..\mruby_c2\Design01.cydsn/alloc.c **** #define FLAG_TAIL_BLOCK     1
  57:..\..\mruby_c2\Design01.cydsn/alloc.c **** #define FLAG_NOT_TAIL_BLOCK 0
  58:..\..\mruby_c2\Design01.cydsn/alloc.c **** #define FLAG_FREE_BLOCK     1
  59:..\..\mruby_c2\Design01.cydsn/alloc.c **** #define FLAG_USED_BLOCK     0
  60:..\..\mruby_c2\Design01.cydsn/alloc.c **** 
  61:..\..\mruby_c2\Design01.cydsn/alloc.c **** // memory block header
  62:..\..\mruby_c2\Design01.cydsn/alloc.c **** typedef struct USED_BLOCK {
  63:..\..\mruby_c2\Design01.cydsn/alloc.c ****   unsigned int         t : 1;       //!< FLAG_TAIL_BLOCK or FLAG_NOT_TAIL_BLOCK
  64:..\..\mruby_c2\Design01.cydsn/alloc.c ****   unsigned int         f : 1;       //!< FLAG_FREE_BLOCK or BLOCK_IS_NOT_FREE
  65:..\..\mruby_c2\Design01.cydsn/alloc.c ****   uint8_t              vm_id;       //!< mruby/c VM ID
  66:..\..\mruby_c2\Design01.cydsn/alloc.c **** 
  67:..\..\mruby_c2\Design01.cydsn/alloc.c ****   MRBC_ALLOC_MEMSIZE_T size;        //!< block size, header included
  68:..\..\mruby_c2\Design01.cydsn/alloc.c ****   MRBC_ALLOC_MEMSIZE_T prev_offset; //!< offset of previous physical block
  69:..\..\mruby_c2\Design01.cydsn/alloc.c **** } USED_BLOCK;
  70:..\..\mruby_c2\Design01.cydsn/alloc.c **** 
  71:..\..\mruby_c2\Design01.cydsn/alloc.c **** typedef struct FREE_BLOCK {
  72:..\..\mruby_c2\Design01.cydsn/alloc.c ****   unsigned int         t : 1;       //!< FLAG_TAIL_BLOCK or FLAG_NOT_TAIL_BLOCK
  73:..\..\mruby_c2\Design01.cydsn/alloc.c ****   unsigned int         f : 1;       //!< FLAG_FREE_BLOCK or BLOCK_IS_NOT_FREE
  74:..\..\mruby_c2\Design01.cydsn/alloc.c ****   uint8_t              vm_id;       //!< dummy
  75:..\..\mruby_c2\Design01.cydsn/alloc.c **** 
  76:..\..\mruby_c2\Design01.cydsn/alloc.c ****   MRBC_ALLOC_MEMSIZE_T size;        //!< block size, header included
  77:..\..\mruby_c2\Design01.cydsn/alloc.c ****   MRBC_ALLOC_MEMSIZE_T prev_offset; //!< offset of previous physical block
  78:..\..\mruby_c2\Design01.cydsn/alloc.c **** 
  79:..\..\mruby_c2\Design01.cydsn/alloc.c ****   struct FREE_BLOCK *next_free;
  80:..\..\mruby_c2\Design01.cydsn/alloc.c ****   struct FREE_BLOCK *prev_free;
  81:..\..\mruby_c2\Design01.cydsn/alloc.c **** } FREE_BLOCK;
  82:..\..\mruby_c2\Design01.cydsn/alloc.c **** 
  83:..\..\mruby_c2\Design01.cydsn/alloc.c **** #define PHYS_NEXT(p) ((uint8_t *)(p) + (p)->size)
  84:..\..\mruby_c2\Design01.cydsn/alloc.c **** #define PHYS_PREV(p) ((uint8_t *)(p) - (p)->prev_offset)
  85:..\..\mruby_c2\Design01.cydsn/alloc.c **** #define SET_PHYS_PREV(p1,p2)				\
  86:..\..\mruby_c2\Design01.cydsn/alloc.c ****   ((p2)->prev_offset = (uint8_t *)(p2)-(uint8_t *)(p1))
  87:..\..\mruby_c2\Design01.cydsn/alloc.c **** 
  88:..\..\mruby_c2\Design01.cydsn/alloc.c **** #define SET_VM_ID(p,id)							\
ARM GAS  C:\Users\164\AppData\Local\Temp\ccprxMAM.s 			page 3


  89:..\..\mruby_c2\Design01.cydsn/alloc.c ****   (((USED_BLOCK *)((uint8_t *)(p) - sizeof(USED_BLOCK)))->vm_id = (id))
  90:..\..\mruby_c2\Design01.cydsn/alloc.c **** #define GET_VM_ID(p)							\
  91:..\..\mruby_c2\Design01.cydsn/alloc.c ****   (((USED_BLOCK *)((uint8_t *)(p) - sizeof(USED_BLOCK)))->vm_id)
  92:..\..\mruby_c2\Design01.cydsn/alloc.c **** 
  93:..\..\mruby_c2\Design01.cydsn/alloc.c **** 
  94:..\..\mruby_c2\Design01.cydsn/alloc.c **** // memory pool
  95:..\..\mruby_c2\Design01.cydsn/alloc.c **** static unsigned int memory_pool_size;
  96:..\..\mruby_c2\Design01.cydsn/alloc.c **** static uint8_t     *memory_pool;
  97:..\..\mruby_c2\Design01.cydsn/alloc.c **** 
  98:..\..\mruby_c2\Design01.cydsn/alloc.c **** // free memory block index
  99:..\..\mruby_c2\Design01.cydsn/alloc.c **** #define SIZE_FREE_BLOCKS \
 100:..\..\mruby_c2\Design01.cydsn/alloc.c ****   ((MRBC_ALLOC_FLI_BIT_WIDTH + 1) * (1 << MRBC_ALLOC_SLI_BIT_WIDTH))
 101:..\..\mruby_c2\Design01.cydsn/alloc.c **** static FREE_BLOCK *free_blocks[SIZE_FREE_BLOCKS + 1];
 102:..\..\mruby_c2\Design01.cydsn/alloc.c **** 
 103:..\..\mruby_c2\Design01.cydsn/alloc.c **** // free memory bitmap
 104:..\..\mruby_c2\Design01.cydsn/alloc.c **** #define MSB_BIT1 0x8000
 105:..\..\mruby_c2\Design01.cydsn/alloc.c **** static uint16_t free_fli_bitmap;
 106:..\..\mruby_c2\Design01.cydsn/alloc.c **** static uint16_t free_sli_bitmap[MRBC_ALLOC_FLI_BIT_WIDTH + 2]; // + sentinel
 107:..\..\mruby_c2\Design01.cydsn/alloc.c **** 
 108:..\..\mruby_c2\Design01.cydsn/alloc.c **** 
 109:..\..\mruby_c2\Design01.cydsn/alloc.c **** //================================================================
 110:..\..\mruby_c2\Design01.cydsn/alloc.c **** /*! Number of leading zeros.
 111:..\..\mruby_c2\Design01.cydsn/alloc.c **** 
 112:..\..\mruby_c2\Design01.cydsn/alloc.c ****   @param  x	target (16bit unsined)
 113:..\..\mruby_c2\Design01.cydsn/alloc.c ****   @retval int	nlz value
 114:..\..\mruby_c2\Design01.cydsn/alloc.c **** */
 115:..\..\mruby_c2\Design01.cydsn/alloc.c **** static inline int nlz16(uint16_t x)
 116:..\..\mruby_c2\Design01.cydsn/alloc.c **** {
 117:..\..\mruby_c2\Design01.cydsn/alloc.c ****   if( x == 0 ) return 16;
 118:..\..\mruby_c2\Design01.cydsn/alloc.c **** 
 119:..\..\mruby_c2\Design01.cydsn/alloc.c ****   int n = 1;
 120:..\..\mruby_c2\Design01.cydsn/alloc.c ****   if((x >>  8) == 0 ) { n += 8; x <<= 8; }
 121:..\..\mruby_c2\Design01.cydsn/alloc.c ****   if((x >> 12) == 0 ) { n += 4; x <<= 4; }
 122:..\..\mruby_c2\Design01.cydsn/alloc.c ****   if((x >> 14) == 0 ) { n += 2; x <<= 2; }
 123:..\..\mruby_c2\Design01.cydsn/alloc.c ****   return n - (x >> 15);
 124:..\..\mruby_c2\Design01.cydsn/alloc.c **** }
 125:..\..\mruby_c2\Design01.cydsn/alloc.c **** 
 126:..\..\mruby_c2\Design01.cydsn/alloc.c **** 
 127:..\..\mruby_c2\Design01.cydsn/alloc.c **** //================================================================
 128:..\..\mruby_c2\Design01.cydsn/alloc.c **** /*! calc f and s, and returns fli,sli of free_blocks
 129:..\..\mruby_c2\Design01.cydsn/alloc.c **** 
 130:..\..\mruby_c2\Design01.cydsn/alloc.c ****   @param  alloc_size	alloc size
 131:..\..\mruby_c2\Design01.cydsn/alloc.c ****   @retval int		index of free_blocks
 132:..\..\mruby_c2\Design01.cydsn/alloc.c **** */
 133:..\..\mruby_c2\Design01.cydsn/alloc.c **** static int calc_index(unsigned int alloc_size)
 134:..\..\mruby_c2\Design01.cydsn/alloc.c **** {
 135:..\..\mruby_c2\Design01.cydsn/alloc.c ****   // check overflow
 136:..\..\mruby_c2\Design01.cydsn/alloc.c ****   if( (alloc_size >> (MRBC_ALLOC_FLI_BIT_WIDTH
 137:..\..\mruby_c2\Design01.cydsn/alloc.c ****                       + MRBC_ALLOC_SLI_BIT_WIDTH
 138:..\..\mruby_c2\Design01.cydsn/alloc.c ****                       + MRBC_ALLOC_IGNORE_LSBS)) != 0) {
 139:..\..\mruby_c2\Design01.cydsn/alloc.c ****     return SIZE_FREE_BLOCKS;
 140:..\..\mruby_c2\Design01.cydsn/alloc.c ****   }
 141:..\..\mruby_c2\Design01.cydsn/alloc.c **** 
 142:..\..\mruby_c2\Design01.cydsn/alloc.c ****   // calculate First Level Index.
 143:..\..\mruby_c2\Design01.cydsn/alloc.c ****   int fli = 16 -
 144:..\..\mruby_c2\Design01.cydsn/alloc.c ****     nlz16( alloc_size >> (MRBC_ALLOC_SLI_BIT_WIDTH + MRBC_ALLOC_IGNORE_LSBS) );
 145:..\..\mruby_c2\Design01.cydsn/alloc.c **** 
ARM GAS  C:\Users\164\AppData\Local\Temp\ccprxMAM.s 			page 4


 146:..\..\mruby_c2\Design01.cydsn/alloc.c ****   // calculate Second Level Index.
 147:..\..\mruby_c2\Design01.cydsn/alloc.c ****   int shift = (fli == 0) ? (fli + MRBC_ALLOC_IGNORE_LSBS) :
 148:..\..\mruby_c2\Design01.cydsn/alloc.c **** 			   (fli + MRBC_ALLOC_IGNORE_LSBS - 1);
 149:..\..\mruby_c2\Design01.cydsn/alloc.c **** 
 150:..\..\mruby_c2\Design01.cydsn/alloc.c ****   int sli   = (alloc_size >> shift) & ((1 << MRBC_ALLOC_SLI_BIT_WIDTH) - 1);
 151:..\..\mruby_c2\Design01.cydsn/alloc.c ****   int index = (fli << MRBC_ALLOC_SLI_BIT_WIDTH) + sli;
 152:..\..\mruby_c2\Design01.cydsn/alloc.c **** 
 153:..\..\mruby_c2\Design01.cydsn/alloc.c ****   assert(fli >= 0);
 154:..\..\mruby_c2\Design01.cydsn/alloc.c ****   assert(fli <= MRBC_ALLOC_FLI_BIT_WIDTH);
 155:..\..\mruby_c2\Design01.cydsn/alloc.c ****   assert(sli >= 0);
 156:..\..\mruby_c2\Design01.cydsn/alloc.c ****   assert(sli <= (1 << MRBC_ALLOC_SLI_BIT_WIDTH) - 1);
 157:..\..\mruby_c2\Design01.cydsn/alloc.c **** 
 158:..\..\mruby_c2\Design01.cydsn/alloc.c ****   return index;
 159:..\..\mruby_c2\Design01.cydsn/alloc.c **** }
 160:..\..\mruby_c2\Design01.cydsn/alloc.c **** 
 161:..\..\mruby_c2\Design01.cydsn/alloc.c **** 
 162:..\..\mruby_c2\Design01.cydsn/alloc.c **** //================================================================
 163:..\..\mruby_c2\Design01.cydsn/alloc.c **** /*! Mark that block free and register it in the free index table.
 164:..\..\mruby_c2\Design01.cydsn/alloc.c **** 
 165:..\..\mruby_c2\Design01.cydsn/alloc.c ****   @param  target	Pointer to target block.
 166:..\..\mruby_c2\Design01.cydsn/alloc.c **** */
 167:..\..\mruby_c2\Design01.cydsn/alloc.c **** static void add_free_block(FREE_BLOCK *target)
 168:..\..\mruby_c2\Design01.cydsn/alloc.c **** {
 169:..\..\mruby_c2\Design01.cydsn/alloc.c ****   target->f = FLAG_FREE_BLOCK;
 170:..\..\mruby_c2\Design01.cydsn/alloc.c **** 
 171:..\..\mruby_c2\Design01.cydsn/alloc.c ****   int index = calc_index(target->size) - 1;
 172:..\..\mruby_c2\Design01.cydsn/alloc.c ****   int fli   = FLI(index);
 173:..\..\mruby_c2\Design01.cydsn/alloc.c ****   int sli   = SLI(index);
 174:..\..\mruby_c2\Design01.cydsn/alloc.c **** 
 175:..\..\mruby_c2\Design01.cydsn/alloc.c ****   free_fli_bitmap      |= (MSB_BIT1 >> fli);
 176:..\..\mruby_c2\Design01.cydsn/alloc.c ****   free_sli_bitmap[fli] |= (MSB_BIT1 >> sli);
 177:..\..\mruby_c2\Design01.cydsn/alloc.c **** 
 178:..\..\mruby_c2\Design01.cydsn/alloc.c ****   target->prev_free = NULL;
 179:..\..\mruby_c2\Design01.cydsn/alloc.c ****   target->next_free = free_blocks[index];
 180:..\..\mruby_c2\Design01.cydsn/alloc.c ****   if( target->next_free != NULL ) {
 181:..\..\mruby_c2\Design01.cydsn/alloc.c ****     target->next_free->prev_free = target;
 182:..\..\mruby_c2\Design01.cydsn/alloc.c ****   }
 183:..\..\mruby_c2\Design01.cydsn/alloc.c ****   free_blocks[index] = target;
 184:..\..\mruby_c2\Design01.cydsn/alloc.c **** 
 185:..\..\mruby_c2\Design01.cydsn/alloc.c **** #ifdef MRBC_DEBUG
 186:..\..\mruby_c2\Design01.cydsn/alloc.c ****   target->vm_id = UINT8_MAX;
 187:..\..\mruby_c2\Design01.cydsn/alloc.c ****   memset( (uint8_t *)target + sizeof(FREE_BLOCK), 0xff,
 188:..\..\mruby_c2\Design01.cydsn/alloc.c ****           target->size - sizeof(FREE_BLOCK) );
 189:..\..\mruby_c2\Design01.cydsn/alloc.c **** #endif
 190:..\..\mruby_c2\Design01.cydsn/alloc.c **** 
 191:..\..\mruby_c2\Design01.cydsn/alloc.c **** }
 192:..\..\mruby_c2\Design01.cydsn/alloc.c **** 
 193:..\..\mruby_c2\Design01.cydsn/alloc.c **** 
 194:..\..\mruby_c2\Design01.cydsn/alloc.c **** //================================================================
 195:..\..\mruby_c2\Design01.cydsn/alloc.c **** /*! just remove the free_block *target from index
 196:..\..\mruby_c2\Design01.cydsn/alloc.c **** 
 197:..\..\mruby_c2\Design01.cydsn/alloc.c ****   @param  target	pointer to target block.
 198:..\..\mruby_c2\Design01.cydsn/alloc.c **** */
 199:..\..\mruby_c2\Design01.cydsn/alloc.c **** static void remove_index(FREE_BLOCK *target)
 200:..\..\mruby_c2\Design01.cydsn/alloc.c **** {
 201:..\..\mruby_c2\Design01.cydsn/alloc.c ****   // top of linked list?
 202:..\..\mruby_c2\Design01.cydsn/alloc.c ****   if( target->prev_free == NULL ) {
ARM GAS  C:\Users\164\AppData\Local\Temp\ccprxMAM.s 			page 5


 203:..\..\mruby_c2\Design01.cydsn/alloc.c ****     int index = calc_index(target->size) - 1;
 204:..\..\mruby_c2\Design01.cydsn/alloc.c ****     free_blocks[index] = target->next_free;
 205:..\..\mruby_c2\Design01.cydsn/alloc.c **** 
 206:..\..\mruby_c2\Design01.cydsn/alloc.c ****     if( free_blocks[index] == NULL ) {
 207:..\..\mruby_c2\Design01.cydsn/alloc.c ****       int fli = FLI(index);
 208:..\..\mruby_c2\Design01.cydsn/alloc.c ****       int sli = SLI(index);
 209:..\..\mruby_c2\Design01.cydsn/alloc.c ****       free_sli_bitmap[fli] &= ~(MSB_BIT1 >> sli);
 210:..\..\mruby_c2\Design01.cydsn/alloc.c ****       if( free_sli_bitmap[fli] == 0 ) free_fli_bitmap &= ~(MSB_BIT1 >> fli);
 211:..\..\mruby_c2\Design01.cydsn/alloc.c ****     }
 212:..\..\mruby_c2\Design01.cydsn/alloc.c ****   }
 213:..\..\mruby_c2\Design01.cydsn/alloc.c ****   else {
 214:..\..\mruby_c2\Design01.cydsn/alloc.c ****     target->prev_free->next_free = target->next_free;
 215:..\..\mruby_c2\Design01.cydsn/alloc.c ****   }
 216:..\..\mruby_c2\Design01.cydsn/alloc.c **** 
 217:..\..\mruby_c2\Design01.cydsn/alloc.c ****   if( target->next_free != NULL ) {
 218:..\..\mruby_c2\Design01.cydsn/alloc.c ****     target->next_free->prev_free = target->prev_free;
 219:..\..\mruby_c2\Design01.cydsn/alloc.c ****   }
 220:..\..\mruby_c2\Design01.cydsn/alloc.c **** }
 221:..\..\mruby_c2\Design01.cydsn/alloc.c **** 
 222:..\..\mruby_c2\Design01.cydsn/alloc.c **** 
 223:..\..\mruby_c2\Design01.cydsn/alloc.c **** //================================================================
 224:..\..\mruby_c2\Design01.cydsn/alloc.c **** /*! Split block by size
 225:..\..\mruby_c2\Design01.cydsn/alloc.c **** 
 226:..\..\mruby_c2\Design01.cydsn/alloc.c ****   @param  target	pointer to target block
 227:..\..\mruby_c2\Design01.cydsn/alloc.c ****   @param  size	size
 228:..\..\mruby_c2\Design01.cydsn/alloc.c ****   @retval NULL	no split.
 229:..\..\mruby_c2\Design01.cydsn/alloc.c ****   @retval FREE_BLOCK *	pointer to splitted free block.
 230:..\..\mruby_c2\Design01.cydsn/alloc.c **** */
 231:..\..\mruby_c2\Design01.cydsn/alloc.c **** static inline FREE_BLOCK* split_block(FREE_BLOCK *target, unsigned int size)
 232:..\..\mruby_c2\Design01.cydsn/alloc.c **** {
 233:..\..\mruby_c2\Design01.cydsn/alloc.c ****   if( target->size < (size + sizeof(FREE_BLOCK)
 234:..\..\mruby_c2\Design01.cydsn/alloc.c ****                       + (1 << MRBC_ALLOC_IGNORE_LSBS)) ) return NULL;
 235:..\..\mruby_c2\Design01.cydsn/alloc.c **** 
 236:..\..\mruby_c2\Design01.cydsn/alloc.c ****   // split block, free
 237:..\..\mruby_c2\Design01.cydsn/alloc.c ****   FREE_BLOCK *split = (FREE_BLOCK *)((uint8_t *)target + size);
 238:..\..\mruby_c2\Design01.cydsn/alloc.c ****   FREE_BLOCK *next  = (FREE_BLOCK *)PHYS_NEXT(target);
 239:..\..\mruby_c2\Design01.cydsn/alloc.c **** 
 240:..\..\mruby_c2\Design01.cydsn/alloc.c ****   split->size  = target->size - size;
 241:..\..\mruby_c2\Design01.cydsn/alloc.c ****   SET_PHYS_PREV(target, split);
 242:..\..\mruby_c2\Design01.cydsn/alloc.c ****   split->t     = target->t;
 243:..\..\mruby_c2\Design01.cydsn/alloc.c ****   target->size = size;
 244:..\..\mruby_c2\Design01.cydsn/alloc.c ****   target->t    = FLAG_NOT_TAIL_BLOCK;
 245:..\..\mruby_c2\Design01.cydsn/alloc.c ****   if( split->t == FLAG_NOT_TAIL_BLOCK ) {
 246:..\..\mruby_c2\Design01.cydsn/alloc.c ****     SET_PHYS_PREV(split, next);
 247:..\..\mruby_c2\Design01.cydsn/alloc.c ****   }
 248:..\..\mruby_c2\Design01.cydsn/alloc.c **** 
 249:..\..\mruby_c2\Design01.cydsn/alloc.c ****   return split;
 250:..\..\mruby_c2\Design01.cydsn/alloc.c **** }
 251:..\..\mruby_c2\Design01.cydsn/alloc.c **** 
 252:..\..\mruby_c2\Design01.cydsn/alloc.c **** 
 253:..\..\mruby_c2\Design01.cydsn/alloc.c **** //================================================================
 254:..\..\mruby_c2\Design01.cydsn/alloc.c **** /*! merge ptr1 and ptr2 block.
 255:..\..\mruby_c2\Design01.cydsn/alloc.c ****     ptr2 will disappear
 256:..\..\mruby_c2\Design01.cydsn/alloc.c **** 
 257:..\..\mruby_c2\Design01.cydsn/alloc.c ****   @param  ptr1	pointer to free block 1
 258:..\..\mruby_c2\Design01.cydsn/alloc.c ****   @param  ptr2	pointer to free block 2
 259:..\..\mruby_c2\Design01.cydsn/alloc.c **** */
ARM GAS  C:\Users\164\AppData\Local\Temp\ccprxMAM.s 			page 6


 260:..\..\mruby_c2\Design01.cydsn/alloc.c **** static void merge_block(FREE_BLOCK *ptr1, FREE_BLOCK *ptr2)
 261:..\..\mruby_c2\Design01.cydsn/alloc.c **** {
  27              		.loc 1 261 0
  28              		.cfi_startproc
  29              		@ args = 0, pretend = 0, frame = 0
  30              		@ frame_needed = 0, uses_anonymous_args = 0
  31              	.LVL0:
  32 0000 08B5     		push	{r3, lr}
  33              		.cfi_def_cfa_offset 8
  34              		.cfi_offset 3, -8
  35              		.cfi_offset 14, -4
 262:..\..\mruby_c2\Design01.cydsn/alloc.c ****   assert(ptr1 < ptr2);
  36              		.loc 1 262 0
  37 0002 8842     		cmp	r0, r1
  38 0004 06D3     		bcc	.L2
  39              		.loc 1 262 0 is_stmt 0 discriminator 1
  40 0006 0C4B     		ldr	r3, .L5
  41 0008 0C4A     		ldr	r2, .L5+4
  42 000a 4FF48371 		mov	r1, #262
  43              	.LVL1:
  44 000e 0C48     		ldr	r0, .L5+8
  45              	.LVL2:
  46 0010 FFF7FEFF 		bl	__assert_func
  47              	.LVL3:
  48              	.L2:
 263:..\..\mruby_c2\Design01.cydsn/alloc.c **** 
 264:..\..\mruby_c2\Design01.cydsn/alloc.c ****   // merge ptr1 and ptr2
 265:..\..\mruby_c2\Design01.cydsn/alloc.c ****   ptr1->t     = ptr2->t;
  49              		.loc 1 265 0 is_stmt 1
  50 0014 0A78     		ldrb	r2, [r1]	@ zero_extendqisi2
  51 0016 0378     		ldrb	r3, [r0]	@ zero_extendqisi2
  52 0018 62F30003 		bfi	r3, r2, #0, #1
  53 001c 0370     		strb	r3, [r0]
 266:..\..\mruby_c2\Design01.cydsn/alloc.c ****   ptr1->size += ptr2->size;
  54              		.loc 1 266 0
  55 001e 4A88     		ldrh	r2, [r1, #2]
  56 0020 4388     		ldrh	r3, [r0, #2]
  57 0022 1344     		add	r3, r3, r2
  58 0024 9BB2     		uxth	r3, r3
  59 0026 4380     		strh	r3, [r0, #2]	@ movhi
 267:..\..\mruby_c2\Design01.cydsn/alloc.c **** 
 268:..\..\mruby_c2\Design01.cydsn/alloc.c ****   // update block info
 269:..\..\mruby_c2\Design01.cydsn/alloc.c ****   if( ptr1->t == FLAG_NOT_TAIL_BLOCK ) {
  60              		.loc 1 269 0
  61 0028 0278     		ldrb	r2, [r0]	@ zero_extendqisi2
  62 002a 12F0010F 		tst	r2, #1
  63 002e 01D1     		bne	.L1
  64              	.LBB10:
 270:..\..\mruby_c2\Design01.cydsn/alloc.c ****     FREE_BLOCK *next = (FREE_BLOCK *)PHYS_NEXT(ptr1);
  65              		.loc 1 270 0
  66 0030 1844     		add	r0, r0, r3
  67              	.LVL4:
 271:..\..\mruby_c2\Design01.cydsn/alloc.c ****     SET_PHYS_PREV(ptr1, next);
  68              		.loc 1 271 0
  69 0032 8380     		strh	r3, [r0, #4]	@ movhi
  70              	.LVL5:
  71              	.L1:
ARM GAS  C:\Users\164\AppData\Local\Temp\ccprxMAM.s 			page 7


  72 0034 08BD     		pop	{r3, pc}
  73              	.L6:
  74 0036 00BF     		.align	2
  75              	.L5:
  76 0038 00000000 		.word	.LC0
  77 003c 00000000 		.word	.LANCHOR0
  78 0040 0C000000 		.word	.LC1
  79              	.LBE10:
  80              		.cfi_endproc
  81              	.LFE81:
  82              		.size	merge_block, .-merge_block
  83              		.section	.text.calc_index,"ax",%progbits
  84              		.align	2
  85              		.thumb
  86              		.thumb_func
  87              		.type	calc_index, %function
  88              	calc_index:
  89              	.LFB77:
 134:..\..\mruby_c2\Design01.cydsn/alloc.c ****   // check overflow
  90              		.loc 1 134 0
  91              		.cfi_startproc
  92              		@ args = 0, pretend = 0, frame = 0
  93              		@ frame_needed = 0, uses_anonymous_args = 0
  94              	.LVL6:
  95 0000 08B5     		push	{r3, lr}
  96              		.cfi_def_cfa_offset 8
  97              		.cfi_offset 3, -8
  98              		.cfi_offset 14, -4
 136:..\..\mruby_c2\Design01.cydsn/alloc.c ****                       + MRBC_ALLOC_SLI_BIT_WIDTH
  99              		.loc 1 136 0
 100 0002 030C     		lsrs	r3, r0, #16
 101 0004 34D1     		bne	.L17
 144:..\..\mruby_c2\Design01.cydsn/alloc.c **** 
 102              		.loc 1 144 0
 103 0006 C0F3CF13 		ubfx	r3, r0, #7, #16
 104              	.LVL7:
 105              	.LBB13:
 106              	.LBB14:
 117:..\..\mruby_c2\Design01.cydsn/alloc.c **** 
 107              		.loc 1 117 0
 108 000a 9BB1     		cbz	r3, .L18
 109              	.LVL8:
 120:..\..\mruby_c2\Design01.cydsn/alloc.c ****   if((x >> 12) == 0 ) { n += 4; x <<= 4; }
 110              		.loc 1 120 0
 111 000c 1A0A     		lsrs	r2, r3, #8
 112 000e 03D1     		bne	.L19
 113              	.LVL9:
 114 0010 1B02     		lsls	r3, r3, #8
 115              	.LVL10:
 116 0012 9BB2     		uxth	r3, r3
 117              	.LVL11:
 118 0014 0922     		movs	r2, #9
 119 0016 00E0     		b	.L10
 120              	.LVL12:
 121              	.L19:
 119:..\..\mruby_c2\Design01.cydsn/alloc.c ****   if((x >>  8) == 0 ) { n += 8; x <<= 8; }
 122              		.loc 1 119 0
ARM GAS  C:\Users\164\AppData\Local\Temp\ccprxMAM.s 			page 8


 123 0018 0122     		movs	r2, #1
 124              	.LVL13:
 125              	.L10:
 121:..\..\mruby_c2\Design01.cydsn/alloc.c ****   if((x >> 14) == 0 ) { n += 2; x <<= 2; }
 126              		.loc 1 121 0
 127 001a 190B     		lsrs	r1, r3, #12
 128 001c 02D1     		bne	.L11
 129 001e 0432     		adds	r2, r2, #4
 130              	.LVL14:
 131 0020 1B01     		lsls	r3, r3, #4
 132              	.LVL15:
 133 0022 9BB2     		uxth	r3, r3
 134              	.LVL16:
 135              	.L11:
 122:..\..\mruby_c2\Design01.cydsn/alloc.c ****   return n - (x >> 15);
 136              		.loc 1 122 0
 137 0024 990B     		lsrs	r1, r3, #14
 138 0026 02D1     		bne	.L12
 139 0028 0232     		adds	r2, r2, #2
 140              	.LVL17:
 141 002a 9B00     		lsls	r3, r3, #2
 142              	.LVL18:
 143 002c 9BB2     		uxth	r3, r3
 144              	.LVL19:
 145              	.L12:
 123:..\..\mruby_c2\Design01.cydsn/alloc.c **** }
 146              		.loc 1 123 0
 147 002e A2EBD333 		sub	r3, r2, r3, lsr #15
 148              	.LVL20:
 149 0032 00E0     		b	.L9
 150              	.LVL21:
 151              	.L18:
 117:..\..\mruby_c2\Design01.cydsn/alloc.c **** 
 152              		.loc 1 117 0
 153 0034 1023     		movs	r3, #16
 154              	.LVL22:
 155              	.L9:
 156              	.LBE14:
 157              	.LBE13:
 147:..\..\mruby_c2\Design01.cydsn/alloc.c **** 			   (fli + MRBC_ALLOC_IGNORE_LSBS - 1);
 158              		.loc 1 147 0
 159 0036 D3F11002 		rsbs	r2, r3, #16
 160              	.LVL23:
 161 003a 02D1     		bne	.L13
 147:..\..\mruby_c2\Design01.cydsn/alloc.c **** 			   (fli + MRBC_ALLOC_IGNORE_LSBS - 1);
 162              		.loc 1 147 0 is_stmt 0 discriminator 1
 163 003c C3F11403 		rsb	r3, r3, #20
 164 0040 01E0     		b	.L14
 165              	.L13:
 147:..\..\mruby_c2\Design01.cydsn/alloc.c **** 			   (fli + MRBC_ALLOC_IGNORE_LSBS - 1);
 166              		.loc 1 147 0 discriminator 2
 167 0042 C3F11303 		rsb	r3, r3, #19
 168              	.L14:
 169              	.LVL24:
 150:..\..\mruby_c2\Design01.cydsn/alloc.c ****   int index = (fli << MRBC_ALLOC_SLI_BIT_WIDTH) + sli;
 170              		.loc 1 150 0 is_stmt 1 discriminator 4
 171 0046 D840     		lsrs	r0, r0, r3
ARM GAS  C:\Users\164\AppData\Local\Temp\ccprxMAM.s 			page 9


 172              	.LVL25:
 173 0048 00F00700 		and	r0, r0, #7
 174              	.LVL26:
 151:..\..\mruby_c2\Design01.cydsn/alloc.c **** 
 175              		.loc 1 151 0 discriminator 4
 176 004c 00EBC200 		add	r0, r0, r2, lsl #3
 177              	.LVL27:
 153:..\..\mruby_c2\Design01.cydsn/alloc.c ****   assert(fli <= MRBC_ALLOC_FLI_BIT_WIDTH);
 178              		.loc 1 153 0 discriminator 4
 179 0050 002A     		cmp	r2, #0
 180 0052 05DA     		bge	.L15
 153:..\..\mruby_c2\Design01.cydsn/alloc.c ****   assert(fli <= MRBC_ALLOC_FLI_BIT_WIDTH);
 181              		.loc 1 153 0 is_stmt 0 discriminator 1
 182 0054 074B     		ldr	r3, .L22
 183              	.LVL28:
 184 0056 084A     		ldr	r2, .L22+4
 185              	.LVL29:
 186 0058 9921     		movs	r1, #153
 187 005a 0848     		ldr	r0, .L22+8
 188              	.LVL30:
 189 005c FFF7FEFF 		bl	__assert_func
 190              	.LVL31:
 191              	.L15:
 154:..\..\mruby_c2\Design01.cydsn/alloc.c ****   assert(sli >= 0);
 192              		.loc 1 154 0 is_stmt 1
 193 0060 092A     		cmp	r2, #9
 194 0062 06DD     		ble	.L8
 154:..\..\mruby_c2\Design01.cydsn/alloc.c ****   assert(sli >= 0);
 195              		.loc 1 154 0 is_stmt 0 discriminator 1
 196 0064 064B     		ldr	r3, .L22+12
 197              	.LVL32:
 198 0066 044A     		ldr	r2, .L22+4
 199              	.LVL33:
 200 0068 9A21     		movs	r1, #154
 201 006a 0448     		ldr	r0, .L22+8
 202              	.LVL34:
 203 006c FFF7FEFF 		bl	__assert_func
 204              	.LVL35:
 205              	.L17:
 139:..\..\mruby_c2\Design01.cydsn/alloc.c ****   }
 206              		.loc 1 139 0 is_stmt 1
 207 0070 5020     		movs	r0, #80
 208              	.LVL36:
 209              	.L8:
 159:..\..\mruby_c2\Design01.cydsn/alloc.c **** 
 210              		.loc 1 159 0
 211 0072 08BD     		pop	{r3, pc}
 212              	.L23:
 213              		.align	2
 214              	.L22:
 215 0074 34000000 		.word	.LC2
 216 0078 0C000000 		.word	.LANCHOR0+12
 217 007c 0C000000 		.word	.LC1
 218 0080 40000000 		.word	.LC3
 219              		.cfi_endproc
 220              	.LFE77:
 221              		.size	calc_index, .-calc_index
ARM GAS  C:\Users\164\AppData\Local\Temp\ccprxMAM.s 			page 10


 222              		.section	.text.add_free_block,"ax",%progbits
 223              		.align	2
 224              		.thumb
 225              		.thumb_func
 226              		.type	add_free_block, %function
 227              	add_free_block:
 228              	.LFB78:
 168:..\..\mruby_c2\Design01.cydsn/alloc.c ****   target->f = FLAG_FREE_BLOCK;
 229              		.loc 1 168 0
 230              		.cfi_startproc
 231              		@ args = 0, pretend = 0, frame = 0
 232              		@ frame_needed = 0, uses_anonymous_args = 0
 233              	.LVL37:
 234 0000 F8B5     		push	{r3, r4, r5, r6, r7, lr}
 235              		.cfi_def_cfa_offset 24
 236              		.cfi_offset 3, -24
 237              		.cfi_offset 4, -20
 238              		.cfi_offset 5, -16
 239              		.cfi_offset 6, -12
 240              		.cfi_offset 7, -8
 241              		.cfi_offset 14, -4
 242 0002 0446     		mov	r4, r0
 169:..\..\mruby_c2\Design01.cydsn/alloc.c **** 
 243              		.loc 1 169 0
 244 0004 0378     		ldrb	r3, [r0]	@ zero_extendqisi2
 245 0006 43F00203 		orr	r3, r3, #2
 246 000a 0370     		strb	r3, [r0]
 171:..\..\mruby_c2\Design01.cydsn/alloc.c ****   int fli   = FLI(index);
 247              		.loc 1 171 0
 248 000c 4088     		ldrh	r0, [r0, #2]
 249              	.LVL38:
 250 000e FFF7FEFF 		bl	calc_index
 251              	.LVL39:
 252 0012 0138     		subs	r0, r0, #1
 253              	.LVL40:
 172:..\..\mruby_c2\Design01.cydsn/alloc.c ****   int sli   = SLI(index);
 254              		.loc 1 172 0
 255 0014 C0F3C802 		ubfx	r2, r0, #3, #9
 256              	.LVL41:
 173:..\..\mruby_c2\Design01.cydsn/alloc.c **** 
 257              		.loc 1 173 0
 258 0018 00F00706 		and	r6, r0, #7
 259              	.LVL42:
 175:..\..\mruby_c2\Design01.cydsn/alloc.c ****   free_sli_bitmap[fli] |= (MSB_BIT1 >> sli);
 260              		.loc 1 175 0
 261 001c 4FF40041 		mov	r1, #32768
 262 0020 41FA02F7 		asr	r7, r1, r2
 263 0024 0B4B     		ldr	r3, .L27
 264 0026 1D88     		ldrh	r5, [r3]
 265 0028 3D43     		orrs	r5, r5, r7
 266 002a 1D80     		strh	r5, [r3]	@ movhi
 176:..\..\mruby_c2\Design01.cydsn/alloc.c **** 
 267              		.loc 1 176 0
 268 002c 3141     		asrs	r1, r1, r6
 269 002e 03EB4202 		add	r2, r3, r2, lsl #1
 270              	.LVL43:
 271 0032 9588     		ldrh	r5, [r2, #4]
ARM GAS  C:\Users\164\AppData\Local\Temp\ccprxMAM.s 			page 11


 272 0034 2943     		orrs	r1, r1, r5
 273 0036 9180     		strh	r1, [r2, #4]	@ movhi
 178:..\..\mruby_c2\Design01.cydsn/alloc.c ****   target->next_free = free_blocks[index];
 274              		.loc 1 178 0
 275 0038 0022     		movs	r2, #0
 276 003a E260     		str	r2, [r4, #12]
 179:..\..\mruby_c2\Design01.cydsn/alloc.c ****   if( target->next_free != NULL ) {
 277              		.loc 1 179 0
 278 003c 03EB8003 		add	r3, r3, r0, lsl #2
 279 0040 DB69     		ldr	r3, [r3, #28]
 280 0042 A360     		str	r3, [r4, #8]
 180:..\..\mruby_c2\Design01.cydsn/alloc.c ****     target->next_free->prev_free = target;
 281              		.loc 1 180 0
 282 0044 03B1     		cbz	r3, .L25
 181:..\..\mruby_c2\Design01.cydsn/alloc.c ****   }
 283              		.loc 1 181 0
 284 0046 DC60     		str	r4, [r3, #12]
 285              	.L25:
 183:..\..\mruby_c2\Design01.cydsn/alloc.c **** 
 286              		.loc 1 183 0
 287 0048 024B     		ldr	r3, .L27
 288 004a 03EB8000 		add	r0, r3, r0, lsl #2
 289              	.LVL44:
 290 004e C461     		str	r4, [r0, #28]
 291 0050 F8BD     		pop	{r3, r4, r5, r6, r7, pc}
 292              	.LVL45:
 293              	.L28:
 294 0052 00BF     		.align	2
 295              	.L27:
 296 0054 00000000 		.word	.LANCHOR1
 297              		.cfi_endproc
 298              	.LFE78:
 299              		.size	add_free_block, .-add_free_block
 300              		.section	.text.remove_index,"ax",%progbits
 301              		.align	2
 302              		.thumb
 303              		.thumb_func
 304              		.type	remove_index, %function
 305              	remove_index:
 306              	.LFB79:
 200:..\..\mruby_c2\Design01.cydsn/alloc.c ****   // top of linked list?
 307              		.loc 1 200 0
 308              		.cfi_startproc
 309              		@ args = 0, pretend = 0, frame = 0
 310              		@ frame_needed = 0, uses_anonymous_args = 0
 311              	.LVL46:
 312 0000 10B5     		push	{r4, lr}
 313              		.cfi_def_cfa_offset 8
 314              		.cfi_offset 4, -8
 315              		.cfi_offset 14, -4
 316 0002 0446     		mov	r4, r0
 202:..\..\mruby_c2\Design01.cydsn/alloc.c ****     int index = calc_index(target->size) - 1;
 317              		.loc 1 202 0
 318 0004 C368     		ldr	r3, [r0, #12]
 319 0006 23BB     		cbnz	r3, .L30
 320              	.LBB15:
 203:..\..\mruby_c2\Design01.cydsn/alloc.c ****     free_blocks[index] = target->next_free;
ARM GAS  C:\Users\164\AppData\Local\Temp\ccprxMAM.s 			page 12


 321              		.loc 1 203 0
 322 0008 4088     		ldrh	r0, [r0, #2]
 323              	.LVL47:
 324 000a FFF7FEFF 		bl	calc_index
 325              	.LVL48:
 326 000e 0138     		subs	r0, r0, #1
 327              	.LVL49:
 204:..\..\mruby_c2\Design01.cydsn/alloc.c **** 
 328              		.loc 1 204 0
 329 0010 A268     		ldr	r2, [r4, #8]
 330 0012 134B     		ldr	r3, .L34
 331 0014 03EB8003 		add	r3, r3, r0, lsl #2
 332 0018 DA61     		str	r2, [r3, #28]
 206:..\..\mruby_c2\Design01.cydsn/alloc.c ****       int fli = FLI(index);
 333              		.loc 1 206 0
 334 001a E2B9     		cbnz	r2, .L31
 335              	.LBB16:
 207:..\..\mruby_c2\Design01.cydsn/alloc.c ****       int sli = SLI(index);
 336              		.loc 1 207 0
 337 001c C0F3C801 		ubfx	r1, r0, #3, #9
 338              	.LVL50:
 208:..\..\mruby_c2\Design01.cydsn/alloc.c ****       free_sli_bitmap[fli] &= ~(MSB_BIT1 >> sli);
 339              		.loc 1 208 0
 340 0020 00F00700 		and	r0, r0, #7
 341              	.LVL51:
 209:..\..\mruby_c2\Design01.cydsn/alloc.c ****       if( free_sli_bitmap[fli] == 0 ) free_fli_bitmap &= ~(MSB_BIT1 >> fli);
 342              		.loc 1 209 0
 343 0024 4FF40043 		mov	r3, #32768
 344 0028 43FA00F0 		asr	r0, r3, r0
 345              	.LVL52:
 346 002c 0C4A     		ldr	r2, .L34
 347 002e 02EB4102 		add	r2, r2, r1, lsl #1
 348 0032 9388     		ldrh	r3, [r2, #4]
 349 0034 23EA0003 		bic	r3, r3, r0
 350 0038 9BB2     		uxth	r3, r3
 351 003a 9380     		strh	r3, [r2, #4]	@ movhi
 210:..\..\mruby_c2\Design01.cydsn/alloc.c ****     }
 352              		.loc 1 210 0
 353 003c 5BB9     		cbnz	r3, .L31
 210:..\..\mruby_c2\Design01.cydsn/alloc.c ****     }
 354              		.loc 1 210 0 is_stmt 0 discriminator 1
 355 003e 4FF40043 		mov	r3, #32768
 356 0042 43FA01F1 		asr	r1, r3, r1
 357              	.LVL53:
 358 0046 064A     		ldr	r2, .L34
 359 0048 1388     		ldrh	r3, [r2]
 360 004a 23EA0103 		bic	r3, r3, r1
 361 004e 1380     		strh	r3, [r2]	@ movhi
 362 0050 01E0     		b	.L31
 363              	.LVL54:
 364              	.L30:
 365              	.LBE16:
 366              	.LBE15:
 214:..\..\mruby_c2\Design01.cydsn/alloc.c ****   }
 367              		.loc 1 214 0 is_stmt 1
 368 0052 8268     		ldr	r2, [r0, #8]
 369 0054 9A60     		str	r2, [r3, #8]
ARM GAS  C:\Users\164\AppData\Local\Temp\ccprxMAM.s 			page 13


 370              	.LVL55:
 371              	.L31:
 217:..\..\mruby_c2\Design01.cydsn/alloc.c ****     target->next_free->prev_free = target->prev_free;
 372              		.loc 1 217 0
 373 0056 A368     		ldr	r3, [r4, #8]
 374 0058 0BB1     		cbz	r3, .L29
 218:..\..\mruby_c2\Design01.cydsn/alloc.c ****   }
 375              		.loc 1 218 0
 376 005a E268     		ldr	r2, [r4, #12]
 377 005c DA60     		str	r2, [r3, #12]
 378              	.L29:
 379 005e 10BD     		pop	{r4, pc}
 380              	.LVL56:
 381              	.L35:
 382              		.align	2
 383              	.L34:
 384 0060 00000000 		.word	.LANCHOR1
 385              		.cfi_endproc
 386              	.LFE79:
 387              		.size	remove_index, .-remove_index
 388              		.section	.text.mrbc_init_alloc,"ax",%progbits
 389              		.align	2
 390              		.global	mrbc_init_alloc
 391              		.thumb
 392              		.thumb_func
 393              		.type	mrbc_init_alloc, %function
 394              	mrbc_init_alloc:
 395              	.LFB82:
 272:..\..\mruby_c2\Design01.cydsn/alloc.c ****   }
 273:..\..\mruby_c2\Design01.cydsn/alloc.c **** }
 274:..\..\mruby_c2\Design01.cydsn/alloc.c **** 
 275:..\..\mruby_c2\Design01.cydsn/alloc.c **** 
 276:..\..\mruby_c2\Design01.cydsn/alloc.c **** //================================================================
 277:..\..\mruby_c2\Design01.cydsn/alloc.c **** /*! initialize
 278:..\..\mruby_c2\Design01.cydsn/alloc.c **** 
 279:..\..\mruby_c2\Design01.cydsn/alloc.c ****   @param  ptr	pointer to free memory block.
 280:..\..\mruby_c2\Design01.cydsn/alloc.c ****   @param  size	size. (max 64KB. see MRBC_ALLOC_MEMSIZE_T)
 281:..\..\mruby_c2\Design01.cydsn/alloc.c **** */
 282:..\..\mruby_c2\Design01.cydsn/alloc.c **** void mrbc_init_alloc(void *ptr, unsigned int size)
 283:..\..\mruby_c2\Design01.cydsn/alloc.c **** {
 396              		.loc 1 283 0
 397              		.cfi_startproc
 398              		@ args = 0, pretend = 0, frame = 0
 399              		@ frame_needed = 0, uses_anonymous_args = 0
 400              	.LVL57:
 401 0000 08B5     		push	{r3, lr}
 402              		.cfi_def_cfa_offset 8
 403              		.cfi_offset 3, -8
 404              		.cfi_offset 14, -4
 284:..\..\mruby_c2\Design01.cydsn/alloc.c ****   assert( size != 0 );
 405              		.loc 1 284 0
 406 0002 31B9     		cbnz	r1, .L37
 407              		.loc 1 284 0 is_stmt 0 discriminator 1
 408 0004 0E4B     		ldr	r3, .L40
 409 0006 0F4A     		ldr	r2, .L40+4
 410 0008 4FF48E71 		mov	r1, #284
 411              	.LVL58:
ARM GAS  C:\Users\164\AppData\Local\Temp\ccprxMAM.s 			page 14


 412 000c 0E48     		ldr	r0, .L40+8
 413              	.LVL59:
 414 000e FFF7FEFF 		bl	__assert_func
 415              	.LVL60:
 416              	.L37:
 285:..\..\mruby_c2\Design01.cydsn/alloc.c ****   assert( size <= (MRBC_ALLOC_MEMSIZE_T)(~0) );
 417              		.loc 1 285 0 is_stmt 1
 418 0012 B1F5803F 		cmp	r1, #65536
 419 0016 06D3     		bcc	.L38
 420              		.loc 1 285 0 is_stmt 0 discriminator 1
 421 0018 0C4B     		ldr	r3, .L40+12
 422 001a 0A4A     		ldr	r2, .L40+4
 423 001c 40F21D11 		movw	r1, #285
 424              	.LVL61:
 425 0020 0948     		ldr	r0, .L40+8
 426              	.LVL62:
 427 0022 FFF7FEFF 		bl	__assert_func
 428              	.LVL63:
 429              	.L38:
 286:..\..\mruby_c2\Design01.cydsn/alloc.c **** 
 287:..\..\mruby_c2\Design01.cydsn/alloc.c ****   memory_pool      = ptr;
 430              		.loc 1 287 0 is_stmt 1
 431 0026 0A4B     		ldr	r3, .L40+16
 432 0028 C3F86001 		str	r0, [r3, #352]
 433              	.LVL64:
 288:..\..\mruby_c2\Design01.cydsn/alloc.c ****   memory_pool_size = size;
 289:..\..\mruby_c2\Design01.cydsn/alloc.c **** 
 290:..\..\mruby_c2\Design01.cydsn/alloc.c ****   // initialize memory pool
 291:..\..\mruby_c2\Design01.cydsn/alloc.c ****   FREE_BLOCK *block = (FREE_BLOCK *)memory_pool;
 292:..\..\mruby_c2\Design01.cydsn/alloc.c ****   block->t           = FLAG_TAIL_BLOCK;
 434              		.loc 1 292 0
 435 002c 0378     		ldrb	r3, [r0]	@ zero_extendqisi2
 293:..\..\mruby_c2\Design01.cydsn/alloc.c ****   block->f           = FLAG_FREE_BLOCK;
 436              		.loc 1 293 0
 437 002e 43F00303 		orr	r3, r3, #3
 438 0032 0370     		strb	r3, [r0]
 294:..\..\mruby_c2\Design01.cydsn/alloc.c ****   block->size        = memory_pool_size;
 439              		.loc 1 294 0
 440 0034 4180     		strh	r1, [r0, #2]	@ movhi
 295:..\..\mruby_c2\Design01.cydsn/alloc.c ****   block->prev_offset = 0;
 441              		.loc 1 295 0
 442 0036 0023     		movs	r3, #0
 443 0038 8380     		strh	r3, [r0, #4]	@ movhi
 296:..\..\mruby_c2\Design01.cydsn/alloc.c **** 
 297:..\..\mruby_c2\Design01.cydsn/alloc.c ****   add_free_block(block);
 444              		.loc 1 297 0
 445 003a FFF7FEFF 		bl	add_free_block
 446              	.LVL65:
 447 003e 08BD     		pop	{r3, pc}
 448              	.L41:
 449              		.align	2
 450              	.L40:
 451 0040 8C000000 		.word	.LC5
 452 0044 18000000 		.word	.LANCHOR0+24
 453 0048 0C000000 		.word	.LC1
 454 004c 98000000 		.word	.LC6
 455 0050 00000000 		.word	.LANCHOR1
ARM GAS  C:\Users\164\AppData\Local\Temp\ccprxMAM.s 			page 15


 456              		.cfi_endproc
 457              	.LFE82:
 458              		.size	mrbc_init_alloc, .-mrbc_init_alloc
 459              		.section	.text.mrbc_raw_alloc,"ax",%progbits
 460              		.align	2
 461              		.global	mrbc_raw_alloc
 462              		.thumb
 463              		.thumb_func
 464              		.type	mrbc_raw_alloc, %function
 465              	mrbc_raw_alloc:
 466              	.LFB83:
 298:..\..\mruby_c2\Design01.cydsn/alloc.c **** }
 299:..\..\mruby_c2\Design01.cydsn/alloc.c **** 
 300:..\..\mruby_c2\Design01.cydsn/alloc.c **** 
 301:..\..\mruby_c2\Design01.cydsn/alloc.c **** //================================================================
 302:..\..\mruby_c2\Design01.cydsn/alloc.c **** /*! allocate memory
 303:..\..\mruby_c2\Design01.cydsn/alloc.c **** 
 304:..\..\mruby_c2\Design01.cydsn/alloc.c ****   @param  size	request size.
 305:..\..\mruby_c2\Design01.cydsn/alloc.c ****   @return void * pointer to allocated memory.
 306:..\..\mruby_c2\Design01.cydsn/alloc.c ****   @retval NULL	error.
 307:..\..\mruby_c2\Design01.cydsn/alloc.c **** */
 308:..\..\mruby_c2\Design01.cydsn/alloc.c **** void * mrbc_raw_alloc(unsigned int size)
 309:..\..\mruby_c2\Design01.cydsn/alloc.c **** {
 467              		.loc 1 309 0
 468              		.cfi_startproc
 469              		@ args = 0, pretend = 0, frame = 0
 470              		@ frame_needed = 0, uses_anonymous_args = 0
 471              	.LVL66:
 472 0000 70B5     		push	{r4, r5, r6, lr}
 473              		.cfi_def_cfa_offset 16
 474              		.cfi_offset 4, -16
 475              		.cfi_offset 5, -12
 476              		.cfi_offset 6, -8
 477              		.cfi_offset 14, -4
 310:..\..\mruby_c2\Design01.cydsn/alloc.c ****   // TODO: maximum alloc size
 311:..\..\mruby_c2\Design01.cydsn/alloc.c ****   //  (1 << (FLI_BIT_WIDTH + SLI_BIT_WIDTH + IGNORE_LSBS)) - alpha
 312:..\..\mruby_c2\Design01.cydsn/alloc.c **** 
 313:..\..\mruby_c2\Design01.cydsn/alloc.c ****   unsigned int alloc_size = size + sizeof(FREE_BLOCK);
 478              		.loc 1 313 0
 479 0002 1030     		adds	r0, r0, #16
 480              	.LVL67:
 314:..\..\mruby_c2\Design01.cydsn/alloc.c **** 
 315:..\..\mruby_c2\Design01.cydsn/alloc.c ****   // align 4 byte
 316:..\..\mruby_c2\Design01.cydsn/alloc.c ****   alloc_size += ((4 - alloc_size) & 3);
 481              		.loc 1 316 0
 482 0004 4342     		negs	r3, r0
 483 0006 03F00303 		and	r3, r3, #3
 484 000a C518     		adds	r5, r0, r3
 485              	.LVL68:
 317:..\..\mruby_c2\Design01.cydsn/alloc.c **** 
 318:..\..\mruby_c2\Design01.cydsn/alloc.c ****   // check minimum alloc size. if need.
 319:..\..\mruby_c2\Design01.cydsn/alloc.c **** #if 0
 320:..\..\mruby_c2\Design01.cydsn/alloc.c ****   if( alloc_size < (1 << MRBC_ALLOC_IGNORE_LSBS) ) {
 321:..\..\mruby_c2\Design01.cydsn/alloc.c ****     alloc_size = (1 << MRBC_ALLOC_IGNORE_LSBS);
 322:..\..\mruby_c2\Design01.cydsn/alloc.c ****   }
 323:..\..\mruby_c2\Design01.cydsn/alloc.c **** #else
 324:..\..\mruby_c2\Design01.cydsn/alloc.c ****   assert( alloc_size >= (1 << MRBC_ALLOC_IGNORE_LSBS) );
ARM GAS  C:\Users\164\AppData\Local\Temp\ccprxMAM.s 			page 16


 486              		.loc 1 324 0
 487 000c 0F2D     		cmp	r5, #15
 488 000e 06D8     		bhi	.L43
 489              		.loc 1 324 0 is_stmt 0 discriminator 1
 490 0010 7D4B     		ldr	r3, .L79
 491 0012 7E4A     		ldr	r2, .L79+4
 492 0014 4FF4A271 		mov	r1, #324
 493 0018 7D48     		ldr	r0, .L79+8
 494              	.LVL69:
 495 001a FFF7FEFF 		bl	__assert_func
 496              	.LVL70:
 497              	.L43:
 325:..\..\mruby_c2\Design01.cydsn/alloc.c **** #endif
 326:..\..\mruby_c2\Design01.cydsn/alloc.c **** 
 327:..\..\mruby_c2\Design01.cydsn/alloc.c ****   // find free memory block.
 328:..\..\mruby_c2\Design01.cydsn/alloc.c ****   int index = calc_index(alloc_size);
 498              		.loc 1 328 0 is_stmt 1
 499 001e 2846     		mov	r0, r5
 500 0020 FFF7FEFF 		bl	calc_index
 501              	.LVL71:
 329:..\..\mruby_c2\Design01.cydsn/alloc.c ****   int fli   = FLI(index);
 502              		.loc 1 329 0
 503 0024 C0F3C801 		ubfx	r1, r0, #3, #9
 504              	.LVL72:
 330:..\..\mruby_c2\Design01.cydsn/alloc.c ****   int sli   = SLI(index);
 505              		.loc 1 330 0
 506 0028 00F00706 		and	r6, r0, #7
 507              	.LVL73:
 331:..\..\mruby_c2\Design01.cydsn/alloc.c **** 
 332:..\..\mruby_c2\Design01.cydsn/alloc.c ****   FREE_BLOCK *target = free_blocks[index];
 508              		.loc 1 332 0
 509 002c 794B     		ldr	r3, .L79+12
 510 002e 03EB8003 		add	r3, r3, r0, lsl #2
 511 0032 DC69     		ldr	r4, [r3, #28]
 512              	.LVL74:
 333:..\..\mruby_c2\Design01.cydsn/alloc.c **** 
 334:..\..\mruby_c2\Design01.cydsn/alloc.c ****   if( target == NULL ) {
 513              		.loc 1 334 0
 514 0034 002C     		cmp	r4, #0
 515 0036 40F09580 		bne	.L44
 516              	.LBB28:
 335:..\..\mruby_c2\Design01.cydsn/alloc.c ****     // uses free_fli/sli_bitmap table.
 336:..\..\mruby_c2\Design01.cydsn/alloc.c ****     uint16_t masked = free_sli_bitmap[fli] & ((MSB_BIT1 >> sli) - 1);
 517              		.loc 1 336 0
 518 003a 764B     		ldr	r3, .L79+12
 519 003c 03EB4103 		add	r3, r3, r1, lsl #1
 520 0040 9A88     		ldrh	r2, [r3, #4]
 521 0042 4FF40043 		mov	r3, #32768
 522 0046 3341     		asrs	r3, r3, r6
 523 0048 5E1E     		subs	r6, r3, #1
 524              	.LVL75:
 337:..\..\mruby_c2\Design01.cydsn/alloc.c ****     if( masked != 0 ) {
 525              		.loc 1 337 0
 526 004a 1640     		ands	r6, r6, r2
 527              	.LVL76:
 528 004c 16D0     		beq	.L45
 529              	.LVL77:
ARM GAS  C:\Users\164\AppData\Local\Temp\ccprxMAM.s 			page 17


 530              	.LBB29:
 531              	.LBB30:
 117:..\..\mruby_c2\Design01.cydsn/alloc.c **** 
 532              		.loc 1 117 0
 533 004e 9EB1     		cbz	r6, .L70
 534              	.LVL78:
 120:..\..\mruby_c2\Design01.cydsn/alloc.c ****   if((x >> 12) == 0 ) { n += 4; x <<= 4; }
 535              		.loc 1 120 0
 536 0050 330A     		lsrs	r3, r6, #8
 537              	.LVL79:
 538 0052 03D1     		bne	.L71
 539              	.LVL80:
 540 0054 3602     		lsls	r6, r6, #8
 541              	.LVL81:
 542 0056 B6B2     		uxth	r6, r6
 543              	.LVL82:
 544 0058 0923     		movs	r3, #9
 545 005a 00E0     		b	.L47
 546              	.LVL83:
 547              	.L71:
 119:..\..\mruby_c2\Design01.cydsn/alloc.c ****   if((x >>  8) == 0 ) { n += 8; x <<= 8; }
 548              		.loc 1 119 0
 549 005c 0123     		movs	r3, #1
 550              	.LVL84:
 551              	.L47:
 121:..\..\mruby_c2\Design01.cydsn/alloc.c ****   if((x >> 14) == 0 ) { n += 2; x <<= 2; }
 552              		.loc 1 121 0
 553 005e 320B     		lsrs	r2, r6, #12
 554              	.LVL85:
 555 0060 02D1     		bne	.L48
 556 0062 0433     		adds	r3, r3, #4
 557              	.LVL86:
 558 0064 3601     		lsls	r6, r6, #4
 559              	.LVL87:
 560 0066 B6B2     		uxth	r6, r6
 561              	.LVL88:
 562              	.L48:
 122:..\..\mruby_c2\Design01.cydsn/alloc.c ****   return n - (x >> 15);
 563              		.loc 1 122 0
 564 0068 B20B     		lsrs	r2, r6, #14
 565 006a 02D1     		bne	.L49
 566 006c 0233     		adds	r3, r3, #2
 567              	.LVL89:
 568 006e B600     		lsls	r6, r6, #2
 569              	.LVL90:
 570 0070 B6B2     		uxth	r6, r6
 571              	.LVL91:
 572              	.L49:
 123:..\..\mruby_c2\Design01.cydsn/alloc.c **** }
 573              		.loc 1 123 0
 574 0072 A3EBD636 		sub	r6, r3, r6, lsr #15
 575              	.LVL92:
 576 0076 43E0     		b	.L50
 577              	.LVL93:
 578              	.L70:
 117:..\..\mruby_c2\Design01.cydsn/alloc.c **** 
 579              		.loc 1 117 0
ARM GAS  C:\Users\164\AppData\Local\Temp\ccprxMAM.s 			page 18


 580 0078 1026     		movs	r6, #16
 581              	.LVL94:
 582 007a 41E0     		b	.L50
 583              	.LVL95:
 584              	.L45:
 585              	.LBE30:
 586              	.LBE29:
 338:..\..\mruby_c2\Design01.cydsn/alloc.c ****       sli = nlz16(masked);
 339:..\..\mruby_c2\Design01.cydsn/alloc.c ****     }
 340:..\..\mruby_c2\Design01.cydsn/alloc.c ****     else {
 341:..\..\mruby_c2\Design01.cydsn/alloc.c ****       masked = free_fli_bitmap & ((MSB_BIT1 >> fli) - 1);
 587              		.loc 1 341 0
 588 007c 4FF40043 		mov	r3, #32768
 589              	.LVL96:
 590 0080 43FA01F1 		asr	r1, r3, r1
 591              	.LVL97:
 592 0084 0139     		subs	r1, r1, #1
 593 0086 634B     		ldr	r3, .L79+12
 594              	.LVL98:
 595 0088 1B88     		ldrh	r3, [r3]
 596 008a 1940     		ands	r1, r1, r3
 597 008c 8BB2     		uxth	r3, r1
 598              	.LVL99:
 342:..\..\mruby_c2\Design01.cydsn/alloc.c ****       if( masked != 0 ) {
 599              		.loc 1 342 0
 600 008e 83B3     		cbz	r3, .L51
 601              	.LVL100:
 602              	.LBB31:
 603              	.LBB32:
 117:..\..\mruby_c2\Design01.cydsn/alloc.c **** 
 604              		.loc 1 117 0
 605 0090 9BB1     		cbz	r3, .L72
 606              	.LVL101:
 120:..\..\mruby_c2\Design01.cydsn/alloc.c ****   if((x >> 12) == 0 ) { n += 4; x <<= 4; }
 607              		.loc 1 120 0
 608 0092 1A0A     		lsrs	r2, r3, #8
 609 0094 03D1     		bne	.L73
 610              	.LVL102:
 611 0096 1902     		lsls	r1, r3, #8
 612 0098 8BB2     		uxth	r3, r1
 613              	.LVL103:
 614 009a 0921     		movs	r1, #9
 615 009c 00E0     		b	.L53
 616              	.LVL104:
 617              	.L73:
 119:..\..\mruby_c2\Design01.cydsn/alloc.c ****   if((x >>  8) == 0 ) { n += 8; x <<= 8; }
 618              		.loc 1 119 0
 619 009e 0121     		movs	r1, #1
 620              	.LVL105:
 621              	.L53:
 121:..\..\mruby_c2\Design01.cydsn/alloc.c ****   if((x >> 14) == 0 ) { n += 2; x <<= 2; }
 622              		.loc 1 121 0
 623 00a0 1A0B     		lsrs	r2, r3, #12
 624 00a2 02D1     		bne	.L54
 625 00a4 0431     		adds	r1, r1, #4
 626              	.LVL106:
 627 00a6 1B01     		lsls	r3, r3, #4
ARM GAS  C:\Users\164\AppData\Local\Temp\ccprxMAM.s 			page 19


 628              	.LVL107:
 629 00a8 9BB2     		uxth	r3, r3
 630              	.LVL108:
 631              	.L54:
 122:..\..\mruby_c2\Design01.cydsn/alloc.c ****   return n - (x >> 15);
 632              		.loc 1 122 0
 633 00aa 9A0B     		lsrs	r2, r3, #14
 634 00ac 02D1     		bne	.L55
 635 00ae 0231     		adds	r1, r1, #2
 636              	.LVL109:
 637 00b0 9B00     		lsls	r3, r3, #2
 638              	.LVL110:
 639 00b2 9BB2     		uxth	r3, r3
 640              	.LVL111:
 641              	.L55:
 123:..\..\mruby_c2\Design01.cydsn/alloc.c **** }
 642              		.loc 1 123 0
 643 00b4 A1EBD331 		sub	r1, r1, r3, lsr #15
 644              	.LVL112:
 645 00b8 00E0     		b	.L52
 646              	.LVL113:
 647              	.L72:
 117:..\..\mruby_c2\Design01.cydsn/alloc.c **** 
 648              		.loc 1 117 0
 649 00ba 1021     		movs	r1, #16
 650              	.LVL114:
 651              	.L52:
 652              	.LBE32:
 653              	.LBE31:
 343:..\..\mruby_c2\Design01.cydsn/alloc.c **** 	fli = nlz16(masked);
 344:..\..\mruby_c2\Design01.cydsn/alloc.c **** 	sli = nlz16(free_sli_bitmap[fli]);
 654              		.loc 1 344 0
 655 00bc 554B     		ldr	r3, .L79+12
 656 00be 03EB4103 		add	r3, r3, r1, lsl #1
 657 00c2 9B88     		ldrh	r3, [r3, #4]
 658              	.LVL115:
 659              	.LBB33:
 660              	.LBB34:
 117:..\..\mruby_c2\Design01.cydsn/alloc.c **** 
 661              		.loc 1 117 0
 662 00c4 9BB1     		cbz	r3, .L74
 663              	.LVL116:
 120:..\..\mruby_c2\Design01.cydsn/alloc.c ****   if((x >> 12) == 0 ) { n += 4; x <<= 4; }
 664              		.loc 1 120 0
 665 00c6 1A0A     		lsrs	r2, r3, #8
 666 00c8 03D1     		bne	.L75
 667              	.LVL117:
 668 00ca 1E02     		lsls	r6, r3, #8
 669 00cc B3B2     		uxth	r3, r6
 670              	.LVL118:
 671 00ce 0926     		movs	r6, #9
 672 00d0 00E0     		b	.L57
 673              	.LVL119:
 674              	.L75:
 119:..\..\mruby_c2\Design01.cydsn/alloc.c ****   if((x >>  8) == 0 ) { n += 8; x <<= 8; }
 675              		.loc 1 119 0
 676 00d2 0126     		movs	r6, #1
ARM GAS  C:\Users\164\AppData\Local\Temp\ccprxMAM.s 			page 20


 677              	.LVL120:
 678              	.L57:
 121:..\..\mruby_c2\Design01.cydsn/alloc.c ****   if((x >> 14) == 0 ) { n += 2; x <<= 2; }
 679              		.loc 1 121 0
 680 00d4 1A0B     		lsrs	r2, r3, #12
 681 00d6 02D1     		bne	.L58
 682 00d8 0436     		adds	r6, r6, #4
 683              	.LVL121:
 684 00da 1B01     		lsls	r3, r3, #4
 685              	.LVL122:
 686 00dc 9BB2     		uxth	r3, r3
 687              	.LVL123:
 688              	.L58:
 122:..\..\mruby_c2\Design01.cydsn/alloc.c ****   return n - (x >> 15);
 689              		.loc 1 122 0
 690 00de 9A0B     		lsrs	r2, r3, #14
 691 00e0 02D1     		bne	.L59
 692 00e2 0236     		adds	r6, r6, #2
 693              	.LVL124:
 694 00e4 9B00     		lsls	r3, r3, #2
 695              	.LVL125:
 696 00e6 9BB2     		uxth	r3, r3
 697              	.LVL126:
 698              	.L59:
 123:..\..\mruby_c2\Design01.cydsn/alloc.c **** }
 699              		.loc 1 123 0
 700 00e8 A6EBD336 		sub	r6, r6, r3, lsr #15
 701              	.LVL127:
 702 00ec 08E0     		b	.L50
 703              	.L74:
 117:..\..\mruby_c2\Design01.cydsn/alloc.c **** 
 704              		.loc 1 117 0
 705 00ee 1026     		movs	r6, #16
 706              	.LVL128:
 707 00f0 06E0     		b	.L50
 708              	.LVL129:
 709              	.L51:
 710              	.LBE34:
 711              	.LBE33:
 712              	.LBB35:
 713              	.LBB36:
 714              		.file 2 "..\\..\\mruby_c2\\Design01.cydsn\\console.h"
   1:..\..\mruby_c2\Design01.cydsn/console.h **** /*! @file
   2:..\..\mruby_c2\Design01.cydsn/console.h ****   @brief
   3:..\..\mruby_c2\Design01.cydsn/console.h ****   console output module. (not yet input)
   4:..\..\mruby_c2\Design01.cydsn/console.h **** 
   5:..\..\mruby_c2\Design01.cydsn/console.h ****   <pre>
   6:..\..\mruby_c2\Design01.cydsn/console.h ****   Copyright (C) 2015-2017 Kyushu Institute of Technology.
   7:..\..\mruby_c2\Design01.cydsn/console.h ****   Copyright (C) 2015-2017 Shimane IT Open-Innovation Center.
   8:..\..\mruby_c2\Design01.cydsn/console.h **** 
   9:..\..\mruby_c2\Design01.cydsn/console.h ****   This file is distributed under BSD 3-Clause License.
  10:..\..\mruby_c2\Design01.cydsn/console.h **** 
  11:..\..\mruby_c2\Design01.cydsn/console.h ****   </pre>
  12:..\..\mruby_c2\Design01.cydsn/console.h **** */
  13:..\..\mruby_c2\Design01.cydsn/console.h **** 
  14:..\..\mruby_c2\Design01.cydsn/console.h **** #ifndef MRBC_SRC_CONSOLE_H_
  15:..\..\mruby_c2\Design01.cydsn/console.h **** #define MRBC_SRC_CONSOLE_H_
ARM GAS  C:\Users\164\AppData\Local\Temp\ccprxMAM.s 			page 21


  16:..\..\mruby_c2\Design01.cydsn/console.h **** 
  17:..\..\mruby_c2\Design01.cydsn/console.h **** #include <stdint.h>
  18:..\..\mruby_c2\Design01.cydsn/console.h **** #include <stdarg.h>
  19:..\..\mruby_c2\Design01.cydsn/console.h **** #include <string.h>
  20:..\..\mruby_c2\Design01.cydsn/console.h **** #include "hal/hal.h"
  21:..\..\mruby_c2\Design01.cydsn/console.h **** 
  22:..\..\mruby_c2\Design01.cydsn/console.h **** #ifdef __cplusplus
  23:..\..\mruby_c2\Design01.cydsn/console.h **** extern "C" {
  24:..\..\mruby_c2\Design01.cydsn/console.h **** #endif
  25:..\..\mruby_c2\Design01.cydsn/console.h **** 
  26:..\..\mruby_c2\Design01.cydsn/console.h **** 
  27:..\..\mruby_c2\Design01.cydsn/console.h **** //================================================================
  28:..\..\mruby_c2\Design01.cydsn/console.h **** /*! printf tiny (mruby/c) version data container.
  29:..\..\mruby_c2\Design01.cydsn/console.h **** */
  30:..\..\mruby_c2\Design01.cydsn/console.h **** typedef struct RPrintf {
  31:..\..\mruby_c2\Design01.cydsn/console.h ****   char *buf;		//!< output buffer.
  32:..\..\mruby_c2\Design01.cydsn/console.h ****   const char *buf_end;	//!< output buffer end point.
  33:..\..\mruby_c2\Design01.cydsn/console.h ****   char *p;		//!< output buffer write point.
  34:..\..\mruby_c2\Design01.cydsn/console.h ****   const char *fstr;	//!< format string. (e.g. "%d %03x")
  35:..\..\mruby_c2\Design01.cydsn/console.h **** 
  36:..\..\mruby_c2\Design01.cydsn/console.h ****   struct RPrintfFormat {
  37:..\..\mruby_c2\Design01.cydsn/console.h ****     char type;				//!< format char. (e.g. 'd','f','x'...)
  38:..\..\mruby_c2\Design01.cydsn/console.h ****     unsigned int flag_plus : 1;
  39:..\..\mruby_c2\Design01.cydsn/console.h ****     unsigned int flag_minus : 1;
  40:..\..\mruby_c2\Design01.cydsn/console.h ****     unsigned int flag_space : 1;
  41:..\..\mruby_c2\Design01.cydsn/console.h ****     unsigned int flag_zero : 1;
  42:..\..\mruby_c2\Design01.cydsn/console.h ****     int width;				//!< display width. (e.g. %10d as 10)
  43:..\..\mruby_c2\Design01.cydsn/console.h ****     int precision;			//!< precision (e.g. %5.2f as 2)
  44:..\..\mruby_c2\Design01.cydsn/console.h ****   } fmt;
  45:..\..\mruby_c2\Design01.cydsn/console.h **** } mrb_printf;
  46:..\..\mruby_c2\Design01.cydsn/console.h **** 
  47:..\..\mruby_c2\Design01.cydsn/console.h **** 
  48:..\..\mruby_c2\Design01.cydsn/console.h **** 
  49:..\..\mruby_c2\Design01.cydsn/console.h **** void console_printf(const char *fstr, ...);
  50:..\..\mruby_c2\Design01.cydsn/console.h **** int mrbc_printf_main(mrb_printf *pf);
  51:..\..\mruby_c2\Design01.cydsn/console.h **** int mrbc_printf_char(mrb_printf *pf, int ch);
  52:..\..\mruby_c2\Design01.cydsn/console.h **** int mrbc_printf_str(mrb_printf *pf, const char *str, int pad);
  53:..\..\mruby_c2\Design01.cydsn/console.h **** int mrbc_printf_int(mrb_printf *pf, int32_t value, int base);
  54:..\..\mruby_c2\Design01.cydsn/console.h **** int mrbc_printf_float( mrb_printf *pf, double value );
  55:..\..\mruby_c2\Design01.cydsn/console.h **** void mrbc_printf_replace_buffer(mrb_printf *pf, char *buf, int size);
  56:..\..\mruby_c2\Design01.cydsn/console.h **** 
  57:..\..\mruby_c2\Design01.cydsn/console.h **** 
  58:..\..\mruby_c2\Design01.cydsn/console.h **** //================================================================
  59:..\..\mruby_c2\Design01.cydsn/console.h **** /*! output a character
  60:..\..\mruby_c2\Design01.cydsn/console.h **** 
  61:..\..\mruby_c2\Design01.cydsn/console.h ****   @param  c	character
  62:..\..\mruby_c2\Design01.cydsn/console.h **** */
  63:..\..\mruby_c2\Design01.cydsn/console.h **** static inline void console_putchar(char c)
  64:..\..\mruby_c2\Design01.cydsn/console.h **** {
  65:..\..\mruby_c2\Design01.cydsn/console.h ****   hal_write(1, &c, 1);
  66:..\..\mruby_c2\Design01.cydsn/console.h **** }
  67:..\..\mruby_c2\Design01.cydsn/console.h **** 
  68:..\..\mruby_c2\Design01.cydsn/console.h **** 
  69:..\..\mruby_c2\Design01.cydsn/console.h **** //================================================================
  70:..\..\mruby_c2\Design01.cydsn/console.h **** /*! output string
  71:..\..\mruby_c2\Design01.cydsn/console.h **** 
  72:..\..\mruby_c2\Design01.cydsn/console.h ****   @param str	str
ARM GAS  C:\Users\164\AppData\Local\Temp\ccprxMAM.s 			page 22


  73:..\..\mruby_c2\Design01.cydsn/console.h **** */
  74:..\..\mruby_c2\Design01.cydsn/console.h **** static inline void console_print(const char *str)
  75:..\..\mruby_c2\Design01.cydsn/console.h **** {
  76:..\..\mruby_c2\Design01.cydsn/console.h ****   hal_write(1, str, strlen(str));
 715              		.loc 2 76 0
 716 00f2 1C22     		movs	r2, #28
 717 00f4 4849     		ldr	r1, .L79+16
 718 00f6 0120     		movs	r0, #1
 719              	.LVL130:
 720 00f8 FFF7FEFF 		bl	hal_write
 721              	.LVL131:
 722              	.LBE36:
 723              	.LBE35:
 345:..\..\mruby_c2\Design01.cydsn/alloc.c ****       }
 346:..\..\mruby_c2\Design01.cydsn/alloc.c ****       else {
 347:..\..\mruby_c2\Design01.cydsn/alloc.c **** 	// out of memory
 348:..\..\mruby_c2\Design01.cydsn/alloc.c **** 	console_print("Fatal error: Out of memory.\n");
 349:..\..\mruby_c2\Design01.cydsn/alloc.c **** 	return NULL;  // ENOMEM
 724              		.loc 1 349 0
 725 00fc 0020     		movs	r0, #0
 726 00fe 70BD     		pop	{r4, r5, r6, pc}
 727              	.LVL132:
 728              	.L50:
 350:..\..\mruby_c2\Design01.cydsn/alloc.c ****       }
 351:..\..\mruby_c2\Design01.cydsn/alloc.c ****     }
 352:..\..\mruby_c2\Design01.cydsn/alloc.c ****     assert(fli >= 0);
 729              		.loc 1 352 0
 730 0100 0029     		cmp	r1, #0
 731 0102 06DA     		bge	.L61
 732              		.loc 1 352 0 is_stmt 0 discriminator 1
 733 0104 454B     		ldr	r3, .L79+20
 734 0106 414A     		ldr	r2, .L79+4
 735 0108 4FF4B071 		mov	r1, #352
 736              	.LVL133:
 737 010c 4048     		ldr	r0, .L79+8
 738              	.LVL134:
 739 010e FFF7FEFF 		bl	__assert_func
 740              	.LVL135:
 741              	.L61:
 353:..\..\mruby_c2\Design01.cydsn/alloc.c ****     assert(fli <= MRBC_ALLOC_FLI_BIT_WIDTH);
 742              		.loc 1 353 0 is_stmt 1
 743 0112 0929     		cmp	r1, #9
 744 0114 06DD     		ble	.L62
 745              		.loc 1 353 0 is_stmt 0 discriminator 1
 746 0116 424B     		ldr	r3, .L79+24
 747 0118 3C4A     		ldr	r2, .L79+4
 748 011a 40F26111 		movw	r1, #353
 749              	.LVL136:
 750 011e 3C48     		ldr	r0, .L79+8
 751              	.LVL137:
 752 0120 FFF7FEFF 		bl	__assert_func
 753              	.LVL138:
 754              	.L62:
 354:..\..\mruby_c2\Design01.cydsn/alloc.c ****     assert(sli >= 0);
 755              		.loc 1 354 0 is_stmt 1
 756 0124 002E     		cmp	r6, #0
 757 0126 06DA     		bge	.L63
ARM GAS  C:\Users\164\AppData\Local\Temp\ccprxMAM.s 			page 23


 758              		.loc 1 354 0 is_stmt 0 discriminator 1
 759 0128 3E4B     		ldr	r3, .L79+28
 760 012a 384A     		ldr	r2, .L79+4
 761 012c 4FF4B171 		mov	r1, #354
 762              	.LVL139:
 763 0130 3748     		ldr	r0, .L79+8
 764              	.LVL140:
 765 0132 FFF7FEFF 		bl	__assert_func
 766              	.LVL141:
 767              	.L63:
 355:..\..\mruby_c2\Design01.cydsn/alloc.c ****     assert(sli <= (1 << MRBC_ALLOC_SLI_BIT_WIDTH) - 1);
 768              		.loc 1 355 0 is_stmt 1
 769 0136 072E     		cmp	r6, #7
 770 0138 06DD     		ble	.L64
 771              		.loc 1 355 0 is_stmt 0 discriminator 1
 772 013a 3B4B     		ldr	r3, .L79+32
 773 013c 334A     		ldr	r2, .L79+4
 774 013e 40F26311 		movw	r1, #355
 775              	.LVL142:
 776 0142 3348     		ldr	r0, .L79+8
 777              	.LVL143:
 778 0144 FFF7FEFF 		bl	__assert_func
 779              	.LVL144:
 780              	.L64:
 356:..\..\mruby_c2\Design01.cydsn/alloc.c **** 
 357:..\..\mruby_c2\Design01.cydsn/alloc.c ****     index = (fli << MRBC_ALLOC_SLI_BIT_WIDTH) + sli;
 781              		.loc 1 357 0 is_stmt 1
 782 0148 06EBC100 		add	r0, r6, r1, lsl #3
 783              	.LVL145:
 358:..\..\mruby_c2\Design01.cydsn/alloc.c ****     target = free_blocks[index];
 784              		.loc 1 358 0
 785 014c 314B     		ldr	r3, .L79+12
 786 014e 03EB8003 		add	r3, r3, r0, lsl #2
 787 0152 DC69     		ldr	r4, [r3, #28]
 788              	.LVL146:
 359:..\..\mruby_c2\Design01.cydsn/alloc.c ****     assert( target != NULL );
 789              		.loc 1 359 0
 790 0154 34B9     		cbnz	r4, .L44
 791              		.loc 1 359 0 is_stmt 0 discriminator 1
 792 0156 354B     		ldr	r3, .L79+36
 793 0158 2C4A     		ldr	r2, .L79+4
 794 015a 40F26711 		movw	r1, #359
 795              	.LVL147:
 796 015e 2C48     		ldr	r0, .L79+8
 797              	.LVL148:
 798 0160 FFF7FEFF 		bl	__assert_func
 799              	.LVL149:
 800              	.L44:
 801              	.LBE28:
 360:..\..\mruby_c2\Design01.cydsn/alloc.c ****   }
 361:..\..\mruby_c2\Design01.cydsn/alloc.c ****   assert(target->size >= alloc_size);
 802              		.loc 1 361 0 is_stmt 1
 803 0164 6388     		ldrh	r3, [r4, #2]
 804 0166 9D42     		cmp	r5, r3
 805 0168 06D9     		bls	.L65
 806              		.loc 1 361 0 is_stmt 0 discriminator 1
 807 016a 314B     		ldr	r3, .L79+40
ARM GAS  C:\Users\164\AppData\Local\Temp\ccprxMAM.s 			page 24


 808 016c 274A     		ldr	r2, .L79+4
 809 016e 40F26911 		movw	r1, #361
 810              	.LVL150:
 811 0172 2748     		ldr	r0, .L79+8
 812              	.LVL151:
 813 0174 FFF7FEFF 		bl	__assert_func
 814              	.LVL152:
 815              	.L65:
 362:..\..\mruby_c2\Design01.cydsn/alloc.c **** 
 363:..\..\mruby_c2\Design01.cydsn/alloc.c ****   // remove free_blocks index
 364:..\..\mruby_c2\Design01.cydsn/alloc.c ****   target->f          = FLAG_USED_BLOCK;
 816              		.loc 1 364 0 is_stmt 1
 817 0178 2378     		ldrb	r3, [r4]	@ zero_extendqisi2
 818 017a 6FF34103 		bfc	r3, #1, #1
 819 017e 2370     		strb	r3, [r4]
 365:..\..\mruby_c2\Design01.cydsn/alloc.c ****   free_blocks[index] = target->next_free;
 820              		.loc 1 365 0
 821 0180 A268     		ldr	r2, [r4, #8]
 822 0182 244B     		ldr	r3, .L79+12
 823 0184 03EB8000 		add	r0, r3, r0, lsl #2
 824              	.LVL153:
 825 0188 C261     		str	r2, [r0, #28]
 366:..\..\mruby_c2\Design01.cydsn/alloc.c **** 
 367:..\..\mruby_c2\Design01.cydsn/alloc.c ****   if( target->next_free == NULL ) {
 826              		.loc 1 367 0
 827 018a B2B9     		cbnz	r2, .L66
 368:..\..\mruby_c2\Design01.cydsn/alloc.c ****     free_sli_bitmap[fli] &= ~(MSB_BIT1 >> sli);
 828              		.loc 1 368 0
 829 018c 4FF40043 		mov	r3, #32768
 830 0190 43FA06F6 		asr	r6, r3, r6
 831              	.LVL154:
 832 0194 1F4A     		ldr	r2, .L79+12
 833 0196 02EB4102 		add	r2, r2, r1, lsl #1
 834 019a 9388     		ldrh	r3, [r2, #4]
 835 019c 23EA0606 		bic	r6, r3, r6
 836 01a0 B6B2     		uxth	r6, r6
 837 01a2 9680     		strh	r6, [r2, #4]	@ movhi
 369:..\..\mruby_c2\Design01.cydsn/alloc.c ****     if( free_sli_bitmap[fli] == 0 ) free_fli_bitmap &= ~(MSB_BIT1 >> fli);
 838              		.loc 1 369 0
 839 01a4 5EB9     		cbnz	r6, .L67
 840              		.loc 1 369 0 is_stmt 0 discriminator 1
 841 01a6 4FF40043 		mov	r3, #32768
 842 01aa 43FA01F1 		asr	r1, r3, r1
 843              	.LVL155:
 844 01ae 194A     		ldr	r2, .L79+12
 845 01b0 1388     		ldrh	r3, [r2]
 846 01b2 23EA0101 		bic	r1, r3, r1
 847 01b6 1180     		strh	r1, [r2]	@ movhi
 848 01b8 01E0     		b	.L67
 849              	.LVL156:
 850              	.L66:
 370:..\..\mruby_c2\Design01.cydsn/alloc.c ****   }
 371:..\..\mruby_c2\Design01.cydsn/alloc.c ****   else {
 372:..\..\mruby_c2\Design01.cydsn/alloc.c ****     target->next_free->prev_free = NULL;
 851              		.loc 1 372 0 is_stmt 1
 852 01ba 0023     		movs	r3, #0
 853 01bc D360     		str	r3, [r2, #12]
ARM GAS  C:\Users\164\AppData\Local\Temp\ccprxMAM.s 			page 25


 854              	.LVL157:
 855              	.L67:
 856              	.LBB37:
 857              	.LBB38:
 233:..\..\mruby_c2\Design01.cydsn/alloc.c ****                       + (1 << MRBC_ALLOC_IGNORE_LSBS)) ) return NULL;
 858              		.loc 1 233 0
 859 01be 6388     		ldrh	r3, [r4, #2]
 234:..\..\mruby_c2\Design01.cydsn/alloc.c **** 
 860              		.loc 1 234 0
 861 01c0 05F12002 		add	r2, r5, #32
 233:..\..\mruby_c2\Design01.cydsn/alloc.c ****                       + (1 << MRBC_ALLOC_IGNORE_LSBS)) ) return NULL;
 862              		.loc 1 233 0
 863 01c4 9342     		cmp	r3, r2
 864 01c6 16D3     		bcc	.L76
 237:..\..\mruby_c2\Design01.cydsn/alloc.c ****   FREE_BLOCK *next  = (FREE_BLOCK *)PHYS_NEXT(target);
 865              		.loc 1 237 0
 866 01c8 6019     		adds	r0, r4, r5
 867              	.LVL158:
 238:..\..\mruby_c2\Design01.cydsn/alloc.c **** 
 868              		.loc 1 238 0
 869 01ca E618     		adds	r6, r4, r3
 870              	.LVL159:
 240:..\..\mruby_c2\Design01.cydsn/alloc.c ****   SET_PHYS_PREV(target, split);
 871              		.loc 1 240 0
 872 01cc AAB2     		uxth	r2, r5
 873 01ce 9B1A     		subs	r3, r3, r2
 874 01d0 4380     		strh	r3, [r0, #2]	@ movhi
 241:..\..\mruby_c2\Design01.cydsn/alloc.c ****   split->t     = target->t;
 875              		.loc 1 241 0
 876 01d2 8280     		strh	r2, [r0, #4]	@ movhi
 242:..\..\mruby_c2\Design01.cydsn/alloc.c ****   target->size = size;
 877              		.loc 1 242 0
 878 01d4 2178     		ldrb	r1, [r4]	@ zero_extendqisi2
 879 01d6 635D     		ldrb	r3, [r4, r5]	@ zero_extendqisi2
 880 01d8 61F30003 		bfi	r3, r1, #0, #1
 881 01dc 6355     		strb	r3, [r4, r5]
 243:..\..\mruby_c2\Design01.cydsn/alloc.c ****   target->t    = FLAG_NOT_TAIL_BLOCK;
 882              		.loc 1 243 0
 883 01de 6280     		strh	r2, [r4, #2]	@ movhi
 244:..\..\mruby_c2\Design01.cydsn/alloc.c ****   if( split->t == FLAG_NOT_TAIL_BLOCK ) {
 884              		.loc 1 244 0
 885 01e0 2378     		ldrb	r3, [r4]	@ zero_extendqisi2
 886 01e2 6FF30003 		bfc	r3, #0, #1
 887 01e6 2370     		strb	r3, [r4]
 245:..\..\mruby_c2\Design01.cydsn/alloc.c ****     SET_PHYS_PREV(split, next);
 888              		.loc 1 245 0
 889 01e8 635D     		ldrb	r3, [r4, r5]	@ zero_extendqisi2
 890 01ea 13F0010F 		tst	r3, #1
 891 01ee 03D1     		bne	.L68
 246:..\..\mruby_c2\Design01.cydsn/alloc.c ****   }
 892              		.loc 1 246 0
 893 01f0 331A     		subs	r3, r6, r0
 894 01f2 B380     		strh	r3, [r6, #4]	@ movhi
 895 01f4 00E0     		b	.L68
 896              	.LVL160:
 897              	.L76:
 234:..\..\mruby_c2\Design01.cydsn/alloc.c **** 
ARM GAS  C:\Users\164\AppData\Local\Temp\ccprxMAM.s 			page 26


 898              		.loc 1 234 0
 899 01f6 0020     		movs	r0, #0
 900              	.L68:
 901              	.LVL161:
 902              	.LBE38:
 903              	.LBE37:
 373:..\..\mruby_c2\Design01.cydsn/alloc.c ****   }
 374:..\..\mruby_c2\Design01.cydsn/alloc.c **** 
 375:..\..\mruby_c2\Design01.cydsn/alloc.c ****   // split a block
 376:..\..\mruby_c2\Design01.cydsn/alloc.c ****   FREE_BLOCK *release = split_block(target, alloc_size);
 377:..\..\mruby_c2\Design01.cydsn/alloc.c ****   if( release != NULL ) {
 904              		.loc 1 377 0
 905 01f8 08B1     		cbz	r0, .L69
 378:..\..\mruby_c2\Design01.cydsn/alloc.c ****     add_free_block(release);
 906              		.loc 1 378 0
 907 01fa FFF7FEFF 		bl	add_free_block
 908              	.LVL162:
 909              	.L69:
 379:..\..\mruby_c2\Design01.cydsn/alloc.c ****   }
 380:..\..\mruby_c2\Design01.cydsn/alloc.c **** 
 381:..\..\mruby_c2\Design01.cydsn/alloc.c **** #ifdef MRBC_DEBUG
 382:..\..\mruby_c2\Design01.cydsn/alloc.c ****   memset( (uint8_t *)target + sizeof(USED_BLOCK), 0xaa,
 383:..\..\mruby_c2\Design01.cydsn/alloc.c ****           target->size - sizeof(USED_BLOCK) );
 384:..\..\mruby_c2\Design01.cydsn/alloc.c **** #endif
 385:..\..\mruby_c2\Design01.cydsn/alloc.c ****   target->vm_id = 0;
 910              		.loc 1 385 0
 911 01fe 0023     		movs	r3, #0
 912 0200 6370     		strb	r3, [r4, #1]
 386:..\..\mruby_c2\Design01.cydsn/alloc.c **** 
 387:..\..\mruby_c2\Design01.cydsn/alloc.c ****   return (uint8_t *)target + sizeof(USED_BLOCK);
 913              		.loc 1 387 0
 914 0202 04F10800 		add	r0, r4, #8
 388:..\..\mruby_c2\Design01.cydsn/alloc.c **** }
 915              		.loc 1 388 0
 916 0206 70BD     		pop	{r4, r5, r6, pc}
 917              	.LVL163:
 918              	.L80:
 919              		.align	2
 920              	.L79:
 921 0208 BC000000 		.word	.LC7
 922 020c 28000000 		.word	.LANCHOR0+40
 923 0210 0C000000 		.word	.LC1
 924 0214 00000000 		.word	.LANCHOR1
 925 0218 E8000000 		.word	.LC8
 926 021c 34000000 		.word	.LC2
 927 0220 40000000 		.word	.LC3
 928 0224 08010000 		.word	.LC9
 929 0228 60000000 		.word	.LC4
 930 022c 14010000 		.word	.LC10
 931 0230 24010000 		.word	.LC11
 932              		.cfi_endproc
 933              	.LFE83:
 934              		.size	mrbc_raw_alloc, .-mrbc_raw_alloc
 935              		.section	.text.mrbc_raw_free,"ax",%progbits
 936              		.align	2
 937              		.global	mrbc_raw_free
 938              		.thumb
ARM GAS  C:\Users\164\AppData\Local\Temp\ccprxMAM.s 			page 27


 939              		.thumb_func
 940              		.type	mrbc_raw_free, %function
 941              	mrbc_raw_free:
 942              	.LFB84:
 389:..\..\mruby_c2\Design01.cydsn/alloc.c **** 
 390:..\..\mruby_c2\Design01.cydsn/alloc.c **** 
 391:..\..\mruby_c2\Design01.cydsn/alloc.c **** //================================================================
 392:..\..\mruby_c2\Design01.cydsn/alloc.c **** /*! release memory
 393:..\..\mruby_c2\Design01.cydsn/alloc.c **** 
 394:..\..\mruby_c2\Design01.cydsn/alloc.c ****   @param  ptr	Return value of mrbc_raw_alloc()
 395:..\..\mruby_c2\Design01.cydsn/alloc.c **** */
 396:..\..\mruby_c2\Design01.cydsn/alloc.c **** void mrbc_raw_free(void *ptr)
 397:..\..\mruby_c2\Design01.cydsn/alloc.c **** {
 943              		.loc 1 397 0
 944              		.cfi_startproc
 945              		@ args = 0, pretend = 0, frame = 0
 946              		@ frame_needed = 0, uses_anonymous_args = 0
 947              	.LVL164:
 948 0000 70B5     		push	{r4, r5, r6, lr}
 949              		.cfi_def_cfa_offset 16
 950              		.cfi_offset 4, -16
 951              		.cfi_offset 5, -12
 952              		.cfi_offset 6, -8
 953              		.cfi_offset 14, -4
 954 0002 0546     		mov	r5, r0
 398:..\..\mruby_c2\Design01.cydsn/alloc.c ****   // get target block
 399:..\..\mruby_c2\Design01.cydsn/alloc.c ****   FREE_BLOCK *target = (FREE_BLOCK *)((uint8_t *)ptr - sizeof(USED_BLOCK));
 955              		.loc 1 399 0
 956 0004 A0F10804 		sub	r4, r0, #8
 957              	.LVL165:
 400:..\..\mruby_c2\Design01.cydsn/alloc.c **** 
 401:..\..\mruby_c2\Design01.cydsn/alloc.c ****   // check next block, merge?
 402:..\..\mruby_c2\Design01.cydsn/alloc.c ****   FREE_BLOCK *next = (FREE_BLOCK *)PHYS_NEXT(target);
 958              		.loc 1 402 0
 959 0008 30F8063C 		ldrh	r3, [r0, #-6]
 960 000c E618     		adds	r6, r4, r3
 961              	.LVL166:
 403:..\..\mruby_c2\Design01.cydsn/alloc.c **** 
 404:..\..\mruby_c2\Design01.cydsn/alloc.c ****   if((target->t == FLAG_NOT_TAIL_BLOCK) && (next->f == FLAG_FREE_BLOCK)) {
 962              		.loc 1 404 0
 963 000e 10F8082C 		ldrb	r2, [r0, #-8]	@ zero_extendqisi2
 964 0012 12F0010F 		tst	r2, #1
 965 0016 0AD1     		bne	.L82
 966              		.loc 1 404 0 is_stmt 0 discriminator 1
 967 0018 E35C     		ldrb	r3, [r4, r3]	@ zero_extendqisi2
 968 001a 13F0020F 		tst	r3, #2
 969 001e 06D0     		beq	.L82
 405:..\..\mruby_c2\Design01.cydsn/alloc.c ****     remove_index(next);
 970              		.loc 1 405 0 is_stmt 1
 971 0020 3046     		mov	r0, r6
 972              	.LVL167:
 973 0022 FFF7FEFF 		bl	remove_index
 974              	.LVL168:
 406:..\..\mruby_c2\Design01.cydsn/alloc.c ****     merge_block(target, next);
 975              		.loc 1 406 0
 976 0026 3146     		mov	r1, r6
 977 0028 2046     		mov	r0, r4
ARM GAS  C:\Users\164\AppData\Local\Temp\ccprxMAM.s 			page 28


 978 002a FFF7FEFF 		bl	merge_block
 979              	.LVL169:
 980              	.L82:
 407:..\..\mruby_c2\Design01.cydsn/alloc.c ****   }
 408:..\..\mruby_c2\Design01.cydsn/alloc.c **** 
 409:..\..\mruby_c2\Design01.cydsn/alloc.c ****   // check previous block, merge?
 410:..\..\mruby_c2\Design01.cydsn/alloc.c ****   FREE_BLOCK *prev = (FREE_BLOCK *)PHYS_PREV(target);
 981              		.loc 1 410 0
 982 002e 35F8043C 		ldrh	r3, [r5, #-4]
 983 0032 5B42     		negs	r3, r3
 984              	.LVL170:
 411:..\..\mruby_c2\Design01.cydsn/alloc.c **** 
 412:..\..\mruby_c2\Design01.cydsn/alloc.c ****   if((prev != NULL) && (prev->f == FLAG_FREE_BLOCK)) {
 985              		.loc 1 412 0
 986 0034 E518     		adds	r5, r4, r3
 987              	.LVL171:
 988 0036 0BD0     		beq	.L83
 989              		.loc 1 412 0 is_stmt 0 discriminator 1
 990 0038 E35C     		ldrb	r3, [r4, r3]	@ zero_extendqisi2
 991 003a 13F0020F 		tst	r3, #2
 992 003e 07D0     		beq	.L83
 413:..\..\mruby_c2\Design01.cydsn/alloc.c ****     remove_index(prev);
 993              		.loc 1 413 0 is_stmt 1
 994 0040 2846     		mov	r0, r5
 995 0042 FFF7FEFF 		bl	remove_index
 996              	.LVL172:
 414:..\..\mruby_c2\Design01.cydsn/alloc.c ****     merge_block(prev, target);
 997              		.loc 1 414 0
 998 0046 2146     		mov	r1, r4
 999 0048 2846     		mov	r0, r5
 1000 004a FFF7FEFF 		bl	merge_block
 1001              	.LVL173:
 415:..\..\mruby_c2\Design01.cydsn/alloc.c ****     target = prev;
 1002              		.loc 1 415 0
 1003 004e 2C46     		mov	r4, r5
 1004              	.LVL174:
 1005              	.L83:
 416:..\..\mruby_c2\Design01.cydsn/alloc.c ****   }
 417:..\..\mruby_c2\Design01.cydsn/alloc.c **** 
 418:..\..\mruby_c2\Design01.cydsn/alloc.c ****   // target, add to index
 419:..\..\mruby_c2\Design01.cydsn/alloc.c ****   add_free_block(target);
 1006              		.loc 1 419 0
 1007 0050 2046     		mov	r0, r4
 1008 0052 FFF7FEFF 		bl	add_free_block
 1009              	.LVL175:
 1010 0056 70BD     		pop	{r4, r5, r6, pc}
 1011              		.cfi_endproc
 1012              	.LFE84:
 1013              		.size	mrbc_raw_free, .-mrbc_raw_free
 1014              		.section	.text.mrbc_raw_realloc,"ax",%progbits
 1015              		.align	2
 1016              		.global	mrbc_raw_realloc
 1017              		.thumb
 1018              		.thumb_func
 1019              		.type	mrbc_raw_realloc, %function
 1020              	mrbc_raw_realloc:
 1021              	.LFB85:
ARM GAS  C:\Users\164\AppData\Local\Temp\ccprxMAM.s 			page 29


 420:..\..\mruby_c2\Design01.cydsn/alloc.c **** }
 421:..\..\mruby_c2\Design01.cydsn/alloc.c **** 
 422:..\..\mruby_c2\Design01.cydsn/alloc.c **** 
 423:..\..\mruby_c2\Design01.cydsn/alloc.c **** //================================================================
 424:..\..\mruby_c2\Design01.cydsn/alloc.c **** /*! re-allocate memory
 425:..\..\mruby_c2\Design01.cydsn/alloc.c **** 
 426:..\..\mruby_c2\Design01.cydsn/alloc.c ****   @param  ptr	Return value of mrbc_raw_alloc()
 427:..\..\mruby_c2\Design01.cydsn/alloc.c ****   @param  size	request size
 428:..\..\mruby_c2\Design01.cydsn/alloc.c ****   @return void * pointer to allocated memory.
 429:..\..\mruby_c2\Design01.cydsn/alloc.c ****   @retval NULL	error.
 430:..\..\mruby_c2\Design01.cydsn/alloc.c **** */
 431:..\..\mruby_c2\Design01.cydsn/alloc.c **** void * mrbc_raw_realloc(void *ptr, unsigned int size)
 432:..\..\mruby_c2\Design01.cydsn/alloc.c **** {
 1022              		.loc 1 432 0
 1023              		.cfi_startproc
 1024              		@ args = 0, pretend = 0, frame = 0
 1025              		@ frame_needed = 0, uses_anonymous_args = 0
 1026              	.LVL176:
 1027 0000 2DE9F041 		push	{r4, r5, r6, r7, r8, lr}
 1028              		.cfi_def_cfa_offset 24
 1029              		.cfi_offset 4, -24
 1030              		.cfi_offset 5, -20
 1031              		.cfi_offset 6, -16
 1032              		.cfi_offset 7, -12
 1033              		.cfi_offset 8, -8
 1034              		.cfi_offset 14, -4
 1035 0004 0546     		mov	r5, r0
 1036 0006 0F46     		mov	r7, r1
 433:..\..\mruby_c2\Design01.cydsn/alloc.c ****   USED_BLOCK  *target     = (USED_BLOCK *)((uint8_t *)ptr - sizeof(USED_BLOCK));
 1037              		.loc 1 433 0
 1038 0008 A0F10806 		sub	r6, r0, #8
 1039              	.LVL177:
 434:..\..\mruby_c2\Design01.cydsn/alloc.c ****   unsigned int alloc_size = size + sizeof(FREE_BLOCK);
 1040              		.loc 1 434 0
 1041 000c 01F11004 		add	r4, r1, #16
 1042              	.LVL178:
 435:..\..\mruby_c2\Design01.cydsn/alloc.c **** 
 436:..\..\mruby_c2\Design01.cydsn/alloc.c ****   // align 4 byte
 437:..\..\mruby_c2\Design01.cydsn/alloc.c ****   alloc_size += ((4 - alloc_size) & 3);
 1043              		.loc 1 437 0
 1044 0010 6342     		negs	r3, r4
 1045 0012 03F00303 		and	r3, r3, #3
 1046 0016 1C44     		add	r4, r4, r3
 1047              	.LVL179:
 438:..\..\mruby_c2\Design01.cydsn/alloc.c **** 
 439:..\..\mruby_c2\Design01.cydsn/alloc.c ****   // expand? part1.
 440:..\..\mruby_c2\Design01.cydsn/alloc.c ****   // next phys block is free and enough size?
 441:..\..\mruby_c2\Design01.cydsn/alloc.c ****   if( alloc_size > target->size ) {
 1048              		.loc 1 441 0
 1049 0018 30F8063C 		ldrh	r3, [r0, #-6]
 1050 001c 9C42     		cmp	r4, r3
 1051 001e 16D9     		bls	.L86
 1052              	.LBB39:
 442:..\..\mruby_c2\Design01.cydsn/alloc.c ****     FREE_BLOCK *next = (FREE_BLOCK *)PHYS_NEXT(target);
 1053              		.loc 1 442 0
 1054 0020 06EB0308 		add	r8, r6, r3
 1055              	.LVL180:
ARM GAS  C:\Users\164\AppData\Local\Temp\ccprxMAM.s 			page 30


 443:..\..\mruby_c2\Design01.cydsn/alloc.c ****     if((target->t == FLAG_NOT_TAIL_BLOCK) &&
 1056              		.loc 1 443 0
 1057 0024 10F8082C 		ldrb	r2, [r0, #-8]	@ zero_extendqisi2
 1058 0028 12F0010F 		tst	r2, #1
 1059 002c 0FD1     		bne	.L86
 444:..\..\mruby_c2\Design01.cydsn/alloc.c ****        (next->f == FLAG_FREE_BLOCK) &&
 1060              		.loc 1 444 0 discriminator 1
 1061 002e F25C     		ldrb	r2, [r6, r3]	@ zero_extendqisi2
 443:..\..\mruby_c2\Design01.cydsn/alloc.c ****     if((target->t == FLAG_NOT_TAIL_BLOCK) &&
 1062              		.loc 1 443 0 discriminator 1
 1063 0030 12F0020F 		tst	r2, #2
 1064 0034 0BD0     		beq	.L86
 445:..\..\mruby_c2\Design01.cydsn/alloc.c ****        ((target->size + next->size) >= alloc_size)) {
 1065              		.loc 1 445 0
 1066 0036 B8F80220 		ldrh	r2, [r8, #2]
 1067 003a 1344     		add	r3, r3, r2
 444:..\..\mruby_c2\Design01.cydsn/alloc.c ****        (next->f == FLAG_FREE_BLOCK) &&
 1068              		.loc 1 444 0
 1069 003c 9C42     		cmp	r4, r3
 1070 003e 06D8     		bhi	.L86
 446:..\..\mruby_c2\Design01.cydsn/alloc.c ****       remove_index(next);
 1071              		.loc 1 446 0
 1072 0040 4046     		mov	r0, r8
 1073              	.LVL181:
 1074 0042 FFF7FEFF 		bl	remove_index
 1075              	.LVL182:
 447:..\..\mruby_c2\Design01.cydsn/alloc.c ****       merge_block((FREE_BLOCK *)target, next);
 1076              		.loc 1 447 0
 1077 0046 4146     		mov	r1, r8
 1078 0048 3046     		mov	r0, r6
 1079 004a FFF7FEFF 		bl	merge_block
 1080              	.LVL183:
 1081              	.L86:
 1082              	.LBE39:
 448:..\..\mruby_c2\Design01.cydsn/alloc.c **** 
 449:..\..\mruby_c2\Design01.cydsn/alloc.c ****       // and fall through.
 450:..\..\mruby_c2\Design01.cydsn/alloc.c ****     }
 451:..\..\mruby_c2\Design01.cydsn/alloc.c ****   }
 452:..\..\mruby_c2\Design01.cydsn/alloc.c **** 
 453:..\..\mruby_c2\Design01.cydsn/alloc.c ****   // same size?
 454:..\..\mruby_c2\Design01.cydsn/alloc.c ****   if( alloc_size == target->size ) {
 1083              		.loc 1 454 0
 1084 004e 35F8062C 		ldrh	r2, [r5, #-6]
 1085 0052 9442     		cmp	r4, r2
 1086 0054 50D0     		beq	.L91
 455:..\..\mruby_c2\Design01.cydsn/alloc.c ****     return (uint8_t *)ptr;
 456:..\..\mruby_c2\Design01.cydsn/alloc.c ****   }
 457:..\..\mruby_c2\Design01.cydsn/alloc.c **** 
 458:..\..\mruby_c2\Design01.cydsn/alloc.c ****   // shrink?
 459:..\..\mruby_c2\Design01.cydsn/alloc.c ****   if( alloc_size < target->size ) {
 1087              		.loc 1 459 0
 1088 0056 3AD2     		bcs	.L88
 1089              	.LVL184:
 1090              	.LBB40:
 1091              	.LBB41:
 1092              	.LBB42:
 234:..\..\mruby_c2\Design01.cydsn/alloc.c **** 
ARM GAS  C:\Users\164\AppData\Local\Temp\ccprxMAM.s 			page 31


 1093              		.loc 1 234 0
 1094 0058 04F12003 		add	r3, r4, #32
 233:..\..\mruby_c2\Design01.cydsn/alloc.c ****                       + (1 << MRBC_ALLOC_IGNORE_LSBS)) ) return NULL;
 1095              		.loc 1 233 0
 1096 005c 9A42     		cmp	r2, r3
 1097 005e 1BD3     		bcc	.L92
 237:..\..\mruby_c2\Design01.cydsn/alloc.c ****   FREE_BLOCK *next  = (FREE_BLOCK *)PHYS_NEXT(target);
 1098              		.loc 1 237 0
 1099 0060 3319     		adds	r3, r6, r4
 1100              	.LVL185:
 238:..\..\mruby_c2\Design01.cydsn/alloc.c **** 
 1101              		.loc 1 238 0
 1102 0062 B018     		adds	r0, r6, r2
 1103              	.LVL186:
 240:..\..\mruby_c2\Design01.cydsn/alloc.c ****   SET_PHYS_PREV(target, split);
 1104              		.loc 1 240 0
 1105 0064 A1B2     		uxth	r1, r4
 1106 0066 521A     		subs	r2, r2, r1
 1107 0068 5A80     		strh	r2, [r3, #2]	@ movhi
 241:..\..\mruby_c2\Design01.cydsn/alloc.c ****   split->t     = target->t;
 1108              		.loc 1 241 0
 1109 006a 9980     		strh	r1, [r3, #4]	@ movhi
 242:..\..\mruby_c2\Design01.cydsn/alloc.c ****   target->size = size;
 1110              		.loc 1 242 0
 1111 006c 15F8087C 		ldrb	r7, [r5, #-8]	@ zero_extendqisi2
 1112              	.LVL187:
 1113 0070 325D     		ldrb	r2, [r6, r4]	@ zero_extendqisi2
 1114 0072 67F30002 		bfi	r2, r7, #0, #1
 1115 0076 3255     		strb	r2, [r6, r4]
 243:..\..\mruby_c2\Design01.cydsn/alloc.c ****   target->t    = FLAG_NOT_TAIL_BLOCK;
 1116              		.loc 1 243 0
 1117 0078 25F8061C 		strh	r1, [r5, #-6]	@ movhi
 244:..\..\mruby_c2\Design01.cydsn/alloc.c ****   if( split->t == FLAG_NOT_TAIL_BLOCK ) {
 1118              		.loc 1 244 0
 1119 007c 15F8082C 		ldrb	r2, [r5, #-8]	@ zero_extendqisi2
 1120 0080 6FF30002 		bfc	r2, #0, #1
 1121 0084 05F8082C 		strb	r2, [r5, #-8]
 245:..\..\mruby_c2\Design01.cydsn/alloc.c ****     SET_PHYS_PREV(split, next);
 1122              		.loc 1 245 0
 1123 0088 325D     		ldrb	r2, [r6, r4]	@ zero_extendqisi2
 1124 008a 12F0010F 		tst	r2, #1
 1125 008e 05D1     		bne	.L93
 246:..\..\mruby_c2\Design01.cydsn/alloc.c ****   }
 1126              		.loc 1 246 0
 1127 0090 C21A     		subs	r2, r0, r3
 1128 0092 8280     		strh	r2, [r0, #4]	@ movhi
 249:..\..\mruby_c2\Design01.cydsn/alloc.c **** }
 1129              		.loc 1 249 0
 1130 0094 1C46     		mov	r4, r3
 1131              	.LVL188:
 1132 0096 02E0     		b	.L89
 1133              	.LVL189:
 1134              	.L92:
 234:..\..\mruby_c2\Design01.cydsn/alloc.c **** 
 1135              		.loc 1 234 0
 1136 0098 0024     		movs	r4, #0
 1137              	.LVL190:
ARM GAS  C:\Users\164\AppData\Local\Temp\ccprxMAM.s 			page 32


 1138 009a 00E0     		b	.L89
 1139              	.LVL191:
 1140              	.L93:
 249:..\..\mruby_c2\Design01.cydsn/alloc.c **** }
 1141              		.loc 1 249 0
 1142 009c 1C46     		mov	r4, r3
 1143              	.LVL192:
 1144              	.L89:
 1145              	.LBE42:
 1146              	.LBE41:
 460:..\..\mruby_c2\Design01.cydsn/alloc.c ****     FREE_BLOCK *release = split_block((FREE_BLOCK *)target, alloc_size);
 461:..\..\mruby_c2\Design01.cydsn/alloc.c ****     if( release != NULL ) {
 1147              		.loc 1 461 0
 1148 009e 74B3     		cbz	r4, .L94
 1149              	.LBB43:
 462:..\..\mruby_c2\Design01.cydsn/alloc.c ****       // check next block, merge?
 463:..\..\mruby_c2\Design01.cydsn/alloc.c ****       FREE_BLOCK *next = (FREE_BLOCK *)PHYS_NEXT(release);
 1150              		.loc 1 463 0
 1151 00a0 6388     		ldrh	r3, [r4, #2]
 1152 00a2 E618     		adds	r6, r4, r3
 1153              	.LVL193:
 464:..\..\mruby_c2\Design01.cydsn/alloc.c ****       if((release->t == FLAG_NOT_TAIL_BLOCK) && (next->f == FLAG_FREE_BLOCK)) {
 1154              		.loc 1 464 0
 1155 00a4 2278     		ldrb	r2, [r4]	@ zero_extendqisi2
 1156 00a6 12F0010F 		tst	r2, #1
 1157 00aa 0AD1     		bne	.L90
 1158              		.loc 1 464 0 is_stmt 0 discriminator 1
 1159 00ac E35C     		ldrb	r3, [r4, r3]	@ zero_extendqisi2
 1160 00ae 13F0020F 		tst	r3, #2
 1161 00b2 06D0     		beq	.L90
 465:..\..\mruby_c2\Design01.cydsn/alloc.c ****         remove_index(next);
 1162              		.loc 1 465 0 is_stmt 1
 1163 00b4 3046     		mov	r0, r6
 1164 00b6 FFF7FEFF 		bl	remove_index
 1165              	.LVL194:
 466:..\..\mruby_c2\Design01.cydsn/alloc.c ****         merge_block(release, next);
 1166              		.loc 1 466 0
 1167 00ba 3146     		mov	r1, r6
 1168 00bc 2046     		mov	r0, r4
 1169 00be FFF7FEFF 		bl	merge_block
 1170              	.LVL195:
 1171              	.L90:
 467:..\..\mruby_c2\Design01.cydsn/alloc.c ****       }
 468:..\..\mruby_c2\Design01.cydsn/alloc.c ****       add_free_block(release);
 1172              		.loc 1 468 0
 1173 00c2 2046     		mov	r0, r4
 1174 00c4 FFF7FEFF 		bl	add_free_block
 1175              	.LVL196:
 1176              	.LBE43:
 469:..\..\mruby_c2\Design01.cydsn/alloc.c ****     }
 470:..\..\mruby_c2\Design01.cydsn/alloc.c **** 
 471:..\..\mruby_c2\Design01.cydsn/alloc.c ****     return (uint8_t *)ptr;
 1177              		.loc 1 471 0
 1178 00c8 2846     		mov	r0, r5
 1179 00ca BDE8F081 		pop	{r4, r5, r6, r7, r8, pc}
 1180              	.LVL197:
 1181              	.L88:
ARM GAS  C:\Users\164\AppData\Local\Temp\ccprxMAM.s 			page 33


 1182              	.LBE40:
 472:..\..\mruby_c2\Design01.cydsn/alloc.c ****   }
 473:..\..\mruby_c2\Design01.cydsn/alloc.c **** 
 474:..\..\mruby_c2\Design01.cydsn/alloc.c ****   // expand part2.
 475:..\..\mruby_c2\Design01.cydsn/alloc.c ****   // new alloc and copy
 476:..\..\mruby_c2\Design01.cydsn/alloc.c ****   uint8_t *new_ptr = mrbc_raw_alloc(size);
 1183              		.loc 1 476 0
 1184 00ce 3846     		mov	r0, r7
 1185 00d0 FFF7FEFF 		bl	mrbc_raw_alloc
 1186              	.LVL198:
 477:..\..\mruby_c2\Design01.cydsn/alloc.c ****   if( new_ptr == NULL ) return NULL;  // ENOMEM
 1187              		.loc 1 477 0
 1188 00d4 0446     		mov	r4, r0
 1189              	.LVL199:
 1190 00d6 A8B1     		cbz	r0, .L95
 478:..\..\mruby_c2\Design01.cydsn/alloc.c **** 
 479:..\..\mruby_c2\Design01.cydsn/alloc.c ****   memcpy(new_ptr, ptr, target->size - sizeof(USED_BLOCK));
 1191              		.loc 1 479 0
 1192 00d8 35F8062C 		ldrh	r2, [r5, #-6]
 1193 00dc 083A     		subs	r2, r2, #8
 1194 00de 2946     		mov	r1, r5
 1195 00e0 FFF7FEFF 		bl	memcpy
 1196              	.LVL200:
 480:..\..\mruby_c2\Design01.cydsn/alloc.c ****   SET_VM_ID(new_ptr, target->vm_id);
 1197              		.loc 1 480 0
 1198 00e4 15F8073C 		ldrb	r3, [r5, #-7]	@ zero_extendqisi2
 1199 00e8 04F8073C 		strb	r3, [r4, #-7]
 481:..\..\mruby_c2\Design01.cydsn/alloc.c **** 
 482:..\..\mruby_c2\Design01.cydsn/alloc.c ****   mrbc_raw_free(ptr);
 1200              		.loc 1 482 0
 1201 00ec 2846     		mov	r0, r5
 1202 00ee FFF7FEFF 		bl	mrbc_raw_free
 1203              	.LVL201:
 483:..\..\mruby_c2\Design01.cydsn/alloc.c **** 
 484:..\..\mruby_c2\Design01.cydsn/alloc.c ****   return new_ptr;
 1204              		.loc 1 484 0
 1205 00f2 2046     		mov	r0, r4
 1206 00f4 BDE8F081 		pop	{r4, r5, r6, r7, r8, pc}
 1207              	.LVL202:
 1208              	.L91:
 455:..\..\mruby_c2\Design01.cydsn/alloc.c ****   }
 1209              		.loc 1 455 0
 1210 00f8 2846     		mov	r0, r5
 1211 00fa BDE8F081 		pop	{r4, r5, r6, r7, r8, pc}
 1212              	.LVL203:
 1213              	.L94:
 1214              	.LBB44:
 471:..\..\mruby_c2\Design01.cydsn/alloc.c ****   }
 1215              		.loc 1 471 0
 1216 00fe 2846     		mov	r0, r5
 1217 0100 BDE8F081 		pop	{r4, r5, r6, r7, r8, pc}
 1218              	.LVL204:
 1219              	.L95:
 1220              	.LBE44:
 477:..\..\mruby_c2\Design01.cydsn/alloc.c **** 
 1221              		.loc 1 477 0
 1222 0104 0020     		movs	r0, #0
ARM GAS  C:\Users\164\AppData\Local\Temp\ccprxMAM.s 			page 34


 1223              	.LVL205:
 485:..\..\mruby_c2\Design01.cydsn/alloc.c **** }
 1224              		.loc 1 485 0
 1225 0106 BDE8F081 		pop	{r4, r5, r6, r7, r8, pc}
 1226              		.cfi_endproc
 1227              	.LFE85:
 1228              		.size	mrbc_raw_realloc, .-mrbc_raw_realloc
 1229 010a 00BF     		.section	.text.mrbc_alloc,"ax",%progbits
 1230              		.align	2
 1231              		.global	mrbc_alloc
 1232              		.thumb
 1233              		.thumb_func
 1234              		.type	mrbc_alloc, %function
 1235              	mrbc_alloc:
 1236              	.LFB86:
 486:..\..\mruby_c2\Design01.cydsn/alloc.c **** 
 487:..\..\mruby_c2\Design01.cydsn/alloc.c **** 
 488:..\..\mruby_c2\Design01.cydsn/alloc.c **** 
 489:..\..\mruby_c2\Design01.cydsn/alloc.c **** //// for mruby/c
 490:..\..\mruby_c2\Design01.cydsn/alloc.c **** 
 491:..\..\mruby_c2\Design01.cydsn/alloc.c **** //================================================================
 492:..\..\mruby_c2\Design01.cydsn/alloc.c **** /*! allocate memory
 493:..\..\mruby_c2\Design01.cydsn/alloc.c **** 
 494:..\..\mruby_c2\Design01.cydsn/alloc.c ****   @param  vm	pointer to VM.
 495:..\..\mruby_c2\Design01.cydsn/alloc.c ****   @param  size	request size.
 496:..\..\mruby_c2\Design01.cydsn/alloc.c ****   @return void * pointer to allocated memory.
 497:..\..\mruby_c2\Design01.cydsn/alloc.c ****   @retval NULL	error.
 498:..\..\mruby_c2\Design01.cydsn/alloc.c **** */
 499:..\..\mruby_c2\Design01.cydsn/alloc.c **** void * mrbc_alloc(const mrb_vm *vm, unsigned int size)
 500:..\..\mruby_c2\Design01.cydsn/alloc.c **** {
 1237              		.loc 1 500 0
 1238              		.cfi_startproc
 1239              		@ args = 0, pretend = 0, frame = 0
 1240              		@ frame_needed = 0, uses_anonymous_args = 0
 1241              	.LVL206:
 1242 0000 10B5     		push	{r4, lr}
 1243              		.cfi_def_cfa_offset 8
 1244              		.cfi_offset 4, -8
 1245              		.cfi_offset 14, -4
 1246 0002 0446     		mov	r4, r0
 501:..\..\mruby_c2\Design01.cydsn/alloc.c ****   uint8_t *ptr = mrbc_raw_alloc(size);
 1247              		.loc 1 501 0
 1248 0004 0846     		mov	r0, r1
 1249              	.LVL207:
 1250 0006 FFF7FEFF 		bl	mrbc_raw_alloc
 1251              	.LVL208:
 502:..\..\mruby_c2\Design01.cydsn/alloc.c ****   if( ptr == NULL ) return NULL;	// ENOMEM
 1252              		.loc 1 502 0
 1253 000a 20B1     		cbz	r0, .L99
 503:..\..\mruby_c2\Design01.cydsn/alloc.c ****   if( vm ) SET_VM_ID(ptr, vm->vm_id);
 1254              		.loc 1 503 0
 1255 000c 2CB1     		cbz	r4, .L100
 1256              		.loc 1 503 0 is_stmt 0 discriminator 1
 1257 000e 2279     		ldrb	r2, [r4, #4]	@ zero_extendqisi2
 1258 0010 00F8072C 		strb	r2, [r0, #-7]
 1259 0014 10BD     		pop	{r4, pc}
 1260              	.LVL209:
ARM GAS  C:\Users\164\AppData\Local\Temp\ccprxMAM.s 			page 35


 1261              	.L99:
 502:..\..\mruby_c2\Design01.cydsn/alloc.c ****   if( ptr == NULL ) return NULL;	// ENOMEM
 1262              		.loc 1 502 0 is_stmt 1
 1263 0016 0020     		movs	r0, #0
 1264              	.LVL210:
 1265 0018 10BD     		pop	{r4, pc}
 1266              	.LVL211:
 1267              	.L100:
 504:..\..\mruby_c2\Design01.cydsn/alloc.c **** 
 505:..\..\mruby_c2\Design01.cydsn/alloc.c ****   return ptr;
 506:..\..\mruby_c2\Design01.cydsn/alloc.c **** }
 1268              		.loc 1 506 0
 1269 001a 10BD     		pop	{r4, pc}
 1270              		.cfi_endproc
 1271              	.LFE86:
 1272              		.size	mrbc_alloc, .-mrbc_alloc
 1273              		.section	.text.mrbc_realloc,"ax",%progbits
 1274              		.align	2
 1275              		.global	mrbc_realloc
 1276              		.thumb
 1277              		.thumb_func
 1278              		.type	mrbc_realloc, %function
 1279              	mrbc_realloc:
 1280              	.LFB87:
 507:..\..\mruby_c2\Design01.cydsn/alloc.c **** 
 508:..\..\mruby_c2\Design01.cydsn/alloc.c **** 
 509:..\..\mruby_c2\Design01.cydsn/alloc.c **** //================================================================
 510:..\..\mruby_c2\Design01.cydsn/alloc.c **** /*! re-allocate memory
 511:..\..\mruby_c2\Design01.cydsn/alloc.c **** 
 512:..\..\mruby_c2\Design01.cydsn/alloc.c ****   @param  vm	pointer to VM.
 513:..\..\mruby_c2\Design01.cydsn/alloc.c ****   @param  ptr	Return value of mrbc_alloc()
 514:..\..\mruby_c2\Design01.cydsn/alloc.c ****   @param  size	request size.
 515:..\..\mruby_c2\Design01.cydsn/alloc.c ****   @return void * pointer to allocated memory.
 516:..\..\mruby_c2\Design01.cydsn/alloc.c ****   @retval NULL	error.
 517:..\..\mruby_c2\Design01.cydsn/alloc.c **** */
 518:..\..\mruby_c2\Design01.cydsn/alloc.c **** void * mrbc_realloc(const mrb_vm *vm, void *ptr, unsigned int size)
 519:..\..\mruby_c2\Design01.cydsn/alloc.c **** {
 1281              		.loc 1 519 0
 1282              		.cfi_startproc
 1283              		@ args = 0, pretend = 0, frame = 0
 1284              		@ frame_needed = 0, uses_anonymous_args = 0
 1285              	.LVL212:
 1286 0000 08B5     		push	{r3, lr}
 1287              		.cfi_def_cfa_offset 8
 1288              		.cfi_offset 3, -8
 1289              		.cfi_offset 14, -4
 1290 0002 0846     		mov	r0, r1
 1291              	.LVL213:
 520:..\..\mruby_c2\Design01.cydsn/alloc.c ****   return mrbc_raw_realloc(ptr, size);
 1292              		.loc 1 520 0
 1293 0004 1146     		mov	r1, r2
 1294              	.LVL214:
 1295 0006 FFF7FEFF 		bl	mrbc_raw_realloc
 1296              	.LVL215:
 521:..\..\mruby_c2\Design01.cydsn/alloc.c **** }
 1297              		.loc 1 521 0
 1298 000a 08BD     		pop	{r3, pc}
ARM GAS  C:\Users\164\AppData\Local\Temp\ccprxMAM.s 			page 36


 1299              		.cfi_endproc
 1300              	.LFE87:
 1301              		.size	mrbc_realloc, .-mrbc_realloc
 1302              		.section	.text.mrbc_free,"ax",%progbits
 1303              		.align	2
 1304              		.global	mrbc_free
 1305              		.thumb
 1306              		.thumb_func
 1307              		.type	mrbc_free, %function
 1308              	mrbc_free:
 1309              	.LFB88:
 522:..\..\mruby_c2\Design01.cydsn/alloc.c **** 
 523:..\..\mruby_c2\Design01.cydsn/alloc.c **** 
 524:..\..\mruby_c2\Design01.cydsn/alloc.c **** //================================================================
 525:..\..\mruby_c2\Design01.cydsn/alloc.c **** /*! release memory
 526:..\..\mruby_c2\Design01.cydsn/alloc.c **** 
 527:..\..\mruby_c2\Design01.cydsn/alloc.c ****   @param  vm	pointer to VM.
 528:..\..\mruby_c2\Design01.cydsn/alloc.c ****   @param  ptr	Return value of mrbc_alloc()
 529:..\..\mruby_c2\Design01.cydsn/alloc.c **** */
 530:..\..\mruby_c2\Design01.cydsn/alloc.c **** void mrbc_free(const mrb_vm *vm, void *ptr)
 531:..\..\mruby_c2\Design01.cydsn/alloc.c **** {
 1310              		.loc 1 531 0
 1311              		.cfi_startproc
 1312              		@ args = 0, pretend = 0, frame = 0
 1313              		@ frame_needed = 0, uses_anonymous_args = 0
 1314              	.LVL216:
 1315 0000 08B5     		push	{r3, lr}
 1316              		.cfi_def_cfa_offset 8
 1317              		.cfi_offset 3, -8
 1318              		.cfi_offset 14, -4
 532:..\..\mruby_c2\Design01.cydsn/alloc.c ****   mrbc_raw_free(ptr);
 1319              		.loc 1 532 0
 1320 0002 0846     		mov	r0, r1
 1321              	.LVL217:
 1322 0004 FFF7FEFF 		bl	mrbc_raw_free
 1323              	.LVL218:
 1324 0008 08BD     		pop	{r3, pc}
 1325              		.cfi_endproc
 1326              	.LFE88:
 1327              		.size	mrbc_free, .-mrbc_free
 1328              		.section	.text.mrbc_free_all,"ax",%progbits
 1329              		.align	2
 1330              		.global	mrbc_free_all
 1331              		.thumb
 1332              		.thumb_func
 1333              		.type	mrbc_free_all, %function
 1334              	mrbc_free_all:
 1335              	.LFB89:
 533:..\..\mruby_c2\Design01.cydsn/alloc.c **** }
 534:..\..\mruby_c2\Design01.cydsn/alloc.c **** 
 535:..\..\mruby_c2\Design01.cydsn/alloc.c **** 
 536:..\..\mruby_c2\Design01.cydsn/alloc.c **** //================================================================
 537:..\..\mruby_c2\Design01.cydsn/alloc.c **** /*! release memory, vm used.
 538:..\..\mruby_c2\Design01.cydsn/alloc.c **** 
 539:..\..\mruby_c2\Design01.cydsn/alloc.c ****   @param  vm	pointer to VM.
 540:..\..\mruby_c2\Design01.cydsn/alloc.c **** */
 541:..\..\mruby_c2\Design01.cydsn/alloc.c **** void mrbc_free_all(const mrb_vm *vm)
ARM GAS  C:\Users\164\AppData\Local\Temp\ccprxMAM.s 			page 37


 542:..\..\mruby_c2\Design01.cydsn/alloc.c **** {
 1336              		.loc 1 542 0
 1337              		.cfi_startproc
 1338              		@ args = 0, pretend = 0, frame = 0
 1339              		@ frame_needed = 0, uses_anonymous_args = 0
 1340              	.LVL219:
 1341 0000 70B5     		push	{r4, r5, r6, lr}
 1342              		.cfi_def_cfa_offset 16
 1343              		.cfi_offset 4, -16
 1344              		.cfi_offset 5, -12
 1345              		.cfi_offset 6, -8
 1346              		.cfi_offset 14, -4
 543:..\..\mruby_c2\Design01.cydsn/alloc.c ****   USED_BLOCK *ptr = (USED_BLOCK *)memory_pool;
 1347              		.loc 1 543 0
 1348 0002 0F4B     		ldr	r3, .L115
 1349 0004 D3F86041 		ldr	r4, [r3, #352]
 1350              	.LVL220:
 544:..\..\mruby_c2\Design01.cydsn/alloc.c ****   void *free_target = NULL;
 545:..\..\mruby_c2\Design01.cydsn/alloc.c ****   int flag_loop = 1;
 546:..\..\mruby_c2\Design01.cydsn/alloc.c ****   int vm_id = vm->vm_id;
 1351              		.loc 1 546 0
 1352 0008 0679     		ldrb	r6, [r0, #4]	@ zero_extendqisi2
 1353              	.LVL221:
 545:..\..\mruby_c2\Design01.cydsn/alloc.c ****   int vm_id = vm->vm_id;
 1354              		.loc 1 545 0
 1355 000a 0125     		movs	r5, #1
 544:..\..\mruby_c2\Design01.cydsn/alloc.c ****   void *free_target = NULL;
 1356              		.loc 1 544 0
 1357 000c 0020     		movs	r0, #0
 1358              	.LVL222:
 547:..\..\mruby_c2\Design01.cydsn/alloc.c **** 
 548:..\..\mruby_c2\Design01.cydsn/alloc.c ****   while( flag_loop ) {
 1359              		.loc 1 548 0
 1360 000e 11E0     		b	.L107
 1361              	.LVL223:
 1362              	.L111:
 549:..\..\mruby_c2\Design01.cydsn/alloc.c ****     if( ptr->t == FLAG_TAIL_BLOCK ) flag_loop = 0;
 1363              		.loc 1 549 0
 1364 0010 2378     		ldrb	r3, [r4]	@ zero_extendqisi2
 1365 0012 13F0010F 		tst	r3, #1
 1366 0016 00D0     		beq	.L108
 1367 0018 0025     		movs	r5, #0
 1368              	.LVL224:
 1369              	.L108:
 550:..\..\mruby_c2\Design01.cydsn/alloc.c ****     if( ptr->f == FLAG_USED_BLOCK && ptr->vm_id == vm_id ) {
 1370              		.loc 1 550 0
 1371 001a 13F0020F 		tst	r3, #2
 1372 001e 07D1     		bne	.L109
 1373              		.loc 1 550 0 is_stmt 0 discriminator 1
 1374 0020 6378     		ldrb	r3, [r4, #1]	@ zero_extendqisi2
 1375 0022 9E42     		cmp	r6, r3
 1376 0024 04D1     		bne	.L109
 551:..\..\mruby_c2\Design01.cydsn/alloc.c ****       if( free_target ) {
 1377              		.loc 1 551 0 is_stmt 1
 1378 0026 08B1     		cbz	r0, .L110
 552:..\..\mruby_c2\Design01.cydsn/alloc.c **** 	mrbc_raw_free(free_target);
 1379              		.loc 1 552 0
ARM GAS  C:\Users\164\AppData\Local\Temp\ccprxMAM.s 			page 38


 1380 0028 FFF7FEFF 		bl	mrbc_raw_free
 1381              	.LVL225:
 1382              	.L110:
 553:..\..\mruby_c2\Design01.cydsn/alloc.c ****       }
 554:..\..\mruby_c2\Design01.cydsn/alloc.c ****       free_target = (char *)ptr + sizeof(USED_BLOCK);
 1383              		.loc 1 554 0
 1384 002c 04F10800 		add	r0, r4, #8
 1385              	.LVL226:
 1386              	.L109:
 555:..\..\mruby_c2\Design01.cydsn/alloc.c ****     }
 556:..\..\mruby_c2\Design01.cydsn/alloc.c ****     ptr = (USED_BLOCK *)PHYS_NEXT(ptr);
 1387              		.loc 1 556 0
 1388 0030 6388     		ldrh	r3, [r4, #2]
 1389 0032 1C44     		add	r4, r4, r3
 1390              	.LVL227:
 1391              	.L107:
 548:..\..\mruby_c2\Design01.cydsn/alloc.c ****     if( ptr->t == FLAG_TAIL_BLOCK ) flag_loop = 0;
 1392              		.loc 1 548 0
 1393 0034 002D     		cmp	r5, #0
 1394 0036 EBD1     		bne	.L111
 557:..\..\mruby_c2\Design01.cydsn/alloc.c ****   }
 558:..\..\mruby_c2\Design01.cydsn/alloc.c ****   if( free_target ) {
 1395              		.loc 1 558 0
 1396 0038 08B1     		cbz	r0, .L106
 559:..\..\mruby_c2\Design01.cydsn/alloc.c ****     mrbc_raw_free(free_target);
 1397              		.loc 1 559 0
 1398 003a FFF7FEFF 		bl	mrbc_raw_free
 1399              	.LVL228:
 1400              	.L106:
 1401 003e 70BD     		pop	{r4, r5, r6, pc}
 1402              	.LVL229:
 1403              	.L116:
 1404              		.align	2
 1405              	.L115:
 1406 0040 00000000 		.word	.LANCHOR1
 1407              		.cfi_endproc
 1408              	.LFE89:
 1409              		.size	mrbc_free_all, .-mrbc_free_all
 1410              		.section	.text.mrbc_set_vm_id,"ax",%progbits
 1411              		.align	2
 1412              		.global	mrbc_set_vm_id
 1413              		.thumb
 1414              		.thumb_func
 1415              		.type	mrbc_set_vm_id, %function
 1416              	mrbc_set_vm_id:
 1417              	.LFB90:
 560:..\..\mruby_c2\Design01.cydsn/alloc.c ****   }
 561:..\..\mruby_c2\Design01.cydsn/alloc.c **** }
 562:..\..\mruby_c2\Design01.cydsn/alloc.c **** 
 563:..\..\mruby_c2\Design01.cydsn/alloc.c **** 
 564:..\..\mruby_c2\Design01.cydsn/alloc.c **** //================================================================
 565:..\..\mruby_c2\Design01.cydsn/alloc.c **** /*! set vm id
 566:..\..\mruby_c2\Design01.cydsn/alloc.c **** 
 567:..\..\mruby_c2\Design01.cydsn/alloc.c ****   @param  ptr	Return value of mrbc_alloc()
 568:..\..\mruby_c2\Design01.cydsn/alloc.c ****   @param  vm_id	vm id
 569:..\..\mruby_c2\Design01.cydsn/alloc.c **** */
 570:..\..\mruby_c2\Design01.cydsn/alloc.c **** void mrbc_set_vm_id(void *ptr, int vm_id)
ARM GAS  C:\Users\164\AppData\Local\Temp\ccprxMAM.s 			page 39


 571:..\..\mruby_c2\Design01.cydsn/alloc.c **** {
 1418              		.loc 1 571 0
 1419              		.cfi_startproc
 1420              		@ args = 0, pretend = 0, frame = 0
 1421              		@ frame_needed = 0, uses_anonymous_args = 0
 1422              		@ link register save eliminated.
 1423              	.LVL230:
 572:..\..\mruby_c2\Design01.cydsn/alloc.c ****   SET_VM_ID(ptr, vm_id);
 1424              		.loc 1 572 0
 1425 0000 00F8071C 		strb	r1, [r0, #-7]
 1426 0004 7047     		bx	lr
 1427              		.cfi_endproc
 1428              	.LFE90:
 1429              		.size	mrbc_set_vm_id, .-mrbc_set_vm_id
 1430 0006 00BF     		.section	.text.mrbc_get_vm_id,"ax",%progbits
 1431              		.align	2
 1432              		.global	mrbc_get_vm_id
 1433              		.thumb
 1434              		.thumb_func
 1435              		.type	mrbc_get_vm_id, %function
 1436              	mrbc_get_vm_id:
 1437              	.LFB91:
 573:..\..\mruby_c2\Design01.cydsn/alloc.c **** }
 574:..\..\mruby_c2\Design01.cydsn/alloc.c **** 
 575:..\..\mruby_c2\Design01.cydsn/alloc.c **** 
 576:..\..\mruby_c2\Design01.cydsn/alloc.c **** //================================================================
 577:..\..\mruby_c2\Design01.cydsn/alloc.c **** /*! get vm id
 578:..\..\mruby_c2\Design01.cydsn/alloc.c **** 
 579:..\..\mruby_c2\Design01.cydsn/alloc.c ****   @param  ptr	Return value of mrbc_alloc()
 580:..\..\mruby_c2\Design01.cydsn/alloc.c ****   @return int	vm id
 581:..\..\mruby_c2\Design01.cydsn/alloc.c **** */
 582:..\..\mruby_c2\Design01.cydsn/alloc.c **** int mrbc_get_vm_id(void *ptr)
 583:..\..\mruby_c2\Design01.cydsn/alloc.c **** {
 1438              		.loc 1 583 0
 1439              		.cfi_startproc
 1440              		@ args = 0, pretend = 0, frame = 0
 1441              		@ frame_needed = 0, uses_anonymous_args = 0
 1442              		@ link register save eliminated.
 1443              	.LVL231:
 584:..\..\mruby_c2\Design01.cydsn/alloc.c ****   return GET_VM_ID(ptr);
 585:..\..\mruby_c2\Design01.cydsn/alloc.c **** }
 1444              		.loc 1 585 0
 1445 0000 10F8070C 		ldrb	r0, [r0, #-7]	@ zero_extendqisi2
 1446              	.LVL232:
 1447 0004 7047     		bx	lr
 1448              		.cfi_endproc
 1449              	.LFE91:
 1450              		.size	mrbc_get_vm_id, .-mrbc_get_vm_id
 1451 0006 00BF     		.section	.rodata
 1452              		.align	2
 1453              		.set	.LANCHOR0,. + 0
 1454              		.type	__func__.7014, %object
 1455              		.size	__func__.7014, 12
 1456              	__func__.7014:
 1457 0000 6D657267 		.ascii	"merge_block\000"
 1457      655F626C 
 1457      6F636B00 
ARM GAS  C:\Users\164\AppData\Local\Temp\ccprxMAM.s 			page 40


 1458              		.type	__func__.6991, %object
 1459              		.size	__func__.6991, 11
 1460              	__func__.6991:
 1461 000c 63616C63 		.ascii	"calc_index\000"
 1461      5F696E64 
 1461      657800
 1462 0017 00       		.space	1
 1463              		.type	__func__.7020, %object
 1464              		.size	__func__.7020, 16
 1465              	__func__.7020:
 1466 0018 6D726263 		.ascii	"mrbc_init_alloc\000"
 1466      5F696E69 
 1466      745F616C 
 1466      6C6F6300 
 1467              		.type	__func__.7026, %object
 1468              		.size	__func__.7026, 15
 1469              	__func__.7026:
 1470 0028 6D726263 		.ascii	"mrbc_raw_alloc\000"
 1470      5F726177 
 1470      5F616C6C 
 1470      6F6300
 1471              		.section	.rodata.str1.4,"aMS",%progbits,1
 1472              		.align	2
 1473              	.LC0:
 1474 0000 70747231 		.ascii	"ptr1 < ptr2\000"
 1474      203C2070 
 1474      74723200 
 1475              	.LC1:
 1476 000c 2E2E5C2E 		.ascii	"..\\..\\mruby_c2\\Design01.cydsn\\alloc.c\000"
 1476      2E5C6D72 
 1476      7562795F 
 1476      63325C44 
 1476      65736967 
 1477 0032 0000     		.space	2
 1478              	.LC2:
 1479 0034 666C6920 		.ascii	"fli >= 0\000"
 1479      3E3D2030 
 1479      00
 1480 003d 000000   		.space	3
 1481              	.LC3:
 1482 0040 666C6920 		.ascii	"fli <= MRBC_ALLOC_FLI_BIT_WIDTH\000"
 1482      3C3D204D 
 1482      5242435F 
 1482      414C4C4F 
 1482      435F464C 
 1483              	.LC4:
 1484 0060 736C6920 		.ascii	"sli <= (1 << MRBC_ALLOC_SLI_BIT_WIDTH) - 1\000"
 1484      3C3D2028 
 1484      31203C3C 
 1484      204D5242 
 1484      435F414C 
 1485 008b 00       		.space	1
 1486              	.LC5:
 1487 008c 73697A65 		.ascii	"size != 0\000"
 1487      20213D20 
 1487      3000
 1488 0096 0000     		.space	2
ARM GAS  C:\Users\164\AppData\Local\Temp\ccprxMAM.s 			page 41


 1489              	.LC6:
 1490 0098 73697A65 		.ascii	"size <= (MRBC_ALLOC_MEMSIZE_T)(~0)\000"
 1490      203C3D20 
 1490      284D5242 
 1490      435F414C 
 1490      4C4F435F 
 1491 00bb 00       		.space	1
 1492              	.LC7:
 1493 00bc 616C6C6F 		.ascii	"alloc_size >= (1 << MRBC_ALLOC_IGNORE_LSBS)\000"
 1493      635F7369 
 1493      7A65203E 
 1493      3D202831 
 1493      203C3C20 
 1494              	.LC8:
 1495 00e8 46617461 		.ascii	"Fatal error: Out of memory.\012\000"
 1495      6C206572 
 1495      726F723A 
 1495      204F7574 
 1495      206F6620 
 1496 0105 000000   		.space	3
 1497              	.LC9:
 1498 0108 736C6920 		.ascii	"sli >= 0\000"
 1498      3E3D2030 
 1498      00
 1499 0111 000000   		.space	3
 1500              	.LC10:
 1501 0114 74617267 		.ascii	"target != NULL\000"
 1501      65742021 
 1501      3D204E55 
 1501      4C4C00
 1502 0123 00       		.space	1
 1503              	.LC11:
 1504 0124 74617267 		.ascii	"target->size >= alloc_size\000"
 1504      65742D3E 
 1504      73697A65 
 1504      203E3D20 
 1504      616C6C6F 
 1505              		.bss
 1506              		.align	2
 1507              		.set	.LANCHOR1,. + 0
 1508              		.type	free_fli_bitmap, %object
 1509              		.size	free_fli_bitmap, 2
 1510              	free_fli_bitmap:
 1511 0000 0000     		.space	2
 1512 0002 0000     		.space	2
 1513              		.type	free_sli_bitmap, %object
 1514              		.size	free_sli_bitmap, 22
 1515              	free_sli_bitmap:
 1516 0004 00000000 		.space	22
 1516      00000000 
 1516      00000000 
 1516      00000000 
 1516      00000000 
 1517 001a 0000     		.space	2
 1518              		.type	free_blocks, %object
 1519              		.size	free_blocks, 324
 1520              	free_blocks:
ARM GAS  C:\Users\164\AppData\Local\Temp\ccprxMAM.s 			page 42


 1521 001c 00000000 		.space	324
 1521      00000000 
 1521      00000000 
 1521      00000000 
 1521      00000000 
 1522              		.type	memory_pool, %object
 1523              		.size	memory_pool, 4
 1524              	memory_pool:
 1525 0160 00000000 		.space	4
 1526              		.text
 1527              	.Letext0:
 1528              		.file 3 "c:\\program files (x86)\\cypress\\psoc creator\\4.2\\psoc creator\\import\\gnu\\arm\\5.4.
 1529              		.file 4 "c:\\program files (x86)\\cypress\\psoc creator\\4.2\\psoc creator\\import\\gnu\\arm\\5.4.
 1530              		.file 5 "..\\..\\mruby_c2\\Design01.cydsn\\value.h"
 1531              		.file 6 "..\\..\\mruby_c2\\Design01.cydsn\\vm.h"
 1532              		.file 7 "c:\\program files (x86)\\cypress\\psoc creator\\4.2\\psoc creator\\import\\gnu\\arm\\5.4.
 1533              		.file 8 "..\\..\\mruby_c2\\Design01.cydsn\\hal/hal.h"
 1534              		.file 9 "Generated_Source\\PSoC5/core_cm3.h"