ARM GAS  C:\Users\164\AppData\Local\Temp\ccIEWRIc.s 			page 1


   1              		.syntax unified
   2              		.cpu cortex-m3
   3              		.fpu softvfp
   4              		.eabi_attribute 20, 1
   5              		.eabi_attribute 21, 1
   6              		.eabi_attribute 23, 3
   7              		.eabi_attribute 24, 1
   8              		.eabi_attribute 25, 1
   9              		.eabi_attribute 26, 1
  10              		.eabi_attribute 30, 1
  11              		.eabi_attribute 34, 1
  12              		.eabi_attribute 18, 4
  13              		.thumb
  14              		.syntax unified
  15              		.file	"c_adc.c"
  16              		.text
  17              	.Ltext0:
  18              		.cfi_sections	.debug_frame
  19              		.section	.text.adc_start,"ax",%progbits
  20              		.align	2
  21              		.thumb
  22              		.thumb_func
  23              		.type	adc_start, %function
  24              	adc_start:
  25              	.LFB77:
  26              		.file 1 "c_adc.c"
   1:c_adc.c       **** #include <project.h>
   2:c_adc.c       **** #include "vm_config.h"
   3:c_adc.c       **** #include "class.h"
   4:c_adc.c       **** #include "value.h"
   5:c_adc.c       **** #include "static.h"
   6:c_adc.c       **** 
   7:c_adc.c       **** int ADC_1_GetResult()
   8:c_adc.c       **** {
   9:c_adc.c       ****     ADC_1_StartConvert();
  10:c_adc.c       ****     while(ADC_1_IsEndConversion(ADC_1_RETURN_STATUS) == 0);
  11:c_adc.c       ****     int val = ADC_1_GetResult16();
  12:c_adc.c       ****     return val;
  13:c_adc.c       **** }
  14:c_adc.c       **** int ADC_2_GetResult()
  15:c_adc.c       **** {
  16:c_adc.c       ****     ADC_2_StartConvert();
  17:c_adc.c       ****     while(ADC_2_IsEndConversion(ADC_2_RETURN_STATUS) == 0);
  18:c_adc.c       ****     int val = ADC_2_GetResult16();
  19:c_adc.c       ****     return val;
  20:c_adc.c       **** }
  21:c_adc.c       **** 
  22:c_adc.c       **** #define adc_init(ah, NAME)                           \
  23:c_adc.c       ****   do {                                                \
  24:c_adc.c       ****     adc_init_m(ah,                                   \
  25:c_adc.c       ****                 NAME ## _Start,                       \
  26:c_adc.c       ****                 NAME ## _Stop,                        \
  27:c_adc.c       ****                 NAME ## _GetResult);                 \
  28:c_adc.c       ****   } while( 0 )
  29:c_adc.c       **** 
  30:c_adc.c       **** typedef struct ADC_HANDLE {
  31:c_adc.c       ****   void (*Start)(void);
ARM GAS  C:\Users\164\AppData\Local\Temp\ccIEWRIc.s 			page 2


  32:c_adc.c       ****   void (*Stop)(void);
  33:c_adc.c       ****   int (*Get)(void);
  34:c_adc.c       **** } ADC_HANDLE;
  35:c_adc.c       **** 
  36:c_adc.c       **** void adc_init_m(ADC_HANDLE *ah,
  37:c_adc.c       ****                  void         *Start,
  38:c_adc.c       ****                  void         *Stop,
  39:c_adc.c       ****                  void         *Get);
  40:c_adc.c       **** 
  41:c_adc.c       **** void adc_init_m(ADC_HANDLE *ah,
  42:c_adc.c       ****                  void         *Start,
  43:c_adc.c       ****                  void         *Stop,
  44:c_adc.c       ****                  void         *Get)
  45:c_adc.c       **** {
  46:c_adc.c       ****     ah->Start         = Start;
  47:c_adc.c       ****     ah->Stop          = Stop;
  48:c_adc.c       ****     ah->Get          = Get;
  49:c_adc.c       **** }
  50:c_adc.c       **** 
  51:c_adc.c       **** ADC_HANDLE ah[2];
  52:c_adc.c       **** 
  53:c_adc.c       **** static void adc_new(mrb_vm *vm, mrb_value v[], int argc)
  54:c_adc.c       **** {
  55:c_adc.c       ****     *v = mrbc_instance_new(vm, v->cls, sizeof(ADC_HANDLE *));
  56:c_adc.c       ****     *((ADC_HANDLE **)v->instance->data) = &ah[GET_INT_ARG(1)];
  57:c_adc.c       **** }
  58:c_adc.c       **** 
  59:c_adc.c       **** static void adc_start(mrb_vm *vm, mrb_value *v, int argc)
  60:c_adc.c       **** {
  27              		.loc 1 60 0
  28              		.cfi_startproc
  29              		@ args = 0, pretend = 0, frame = 0
  30              		@ frame_needed = 0, uses_anonymous_args = 0
  31              	.LVL0:
  32 0000 08B5     		push	{r3, lr}
  33              		.cfi_def_cfa_offset 8
  34              		.cfi_offset 3, -8
  35              		.cfi_offset 14, -4
  61:c_adc.c       ****     ADC_HANDLE *handle = *(ADC_HANDLE **)v->instance->data;
  36              		.loc 1 61 0
  37 0002 8B68     		ldr	r3, [r1, #8]
  38 0004 DB68     		ldr	r3, [r3, #12]
  39              	.LVL1:
  62:c_adc.c       ****     handle->Start();
  40              		.loc 1 62 0
  41 0006 1B68     		ldr	r3, [r3]
  42              	.LVL2:
  43 0008 9847     		blx	r3
  44              	.LVL3:
  45 000a 08BD     		pop	{r3, pc}
  46              		.cfi_endproc
  47              	.LFE77:
  48              		.size	adc_start, .-adc_start
  49              		.section	.text.ADC_1_GetResult,"ax",%progbits
  50              		.align	2
  51              		.global	ADC_1_GetResult
  52              		.thumb
ARM GAS  C:\Users\164\AppData\Local\Temp\ccIEWRIc.s 			page 3


  53              		.thumb_func
  54              		.type	ADC_1_GetResult, %function
  55              	ADC_1_GetResult:
  56              	.LFB73:
   8:c_adc.c       ****     ADC_1_StartConvert();
  57              		.loc 1 8 0
  58              		.cfi_startproc
  59              		@ args = 0, pretend = 0, frame = 0
  60              		@ frame_needed = 0, uses_anonymous_args = 0
  61 0000 08B5     		push	{r3, lr}
  62              		.cfi_def_cfa_offset 8
  63              		.cfi_offset 3, -8
  64              		.cfi_offset 14, -4
   9:c_adc.c       ****     while(ADC_1_IsEndConversion(ADC_1_RETURN_STATUS) == 0);
  65              		.loc 1 9 0
  66 0002 FFF7FEFF 		bl	ADC_1_StartConvert
  67              	.LVL4:
  68              	.L4:
  10:c_adc.c       ****     int val = ADC_1_GetResult16();
  69              		.loc 1 10 0 discriminator 1
  70 0006 0120     		movs	r0, #1
  71 0008 FFF7FEFF 		bl	ADC_1_IsEndConversion
  72              	.LVL5:
  73 000c 0028     		cmp	r0, #0
  74 000e FAD0     		beq	.L4
  11:c_adc.c       ****     return val;
  75              		.loc 1 11 0
  76 0010 FFF7FEFF 		bl	ADC_1_GetResult16
  77              	.LVL6:
  13:c_adc.c       **** int ADC_2_GetResult()
  78              		.loc 1 13 0
  79 0014 08BD     		pop	{r3, pc}
  80              		.cfi_endproc
  81              	.LFE73:
  82              		.size	ADC_1_GetResult, .-ADC_1_GetResult
  83 0016 00BF     		.section	.text.ADC_2_GetResult,"ax",%progbits
  84              		.align	2
  85              		.global	ADC_2_GetResult
  86              		.thumb
  87              		.thumb_func
  88              		.type	ADC_2_GetResult, %function
  89              	ADC_2_GetResult:
  90              	.LFB74:
  15:c_adc.c       ****     ADC_2_StartConvert();
  91              		.loc 1 15 0
  92              		.cfi_startproc
  93              		@ args = 0, pretend = 0, frame = 0
  94              		@ frame_needed = 0, uses_anonymous_args = 0
  95 0000 08B5     		push	{r3, lr}
  96              		.cfi_def_cfa_offset 8
  97              		.cfi_offset 3, -8
  98              		.cfi_offset 14, -4
  16:c_adc.c       ****     while(ADC_2_IsEndConversion(ADC_2_RETURN_STATUS) == 0);
  99              		.loc 1 16 0
 100 0002 FFF7FEFF 		bl	ADC_2_StartConvert
 101              	.LVL7:
 102              	.L7:
ARM GAS  C:\Users\164\AppData\Local\Temp\ccIEWRIc.s 			page 4


  17:c_adc.c       ****     int val = ADC_2_GetResult16();
 103              		.loc 1 17 0 discriminator 1
 104 0006 0120     		movs	r0, #1
 105 0008 FFF7FEFF 		bl	ADC_2_IsEndConversion
 106              	.LVL8:
 107 000c 0028     		cmp	r0, #0
 108 000e FAD0     		beq	.L7
  18:c_adc.c       ****     return val;
 109              		.loc 1 18 0
 110 0010 FFF7FEFF 		bl	ADC_2_GetResult16
 111              	.LVL9:
  20:c_adc.c       **** 
 112              		.loc 1 20 0
 113 0014 08BD     		pop	{r3, pc}
 114              		.cfi_endproc
 115              	.LFE74:
 116              		.size	ADC_2_GetResult, .-ADC_2_GetResult
 117 0016 00BF     		.section	.text.adc_get,"ax",%progbits
 118              		.align	2
 119              		.thumb
 120              		.thumb_func
 121              		.type	adc_get, %function
 122              	adc_get:
 123              	.LFB78:
  63:c_adc.c       **** }
  64:c_adc.c       **** 
  65:c_adc.c       **** static void adc_get(mrb_vm *vm, mrb_value *v, int argc)
  66:c_adc.c       **** {
 124              		.loc 1 66 0
 125              		.cfi_startproc
 126              		@ args = 0, pretend = 0, frame = 0
 127              		@ frame_needed = 0, uses_anonymous_args = 0
 128              	.LVL10:
 129 0000 38B5     		push	{r3, r4, r5, lr}
 130              		.cfi_def_cfa_offset 16
 131              		.cfi_offset 3, -16
 132              		.cfi_offset 4, -12
 133              		.cfi_offset 5, -8
 134              		.cfi_offset 14, -4
 135 0002 0C46     		mov	r4, r1
  67:c_adc.c       ****     ADC_HANDLE *handle = *(ADC_HANDLE **)v->instance->data;
 136              		.loc 1 67 0
 137 0004 8B68     		ldr	r3, [r1, #8]
 138 0006 DB68     		ldr	r3, [r3, #12]
 139              	.LVL11:
 140              	.LBB2:
  68:c_adc.c       ****     SET_INT_RETURN(handle->Get());
 141              		.loc 1 68 0
 142 0008 9B68     		ldr	r3, [r3, #8]
 143              	.LVL12:
 144 000a 9847     		blx	r3
 145              	.LVL13:
 146 000c 0546     		mov	r5, r0
 147              	.LVL14:
 148 000e 2046     		mov	r0, r4
 149              	.LVL15:
 150 0010 FFF7FEFF 		bl	mrbc_dec_ref_counter
ARM GAS  C:\Users\164\AppData\Local\Temp\ccIEWRIc.s 			page 5


 151              	.LVL16:
 152 0014 0423     		movs	r3, #4
 153 0016 2370     		strb	r3, [r4]
 154 0018 A560     		str	r5, [r4, #8]
 155 001a 38BD     		pop	{r3, r4, r5, pc}
 156              	.LBE2:
 157              		.cfi_endproc
 158              	.LFE78:
 159              		.size	adc_get, .-adc_get
 160              		.section	.text.adc_new,"ax",%progbits
 161              		.align	2
 162              		.thumb
 163              		.thumb_func
 164              		.type	adc_new, %function
 165              	adc_new:
 166              	.LFB76:
  54:c_adc.c       ****     *v = mrbc_instance_new(vm, v->cls, sizeof(ADC_HANDLE *));
 167              		.loc 1 54 0
 168              		.cfi_startproc
 169              		@ args = 0, pretend = 0, frame = 16
 170              		@ frame_needed = 0, uses_anonymous_args = 0
 171              	.LVL17:
 172 0000 30B5     		push	{r4, r5, lr}
 173              		.cfi_def_cfa_offset 12
 174              		.cfi_offset 4, -12
 175              		.cfi_offset 5, -8
 176              		.cfi_offset 14, -4
 177 0002 85B0     		sub	sp, sp, #20
 178              		.cfi_def_cfa_offset 32
 179 0004 0C46     		mov	r4, r1
  55:c_adc.c       ****     *((ADC_HANDLE **)v->instance->data) = &ah[GET_INT_ARG(1)];
 180              		.loc 1 55 0
 181 0006 0423     		movs	r3, #4
 182 0008 8A68     		ldr	r2, [r1, #8]
 183              	.LVL18:
 184 000a 0146     		mov	r1, r0
 185              	.LVL19:
 186 000c 6846     		mov	r0, sp
 187              	.LVL20:
 188 000e FFF7FEFF 		bl	mrbc_instance_new
 189              	.LVL21:
 190 0012 9DE80F00 		ldmia	sp, {r0, r1, r2, r3}
 191 0016 84E80F00 		stmia	r4, {r0, r1, r2, r3}
  56:c_adc.c       **** }
 192              		.loc 1 56 0
 193 001a A369     		ldr	r3, [r4, #24]
 194 001c 03EB4303 		add	r3, r3, r3, lsl #1
 195 0020 9900     		lsls	r1, r3, #2
 196 0022 024B     		ldr	r3, .L13
 197 0024 0B44     		add	r3, r3, r1
 198 0026 D360     		str	r3, [r2, #12]
  57:c_adc.c       **** 
 199              		.loc 1 57 0
 200 0028 05B0     		add	sp, sp, #20
 201              		.cfi_def_cfa_offset 12
 202              		@ sp needed
 203 002a 30BD     		pop	{r4, r5, pc}
ARM GAS  C:\Users\164\AppData\Local\Temp\ccIEWRIc.s 			page 6


 204              	.LVL22:
 205              	.L14:
 206              		.align	2
 207              	.L13:
 208 002c 00000000 		.word	ah
 209              		.cfi_endproc
 210              	.LFE76:
 211              		.size	adc_new, .-adc_new
 212              		.section	.text.adc_init_m,"ax",%progbits
 213              		.align	2
 214              		.global	adc_init_m
 215              		.thumb
 216              		.thumb_func
 217              		.type	adc_init_m, %function
 218              	adc_init_m:
 219              	.LFB75:
  45:c_adc.c       ****     ah->Start         = Start;
 220              		.loc 1 45 0
 221              		.cfi_startproc
 222              		@ args = 0, pretend = 0, frame = 0
 223              		@ frame_needed = 0, uses_anonymous_args = 0
 224              		@ link register save eliminated.
 225              	.LVL23:
  46:c_adc.c       ****     ah->Stop          = Stop;
 226              		.loc 1 46 0
 227 0000 0160     		str	r1, [r0]
  47:c_adc.c       ****     ah->Get          = Get;
 228              		.loc 1 47 0
 229 0002 4260     		str	r2, [r0, #4]
  48:c_adc.c       **** }
 230              		.loc 1 48 0
 231 0004 8360     		str	r3, [r0, #8]
 232 0006 7047     		bx	lr
 233              		.cfi_endproc
 234              	.LFE75:
 235              		.size	adc_init_m, .-adc_init_m
 236              		.section	.text.mrbc_init_class_adc,"ax",%progbits
 237              		.align	2
 238              		.global	mrbc_init_class_adc
 239              		.thumb
 240              		.thumb_func
 241              		.type	mrbc_init_class_adc, %function
 242              	mrbc_init_class_adc:
 243              	.LFB80:
  69:c_adc.c       **** }
  70:c_adc.c       **** 
  71:c_adc.c       **** static void adc_stop(mrb_vm *vm, mrb_value *v, int argc)
  72:c_adc.c       **** {
  73:c_adc.c       ****     ADC_HANDLE *handle = *(ADC_HANDLE **)v->instance->data;
  74:c_adc.c       ****     handle->Stop();
  75:c_adc.c       **** }
  76:c_adc.c       **** 
  77:c_adc.c       **** //================================================================
  78:c_adc.c       **** /*! initialize
  79:c_adc.c       **** */
  80:c_adc.c       **** void mrbc_init_class_adc(struct VM *vm)
  81:c_adc.c       **** {
ARM GAS  C:\Users\164\AppData\Local\Temp\ccIEWRIc.s 			page 7


 244              		.loc 1 81 0
 245              		.cfi_startproc
 246              		@ args = 0, pretend = 0, frame = 0
 247              		@ frame_needed = 0, uses_anonymous_args = 0
 248              	.LVL24:
 249 0000 10B5     		push	{r4, lr}
 250              		.cfi_def_cfa_offset 8
 251              		.cfi_offset 4, -8
 252              		.cfi_offset 14, -4
  82:c_adc.c       ****   // start physical device
  83:c_adc.c       ****   adc_init(&ah[0], ADC_1);
 253              		.loc 1 83 0
 254 0002 144C     		ldr	r4, .L18
 255 0004 144B     		ldr	r3, .L18+4
 256 0006 154A     		ldr	r2, .L18+8
 257 0008 1549     		ldr	r1, .L18+12
 258 000a 2046     		mov	r0, r4
 259              	.LVL25:
 260 000c FFF7FEFF 		bl	adc_init_m
 261              	.LVL26:
  84:c_adc.c       ****   adc_init(&ah[1], ADC_2);
 262              		.loc 1 84 0
 263 0010 144B     		ldr	r3, .L18+16
 264 0012 154A     		ldr	r2, .L18+20
 265 0014 1549     		ldr	r1, .L18+24
 266 0016 04F10C00 		add	r0, r4, #12
 267 001a FFF7FEFF 		bl	adc_init_m
 268              	.LVL27:
  85:c_adc.c       **** 
  86:c_adc.c       ****   // define class and methods.
  87:c_adc.c       ****   mrb_class *adc;
  88:c_adc.c       ****   adc = mrbc_define_class(0, "ADC",	mrbc_class_object);
 269              		.loc 1 88 0
 270 001e 144B     		ldr	r3, .L18+28
 271 0020 1A68     		ldr	r2, [r3]
 272 0022 1449     		ldr	r1, .L18+32
 273 0024 0020     		movs	r0, #0
 274 0026 FFF7FEFF 		bl	mrbc_define_class
 275              	.LVL28:
 276 002a 0446     		mov	r4, r0
 277              	.LVL29:
  89:c_adc.c       ****   mrbc_define_method(0, adc, "new",   adc_new);
 278              		.loc 1 89 0
 279 002c 124B     		ldr	r3, .L18+36
 280 002e 134A     		ldr	r2, .L18+40
 281 0030 0146     		mov	r1, r0
 282 0032 0020     		movs	r0, #0
 283              	.LVL30:
 284 0034 FFF7FEFF 		bl	mrbc_define_method
 285              	.LVL31:
  90:c_adc.c       ****   mrbc_define_method(0, adc, "start",   adc_start);
 286              		.loc 1 90 0
 287 0038 114B     		ldr	r3, .L18+44
 288 003a 124A     		ldr	r2, .L18+48
 289 003c 2146     		mov	r1, r4
 290 003e 0020     		movs	r0, #0
 291 0040 FFF7FEFF 		bl	mrbc_define_method
ARM GAS  C:\Users\164\AppData\Local\Temp\ccIEWRIc.s 			page 8


 292              	.LVL32:
  91:c_adc.c       ****   mrbc_define_method(0, adc, "read", adc_get);
 293              		.loc 1 91 0
 294 0044 104B     		ldr	r3, .L18+52
 295 0046 114A     		ldr	r2, .L18+56
 296 0048 2146     		mov	r1, r4
 297 004a 0020     		movs	r0, #0
 298 004c FFF7FEFF 		bl	mrbc_define_method
 299              	.LVL33:
 300 0050 10BD     		pop	{r4, pc}
 301              	.LVL34:
 302              	.L19:
 303 0052 00BF     		.align	2
 304              	.L18:
 305 0054 00000000 		.word	ah
 306 0058 00000000 		.word	ADC_1_GetResult
 307 005c 00000000 		.word	ADC_1_Stop
 308 0060 00000000 		.word	ADC_1_Start
 309 0064 00000000 		.word	ADC_2_GetResult
 310 0068 00000000 		.word	ADC_2_Stop
 311 006c 00000000 		.word	ADC_2_Start
 312 0070 00000000 		.word	mrbc_class_object
 313 0074 00000000 		.word	.LC0
 314 0078 00000000 		.word	adc_new
 315 007c 04000000 		.word	.LC1
 316 0080 00000000 		.word	adc_start
 317 0084 08000000 		.word	.LC2
 318 0088 00000000 		.word	adc_get
 319 008c 10000000 		.word	.LC3
 320              		.cfi_endproc
 321              	.LFE80:
 322              		.size	mrbc_init_class_adc, .-mrbc_init_class_adc
 323              		.comm	ah,24,4
 324              		.section	.rodata.str1.4,"aMS",%progbits,1
 325              		.align	2
 326              	.LC0:
 327 0000 41444300 		.ascii	"ADC\000"
 328              	.LC1:
 329 0004 6E657700 		.ascii	"new\000"
 330              	.LC2:
 331 0008 73746172 		.ascii	"start\000"
 331      7400
 332 000e 0000     		.space	2
 333              	.LC3:
 334 0010 72656164 		.ascii	"read\000"
 334      00
 335              		.text
 336              	.Letext0:
 337              		.file 2 "c:\\program files (x86)\\cypress\\psoc creator\\4.2\\psoc creator\\import\\gnu\\arm\\5.4.
 338              		.file 3 "c:\\program files (x86)\\cypress\\psoc creator\\4.2\\psoc creator\\import\\gnu\\arm\\5.4.
 339              		.file 4 "value.h"
 340              		.file 5 "vm.h"
 341              		.file 6 "Generated_Source\\PSoC5/core_cm3.h"
 342              		.file 7 "static.h"
 343              		.file 8 "Generated_Source\\PSoC5/ADC_1.h"
 344              		.file 9 "Generated_Source\\PSoC5/ADC_2.h"
 345              		.file 10 "class.h"
ARM GAS  C:\Users\164\AppData\Local\Temp\ccIEWRIc.s 			page 9

