ARM GAS  C:\Users\164\AppData\Local\Temp\ccuYWdBJ.s 			page 1


   1              		.syntax unified
   2              		.cpu cortex-m3
   3              		.fpu softvfp
   4              		.eabi_attribute 20, 1
   5              		.eabi_attribute 21, 1
   6              		.eabi_attribute 23, 3
   7              		.eabi_attribute 24, 1
   8              		.eabi_attribute 25, 1
   9              		.eabi_attribute 26, 1
  10              		.eabi_attribute 30, 1
  11              		.eabi_attribute 34, 1
  12              		.eabi_attribute 18, 4
  13              		.thumb
  14              		.syntax unified
  15              		.file	"c_array.c"
  16              		.text
  17              	.Ltext0:
  18              		.cfi_sections	.debug_frame
  19              		.section	.text.c_array_size,"ax",%progbits
  20              		.align	2
  21              		.thumb
  22              		.thumb_func
  23              		.type	c_array_size, %function
  24              	c_array_size:
  25              	.LFB107:
  26              		.file 1 "c_array.c"
   1:c_array.c     **** /*! @file
   2:c_array.c     ****   @brief
   3:c_array.c     ****   mruby/c Array class
   4:c_array.c     **** 
   5:c_array.c     ****   <pre>
   6:c_array.c     ****   Copyright (C) 2015-2018 Kyushu Institute of Technology.
   7:c_array.c     ****   Copyright (C) 2015-2018 Shimane IT Open-Innovation Center.
   8:c_array.c     **** 
   9:c_array.c     ****   This file is distributed under BSD 3-Clause License.
  10:c_array.c     **** 
  11:c_array.c     ****   </pre>
  12:c_array.c     **** */
  13:c_array.c     **** 
  14:c_array.c     **** #include "vm_config.h"
  15:c_array.c     **** #include <string.h>
  16:c_array.c     **** #include <assert.h>
  17:c_array.c     **** 
  18:c_array.c     **** #include "value.h"
  19:c_array.c     **** #include "vm.h"
  20:c_array.c     **** #include "alloc.h"
  21:c_array.c     **** #include "static.h"
  22:c_array.c     **** #include "class.h"
  23:c_array.c     **** #include "c_array.h"
  24:c_array.c     **** #include "c_string.h"
  25:c_array.c     **** #include "console.h"
  26:c_array.c     **** #include "opcode.h"
  27:c_array.c     **** 
  28:c_array.c     **** /*
  29:c_array.c     ****   function summary
  30:c_array.c     **** 
  31:c_array.c     ****  (constructor)
ARM GAS  C:\Users\164\AppData\Local\Temp\ccuYWdBJ.s 			page 2


  32:c_array.c     ****     mrbc_array_new
  33:c_array.c     **** 
  34:c_array.c     ****  (destructor)
  35:c_array.c     ****     mrbc_array_delete
  36:c_array.c     **** 
  37:c_array.c     ****  (setter)
  38:c_array.c     ****   --[name]-------------[arg]---[ret]-------------------------------------------
  39:c_array.c     ****     mrbc_array_set	*T	int
  40:c_array.c     ****     mrbc_array_push	*T	int
  41:c_array.c     ****     mrbc_array_unshift	*T	int
  42:c_array.c     ****     mrbc_array_insert	*T	int
  43:c_array.c     **** 
  44:c_array.c     ****  (getter)
  45:c_array.c     ****   --[name]-------------[arg]---[ret]---[note]----------------------------------
  46:c_array.c     ****     mrbc_array_get		T	Data remains in the container
  47:c_array.c     ****     mrbc_array_pop		T	Data does not remain in the container
  48:c_array.c     ****     mrbc_array_shift		T	Data does not remain in the container
  49:c_array.c     ****     mrbc_array_remove		T	Data does not remain in the container
  50:c_array.c     **** 
  51:c_array.c     ****  (others)
  52:c_array.c     ****     mrbc_array_resize
  53:c_array.c     ****     mrbc_array_clear
  54:c_array.c     ****     mrbc_array_compare
  55:c_array.c     ****     mrbc_array_minmax
  56:c_array.c     **** */
  57:c_array.c     **** 
  58:c_array.c     **** 
  59:c_array.c     **** //================================================================
  60:c_array.c     **** /*! constructor
  61:c_array.c     **** 
  62:c_array.c     ****   @param  vm	pointer to VM.
  63:c_array.c     ****   @param  size	initial size
  64:c_array.c     ****   @return 	array object
  65:c_array.c     **** */
  66:c_array.c     **** mrbc_value mrbc_array_new(struct VM *vm, int size)
  67:c_array.c     **** {
  68:c_array.c     ****   mrbc_value value = {.tt = MRBC_TT_ARRAY};
  69:c_array.c     **** 
  70:c_array.c     ****   /*
  71:c_array.c     ****     Allocate handle and data buffer.
  72:c_array.c     ****   */
  73:c_array.c     ****   mrbc_array *h = mrbc_alloc(vm, sizeof(mrbc_array));
  74:c_array.c     ****   if( !h ) return value;	// ENOMEM
  75:c_array.c     **** 
  76:c_array.c     ****   mrbc_value *data = mrbc_alloc(vm, sizeof(mrbc_value) * size);
  77:c_array.c     ****   if( !data ) {			// ENOMEM
  78:c_array.c     ****     mrbc_raw_free( h );
  79:c_array.c     ****     return value;
  80:c_array.c     ****   }
  81:c_array.c     **** 
  82:c_array.c     ****   h->ref_count = 1;
  83:c_array.c     ****   h->tt = MRBC_TT_ARRAY;
  84:c_array.c     ****   h->data_size = size;
  85:c_array.c     ****   h->n_stored = 0;
  86:c_array.c     ****   h->data = data;
  87:c_array.c     **** 
  88:c_array.c     ****   value.array = h;
ARM GAS  C:\Users\164\AppData\Local\Temp\ccuYWdBJ.s 			page 3


  89:c_array.c     ****   return value;
  90:c_array.c     **** }
  91:c_array.c     **** 
  92:c_array.c     **** 
  93:c_array.c     **** //================================================================
  94:c_array.c     **** /*! destructor
  95:c_array.c     **** 
  96:c_array.c     ****   @param  ary	pointer to target value
  97:c_array.c     **** */
  98:c_array.c     **** void mrbc_array_delete(mrbc_value *ary)
  99:c_array.c     **** {
 100:c_array.c     ****   mrbc_array *h = ary->array;
 101:c_array.c     **** 
 102:c_array.c     ****   mrbc_value *p1 = h->data;
 103:c_array.c     ****   const mrbc_value *p2 = p1 + h->n_stored;
 104:c_array.c     ****   while( p1 < p2 ) {
 105:c_array.c     ****     mrbc_dec_ref_counter(p1++);
 106:c_array.c     ****   }
 107:c_array.c     **** 
 108:c_array.c     ****   mrbc_raw_free(h->data);
 109:c_array.c     ****   mrbc_raw_free(h);
 110:c_array.c     **** }
 111:c_array.c     **** 
 112:c_array.c     **** 
 113:c_array.c     **** //================================================================
 114:c_array.c     **** /*! clear vm_id
 115:c_array.c     **** 
 116:c_array.c     ****   @param  ary	pointer to target value
 117:c_array.c     **** */
 118:c_array.c     **** void mrbc_array_clear_vm_id(mrbc_value *ary)
 119:c_array.c     **** {
 120:c_array.c     ****   mrbc_array *h = ary->array;
 121:c_array.c     **** 
 122:c_array.c     ****   mrbc_set_vm_id( h, 0 );
 123:c_array.c     **** 
 124:c_array.c     ****   mrbc_value *p1 = h->data;
 125:c_array.c     ****   const mrbc_value *p2 = p1 + h->n_stored;
 126:c_array.c     ****   while( p1 < p2 ) {
 127:c_array.c     ****     mrbc_clear_vm_id(p1++);
 128:c_array.c     ****   }
 129:c_array.c     **** }
 130:c_array.c     **** 
 131:c_array.c     **** 
 132:c_array.c     **** //================================================================
 133:c_array.c     **** /*! resize buffer
 134:c_array.c     **** 
 135:c_array.c     ****   @param  ary	pointer to target value
 136:c_array.c     ****   @param  size	size
 137:c_array.c     ****   @return	mrbc_error_code
 138:c_array.c     **** */
 139:c_array.c     **** int mrbc_array_resize(mrbc_value *ary, int size)
 140:c_array.c     **** {
 141:c_array.c     ****   mrbc_array *h = ary->array;
 142:c_array.c     **** 
 143:c_array.c     ****   mrbc_value *data2 = mrbc_raw_realloc(h->data, sizeof(mrbc_value) * size);
 144:c_array.c     ****   if( !data2 ) return E_NOMEMORY_ERROR;	// ENOMEM
 145:c_array.c     **** 
ARM GAS  C:\Users\164\AppData\Local\Temp\ccuYWdBJ.s 			page 4


 146:c_array.c     ****   h->data = data2;
 147:c_array.c     ****   h->data_size = size;
 148:c_array.c     **** 
 149:c_array.c     ****   return 0;
 150:c_array.c     **** }
 151:c_array.c     **** 
 152:c_array.c     **** 
 153:c_array.c     **** //================================================================
 154:c_array.c     **** /*! setter
 155:c_array.c     **** 
 156:c_array.c     ****   @param  ary		pointer to target value
 157:c_array.c     ****   @param  idx		index
 158:c_array.c     ****   @param  set_val	set value
 159:c_array.c     ****   @return		mrbc_error_code
 160:c_array.c     **** */
 161:c_array.c     **** int mrbc_array_set(mrbc_value *ary, int idx, mrbc_value *set_val)
 162:c_array.c     **** {
 163:c_array.c     ****   mrbc_array *h = ary->array;
 164:c_array.c     **** 
 165:c_array.c     ****   if( idx < 0 ) {
 166:c_array.c     ****     idx = h->n_stored + idx;
 167:c_array.c     ****     if( idx < 0 ) return E_INDEX_ERROR;		// raise?
 168:c_array.c     ****   }
 169:c_array.c     **** 
 170:c_array.c     ****   // need resize?
 171:c_array.c     ****   if( idx >= h->data_size && mrbc_array_resize(ary, idx + 1) != 0 ) {
 172:c_array.c     ****     return E_NOMEMORY_ERROR;			// ENOMEM
 173:c_array.c     ****   }
 174:c_array.c     **** 
 175:c_array.c     ****   if( idx < h->n_stored ) {
 176:c_array.c     ****     // release existing data.
 177:c_array.c     ****     mrbc_dec_ref_counter( &h->data[idx] );
 178:c_array.c     ****   } else {
 179:c_array.c     ****     // clear empty cells.
 180:c_array.c     ****     int i;
 181:c_array.c     ****     for( i = h->n_stored; i < idx; i++ ) {
 182:c_array.c     ****       h->data[i] = mrbc_nil_value();
 183:c_array.c     ****     }
 184:c_array.c     ****     h->n_stored = idx + 1;
 185:c_array.c     ****   }
 186:c_array.c     **** 
 187:c_array.c     ****   h->data[idx] = *set_val;
 188:c_array.c     **** 
 189:c_array.c     ****   return 0;
 190:c_array.c     **** }
 191:c_array.c     **** 
 192:c_array.c     **** 
 193:c_array.c     **** //================================================================
 194:c_array.c     **** /*! getter
 195:c_array.c     **** 
 196:c_array.c     ****   @param  ary		pointer to target value
 197:c_array.c     ****   @param  idx		index
 198:c_array.c     ****   @return		mrbc_value data at index position or Nil.
 199:c_array.c     **** */
 200:c_array.c     **** mrbc_value mrbc_array_get(mrbc_value *ary, int idx)
 201:c_array.c     **** {
 202:c_array.c     ****   mrbc_array *h = ary->array;
ARM GAS  C:\Users\164\AppData\Local\Temp\ccuYWdBJ.s 			page 5


 203:c_array.c     **** 
 204:c_array.c     ****   if( idx < 0 ) idx = h->n_stored + idx;
 205:c_array.c     ****   if( idx < 0 || idx >= h->n_stored ) return mrbc_nil_value();
 206:c_array.c     **** 
 207:c_array.c     ****   return h->data[idx];
 208:c_array.c     **** }
 209:c_array.c     **** 
 210:c_array.c     **** 
 211:c_array.c     **** //================================================================
 212:c_array.c     **** /*! push a data to tail
 213:c_array.c     **** 
 214:c_array.c     ****   @param  ary		pointer to target value
 215:c_array.c     ****   @param  set_val	set value
 216:c_array.c     ****   @return		mrbc_error_code
 217:c_array.c     **** */
 218:c_array.c     **** int mrbc_array_push(mrbc_value *ary, mrbc_value *set_val)
 219:c_array.c     **** {
 220:c_array.c     ****   mrbc_array *h = ary->array;
 221:c_array.c     **** 
 222:c_array.c     ****   if( h->n_stored >= h->data_size ) {
 223:c_array.c     ****     int size = h->data_size + 6;
 224:c_array.c     ****     if( mrbc_array_resize(ary, size) != 0 )
 225:c_array.c     ****       return E_NOMEMORY_ERROR;		// ENOMEM
 226:c_array.c     ****   }
 227:c_array.c     **** 
 228:c_array.c     ****   h->data[h->n_stored++] = *set_val;
 229:c_array.c     **** 
 230:c_array.c     ****   return 0;
 231:c_array.c     **** }
 232:c_array.c     **** 
 233:c_array.c     **** 
 234:c_array.c     **** //================================================================
 235:c_array.c     **** /*! pop a data from tail.
 236:c_array.c     **** 
 237:c_array.c     ****   @param  ary		pointer to target value
 238:c_array.c     ****   @return		tail data or Nil
 239:c_array.c     **** */
 240:c_array.c     **** mrbc_value mrbc_array_pop(mrbc_value *ary)
 241:c_array.c     **** {
 242:c_array.c     ****   mrbc_array *h = ary->array;
 243:c_array.c     **** 
 244:c_array.c     ****   if( h->n_stored <= 0 ) return mrbc_nil_value();
 245:c_array.c     ****   return h->data[--h->n_stored];
 246:c_array.c     **** }
 247:c_array.c     **** 
 248:c_array.c     **** 
 249:c_array.c     **** //================================================================
 250:c_array.c     **** /*! insert a data to the first.
 251:c_array.c     **** 
 252:c_array.c     ****   @param  ary		pointer to target value
 253:c_array.c     ****   @param  set_val	set value
 254:c_array.c     ****   @return		mrbc_error_code
 255:c_array.c     **** */
 256:c_array.c     **** int mrbc_array_unshift(mrbc_value *ary, mrbc_value *set_val)
 257:c_array.c     **** {
 258:c_array.c     ****   return mrbc_array_insert(ary, 0, set_val);
 259:c_array.c     **** }
ARM GAS  C:\Users\164\AppData\Local\Temp\ccuYWdBJ.s 			page 6


 260:c_array.c     **** 
 261:c_array.c     **** 
 262:c_array.c     **** //================================================================
 263:c_array.c     **** /*! removes the first data and returns it.
 264:c_array.c     **** 
 265:c_array.c     ****   @param  ary		pointer to target value
 266:c_array.c     ****   @return		first data or Nil
 267:c_array.c     **** */
 268:c_array.c     **** mrbc_value mrbc_array_shift(mrbc_value *ary)
 269:c_array.c     **** {
 270:c_array.c     ****   mrbc_array *h = ary->array;
 271:c_array.c     **** 
 272:c_array.c     ****   if( h->n_stored <= 0 ) return mrbc_nil_value();
 273:c_array.c     **** 
 274:c_array.c     ****   mrbc_value ret = h->data[0];
 275:c_array.c     ****   memmove(h->data, h->data+1, sizeof(mrbc_value) * --h->n_stored);
 276:c_array.c     **** 
 277:c_array.c     ****   return ret;
 278:c_array.c     **** }
 279:c_array.c     **** 
 280:c_array.c     **** 
 281:c_array.c     **** //================================================================
 282:c_array.c     **** /*! insert a data
 283:c_array.c     **** 
 284:c_array.c     ****   @param  ary		pointer to target value
 285:c_array.c     ****   @param  idx		index
 286:c_array.c     ****   @param  set_val	set value
 287:c_array.c     ****   @return		mrbc_error_code
 288:c_array.c     **** */
 289:c_array.c     **** int mrbc_array_insert(mrbc_value *ary, int idx, mrbc_value *set_val)
 290:c_array.c     **** {
 291:c_array.c     ****   mrbc_array *h = ary->array;
 292:c_array.c     **** 
 293:c_array.c     ****   if( idx < 0 ) {
 294:c_array.c     ****     idx = h->n_stored + idx + 1;
 295:c_array.c     ****     if( idx < 0 ) return E_INDEX_ERROR;		// raise?
 296:c_array.c     ****   }
 297:c_array.c     **** 
 298:c_array.c     ****   // need resize?
 299:c_array.c     ****   int size = 0;
 300:c_array.c     ****   if( idx >= h->data_size ) {
 301:c_array.c     ****     size = idx + 1;
 302:c_array.c     ****   } else if( h->n_stored >= h->data_size ) {
 303:c_array.c     ****     size = h->data_size + 1;
 304:c_array.c     ****   }
 305:c_array.c     ****   if( size && mrbc_array_resize(ary, size) != 0 ) {
 306:c_array.c     ****     return E_NOMEMORY_ERROR;			// ENOMEM
 307:c_array.c     ****   }
 308:c_array.c     **** 
 309:c_array.c     ****   // move datas.
 310:c_array.c     ****   if( idx < h->n_stored ) {
 311:c_array.c     ****     memmove(h->data + idx + 1, h->data + idx,
 312:c_array.c     **** 	    sizeof(mrbc_value) * (h->n_stored - idx));
 313:c_array.c     ****   }
 314:c_array.c     **** 
 315:c_array.c     ****   // set data
 316:c_array.c     ****   h->data[idx] = *set_val;
ARM GAS  C:\Users\164\AppData\Local\Temp\ccuYWdBJ.s 			page 7


 317:c_array.c     ****   h->n_stored++;
 318:c_array.c     **** 
 319:c_array.c     ****   // clear empty cells if need.
 320:c_array.c     ****   if( idx >= h->n_stored ) {
 321:c_array.c     ****     int i;
 322:c_array.c     ****     for( i = h->n_stored-1; i < idx; i++ ) {
 323:c_array.c     ****       h->data[i] = mrbc_nil_value();
 324:c_array.c     ****     }
 325:c_array.c     ****     h->n_stored = idx + 1;
 326:c_array.c     ****   }
 327:c_array.c     **** 
 328:c_array.c     ****   return 0;
 329:c_array.c     **** }
 330:c_array.c     **** 
 331:c_array.c     **** 
 332:c_array.c     **** //================================================================
 333:c_array.c     **** /*! remove a data
 334:c_array.c     **** 
 335:c_array.c     ****   @param  ary		pointer to target value
 336:c_array.c     ****   @param  idx		index
 337:c_array.c     ****   @return		mrbc_value data at index position or Nil.
 338:c_array.c     **** */
 339:c_array.c     **** mrbc_value mrbc_array_remove(mrbc_value *ary, int idx)
 340:c_array.c     **** {
 341:c_array.c     ****   mrbc_array *h = ary->array;
 342:c_array.c     **** 
 343:c_array.c     ****   if( idx < 0 ) idx = h->n_stored + idx;
 344:c_array.c     ****   if( idx < 0 || idx >= h->n_stored ) return mrbc_nil_value();
 345:c_array.c     **** 
 346:c_array.c     ****   mrbc_value val = h->data[idx];
 347:c_array.c     ****   h->n_stored--;
 348:c_array.c     ****   if( idx < h->n_stored ) {
 349:c_array.c     ****     memmove(h->data + idx, h->data + idx + 1,
 350:c_array.c     **** 	    sizeof(mrbc_value) * (h->n_stored - idx));
 351:c_array.c     ****   }
 352:c_array.c     **** 
 353:c_array.c     ****   return val;
 354:c_array.c     **** }
 355:c_array.c     **** 
 356:c_array.c     **** 
 357:c_array.c     **** //================================================================
 358:c_array.c     **** /*! clear all
 359:c_array.c     **** 
 360:c_array.c     ****   @param  ary		pointer to target value
 361:c_array.c     **** */
 362:c_array.c     **** void mrbc_array_clear(mrbc_value *ary)
 363:c_array.c     **** {
 364:c_array.c     ****   mrbc_array *h = ary->array;
 365:c_array.c     **** 
 366:c_array.c     ****   mrbc_value *p1 = h->data;
 367:c_array.c     ****   const mrbc_value *p2 = p1 + h->n_stored;
 368:c_array.c     ****   while( p1 < p2 ) {
 369:c_array.c     ****     mrbc_dec_ref_counter(p1++);
 370:c_array.c     ****   }
 371:c_array.c     **** 
 372:c_array.c     ****   h->n_stored = 0;
 373:c_array.c     **** }
ARM GAS  C:\Users\164\AppData\Local\Temp\ccuYWdBJ.s 			page 8


 374:c_array.c     **** 
 375:c_array.c     **** 
 376:c_array.c     **** //================================================================
 377:c_array.c     **** /*! compare
 378:c_array.c     **** 
 379:c_array.c     ****   @param  v1	Pointer to mrbc_value
 380:c_array.c     ****   @param  v2	Pointer to another mrbc_value
 381:c_array.c     ****   @retval 0	v1 == v2
 382:c_array.c     ****   @retval plus	v1 >  v2
 383:c_array.c     ****   @retval minus	v1 <  v2
 384:c_array.c     **** */
 385:c_array.c     **** int mrbc_array_compare(const mrbc_value *v1, const mrbc_value *v2)
 386:c_array.c     **** {
 387:c_array.c     ****   int i;
 388:c_array.c     ****   for( i = 0; ; i++ ) {
 389:c_array.c     ****     if( i >= mrbc_array_size(v1) || i >= mrbc_array_size(v2) ) {
 390:c_array.c     ****       return mrbc_array_size(v1) - mrbc_array_size(v2);
 391:c_array.c     ****     }
 392:c_array.c     **** 
 393:c_array.c     ****     int res = mrbc_compare( &v1->array->data[i], &v2->array->data[i] );
 394:c_array.c     ****     if( res != 0 ) return res;
 395:c_array.c     ****   }
 396:c_array.c     **** }
 397:c_array.c     **** 
 398:c_array.c     **** 
 399:c_array.c     **** //================================================================
 400:c_array.c     **** /*! get min, max value
 401:c_array.c     **** 
 402:c_array.c     ****   @param  ary		pointer to target value
 403:c_array.c     ****   @param  pp_min_value	returns minimum mrbc_value
 404:c_array.c     ****   @param  pp_max_value	returns maxmum mrbc_value
 405:c_array.c     **** */
 406:c_array.c     **** void mrbc_array_minmax(mrbc_value *ary, mrbc_value **pp_min_value, mrbc_value **pp_max_value)
 407:c_array.c     **** {
 408:c_array.c     ****   mrbc_array *h = ary->array;
 409:c_array.c     **** 
 410:c_array.c     ****   if( h->n_stored == 0 ) {
 411:c_array.c     ****     *pp_min_value = NULL;
 412:c_array.c     ****     *pp_max_value = NULL;
 413:c_array.c     ****     return;
 414:c_array.c     ****   }
 415:c_array.c     **** 
 416:c_array.c     ****   mrbc_value *p_min_value = h->data;
 417:c_array.c     ****   mrbc_value *p_max_value = h->data;
 418:c_array.c     **** 
 419:c_array.c     ****   int i;
 420:c_array.c     ****   for( i = 1; i < h->n_stored; i++ ) {
 421:c_array.c     ****     if( mrbc_compare( &h->data[i], p_min_value ) < 0 ) {
 422:c_array.c     ****       p_min_value = &h->data[i];
 423:c_array.c     ****     }
 424:c_array.c     ****     if( mrbc_compare( &h->data[i], p_max_value ) > 0 ) {
 425:c_array.c     ****       p_max_value = &h->data[i];
 426:c_array.c     ****     }
 427:c_array.c     ****   }
 428:c_array.c     **** 
 429:c_array.c     ****   *pp_min_value = p_min_value;
 430:c_array.c     ****   *pp_max_value = p_max_value;
ARM GAS  C:\Users\164\AppData\Local\Temp\ccuYWdBJ.s 			page 9


 431:c_array.c     **** }
 432:c_array.c     **** 
 433:c_array.c     **** 
 434:c_array.c     **** //================================================================
 435:c_array.c     **** /*! method new
 436:c_array.c     **** */
 437:c_array.c     **** static void c_array_new(struct VM *vm, mrbc_value v[], int argc)
 438:c_array.c     **** {
 439:c_array.c     ****   /*
 440:c_array.c     ****     in case of new()
 441:c_array.c     ****   */
 442:c_array.c     ****   if( argc == 0 ) {
 443:c_array.c     ****     mrbc_value ret = mrbc_array_new(vm, 0);
 444:c_array.c     ****     if( ret.array == NULL ) return;		// ENOMEM
 445:c_array.c     **** 
 446:c_array.c     ****     SET_RETURN(ret);
 447:c_array.c     ****     return;
 448:c_array.c     ****   }
 449:c_array.c     **** 
 450:c_array.c     ****   /*
 451:c_array.c     ****     in case of new(num)
 452:c_array.c     ****   */
 453:c_array.c     ****   if( argc == 1 && v[1].tt == MRBC_TT_FIXNUM && v[1].i >= 0 ) {
 454:c_array.c     ****     mrbc_value ret = mrbc_array_new(vm, v[1].i);
 455:c_array.c     ****     if( ret.array == NULL ) return;		// ENOMEM
 456:c_array.c     **** 
 457:c_array.c     ****     mrbc_value nil = mrbc_nil_value();
 458:c_array.c     ****     if( v[1].i > 0 ) {
 459:c_array.c     ****       mrbc_array_set(&ret, v[1].i - 1, &nil);
 460:c_array.c     ****     }
 461:c_array.c     ****     SET_RETURN(ret);
 462:c_array.c     ****     return;
 463:c_array.c     ****   }
 464:c_array.c     **** 
 465:c_array.c     ****   /*
 466:c_array.c     ****     in case of new(num, value)
 467:c_array.c     ****   */
 468:c_array.c     ****   if( argc == 2 && v[1].tt == MRBC_TT_FIXNUM && v[1].i >= 0 ) {
 469:c_array.c     ****     mrbc_value ret = mrbc_array_new(vm, v[1].i);
 470:c_array.c     ****     if( ret.array == NULL ) return;		// ENOMEM
 471:c_array.c     **** 
 472:c_array.c     ****     int i;
 473:c_array.c     ****     for( i = 0; i < v[1].i; i++ ) {
 474:c_array.c     ****       mrbc_dup(&v[2]);
 475:c_array.c     ****       mrbc_array_set(&ret, i, &v[2]);
 476:c_array.c     ****     }
 477:c_array.c     ****     SET_RETURN(ret);
 478:c_array.c     ****     return;
 479:c_array.c     ****   }
 480:c_array.c     **** 
 481:c_array.c     ****   /*
 482:c_array.c     ****     other case
 483:c_array.c     ****   */
 484:c_array.c     ****   console_print( "ArgumentError\n" );	// raise?
 485:c_array.c     **** }
 486:c_array.c     **** 
 487:c_array.c     **** 
ARM GAS  C:\Users\164\AppData\Local\Temp\ccuYWdBJ.s 			page 10


 488:c_array.c     **** //================================================================
 489:c_array.c     **** /*! (operator) +
 490:c_array.c     **** */
 491:c_array.c     **** static void c_array_add(struct VM *vm, mrbc_value v[], int argc)
 492:c_array.c     **** {
 493:c_array.c     ****   if( GET_TT_ARG(1) != MRBC_TT_ARRAY ) {
 494:c_array.c     ****     console_print( "TypeError\n" );	// raise?
 495:c_array.c     ****     return;
 496:c_array.c     ****   }
 497:c_array.c     **** 
 498:c_array.c     ****   mrbc_array *h1 = v[0].array;
 499:c_array.c     ****   mrbc_array *h2 = v[1].array;
 500:c_array.c     **** 
 501:c_array.c     ****   mrbc_value value = mrbc_array_new(vm, h1->n_stored + h2->n_stored);
 502:c_array.c     ****   if( value.array == NULL ) return;		// ENOMEM
 503:c_array.c     **** 
 504:c_array.c     ****   memcpy( value.array->data,                h1->data,
 505:c_array.c     **** 	  sizeof(mrbc_value) * h1->n_stored );
 506:c_array.c     ****   memcpy( value.array->data + h1->n_stored, h2->data,
 507:c_array.c     **** 	  sizeof(mrbc_value) * h2->n_stored );
 508:c_array.c     ****   value.array->n_stored = h1->n_stored + h2->n_stored;
 509:c_array.c     **** 
 510:c_array.c     ****   mrbc_value *p1 = value.array->data;
 511:c_array.c     ****   const mrbc_value *p2 = p1 + value.array->n_stored;
 512:c_array.c     ****   while( p1 < p2 ) {
 513:c_array.c     ****     mrbc_dup(p1++);
 514:c_array.c     ****   }
 515:c_array.c     **** 
 516:c_array.c     ****   mrbc_release(v+1);
 517:c_array.c     ****   SET_RETURN(value);
 518:c_array.c     **** }
 519:c_array.c     **** 
 520:c_array.c     **** 
 521:c_array.c     **** //================================================================
 522:c_array.c     **** /*! (operator) []
 523:c_array.c     **** */
 524:c_array.c     **** static void c_array_get(struct VM *vm, mrbc_value v[], int argc)
 525:c_array.c     **** {
 526:c_array.c     ****   /*
 527:c_array.c     ****     in case of self[nth] -> object | nil
 528:c_array.c     ****   */
 529:c_array.c     ****   if( argc == 1 && v[1].tt == MRBC_TT_FIXNUM ) {
 530:c_array.c     ****     mrbc_value ret = mrbc_array_get(v, v[1].i);
 531:c_array.c     ****     mrbc_dup(&ret);
 532:c_array.c     ****     SET_RETURN(ret);
 533:c_array.c     ****     return;
 534:c_array.c     ****   }
 535:c_array.c     **** 
 536:c_array.c     ****   /*
 537:c_array.c     ****     in case of self[start, length] -> Array | nil
 538:c_array.c     ****   */
 539:c_array.c     ****   if( argc == 2 && v[1].tt == MRBC_TT_FIXNUM && v[2].tt == MRBC_TT_FIXNUM ) {
 540:c_array.c     ****     int len = mrbc_array_size(&v[0]);
 541:c_array.c     ****     int idx = v[1].i;
 542:c_array.c     ****     if( idx < 0 ) idx += len;
 543:c_array.c     ****     if( idx < 0 ) goto RETURN_NIL;
 544:c_array.c     **** 
ARM GAS  C:\Users\164\AppData\Local\Temp\ccuYWdBJ.s 			page 11


 545:c_array.c     ****     int size = (v[2].i < (len - idx)) ? v[2].i : (len - idx);
 546:c_array.c     **** 					// min( v[2].i, (len - idx) )
 547:c_array.c     ****     if( size < 0 ) goto RETURN_NIL;
 548:c_array.c     **** 
 549:c_array.c     ****     mrbc_value ret = mrbc_array_new(vm, size);
 550:c_array.c     ****     if( ret.array == NULL ) return;		// ENOMEM
 551:c_array.c     **** 
 552:c_array.c     ****     int i;
 553:c_array.c     ****     for( i = 0; i < size; i++ ) {
 554:c_array.c     ****       mrbc_value val = mrbc_array_get(v, v[1].i + i);
 555:c_array.c     ****       mrbc_dup(&val);
 556:c_array.c     ****       mrbc_array_push(&ret, &val);
 557:c_array.c     ****     }
 558:c_array.c     **** 
 559:c_array.c     ****     SET_RETURN(ret);
 560:c_array.c     ****     return;
 561:c_array.c     ****   }
 562:c_array.c     **** 
 563:c_array.c     ****   /*
 564:c_array.c     ****     other case
 565:c_array.c     ****   */
 566:c_array.c     ****   console_print( "Not support such case in Array#[].\n" );
 567:c_array.c     ****   return;
 568:c_array.c     **** 
 569:c_array.c     ****  RETURN_NIL:
 570:c_array.c     ****   SET_NIL_RETURN();
 571:c_array.c     **** }
 572:c_array.c     **** 
 573:c_array.c     **** 
 574:c_array.c     **** //================================================================
 575:c_array.c     **** /*! (operator) []=
 576:c_array.c     **** */
 577:c_array.c     **** static void c_array_set(struct VM *vm, mrbc_value v[], int argc)
 578:c_array.c     **** {
 579:c_array.c     ****   /*
 580:c_array.c     ****     in case of self[nth] = val
 581:c_array.c     ****   */
 582:c_array.c     ****   if( argc == 2 && v[1].tt == MRBC_TT_FIXNUM ) {
 583:c_array.c     ****     mrbc_array_set(v, v[1].i, &v[2]);	// raise? IndexError or ENOMEM
 584:c_array.c     ****     v[2].tt = MRBC_TT_EMPTY;
 585:c_array.c     ****     return;
 586:c_array.c     ****   }
 587:c_array.c     **** 
 588:c_array.c     ****   /*
 589:c_array.c     ****     in case of self[start, length] = val
 590:c_array.c     ****   */
 591:c_array.c     ****   if( argc == 3 && v[1].tt == MRBC_TT_FIXNUM && v[2].tt == MRBC_TT_FIXNUM ) {
 592:c_array.c     ****     // TODO: not implement yet.
 593:c_array.c     ****   }
 594:c_array.c     **** 
 595:c_array.c     ****   /*
 596:c_array.c     ****     other case
 597:c_array.c     ****   */
 598:c_array.c     ****   console_print( "Not support such case in Array#[].\n" );
 599:c_array.c     **** }
 600:c_array.c     **** 
 601:c_array.c     **** 
ARM GAS  C:\Users\164\AppData\Local\Temp\ccuYWdBJ.s 			page 12


 602:c_array.c     **** //================================================================
 603:c_array.c     **** /*! (method) clear
 604:c_array.c     **** */
 605:c_array.c     **** static void c_array_clear(struct VM *vm, mrbc_value v[], int argc)
 606:c_array.c     **** {
 607:c_array.c     ****   mrbc_array_clear(v);
 608:c_array.c     **** }
 609:c_array.c     **** 
 610:c_array.c     **** 
 611:c_array.c     **** //================================================================
 612:c_array.c     **** /*! (method) delete_at
 613:c_array.c     **** */
 614:c_array.c     **** static void c_array_delete_at(struct VM *vm, mrbc_value v[], int argc)
 615:c_array.c     **** {
 616:c_array.c     ****   mrbc_value val = mrbc_array_remove(v, GET_INT_ARG(1));
 617:c_array.c     ****   SET_RETURN(val);
 618:c_array.c     **** }
 619:c_array.c     **** 
 620:c_array.c     **** 
 621:c_array.c     **** //================================================================
 622:c_array.c     **** /*! (method) empty?
 623:c_array.c     **** */
 624:c_array.c     **** static void c_array_empty(struct VM *vm, mrbc_value v[], int argc)
 625:c_array.c     **** {
 626:c_array.c     ****   int n = mrbc_array_size(v);
 627:c_array.c     **** 
 628:c_array.c     ****   if( n ) {
 629:c_array.c     ****     SET_FALSE_RETURN();
 630:c_array.c     ****   } else {
 631:c_array.c     ****     SET_TRUE_RETURN();
 632:c_array.c     ****   }
 633:c_array.c     **** }
 634:c_array.c     **** 
 635:c_array.c     **** 
 636:c_array.c     **** //================================================================
 637:c_array.c     **** /*! (method) size,length,count
 638:c_array.c     **** */
 639:c_array.c     **** static void c_array_size(struct VM *vm, mrbc_value v[], int argc)
 640:c_array.c     **** {
  27              		.loc 1 640 0
  28              		.cfi_startproc
  29              		@ args = 0, pretend = 0, frame = 0
  30              		@ frame_needed = 0, uses_anonymous_args = 0
  31              	.LVL0:
  32 0000 38B5     		push	{r3, r4, r5, lr}
  33              		.cfi_def_cfa_offset 16
  34              		.cfi_offset 3, -16
  35              		.cfi_offset 4, -12
  36              		.cfi_offset 5, -8
  37              		.cfi_offset 14, -4
  38 0002 0C46     		mov	r4, r1
  39              	.LVL1:
  40              	.LBB32:
  41              	.LBB33:
  42              		.file 2 "c_array.h"
   1:c_array.h     **** /*! @file
   2:c_array.h     ****   @brief
ARM GAS  C:\Users\164\AppData\Local\Temp\ccuYWdBJ.s 			page 13


   3:c_array.h     ****   mruby/c Array class
   4:c_array.h     **** 
   5:c_array.h     ****   <pre>
   6:c_array.h     ****   Copyright (C) 2015-2018 Kyushu Institute of Technology.
   7:c_array.h     ****   Copyright (C) 2015-2018 Shimane IT Open-Innovation Center.
   8:c_array.h     **** 
   9:c_array.h     ****   This file is distributed under BSD 3-Clause License.
  10:c_array.h     **** 
  11:c_array.h     ****   </pre>
  12:c_array.h     **** */
  13:c_array.h     **** 
  14:c_array.h     **** #ifndef MRBC_SRC_C_ARRAY_H_
  15:c_array.h     **** #define MRBC_SRC_C_ARRAY_H_
  16:c_array.h     **** 
  17:c_array.h     **** #include "value.h"
  18:c_array.h     **** 
  19:c_array.h     **** #ifdef __cplusplus
  20:c_array.h     **** extern "C" {
  21:c_array.h     **** #endif
  22:c_array.h     **** 
  23:c_array.h     **** //================================================================
  24:c_array.h     **** /*!@brief
  25:c_array.h     ****   Define Array handle.
  26:c_array.h     **** */
  27:c_array.h     **** typedef struct RArray {
  28:c_array.h     ****   MRBC_OBJECT_HEADER;
  29:c_array.h     **** 
  30:c_array.h     ****   uint16_t data_size;	//!< data buffer size.
  31:c_array.h     ****   uint16_t n_stored;	//!< # of stored.
  32:c_array.h     ****   mrbc_value *data;	//!< pointer to allocated memory.
  33:c_array.h     **** 
  34:c_array.h     **** } mrbc_array;
  35:c_array.h     **** 
  36:c_array.h     **** 
  37:c_array.h     **** mrbc_value mrbc_array_new(struct VM *vm, int size);
  38:c_array.h     **** void mrbc_array_delete(mrbc_value *ary);
  39:c_array.h     **** void mrbc_array_clear_vm_id(mrbc_value *ary);
  40:c_array.h     **** int mrbc_array_resize(mrbc_value *ary, int size);
  41:c_array.h     **** int mrbc_array_set(mrbc_value *ary, int idx, mrbc_value *set_val);
  42:c_array.h     **** mrbc_value mrbc_array_get(mrbc_value *ary, int idx);
  43:c_array.h     **** int mrbc_array_push(mrbc_value *ary, mrbc_value *set_val);
  44:c_array.h     **** mrbc_value mrbc_array_pop(mrbc_value *ary);
  45:c_array.h     **** int mrbc_array_unshift(mrbc_value *ary, mrbc_value *set_val);
  46:c_array.h     **** mrbc_value mrbc_array_shift(mrbc_value *ary);
  47:c_array.h     **** int mrbc_array_insert(mrbc_value *ary, int idx, mrbc_value *set_val);
  48:c_array.h     **** mrbc_value mrbc_array_remove(mrbc_value *ary, int idx);
  49:c_array.h     **** void mrbc_array_clear(mrbc_value *ary);
  50:c_array.h     **** int mrbc_array_compare(const mrbc_value *v1, const mrbc_value *v2);
  51:c_array.h     **** void mrbc_array_minmax(mrbc_value *ary, mrbc_value **pp_min_value, mrbc_value **pp_max_value);
  52:c_array.h     **** void mrbc_init_class_array(struct VM *vm);
  53:c_array.h     **** 
  54:c_array.h     **** 
  55:c_array.h     **** //================================================================
  56:c_array.h     **** /*! get size
  57:c_array.h     **** */
  58:c_array.h     **** static inline int mrbc_array_size(const mrbc_value *ary)
  59:c_array.h     **** {
ARM GAS  C:\Users\164\AppData\Local\Temp\ccuYWdBJ.s 			page 14


  60:c_array.h     ****   return ary->array->n_stored;
  43              		.loc 2 60 0
  44 0004 8B68     		ldr	r3, [r1, #8]
  45 0006 DD88     		ldrh	r5, [r3, #6]
  46              	.LVL2:
  47              	.LBE33:
  48              	.LBE32:
  49              	.LBB34:
 641:c_array.c     ****   int n = mrbc_array_size(v);
 642:c_array.c     **** 
 643:c_array.c     ****   SET_INT_RETURN(n);
  50              		.loc 1 643 0
  51 0008 0846     		mov	r0, r1
  52              	.LVL3:
  53 000a FFF7FEFF 		bl	mrbc_dec_ref_counter
  54              	.LVL4:
  55 000e 0423     		movs	r3, #4
  56 0010 2370     		strb	r3, [r4]
  57 0012 A560     		str	r5, [r4, #8]
  58 0014 38BD     		pop	{r3, r4, r5, pc}
  59              	.LBE34:
  60              		.cfi_endproc
  61              	.LFE107:
  62              		.size	c_array_size, .-c_array_size
  63 0016 00BF     		.section	.text.c_array_empty,"ax",%progbits
  64              		.align	2
  65              		.thumb
  66              		.thumb_func
  67              		.type	c_array_empty, %function
  68              	c_array_empty:
  69              	.LFB106:
 625:c_array.c     ****   int n = mrbc_array_size(v);
  70              		.loc 1 625 0
  71              		.cfi_startproc
  72              		@ args = 0, pretend = 0, frame = 0
  73              		@ frame_needed = 0, uses_anonymous_args = 0
  74              	.LVL5:
  75 0000 10B5     		push	{r4, lr}
  76              		.cfi_def_cfa_offset 8
  77              		.cfi_offset 4, -8
  78              		.cfi_offset 14, -4
  79 0002 0C46     		mov	r4, r1
  80              	.LVL6:
  81              	.LBB35:
  82              	.LBB36:
  83              		.loc 2 60 0
  84 0004 8B68     		ldr	r3, [r1, #8]
  85 0006 DB88     		ldrh	r3, [r3, #6]
  86              	.LVL7:
  87              	.LBE36:
  88              	.LBE35:
 628:c_array.c     ****     SET_FALSE_RETURN();
  89              		.loc 1 628 0
  90 0008 2BB1     		cbz	r3, .L4
 629:c_array.c     ****   } else {
  91              		.loc 1 629 0
  92 000a 0846     		mov	r0, r1
ARM GAS  C:\Users\164\AppData\Local\Temp\ccuYWdBJ.s 			page 15


  93              	.LVL8:
  94 000c FFF7FEFF 		bl	mrbc_dec_ref_counter
  95              	.LVL9:
  96 0010 0223     		movs	r3, #2
  97 0012 2370     		strb	r3, [r4]
  98 0014 10BD     		pop	{r4, pc}
  99              	.LVL10:
 100              	.L4:
 631:c_array.c     ****   }
 101              		.loc 1 631 0
 102 0016 0846     		mov	r0, r1
 103              	.LVL11:
 104 0018 FFF7FEFF 		bl	mrbc_dec_ref_counter
 105              	.LVL12:
 106 001c 0323     		movs	r3, #3
 107 001e 2370     		strb	r3, [r4]
 108 0020 10BD     		pop	{r4, pc}
 109              		.cfi_endproc
 110              	.LFE106:
 111              		.size	c_array_empty, .-c_array_empty
 112 0022 00BF     		.section	.text.c_array_index,"ax",%progbits
 113              		.align	2
 114              		.thumb
 115              		.thumb_func
 116              		.type	c_array_index, %function
 117              	c_array_index:
 118              	.LFB108:
 644:c_array.c     **** }
 645:c_array.c     **** 
 646:c_array.c     **** 
 647:c_array.c     **** //================================================================
 648:c_array.c     **** /*! (method) index
 649:c_array.c     **** */
 650:c_array.c     **** static void c_array_index(struct VM *vm, mrbc_value v[], int argc)
 651:c_array.c     **** {
 119              		.loc 1 651 0
 120              		.cfi_startproc
 121              		@ args = 0, pretend = 0, frame = 0
 122              		@ frame_needed = 0, uses_anonymous_args = 0
 123              	.LVL13:
 124 0000 2DE9F041 		push	{r4, r5, r6, r7, r8, lr}
 125              		.cfi_def_cfa_offset 24
 126              		.cfi_offset 4, -24
 127              		.cfi_offset 5, -20
 128              		.cfi_offset 6, -16
 129              		.cfi_offset 7, -12
 130              		.cfi_offset 8, -8
 131              		.cfi_offset 14, -4
 132 0004 8846     		mov	r8, r1
 652:c_array.c     ****   mrbc_value *value = &GET_ARG(1);
 133              		.loc 1 652 0
 134 0006 01F11007 		add	r7, r1, #16
 135              	.LVL14:
 653:c_array.c     ****   mrbc_value *data = v->array->data;
 136              		.loc 1 653 0
 137 000a 8B68     		ldr	r3, [r1, #8]
 138 000c 9E68     		ldr	r6, [r3, #8]
ARM GAS  C:\Users\164\AppData\Local\Temp\ccuYWdBJ.s 			page 16


 139              	.LVL15:
 654:c_array.c     ****   int n = v->array->n_stored;
 140              		.loc 1 654 0
 141 000e DD88     		ldrh	r5, [r3, #6]
 142              	.LVL16:
 655:c_array.c     ****   int i;
 656:c_array.c     **** 
 657:c_array.c     ****   for( i = 0; i < n; i++ ) {
 143              		.loc 1 657 0
 144 0010 0024     		movs	r4, #0
 145 0012 06E0     		b	.L8
 146              	.LVL17:
 147              	.L10:
 658:c_array.c     ****     if( mrbc_compare(&data[i], value) == 0 ) break;
 148              		.loc 1 658 0
 149 0014 3946     		mov	r1, r7
 150 0016 06EB0410 		add	r0, r6, r4, lsl #4
 151 001a FFF7FEFF 		bl	mrbc_compare
 152              	.LVL18:
 153 001e 10B1     		cbz	r0, .L9
 657:c_array.c     ****     if( mrbc_compare(&data[i], value) == 0 ) break;
 154              		.loc 1 657 0 discriminator 2
 155 0020 0134     		adds	r4, r4, #1
 156              	.LVL19:
 157              	.L8:
 657:c_array.c     ****     if( mrbc_compare(&data[i], value) == 0 ) break;
 158              		.loc 1 657 0 is_stmt 0 discriminator 1
 159 0022 AC42     		cmp	r4, r5
 160 0024 F6DB     		blt	.L10
 161              	.L9:
 659:c_array.c     ****   }
 660:c_array.c     **** 
 661:c_array.c     ****   if( i < n ) {
 162              		.loc 1 661 0 is_stmt 1
 163 0026 AC42     		cmp	r4, r5
 164 0028 09DA     		bge	.L11
 165              	.LVL20:
 166              	.LBB37:
 662:c_array.c     ****     SET_INT_RETURN(i);
 167              		.loc 1 662 0
 168 002a 4046     		mov	r0, r8
 169 002c FFF7FEFF 		bl	mrbc_dec_ref_counter
 170              	.LVL21:
 171 0030 0423     		movs	r3, #4
 172 0032 88F80030 		strb	r3, [r8]
 173 0036 C8F80840 		str	r4, [r8, #8]
 174              	.LBE37:
 175 003a BDE8F081 		pop	{r4, r5, r6, r7, r8, pc}
 176              	.LVL22:
 177              	.L11:
 663:c_array.c     ****   } else {
 664:c_array.c     ****     SET_NIL_RETURN();
 178              		.loc 1 664 0
 179 003e 4046     		mov	r0, r8
 180 0040 FFF7FEFF 		bl	mrbc_dec_ref_counter
 181              	.LVL23:
 182 0044 0123     		movs	r3, #1
ARM GAS  C:\Users\164\AppData\Local\Temp\ccuYWdBJ.s 			page 17


 183 0046 88F80030 		strb	r3, [r8]
 184 004a BDE8F081 		pop	{r4, r5, r6, r7, r8, pc}
 185              		.cfi_endproc
 186              	.LFE108:
 187              		.size	c_array_index, .-c_array_index
 188 004e 00BF     		.section	.text.c_array_join_1,"ax",%progbits
 189              		.align	2
 190              		.thumb
 191              		.thumb_func
 192              		.type	c_array_join_1, %function
 193              	c_array_join_1:
 194              	.LFB120:
 665:c_array.c     ****   }
 666:c_array.c     **** }
 667:c_array.c     **** 
 668:c_array.c     **** 
 669:c_array.c     **** //================================================================
 670:c_array.c     **** /*! (method) first
 671:c_array.c     **** */
 672:c_array.c     **** static void c_array_first(struct VM *vm, mrbc_value v[], int argc)
 673:c_array.c     **** {
 674:c_array.c     ****   mrbc_value val = mrbc_array_get(v, 0);
 675:c_array.c     ****   mrbc_dup(&val);
 676:c_array.c     ****   SET_RETURN(val);
 677:c_array.c     **** }
 678:c_array.c     **** 
 679:c_array.c     **** 
 680:c_array.c     **** //================================================================
 681:c_array.c     **** /*! (method) last
 682:c_array.c     **** */
 683:c_array.c     **** static void c_array_last(struct VM *vm, mrbc_value v[], int argc)
 684:c_array.c     **** {
 685:c_array.c     ****   mrbc_value val = mrbc_array_get(v, -1);
 686:c_array.c     ****   mrbc_dup(&val);
 687:c_array.c     ****   SET_RETURN(val);
 688:c_array.c     **** }
 689:c_array.c     **** 
 690:c_array.c     **** 
 691:c_array.c     **** //================================================================
 692:c_array.c     **** /*! (method) push
 693:c_array.c     **** */
 694:c_array.c     **** static void c_array_push(struct VM *vm, mrbc_value v[], int argc)
 695:c_array.c     **** {
 696:c_array.c     ****   mrbc_array_push(&v[0], &v[1]);	// raise? ENOMEM
 697:c_array.c     ****   v[1].tt = MRBC_TT_EMPTY;
 698:c_array.c     **** }
 699:c_array.c     **** 
 700:c_array.c     **** 
 701:c_array.c     **** //================================================================
 702:c_array.c     **** /*! (method) pop
 703:c_array.c     **** */
 704:c_array.c     **** static void c_array_pop(struct VM *vm, mrbc_value v[], int argc)
 705:c_array.c     **** {
 706:c_array.c     ****   /*
 707:c_array.c     ****     in case of pop() -> object | nil
 708:c_array.c     ****   */
 709:c_array.c     ****   if( argc == 0 ) {
ARM GAS  C:\Users\164\AppData\Local\Temp\ccuYWdBJ.s 			page 18


 710:c_array.c     ****     mrbc_value val = mrbc_array_pop(v);
 711:c_array.c     ****     SET_RETURN(val);
 712:c_array.c     ****     return;
 713:c_array.c     ****   }
 714:c_array.c     **** 
 715:c_array.c     ****   /*
 716:c_array.c     ****     in case of pop(n) -> Array
 717:c_array.c     ****   */
 718:c_array.c     ****   if( argc == 1 && v[1].tt == MRBC_TT_FIXNUM ) {
 719:c_array.c     ****     // TODO: not implement yet.
 720:c_array.c     ****   }
 721:c_array.c     **** 
 722:c_array.c     ****   /*
 723:c_array.c     ****     other case
 724:c_array.c     ****   */
 725:c_array.c     ****   console_print( "Not support such case in Array#pop.\n" );
 726:c_array.c     **** }
 727:c_array.c     **** 
 728:c_array.c     **** 
 729:c_array.c     **** //================================================================
 730:c_array.c     **** /*! (method) unshift
 731:c_array.c     **** */
 732:c_array.c     **** static void c_array_unshift(struct VM *vm, mrbc_value v[], int argc)
 733:c_array.c     **** {
 734:c_array.c     ****   mrbc_array_unshift(&v[0], &v[1]);	// raise? IndexError or ENOMEM
 735:c_array.c     ****   v[1].tt = MRBC_TT_EMPTY;
 736:c_array.c     **** }
 737:c_array.c     **** 
 738:c_array.c     **** 
 739:c_array.c     **** //================================================================
 740:c_array.c     **** /*! (method) shift
 741:c_array.c     **** */
 742:c_array.c     **** static void c_array_shift(struct VM *vm, mrbc_value v[], int argc)
 743:c_array.c     **** {
 744:c_array.c     ****   /*
 745:c_array.c     ****     in case of pop() -> object | nil
 746:c_array.c     ****   */
 747:c_array.c     ****   if( argc == 0 ) {
 748:c_array.c     ****     mrbc_value val = mrbc_array_shift(v);
 749:c_array.c     ****     SET_RETURN(val);
 750:c_array.c     ****     return;
 751:c_array.c     ****   }
 752:c_array.c     **** 
 753:c_array.c     ****   /*
 754:c_array.c     ****     in case of pop(n) -> Array
 755:c_array.c     ****   */
 756:c_array.c     ****   if( argc == 1 && v[1].tt == MRBC_TT_FIXNUM ) {
 757:c_array.c     ****     // TODO: not implement yet.
 758:c_array.c     ****   }
 759:c_array.c     **** 
 760:c_array.c     ****   /*
 761:c_array.c     ****     other case
 762:c_array.c     ****   */
 763:c_array.c     ****   console_print( "Not support such case in Array#shift.\n" );
 764:c_array.c     **** }
 765:c_array.c     **** 
 766:c_array.c     **** 
ARM GAS  C:\Users\164\AppData\Local\Temp\ccuYWdBJ.s 			page 19


 767:c_array.c     **** //================================================================
 768:c_array.c     **** /*! (method) dup
 769:c_array.c     **** */
 770:c_array.c     **** static void c_array_dup(struct VM *vm, mrbc_value v[], int argc)
 771:c_array.c     **** {
 772:c_array.c     ****   mrbc_array *h = v[0].array;
 773:c_array.c     **** 
 774:c_array.c     ****   mrbc_value value = mrbc_array_new(vm, h->n_stored);
 775:c_array.c     ****   if( value.array == NULL ) return;		// ENOMEM
 776:c_array.c     **** 
 777:c_array.c     ****   memcpy( value.array->data, h->data, sizeof(mrbc_value) * h->n_stored );
 778:c_array.c     ****   value.array->n_stored = h->n_stored;
 779:c_array.c     **** 
 780:c_array.c     ****   mrbc_value *p1 = value.array->data;
 781:c_array.c     ****   const mrbc_value *p2 = p1 + value.array->n_stored;
 782:c_array.c     ****   while( p1 < p2 ) {
 783:c_array.c     ****     mrbc_dup(p1++);
 784:c_array.c     ****   }
 785:c_array.c     **** 
 786:c_array.c     ****   SET_RETURN(value);
 787:c_array.c     **** }
 788:c_array.c     **** 
 789:c_array.c     **** 
 790:c_array.c     **** 
 791:c_array.c     **** //================================================================
 792:c_array.c     **** /*! (method) min
 793:c_array.c     **** */
 794:c_array.c     **** static void c_array_min(struct VM *vm, mrbc_value v[], int argc)
 795:c_array.c     **** {
 796:c_array.c     ****   // Subset of Array#min, not support min(n).
 797:c_array.c     **** 
 798:c_array.c     ****   mrbc_value *p_min_value, *p_max_value;
 799:c_array.c     **** 
 800:c_array.c     ****   mrbc_array_minmax(&v[0], &p_min_value, &p_max_value);
 801:c_array.c     ****   if( p_min_value == NULL ) {
 802:c_array.c     ****     SET_NIL_RETURN();
 803:c_array.c     ****     return;
 804:c_array.c     ****   }
 805:c_array.c     **** 
 806:c_array.c     ****   mrbc_dup(p_min_value);
 807:c_array.c     ****   SET_RETURN(*p_min_value);
 808:c_array.c     **** }
 809:c_array.c     **** 
 810:c_array.c     **** 
 811:c_array.c     **** //================================================================
 812:c_array.c     **** /*! (method) max
 813:c_array.c     **** */
 814:c_array.c     **** static void c_array_max(struct VM *vm, mrbc_value v[], int argc)
 815:c_array.c     **** {
 816:c_array.c     ****   // Subset of Array#max, not support max(n).
 817:c_array.c     **** 
 818:c_array.c     ****   mrbc_value *p_min_value, *p_max_value;
 819:c_array.c     **** 
 820:c_array.c     ****   mrbc_array_minmax(&v[0], &p_min_value, &p_max_value);
 821:c_array.c     ****   if( p_max_value == NULL ) {
 822:c_array.c     ****     SET_NIL_RETURN();
 823:c_array.c     ****     return;
ARM GAS  C:\Users\164\AppData\Local\Temp\ccuYWdBJ.s 			page 20


 824:c_array.c     ****   }
 825:c_array.c     **** 
 826:c_array.c     ****   mrbc_dup(p_max_value);
 827:c_array.c     ****   SET_RETURN(*p_max_value);
 828:c_array.c     **** }
 829:c_array.c     **** 
 830:c_array.c     **** 
 831:c_array.c     **** //================================================================
 832:c_array.c     **** /*! (method) minmax
 833:c_array.c     **** */
 834:c_array.c     **** static void c_array_minmax(struct VM *vm, mrbc_value v[], int argc)
 835:c_array.c     **** {
 836:c_array.c     ****   // Subset of Array#minmax, not support minmax(n).
 837:c_array.c     **** 
 838:c_array.c     ****   mrbc_value *p_min_value, *p_max_value;
 839:c_array.c     ****   mrbc_value nil = mrbc_nil_value();
 840:c_array.c     ****   mrbc_value ret = mrbc_array_new(vm, 2);
 841:c_array.c     **** 
 842:c_array.c     ****   mrbc_array_minmax(&v[0], &p_min_value, &p_max_value);
 843:c_array.c     ****   if( p_min_value == NULL ) p_min_value = &nil;
 844:c_array.c     ****   if( p_max_value == NULL ) p_max_value = &nil;
 845:c_array.c     **** 
 846:c_array.c     ****   mrbc_dup(p_min_value);
 847:c_array.c     ****   mrbc_dup(p_max_value);
 848:c_array.c     ****   mrbc_array_set(&ret, 0, p_min_value);
 849:c_array.c     ****   mrbc_array_set(&ret, 1, p_max_value);
 850:c_array.c     **** 
 851:c_array.c     ****   SET_RETURN(ret);
 852:c_array.c     **** }
 853:c_array.c     **** 
 854:c_array.c     **** 
 855:c_array.c     **** #if MRBC_USE_STRING
 856:c_array.c     **** //================================================================
 857:c_array.c     **** /*! (method) inspect
 858:c_array.c     **** */
 859:c_array.c     **** static void c_array_inspect(struct VM *vm, mrbc_value v[], int argc)
 860:c_array.c     **** {
 861:c_array.c     ****   mrbc_value ret = mrbc_string_new_cstr(vm, "[");
 862:c_array.c     ****   if( !ret.string ) goto RETURN_NIL;		// ENOMEM
 863:c_array.c     **** 
 864:c_array.c     ****   int i;
 865:c_array.c     ****   for( i = 0; i < mrbc_array_size(v); i++ ) {
 866:c_array.c     ****     if( i != 0 ) mrbc_string_append_cstr( &ret, ", " );
 867:c_array.c     **** 
 868:c_array.c     ****     mrbc_value v1 = mrbc_array_get(v, i);
 869:c_array.c     ****     mrbc_value s1 = mrbc_send( vm, v, argc, &v1, "inspect", 0 );
 870:c_array.c     ****     mrbc_string_append( &ret, &s1 );
 871:c_array.c     ****     mrbc_string_delete( &s1 );
 872:c_array.c     ****   }
 873:c_array.c     **** 
 874:c_array.c     ****   mrbc_string_append_cstr( &ret, "]" );
 875:c_array.c     **** 
 876:c_array.c     ****   SET_RETURN(ret);
 877:c_array.c     ****   return;
 878:c_array.c     **** 
 879:c_array.c     ****  RETURN_NIL:
 880:c_array.c     ****   SET_NIL_RETURN();
ARM GAS  C:\Users\164\AppData\Local\Temp\ccuYWdBJ.s 			page 21


 881:c_array.c     **** }
 882:c_array.c     **** 
 883:c_array.c     **** 
 884:c_array.c     **** //================================================================
 885:c_array.c     **** /*! (method) join
 886:c_array.c     **** */
 887:c_array.c     **** static void c_array_join_1(struct VM *vm, mrbc_value v[], int argc,
 888:c_array.c     **** 			   mrbc_value *src, mrbc_value *ret, mrbc_value *separator)
 889:c_array.c     **** {
 195              		.loc 1 889 0
 196              		.cfi_startproc
 197              		@ args = 8, pretend = 0, frame = 16
 198              		@ frame_needed = 0, uses_anonymous_args = 0
 199              	.LVL24:
 200 0000 2DE9F04F 		push	{r4, r5, r6, r7, r8, r9, r10, fp, lr}
 201              		.cfi_def_cfa_offset 36
 202              		.cfi_offset 4, -36
 203              		.cfi_offset 5, -32
 204              		.cfi_offset 6, -28
 205              		.cfi_offset 7, -24
 206              		.cfi_offset 8, -20
 207              		.cfi_offset 9, -16
 208              		.cfi_offset 10, -12
 209              		.cfi_offset 11, -8
 210              		.cfi_offset 14, -4
 211 0004 89B0     		sub	sp, sp, #36
 212              		.cfi_def_cfa_offset 72
 213 0006 129F     		ldr	r7, [sp, #72]
 214 0008 DDF84C80 		ldr	r8, [sp, #76]
 215              	.LVL25:
 216              	.LBB38:
 217              	.LBB39:
 218              		.loc 2 60 0
 219 000c 9C68     		ldr	r4, [r3, #8]
 220 000e E488     		ldrh	r4, [r4, #6]
 221              	.LVL26:
 222              	.LBE39:
 223              	.LBE38:
 890:c_array.c     ****   if( mrbc_array_size(src) == 0 ) return;
 224              		.loc 1 890 0
 225 0010 002C     		cmp	r4, #0
 226 0012 35D0     		beq	.L14
 227 0014 1E46     		mov	r6, r3
 228 0016 9346     		mov	fp, r2
 229 0018 8A46     		mov	r10, r1
 230 001a 8146     		mov	r9, r0
 231 001c 0024     		movs	r4, #0
 232 001e 2546     		mov	r5, r4
 233 0020 2CE0     		b	.L16
 234              	.LVL27:
 235              	.L19:
 891:c_array.c     **** 
 892:c_array.c     ****   int i = 0;
 893:c_array.c     ****   int flag_error = 0;
 894:c_array.c     ****   while( !flag_error ) {
 895:c_array.c     ****     if( src->array->data[i].tt == MRBC_TT_ARRAY ) {
 236              		.loc 1 895 0
ARM GAS  C:\Users\164\AppData\Local\Temp\ccuYWdBJ.s 			page 22


 237 0022 B368     		ldr	r3, [r6, #8]
 238 0024 9968     		ldr	r1, [r3, #8]
 239 0026 2A01     		lsls	r2, r5, #4
 240 0028 8B18     		adds	r3, r1, r2
 241 002a 8A56     		ldrsb	r2, [r1, r2]
 242 002c 162A     		cmp	r2, #22
 243 002e 08D1     		bne	.L17
 896:c_array.c     ****       c_array_join_1(vm, v, argc, &src->array->data[i], ret, separator);
 244              		.loc 1 896 0
 245 0030 CDF80480 		str	r8, [sp, #4]
 246 0034 0097     		str	r7, [sp]
 247 0036 5A46     		mov	r2, fp
 248 0038 5146     		mov	r1, r10
 249 003a 4846     		mov	r0, r9
 250 003c FFF7E0FF 		bl	c_array_join_1
 251              	.LVL28:
 252 0040 12E0     		b	.L18
 253              	.L17:
 254              	.LBB40:
 897:c_array.c     ****     } else {
 898:c_array.c     ****       mrbc_value v1 = mrbc_send( vm, v, argc, &src->array->data[i], "to_s", 0 );
 255              		.loc 1 898 0
 256 0042 0022     		movs	r2, #0
 257 0044 0292     		str	r2, [sp, #8]
 258 0046 104A     		ldr	r2, .L21
 259 0048 0192     		str	r2, [sp, #4]
 260 004a 0093     		str	r3, [sp]
 261 004c 5B46     		mov	r3, fp
 262 004e 5246     		mov	r2, r10
 263 0050 4946     		mov	r1, r9
 264 0052 04A8     		add	r0, sp, #16
 265 0054 FFF7FEFF 		bl	mrbc_send
 266              	.LVL29:
 899:c_array.c     ****       flag_error |= mrbc_string_append( ret, &v1 );
 267              		.loc 1 899 0
 268 0058 04A9     		add	r1, sp, #16
 269 005a 3846     		mov	r0, r7
 270 005c FFF7FEFF 		bl	mrbc_string_append
 271              	.LVL30:
 272 0060 0443     		orrs	r4, r4, r0
 273              	.LVL31:
 900:c_array.c     ****       mrbc_dec_ref_counter(&v1);
 274              		.loc 1 900 0
 275 0062 04A8     		add	r0, sp, #16
 276 0064 FFF7FEFF 		bl	mrbc_dec_ref_counter
 277              	.LVL32:
 278              	.L18:
 279              	.LBE40:
 901:c_array.c     ****     }
 902:c_array.c     ****     if( ++i >= mrbc_array_size(src) ) break;	// normal return.
 280              		.loc 1 902 0
 281 0068 0135     		adds	r5, r5, #1
 282              	.LVL33:
 283              	.LBB41:
 284              	.LBB42:
 285              		.loc 2 60 0
 286 006a B368     		ldr	r3, [r6, #8]
ARM GAS  C:\Users\164\AppData\Local\Temp\ccuYWdBJ.s 			page 23


 287 006c DB88     		ldrh	r3, [r3, #6]
 288              	.LVL34:
 289              	.LBE42:
 290              	.LBE41:
 291              		.loc 1 902 0
 292 006e 9D42     		cmp	r5, r3
 293 0070 06DA     		bge	.L14
 903:c_array.c     ****     flag_error |= mrbc_string_append( ret, separator );
 294              		.loc 1 903 0
 295 0072 4146     		mov	r1, r8
 296 0074 3846     		mov	r0, r7
 297 0076 FFF7FEFF 		bl	mrbc_string_append
 298              	.LVL35:
 299 007a 0443     		orrs	r4, r4, r0
 300              	.LVL36:
 301              	.L16:
 894:c_array.c     ****     if( src->array->data[i].tt == MRBC_TT_ARRAY ) {
 302              		.loc 1 894 0
 303 007c 002C     		cmp	r4, #0
 304 007e D0D0     		beq	.L19
 305              	.LVL37:
 306              	.L14:
 904:c_array.c     ****   }
 905:c_array.c     **** }
 307              		.loc 1 905 0
 308 0080 09B0     		add	sp, sp, #36
 309              		.cfi_def_cfa_offset 36
 310              		@ sp needed
 311 0082 BDE8F08F 		pop	{r4, r5, r6, r7, r8, r9, r10, fp, pc}
 312              	.LVL38:
 313              	.L22:
 314 0086 00BF     		.align	2
 315              	.L21:
 316 0088 00000000 		.word	.LC0
 317              		.cfi_endproc
 318              	.LFE120:
 319              		.size	c_array_join_1, .-c_array_join_1
 320              		.section	.text.c_array_join,"ax",%progbits
 321              		.align	2
 322              		.thumb
 323              		.thumb_func
 324              		.type	c_array_join, %function
 325              	c_array_join:
 326              	.LFB121:
 906:c_array.c     **** 
 907:c_array.c     **** static void c_array_join(struct VM *vm, mrbc_value v[], int argc)
 908:c_array.c     **** {
 327              		.loc 1 908 0
 328              		.cfi_startproc
 329              		@ args = 0, pretend = 0, frame = 48
 330              		@ frame_needed = 0, uses_anonymous_args = 0
 331              	.LVL39:
 332 0000 2DE9F041 		push	{r4, r5, r6, r7, r8, lr}
 333              		.cfi_def_cfa_offset 24
 334              		.cfi_offset 4, -24
 335              		.cfi_offset 5, -20
 336              		.cfi_offset 6, -16
ARM GAS  C:\Users\164\AppData\Local\Temp\ccuYWdBJ.s 			page 24


 337              		.cfi_offset 7, -12
 338              		.cfi_offset 8, -8
 339              		.cfi_offset 14, -4
 340 0004 90B0     		sub	sp, sp, #64
 341              		.cfi_def_cfa_offset 88
 342 0006 0546     		mov	r5, r0
 343 0008 0C46     		mov	r4, r1
 344 000a 1746     		mov	r7, r2
 909:c_array.c     ****   mrbc_value ret = mrbc_string_new(vm, NULL, 0);
 345              		.loc 1 909 0
 346 000c 0023     		movs	r3, #0
 347 000e 1A46     		mov	r2, r3
 348              	.LVL40:
 349 0010 0146     		mov	r1, r0
 350              	.LVL41:
 351 0012 0CA8     		add	r0, sp, #48
 352              	.LVL42:
 353 0014 FFF7FEFF 		bl	mrbc_string_new
 354              	.LVL43:
 910:c_array.c     ****   if( !ret.string ) goto RETURN_NIL;		// ENOMEM
 355              		.loc 1 910 0
 356 0018 0E9B     		ldr	r3, [sp, #56]
 357 001a 7BB3     		cbz	r3, .L24
 911:c_array.c     **** 
 912:c_array.c     ****   mrbc_value separator = (argc == 0) ? mrbc_string_new_cstr(vm, "") :
 358              		.loc 1 912 0
 359 001c 2FB9     		cbnz	r7, .L25
 360              		.loc 1 912 0 is_stmt 0 discriminator 1
 361 001e 1B4A     		ldr	r2, .L29
 362 0020 2946     		mov	r1, r5
 363 0022 08A8     		add	r0, sp, #32
 364 0024 FFF7FEFF 		bl	mrbc_string_new_cstr
 365              	.LVL44:
 366 0028 0CE0     		b	.L26
 367              	.L25:
 913:c_array.c     ****     mrbc_send( vm, v, argc, &v[1], "to_s", 0 );
 368              		.loc 1 913 0 is_stmt 1 discriminator 2
 369 002a 04F11003 		add	r3, r4, #16
 912:c_array.c     ****     mrbc_send( vm, v, argc, &v[1], "to_s", 0 );
 370              		.loc 1 912 0 discriminator 2
 371 002e 0022     		movs	r2, #0
 372 0030 0292     		str	r2, [sp, #8]
 373 0032 174A     		ldr	r2, .L29+4
 374 0034 0192     		str	r2, [sp, #4]
 375 0036 0093     		str	r3, [sp]
 376 0038 3B46     		mov	r3, r7
 377 003a 2246     		mov	r2, r4
 378 003c 2946     		mov	r1, r5
 379 003e 08A8     		add	r0, sp, #32
 380 0040 FFF7FEFF 		bl	mrbc_send
 381              	.LVL45:
 382              	.L26:
 914:c_array.c     **** 
 915:c_array.c     ****   c_array_join_1(vm, v, argc, &v[0], &ret, &separator );
 383              		.loc 1 915 0
 384 0044 0DF12008 		add	r8, sp, #32
 385 0048 CDF80480 		str	r8, [sp, #4]
ARM GAS  C:\Users\164\AppData\Local\Temp\ccuYWdBJ.s 			page 25


 386 004c 0CAE     		add	r6, sp, #48
 387 004e 0096     		str	r6, [sp]
 388 0050 2346     		mov	r3, r4
 389 0052 3A46     		mov	r2, r7
 390 0054 2146     		mov	r1, r4
 391 0056 2846     		mov	r0, r5
 392 0058 FFF7FEFF 		bl	c_array_join_1
 393              	.LVL46:
 916:c_array.c     ****   mrbc_dec_ref_counter(&separator);
 394              		.loc 1 916 0
 395 005c 4046     		mov	r0, r8
 396 005e FFF7FEFF 		bl	mrbc_dec_ref_counter
 397              	.LVL47:
 398              	.LBB43:
 917:c_array.c     **** 
 918:c_array.c     ****   SET_RETURN(ret);
 399              		.loc 1 918 0
 400 0062 04AD     		add	r5, sp, #16
 401              	.LVL48:
 402 0064 96E80F00 		ldmia	r6, {r0, r1, r2, r3}
 403 0068 85E80F00 		stmia	r5, {r0, r1, r2, r3}
 404 006c 2046     		mov	r0, r4
 405 006e FFF7FEFF 		bl	mrbc_dec_ref_counter
 406              	.LVL49:
 407 0072 95E80F00 		ldmia	r5, {r0, r1, r2, r3}
 408 0076 84E80F00 		stmia	r4, {r0, r1, r2, r3}
 409 007a 04E0     		b	.L23
 410              	.LVL50:
 411              	.L24:
 412              	.LBE43:
 919:c_array.c     ****   return;
 920:c_array.c     **** 
 921:c_array.c     ****  RETURN_NIL:
 922:c_array.c     ****   SET_NIL_RETURN();
 413              		.loc 1 922 0
 414 007c 2046     		mov	r0, r4
 415 007e FFF7FEFF 		bl	mrbc_dec_ref_counter
 416              	.LVL51:
 417 0082 0123     		movs	r3, #1
 418 0084 2370     		strb	r3, [r4]
 419              	.LVL52:
 420              	.L23:
 923:c_array.c     **** }
 421              		.loc 1 923 0
 422 0086 10B0     		add	sp, sp, #64
 423              		.cfi_def_cfa_offset 24
 424              		@ sp needed
 425 0088 BDE8F081 		pop	{r4, r5, r6, r7, r8, pc}
 426              	.LVL53:
 427              	.L30:
 428              		.align	2
 429              	.L29:
 430 008c 08000000 		.word	.LC1
 431 0090 00000000 		.word	.LC0
 432              		.cfi_endproc
 433              	.LFE121:
 434              		.size	c_array_join, .-c_array_join
ARM GAS  C:\Users\164\AppData\Local\Temp\ccuYWdBJ.s 			page 26


 435              		.section	.text.mrbc_array_new,"ax",%progbits
 436              		.align	2
 437              		.global	mrbc_array_new
 438              		.thumb
 439              		.thumb_func
 440              		.type	mrbc_array_new, %function
 441              	mrbc_array_new:
 442              	.LFB85:
  67:c_array.c     ****   mrbc_value value = {.tt = MRBC_TT_ARRAY};
 443              		.loc 1 67 0
 444              		.cfi_startproc
 445              		@ args = 0, pretend = 0, frame = 0
 446              		@ frame_needed = 0, uses_anonymous_args = 0
 447              	.LVL54:
 448 0000 F8B5     		push	{r3, r4, r5, r6, r7, lr}
 449              		.cfi_def_cfa_offset 24
 450              		.cfi_offset 3, -24
 451              		.cfi_offset 4, -20
 452              		.cfi_offset 5, -16
 453              		.cfi_offset 6, -12
 454              		.cfi_offset 7, -8
 455              		.cfi_offset 14, -4
 456 0002 0446     		mov	r4, r0
 457 0004 0E46     		mov	r6, r1
 458 0006 1746     		mov	r7, r2
  68:c_array.c     **** 
 459              		.loc 1 68 0
 460 0008 0023     		movs	r3, #0
 461 000a 0360     		str	r3, [r0]
 462 000c 4360     		str	r3, [r0, #4]
 463 000e 8360     		str	r3, [r0, #8]
 464 0010 C360     		str	r3, [r0, #12]
 465 0012 1623     		movs	r3, #22
 466 0014 0370     		strb	r3, [r0]
  73:c_array.c     ****   if( !h ) return value;	// ENOMEM
 467              		.loc 1 73 0
 468 0016 0C21     		movs	r1, #12
 469              	.LVL55:
 470 0018 3046     		mov	r0, r6
 471              	.LVL56:
 472 001a FFF7FEFF 		bl	mrbc_alloc
 473              	.LVL57:
  74:c_array.c     **** 
 474              		.loc 1 74 0
 475 001e 90B1     		cbz	r0, .L31
 476 0020 0546     		mov	r5, r0
  76:c_array.c     ****   if( !data ) {			// ENOMEM
 477              		.loc 1 76 0
 478 0022 3901     		lsls	r1, r7, #4
 479 0024 3046     		mov	r0, r6
 480              	.LVL58:
 481 0026 FFF7FEFF 		bl	mrbc_alloc
 482              	.LVL59:
  77:c_array.c     ****     mrbc_raw_free( h );
 483              		.loc 1 77 0
 484 002a 18B9     		cbnz	r0, .L33
  78:c_array.c     ****     return value;
ARM GAS  C:\Users\164\AppData\Local\Temp\ccuYWdBJ.s 			page 27


 485              		.loc 1 78 0
 486 002c 2846     		mov	r0, r5
 487              	.LVL60:
 488 002e FFF7FEFF 		bl	mrbc_raw_free
 489              	.LVL61:
  79:c_array.c     ****   }
 490              		.loc 1 79 0
 491 0032 08E0     		b	.L31
 492              	.LVL62:
 493              	.L33:
  82:c_array.c     ****   h->tt = MRBC_TT_ARRAY;
 494              		.loc 1 82 0
 495 0034 0122     		movs	r2, #1
 496 0036 2A80     		strh	r2, [r5]	@ movhi
  83:c_array.c     ****   h->data_size = size;
 497              		.loc 1 83 0
 498 0038 1622     		movs	r2, #22
 499 003a AA70     		strb	r2, [r5, #2]
  84:c_array.c     ****   h->n_stored = 0;
 500              		.loc 1 84 0
 501 003c AF80     		strh	r7, [r5, #4]	@ movhi
  85:c_array.c     ****   h->data = data;
 502              		.loc 1 85 0
 503 003e 0022     		movs	r2, #0
 504 0040 EA80     		strh	r2, [r5, #6]	@ movhi
  86:c_array.c     **** 
 505              		.loc 1 86 0
 506 0042 A860     		str	r0, [r5, #8]
  88:c_array.c     ****   return value;
 507              		.loc 1 88 0
 508 0044 A560     		str	r5, [r4, #8]
 509              	.LVL63:
 510              	.L31:
  90:c_array.c     **** 
 511              		.loc 1 90 0
 512 0046 2046     		mov	r0, r4
 513 0048 F8BD     		pop	{r3, r4, r5, r6, r7, pc}
 514              		.cfi_endproc
 515              	.LFE85:
 516              		.size	mrbc_array_new, .-mrbc_array_new
 517 004a 00BF     		.section	.text.c_array_dup,"ax",%progbits
 518              		.align	2
 519              		.thumb
 520              		.thumb_func
 521              		.type	c_array_dup, %function
 522              	c_array_dup:
 523              	.LFB115:
 771:c_array.c     ****   mrbc_array *h = v[0].array;
 524              		.loc 1 771 0
 525              		.cfi_startproc
 526              		@ args = 0, pretend = 0, frame = 32
 527              		@ frame_needed = 0, uses_anonymous_args = 0
 528              	.LVL64:
 529 0000 70B5     		push	{r4, r5, r6, lr}
 530              		.cfi_def_cfa_offset 16
 531              		.cfi_offset 4, -16
 532              		.cfi_offset 5, -12
ARM GAS  C:\Users\164\AppData\Local\Temp\ccuYWdBJ.s 			page 28


 533              		.cfi_offset 6, -8
 534              		.cfi_offset 14, -4
 535 0002 88B0     		sub	sp, sp, #32
 536              		.cfi_def_cfa_offset 48
 537 0004 0E46     		mov	r6, r1
 772:c_array.c     **** 
 538              		.loc 1 772 0
 539 0006 8D68     		ldr	r5, [r1, #8]
 540              	.LVL65:
 774:c_array.c     ****   if( value.array == NULL ) return;		// ENOMEM
 541              		.loc 1 774 0
 542 0008 EA88     		ldrh	r2, [r5, #6]
 543              	.LVL66:
 544 000a 0146     		mov	r1, r0
 545              	.LVL67:
 546 000c 04A8     		add	r0, sp, #16
 547              	.LVL68:
 548 000e FFF7FEFF 		bl	mrbc_array_new
 549              	.LVL69:
 775:c_array.c     **** 
 550              		.loc 1 775 0
 551 0012 069C     		ldr	r4, [sp, #24]
 552 0014 F4B1     		cbz	r4, .L35
 777:c_array.c     ****   value.array->n_stored = h->n_stored;
 553              		.loc 1 777 0
 554 0016 EA88     		ldrh	r2, [r5, #6]
 555 0018 1201     		lsls	r2, r2, #4
 556 001a A968     		ldr	r1, [r5, #8]
 557 001c A068     		ldr	r0, [r4, #8]
 558 001e FFF7FEFF 		bl	memcpy
 559              	.LVL70:
 778:c_array.c     **** 
 560              		.loc 1 778 0
 561 0022 ED88     		ldrh	r5, [r5, #6]
 562              	.LVL71:
 563 0024 E580     		strh	r5, [r4, #6]	@ movhi
 780:c_array.c     ****   const mrbc_value *p2 = p1 + value.array->n_stored;
 564              		.loc 1 780 0
 565 0026 A068     		ldr	r0, [r4, #8]
 566              	.LVL72:
 781:c_array.c     ****   while( p1 < p2 ) {
 567              		.loc 1 781 0
 568 0028 00EB0515 		add	r5, r0, r5, lsl #4
 569              	.LVL73:
 782:c_array.c     ****     mrbc_dup(p1++);
 570              		.loc 1 782 0
 571 002c 04E0     		b	.L37
 572              	.L38:
 783:c_array.c     ****   }
 573              		.loc 1 783 0
 574 002e 00F11004 		add	r4, r0, #16
 575              	.LVL74:
 576 0032 FFF7FEFF 		bl	mrbc_dup
 577              	.LVL75:
 578 0036 2046     		mov	r0, r4
 579              	.LVL76:
 580              	.L37:
ARM GAS  C:\Users\164\AppData\Local\Temp\ccuYWdBJ.s 			page 29


 782:c_array.c     ****     mrbc_dup(p1++);
 581              		.loc 1 782 0
 582 0038 A842     		cmp	r0, r5
 583 003a F8D3     		bcc	.L38
 584              	.LBB44:
 786:c_array.c     **** }
 585              		.loc 1 786 0
 586 003c 08AB     		add	r3, sp, #32
 587 003e 13E90F00 		ldmdb	r3, {r0, r1, r2, r3}
 588              	.LVL77:
 589 0042 8DE80F00 		stmia	sp, {r0, r1, r2, r3}
 590 0046 3046     		mov	r0, r6
 591 0048 FFF7FEFF 		bl	mrbc_dec_ref_counter
 592              	.LVL78:
 593 004c 9DE80F00 		ldmia	sp, {r0, r1, r2, r3}
 594 0050 86E80F00 		stmia	r6, {r0, r1, r2, r3}
 595              	.LVL79:
 596              	.L35:
 597              	.LBE44:
 787:c_array.c     **** 
 598              		.loc 1 787 0
 599 0054 08B0     		add	sp, sp, #32
 600              		.cfi_def_cfa_offset 16
 601              		@ sp needed
 602 0056 70BD     		pop	{r4, r5, r6, pc}
 603              		.cfi_endproc
 604              	.LFE115:
 605              		.size	c_array_dup, .-c_array_dup
 606              		.section	.text.c_array_add,"ax",%progbits
 607              		.align	2
 608              		.thumb
 609              		.thumb_func
 610              		.type	c_array_add, %function
 611              	c_array_add:
 612              	.LFB101:
 492:c_array.c     ****   if( GET_TT_ARG(1) != MRBC_TT_ARRAY ) {
 613              		.loc 1 492 0
 614              		.cfi_startproc
 615              		@ args = 0, pretend = 0, frame = 32
 616              		@ frame_needed = 0, uses_anonymous_args = 0
 617              	.LVL80:
 618 0000 F0B5     		push	{r4, r5, r6, r7, lr}
 619              		.cfi_def_cfa_offset 20
 620              		.cfi_offset 4, -20
 621              		.cfi_offset 5, -16
 622              		.cfi_offset 6, -12
 623              		.cfi_offset 7, -8
 624              		.cfi_offset 14, -4
 625 0002 89B0     		sub	sp, sp, #36
 626              		.cfi_def_cfa_offset 56
 493:c_array.c     ****     console_print( "TypeError\n" );	// raise?
 627              		.loc 1 493 0
 628 0004 91F91030 		ldrsb	r3, [r1, #16]
 629 0008 162B     		cmp	r3, #22
 630 000a 05D0     		beq	.L42
 631              	.LVL81:
 632              	.LBB48:
ARM GAS  C:\Users\164\AppData\Local\Temp\ccuYWdBJ.s 			page 30


 633              	.LBB49:
 634              		.file 3 "console.h"
   1:console.h     **** /*! @file
   2:console.h     ****   @brief
   3:console.h     ****   console output module. (not yet input)
   4:console.h     **** 
   5:console.h     ****   <pre>
   6:console.h     ****   Copyright (C) 2015-2018 Kyushu Institute of Technology.
   7:console.h     ****   Copyright (C) 2015-2018 Shimane IT Open-Innovation Center.
   8:console.h     **** 
   9:console.h     ****   This file is distributed under BSD 3-Clause License.
  10:console.h     **** 
  11:console.h     ****   </pre>
  12:console.h     **** */
  13:console.h     **** 
  14:console.h     **** #ifndef MRBC_SRC_CONSOLE_H_
  15:console.h     **** #define MRBC_SRC_CONSOLE_H_
  16:console.h     **** 
  17:console.h     **** #include <stdint.h>
  18:console.h     **** #include <stdarg.h>
  19:console.h     **** #include <string.h>
  20:console.h     **** #include "hal/hal.h"
  21:console.h     **** 
  22:console.h     **** #ifdef __cplusplus
  23:console.h     **** extern "C" {
  24:console.h     **** #endif
  25:console.h     **** 
  26:console.h     **** 
  27:console.h     **** //================================================================
  28:console.h     **** /*! printf tiny (mruby/c) version data container.
  29:console.h     **** */
  30:console.h     **** typedef struct RPrintf {
  31:console.h     ****   char *buf;		//!< output buffer.
  32:console.h     ****   const char *buf_end;	//!< output buffer end point.
  33:console.h     ****   char *p;		//!< output buffer write point.
  34:console.h     ****   const char *fstr;	//!< format string. (e.g. "%d %03x")
  35:console.h     **** 
  36:console.h     ****   struct RPrintfFormat {
  37:console.h     ****     char type;				//!< format char. (e.g. 'd','f','x'...)
  38:console.h     ****     unsigned int flag_plus : 1;
  39:console.h     ****     unsigned int flag_minus : 1;
  40:console.h     ****     unsigned int flag_space : 1;
  41:console.h     ****     unsigned int flag_zero : 1;
  42:console.h     ****     int width;				//!< display width. (e.g. %10d as 10)
  43:console.h     ****     int precision;			//!< precision (e.g. %5.2f as 2)
  44:console.h     ****   } fmt;
  45:console.h     **** } mrbc_printf;
  46:console.h     **** 
  47:console.h     **** 
  48:console.h     **** void console_printf(const char *fstr, ...);
  49:console.h     **** int mrbc_printf_main(mrbc_printf *pf);
  50:console.h     **** int mrbc_printf_char(mrbc_printf *pf, int ch);
  51:console.h     **** int mrbc_printf_bstr(mrbc_printf *pf, const char *str, int len, int pad);
  52:console.h     **** int mrbc_printf_int(mrbc_printf *pf, mrbc_int value, int base);
  53:console.h     **** int mrbc_printf_float(mrbc_printf *pf, double value);
  54:console.h     **** void mrbc_printf_replace_buffer(mrbc_printf *pf, char *buf, int size);
  55:console.h     **** 
ARM GAS  C:\Users\164\AppData\Local\Temp\ccuYWdBJ.s 			page 31


  56:console.h     **** 
  57:console.h     **** //================================================================
  58:console.h     **** /*! output a character
  59:console.h     **** 
  60:console.h     ****   @param  c	character
  61:console.h     **** */
  62:console.h     **** static inline void console_putchar(char c)
  63:console.h     **** {
  64:console.h     ****   hal_write(1, &c, 1);
  65:console.h     **** }
  66:console.h     **** 
  67:console.h     **** 
  68:console.h     **** //================================================================
  69:console.h     **** /*! output string
  70:console.h     **** 
  71:console.h     ****   @param str	str
  72:console.h     **** */
  73:console.h     **** static inline void console_print(const char *str)
  74:console.h     **** {
  75:console.h     ****   hal_write(1, str, strlen(str));
 635              		.loc 3 75 0
 636 000c 0A22     		movs	r2, #10
 637              	.LVL82:
 638 000e 2149     		ldr	r1, .L48
 639              	.LVL83:
 640 0010 0120     		movs	r0, #1
 641              	.LVL84:
 642 0012 FFF7FEFF 		bl	hal_write
 643              	.LVL85:
 644 0016 3AE0     		b	.L41
 645              	.LVL86:
 646              	.L42:
 647 0018 0E46     		mov	r6, r1
 648              	.LBE49:
 649              	.LBE48:
 498:c_array.c     ****   mrbc_array *h2 = v[1].array;
 650              		.loc 1 498 0
 651 001a 8D68     		ldr	r5, [r1, #8]
 652              	.LVL87:
 499:c_array.c     **** 
 653              		.loc 1 499 0
 654 001c 8F69     		ldr	r7, [r1, #24]
 655              	.LVL88:
 501:c_array.c     ****   if( value.array == NULL ) return;		// ENOMEM
 656              		.loc 1 501 0
 657 001e EA88     		ldrh	r2, [r5, #6]
 658              	.LVL89:
 659 0020 FB88     		ldrh	r3, [r7, #6]
 660 0022 1A44     		add	r2, r2, r3
 661 0024 0146     		mov	r1, r0
 662              	.LVL90:
 663 0026 04A8     		add	r0, sp, #16
 664              	.LVL91:
 665 0028 FFF7FEFF 		bl	mrbc_array_new
 666              	.LVL92:
 502:c_array.c     **** 
 667              		.loc 1 502 0
ARM GAS  C:\Users\164\AppData\Local\Temp\ccuYWdBJ.s 			page 32


 668 002c 069C     		ldr	r4, [sp, #24]
 669 002e 74B3     		cbz	r4, .L41
 505:c_array.c     ****   memcpy( value.array->data + h1->n_stored, h2->data,
 670              		.loc 1 505 0
 671 0030 EA88     		ldrh	r2, [r5, #6]
 504:c_array.c     **** 	  sizeof(mrbc_value) * h1->n_stored );
 672              		.loc 1 504 0
 673 0032 1201     		lsls	r2, r2, #4
 674 0034 A968     		ldr	r1, [r5, #8]
 675 0036 A068     		ldr	r0, [r4, #8]
 676 0038 FFF7FEFF 		bl	memcpy
 677              	.LVL93:
 506:c_array.c     **** 	  sizeof(mrbc_value) * h2->n_stored );
 678              		.loc 1 506 0
 679 003c A368     		ldr	r3, [r4, #8]
 680 003e E888     		ldrh	r0, [r5, #6]
 507:c_array.c     ****   value.array->n_stored = h1->n_stored + h2->n_stored;
 681              		.loc 1 507 0
 682 0040 FA88     		ldrh	r2, [r7, #6]
 506:c_array.c     **** 	  sizeof(mrbc_value) * h2->n_stored );
 683              		.loc 1 506 0
 684 0042 1201     		lsls	r2, r2, #4
 685 0044 B968     		ldr	r1, [r7, #8]
 686 0046 03EB0010 		add	r0, r3, r0, lsl #4
 687 004a FFF7FEFF 		bl	memcpy
 688              	.LVL94:
 508:c_array.c     **** 
 689              		.loc 1 508 0
 690 004e ED88     		ldrh	r5, [r5, #6]
 691              	.LVL95:
 692 0050 FB88     		ldrh	r3, [r7, #6]
 693 0052 1D44     		add	r5, r5, r3
 694 0054 ADB2     		uxth	r5, r5
 695 0056 E580     		strh	r5, [r4, #6]	@ movhi
 510:c_array.c     ****   const mrbc_value *p2 = p1 + value.array->n_stored;
 696              		.loc 1 510 0
 697 0058 A068     		ldr	r0, [r4, #8]
 698              	.LVL96:
 511:c_array.c     ****   while( p1 < p2 ) {
 699              		.loc 1 511 0
 700 005a 00EB0515 		add	r5, r0, r5, lsl #4
 701              	.LVL97:
 512:c_array.c     ****     mrbc_dup(p1++);
 702              		.loc 1 512 0
 703 005e 04E0     		b	.L44
 704              	.L45:
 513:c_array.c     ****   }
 705              		.loc 1 513 0
 706 0060 00F11004 		add	r4, r0, #16
 707              	.LVL98:
 708 0064 FFF7FEFF 		bl	mrbc_dup
 709              	.LVL99:
 710 0068 2046     		mov	r0, r4
 711              	.LVL100:
 712              	.L44:
 512:c_array.c     ****     mrbc_dup(p1++);
 713              		.loc 1 512 0
ARM GAS  C:\Users\164\AppData\Local\Temp\ccuYWdBJ.s 			page 33


 714 006a A842     		cmp	r0, r5
 715 006c F8D3     		bcc	.L45
 516:c_array.c     ****   SET_RETURN(value);
 716              		.loc 1 516 0
 717 006e 06F11000 		add	r0, r6, #16
 718              	.LVL101:
 719 0072 FFF7FEFF 		bl	mrbc_release
 720              	.LVL102:
 721              	.LBB50:
 517:c_array.c     **** }
 722              		.loc 1 517 0
 723 0076 08AB     		add	r3, sp, #32
 724 0078 13E90F00 		ldmdb	r3, {r0, r1, r2, r3}
 725 007c 8DE80F00 		stmia	sp, {r0, r1, r2, r3}
 726 0080 3046     		mov	r0, r6
 727 0082 FFF7FEFF 		bl	mrbc_dec_ref_counter
 728              	.LVL103:
 729 0086 9DE80F00 		ldmia	sp, {r0, r1, r2, r3}
 730 008a 86E80F00 		stmia	r6, {r0, r1, r2, r3}
 731              	.LVL104:
 732              	.L41:
 733              	.LBE50:
 518:c_array.c     **** 
 734              		.loc 1 518 0
 735 008e 09B0     		add	sp, sp, #36
 736              		.cfi_def_cfa_offset 20
 737              		@ sp needed
 738 0090 F0BD     		pop	{r4, r5, r6, r7, pc}
 739              	.L49:
 740 0092 00BF     		.align	2
 741              	.L48:
 742 0094 0C000000 		.word	.LC2
 743              		.cfi_endproc
 744              	.LFE101:
 745              		.size	c_array_add, .-c_array_add
 746              		.section	.text.mrbc_array_delete,"ax",%progbits
 747              		.align	2
 748              		.global	mrbc_array_delete
 749              		.thumb
 750              		.thumb_func
 751              		.type	mrbc_array_delete, %function
 752              	mrbc_array_delete:
 753              	.LFB86:
  99:c_array.c     ****   mrbc_array *h = ary->array;
 754              		.loc 1 99 0
 755              		.cfi_startproc
 756              		@ args = 0, pretend = 0, frame = 0
 757              		@ frame_needed = 0, uses_anonymous_args = 0
 758              	.LVL105:
 759 0000 70B5     		push	{r4, r5, r6, lr}
 760              		.cfi_def_cfa_offset 16
 761              		.cfi_offset 4, -16
 762              		.cfi_offset 5, -12
 763              		.cfi_offset 6, -8
 764              		.cfi_offset 14, -4
 100:c_array.c     **** 
 765              		.loc 1 100 0
ARM GAS  C:\Users\164\AppData\Local\Temp\ccuYWdBJ.s 			page 34


 766 0002 8668     		ldr	r6, [r0, #8]
 767              	.LVL106:
 102:c_array.c     ****   const mrbc_value *p2 = p1 + h->n_stored;
 768              		.loc 1 102 0
 769 0004 B068     		ldr	r0, [r6, #8]
 770              	.LVL107:
 103:c_array.c     ****   while( p1 < p2 ) {
 771              		.loc 1 103 0
 772 0006 F588     		ldrh	r5, [r6, #6]
 773 0008 00EB0515 		add	r5, r0, r5, lsl #4
 774              	.LVL108:
 104:c_array.c     ****     mrbc_dec_ref_counter(p1++);
 775              		.loc 1 104 0
 776 000c 04E0     		b	.L51
 777              	.L52:
 105:c_array.c     ****   }
 778              		.loc 1 105 0
 779 000e 00F11004 		add	r4, r0, #16
 780              	.LVL109:
 781 0012 FFF7FEFF 		bl	mrbc_dec_ref_counter
 782              	.LVL110:
 783 0016 2046     		mov	r0, r4
 784              	.LVL111:
 785              	.L51:
 104:c_array.c     ****     mrbc_dec_ref_counter(p1++);
 786              		.loc 1 104 0
 787 0018 A842     		cmp	r0, r5
 788 001a F8D3     		bcc	.L52
 108:c_array.c     ****   mrbc_raw_free(h);
 789              		.loc 1 108 0
 790 001c B068     		ldr	r0, [r6, #8]
 791              	.LVL112:
 792 001e FFF7FEFF 		bl	mrbc_raw_free
 793              	.LVL113:
 109:c_array.c     **** }
 794              		.loc 1 109 0
 795 0022 3046     		mov	r0, r6
 796 0024 FFF7FEFF 		bl	mrbc_raw_free
 797              	.LVL114:
 798 0028 70BD     		pop	{r4, r5, r6, pc}
 799              		.cfi_endproc
 800              	.LFE86:
 801              		.size	mrbc_array_delete, .-mrbc_array_delete
 802 002a 00BF     		.section	.text.mrbc_array_clear_vm_id,"ax",%progbits
 803              		.align	2
 804              		.global	mrbc_array_clear_vm_id
 805              		.thumb
 806              		.thumb_func
 807              		.type	mrbc_array_clear_vm_id, %function
 808              	mrbc_array_clear_vm_id:
 809              	.LFB87:
 119:c_array.c     ****   mrbc_array *h = ary->array;
 810              		.loc 1 119 0
 811              		.cfi_startproc
 812              		@ args = 0, pretend = 0, frame = 0
 813              		@ frame_needed = 0, uses_anonymous_args = 0
 814              	.LVL115:
ARM GAS  C:\Users\164\AppData\Local\Temp\ccuYWdBJ.s 			page 35


 815 0000 38B5     		push	{r3, r4, r5, lr}
 816              		.cfi_def_cfa_offset 16
 817              		.cfi_offset 3, -16
 818              		.cfi_offset 4, -12
 819              		.cfi_offset 5, -8
 820              		.cfi_offset 14, -4
 120:c_array.c     **** 
 821              		.loc 1 120 0
 822 0002 8468     		ldr	r4, [r0, #8]
 823              	.LVL116:
 122:c_array.c     **** 
 824              		.loc 1 122 0
 825 0004 0021     		movs	r1, #0
 826 0006 2046     		mov	r0, r4
 827              	.LVL117:
 828 0008 FFF7FEFF 		bl	mrbc_set_vm_id
 829              	.LVL118:
 124:c_array.c     ****   const mrbc_value *p2 = p1 + h->n_stored;
 830              		.loc 1 124 0
 831 000c A068     		ldr	r0, [r4, #8]
 832              	.LVL119:
 125:c_array.c     ****   while( p1 < p2 ) {
 833              		.loc 1 125 0
 834 000e E588     		ldrh	r5, [r4, #6]
 835 0010 00EB0515 		add	r5, r0, r5, lsl #4
 836              	.LVL120:
 126:c_array.c     ****     mrbc_clear_vm_id(p1++);
 837              		.loc 1 126 0
 838 0014 04E0     		b	.L55
 839              	.LVL121:
 840              	.L56:
 127:c_array.c     ****   }
 841              		.loc 1 127 0
 842 0016 00F11004 		add	r4, r0, #16
 843              	.LVL122:
 844 001a FFF7FEFF 		bl	mrbc_clear_vm_id
 845              	.LVL123:
 846 001e 2046     		mov	r0, r4
 847              	.LVL124:
 848              	.L55:
 126:c_array.c     ****     mrbc_clear_vm_id(p1++);
 849              		.loc 1 126 0
 850 0020 A842     		cmp	r0, r5
 851 0022 F8D3     		bcc	.L56
 129:c_array.c     **** 
 852              		.loc 1 129 0
 853 0024 38BD     		pop	{r3, r4, r5, pc}
 854              		.cfi_endproc
 855              	.LFE87:
 856              		.size	mrbc_array_clear_vm_id, .-mrbc_array_clear_vm_id
 857 0026 00BF     		.section	.text.mrbc_array_resize,"ax",%progbits
 858              		.align	2
 859              		.global	mrbc_array_resize
 860              		.thumb
 861              		.thumb_func
 862              		.type	mrbc_array_resize, %function
 863              	mrbc_array_resize:
ARM GAS  C:\Users\164\AppData\Local\Temp\ccuYWdBJ.s 			page 36


 864              	.LFB88:
 140:c_array.c     ****   mrbc_array *h = ary->array;
 865              		.loc 1 140 0
 866              		.cfi_startproc
 867              		@ args = 0, pretend = 0, frame = 0
 868              		@ frame_needed = 0, uses_anonymous_args = 0
 869              	.LVL125:
 870 0000 38B5     		push	{r3, r4, r5, lr}
 871              		.cfi_def_cfa_offset 16
 872              		.cfi_offset 3, -16
 873              		.cfi_offset 4, -12
 874              		.cfi_offset 5, -8
 875              		.cfi_offset 14, -4
 876 0002 0D46     		mov	r5, r1
 141:c_array.c     **** 
 877              		.loc 1 141 0
 878 0004 8468     		ldr	r4, [r0, #8]
 879              	.LVL126:
 143:c_array.c     ****   if( !data2 ) return E_NOMEMORY_ERROR;	// ENOMEM
 880              		.loc 1 143 0
 881 0006 0901     		lsls	r1, r1, #4
 882              	.LVL127:
 883 0008 A068     		ldr	r0, [r4, #8]
 884              	.LVL128:
 885 000a FFF7FEFF 		bl	mrbc_raw_realloc
 886              	.LVL129:
 144:c_array.c     **** 
 887              		.loc 1 144 0
 888 000e 18B1     		cbz	r0, .L60
 146:c_array.c     ****   h->data_size = size;
 889              		.loc 1 146 0
 890 0010 A060     		str	r0, [r4, #8]
 147:c_array.c     **** 
 891              		.loc 1 147 0
 892 0012 A580     		strh	r5, [r4, #4]	@ movhi
 149:c_array.c     **** }
 893              		.loc 1 149 0
 894 0014 0020     		movs	r0, #0
 895              	.LVL130:
 896 0016 38BD     		pop	{r3, r4, r5, pc}
 897              	.LVL131:
 898              	.L60:
 144:c_array.c     **** 
 899              		.loc 1 144 0
 900 0018 0120     		movs	r0, #1
 901              	.LVL132:
 150:c_array.c     **** 
 902              		.loc 1 150 0
 903 001a 38BD     		pop	{r3, r4, r5, pc}
 904              		.cfi_endproc
 905              	.LFE88:
 906              		.size	mrbc_array_resize, .-mrbc_array_resize
 907              		.section	.text.mrbc_array_set,"ax",%progbits
 908              		.align	2
 909              		.global	mrbc_array_set
 910              		.thumb
 911              		.thumb_func
ARM GAS  C:\Users\164\AppData\Local\Temp\ccuYWdBJ.s 			page 37


 912              		.type	mrbc_array_set, %function
 913              	mrbc_array_set:
 914              	.LFB89:
 162:c_array.c     ****   mrbc_array *h = ary->array;
 915              		.loc 1 162 0
 916              		.cfi_startproc
 917              		@ args = 0, pretend = 0, frame = 0
 918              		@ frame_needed = 0, uses_anonymous_args = 0
 919              	.LVL133:
 920 0000 F8B5     		push	{r3, r4, r5, r6, r7, lr}
 921              		.cfi_def_cfa_offset 24
 922              		.cfi_offset 3, -24
 923              		.cfi_offset 4, -20
 924              		.cfi_offset 5, -16
 925              		.cfi_offset 6, -12
 926              		.cfi_offset 7, -8
 927              		.cfi_offset 14, -4
 928 0002 1746     		mov	r7, r2
 163:c_array.c     **** 
 929              		.loc 1 163 0
 930 0004 8668     		ldr	r6, [r0, #8]
 931              	.LVL134:
 165:c_array.c     ****     idx = h->n_stored + idx;
 932              		.loc 1 165 0
 933 0006 0D1E     		subs	r5, r1, #0
 934 0008 02DA     		bge	.L63
 166:c_array.c     ****     if( idx < 0 ) return E_INDEX_ERROR;		// raise?
 935              		.loc 1 166 0
 936 000a F388     		ldrh	r3, [r6, #6]
 937              	.LVL135:
 167:c_array.c     ****   }
 938              		.loc 1 167 0
 939 000c ED18     		adds	r5, r5, r3
 940              	.LVL136:
 941 000e 27D4     		bmi	.L69
 942              	.L63:
 171:c_array.c     ****     return E_NOMEMORY_ERROR;			// ENOMEM
 943              		.loc 1 171 0
 944 0010 B388     		ldrh	r3, [r6, #4]
 945 0012 9D42     		cmp	r5, r3
 946 0014 03DB     		blt	.L65
 171:c_array.c     ****     return E_NOMEMORY_ERROR;			// ENOMEM
 947              		.loc 1 171 0 is_stmt 0 discriminator 1
 948 0016 691C     		adds	r1, r5, #1
 949 0018 FFF7FEFF 		bl	mrbc_array_resize
 950              	.LVL137:
 951 001c 10BB     		cbnz	r0, .L70
 952              	.L65:
 175:c_array.c     ****     // release existing data.
 953              		.loc 1 175 0 is_stmt 1
 954 001e F288     		ldrh	r2, [r6, #6]
 955 0020 9542     		cmp	r5, r2
 956 0022 10DA     		bge	.L66
 177:c_array.c     ****   } else {
 957              		.loc 1 177 0
 958 0024 B068     		ldr	r0, [r6, #8]
 959 0026 00EB0510 		add	r0, r0, r5, lsl #4
ARM GAS  C:\Users\164\AppData\Local\Temp\ccuYWdBJ.s 			page 38


 960 002a FFF7FEFF 		bl	mrbc_dec_ref_counter
 961              	.LVL138:
 962 002e 0EE0     		b	.L67
 963              	.LVL139:
 964              	.L68:
 965              	.LBB51:
 182:c_array.c     ****     }
 966              		.loc 1 182 0 discriminator 3
 967 0030 B068     		ldr	r0, [r6, #8]
 968 0032 1101     		lsls	r1, r2, #4
 969 0034 4418     		adds	r4, r0, r1
 970 0036 0023     		movs	r3, #0
 971 0038 4350     		str	r3, [r0, r1]
 972 003a 6360     		str	r3, [r4, #4]
 973 003c A360     		str	r3, [r4, #8]
 974 003e E360     		str	r3, [r4, #12]
 975 0040 0123     		movs	r3, #1
 976 0042 4354     		strb	r3, [r0, r1]
 181:c_array.c     ****       h->data[i] = mrbc_nil_value();
 977              		.loc 1 181 0 discriminator 3
 978 0044 1A44     		add	r2, r2, r3
 979              	.LVL140:
 980              	.L66:
 181:c_array.c     ****       h->data[i] = mrbc_nil_value();
 981              		.loc 1 181 0 is_stmt 0 discriminator 1
 982 0046 9542     		cmp	r5, r2
 983 0048 F2DC     		bgt	.L68
 184:c_array.c     ****   }
 984              		.loc 1 184 0 is_stmt 1
 985 004a 6B1C     		adds	r3, r5, #1
 986 004c F380     		strh	r3, [r6, #6]	@ movhi
 987              	.LVL141:
 988              	.L67:
 989              	.LBE51:
 187:c_array.c     **** 
 990              		.loc 1 187 0
 991 004e B368     		ldr	r3, [r6, #8]
 992 0050 03EB0515 		add	r5, r3, r5, lsl #4
 993              	.LVL142:
 994 0054 97E80F00 		ldmia	r7, {r0, r1, r2, r3}
 995 0058 85E80F00 		stmia	r5, {r0, r1, r2, r3}
 189:c_array.c     **** }
 996              		.loc 1 189 0
 997 005c 0020     		movs	r0, #0
 998 005e F8BD     		pop	{r3, r4, r5, r6, r7, pc}
 999              	.LVL143:
 1000              	.L69:
 167:c_array.c     ****   }
 1001              		.loc 1 167 0
 1002 0060 0520     		movs	r0, #5
 1003              	.LVL144:
 1004 0062 F8BD     		pop	{r3, r4, r5, r6, r7, pc}
 1005              	.LVL145:
 1006              	.L70:
 172:c_array.c     ****   }
 1007              		.loc 1 172 0
 1008 0064 0120     		movs	r0, #1
ARM GAS  C:\Users\164\AppData\Local\Temp\ccuYWdBJ.s 			page 39


 190:c_array.c     **** 
 1009              		.loc 1 190 0
 1010 0066 F8BD     		pop	{r3, r4, r5, r6, r7, pc}
 1011              		.cfi_endproc
 1012              	.LFE89:
 1013              		.size	mrbc_array_set, .-mrbc_array_set
 1014              		.section	.text.c_array_set,"ax",%progbits
 1015              		.align	2
 1016              		.thumb
 1017              		.thumb_func
 1018              		.type	c_array_set, %function
 1019              	c_array_set:
 1020              	.LFB103:
 578:c_array.c     ****   /*
 1021              		.loc 1 578 0
 1022              		.cfi_startproc
 1023              		@ args = 0, pretend = 0, frame = 0
 1024              		@ frame_needed = 0, uses_anonymous_args = 0
 1025              	.LVL146:
 1026 0000 10B5     		push	{r4, lr}
 1027              		.cfi_def_cfa_offset 8
 1028              		.cfi_offset 4, -8
 1029              		.cfi_offset 14, -4
 582:c_array.c     ****     mrbc_array_set(v, v[1].i, &v[2]);	// raise? IndexError or ENOMEM
 1030              		.loc 1 582 0
 1031 0002 022A     		cmp	r2, #2
 1032 0004 0ED1     		bne	.L73
 1033 0006 0C46     		mov	r4, r1
 582:c_array.c     ****     mrbc_array_set(v, v[1].i, &v[2]);	// raise? IndexError or ENOMEM
 1034              		.loc 1 582 0 is_stmt 0 discriminator 1
 1035 0008 91F91030 		ldrsb	r3, [r1, #16]
 1036 000c 042B     		cmp	r3, #4
 1037 000e 09D1     		bne	.L73
 583:c_array.c     ****     v[2].tt = MRBC_TT_EMPTY;
 1038              		.loc 1 583 0 is_stmt 1
 1039 0010 01F12002 		add	r2, r1, #32
 1040              	.LVL147:
 1041 0014 8969     		ldr	r1, [r1, #24]
 1042              	.LVL148:
 1043 0016 2046     		mov	r0, r4
 1044              	.LVL149:
 1045 0018 FFF7FEFF 		bl	mrbc_array_set
 1046              	.LVL150:
 584:c_array.c     ****     return;
 1047              		.loc 1 584 0
 1048 001c 0023     		movs	r3, #0
 1049 001e 84F82030 		strb	r3, [r4, #32]
 585:c_array.c     ****   }
 1050              		.loc 1 585 0
 1051 0022 10BD     		pop	{r4, pc}
 1052              	.LVL151:
 1053              	.L73:
 1054              	.LBB54:
 1055              	.LBB55:
 1056              		.loc 3 75 0
 1057 0024 2322     		movs	r2, #35
 1058              	.LVL152:
ARM GAS  C:\Users\164\AppData\Local\Temp\ccuYWdBJ.s 			page 40


 1059 0026 0249     		ldr	r1, .L76
 1060              	.LVL153:
 1061 0028 0120     		movs	r0, #1
 1062              	.LVL154:
 1063 002a FFF7FEFF 		bl	hal_write
 1064              	.LVL155:
 1065 002e 10BD     		pop	{r4, pc}
 1066              	.L77:
 1067              		.align	2
 1068              	.L76:
 1069 0030 18000000 		.word	.LC3
 1070              	.LBE55:
 1071              	.LBE54:
 1072              		.cfi_endproc
 1073              	.LFE103:
 1074              		.size	c_array_set, .-c_array_set
 1075              		.section	.text.c_array_new,"ax",%progbits
 1076              		.align	2
 1077              		.thumb
 1078              		.thumb_func
 1079              		.type	c_array_new, %function
 1080              	c_array_new:
 1081              	.LFB100:
 438:c_array.c     ****   /*
 1082              		.loc 1 438 0
 1083              		.cfi_startproc
 1084              		@ args = 0, pretend = 0, frame = 48
 1085              		@ frame_needed = 0, uses_anonymous_args = 0
 1086              	.LVL156:
 1087 0000 70B5     		push	{r4, r5, r6, lr}
 1088              		.cfi_def_cfa_offset 16
 1089              		.cfi_offset 4, -16
 1090              		.cfi_offset 5, -12
 1091              		.cfi_offset 6, -8
 1092              		.cfi_offset 14, -4
 1093 0002 8CB0     		sub	sp, sp, #48
 1094              		.cfi_def_cfa_offset 64
 1095 0004 0C46     		mov	r4, r1
 442:c_array.c     ****     mrbc_value ret = mrbc_array_new(vm, 0);
 1096              		.loc 1 442 0
 1097 0006 9AB9     		cbnz	r2, .L79
 1098              	.LBB64:
 443:c_array.c     ****     if( ret.array == NULL ) return;		// ENOMEM
 1099              		.loc 1 443 0
 1100 0008 0146     		mov	r1, r0
 1101              	.LVL157:
 1102 000a 04A8     		add	r0, sp, #16
 1103              	.LVL158:
 1104 000c FFF7FEFF 		bl	mrbc_array_new
 1105              	.LVL159:
 444:c_array.c     **** 
 1106              		.loc 1 444 0
 1107 0010 069B     		ldr	r3, [sp, #24]
 1108 0012 002B     		cmp	r3, #0
 1109 0014 6BD0     		beq	.L78
 1110              	.LBB65:
 446:c_array.c     ****     return;
ARM GAS  C:\Users\164\AppData\Local\Temp\ccuYWdBJ.s 			page 41


 1111              		.loc 1 446 0 discriminator 2
 1112 0016 08AD     		add	r5, sp, #32
 1113 0018 04AB     		add	r3, sp, #16
 1114 001a 0FCB     		ldmia	r3, {r0, r1, r2, r3}
 1115 001c 85E80F00 		stmia	r5, {r0, r1, r2, r3}
 1116 0020 2046     		mov	r0, r4
 1117 0022 FFF7FEFF 		bl	mrbc_dec_ref_counter
 1118              	.LVL160:
 1119 0026 95E80F00 		ldmia	r5, {r0, r1, r2, r3}
 1120 002a 84E80F00 		stmia	r4, {r0, r1, r2, r3}
 1121              	.LBE65:
 447:c_array.c     ****   }
 1122              		.loc 1 447 0 discriminator 2
 1123 002e 5EE0     		b	.L78
 1124              	.LVL161:
 1125              	.L79:
 1126 0030 1346     		mov	r3, r2
 1127              	.LBE64:
 453:c_array.c     ****     mrbc_value ret = mrbc_array_new(vm, v[1].i);
 1128              		.loc 1 453 0
 1129 0032 012A     		cmp	r2, #1
 1130 0034 2AD1     		bne	.L82
 453:c_array.c     ****     mrbc_value ret = mrbc_array_new(vm, v[1].i);
 1131              		.loc 1 453 0 is_stmt 0 discriminator 1
 1132 0036 91F91020 		ldrsb	r2, [r1, #16]
 1133              	.LVL162:
 1134 003a 042A     		cmp	r2, #4
 1135 003c 26D1     		bne	.L82
 453:c_array.c     ****     mrbc_value ret = mrbc_array_new(vm, v[1].i);
 1136              		.loc 1 453 0 discriminator 2
 1137 003e 8A69     		ldr	r2, [r1, #24]
 1138 0040 002A     		cmp	r2, #0
 1139 0042 23DB     		blt	.L82
 1140              	.LBB66:
 454:c_array.c     ****     if( ret.array == NULL ) return;		// ENOMEM
 1141              		.loc 1 454 0 is_stmt 1
 1142 0044 0146     		mov	r1, r0
 1143              	.LVL163:
 1144 0046 6846     		mov	r0, sp
 1145              	.LVL164:
 1146 0048 FFF7FEFF 		bl	mrbc_array_new
 1147              	.LVL165:
 455:c_array.c     **** 
 1148              		.loc 1 455 0
 1149 004c 029B     		ldr	r3, [sp, #8]
 1150 004e 002B     		cmp	r3, #0
 1151 0050 4DD0     		beq	.L78
 457:c_array.c     ****     if( v[1].i > 0 ) {
 1152              		.loc 1 457 0
 1153 0052 0023     		movs	r3, #0
 1154 0054 0493     		str	r3, [sp, #16]
 1155 0056 0593     		str	r3, [sp, #20]
 1156 0058 0693     		str	r3, [sp, #24]
 1157 005a 0793     		str	r3, [sp, #28]
 1158 005c 0123     		movs	r3, #1
 1159 005e 8DF81030 		strb	r3, [sp, #16]
 458:c_array.c     ****       mrbc_array_set(&ret, v[1].i - 1, &nil);
ARM GAS  C:\Users\164\AppData\Local\Temp\ccuYWdBJ.s 			page 42


 1160              		.loc 1 458 0
 1161 0062 A169     		ldr	r1, [r4, #24]
 1162 0064 0029     		cmp	r1, #0
 1163 0066 04DD     		ble	.L84
 459:c_array.c     ****     }
 1164              		.loc 1 459 0
 1165 0068 04AA     		add	r2, sp, #16
 1166 006a 0139     		subs	r1, r1, #1
 1167 006c 6846     		mov	r0, sp
 1168 006e FFF7FEFF 		bl	mrbc_array_set
 1169              	.LVL166:
 1170              	.L84:
 1171              	.LBB67:
 461:c_array.c     ****     return;
 1172              		.loc 1 461 0 discriminator 5
 1173 0072 08AD     		add	r5, sp, #32
 1174 0074 9DE80F00 		ldmia	sp, {r0, r1, r2, r3}
 1175 0078 85E80F00 		stmia	r5, {r0, r1, r2, r3}
 1176 007c 2046     		mov	r0, r4
 1177 007e FFF7FEFF 		bl	mrbc_dec_ref_counter
 1178              	.LVL167:
 1179 0082 95E80F00 		ldmia	r5, {r0, r1, r2, r3}
 1180 0086 84E80F00 		stmia	r4, {r0, r1, r2, r3}
 1181              	.LBE67:
 462:c_array.c     ****   }
 1182              		.loc 1 462 0 discriminator 5
 1183 008a 30E0     		b	.L78
 1184              	.LVL168:
 1185              	.L82:
 1186              	.LBE66:
 468:c_array.c     ****     mrbc_value ret = mrbc_array_new(vm, v[1].i);
 1187              		.loc 1 468 0
 1188 008c 022B     		cmp	r3, #2
 1189 008e 29D1     		bne	.L85
 468:c_array.c     ****     mrbc_value ret = mrbc_array_new(vm, v[1].i);
 1190              		.loc 1 468 0 is_stmt 0 discriminator 1
 1191 0090 94F91030 		ldrsb	r3, [r4, #16]
 1192              	.LVL169:
 1193 0094 042B     		cmp	r3, #4
 1194 0096 25D1     		bne	.L85
 468:c_array.c     ****     mrbc_value ret = mrbc_array_new(vm, v[1].i);
 1195              		.loc 1 468 0 discriminator 2
 1196 0098 A269     		ldr	r2, [r4, #24]
 1197 009a 002A     		cmp	r2, #0
 1198 009c 22DB     		blt	.L85
 1199              	.LBB68:
 469:c_array.c     ****     if( ret.array == NULL ) return;		// ENOMEM
 1200              		.loc 1 469 0 is_stmt 1
 1201 009e 0146     		mov	r1, r0
 1202              	.LVL170:
 1203 00a0 04A8     		add	r0, sp, #16
 1204              	.LVL171:
 1205 00a2 FFF7FEFF 		bl	mrbc_array_new
 1206              	.LVL172:
 470:c_array.c     **** 
 1207              		.loc 1 470 0
 1208 00a6 069B     		ldr	r3, [sp, #24]
ARM GAS  C:\Users\164\AppData\Local\Temp\ccuYWdBJ.s 			page 43


 1209 00a8 0BB3     		cbz	r3, .L78
 1210 00aa 0025     		movs	r5, #0
 1211 00ac 0AE0     		b	.L87
 1212              	.LVL173:
 1213              	.L88:
 474:c_array.c     ****       mrbc_array_set(&ret, i, &v[2]);
 1214              		.loc 1 474 0 discriminator 3
 1215 00ae 04F12006 		add	r6, r4, #32
 1216 00b2 3046     		mov	r0, r6
 1217 00b4 FFF7FEFF 		bl	mrbc_dup
 1218              	.LVL174:
 475:c_array.c     ****     }
 1219              		.loc 1 475 0 discriminator 3
 1220 00b8 3246     		mov	r2, r6
 1221 00ba 2946     		mov	r1, r5
 1222 00bc 04A8     		add	r0, sp, #16
 1223 00be FFF7FEFF 		bl	mrbc_array_set
 1224              	.LVL175:
 473:c_array.c     ****       mrbc_dup(&v[2]);
 1225              		.loc 1 473 0 discriminator 3
 1226 00c2 0135     		adds	r5, r5, #1
 1227              	.LVL176:
 1228              	.L87:
 473:c_array.c     ****       mrbc_dup(&v[2]);
 1229              		.loc 1 473 0 is_stmt 0 discriminator 1
 1230 00c4 A369     		ldr	r3, [r4, #24]
 1231 00c6 9D42     		cmp	r5, r3
 1232 00c8 F1DB     		blt	.L88
 1233              	.LBB69:
 477:c_array.c     ****     return;
 1234              		.loc 1 477 0 is_stmt 1 discriminator 8
 1235 00ca 08AD     		add	r5, sp, #32
 1236              	.LVL177:
 1237 00cc 04AB     		add	r3, sp, #16
 1238 00ce 0FCB     		ldmia	r3, {r0, r1, r2, r3}
 1239 00d0 85E80F00 		stmia	r5, {r0, r1, r2, r3}
 1240 00d4 2046     		mov	r0, r4
 1241 00d6 FFF7FEFF 		bl	mrbc_dec_ref_counter
 1242              	.LVL178:
 1243 00da 95E80F00 		ldmia	r5, {r0, r1, r2, r3}
 1244 00de 84E80F00 		stmia	r4, {r0, r1, r2, r3}
 1245              	.LBE69:
 478:c_array.c     ****   }
 1246              		.loc 1 478 0 discriminator 8
 1247 00e2 04E0     		b	.L78
 1248              	.LVL179:
 1249              	.L85:
 1250              	.LBE68:
 1251              	.LBB70:
 1252              	.LBB71:
 1253              		.loc 3 75 0
 1254 00e4 0E22     		movs	r2, #14
 1255 00e6 0349     		ldr	r1, .L90
 1256              	.LVL180:
 1257 00e8 0120     		movs	r0, #1
 1258              	.LVL181:
 1259 00ea FFF7FEFF 		bl	hal_write
ARM GAS  C:\Users\164\AppData\Local\Temp\ccuYWdBJ.s 			page 44


 1260              	.LVL182:
 1261              	.L78:
 1262              	.LBE71:
 1263              	.LBE70:
 485:c_array.c     **** 
 1264              		.loc 1 485 0
 1265 00ee 0CB0     		add	sp, sp, #48
 1266              		.cfi_def_cfa_offset 16
 1267              		@ sp needed
 1268 00f0 70BD     		pop	{r4, r5, r6, pc}
 1269              	.LVL183:
 1270              	.L91:
 1271 00f2 00BF     		.align	2
 1272              	.L90:
 1273 00f4 3C000000 		.word	.LC4
 1274              		.cfi_endproc
 1275              	.LFE100:
 1276              		.size	c_array_new, .-c_array_new
 1277              		.section	.text.mrbc_array_get,"ax",%progbits
 1278              		.align	2
 1279              		.global	mrbc_array_get
 1280              		.thumb
 1281              		.thumb_func
 1282              		.type	mrbc_array_get, %function
 1283              	mrbc_array_get:
 1284              	.LFB90:
 201:c_array.c     ****   mrbc_array *h = ary->array;
 1285              		.loc 1 201 0
 1286              		.cfi_startproc
 1287              		@ args = 0, pretend = 0, frame = 0
 1288              		@ frame_needed = 0, uses_anonymous_args = 0
 1289              		@ link register save eliminated.
 1290              	.LVL184:
 1291 0000 10B4     		push	{r4}
 1292              		.cfi_def_cfa_offset 4
 1293              		.cfi_offset 4, -4
 1294 0002 0446     		mov	r4, r0
 202:c_array.c     **** 
 1295              		.loc 1 202 0
 1296 0004 8B68     		ldr	r3, [r1, #8]
 1297              	.LVL185:
 204:c_array.c     ****   if( idx < 0 || idx >= h->n_stored ) return mrbc_nil_value();
 1298              		.loc 1 204 0
 1299 0006 002A     		cmp	r2, #0
 1300 0008 01DA     		bge	.L93
 204:c_array.c     ****   if( idx < 0 || idx >= h->n_stored ) return mrbc_nil_value();
 1301              		.loc 1 204 0 is_stmt 0 discriminator 1
 1302 000a D988     		ldrh	r1, [r3, #6]
 1303              	.LVL186:
 1304 000c 0A44     		add	r2, r2, r1
 1305              	.LVL187:
 1306              	.L93:
 205:c_array.c     **** 
 1307              		.loc 1 205 0 is_stmt 1
 1308 000e 002A     		cmp	r2, #0
 1309 0010 02DB     		blt	.L94
 205:c_array.c     **** 
ARM GAS  C:\Users\164\AppData\Local\Temp\ccuYWdBJ.s 			page 45


 1310              		.loc 1 205 0 is_stmt 0 discriminator 2
 1311 0012 D988     		ldrh	r1, [r3, #6]
 1312 0014 8A42     		cmp	r2, r1
 1313 0016 07DB     		blt	.L95
 1314              	.L94:
 205:c_array.c     **** 
 1315              		.loc 1 205 0 discriminator 3
 1316 0018 0023     		movs	r3, #0
 1317              	.LVL188:
 1318 001a 2360     		str	r3, [r4]
 1319 001c 6360     		str	r3, [r4, #4]
 1320 001e A360     		str	r3, [r4, #8]
 1321 0020 E360     		str	r3, [r4, #12]
 1322 0022 0123     		movs	r3, #1
 1323 0024 2370     		strb	r3, [r4]
 1324 0026 05E0     		b	.L92
 1325              	.LVL189:
 1326              	.L95:
 207:c_array.c     **** }
 1327              		.loc 1 207 0 is_stmt 1
 1328 0028 9B68     		ldr	r3, [r3, #8]
 1329              	.LVL190:
 1330 002a 03EB0212 		add	r2, r3, r2, lsl #4
 1331              	.LVL191:
 1332 002e 0FCA     		ldmia	r2, {r0, r1, r2, r3}
 1333              	.LVL192:
 1334 0030 84E80F00 		stmia	r4, {r0, r1, r2, r3}
 1335              	.L92:
 208:c_array.c     **** 
 1336              		.loc 1 208 0
 1337 0034 2046     		mov	r0, r4
 1338 0036 10BC     		pop	{r4}
 1339              		.cfi_restore 4
 1340              		.cfi_def_cfa_offset 0
 1341              	.LVL193:
 1342 0038 7047     		bx	lr
 1343              		.cfi_endproc
 1344              	.LFE90:
 1345              		.size	mrbc_array_get, .-mrbc_array_get
 1346              		.section	.text.c_array_inspect,"ax",%progbits
 1347              		.align	2
 1348              		.thumb
 1349              		.thumb_func
 1350              		.type	c_array_inspect, %function
 1351              	c_array_inspect:
 1352              	.LFB119:
 860:c_array.c     ****   mrbc_value ret = mrbc_string_new_cstr(vm, "[");
 1353              		.loc 1 860 0
 1354              		.cfi_startproc
 1355              		@ args = 0, pretend = 0, frame = 48
 1356              		@ frame_needed = 0, uses_anonymous_args = 0
 1357              	.LVL194:
 1358 0000 2DE9F041 		push	{r4, r5, r6, r7, r8, lr}
 1359              		.cfi_def_cfa_offset 24
 1360              		.cfi_offset 4, -24
 1361              		.cfi_offset 5, -20
 1362              		.cfi_offset 6, -16
ARM GAS  C:\Users\164\AppData\Local\Temp\ccuYWdBJ.s 			page 46


 1363              		.cfi_offset 7, -12
 1364              		.cfi_offset 8, -8
 1365              		.cfi_offset 14, -4
 1366 0004 90B0     		sub	sp, sp, #64
 1367              		.cfi_def_cfa_offset 88
 1368 0006 0746     		mov	r7, r0
 1369 0008 0D46     		mov	r5, r1
 1370 000a 9046     		mov	r8, r2
 861:c_array.c     ****   if( !ret.string ) goto RETURN_NIL;		// ENOMEM
 1371              		.loc 1 861 0
 1372 000c 224A     		ldr	r2, .L105
 1373              	.LVL195:
 1374 000e 0146     		mov	r1, r0
 1375              	.LVL196:
 1376 0010 0CA8     		add	r0, sp, #48
 1377              	.LVL197:
 1378 0012 FFF7FEFF 		bl	mrbc_string_new_cstr
 1379              	.LVL198:
 862:c_array.c     **** 
 1380              		.loc 1 862 0
 1381 0016 0E9B     		ldr	r3, [sp, #56]
 1382 0018 002B     		cmp	r3, #0
 1383 001a 35D0     		beq	.L99
 1384 001c 0024     		movs	r4, #0
 1385 001e 1DE0     		b	.L100
 1386              	.LVL199:
 1387              	.L102:
 1388              	.LBB72:
 866:c_array.c     **** 
 1389              		.loc 1 866 0
 1390 0020 1CB1     		cbz	r4, .L101
 866:c_array.c     **** 
 1391              		.loc 1 866 0 is_stmt 0 discriminator 1
 1392 0022 1E49     		ldr	r1, .L105+4
 1393 0024 0CA8     		add	r0, sp, #48
 1394 0026 FFF7FEFF 		bl	mrbc_string_append_cstr
 1395              	.LVL200:
 1396              	.L101:
 868:c_array.c     ****     mrbc_value s1 = mrbc_send( vm, v, argc, &v1, "inspect", 0 );
 1397              		.loc 1 868 0 is_stmt 1 discriminator 2
 1398 002a 04AE     		add	r6, sp, #16
 1399 002c 2246     		mov	r2, r4
 1400 002e 2946     		mov	r1, r5
 1401 0030 3046     		mov	r0, r6
 1402 0032 FFF7FEFF 		bl	mrbc_array_get
 1403              	.LVL201:
 869:c_array.c     ****     mrbc_string_append( &ret, &s1 );
 1404              		.loc 1 869 0 discriminator 2
 1405 0036 0023     		movs	r3, #0
 1406 0038 0293     		str	r3, [sp, #8]
 1407 003a 194B     		ldr	r3, .L105+8
 1408 003c 0193     		str	r3, [sp, #4]
 1409 003e 0096     		str	r6, [sp]
 1410 0040 4346     		mov	r3, r8
 1411 0042 2A46     		mov	r2, r5
 1412 0044 3946     		mov	r1, r7
 1413 0046 08A8     		add	r0, sp, #32
ARM GAS  C:\Users\164\AppData\Local\Temp\ccuYWdBJ.s 			page 47


 1414 0048 FFF7FEFF 		bl	mrbc_send
 1415              	.LVL202:
 870:c_array.c     ****     mrbc_string_delete( &s1 );
 1416              		.loc 1 870 0 discriminator 2
 1417 004c 08A9     		add	r1, sp, #32
 1418 004e 0CA8     		add	r0, sp, #48
 1419 0050 FFF7FEFF 		bl	mrbc_string_append
 1420              	.LVL203:
 871:c_array.c     ****   }
 1421              		.loc 1 871 0 discriminator 2
 1422 0054 08A8     		add	r0, sp, #32
 1423 0056 FFF7FEFF 		bl	mrbc_string_delete
 1424              	.LVL204:
 1425              	.LBE72:
 865:c_array.c     ****     if( i != 0 ) mrbc_string_append_cstr( &ret, ", " );
 1426              		.loc 1 865 0 discriminator 2
 1427 005a 0134     		adds	r4, r4, #1
 1428              	.LVL205:
 1429              	.L100:
 1430              	.LBB73:
 1431              	.LBB74:
 1432              		.loc 2 60 0 discriminator 1
 1433 005c AB68     		ldr	r3, [r5, #8]
 1434 005e DB88     		ldrh	r3, [r3, #6]
 1435              	.LVL206:
 1436              	.LBE74:
 1437              	.LBE73:
 865:c_array.c     ****     if( i != 0 ) mrbc_string_append_cstr( &ret, ", " );
 1438              		.loc 1 865 0 discriminator 1
 1439 0060 9C42     		cmp	r4, r3
 1440 0062 DDDB     		blt	.L102
 874:c_array.c     **** 
 1441              		.loc 1 874 0
 1442 0064 0CAE     		add	r6, sp, #48
 1443 0066 0F49     		ldr	r1, .L105+12
 1444 0068 3046     		mov	r0, r6
 1445 006a FFF7FEFF 		bl	mrbc_string_append_cstr
 1446              	.LVL207:
 1447              	.LBB75:
 876:c_array.c     ****   return;
 1448              		.loc 1 876 0
 1449 006e 08AC     		add	r4, sp, #32
 1450              	.LVL208:
 1451 0070 96E80F00 		ldmia	r6, {r0, r1, r2, r3}
 1452 0074 84E80F00 		stmia	r4, {r0, r1, r2, r3}
 1453 0078 2846     		mov	r0, r5
 1454 007a FFF7FEFF 		bl	mrbc_dec_ref_counter
 1455              	.LVL209:
 1456 007e 94E80F00 		ldmia	r4, {r0, r1, r2, r3}
 1457 0082 85E80F00 		stmia	r5, {r0, r1, r2, r3}
 1458 0086 04E0     		b	.L98
 1459              	.L99:
 1460              	.LBE75:
 880:c_array.c     **** }
 1461              		.loc 1 880 0
 1462 0088 2846     		mov	r0, r5
 1463 008a FFF7FEFF 		bl	mrbc_dec_ref_counter
ARM GAS  C:\Users\164\AppData\Local\Temp\ccuYWdBJ.s 			page 48


 1464              	.LVL210:
 1465 008e 0123     		movs	r3, #1
 1466 0090 2B70     		strb	r3, [r5]
 1467              	.L98:
 881:c_array.c     **** 
 1468              		.loc 1 881 0
 1469 0092 10B0     		add	sp, sp, #64
 1470              		.cfi_def_cfa_offset 24
 1471              		@ sp needed
 1472 0094 BDE8F081 		pop	{r4, r5, r6, r7, r8, pc}
 1473              	.LVL211:
 1474              	.L106:
 1475              		.align	2
 1476              	.L105:
 1477 0098 4C000000 		.word	.LC5
 1478 009c 50000000 		.word	.LC6
 1479 00a0 54000000 		.word	.LC7
 1480 00a4 5C000000 		.word	.LC8
 1481              		.cfi_endproc
 1482              	.LFE119:
 1483              		.size	c_array_inspect, .-c_array_inspect
 1484              		.section	.text.c_array_last,"ax",%progbits
 1485              		.align	2
 1486              		.thumb
 1487              		.thumb_func
 1488              		.type	c_array_last, %function
 1489              	c_array_last:
 1490              	.LFB110:
 684:c_array.c     ****   mrbc_value val = mrbc_array_get(v, -1);
 1491              		.loc 1 684 0
 1492              		.cfi_startproc
 1493              		@ args = 0, pretend = 0, frame = 32
 1494              		@ frame_needed = 0, uses_anonymous_args = 0
 1495              	.LVL212:
 1496 0000 70B5     		push	{r4, r5, r6, lr}
 1497              		.cfi_def_cfa_offset 16
 1498              		.cfi_offset 4, -16
 1499              		.cfi_offset 5, -12
 1500              		.cfi_offset 6, -8
 1501              		.cfi_offset 14, -4
 1502 0002 88B0     		sub	sp, sp, #32
 1503              		.cfi_def_cfa_offset 48
 1504 0004 0E46     		mov	r6, r1
 685:c_array.c     ****   mrbc_dup(&val);
 1505              		.loc 1 685 0
 1506 0006 04AD     		add	r5, sp, #16
 1507 0008 4FF0FF32 		mov	r2, #-1
 1508              	.LVL213:
 1509 000c 2846     		mov	r0, r5
 1510              	.LVL214:
 1511 000e FFF7FEFF 		bl	mrbc_array_get
 1512              	.LVL215:
 686:c_array.c     ****   SET_RETURN(val);
 1513              		.loc 1 686 0
 1514 0012 2846     		mov	r0, r5
 1515 0014 FFF7FEFF 		bl	mrbc_dup
 1516              	.LVL216:
ARM GAS  C:\Users\164\AppData\Local\Temp\ccuYWdBJ.s 			page 49


 1517              	.LBB76:
 687:c_array.c     **** }
 1518              		.loc 1 687 0
 1519 0018 95E80F00 		ldmia	r5, {r0, r1, r2, r3}
 1520 001c 8DE80F00 		stmia	sp, {r0, r1, r2, r3}
 1521 0020 3046     		mov	r0, r6
 1522 0022 FFF7FEFF 		bl	mrbc_dec_ref_counter
 1523              	.LVL217:
 1524 0026 9DE80F00 		ldmia	sp, {r0, r1, r2, r3}
 1525 002a 86E80F00 		stmia	r6, {r0, r1, r2, r3}
 1526              	.LBE76:
 688:c_array.c     **** 
 1527              		.loc 1 688 0
 1528 002e 08B0     		add	sp, sp, #32
 1529              		.cfi_def_cfa_offset 16
 1530              		@ sp needed
 1531 0030 70BD     		pop	{r4, r5, r6, pc}
 1532              		.cfi_endproc
 1533              	.LFE110:
 1534              		.size	c_array_last, .-c_array_last
 1535              		.section	.text.c_array_first,"ax",%progbits
 1536              		.align	2
 1537              		.thumb
 1538              		.thumb_func
 1539              		.type	c_array_first, %function
 1540              	c_array_first:
 1541              	.LFB109:
 673:c_array.c     ****   mrbc_value val = mrbc_array_get(v, 0);
 1542              		.loc 1 673 0
 1543              		.cfi_startproc
 1544              		@ args = 0, pretend = 0, frame = 32
 1545              		@ frame_needed = 0, uses_anonymous_args = 0
 1546              	.LVL218:
 1547 0000 70B5     		push	{r4, r5, r6, lr}
 1548              		.cfi_def_cfa_offset 16
 1549              		.cfi_offset 4, -16
 1550              		.cfi_offset 5, -12
 1551              		.cfi_offset 6, -8
 1552              		.cfi_offset 14, -4
 1553 0002 88B0     		sub	sp, sp, #32
 1554              		.cfi_def_cfa_offset 48
 1555 0004 0E46     		mov	r6, r1
 674:c_array.c     ****   mrbc_dup(&val);
 1556              		.loc 1 674 0
 1557 0006 04AD     		add	r5, sp, #16
 1558 0008 0022     		movs	r2, #0
 1559              	.LVL219:
 1560 000a 2846     		mov	r0, r5
 1561              	.LVL220:
 1562 000c FFF7FEFF 		bl	mrbc_array_get
 1563              	.LVL221:
 675:c_array.c     ****   SET_RETURN(val);
 1564              		.loc 1 675 0
 1565 0010 2846     		mov	r0, r5
 1566 0012 FFF7FEFF 		bl	mrbc_dup
 1567              	.LVL222:
 1568              	.LBB77:
ARM GAS  C:\Users\164\AppData\Local\Temp\ccuYWdBJ.s 			page 50


 676:c_array.c     **** }
 1569              		.loc 1 676 0
 1570 0016 95E80F00 		ldmia	r5, {r0, r1, r2, r3}
 1571 001a 8DE80F00 		stmia	sp, {r0, r1, r2, r3}
 1572 001e 3046     		mov	r0, r6
 1573 0020 FFF7FEFF 		bl	mrbc_dec_ref_counter
 1574              	.LVL223:
 1575 0024 9DE80F00 		ldmia	sp, {r0, r1, r2, r3}
 1576 0028 86E80F00 		stmia	r6, {r0, r1, r2, r3}
 1577              	.LBE77:
 677:c_array.c     **** 
 1578              		.loc 1 677 0
 1579 002c 08B0     		add	sp, sp, #32
 1580              		.cfi_def_cfa_offset 16
 1581              		@ sp needed
 1582 002e 70BD     		pop	{r4, r5, r6, pc}
 1583              		.cfi_endproc
 1584              	.LFE109:
 1585              		.size	c_array_first, .-c_array_first
 1586              		.section	.text.mrbc_array_push,"ax",%progbits
 1587              		.align	2
 1588              		.global	mrbc_array_push
 1589              		.thumb
 1590              		.thumb_func
 1591              		.type	mrbc_array_push, %function
 1592              	mrbc_array_push:
 1593              	.LFB91:
 219:c_array.c     ****   mrbc_array *h = ary->array;
 1594              		.loc 1 219 0
 1595              		.cfi_startproc
 1596              		@ args = 0, pretend = 0, frame = 0
 1597              		@ frame_needed = 0, uses_anonymous_args = 0
 1598              	.LVL224:
 1599 0000 70B5     		push	{r4, r5, r6, lr}
 1600              		.cfi_def_cfa_offset 16
 1601              		.cfi_offset 4, -16
 1602              		.cfi_offset 5, -12
 1603              		.cfi_offset 6, -8
 1604              		.cfi_offset 14, -4
 1605 0002 0E46     		mov	r6, r1
 220:c_array.c     **** 
 1606              		.loc 1 220 0
 1607 0004 8568     		ldr	r5, [r0, #8]
 1608              	.LVL225:
 222:c_array.c     ****     int size = h->data_size + 6;
 1609              		.loc 1 222 0
 1610 0006 EB88     		ldrh	r3, [r5, #6]
 1611 0008 A988     		ldrh	r1, [r5, #4]
 1612              	.LVL226:
 1613 000a 8B42     		cmp	r3, r1
 1614 000c 03D3     		bcc	.L112
 1615              	.LVL227:
 1616              	.LBB78:
 224:c_array.c     ****       return E_NOMEMORY_ERROR;		// ENOMEM
 1617              		.loc 1 224 0
 1618 000e 0631     		adds	r1, r1, #6
 1619              	.LVL228:
ARM GAS  C:\Users\164\AppData\Local\Temp\ccuYWdBJ.s 			page 51


 1620 0010 FFF7FEFF 		bl	mrbc_array_resize
 1621              	.LVL229:
 1622 0014 58B9     		cbnz	r0, .L114
 1623              	.L112:
 1624              	.LBE78:
 228:c_array.c     **** 
 1625              		.loc 1 228 0
 1626 0016 AB68     		ldr	r3, [r5, #8]
 1627 0018 EC88     		ldrh	r4, [r5, #6]
 1628 001a 621C     		adds	r2, r4, #1
 1629 001c EA80     		strh	r2, [r5, #6]	@ movhi
 1630 001e 03EB0414 		add	r4, r3, r4, lsl #4
 1631 0022 96E80F00 		ldmia	r6, {r0, r1, r2, r3}
 1632 0026 84E80F00 		stmia	r4, {r0, r1, r2, r3}
 230:c_array.c     **** }
 1633              		.loc 1 230 0
 1634 002a 0020     		movs	r0, #0
 1635 002c 70BD     		pop	{r4, r5, r6, pc}
 1636              	.LVL230:
 1637              	.L114:
 1638              	.LBB79:
 225:c_array.c     ****   }
 1639              		.loc 1 225 0
 1640 002e 0120     		movs	r0, #1
 1641              	.LBE79:
 231:c_array.c     **** 
 1642              		.loc 1 231 0
 1643 0030 70BD     		pop	{r4, r5, r6, pc}
 1644              		.cfi_endproc
 1645              	.LFE91:
 1646              		.size	mrbc_array_push, .-mrbc_array_push
 1647 0032 00BF     		.section	.text.c_array_push,"ax",%progbits
 1648              		.align	2
 1649              		.thumb
 1650              		.thumb_func
 1651              		.type	c_array_push, %function
 1652              	c_array_push:
 1653              	.LFB111:
 695:c_array.c     ****   mrbc_array_push(&v[0], &v[1]);	// raise? ENOMEM
 1654              		.loc 1 695 0
 1655              		.cfi_startproc
 1656              		@ args = 0, pretend = 0, frame = 0
 1657              		@ frame_needed = 0, uses_anonymous_args = 0
 1658              	.LVL231:
 1659 0000 10B5     		push	{r4, lr}
 1660              		.cfi_def_cfa_offset 8
 1661              		.cfi_offset 4, -8
 1662              		.cfi_offset 14, -4
 1663 0002 0C46     		mov	r4, r1
 696:c_array.c     ****   v[1].tt = MRBC_TT_EMPTY;
 1664              		.loc 1 696 0
 1665 0004 1031     		adds	r1, r1, #16
 1666              	.LVL232:
 1667 0006 2046     		mov	r0, r4
 1668              	.LVL233:
 1669 0008 FFF7FEFF 		bl	mrbc_array_push
 1670              	.LVL234:
ARM GAS  C:\Users\164\AppData\Local\Temp\ccuYWdBJ.s 			page 52


 697:c_array.c     **** }
 1671              		.loc 1 697 0
 1672 000c 0023     		movs	r3, #0
 1673 000e 2374     		strb	r3, [r4, #16]
 1674 0010 10BD     		pop	{r4, pc}
 1675              		.cfi_endproc
 1676              	.LFE111:
 1677              		.size	c_array_push, .-c_array_push
 1678 0012 00BF     		.section	.text.c_array_get,"ax",%progbits
 1679              		.align	2
 1680              		.thumb
 1681              		.thumb_func
 1682              		.type	c_array_get, %function
 1683              	c_array_get:
 1684              	.LFB102:
 525:c_array.c     ****   /*
 1685              		.loc 1 525 0
 1686              		.cfi_startproc
 1687              		@ args = 0, pretend = 0, frame = 32
 1688              		@ frame_needed = 0, uses_anonymous_args = 0
 1689              	.LVL235:
 1690 0000 70B5     		push	{r4, r5, r6, lr}
 1691              		.cfi_def_cfa_offset 16
 1692              		.cfi_offset 4, -16
 1693              		.cfi_offset 5, -12
 1694              		.cfi_offset 6, -8
 1695              		.cfi_offset 14, -4
 1696 0002 88B0     		sub	sp, sp, #32
 1697              		.cfi_def_cfa_offset 48
 1698 0004 0C46     		mov	r4, r1
 529:c_array.c     ****     mrbc_value ret = mrbc_array_get(v, v[1].i);
 1699              		.loc 1 529 0
 1700 0006 012A     		cmp	r2, #1
 1701 0008 17D1     		bne	.L119
 529:c_array.c     ****     mrbc_value ret = mrbc_array_get(v, v[1].i);
 1702              		.loc 1 529 0 is_stmt 0 discriminator 1
 1703 000a 91F91030 		ldrsb	r3, [r1, #16]
 1704 000e 042B     		cmp	r3, #4
 1705 0010 13D1     		bne	.L119
 1706              	.LBB89:
 530:c_array.c     ****     mrbc_dup(&ret);
 1707              		.loc 1 530 0 is_stmt 1
 1708 0012 8A69     		ldr	r2, [r1, #24]
 1709              	.LVL236:
 1710 0014 6846     		mov	r0, sp
 1711              	.LVL237:
 1712 0016 FFF7FEFF 		bl	mrbc_array_get
 1713              	.LVL238:
 531:c_array.c     ****     SET_RETURN(ret);
 1714              		.loc 1 531 0
 1715 001a 6846     		mov	r0, sp
 1716 001c FFF7FEFF 		bl	mrbc_dup
 1717              	.LVL239:
 1718              	.LBB90:
 532:c_array.c     ****     return;
 1719              		.loc 1 532 0
 1720 0020 04AD     		add	r5, sp, #16
ARM GAS  C:\Users\164\AppData\Local\Temp\ccuYWdBJ.s 			page 53


 1721 0022 9DE80F00 		ldmia	sp, {r0, r1, r2, r3}
 1722 0026 85E80F00 		stmia	r5, {r0, r1, r2, r3}
 1723 002a 2046     		mov	r0, r4
 1724 002c FFF7FEFF 		bl	mrbc_dec_ref_counter
 1725              	.LVL240:
 1726 0030 95E80F00 		ldmia	r5, {r0, r1, r2, r3}
 1727 0034 84E80F00 		stmia	r4, {r0, r1, r2, r3}
 1728 0038 49E0     		b	.L118
 1729              	.LVL241:
 1730              	.L119:
 1731              	.LBE90:
 1732              	.LBE89:
 539:c_array.c     ****     int len = mrbc_array_size(&v[0]);
 1733              		.loc 1 539 0
 1734 003a 022A     		cmp	r2, #2
 1735 003c 42D1     		bne	.L121
 539:c_array.c     ****     int len = mrbc_array_size(&v[0]);
 1736              		.loc 1 539 0 is_stmt 0 discriminator 1
 1737 003e 94F91030 		ldrsb	r3, [r4, #16]
 1738 0042 042B     		cmp	r3, #4
 1739 0044 3ED1     		bne	.L121
 539:c_array.c     ****     int len = mrbc_array_size(&v[0]);
 1740              		.loc 1 539 0 discriminator 2
 1741 0046 94F92030 		ldrsb	r3, [r4, #32]
 1742 004a 042B     		cmp	r3, #4
 1743 004c 3AD1     		bne	.L121
 1744              	.LVL242:
 1745              	.LBB91:
 1746              	.LBB92:
 1747              	.LBB93:
 1748              		.loc 2 60 0 is_stmt 1
 1749 004e A368     		ldr	r3, [r4, #8]
 1750 0050 DE88     		ldrh	r6, [r3, #6]
 1751              	.LVL243:
 1752              	.LBE93:
 1753              	.LBE92:
 541:c_array.c     ****     if( idx < 0 ) idx += len;
 1754              		.loc 1 541 0
 1755 0052 A369     		ldr	r3, [r4, #24]
 1756              	.LVL244:
 542:c_array.c     ****     if( idx < 0 ) goto RETURN_NIL;
 1757              		.loc 1 542 0
 1758 0054 002B     		cmp	r3, #0
 1759 0056 00DA     		bge	.L122
 542:c_array.c     ****     if( idx < 0 ) goto RETURN_NIL;
 1760              		.loc 1 542 0 is_stmt 0 discriminator 1
 1761 0058 3344     		add	r3, r3, r6
 1762              	.LVL245:
 1763              	.L122:
 543:c_array.c     **** 
 1764              		.loc 1 543 0 is_stmt 1
 1765 005a 002B     		cmp	r3, #0
 1766 005c 2CDB     		blt	.L123
 545:c_array.c     **** 					// min( v[2].i, (len - idx) )
 1767              		.loc 1 545 0
 1768 005e F61A     		subs	r6, r6, r3
 1769 0060 A36A     		ldr	r3, [r4, #40]
ARM GAS  C:\Users\164\AppData\Local\Temp\ccuYWdBJ.s 			page 54


 1770              	.LVL246:
 1771 0062 9E42     		cmp	r6, r3
 1772 0064 A8BF     		it	ge
 1773 0066 1E46     		movge	r6, r3
 1774              	.LVL247:
 547:c_array.c     **** 
 1775              		.loc 1 547 0
 1776 0068 002E     		cmp	r6, #0
 1777 006a 25DB     		blt	.L123
 549:c_array.c     ****     if( ret.array == NULL ) return;		// ENOMEM
 1778              		.loc 1 549 0
 1779 006c 3246     		mov	r2, r6
 1780              	.LVL248:
 1781 006e 0146     		mov	r1, r0
 1782              	.LVL249:
 1783 0070 6846     		mov	r0, sp
 1784              	.LVL250:
 1785 0072 FFF7FEFF 		bl	mrbc_array_new
 1786              	.LVL251:
 550:c_array.c     **** 
 1787              		.loc 1 550 0
 1788 0076 029B     		ldr	r3, [sp, #8]
 1789 0078 4BB3     		cbz	r3, .L118
 1790 007a 0025     		movs	r5, #0
 1791 007c 0DE0     		b	.L125
 1792              	.LVL252:
 1793              	.L126:
 1794              	.LBB94:
 554:c_array.c     ****       mrbc_dup(&val);
 1795              		.loc 1 554 0 discriminator 3
 1796 007e A269     		ldr	r2, [r4, #24]
 1797 0080 2A44     		add	r2, r2, r5
 1798 0082 2146     		mov	r1, r4
 1799 0084 04A8     		add	r0, sp, #16
 1800 0086 FFF7FEFF 		bl	mrbc_array_get
 1801              	.LVL253:
 555:c_array.c     ****       mrbc_array_push(&ret, &val);
 1802              		.loc 1 555 0 discriminator 3
 1803 008a 04A8     		add	r0, sp, #16
 1804 008c FFF7FEFF 		bl	mrbc_dup
 1805              	.LVL254:
 556:c_array.c     ****     }
 1806              		.loc 1 556 0 discriminator 3
 1807 0090 04A9     		add	r1, sp, #16
 1808 0092 6846     		mov	r0, sp
 1809 0094 FFF7FEFF 		bl	mrbc_array_push
 1810              	.LVL255:
 1811              	.LBE94:
 553:c_array.c     ****       mrbc_value val = mrbc_array_get(v, v[1].i + i);
 1812              		.loc 1 553 0 discriminator 3
 1813 0098 0135     		adds	r5, r5, #1
 1814              	.LVL256:
 1815              	.L125:
 553:c_array.c     ****       mrbc_value val = mrbc_array_get(v, v[1].i + i);
 1816              		.loc 1 553 0 is_stmt 0 discriminator 1
 1817 009a B542     		cmp	r5, r6
 1818 009c EFDB     		blt	.L126
ARM GAS  C:\Users\164\AppData\Local\Temp\ccuYWdBJ.s 			page 55


 1819              	.LBB95:
 559:c_array.c     ****     return;
 1820              		.loc 1 559 0 is_stmt 1
 1821 009e 04AD     		add	r5, sp, #16
 1822              	.LVL257:
 1823 00a0 9DE80F00 		ldmia	sp, {r0, r1, r2, r3}
 1824 00a4 85E80F00 		stmia	r5, {r0, r1, r2, r3}
 1825 00a8 2046     		mov	r0, r4
 1826 00aa FFF7FEFF 		bl	mrbc_dec_ref_counter
 1827              	.LVL258:
 1828 00ae 95E80F00 		ldmia	r5, {r0, r1, r2, r3}
 1829 00b2 84E80F00 		stmia	r4, {r0, r1, r2, r3}
 1830              	.LBE95:
 560:c_array.c     ****   }
 1831              		.loc 1 560 0
 1832 00b6 0AE0     		b	.L118
 1833              	.LVL259:
 1834              	.L123:
 1835              	.LDL1:
 1836              	.LBE91:
 570:c_array.c     **** }
 1837              		.loc 1 570 0
 1838 00b8 2046     		mov	r0, r4
 1839              	.LVL260:
 1840 00ba FFF7FEFF 		bl	mrbc_dec_ref_counter
 1841              	.LVL261:
 1842 00be 0123     		movs	r3, #1
 1843 00c0 2370     		strb	r3, [r4]
 1844 00c2 04E0     		b	.L118
 1845              	.LVL262:
 1846              	.L121:
 1847              	.LBB96:
 1848              	.LBB97:
 1849              		.loc 3 75 0
 1850 00c4 2322     		movs	r2, #35
 1851              	.LVL263:
 1852 00c6 0349     		ldr	r1, .L128
 1853              	.LVL264:
 1854 00c8 0120     		movs	r0, #1
 1855              	.LVL265:
 1856 00ca FFF7FEFF 		bl	hal_write
 1857              	.LVL266:
 1858              	.L118:
 1859              	.LBE97:
 1860              	.LBE96:
 571:c_array.c     **** 
 1861              		.loc 1 571 0
 1862 00ce 08B0     		add	sp, sp, #32
 1863              		.cfi_def_cfa_offset 16
 1864              		@ sp needed
 1865 00d0 70BD     		pop	{r4, r5, r6, pc}
 1866              	.LVL267:
 1867              	.L129:
 1868 00d2 00BF     		.align	2
 1869              	.L128:
 1870 00d4 18000000 		.word	.LC3
 1871              		.cfi_endproc
ARM GAS  C:\Users\164\AppData\Local\Temp\ccuYWdBJ.s 			page 56


 1872              	.LFE102:
 1873              		.size	c_array_get, .-c_array_get
 1874              		.section	.text.mrbc_array_pop,"ax",%progbits
 1875              		.align	2
 1876              		.global	mrbc_array_pop
 1877              		.thumb
 1878              		.thumb_func
 1879              		.type	mrbc_array_pop, %function
 1880              	mrbc_array_pop:
 1881              	.LFB92:
 241:c_array.c     ****   mrbc_array *h = ary->array;
 1882              		.loc 1 241 0
 1883              		.cfi_startproc
 1884              		@ args = 0, pretend = 0, frame = 0
 1885              		@ frame_needed = 0, uses_anonymous_args = 0
 1886              		@ link register save eliminated.
 1887              	.LVL268:
 1888 0000 10B4     		push	{r4}
 1889              		.cfi_def_cfa_offset 4
 1890              		.cfi_offset 4, -4
 1891 0002 0446     		mov	r4, r0
 242:c_array.c     **** 
 1892              		.loc 1 242 0
 1893 0004 8968     		ldr	r1, [r1, #8]
 1894              	.LVL269:
 244:c_array.c     ****   return h->data[--h->n_stored];
 1895              		.loc 1 244 0
 1896 0006 CB88     		ldrh	r3, [r1, #6]
 1897 0008 33B9     		cbnz	r3, .L131
 244:c_array.c     ****   return h->data[--h->n_stored];
 1898              		.loc 1 244 0 is_stmt 0 discriminator 1
 1899 000a 0360     		str	r3, [r0]
 1900 000c 4360     		str	r3, [r0, #4]
 1901 000e 8360     		str	r3, [r0, #8]
 1902 0010 C360     		str	r3, [r0, #12]
 1903 0012 0123     		movs	r3, #1
 1904 0014 0370     		strb	r3, [r0]
 1905 0016 08E0     		b	.L130
 1906              	.L131:
 245:c_array.c     **** }
 1907              		.loc 1 245 0 is_stmt 1
 1908 0018 8A68     		ldr	r2, [r1, #8]
 1909 001a 013B     		subs	r3, r3, #1
 1910 001c 9BB2     		uxth	r3, r3
 1911 001e CB80     		strh	r3, [r1, #6]	@ movhi
 1912 0020 02EB0313 		add	r3, r2, r3, lsl #4
 1913 0024 0FCB     		ldmia	r3, {r0, r1, r2, r3}
 1914              	.LVL270:
 1915 0026 84E80F00 		stmia	r4, {r0, r1, r2, r3}
 1916              	.L130:
 246:c_array.c     **** 
 1917              		.loc 1 246 0
 1918 002a 2046     		mov	r0, r4
 1919 002c 10BC     		pop	{r4}
 1920              		.cfi_restore 4
 1921              		.cfi_def_cfa_offset 0
 1922              	.LVL271:
ARM GAS  C:\Users\164\AppData\Local\Temp\ccuYWdBJ.s 			page 57


 1923 002e 7047     		bx	lr
 1924              		.cfi_endproc
 1925              	.LFE92:
 1926              		.size	mrbc_array_pop, .-mrbc_array_pop
 1927              		.section	.text.c_array_pop,"ax",%progbits
 1928              		.align	2
 1929              		.thumb
 1930              		.thumb_func
 1931              		.type	c_array_pop, %function
 1932              	c_array_pop:
 1933              	.LFB112:
 705:c_array.c     ****   /*
 1934              		.loc 1 705 0
 1935              		.cfi_startproc
 1936              		@ args = 0, pretend = 0, frame = 32
 1937              		@ frame_needed = 0, uses_anonymous_args = 0
 1938              	.LVL272:
 1939 0000 70B5     		push	{r4, r5, r6, lr}
 1940              		.cfi_def_cfa_offset 16
 1941              		.cfi_offset 4, -16
 1942              		.cfi_offset 5, -12
 1943              		.cfi_offset 6, -8
 1944              		.cfi_offset 14, -4
 1945 0002 88B0     		sub	sp, sp, #32
 1946              		.cfi_def_cfa_offset 48
 709:c_array.c     ****     mrbc_value val = mrbc_array_pop(v);
 1947              		.loc 1 709 0
 1948 0004 82B9     		cbnz	r2, .L135
 1949 0006 0D46     		mov	r5, r1
 1950              	.LBB102:
 710:c_array.c     ****     SET_RETURN(val);
 1951              		.loc 1 710 0
 1952 0008 6846     		mov	r0, sp
 1953              	.LVL273:
 1954 000a FFF7FEFF 		bl	mrbc_array_pop
 1955              	.LVL274:
 1956              	.LBB103:
 711:c_array.c     ****     return;
 1957              		.loc 1 711 0
 1958 000e 04AC     		add	r4, sp, #16
 1959 0010 9DE80F00 		ldmia	sp, {r0, r1, r2, r3}
 1960 0014 84E80F00 		stmia	r4, {r0, r1, r2, r3}
 1961 0018 2846     		mov	r0, r5
 1962 001a FFF7FEFF 		bl	mrbc_dec_ref_counter
 1963              	.LVL275:
 1964 001e 94E80F00 		ldmia	r4, {r0, r1, r2, r3}
 1965 0022 85E80F00 		stmia	r5, {r0, r1, r2, r3}
 1966 0026 04E0     		b	.L134
 1967              	.LVL276:
 1968              	.L135:
 1969              	.LBE103:
 1970              	.LBE102:
 1971              	.LBB104:
 1972              	.LBB105:
 1973              		.loc 3 75 0
 1974 0028 2422     		movs	r2, #36
 1975              	.LVL277:
ARM GAS  C:\Users\164\AppData\Local\Temp\ccuYWdBJ.s 			page 58


 1976 002a 0349     		ldr	r1, .L138
 1977              	.LVL278:
 1978 002c 0120     		movs	r0, #1
 1979              	.LVL279:
 1980 002e FFF7FEFF 		bl	hal_write
 1981              	.LVL280:
 1982              	.L134:
 1983              	.LBE105:
 1984              	.LBE104:
 726:c_array.c     **** 
 1985              		.loc 1 726 0
 1986 0032 08B0     		add	sp, sp, #32
 1987              		.cfi_def_cfa_offset 16
 1988              		@ sp needed
 1989 0034 70BD     		pop	{r4, r5, r6, pc}
 1990              	.L139:
 1991 0036 00BF     		.align	2
 1992              	.L138:
 1993 0038 60000000 		.word	.LC9
 1994              		.cfi_endproc
 1995              	.LFE112:
 1996              		.size	c_array_pop, .-c_array_pop
 1997              		.section	.text.mrbc_array_shift,"ax",%progbits
 1998              		.align	2
 1999              		.global	mrbc_array_shift
 2000              		.thumb
 2001              		.thumb_func
 2002              		.type	mrbc_array_shift, %function
 2003              	mrbc_array_shift:
 2004              	.LFB94:
 269:c_array.c     ****   mrbc_array *h = ary->array;
 2005              		.loc 1 269 0
 2006              		.cfi_startproc
 2007              		@ args = 0, pretend = 0, frame = 16
 2008              		@ frame_needed = 0, uses_anonymous_args = 0
 2009              	.LVL281:
 2010 0000 F0B5     		push	{r4, r5, r6, r7, lr}
 2011              		.cfi_def_cfa_offset 20
 2012              		.cfi_offset 4, -20
 2013              		.cfi_offset 5, -16
 2014              		.cfi_offset 6, -12
 2015              		.cfi_offset 7, -8
 2016              		.cfi_offset 14, -4
 2017 0002 85B0     		sub	sp, sp, #20
 2018              		.cfi_def_cfa_offset 40
 2019 0004 0446     		mov	r4, r0
 270:c_array.c     **** 
 2020              		.loc 1 270 0
 2021 0006 8F68     		ldr	r7, [r1, #8]
 2022              	.LVL282:
 272:c_array.c     **** 
 2023              		.loc 1 272 0
 2024 0008 FD88     		ldrh	r5, [r7, #6]
 2025 000a 3DB9     		cbnz	r5, .L141
 272:c_array.c     **** 
 2026              		.loc 1 272 0 is_stmt 0 discriminator 1
 2027 000c 0023     		movs	r3, #0
ARM GAS  C:\Users\164\AppData\Local\Temp\ccuYWdBJ.s 			page 59


 2028 000e 0360     		str	r3, [r0]
 2029 0010 4360     		str	r3, [r0, #4]
 2030 0012 8360     		str	r3, [r0, #8]
 2031 0014 C360     		str	r3, [r0, #12]
 2032 0016 0123     		movs	r3, #1
 2033 0018 0370     		strb	r3, [r0]
 2034 001a 12E0     		b	.L140
 2035              	.L141:
 274:c_array.c     ****   memmove(h->data, h->data+1, sizeof(mrbc_value) * --h->n_stored);
 2036              		.loc 1 274 0 is_stmt 1
 2037 001c D7F808E0 		ldr	lr, [r7, #8]
 2038 0020 9EE80F00 		ldmia	lr, {r0, r1, r2, r3}
 2039              	.LVL283:
 2040 0024 8DE80F00 		stmia	sp, {r0, r1, r2, r3}
 275:c_array.c     **** 
 2041              		.loc 1 275 0
 2042 0028 6A1E     		subs	r2, r5, #1
 2043 002a 92B2     		uxth	r2, r2
 2044 002c FA80     		strh	r2, [r7, #6]	@ movhi
 2045 002e 1201     		lsls	r2, r2, #4
 2046 0030 0EF11001 		add	r1, lr, #16
 2047 0034 7046     		mov	r0, lr
 2048 0036 FFF7FEFF 		bl	memmove
 2049              	.LVL284:
 277:c_array.c     **** }
 2050              		.loc 1 277 0
 2051 003a 9DE80F00 		ldmia	sp, {r0, r1, r2, r3}
 2052 003e 84E80F00 		stmia	r4, {r0, r1, r2, r3}
 2053              	.L140:
 278:c_array.c     **** 
 2054              		.loc 1 278 0
 2055 0042 2046     		mov	r0, r4
 2056 0044 05B0     		add	sp, sp, #20
 2057              		.cfi_def_cfa_offset 20
 2058              		@ sp needed
 2059 0046 F0BD     		pop	{r4, r5, r6, r7, pc}
 2060              		.cfi_endproc
 2061              	.LFE94:
 2062              		.size	mrbc_array_shift, .-mrbc_array_shift
 2063              		.section	.text.c_array_shift,"ax",%progbits
 2064              		.align	2
 2065              		.thumb
 2066              		.thumb_func
 2067              		.type	c_array_shift, %function
 2068              	c_array_shift:
 2069              	.LFB114:
 743:c_array.c     ****   /*
 2070              		.loc 1 743 0
 2071              		.cfi_startproc
 2072              		@ args = 0, pretend = 0, frame = 32
 2073              		@ frame_needed = 0, uses_anonymous_args = 0
 2074              	.LVL285:
 2075 0000 70B5     		push	{r4, r5, r6, lr}
 2076              		.cfi_def_cfa_offset 16
 2077              		.cfi_offset 4, -16
 2078              		.cfi_offset 5, -12
 2079              		.cfi_offset 6, -8
ARM GAS  C:\Users\164\AppData\Local\Temp\ccuYWdBJ.s 			page 60


 2080              		.cfi_offset 14, -4
 2081 0002 88B0     		sub	sp, sp, #32
 2082              		.cfi_def_cfa_offset 48
 747:c_array.c     ****     mrbc_value val = mrbc_array_shift(v);
 2083              		.loc 1 747 0
 2084 0004 82B9     		cbnz	r2, .L145
 2085 0006 0D46     		mov	r5, r1
 2086              	.LBB110:
 748:c_array.c     ****     SET_RETURN(val);
 2087              		.loc 1 748 0
 2088 0008 6846     		mov	r0, sp
 2089              	.LVL286:
 2090 000a FFF7FEFF 		bl	mrbc_array_shift
 2091              	.LVL287:
 2092              	.LBB111:
 749:c_array.c     ****     return;
 2093              		.loc 1 749 0
 2094 000e 04AC     		add	r4, sp, #16
 2095 0010 9DE80F00 		ldmia	sp, {r0, r1, r2, r3}
 2096 0014 84E80F00 		stmia	r4, {r0, r1, r2, r3}
 2097 0018 2846     		mov	r0, r5
 2098 001a FFF7FEFF 		bl	mrbc_dec_ref_counter
 2099              	.LVL288:
 2100 001e 94E80F00 		ldmia	r4, {r0, r1, r2, r3}
 2101 0022 85E80F00 		stmia	r5, {r0, r1, r2, r3}
 2102 0026 04E0     		b	.L144
 2103              	.LVL289:
 2104              	.L145:
 2105              	.LBE111:
 2106              	.LBE110:
 2107              	.LBB112:
 2108              	.LBB113:
 2109              		.loc 3 75 0
 2110 0028 2622     		movs	r2, #38
 2111              	.LVL290:
 2112 002a 0349     		ldr	r1, .L148
 2113              	.LVL291:
 2114 002c 0120     		movs	r0, #1
 2115              	.LVL292:
 2116 002e FFF7FEFF 		bl	hal_write
 2117              	.LVL293:
 2118              	.L144:
 2119              	.LBE113:
 2120              	.LBE112:
 764:c_array.c     **** 
 2121              		.loc 1 764 0
 2122 0032 08B0     		add	sp, sp, #32
 2123              		.cfi_def_cfa_offset 16
 2124              		@ sp needed
 2125 0034 70BD     		pop	{r4, r5, r6, pc}
 2126              	.L149:
 2127 0036 00BF     		.align	2
 2128              	.L148:
 2129 0038 88000000 		.word	.LC10
 2130              		.cfi_endproc
 2131              	.LFE114:
 2132              		.size	c_array_shift, .-c_array_shift
ARM GAS  C:\Users\164\AppData\Local\Temp\ccuYWdBJ.s 			page 61


 2133              		.section	.text.mrbc_array_insert,"ax",%progbits
 2134              		.align	2
 2135              		.global	mrbc_array_insert
 2136              		.thumb
 2137              		.thumb_func
 2138              		.type	mrbc_array_insert, %function
 2139              	mrbc_array_insert:
 2140              	.LFB95:
 290:c_array.c     ****   mrbc_array *h = ary->array;
 2141              		.loc 1 290 0
 2142              		.cfi_startproc
 2143              		@ args = 0, pretend = 0, frame = 0
 2144              		@ frame_needed = 0, uses_anonymous_args = 0
 2145              	.LVL294:
 2146 0000 F8B5     		push	{r3, r4, r5, r6, r7, lr}
 2147              		.cfi_def_cfa_offset 24
 2148              		.cfi_offset 3, -24
 2149              		.cfi_offset 4, -20
 2150              		.cfi_offset 5, -16
 2151              		.cfi_offset 6, -12
 2152              		.cfi_offset 7, -8
 2153              		.cfi_offset 14, -4
 2154 0002 1746     		mov	r7, r2
 291:c_array.c     **** 
 2155              		.loc 1 291 0
 2156 0004 8568     		ldr	r5, [r0, #8]
 2157              	.LVL295:
 293:c_array.c     ****     idx = h->n_stored + idx + 1;
 2158              		.loc 1 293 0
 2159 0006 0C1E     		subs	r4, r1, #0
 2160 0008 03DA     		bge	.L151
 294:c_array.c     ****     if( idx < 0 ) return E_INDEX_ERROR;		// raise?
 2161              		.loc 1 294 0
 2162 000a EB88     		ldrh	r3, [r5, #6]
 2163 000c 1C44     		add	r4, r4, r3
 2164              	.LVL296:
 295:c_array.c     ****   }
 2165              		.loc 1 295 0
 2166 000e 0134     		adds	r4, r4, #1
 2167              	.LVL297:
 2168 0010 3BD4     		bmi	.L159
 2169              	.L151:
 2170              	.LVL298:
 300:c_array.c     ****     size = idx + 1;
 2171              		.loc 1 300 0
 2172 0012 A988     		ldrh	r1, [r5, #4]
 2173 0014 8C42     		cmp	r4, r1
 2174 0016 01DB     		blt	.L153
 301:c_array.c     ****   } else if( h->n_stored >= h->data_size ) {
 2175              		.loc 1 301 0
 2176 0018 611C     		adds	r1, r4, #1
 2177              	.LVL299:
 2178 001a 05E0     		b	.L154
 2179              	.LVL300:
 2180              	.L153:
 302:c_array.c     ****     size = h->data_size + 1;
 2181              		.loc 1 302 0
ARM GAS  C:\Users\164\AppData\Local\Temp\ccuYWdBJ.s 			page 62


 2182 001c EB88     		ldrh	r3, [r5, #6]
 2183 001e 9942     		cmp	r1, r3
 2184 0020 01D8     		bhi	.L160
 303:c_array.c     ****   }
 2185              		.loc 1 303 0
 2186 0022 0131     		adds	r1, r1, #1
 2187              	.LVL301:
 2188 0024 00E0     		b	.L154
 2189              	.LVL302:
 2190              	.L160:
 299:c_array.c     ****   if( idx >= h->data_size ) {
 2191              		.loc 1 299 0
 2192 0026 0021     		movs	r1, #0
 2193              	.LVL303:
 2194              	.L154:
 305:c_array.c     ****     return E_NOMEMORY_ERROR;			// ENOMEM
 2195              		.loc 1 305 0
 2196 0028 11B1     		cbz	r1, .L155
 305:c_array.c     ****     return E_NOMEMORY_ERROR;			// ENOMEM
 2197              		.loc 1 305 0 is_stmt 0 discriminator 1
 2198 002a FFF7FEFF 		bl	mrbc_array_resize
 2199              	.LVL304:
 2200 002e 70BB     		cbnz	r0, .L161
 2201              	.L155:
 310:c_array.c     ****     memmove(h->data + idx + 1, h->data + idx,
 2202              		.loc 1 310 0 is_stmt 1
 2203 0030 EA88     		ldrh	r2, [r5, #6]
 2204 0032 9442     		cmp	r4, r2
 2205 0034 09DA     		bge	.L156
 311:c_array.c     **** 	    sizeof(mrbc_value) * (h->n_stored - idx));
 2206              		.loc 1 311 0
 2207 0036 AB68     		ldr	r3, [r5, #8]
 2208 0038 601C     		adds	r0, r4, #1
 312:c_array.c     ****   }
 2209              		.loc 1 312 0
 2210 003a 121B     		subs	r2, r2, r4
 311:c_array.c     **** 	    sizeof(mrbc_value) * (h->n_stored - idx));
 2211              		.loc 1 311 0
 2212 003c 1201     		lsls	r2, r2, #4
 2213 003e 03EB0411 		add	r1, r3, r4, lsl #4
 2214 0042 03EB0010 		add	r0, r3, r0, lsl #4
 2215 0046 FFF7FEFF 		bl	memmove
 2216              	.LVL305:
 2217              	.L156:
 316:c_array.c     ****   h->n_stored++;
 2218              		.loc 1 316 0
 2219 004a AE68     		ldr	r6, [r5, #8]
 2220 004c 06EB0416 		add	r6, r6, r4, lsl #4
 2221 0050 97E80F00 		ldmia	r7, {r0, r1, r2, r3}
 2222 0054 86E80F00 		stmia	r6, {r0, r1, r2, r3}
 317:c_array.c     **** 
 2223              		.loc 1 317 0
 2224 0058 EB88     		ldrh	r3, [r5, #6]
 2225 005a 0133     		adds	r3, r3, #1
 2226 005c 9BB2     		uxth	r3, r3
 2227 005e EB80     		strh	r3, [r5, #6]	@ movhi
 320:c_array.c     ****     int i;
ARM GAS  C:\Users\164\AppData\Local\Temp\ccuYWdBJ.s 			page 63


 2228              		.loc 1 320 0
 2229 0060 9C42     		cmp	r4, r3
 2230 0062 16DB     		blt	.L162
 2231              	.LBB114:
 322:c_array.c     ****       h->data[i] = mrbc_nil_value();
 2232              		.loc 1 322 0
 2233 0064 013B     		subs	r3, r3, #1
 2234              	.LVL306:
 2235 0066 0AE0     		b	.L157
 2236              	.L158:
 323:c_array.c     ****     }
 2237              		.loc 1 323 0 discriminator 3
 2238 0068 A868     		ldr	r0, [r5, #8]
 2239 006a 1901     		lsls	r1, r3, #4
 2240 006c 4618     		adds	r6, r0, r1
 2241 006e 0022     		movs	r2, #0
 2242 0070 4250     		str	r2, [r0, r1]
 2243 0072 7260     		str	r2, [r6, #4]
 2244 0074 B260     		str	r2, [r6, #8]
 2245 0076 F260     		str	r2, [r6, #12]
 2246 0078 0122     		movs	r2, #1
 2247 007a 4254     		strb	r2, [r0, r1]
 322:c_array.c     ****       h->data[i] = mrbc_nil_value();
 2248              		.loc 1 322 0 discriminator 3
 2249 007c 1344     		add	r3, r3, r2
 2250              	.LVL307:
 2251              	.L157:
 322:c_array.c     ****       h->data[i] = mrbc_nil_value();
 2252              		.loc 1 322 0 is_stmt 0 discriminator 1
 2253 007e 9C42     		cmp	r4, r3
 2254 0080 F2DC     		bgt	.L158
 325:c_array.c     ****   }
 2255              		.loc 1 325 0 is_stmt 1
 2256 0082 0134     		adds	r4, r4, #1
 2257              	.LVL308:
 2258 0084 EC80     		strh	r4, [r5, #6]	@ movhi
 2259              	.LBE114:
 328:c_array.c     **** }
 2260              		.loc 1 328 0
 2261 0086 0020     		movs	r0, #0
 2262 0088 F8BD     		pop	{r3, r4, r5, r6, r7, pc}
 2263              	.LVL309:
 2264              	.L159:
 295:c_array.c     ****   }
 2265              		.loc 1 295 0
 2266 008a 0520     		movs	r0, #5
 2267              	.LVL310:
 2268 008c F8BD     		pop	{r3, r4, r5, r6, r7, pc}
 2269              	.LVL311:
 2270              	.L161:
 306:c_array.c     ****   }
 2271              		.loc 1 306 0
 2272 008e 0120     		movs	r0, #1
 2273 0090 F8BD     		pop	{r3, r4, r5, r6, r7, pc}
 2274              	.LVL312:
 2275              	.L162:
 328:c_array.c     **** }
ARM GAS  C:\Users\164\AppData\Local\Temp\ccuYWdBJ.s 			page 64


 2276              		.loc 1 328 0
 2277 0092 0020     		movs	r0, #0
 329:c_array.c     **** 
 2278              		.loc 1 329 0
 2279 0094 F8BD     		pop	{r3, r4, r5, r6, r7, pc}
 2280              		.cfi_endproc
 2281              	.LFE95:
 2282              		.size	mrbc_array_insert, .-mrbc_array_insert
 2283 0096 00BF     		.section	.text.mrbc_array_unshift,"ax",%progbits
 2284              		.align	2
 2285              		.global	mrbc_array_unshift
 2286              		.thumb
 2287              		.thumb_func
 2288              		.type	mrbc_array_unshift, %function
 2289              	mrbc_array_unshift:
 2290              	.LFB93:
 257:c_array.c     ****   return mrbc_array_insert(ary, 0, set_val);
 2291              		.loc 1 257 0
 2292              		.cfi_startproc
 2293              		@ args = 0, pretend = 0, frame = 0
 2294              		@ frame_needed = 0, uses_anonymous_args = 0
 2295              	.LVL313:
 2296 0000 08B5     		push	{r3, lr}
 2297              		.cfi_def_cfa_offset 8
 2298              		.cfi_offset 3, -8
 2299              		.cfi_offset 14, -4
 258:c_array.c     **** }
 2300              		.loc 1 258 0
 2301 0002 0A46     		mov	r2, r1
 2302 0004 0021     		movs	r1, #0
 2303              	.LVL314:
 2304 0006 FFF7FEFF 		bl	mrbc_array_insert
 2305              	.LVL315:
 259:c_array.c     **** 
 2306              		.loc 1 259 0
 2307 000a 08BD     		pop	{r3, pc}
 2308              		.cfi_endproc
 2309              	.LFE93:
 2310              		.size	mrbc_array_unshift, .-mrbc_array_unshift
 2311              		.section	.text.c_array_unshift,"ax",%progbits
 2312              		.align	2
 2313              		.thumb
 2314              		.thumb_func
 2315              		.type	c_array_unshift, %function
 2316              	c_array_unshift:
 2317              	.LFB113:
 733:c_array.c     ****   mrbc_array_unshift(&v[0], &v[1]);	// raise? IndexError or ENOMEM
 2318              		.loc 1 733 0
 2319              		.cfi_startproc
 2320              		@ args = 0, pretend = 0, frame = 0
 2321              		@ frame_needed = 0, uses_anonymous_args = 0
 2322              	.LVL316:
 2323 0000 10B5     		push	{r4, lr}
 2324              		.cfi_def_cfa_offset 8
 2325              		.cfi_offset 4, -8
 2326              		.cfi_offset 14, -4
 2327 0002 0C46     		mov	r4, r1
ARM GAS  C:\Users\164\AppData\Local\Temp\ccuYWdBJ.s 			page 65


 734:c_array.c     ****   v[1].tt = MRBC_TT_EMPTY;
 2328              		.loc 1 734 0
 2329 0004 1031     		adds	r1, r1, #16
 2330              	.LVL317:
 2331 0006 2046     		mov	r0, r4
 2332              	.LVL318:
 2333 0008 FFF7FEFF 		bl	mrbc_array_unshift
 2334              	.LVL319:
 735:c_array.c     **** }
 2335              		.loc 1 735 0
 2336 000c 0023     		movs	r3, #0
 2337 000e 2374     		strb	r3, [r4, #16]
 2338 0010 10BD     		pop	{r4, pc}
 2339              		.cfi_endproc
 2340              	.LFE113:
 2341              		.size	c_array_unshift, .-c_array_unshift
 2342 0012 00BF     		.section	.text.mrbc_array_remove,"ax",%progbits
 2343              		.align	2
 2344              		.global	mrbc_array_remove
 2345              		.thumb
 2346              		.thumb_func
 2347              		.type	mrbc_array_remove, %function
 2348              	mrbc_array_remove:
 2349              	.LFB96:
 340:c_array.c     ****   mrbc_array *h = ary->array;
 2350              		.loc 1 340 0
 2351              		.cfi_startproc
 2352              		@ args = 0, pretend = 0, frame = 16
 2353              		@ frame_needed = 0, uses_anonymous_args = 0
 2354              	.LVL320:
 2355 0000 2DE9F041 		push	{r4, r5, r6, r7, r8, lr}
 2356              		.cfi_def_cfa_offset 24
 2357              		.cfi_offset 4, -24
 2358              		.cfi_offset 5, -20
 2359              		.cfi_offset 6, -16
 2360              		.cfi_offset 7, -12
 2361              		.cfi_offset 8, -8
 2362              		.cfi_offset 14, -4
 2363 0004 84B0     		sub	sp, sp, #16
 2364              		.cfi_def_cfa_offset 40
 2365 0006 0446     		mov	r4, r0
 341:c_array.c     **** 
 2366              		.loc 1 341 0
 2367 0008 8F68     		ldr	r7, [r1, #8]
 2368              	.LVL321:
 343:c_array.c     ****   if( idx < 0 || idx >= h->n_stored ) return mrbc_nil_value();
 2369              		.loc 1 343 0
 2370 000a 161E     		subs	r6, r2, #0
 2371 000c 01DA     		bge	.L169
 343:c_array.c     ****   if( idx < 0 || idx >= h->n_stored ) return mrbc_nil_value();
 2372              		.loc 1 343 0 is_stmt 0 discriminator 1
 2373 000e FB88     		ldrh	r3, [r7, #6]
 2374 0010 1E44     		add	r6, r6, r3
 2375              	.LVL322:
 2376              	.L169:
 344:c_array.c     **** 
 2377              		.loc 1 344 0 is_stmt 1
ARM GAS  C:\Users\164\AppData\Local\Temp\ccuYWdBJ.s 			page 66


 2378 0012 002E     		cmp	r6, #0
 2379 0014 02DB     		blt	.L170
 344:c_array.c     **** 
 2380              		.loc 1 344 0 is_stmt 0 discriminator 2
 2381 0016 FD88     		ldrh	r5, [r7, #6]
 2382 0018 AE42     		cmp	r6, r5
 2383 001a 07DB     		blt	.L171
 2384              	.L170:
 344:c_array.c     **** 
 2385              		.loc 1 344 0 discriminator 3
 2386 001c 0023     		movs	r3, #0
 2387 001e 2360     		str	r3, [r4]
 2388 0020 6360     		str	r3, [r4, #4]
 2389 0022 A360     		str	r3, [r4, #8]
 2390 0024 E360     		str	r3, [r4, #12]
 2391 0026 0123     		movs	r3, #1
 2392 0028 2370     		strb	r3, [r4]
 2393 002a 1BE0     		b	.L168
 2394              	.L171:
 346:c_array.c     ****   h->n_stored--;
 2395              		.loc 1 346 0 is_stmt 1
 2396 002c D7F808C0 		ldr	ip, [r7, #8]
 2397 0030 0CEB061E 		add	lr, ip, r6, lsl #4
 2398 0034 9EE80F00 		ldmia	lr, {r0, r1, r2, r3}
 2399              	.LVL323:
 2400 0038 0DF11008 		add	r8, sp, #16
 2401 003c 08E90F00 		stmdb	r8, {r0, r1, r2, r3}
 347:c_array.c     ****   if( idx < h->n_stored ) {
 2402              		.loc 1 347 0
 2403 0040 013D     		subs	r5, r5, #1
 2404 0042 ADB2     		uxth	r5, r5
 2405 0044 FD80     		strh	r5, [r7, #6]	@ movhi
 348:c_array.c     ****     memmove(h->data + idx, h->data + idx + 1,
 2406              		.loc 1 348 0
 2407 0046 AE42     		cmp	r6, r5
 2408 0048 07DA     		bge	.L173
 349:c_array.c     **** 	    sizeof(mrbc_value) * (h->n_stored - idx));
 2409              		.loc 1 349 0
 2410 004a 711C     		adds	r1, r6, #1
 350:c_array.c     ****   }
 2411              		.loc 1 350 0
 2412 004c AA1B     		subs	r2, r5, r6
 349:c_array.c     **** 	    sizeof(mrbc_value) * (h->n_stored - idx));
 2413              		.loc 1 349 0
 2414 004e 1201     		lsls	r2, r2, #4
 2415 0050 0CEB0111 		add	r1, ip, r1, lsl #4
 2416 0054 7046     		mov	r0, lr
 2417 0056 FFF7FEFF 		bl	memmove
 2418              	.LVL324:
 2419              	.L173:
 353:c_array.c     **** }
 2420              		.loc 1 353 0
 2421 005a 04AB     		add	r3, sp, #16
 2422 005c 13E90F00 		ldmdb	r3, {r0, r1, r2, r3}
 2423 0060 84E80F00 		stmia	r4, {r0, r1, r2, r3}
 2424              	.L168:
 354:c_array.c     **** 
ARM GAS  C:\Users\164\AppData\Local\Temp\ccuYWdBJ.s 			page 67


 2425              		.loc 1 354 0
 2426 0064 2046     		mov	r0, r4
 2427 0066 04B0     		add	sp, sp, #16
 2428              		.cfi_def_cfa_offset 24
 2429              		@ sp needed
 2430 0068 BDE8F081 		pop	{r4, r5, r6, r7, r8, pc}
 2431              		.cfi_endproc
 2432              	.LFE96:
 2433              		.size	mrbc_array_remove, .-mrbc_array_remove
 2434              		.section	.text.c_array_delete_at,"ax",%progbits
 2435              		.align	2
 2436              		.thumb
 2437              		.thumb_func
 2438              		.type	c_array_delete_at, %function
 2439              	c_array_delete_at:
 2440              	.LFB105:
 615:c_array.c     ****   mrbc_value val = mrbc_array_remove(v, GET_INT_ARG(1));
 2441              		.loc 1 615 0
 2442              		.cfi_startproc
 2443              		@ args = 0, pretend = 0, frame = 32
 2444              		@ frame_needed = 0, uses_anonymous_args = 0
 2445              	.LVL325:
 2446 0000 70B5     		push	{r4, r5, r6, lr}
 2447              		.cfi_def_cfa_offset 16
 2448              		.cfi_offset 4, -16
 2449              		.cfi_offset 5, -12
 2450              		.cfi_offset 6, -8
 2451              		.cfi_offset 14, -4
 2452 0002 88B0     		sub	sp, sp, #32
 2453              		.cfi_def_cfa_offset 48
 2454 0004 0D46     		mov	r5, r1
 616:c_array.c     ****   SET_RETURN(val);
 2455              		.loc 1 616 0
 2456 0006 04AE     		add	r6, sp, #16
 2457 0008 8A69     		ldr	r2, [r1, #24]
 2458              	.LVL326:
 2459 000a 3046     		mov	r0, r6
 2460              	.LVL327:
 2461 000c FFF7FEFF 		bl	mrbc_array_remove
 2462              	.LVL328:
 2463              	.LBB115:
 617:c_array.c     **** }
 2464              		.loc 1 617 0
 2465 0010 96E80F00 		ldmia	r6, {r0, r1, r2, r3}
 2466 0014 8DE80F00 		stmia	sp, {r0, r1, r2, r3}
 2467 0018 2846     		mov	r0, r5
 2468 001a FFF7FEFF 		bl	mrbc_dec_ref_counter
 2469              	.LVL329:
 2470 001e 9DE80F00 		ldmia	sp, {r0, r1, r2, r3}
 2471 0022 85E80F00 		stmia	r5, {r0, r1, r2, r3}
 2472              	.LBE115:
 618:c_array.c     **** 
 2473              		.loc 1 618 0
 2474 0026 08B0     		add	sp, sp, #32
 2475              		.cfi_def_cfa_offset 16
 2476              		@ sp needed
 2477 0028 70BD     		pop	{r4, r5, r6, pc}
ARM GAS  C:\Users\164\AppData\Local\Temp\ccuYWdBJ.s 			page 68


 2478              		.cfi_endproc
 2479              	.LFE105:
 2480              		.size	c_array_delete_at, .-c_array_delete_at
 2481 002a 00BF     		.section	.text.mrbc_array_clear,"ax",%progbits
 2482              		.align	2
 2483              		.global	mrbc_array_clear
 2484              		.thumb
 2485              		.thumb_func
 2486              		.type	mrbc_array_clear, %function
 2487              	mrbc_array_clear:
 2488              	.LFB97:
 363:c_array.c     ****   mrbc_array *h = ary->array;
 2489              		.loc 1 363 0
 2490              		.cfi_startproc
 2491              		@ args = 0, pretend = 0, frame = 0
 2492              		@ frame_needed = 0, uses_anonymous_args = 0
 2493              	.LVL330:
 2494 0000 70B5     		push	{r4, r5, r6, lr}
 2495              		.cfi_def_cfa_offset 16
 2496              		.cfi_offset 4, -16
 2497              		.cfi_offset 5, -12
 2498              		.cfi_offset 6, -8
 2499              		.cfi_offset 14, -4
 364:c_array.c     **** 
 2500              		.loc 1 364 0
 2501 0002 8668     		ldr	r6, [r0, #8]
 2502              	.LVL331:
 366:c_array.c     ****   const mrbc_value *p2 = p1 + h->n_stored;
 2503              		.loc 1 366 0
 2504 0004 B068     		ldr	r0, [r6, #8]
 2505              	.LVL332:
 367:c_array.c     ****   while( p1 < p2 ) {
 2506              		.loc 1 367 0
 2507 0006 F588     		ldrh	r5, [r6, #6]
 2508 0008 00EB0515 		add	r5, r0, r5, lsl #4
 2509              	.LVL333:
 368:c_array.c     ****     mrbc_dec_ref_counter(p1++);
 2510              		.loc 1 368 0
 2511 000c 04E0     		b	.L178
 2512              	.L179:
 369:c_array.c     ****   }
 2513              		.loc 1 369 0
 2514 000e 00F11004 		add	r4, r0, #16
 2515              	.LVL334:
 2516 0012 FFF7FEFF 		bl	mrbc_dec_ref_counter
 2517              	.LVL335:
 2518 0016 2046     		mov	r0, r4
 2519              	.LVL336:
 2520              	.L178:
 368:c_array.c     ****     mrbc_dec_ref_counter(p1++);
 2521              		.loc 1 368 0
 2522 0018 A842     		cmp	r0, r5
 2523 001a F8D3     		bcc	.L179
 372:c_array.c     **** }
 2524              		.loc 1 372 0
 2525 001c 0023     		movs	r3, #0
 2526 001e F380     		strh	r3, [r6, #6]	@ movhi
ARM GAS  C:\Users\164\AppData\Local\Temp\ccuYWdBJ.s 			page 69


 2527 0020 70BD     		pop	{r4, r5, r6, pc}
 2528              		.cfi_endproc
 2529              	.LFE97:
 2530              		.size	mrbc_array_clear, .-mrbc_array_clear
 2531 0022 00BF     		.section	.text.c_array_clear,"ax",%progbits
 2532              		.align	2
 2533              		.thumb
 2534              		.thumb_func
 2535              		.type	c_array_clear, %function
 2536              	c_array_clear:
 2537              	.LFB104:
 606:c_array.c     ****   mrbc_array_clear(v);
 2538              		.loc 1 606 0
 2539              		.cfi_startproc
 2540              		@ args = 0, pretend = 0, frame = 0
 2541              		@ frame_needed = 0, uses_anonymous_args = 0
 2542              	.LVL337:
 2543 0000 08B5     		push	{r3, lr}
 2544              		.cfi_def_cfa_offset 8
 2545              		.cfi_offset 3, -8
 2546              		.cfi_offset 14, -4
 607:c_array.c     **** }
 2547              		.loc 1 607 0
 2548 0002 0846     		mov	r0, r1
 2549              	.LVL338:
 2550 0004 FFF7FEFF 		bl	mrbc_array_clear
 2551              	.LVL339:
 2552 0008 08BD     		pop	{r3, pc}
 2553              		.cfi_endproc
 2554              	.LFE104:
 2555              		.size	c_array_clear, .-c_array_clear
 2556 000a 00BF     		.section	.text.mrbc_array_compare,"ax",%progbits
 2557              		.align	2
 2558              		.global	mrbc_array_compare
 2559              		.thumb
 2560              		.thumb_func
 2561              		.type	mrbc_array_compare, %function
 2562              	mrbc_array_compare:
 2563              	.LFB98:
 386:c_array.c     ****   int i;
 2564              		.loc 1 386 0
 2565              		.cfi_startproc
 2566              		@ args = 0, pretend = 0, frame = 0
 2567              		@ frame_needed = 0, uses_anonymous_args = 0
 2568              	.LVL340:
 2569 0000 70B5     		push	{r4, r5, r6, lr}
 2570              		.cfi_def_cfa_offset 16
 2571              		.cfi_offset 4, -16
 2572              		.cfi_offset 5, -12
 2573              		.cfi_offset 6, -8
 2574              		.cfi_offset 14, -4
 2575 0002 0646     		mov	r6, r0
 2576 0004 0D46     		mov	r5, r1
 2577              	.LVL341:
 388:c_array.c     ****     if( i >= mrbc_array_size(v1) || i >= mrbc_array_size(v2) ) {
 2578              		.loc 1 388 0
 2579 0006 0024     		movs	r4, #0
ARM GAS  C:\Users\164\AppData\Local\Temp\ccuYWdBJ.s 			page 70


 2580              	.LVL342:
 2581              	.L187:
 2582              	.LBB116:
 2583              	.LBB117:
 2584              	.LBB118:
 2585              		.loc 2 60 0
 2586 0008 B268     		ldr	r2, [r6, #8]
 2587 000a D388     		ldrh	r3, [r2, #6]
 2588              	.LVL343:
 2589              	.LBE118:
 2590              	.LBE117:
 389:c_array.c     ****       return mrbc_array_size(v1) - mrbc_array_size(v2);
 2591              		.loc 1 389 0
 2592 000c 9C42     		cmp	r4, r3
 2593 000e 03DA     		bge	.L184
 2594              	.LVL344:
 2595              	.LBB119:
 2596              	.LBB120:
 2597              		.loc 2 60 0
 2598 0010 A968     		ldr	r1, [r5, #8]
 2599 0012 C888     		ldrh	r0, [r1, #6]
 2600              	.LVL345:
 2601              	.LBE120:
 2602              	.LBE119:
 389:c_array.c     ****       return mrbc_array_size(v1) - mrbc_array_size(v2);
 2603              		.loc 1 389 0
 2604 0014 8442     		cmp	r4, r0
 2605 0016 03DB     		blt	.L185
 2606              	.L184:
 2607              	.LVL346:
 2608              	.LBB121:
 2609              	.LBB122:
 2610              		.loc 2 60 0
 2611 0018 AA68     		ldr	r2, [r5, #8]
 2612 001a D088     		ldrh	r0, [r2, #6]
 2613              	.LVL347:
 2614              	.LBE122:
 2615              	.LBE121:
 390:c_array.c     ****     }
 2616              		.loc 1 390 0
 2617 001c 181A     		subs	r0, r3, r0
 2618 001e 70BD     		pop	{r4, r5, r6, pc}
 2619              	.LVL348:
 2620              	.L185:
 393:c_array.c     ****     if( res != 0 ) return res;
 2621              		.loc 1 393 0
 2622 0020 9368     		ldr	r3, [r2, #8]
 2623 0022 2001     		lsls	r0, r4, #4
 2624 0024 8968     		ldr	r1, [r1, #8]
 2625 0026 0144     		add	r1, r1, r0
 2626 0028 1844     		add	r0, r0, r3
 2627 002a FFF7FEFF 		bl	mrbc_compare
 2628              	.LVL349:
 394:c_array.c     ****   }
 2629              		.loc 1 394 0
 2630 002e 08B9     		cbnz	r0, .L188
 2631              	.LBE116:
ARM GAS  C:\Users\164\AppData\Local\Temp\ccuYWdBJ.s 			page 71


 388:c_array.c     ****     if( i >= mrbc_array_size(v1) || i >= mrbc_array_size(v2) ) {
 2632              		.loc 1 388 0
 2633 0030 0134     		adds	r4, r4, #1
 2634              	.LVL350:
 395:c_array.c     **** }
 2635              		.loc 1 395 0
 2636 0032 E9E7     		b	.L187
 2637              	.L188:
 396:c_array.c     **** 
 2638              		.loc 1 396 0
 2639 0034 70BD     		pop	{r4, r5, r6, pc}
 2640              		.cfi_endproc
 2641              	.LFE98:
 2642              		.size	mrbc_array_compare, .-mrbc_array_compare
 2643 0036 00BF     		.section	.text.mrbc_array_minmax,"ax",%progbits
 2644              		.align	2
 2645              		.global	mrbc_array_minmax
 2646              		.thumb
 2647              		.thumb_func
 2648              		.type	mrbc_array_minmax, %function
 2649              	mrbc_array_minmax:
 2650              	.LFB99:
 407:c_array.c     ****   mrbc_array *h = ary->array;
 2651              		.loc 1 407 0
 2652              		.cfi_startproc
 2653              		@ args = 0, pretend = 0, frame = 0
 2654              		@ frame_needed = 0, uses_anonymous_args = 0
 2655              	.LVL351:
 2656 0000 2DE9F047 		push	{r4, r5, r6, r7, r8, r9, r10, lr}
 2657              		.cfi_def_cfa_offset 32
 2658              		.cfi_offset 4, -32
 2659              		.cfi_offset 5, -28
 2660              		.cfi_offset 6, -24
 2661              		.cfi_offset 7, -20
 2662              		.cfi_offset 8, -16
 2663              		.cfi_offset 9, -12
 2664              		.cfi_offset 10, -8
 2665              		.cfi_offset 14, -4
 408:c_array.c     **** 
 2666              		.loc 1 408 0
 2667 0004 8468     		ldr	r4, [r0, #8]
 2668              	.LVL352:
 410:c_array.c     ****     *pp_min_value = NULL;
 2669              		.loc 1 410 0
 2670 0006 E388     		ldrh	r3, [r4, #6]
 2671 0008 1BB9     		cbnz	r3, .L191
 411:c_array.c     ****     *pp_max_value = NULL;
 2672              		.loc 1 411 0
 2673 000a 0B60     		str	r3, [r1]
 412:c_array.c     ****     return;
 2674              		.loc 1 412 0
 2675 000c 1360     		str	r3, [r2]
 413:c_array.c     ****   }
 2676              		.loc 1 413 0
 2677 000e BDE8F087 		pop	{r4, r5, r6, r7, r8, r9, r10, pc}
 2678              	.LVL353:
 2679              	.L191:
ARM GAS  C:\Users\164\AppData\Local\Temp\ccuYWdBJ.s 			page 72


 2680 0012 9146     		mov	r9, r2
 2681 0014 8A46     		mov	r10, r1
 416:c_array.c     ****   mrbc_value *p_max_value = h->data;
 2682              		.loc 1 416 0
 2683 0016 D4F80880 		ldr	r8, [r4, #8]
 2684              	.LVL354:
 417:c_array.c     **** 
 2685              		.loc 1 417 0
 2686 001a 4746     		mov	r7, r8
 420:c_array.c     ****     if( mrbc_compare( &h->data[i], p_min_value ) < 0 ) {
 2687              		.loc 1 420 0
 2688 001c 0125     		movs	r5, #1
 2689 001e 14E0     		b	.L193
 2690              	.LVL355:
 2691              	.L196:
 421:c_array.c     ****       p_min_value = &h->data[i];
 2692              		.loc 1 421 0
 2693 0020 A068     		ldr	r0, [r4, #8]
 2694 0022 2E01     		lsls	r6, r5, #4
 2695 0024 4146     		mov	r1, r8
 2696 0026 3044     		add	r0, r0, r6
 2697 0028 FFF7FEFF 		bl	mrbc_compare
 2698              	.LVL356:
 2699 002c 0028     		cmp	r0, #0
 2700 002e 02DA     		bge	.L194
 422:c_array.c     ****     }
 2701              		.loc 1 422 0
 2702 0030 A368     		ldr	r3, [r4, #8]
 2703 0032 03EB0608 		add	r8, r3, r6
 2704              	.LVL357:
 2705              	.L194:
 424:c_array.c     ****       p_max_value = &h->data[i];
 2706              		.loc 1 424 0
 2707 0036 A068     		ldr	r0, [r4, #8]
 2708 0038 3946     		mov	r1, r7
 2709 003a 3044     		add	r0, r0, r6
 2710 003c FFF7FEFF 		bl	mrbc_compare
 2711              	.LVL358:
 2712 0040 0028     		cmp	r0, #0
 2713 0042 01DD     		ble	.L195
 425:c_array.c     ****     }
 2714              		.loc 1 425 0
 2715 0044 A768     		ldr	r7, [r4, #8]
 2716              	.LVL359:
 2717 0046 3744     		add	r7, r7, r6
 2718              	.LVL360:
 2719              	.L195:
 420:c_array.c     ****     if( mrbc_compare( &h->data[i], p_min_value ) < 0 ) {
 2720              		.loc 1 420 0 discriminator 2
 2721 0048 0135     		adds	r5, r5, #1
 2722              	.LVL361:
 2723              	.L193:
 420:c_array.c     ****     if( mrbc_compare( &h->data[i], p_min_value ) < 0 ) {
 2724              		.loc 1 420 0 is_stmt 0 discriminator 1
 2725 004a E388     		ldrh	r3, [r4, #6]
 2726 004c 9D42     		cmp	r5, r3
 2727 004e E7DB     		blt	.L196
ARM GAS  C:\Users\164\AppData\Local\Temp\ccuYWdBJ.s 			page 73


 429:c_array.c     ****   *pp_max_value = p_max_value;
 2728              		.loc 1 429 0 is_stmt 1
 2729 0050 CAF80080 		str	r8, [r10]
 430:c_array.c     **** }
 2730              		.loc 1 430 0
 2731 0054 C9F80070 		str	r7, [r9]
 2732 0058 BDE8F087 		pop	{r4, r5, r6, r7, r8, r9, r10, pc}
 2733              		.cfi_endproc
 2734              	.LFE99:
 2735              		.size	mrbc_array_minmax, .-mrbc_array_minmax
 2736              		.section	.text.c_array_minmax,"ax",%progbits
 2737              		.align	2
 2738              		.thumb
 2739              		.thumb_func
 2740              		.type	c_array_minmax, %function
 2741              	c_array_minmax:
 2742              	.LFB118:
 835:c_array.c     ****   // Subset of Array#minmax, not support minmax(n).
 2743              		.loc 1 835 0
 2744              		.cfi_startproc
 2745              		@ args = 0, pretend = 0, frame = 56
 2746              		@ frame_needed = 0, uses_anonymous_args = 0
 2747              	.LVL362:
 2748 0000 70B5     		push	{r4, r5, r6, lr}
 2749              		.cfi_def_cfa_offset 16
 2750              		.cfi_offset 4, -16
 2751              		.cfi_offset 5, -12
 2752              		.cfi_offset 6, -8
 2753              		.cfi_offset 14, -4
 2754 0002 8EB0     		sub	sp, sp, #56
 2755              		.cfi_def_cfa_offset 72
 2756 0004 0D46     		mov	r5, r1
 839:c_array.c     ****   mrbc_value ret = mrbc_array_new(vm, 2);
 2757              		.loc 1 839 0
 2758 0006 0023     		movs	r3, #0
 2759 0008 0893     		str	r3, [sp, #32]
 2760 000a 0993     		str	r3, [sp, #36]
 2761 000c 0A93     		str	r3, [sp, #40]
 2762 000e 0B93     		str	r3, [sp, #44]
 2763 0010 0123     		movs	r3, #1
 2764 0012 8DF82030 		strb	r3, [sp, #32]
 840:c_array.c     **** 
 2765              		.loc 1 840 0
 2766 0016 0222     		movs	r2, #2
 2767              	.LVL363:
 2768 0018 0146     		mov	r1, r0
 2769              	.LVL364:
 2770 001a 04A8     		add	r0, sp, #16
 2771              	.LVL365:
 2772 001c FFF7FEFF 		bl	mrbc_array_new
 2773              	.LVL366:
 842:c_array.c     ****   if( p_min_value == NULL ) p_min_value = &nil;
 2774              		.loc 1 842 0
 2775 0020 0CAA     		add	r2, sp, #48
 2776 0022 0DA9     		add	r1, sp, #52
 2777 0024 2846     		mov	r0, r5
 2778 0026 FFF7FEFF 		bl	mrbc_array_minmax
ARM GAS  C:\Users\164\AppData\Local\Temp\ccuYWdBJ.s 			page 74


 2779              	.LVL367:
 843:c_array.c     ****   if( p_max_value == NULL ) p_max_value = &nil;
 2780              		.loc 1 843 0
 2781 002a 0D9B     		ldr	r3, [sp, #52]
 2782 002c 0BB9     		cbnz	r3, .L199
 843:c_array.c     ****   if( p_max_value == NULL ) p_max_value = &nil;
 2783              		.loc 1 843 0 is_stmt 0 discriminator 1
 2784 002e 08AB     		add	r3, sp, #32
 2785 0030 0D93     		str	r3, [sp, #52]
 2786              	.L199:
 844:c_array.c     **** 
 2787              		.loc 1 844 0 is_stmt 1
 2788 0032 0C9B     		ldr	r3, [sp, #48]
 2789 0034 0BB9     		cbnz	r3, .L200
 844:c_array.c     **** 
 2790              		.loc 1 844 0 is_stmt 0 discriminator 1
 2791 0036 08AB     		add	r3, sp, #32
 2792 0038 0C93     		str	r3, [sp, #48]
 2793              	.L200:
 846:c_array.c     ****   mrbc_dup(p_max_value);
 2794              		.loc 1 846 0 is_stmt 1
 2795 003a 0D98     		ldr	r0, [sp, #52]
 2796 003c FFF7FEFF 		bl	mrbc_dup
 2797              	.LVL368:
 847:c_array.c     ****   mrbc_array_set(&ret, 0, p_min_value);
 2798              		.loc 1 847 0
 2799 0040 0C98     		ldr	r0, [sp, #48]
 2800 0042 FFF7FEFF 		bl	mrbc_dup
 2801              	.LVL369:
 848:c_array.c     ****   mrbc_array_set(&ret, 1, p_max_value);
 2802              		.loc 1 848 0
 2803 0046 04AE     		add	r6, sp, #16
 2804 0048 0D9A     		ldr	r2, [sp, #52]
 2805 004a 0021     		movs	r1, #0
 2806 004c 3046     		mov	r0, r6
 2807 004e FFF7FEFF 		bl	mrbc_array_set
 2808              	.LVL370:
 849:c_array.c     **** 
 2809              		.loc 1 849 0
 2810 0052 0C9A     		ldr	r2, [sp, #48]
 2811 0054 0121     		movs	r1, #1
 2812 0056 3046     		mov	r0, r6
 2813 0058 FFF7FEFF 		bl	mrbc_array_set
 2814              	.LVL371:
 2815              	.LBB123:
 851:c_array.c     **** }
 2816              		.loc 1 851 0
 2817 005c 96E80F00 		ldmia	r6, {r0, r1, r2, r3}
 2818 0060 8DE80F00 		stmia	sp, {r0, r1, r2, r3}
 2819 0064 2846     		mov	r0, r5
 2820 0066 FFF7FEFF 		bl	mrbc_dec_ref_counter
 2821              	.LVL372:
 2822 006a 9DE80F00 		ldmia	sp, {r0, r1, r2, r3}
 2823 006e 85E80F00 		stmia	r5, {r0, r1, r2, r3}
 2824              	.LBE123:
 852:c_array.c     **** 
 2825              		.loc 1 852 0
ARM GAS  C:\Users\164\AppData\Local\Temp\ccuYWdBJ.s 			page 75


 2826 0072 0EB0     		add	sp, sp, #56
 2827              		.cfi_def_cfa_offset 16
 2828              		@ sp needed
 2829 0074 70BD     		pop	{r4, r5, r6, pc}
 2830              		.cfi_endproc
 2831              	.LFE118:
 2832              		.size	c_array_minmax, .-c_array_minmax
 2833 0076 00BF     		.section	.text.c_array_max,"ax",%progbits
 2834              		.align	2
 2835              		.thumb
 2836              		.thumb_func
 2837              		.type	c_array_max, %function
 2838              	c_array_max:
 2839              	.LFB117:
 815:c_array.c     ****   // Subset of Array#max, not support max(n).
 2840              		.loc 1 815 0
 2841              		.cfi_startproc
 2842              		@ args = 0, pretend = 0, frame = 24
 2843              		@ frame_needed = 0, uses_anonymous_args = 0
 2844              	.LVL373:
 2845 0000 30B5     		push	{r4, r5, lr}
 2846              		.cfi_def_cfa_offset 12
 2847              		.cfi_offset 4, -12
 2848              		.cfi_offset 5, -8
 2849              		.cfi_offset 14, -4
 2850 0002 87B0     		sub	sp, sp, #28
 2851              		.cfi_def_cfa_offset 40
 2852 0004 0D46     		mov	r5, r1
 820:c_array.c     ****   if( p_max_value == NULL ) {
 2853              		.loc 1 820 0
 2854 0006 04AA     		add	r2, sp, #16
 2855              	.LVL374:
 2856 0008 05A9     		add	r1, sp, #20
 2857              	.LVL375:
 2858 000a 2846     		mov	r0, r5
 2859              	.LVL376:
 2860 000c FFF7FEFF 		bl	mrbc_array_minmax
 2861              	.LVL377:
 821:c_array.c     ****     SET_NIL_RETURN();
 2862              		.loc 1 821 0
 2863 0010 0498     		ldr	r0, [sp, #16]
 2864 0012 28B9     		cbnz	r0, .L203
 822:c_array.c     ****     return;
 2865              		.loc 1 822 0
 2866 0014 2846     		mov	r0, r5
 2867 0016 FFF7FEFF 		bl	mrbc_dec_ref_counter
 2868              	.LVL378:
 2869 001a 0123     		movs	r3, #1
 2870 001c 2B70     		strb	r3, [r5]
 2871 001e 0CE0     		b	.L202
 2872              	.L203:
 826:c_array.c     ****   SET_RETURN(*p_max_value);
 2873              		.loc 1 826 0
 2874 0020 FFF7FEFF 		bl	mrbc_dup
 2875              	.LVL379:
 2876              	.LBB124:
 827:c_array.c     **** }
ARM GAS  C:\Users\164\AppData\Local\Temp\ccuYWdBJ.s 			page 76


 2877              		.loc 1 827 0
 2878 0024 049B     		ldr	r3, [sp, #16]
 2879 0026 0FCB     		ldmia	r3, {r0, r1, r2, r3}
 2880 0028 8DE80F00 		stmia	sp, {r0, r1, r2, r3}
 2881 002c 2846     		mov	r0, r5
 2882 002e FFF7FEFF 		bl	mrbc_dec_ref_counter
 2883              	.LVL380:
 2884 0032 9DE80F00 		ldmia	sp, {r0, r1, r2, r3}
 2885 0036 85E80F00 		stmia	r5, {r0, r1, r2, r3}
 2886              	.L202:
 2887              	.LBE124:
 828:c_array.c     **** 
 2888              		.loc 1 828 0
 2889 003a 07B0     		add	sp, sp, #28
 2890              		.cfi_def_cfa_offset 12
 2891              		@ sp needed
 2892 003c 30BD     		pop	{r4, r5, pc}
 2893              		.cfi_endproc
 2894              	.LFE117:
 2895              		.size	c_array_max, .-c_array_max
 2896 003e 00BF     		.section	.text.c_array_min,"ax",%progbits
 2897              		.align	2
 2898              		.thumb
 2899              		.thumb_func
 2900              		.type	c_array_min, %function
 2901              	c_array_min:
 2902              	.LFB116:
 795:c_array.c     ****   // Subset of Array#min, not support min(n).
 2903              		.loc 1 795 0
 2904              		.cfi_startproc
 2905              		@ args = 0, pretend = 0, frame = 24
 2906              		@ frame_needed = 0, uses_anonymous_args = 0
 2907              	.LVL381:
 2908 0000 30B5     		push	{r4, r5, lr}
 2909              		.cfi_def_cfa_offset 12
 2910              		.cfi_offset 4, -12
 2911              		.cfi_offset 5, -8
 2912              		.cfi_offset 14, -4
 2913 0002 87B0     		sub	sp, sp, #28
 2914              		.cfi_def_cfa_offset 40
 2915 0004 0D46     		mov	r5, r1
 800:c_array.c     ****   if( p_min_value == NULL ) {
 2916              		.loc 1 800 0
 2917 0006 04AA     		add	r2, sp, #16
 2918              	.LVL382:
 2919 0008 05A9     		add	r1, sp, #20
 2920              	.LVL383:
 2921 000a 2846     		mov	r0, r5
 2922              	.LVL384:
 2923 000c FFF7FEFF 		bl	mrbc_array_minmax
 2924              	.LVL385:
 801:c_array.c     ****     SET_NIL_RETURN();
 2925              		.loc 1 801 0
 2926 0010 0598     		ldr	r0, [sp, #20]
 2927 0012 28B9     		cbnz	r0, .L207
 802:c_array.c     ****     return;
 2928              		.loc 1 802 0
ARM GAS  C:\Users\164\AppData\Local\Temp\ccuYWdBJ.s 			page 77


 2929 0014 2846     		mov	r0, r5
 2930 0016 FFF7FEFF 		bl	mrbc_dec_ref_counter
 2931              	.LVL386:
 2932 001a 0123     		movs	r3, #1
 2933 001c 2B70     		strb	r3, [r5]
 2934 001e 0CE0     		b	.L206
 2935              	.L207:
 806:c_array.c     ****   SET_RETURN(*p_min_value);
 2936              		.loc 1 806 0
 2937 0020 FFF7FEFF 		bl	mrbc_dup
 2938              	.LVL387:
 2939              	.LBB125:
 807:c_array.c     **** }
 2940              		.loc 1 807 0
 2941 0024 059B     		ldr	r3, [sp, #20]
 2942 0026 0FCB     		ldmia	r3, {r0, r1, r2, r3}
 2943 0028 8DE80F00 		stmia	sp, {r0, r1, r2, r3}
 2944 002c 2846     		mov	r0, r5
 2945 002e FFF7FEFF 		bl	mrbc_dec_ref_counter
 2946              	.LVL388:
 2947 0032 9DE80F00 		ldmia	sp, {r0, r1, r2, r3}
 2948 0036 85E80F00 		stmia	r5, {r0, r1, r2, r3}
 2949              	.L206:
 2950              	.LBE125:
 808:c_array.c     **** 
 2951              		.loc 1 808 0
 2952 003a 07B0     		add	sp, sp, #28
 2953              		.cfi_def_cfa_offset 12
 2954              		@ sp needed
 2955 003c 30BD     		pop	{r4, r5, pc}
 2956              		.cfi_endproc
 2957              	.LFE116:
 2958              		.size	c_array_min, .-c_array_min
 2959 003e 00BF     		.section	.text.mrbc_init_class_array,"ax",%progbits
 2960              		.align	2
 2961              		.global	mrbc_init_class_array
 2962              		.thumb
 2963              		.thumb_func
 2964              		.type	mrbc_init_class_array, %function
 2965              	mrbc_init_class_array:
 2966              	.LFB122:
 924:c_array.c     **** 
 925:c_array.c     **** #endif
 926:c_array.c     **** 
 927:c_array.c     **** 
 928:c_array.c     **** 
 929:c_array.c     **** //================================================================
 930:c_array.c     **** /*! initialize
 931:c_array.c     **** */
 932:c_array.c     **** void mrbc_init_class_array(struct VM *vm)
 933:c_array.c     **** {
 2967              		.loc 1 933 0
 2968              		.cfi_startproc
 2969              		@ args = 0, pretend = 0, frame = 0
 2970              		@ frame_needed = 0, uses_anonymous_args = 0
 2971              	.LVL389:
 2972 0000 F8B5     		push	{r3, r4, r5, r6, r7, lr}
ARM GAS  C:\Users\164\AppData\Local\Temp\ccuYWdBJ.s 			page 78


 2973              		.cfi_def_cfa_offset 24
 2974              		.cfi_offset 3, -24
 2975              		.cfi_offset 4, -20
 2976              		.cfi_offset 5, -16
 2977              		.cfi_offset 6, -12
 2978              		.cfi_offset 7, -8
 2979              		.cfi_offset 14, -4
 2980 0002 0446     		mov	r4, r0
 934:c_array.c     ****   mrbc_class_array = mrbc_define_class(vm, "Array", mrbc_class_object);
 2981              		.loc 1 934 0
 2982 0004 534B     		ldr	r3, .L212
 2983 0006 1A68     		ldr	r2, [r3]
 2984 0008 5349     		ldr	r1, .L212+4
 2985 000a FFF7FEFF 		bl	mrbc_define_class
 2986              	.LVL390:
 2987 000e 0146     		mov	r1, r0
 2988 0010 524D     		ldr	r5, .L212+8
 2989 0012 2860     		str	r0, [r5]
 935:c_array.c     **** 
 936:c_array.c     ****   mrbc_define_method(vm, mrbc_class_array, "new", c_array_new);
 2990              		.loc 1 936 0
 2991 0014 524B     		ldr	r3, .L212+12
 2992 0016 534A     		ldr	r2, .L212+16
 2993 0018 2046     		mov	r0, r4
 2994 001a FFF7FEFF 		bl	mrbc_define_method
 2995              	.LVL391:
 937:c_array.c     ****   mrbc_define_method(vm, mrbc_class_array, "+", c_array_add);
 2996              		.loc 1 937 0
 2997 001e 524B     		ldr	r3, .L212+20
 2998 0020 524A     		ldr	r2, .L212+24
 2999 0022 2968     		ldr	r1, [r5]
 3000 0024 2046     		mov	r0, r4
 3001 0026 FFF7FEFF 		bl	mrbc_define_method
 3002              	.LVL392:
 938:c_array.c     ****   mrbc_define_method(vm, mrbc_class_array, "[]", c_array_get);
 3003              		.loc 1 938 0
 3004 002a 514E     		ldr	r6, .L212+28
 3005 002c 3346     		mov	r3, r6
 3006 002e 514A     		ldr	r2, .L212+32
 3007 0030 2968     		ldr	r1, [r5]
 3008 0032 2046     		mov	r0, r4
 3009 0034 FFF7FEFF 		bl	mrbc_define_method
 3010              	.LVL393:
 939:c_array.c     ****   mrbc_define_method(vm, mrbc_class_array, "at", c_array_get);
 3011              		.loc 1 939 0
 3012 0038 3346     		mov	r3, r6
 3013 003a 4F4A     		ldr	r2, .L212+36
 3014 003c 2968     		ldr	r1, [r5]
 3015 003e 2046     		mov	r0, r4
 3016 0040 FFF7FEFF 		bl	mrbc_define_method
 3017              	.LVL394:
 940:c_array.c     ****   mrbc_define_method(vm, mrbc_class_array, "[]=", c_array_set);
 3018              		.loc 1 940 0
 3019 0044 4D4B     		ldr	r3, .L212+40
 3020 0046 4E4A     		ldr	r2, .L212+44
 3021 0048 2968     		ldr	r1, [r5]
 3022 004a 2046     		mov	r0, r4
ARM GAS  C:\Users\164\AppData\Local\Temp\ccuYWdBJ.s 			page 79


 3023 004c FFF7FEFF 		bl	mrbc_define_method
 3024              	.LVL395:
 941:c_array.c     ****   mrbc_define_method(vm, mrbc_class_array, "<<", c_array_push);
 3025              		.loc 1 941 0
 3026 0050 4C4F     		ldr	r7, .L212+48
 3027 0052 3B46     		mov	r3, r7
 3028 0054 4C4A     		ldr	r2, .L212+52
 3029 0056 2968     		ldr	r1, [r5]
 3030 0058 2046     		mov	r0, r4
 3031 005a FFF7FEFF 		bl	mrbc_define_method
 3032              	.LVL396:
 942:c_array.c     ****   mrbc_define_method(vm, mrbc_class_array, "clear", c_array_clear);
 3033              		.loc 1 942 0
 3034 005e 4B4B     		ldr	r3, .L212+56
 3035 0060 4B4A     		ldr	r2, .L212+60
 3036 0062 2968     		ldr	r1, [r5]
 3037 0064 2046     		mov	r0, r4
 3038 0066 FFF7FEFF 		bl	mrbc_define_method
 3039              	.LVL397:
 943:c_array.c     ****   mrbc_define_method(vm, mrbc_class_array, "delete_at", c_array_delete_at);
 3040              		.loc 1 943 0
 3041 006a 4A4B     		ldr	r3, .L212+64
 3042 006c 4A4A     		ldr	r2, .L212+68
 3043 006e 2968     		ldr	r1, [r5]
 3044 0070 2046     		mov	r0, r4
 3045 0072 FFF7FEFF 		bl	mrbc_define_method
 3046              	.LVL398:
 944:c_array.c     ****   mrbc_define_method(vm, mrbc_class_array, "empty?", c_array_empty);
 3047              		.loc 1 944 0
 3048 0076 494B     		ldr	r3, .L212+72
 3049 0078 494A     		ldr	r2, .L212+76
 3050 007a 2968     		ldr	r1, [r5]
 3051 007c 2046     		mov	r0, r4
 3052 007e FFF7FEFF 		bl	mrbc_define_method
 3053              	.LVL399:
 945:c_array.c     ****   mrbc_define_method(vm, mrbc_class_array, "size", c_array_size);
 3054              		.loc 1 945 0
 3055 0082 484E     		ldr	r6, .L212+80
 3056 0084 3346     		mov	r3, r6
 3057 0086 484A     		ldr	r2, .L212+84
 3058 0088 2968     		ldr	r1, [r5]
 3059 008a 2046     		mov	r0, r4
 3060 008c FFF7FEFF 		bl	mrbc_define_method
 3061              	.LVL400:
 946:c_array.c     ****   mrbc_define_method(vm, mrbc_class_array, "length", c_array_size);
 3062              		.loc 1 946 0
 3063 0090 3346     		mov	r3, r6
 3064 0092 464A     		ldr	r2, .L212+88
 3065 0094 2968     		ldr	r1, [r5]
 3066 0096 2046     		mov	r0, r4
 3067 0098 FFF7FEFF 		bl	mrbc_define_method
 3068              	.LVL401:
 947:c_array.c     ****   mrbc_define_method(vm, mrbc_class_array, "count", c_array_size);
 3069              		.loc 1 947 0
 3070 009c 3346     		mov	r3, r6
 3071 009e 444A     		ldr	r2, .L212+92
 3072 00a0 2968     		ldr	r1, [r5]
ARM GAS  C:\Users\164\AppData\Local\Temp\ccuYWdBJ.s 			page 80


 3073 00a2 2046     		mov	r0, r4
 3074 00a4 FFF7FEFF 		bl	mrbc_define_method
 3075              	.LVL402:
 948:c_array.c     ****   mrbc_define_method(vm, mrbc_class_array, "index", c_array_index);
 3076              		.loc 1 948 0
 3077 00a8 424B     		ldr	r3, .L212+96
 3078 00aa 434A     		ldr	r2, .L212+100
 3079 00ac 2968     		ldr	r1, [r5]
 3080 00ae 2046     		mov	r0, r4
 3081 00b0 FFF7FEFF 		bl	mrbc_define_method
 3082              	.LVL403:
 949:c_array.c     ****   mrbc_define_method(vm, mrbc_class_array, "first", c_array_first);
 3083              		.loc 1 949 0
 3084 00b4 414B     		ldr	r3, .L212+104
 3085 00b6 424A     		ldr	r2, .L212+108
 3086 00b8 2968     		ldr	r1, [r5]
 3087 00ba 2046     		mov	r0, r4
 3088 00bc FFF7FEFF 		bl	mrbc_define_method
 3089              	.LVL404:
 950:c_array.c     ****   mrbc_define_method(vm, mrbc_class_array, "last", c_array_last);
 3090              		.loc 1 950 0
 3091 00c0 404B     		ldr	r3, .L212+112
 3092 00c2 414A     		ldr	r2, .L212+116
 3093 00c4 2968     		ldr	r1, [r5]
 3094 00c6 2046     		mov	r0, r4
 3095 00c8 FFF7FEFF 		bl	mrbc_define_method
 3096              	.LVL405:
 951:c_array.c     ****   mrbc_define_method(vm, mrbc_class_array, "push", c_array_push);
 3097              		.loc 1 951 0
 3098 00cc 3B46     		mov	r3, r7
 3099 00ce 3F4A     		ldr	r2, .L212+120
 3100 00d0 2968     		ldr	r1, [r5]
 3101 00d2 2046     		mov	r0, r4
 3102 00d4 FFF7FEFF 		bl	mrbc_define_method
 3103              	.LVL406:
 952:c_array.c     ****   mrbc_define_method(vm, mrbc_class_array, "pop", c_array_pop);
 3104              		.loc 1 952 0
 3105 00d8 3D4B     		ldr	r3, .L212+124
 3106 00da 3E4A     		ldr	r2, .L212+128
 3107 00dc 2968     		ldr	r1, [r5]
 3108 00de 2046     		mov	r0, r4
 3109 00e0 FFF7FEFF 		bl	mrbc_define_method
 3110              	.LVL407:
 953:c_array.c     ****   mrbc_define_method(vm, mrbc_class_array, "shift", c_array_shift);
 3111              		.loc 1 953 0
 3112 00e4 3C4B     		ldr	r3, .L212+132
 3113 00e6 3D4A     		ldr	r2, .L212+136
 3114 00e8 2968     		ldr	r1, [r5]
 3115 00ea 2046     		mov	r0, r4
 3116 00ec FFF7FEFF 		bl	mrbc_define_method
 3117              	.LVL408:
 954:c_array.c     ****   mrbc_define_method(vm, mrbc_class_array, "unshift", c_array_unshift);
 3118              		.loc 1 954 0
 3119 00f0 3B4B     		ldr	r3, .L212+140
 3120 00f2 3C4A     		ldr	r2, .L212+144
 3121 00f4 2968     		ldr	r1, [r5]
 3122 00f6 2046     		mov	r0, r4
ARM GAS  C:\Users\164\AppData\Local\Temp\ccuYWdBJ.s 			page 81


 3123 00f8 FFF7FEFF 		bl	mrbc_define_method
 3124              	.LVL409:
 955:c_array.c     ****   mrbc_define_method(vm, mrbc_class_array, "dup", c_array_dup);
 3125              		.loc 1 955 0
 3126 00fc 3A4B     		ldr	r3, .L212+148
 3127 00fe 3B4A     		ldr	r2, .L212+152
 3128 0100 2968     		ldr	r1, [r5]
 3129 0102 2046     		mov	r0, r4
 3130 0104 FFF7FEFF 		bl	mrbc_define_method
 3131              	.LVL410:
 956:c_array.c     ****   mrbc_define_method(vm, mrbc_class_array, "min", c_array_min);
 3132              		.loc 1 956 0
 3133 0108 394B     		ldr	r3, .L212+156
 3134 010a 3A4A     		ldr	r2, .L212+160
 3135 010c 2968     		ldr	r1, [r5]
 3136 010e 2046     		mov	r0, r4
 3137 0110 FFF7FEFF 		bl	mrbc_define_method
 3138              	.LVL411:
 957:c_array.c     ****   mrbc_define_method(vm, mrbc_class_array, "max", c_array_max);
 3139              		.loc 1 957 0
 3140 0114 384B     		ldr	r3, .L212+164
 3141 0116 394A     		ldr	r2, .L212+168
 3142 0118 2968     		ldr	r1, [r5]
 3143 011a 2046     		mov	r0, r4
 3144 011c FFF7FEFF 		bl	mrbc_define_method
 3145              	.LVL412:
 958:c_array.c     ****   mrbc_define_method(vm, mrbc_class_array, "minmax", c_array_minmax);
 3146              		.loc 1 958 0
 3147 0120 374B     		ldr	r3, .L212+172
 3148 0122 384A     		ldr	r2, .L212+176
 3149 0124 2968     		ldr	r1, [r5]
 3150 0126 2046     		mov	r0, r4
 3151 0128 FFF7FEFF 		bl	mrbc_define_method
 3152              	.LVL413:
 959:c_array.c     **** #if MRBC_USE_STRING
 960:c_array.c     ****   mrbc_define_method(vm, mrbc_class_array, "inspect", c_array_inspect);
 3153              		.loc 1 960 0
 3154 012c 364E     		ldr	r6, .L212+180
 3155 012e 3346     		mov	r3, r6
 3156 0130 364A     		ldr	r2, .L212+184
 3157 0132 2968     		ldr	r1, [r5]
 3158 0134 2046     		mov	r0, r4
 3159 0136 FFF7FEFF 		bl	mrbc_define_method
 3160              	.LVL414:
 961:c_array.c     ****   mrbc_define_method(vm, mrbc_class_array, "to_s", c_array_inspect);
 3161              		.loc 1 961 0
 3162 013a 3346     		mov	r3, r6
 3163 013c 344A     		ldr	r2, .L212+188
 3164 013e 2968     		ldr	r1, [r5]
 3165 0140 2046     		mov	r0, r4
 3166 0142 FFF7FEFF 		bl	mrbc_define_method
 3167              	.LVL415:
 962:c_array.c     ****   mrbc_define_method(vm, mrbc_class_array, "join", c_array_join);
 3168              		.loc 1 962 0
 3169 0146 334B     		ldr	r3, .L212+192
 3170 0148 334A     		ldr	r2, .L212+196
 3171 014a 2968     		ldr	r1, [r5]
ARM GAS  C:\Users\164\AppData\Local\Temp\ccuYWdBJ.s 			page 82


 3172 014c 2046     		mov	r0, r4
 3173 014e FFF7FEFF 		bl	mrbc_define_method
 3174              	.LVL416:
 3175 0152 F8BD     		pop	{r3, r4, r5, r6, r7, pc}
 3176              	.LVL417:
 3177              	.L213:
 3178              		.align	2
 3179              	.L212:
 3180 0154 00000000 		.word	mrbc_class_object
 3181 0158 B0000000 		.word	.LC11
 3182 015c 00000000 		.word	mrbc_class_array
 3183 0160 00000000 		.word	c_array_new
 3184 0164 B8000000 		.word	.LC12
 3185 0168 00000000 		.word	c_array_add
 3186 016c BC000000 		.word	.LC13
 3187 0170 00000000 		.word	c_array_get
 3188 0174 C0000000 		.word	.LC14
 3189 0178 C4000000 		.word	.LC15
 3190 017c 00000000 		.word	c_array_set
 3191 0180 C8000000 		.word	.LC16
 3192 0184 00000000 		.word	c_array_push
 3193 0188 CC000000 		.word	.LC17
 3194 018c 00000000 		.word	c_array_clear
 3195 0190 D0000000 		.word	.LC18
 3196 0194 00000000 		.word	c_array_delete_at
 3197 0198 D8000000 		.word	.LC19
 3198 019c 00000000 		.word	c_array_empty
 3199 01a0 E4000000 		.word	.LC20
 3200 01a4 00000000 		.word	c_array_size
 3201 01a8 EC000000 		.word	.LC21
 3202 01ac F4000000 		.word	.LC22
 3203 01b0 FC000000 		.word	.LC23
 3204 01b4 00000000 		.word	c_array_index
 3205 01b8 04010000 		.word	.LC24
 3206 01bc 00000000 		.word	c_array_first
 3207 01c0 0C010000 		.word	.LC25
 3208 01c4 00000000 		.word	c_array_last
 3209 01c8 14010000 		.word	.LC26
 3210 01cc 1C010000 		.word	.LC27
 3211 01d0 00000000 		.word	c_array_pop
 3212 01d4 24010000 		.word	.LC28
 3213 01d8 00000000 		.word	c_array_shift
 3214 01dc 28010000 		.word	.LC29
 3215 01e0 00000000 		.word	c_array_unshift
 3216 01e4 30010000 		.word	.LC30
 3217 01e8 00000000 		.word	c_array_dup
 3218 01ec 38010000 		.word	.LC31
 3219 01f0 00000000 		.word	c_array_min
 3220 01f4 3C010000 		.word	.LC32
 3221 01f8 00000000 		.word	c_array_max
 3222 01fc 40010000 		.word	.LC33
 3223 0200 00000000 		.word	c_array_minmax
 3224 0204 44010000 		.word	.LC34
 3225 0208 00000000 		.word	c_array_inspect
 3226 020c 54000000 		.word	.LC7
 3227 0210 00000000 		.word	.LC0
 3228 0214 00000000 		.word	c_array_join
ARM GAS  C:\Users\164\AppData\Local\Temp\ccuYWdBJ.s 			page 83


 3229 0218 4C010000 		.word	.LC35
 3230              		.cfi_endproc
 3231              	.LFE122:
 3232              		.size	mrbc_init_class_array, .-mrbc_init_class_array
 3233              		.section	.rodata.str1.4,"aMS",%progbits,1
 3234              		.align	2
 3235              	.LC0:
 3236 0000 746F5F73 		.ascii	"to_s\000"
 3236      00
 3237 0005 000000   		.space	3
 3238              	.LC1:
 3239 0008 00       		.ascii	"\000"
 3240 0009 000000   		.space	3
 3241              	.LC2:
 3242 000c 54797065 		.ascii	"TypeError\012\000"
 3242      4572726F 
 3242      720A00
 3243 0017 00       		.space	1
 3244              	.LC3:
 3245 0018 4E6F7420 		.ascii	"Not support such case in Array#[].\012\000"
 3245      73757070 
 3245      6F727420 
 3245      73756368 
 3245      20636173 
 3246              	.LC4:
 3247 003c 41726775 		.ascii	"ArgumentError\012\000"
 3247      6D656E74 
 3247      4572726F 
 3247      720A00
 3248 004b 00       		.space	1
 3249              	.LC5:
 3250 004c 5B00     		.ascii	"[\000"
 3251 004e 0000     		.space	2
 3252              	.LC6:
 3253 0050 2C2000   		.ascii	", \000"
 3254 0053 00       		.space	1
 3255              	.LC7:
 3256 0054 696E7370 		.ascii	"inspect\000"
 3256      65637400 
 3257              	.LC8:
 3258 005c 5D00     		.ascii	"]\000"
 3259 005e 0000     		.space	2
 3260              	.LC9:
 3261 0060 4E6F7420 		.ascii	"Not support such case in Array#pop.\012\000"
 3261      73757070 
 3261      6F727420 
 3261      73756368 
 3261      20636173 
 3262 0085 000000   		.space	3
 3263              	.LC10:
 3264 0088 4E6F7420 		.ascii	"Not support such case in Array#shift.\012\000"
 3264      73757070 
 3264      6F727420 
 3264      73756368 
 3264      20636173 
 3265 00af 00       		.space	1
 3266              	.LC11:
ARM GAS  C:\Users\164\AppData\Local\Temp\ccuYWdBJ.s 			page 84


 3267 00b0 41727261 		.ascii	"Array\000"
 3267      7900
 3268 00b6 0000     		.space	2
 3269              	.LC12:
 3270 00b8 6E657700 		.ascii	"new\000"
 3271              	.LC13:
 3272 00bc 2B00     		.ascii	"+\000"
 3273 00be 0000     		.space	2
 3274              	.LC14:
 3275 00c0 5B5D00   		.ascii	"[]\000"
 3276 00c3 00       		.space	1
 3277              	.LC15:
 3278 00c4 617400   		.ascii	"at\000"
 3279 00c7 00       		.space	1
 3280              	.LC16:
 3281 00c8 5B5D3D00 		.ascii	"[]=\000"
 3282              	.LC17:
 3283 00cc 3C3C00   		.ascii	"<<\000"
 3284 00cf 00       		.space	1
 3285              	.LC18:
 3286 00d0 636C6561 		.ascii	"clear\000"
 3286      7200
 3287 00d6 0000     		.space	2
 3288              	.LC19:
 3289 00d8 64656C65 		.ascii	"delete_at\000"
 3289      74655F61 
 3289      7400
 3290 00e2 0000     		.space	2
 3291              	.LC20:
 3292 00e4 656D7074 		.ascii	"empty?\000"
 3292      793F00
 3293 00eb 00       		.space	1
 3294              	.LC21:
 3295 00ec 73697A65 		.ascii	"size\000"
 3295      00
 3296 00f1 000000   		.space	3
 3297              	.LC22:
 3298 00f4 6C656E67 		.ascii	"length\000"
 3298      746800
 3299 00fb 00       		.space	1
 3300              	.LC23:
 3301 00fc 636F756E 		.ascii	"count\000"
 3301      7400
 3302 0102 0000     		.space	2
 3303              	.LC24:
 3304 0104 696E6465 		.ascii	"index\000"
 3304      7800
 3305 010a 0000     		.space	2
 3306              	.LC25:
 3307 010c 66697273 		.ascii	"first\000"
 3307      7400
 3308 0112 0000     		.space	2
 3309              	.LC26:
 3310 0114 6C617374 		.ascii	"last\000"
 3310      00
 3311 0119 000000   		.space	3
 3312              	.LC27:
ARM GAS  C:\Users\164\AppData\Local\Temp\ccuYWdBJ.s 			page 85


 3313 011c 70757368 		.ascii	"push\000"
 3313      00
 3314 0121 000000   		.space	3
 3315              	.LC28:
 3316 0124 706F7000 		.ascii	"pop\000"
 3317              	.LC29:
 3318 0128 73686966 		.ascii	"shift\000"
 3318      7400
 3319 012e 0000     		.space	2
 3320              	.LC30:
 3321 0130 756E7368 		.ascii	"unshift\000"
 3321      69667400 
 3322              	.LC31:
 3323 0138 64757000 		.ascii	"dup\000"
 3324              	.LC32:
 3325 013c 6D696E00 		.ascii	"min\000"
 3326              	.LC33:
 3327 0140 6D617800 		.ascii	"max\000"
 3328              	.LC34:
 3329 0144 6D696E6D 		.ascii	"minmax\000"
 3329      617800
 3330 014b 00       		.space	1
 3331              	.LC35:
 3332 014c 6A6F696E 		.ascii	"join\000"
 3332      00
 3333              		.text
 3334              	.Letext0:
 3335              		.file 4 "c:\\program files (x86)\\cypress\\psoc creator\\4.2\\psoc creator\\import\\gnu\\arm\\5.4.
 3336              		.file 5 "c:\\program files (x86)\\cypress\\psoc creator\\4.2\\psoc creator\\import\\gnu\\arm\\5.4.
 3337              		.file 6 "value.h"
 3338              		.file 7 "vm.h"
 3339              		.file 8 "c_string.h"
 3340              		.file 9 "static.h"
 3341              		.file 10 "Generated_Source\\PSoC5/core_cm3.h"
 3342              		.file 11 "class.h"
 3343              		.file 12 "alloc.h"
 3344              		.file 13 "hal/hal.h"
 3345              		.file 14 "c:\\program files (x86)\\cypress\\psoc creator\\4.2\\psoc creator\\import\\gnu\\arm\\5.4