ARM GAS  C:\Users\164\AppData\Local\Temp\ccuYWdBJ.s 			page 1


   1              		.syntax unified
   2              		.cpu cortex-m3
   3              		.fpu softvfp
   4              		.eabi_attribute 20, 1
   5              		.eabi_attribute 21, 1
   6              		.eabi_attribute 23, 3
   7              		.eabi_attribute 24, 1
   8              		.eabi_attribute 25, 1
   9              		.eabi_attribute 26, 1
  10              		.eabi_attribute 30, 1
  11              		.eabi_attribute 34, 1
  12              		.eabi_attribute 18, 4
  13              		.thumb
  14              		.syntax unified
  15              		.file	"c_array.c"
  16              		.text
  17              	.Ltext0:
  18              		.cfi_sections	.debug_frame
  19              		.section	.text.c_array_size,"ax",%progbits
  20              		.align	2
  21              		.thumb
  22              		.thumb_func
  23              		.type	c_array_size, %function
  24              	c_array_size:
  25              	.LFB107:
  26              		.file 1 "c_array.c"
   1:c_array.c     **** /*! @file
   2:c_array.c     ****   @brief
   3:c_array.c     ****   mruby/c Array class
   4:c_array.c     **** 
   5:c_array.c     ****   <pre>
   6:c_array.c     ****   Copyright (C) 2015-2018 Kyushu Institute of Technology.
   7:c_array.c     ****   Copyright (C) 2015-2018 Shimane IT Open-Innovation Center.
   8:c_array.c     **** 
   9:c_array.c     ****   This file is distributed under BSD 3-Clause License.
  10:c_array.c     **** 
  11:c_array.c     ****   </pre>
  12:c_array.c     **** */
  13:c_array.c     **** 
  14:c_array.c     **** #include "vm_config.h"
  15:c_array.c     **** #include <string.h>
  16:c_array.c     **** #include <assert.h>
  17:c_array.c     **** 
  18:c_array.c     **** #include "value.h"
  19:c_array.c     **** #include "vm.h"
  20:c_array.c     **** #include "alloc.h"
  21:c_array.c     **** #include "static.h"
  22:c_array.c     **** #include "class.h"
  23:c_array.c     **** #include "c_array.h"
  24:c_array.c     **** #include "c_string.h"
  25:c_array.c     **** #include "console.h"
  26:c_array.c     **** #include "opcode.h"
  27:c_array.c     **** 
  28:c_array.c     **** /*
  29:c_array.c     ****   function summary
  30:c_array.c     **** 
  31:c_array.c     ****  (constructor)
ARM GAS  C:\Users\164\AppData\Local\Temp\ccuYWdBJ.s 			page 2


  32:c_array.c     ****     mrbc_array_new
  33:c_array.c     **** 
  34:c_array.c     ****  (destructor)
  35:c_array.c     ****     mrbc_array_delete
  36:c_array.c     **** 
  37:c_array.c     ****  (setter)
  38:c_array.c     ****   --[name]-------------[arg]---[ret]-------------------------------------------
  39:c_array.c     ****     mrbc_array_set	*T	int
  40:c_array.c     ****     mrbc_array_push	*T	int
  41:c_array.c     ****     mrbc_array_unshift	*T	int
  42:c_array.c     ****     mrbc_array_insert	*T	int
  43:c_array.c     **** 
  44:c_array.c     ****  (getter)
  45:c_array.c     ****   --[name]-------------[arg]---[ret]---[note]----------------------------------
  46:c_array.c     ****     mrbc_array_get		T	Data remains in the container
  47:c_array.c     ****     mrbc_array_pop		T	Data does not remain in the container
  48:c_array.c     ****     mrbc_array_shift		T	Data does not remain in the container
  49:c_array.c     ****     mrbc_array_remove		T	Data does not remain in the container
  50:c_array.c     **** 
  51:c_array.c     ****  (others)
  52:c_array.c     ****     mrbc_array_resize
  53:c_array.c     ****     mrbc_array_clear
  54:c_array.c     ****     mrbc_array_compare
  55:c_array.c     ****     mrbc_array_minmax
  56:c_array.c     **** */
  57:c_array.c     **** 
  58:c_array.c     **** 
  59:c_array.c     **** //================================================================
  60:c_array.c     **** /*! constructor
  61:c_array.c     **** 
  62:c_array.c     ****   @param  vm	pointer to VM.
  63:c_array.c     ****   @param  size	initial size
  64:c_array.c     ****   @return 	array object
  65:c_array.c     **** */
  66:c_array.c     **** mrbc_value mrbc_array_new(struct VM *vm, int size)
  67:c_array.c     **** {
  68:c_array.c     ****   mrbc_value value = {.tt = MRBC_TT_ARRAY};
  69:c_array.c     **** 
  70:c_array.c     ****   /*
  71:c_array.c     ****     Allocate handle and data buffer.
  72:c_array.c     ****   */
  73:c_array.c     ****   mrbc_array *h = mrbc_alloc(vm, sizeof(mrbc_array));
  74:c_array.c     ****   if( !h ) return value;	// ENOMEM
  75:c_array.c     **** 
  76:c_array.c     ****   mrbc_value *data = mrbc_alloc(vm, sizeof(mrbc_value) * size);
  77:c_array.c     ****   if( !data ) {			// ENOMEM
  78:c_array.c     ****     mrbc_raw_free( h );
  79:c_array.c     ****     return value;
  80:c_array.c     ****   }
  81:c_array.c     **** 
  82:c_array.c     ****   h->ref_count = 1;
  83:c_array.c     ****   h->tt = MRBC_TT_ARRAY;
  84:c_array.c     ****   h->data_size = size;
  85:c_array.c     ****   h->n_stored = 0;
  86:c_array.c     ****   h->data = data;
  87:c_array.c     **** 
  88:c_array.c     ****   value.array = h;
ARM GAS  C:\Users\164\AppData\Local\Temp\ccuYWdBJ.s 			page 3


  89:c_array.c     ****   return value;
  90:c_array.c     **** }
  91:c_array.c     **** 
  92:c_array.c     **** 
  93:c_array.c     **** //================================================================
  94:c_array.c     **** /*! destructor
  95:c_array.c     **** 
  96:c_array.c     ****   @param  ary	pointer to target value
  97:c_array.c     **** */
  98:c_array.c     **** void mrbc_array_delete(mrbc_value *ary)
  99:c_array.c     **** {
 100:c_array.c     ****   mrbc_array *h = ary->array;
 101:c_array.c     **** 
 102:c_array.c     ****   mrbc_value *p1 = h->data;
 103:c_array.c     ****   const mrbc_value *p2 = p1 + h->n_stored;
 104:c_array.c     ****   while( p1 < p2 ) {
 105:c_array.c     ****     mrbc_dec_ref_counter(p1++);
 106:c_array.c     ****   }
 107:c_array.c     **** 
 108:c_array.c     ****   mrbc_raw_free(h->data);
 109:c_array.c     ****   mrbc_raw_free(h);
 110:c_array.c     **** }
 111:c_array.c     **** 
 112:c_array.c     **** 
 113:c_array.c     **** //================================================================
 114:c_array.c     **** /*! clear vm_id
 115:c_array.c     **** 
 116:c_array.c     ****   @param  ary	pointer to target value
 117:c_array.c     **** */
 118:c_array.c     **** void mrbc_array_clear_vm_id(mrbc_value *ary)
 119:c_array.c     **** {
 120:c_array.c     ****   mrbc_array *h = ary->array;
 121:c_array.c     **** 
 122:c_array.c     ****   mrbc_set_vm_id( h, 0 );
 123:c_array.c     **** 
 124:c_array.c     ****   mrbc_value *p1 = h->data;
 125:c_array.c     ****   const mrbc_value *p2 = p1 + h->n_stored;
 126:c_array.c     ****   while( p1 < p2 ) {
 127:c_array.c     ****     mrbc_clear_vm_id(p1++);
 128:c_array.c     ****   }
 129:c_array.c     **** }
 130:c_array.c     **** 
 131:c_array.c     **** 
 132:c_array.c     **** //================================================================
 133:c_array.c     **** /*! resize buffer
 134:c_array.c     **** 
 135:c_array.c     ****   @param  ary	pointer to target value
 136:c_array.c     ****   @param  size	size
 137:c_array.c     ****   @return	mrbc_error_code
 138:c_array.c     **** */
 139:c_array.c     **** int mrbc_array_resize(mrbc_value *ary, int size)
 140:c_array.c     **** {
 141:c_array.c     ****   mrbc_array *h = ary->array;
 142:c_array.c     **** 
 143:c_array.c     ****   mrbc_value *data2 = mrbc_raw_realloc(h->data, sizeof(mrbc_value) * size);
 144:c_array.c     ****   if( !data2 ) return E_NOMEMORY_ERROR;	// ENOMEM
 145:c_array.c     **** 
ARM GAS  C:\Users\164\AppData\Local\Temp\ccuYWdBJ.s 			page 4


 146:c_array.c     ****   h->data = data2;
 147:c_array.c     ****   h->data_size = size;
 148:c_array.c     **** 
 149:c_array.c     ****   return 0;
 150:c_array.c     **** }
 151:c_array.c     **** 
 152:c_array.c     **** 
 153:c_array.c     **** //================================================================
 154:c_array.c     **** /*! setter
 155:c_array.c     **** 
 156:c_array.c     ****   @param  ary		pointer to target value
 157:c_array.c     ****   @param  idx		index
 158:c_array.c     ****   @param  set_val	set value
 159:c_array.c     ****   @return		mrbc_error_code
 160:c_array.c     **** */
 161:c_array.c     **** int mrbc_array_set(mrbc_value *ary, int idx, mrbc_value *set_val)
 162:c_array.c     **** {
 163:c_array.c     ****   mrbc_array *h = ary->array;
 164:c_array.c     **** 
 165:c_array.c     ****   if( idx < 0 ) {
 166:c_array.c     ****     idx = h->n_stored + idx;
 167:c_array.c     ****     if( idx < 0 ) return E_INDEX_ERROR;		// raise?
 168:c_array.c     ****   }
 169:c_array.c     **** 
 170:c_array.c     ****   // need resize?
 171:c_array.c     ****   if( idx >= h->data_size && mrbc_array_resize(ary, idx + 1) != 0 ) {
 172:c_array.c     ****     return E_NOMEMORY_ERROR;			// ENOMEM
 173:c_array.c     ****   }
 174:c_array.c     **** 
 175:c_array.c     ****   if( idx < h->n_stored ) {
 176:c_array.c     ****     // release existing data.
 177:c_array.c     ****     mrbc_dec_ref_counter( &h->data[idx] );
 178:c_array.c     ****   } else {
 179:c_array.c     ****     // clear empty cells.
 180:c_array.c     ****     int i;
 181:c_array.c     ****     for( i = h->n_stored; i < idx; i++ ) {
 182:c_array.c     ****       h->data[i] = mrbc_nil_value();
 183:c_array.c     ****     }
 184:c_array.c     ****     h->n_stored = idx + 1;
 185:c_array.c     ****   }
 186:c_array.c     **** 
 187:c_array.c     ****   h->data[idx] = *set_val;
 188:c_array.c     **** 
 189:c_array.c     ****   return 0;
 190:c_array.c     **** }
 191:c_array.c     **** 
 192:c_array.c     **** 
 193:c_array.c     **** //================================================================
 194:c_array.c     **** /*! getter
 195:c_array.c     **** 
 196:c_array.c     ****   @param  ary		pointer to target value
 197:c_array.c     ****   @param  idx		index
 198:c_array.c     ****   @return		mrbc_value data at index position or Nil.
 199:c_array.c     **** */
 200:c_array.c     **** mrbc_value mrbc_array_get(mrbc_value *ary, int idx)
 201:c_array.c     **** {
 202:c_array.c     ****   mrbc_array *h = ary->array;
ARM GAS  C:\Users\164\AppData\Local\Temp\ccuYWdBJ.s 			page 5


 203:c_array.c     **** 
 204:c_array.c     ****   if( idx < 0 ) idx = h->n_stored + idx;
 205:c_array.c     ****   if( idx < 0 || idx >= h->n_stored ) return mrbc_nil_value();
 206:c_array.c     **** 
 207:c_array.c     ****   return h->data[idx];
 208:c_array.c     **** }
 209:c_array.c     **** 
 210:c_array.c     **** 
 211:c_array.c     **** //================================================================
 212:c_array.c     **** /*! push a data to tail
 213:c_array.c     **** 
 214:c_array.c     ****   @param  ary		pointer to target value
 215:c_array.c     ****   @param  set_val	set value
 216:c_array.c     ****   @return		mrbc_error_code
 217:c_array.c     **** */
 218:c_array.c     **** int mrbc_array_push(mrbc_value *ary, mrbc_value *set_val)
 219:c_array.c     **** {
 220:c_array.c     ****   mrbc_array *h = ary->array;
 221:c_array.c     **** 
 222:c_array.c     ****   if( h->n_stored >= h->data_size ) {
 223:c_array.c     ****     int size = h->data_size + 6;
 224:c_array.c     ****     if( mrbc_array_resize(ary, size) != 0 )
 225:c_array.c     ****       return E_NOMEMORY_ERROR;		// ENOMEM
 226:c_array.c     ****   }
 227:c_array.c     **** 
 228:c_array.c     ****   h->data[h->n_stored++] = *set_val;
 229:c_array.c     **** 
 230:c_array.c     ****   return 0;
 231:c_array.c     **** }
 232:c_array.c     **** 
 233:c_array.c     **** 
 234:c_array.c     **** //================================================================
 235:c_array.c     **** /*! pop a data from tail.
 236:c_array.c     **** 
 237:c_array.c     ****   @param  ary		pointer to target value
 238:c_array.c     ****   @return		tail data or Nil
 239:c_array.c     **** */
 240:c_array.c     **** mrbc_value mrbc_array_pop(mrbc_value *ary)
 241:c_array.c     **** {
 242:c_array.c     ****   mrbc_array *h = ary->array;
 243:c_array.c     **** 
 244:c_array.c     ****   if( h->n_stored <= 0 ) return mrbc_nil_value();
 245:c_array.c     ****   return h->data[--h->n_stored];
 246:c_array.c     **** }
 247:c_array.c     **** 
 248:c_array.c     **** 
 249:c_array.c     **** //================================================================
 250:c_array.c     **** /*! insert a data to the first.
 251:c_array.c     **** 
 252:c_array.c     ****   @param  ary		pointer to target value
 253:c_array.c     ****   @param  set_val	set value
 254:c_array.c     ****   @return		mrbc_error_code
 255:c_array.c     **** */
 256:c_array.c     **** int mrbc_array_unshift(mrbc_value *ary, mrbc_value *set_val)
 257:c_array.c     **** {
 258:c_array.c     ****   return mrbc_array_insert(ary, 0, set_val);
 259:c_array.c     **** }
ARM GAS  C:\Users\164\AppData\Local\Temp\ccuYWdBJ.s 			page 6


 260:c_array.c     **** 
 261:c_array.c     **** 
 262:c_array.c     **** //================================================================
 263:c_array.c     **** /*! removes the first data and returns it.
 264:c_array.c     **** 
 265:c_array.c     ****   @param  ary		pointer to target value
 266:c_array.c     ****   @return		first data or Nil
 267:c_array.c     **** */
 268:c_array.c     **** mrbc_value mrbc_array_shift(mrbc_value *ary)
 269:c_array.c     **** {
 270:c_array.c     ****   mrbc_array *h = ary->array;
 271:c_array.c     **** 
 272:c_array.c     ****   if( h->n_stored <= 0 ) return mrbc_nil_value();
 273:c_array.c     **** 
 274:c_array.c     ****   mrbc_value ret = h->data[0];
 275:c_array.c     ****   memmove(h->data, h->data+1, sizeof(mrbc_value) * --h->n_stored);
 276:c_array.c     **** 
 277:c_array.c     ****   return ret;
 278:c_array.c     **** }
 279:c_array.c     **** 
 280:c_array.c     **** 
 281:c_array.c     **** //================================================================
 282:c_array.c     **** /*! insert a data
 283:c_array.c     **** 
 284:c_array.c     ****   @param  ary		pointer to target value
 285:c_array.c     ****   @param  idx		index
 286:c_array.c     ****   @param  set_val	set value
 287:c_array.c     ****   @return		mrbc_error_code
 288:c_array.c     **** */
 289:c_array.c     **** int mrbc_array_insert(mrbc_value *ary, int idx, mrbc_value *set_val)
 290:c_array.c     **** {
 291:c_array.c     ****   mrbc_array *h = ary->array;
 292:c_array.c     **** 
 293:c_array.c     ****   if( idx < 0 ) {
 294:c_array.c     ****     idx = h->n_stored + idx + 1;
 295:c_array.c     ****     if( idx < 0 ) return E_INDEX_ERROR;		// raise?
 296:c_array.c     ****   }
 297:c_array.c     **** 
 298:c_array.c     ****   // need resize?
 299:c_array.c     ****   int size = 0;
 300:c_array.c     ****   if( idx >= h->data_size ) {
 301:c_array.c     ****     size = idx + 1;
 302:c_array.c     ****   } else if( h->n_stored >= h->data_size ) {
 303:c_array.c     ****     size = h->data_size + 1;
 304:c_array.c     ****   }
 305:c_array.c     ****   if( size && mrbc_array_resize(ary, size) != 0 ) {
 306:c_array.c     ****     return E_NOMEMORY_ERROR;			// ENOMEM
 307:c_array.c     ****   }
 308:c_array.c     **** 
 309:c_array.c     ****   // move datas.
 310:c_array.c     ****   if( idx < h->n_stored ) {
 311:c_array.c     ****     memmove(h->data + idx + 1, h->data + idx,
 312:c_array.c     **** 	    sizeof(mrbc_value) * (h->n_stored - idx));
 313:c_array.c     ****   }
 314:c_array.c     **** 
 315:c_array.c     ****   // set data
 316:c_array.c     ****   h->data[idx] = *set_val;
ARM GAS  C:\Users\164\AppData\Local\Temp\ccuYWdBJ.s 			page 7


 317:c_array.c     ****   h->n_stored++;
 318:c_array.c     **** 
 319:c_array.c     ****   // clear empty cells if need.
 320:c_array.c     ****   if( idx >= h->n_stored ) {
 321:c_array.c     ****     int i;
 322:c_array.c     ****     for( i = h->n_stored-1; i < idx; i++ ) {
 323:c_array.c     ****       h->data[i] = mrbc_nil_value();
 324:c_array.c     ****     }
 325:c_array.c     ****     h->n_stored = idx + 1;
 326:c_array.c     ****   }
 327:c_array.c     **** 
 328:c_array.c     ****   return 0;
 329:c_array.c     **** }
 330:c_array.c     **** 
 331:c_array.c     **** 
 332:c_array.c     **** //================================================================
 333:c_array.c     **** /*! remove a data
 334:c_array.c     **** 
 335:c_array.c     ****   @param  ary		pointer to target value
 336:c_array.c     ****   @param  idx		index
 337:c_array.c     ****   @return		mrbc_value data at index position or Nil.
 338:c_array.c     **** */
 339:c_array.c     **** mrbc_value mrbc_array_remove(mrbc_value *ary, int idx)
 340:c_array.c     **** {
 341:c_array.c     ****   mrbc_array *h = ary->array;
 342:c_array.c     **** 
 343:c_array.c     ****   if( idx < 0 ) idx = h->n_stored + idx;
 344:c_array.c     ****   if( idx < 0 || idx >= h->n_stored ) return mrbc_nil_value();
 345:c_array.c     **** 
 346:c_array.c     ****   mrbc_value val = h->data[idx];
 347:c_array.c     ****   h->n_stored--;
 348:c_array.c     ****   if( idx < h->n_stored ) {
 349:c_array.c     ****     memmove(h->data + idx, h->data + idx + 1,
 350:c_array.c     **** 	    sizeof(mrbc_value) * (h->n_stored - idx));
 351:c_array.c     ****   }
 352:c_array.c     **** 
 353:c_array.c     ****   return val;
 354:c_array.c     **** }
 355:c_array.c     **** 
 356:c_array.c     **** 
 357:c_array.c     **** //================================================================
 358:c_array.c     **** /*! clear all
 359:c_array.c     **** 
 360:c_array.c     ****   @param  ary		pointer to target value
 361:c_array.c     **** */
 362:c_array.c     **** void mrbc_array_clear(mrbc_value *ary)
 363:c_array.c     **** {
 364:c_array.c     ****   mrbc_array *h = ary->array;
 365:c_array.c     **** 
 366:c_array.c     ****   mrbc_value *p1 = h->data;
 367:c_array.c     ****   const mrbc_value *p2 = p1 + h->n_stored;
 368:c_array.c     ****   while( p1 < p2 ) {
 369:c_array.c     ****     mrbc_dec_ref_counter(p1++);
 370:c_array.c     ****   }
 371:c_array.c     **** 
 372:c_array.c     ****   h->n_stored = 0;
 373:c_array.c     **** }
ARM GAS  C:\Users\164\AppData\Local\Temp\ccuYWdBJ.s 			page 8


 374:c_array.c     **** 
 375:c_array.c     **** 
 376:c_array.c     **** //================================================================
 377:c_array.c     **** /*! compare
 378:c_array.c     **** 
 379:c_array.c     ****   @param  v1	Pointer to mrbc_value
 380:c_array.c     ****   @param  v2	Pointer to another mrbc_value
 381:c_array.c     ****   @retval 0	v1 == v2
 382:c_array.c     ****   @retval plus	v1 >  v2
 383:c_array.c     ****   @retval minus	v1 <  v2
 384:c_array.c     **** */
 385:c_array.c     **** int mrbc_array_compare(const mrbc_value *v1, const mrbc_value *v2)
 386:c_array.c     **** {
 387:c_array.c     ****   int i;
 388:c_array.c     ****   for( i = 0; ; i++ ) {
 389:c_array.c     ****     if( i >= mrbc_array_size(v1) || i >= mrbc_array_size(v2) ) {
 390:c_array.c     ****       return mrbc_array_size(v1) - mrbc_array_size(v2);
 391:c_array.c     ****     }
 392:c_array.c     **** 
 393:c_array.c     ****     int res = mrbc_compare( &v1->array->data[i], &v2->array->data[i] );
 394:c_array.c     ****     if( res != 0 ) return res;
 395:c_array.c     ****   }
 396:c_array.c     **** }
 397:c_array.c     **** 
 398:c_array.c     **** 
 399:c_array.c     **** //================================================================
 400:c_array.c     **** /*! get min, max value
 401:c_array.c     **** 
 402:c_array.c     ****   @param  ary		pointer to target value
 403:c_array.c     ****   @param  pp_min_value	returns minimum mrbc_value
 404:c_array.c     ****   @param  pp_max_value	returns maxmum mrbc_value
 405:c_array.c     **** */
 406:c_array.c     **** void mrbc_array_minmax(mrbc_value *ary, mrbc_value **pp_min_value, mrbc_value **pp_max_value)
 407:c_array.c     **** {
 408:c_array.c     ****   mrbc_array *h = ary->array;
 409:c_array.c     **** 
 410:c_array.c     ****   if( h->n_stored == 0 ) {
 411:c_array.c     ****     *pp_min_value = NULL;
 412:c_array.c     ****     *pp_max_value = NULL;
 413:c_array.c     ****     return;
 414:c_array.c     ****   }
 415:c_array.c     **** 
 416:c_array.c     ****   mrbc_value *p_min_value = h->data;
 417:c_array.c     ****   mrbc_value *p_max_value = h->data;
 418:c_array.c     **** 
 419:c_array.c     ****   int i;
 420:c_array.c     ****   for( i = 1; i < h->n_stored; i++ ) {
 421:c_array.c     ****     if( mrbc_compare( &h->data[i], p_min_value ) < 0 ) {
 422:c_array.c     ****       p_min_value = &h->data[i];
 423:c_array.c     ****     }
 424:c_array.c     ****     if( mrbc_compare( &h->data[i], p_max_value ) > 0 ) {
 425:c_array.c     ****       p_max_value = &h->data[i];
 426:c_array.c     ****     }
 427:c_array.c     ****   }
 428:c_array.c     **** 
 429:c_array.c     ****   *pp_min_value = p_min_value;
 430:c_array.c     ****   *pp_max_value = p_max_value;
ARM GAS  C:\Users\164\AppData\Local\Temp\ccuYWdBJ.s 			page 9


 431:c_array.c     **** }
 432:c_array.c     **** 
 433:c_array.c     **** 
 434:c_array.c     **** //================================================================
 435:c_array.c     **** /*! method new
 436:c_array.c     **** */
 437:c_array.c     **** static void c_array_new(struct VM *vm, mrbc_value v[], int argc)
 438:c_array.c     **** {
 439:c_array.c     ****   /*
 440:c_array.c     ****     in case of new()
 441:c_array.c     ****   */
 442:c_array.c     ****   if( argc == 0 ) {
 443:c_array.c     ****     mrbc_value ret = mrbc_array_new(vm, 0);
 444:c_array.c     ****     if( ret.array == NULL ) return;		// ENOMEM
 445:c_array.c     **** 
 446:c_array.c     ****     SET_RETURN(ret);
 447:c_array.c     ****     return;
 448:c_array.c     ****   }
 449:c_array.c     **** 
 450:c_array.c     ****   /*
 451:c_array.c     ****     in case of new(num)
 452:c_array.c     ****   */
 453:c_array.c     ****   if( argc == 1 && v[1].tt == MRBC_TT_FIXNUM && v[1].i >= 0 ) {
 454:c_array.c     ****     mrbc_value ret = mrbc_array_new(vm, v[1].i);
 455:c_array.c     ****     if( ret.array == NULL ) return;		// ENOMEM
 456:c_array.c     **** 
 457:c_array.c     ****     mrbc_value nil = mrbc_nil_value();
 458:c_array.c     ****     if( v[1].i > 0 ) {
 459:c_array.c     ****       mrbc_array_set(&ret, v[1].i - 1, &nil);
 460:c_array.c     ****     }
 461:c_array.c     ****     SET_RETURN(ret);
 462:c_array.c     ****     return;
 463:c_array.c     ****   }
 464:c_array.c     **** 
 465:c_array.c     ****   /*
 466:c_array.c     ****     in case of new(num, value)
 467:c_array.c     ****   */
 468:c_array.c     ****   if( argc == 2 && v[1].tt == MRBC_TT_FIXNUM && v[1].i >= 0 ) {
 469:c_array.c     ****     mrbc_value ret = mrbc_array_new(vm, v[1].i);
 470:c_array.c     ****     if( ret.array == NULL ) return;		// ENOMEM
 471:c_array.c     **** 
 472:c_array.c     ****     int i;
 473:c_array.c     ****     for( i = 0; i < v[1].i; i++ ) {
 474:c_array.c     ****       mrbc_dup(&v[2]);
 475:c_array.c     ****       mrbc_array_set(&ret, i, &v[2]);
 476:c_array.c     ****     }
 477:c_array.c     ****     SET_RETURN(ret);
 478:c_array.c     ****     return;
 479:c_array.c     ****   }
 480:c_array.c     **** 
 481:c_array.c     ****   /*
 482:c_array.c     ****     other case
 483:c_array.c     ****   */
 484:c_array.c     ****   console_print( "ArgumentError\n" );	// raise?
 485:c_array.c     **** }
 486:c_array.c     **** 
 487:c_array.c     **** 
ARM GAS  C:\Users\164\AppData\Local\Temp\ccuYWdBJ.s 			page 10


 488:c_array.c     **** //================================================================
 489:c_array.c     **** /*! (operator) +
 490:c_array.c     **** */
 491:c_array.c     **** static void c_array_add(struct VM *vm, mrbc_value v[], int argc)
 492:c_array.c     **** {
 493:c_array.c     ****   if( GET_TT_ARG(1) != MRBC_TT_ARRAY ) {
 494:c_array.c     ****     console_print( "TypeError\n" );	// raise?
 495:c_array.c     ****     return;
 496:c_array.c     ****   }
 497:c_array.c     **** 
 498:c_array.c     ****   mrbc_array *h1 = v[0].array;
 499:c_array.c     ****   mrbc_array *h2 = v[1].array;
 500:c_array.c     **** 
 501:c_array.c     ****   mrbc_value value = mrbc_array_new(vm, h1->n_stored + h2->n_stored);
 502:c_array.c     ****   if( value.array == NULL ) return;		// ENOMEM
 503:c_array.c     **** 
 504:c_array.c     ****   memcpy( value.array->data,                h1->data,
 505:c_array.c     **** 	  sizeof(mrbc_value) * h1->n_stored );
 506:c_array.c     ****   memcpy( value.array->data + h1->n_stored, h2->data,
 507:c_array.c     **** 	  sizeof(mrbc_value) * h2->n_stored );
 508:c_array.c     ****   value.array->n_stored = h1->n_stored + h2->n_stored;
 509:c_array.c     **** 
 510:c_array.c     ****   mrbc_value *p1 = value.array->data;
 511:c_array.c     ****   const mrbc_value *p2 = p1 + value.array->n_stored;
 512:c_array.c     ****   while( p1 < p2 ) {
 513:c_array.c     ****     mrbc_dup(p1++);
 514:c_array.c     ****   }
 515:c_array.c     **** 
 516:c_array.c     ****   mrbc_release(v+1);
 517:c_array.c     ****   SET_RETURN(value);
 518:c_array.c     **** }
 519:c_array.c     **** 
 520:c_array.c     **** 
 521:c_array.c     **** //================================================================
 522:c_array.c     **** /*! (operator) []
 523:c_array.c     **** */
 524:c_array.c     **** static void c_array_get(struct VM *vm, mrbc_value v[], int argc)
 525:c_array.c     **** {
 526:c_array.c     ****   /*
 527:c_array.c     ****     in case of self[nth] -> object | nil
 528:c_array.c     ****   */
 529:c_array.c     ****   if( argc == 1 && v[1].tt == MRBC_TT_FIXNUM ) {
 530:c_array.c     ****     mrbc_value ret = mrbc_array_get(v, v[1].i);
 531:c_array.c     ****     mrbc_dup(&ret);
 532:c_array.c     ****     SET_RETURN(ret);
 533:c_array.c     ****     return;
 534:c_array.c     ****   }
 535:c_array.c     **** 
 536:c_array.c     ****   /*
 537:c_array.c     ****     in case of self[start, length] -> Array | nil
 538:c_array.c     ****   */
 539:c_array.c     ****   if( argc == 2 && v[1].tt == MRBC_TT_FIXNUM && v[2].tt == MRBC_TT_FIXNUM ) {
 540:c_array.c     ****     int len = mrbc_array_size(&v[0]);
 541:c_array.c     ****     int idx = v[1].i;
 542:c_array.c     ****     if( idx < 0 ) idx += len;
 543:c_array.c     ****     if( idx < 0 ) goto RETURN_NIL;
 544:c_array.c     **** 
ARM GAS  C:\Users\164\AppData\Local\Temp\ccuYWdBJ.s 			page 11


 545:c_array.c     ****     int size = (v[2].i < (len - idx)) ? v[2].i : (len - idx);
 546:c_array.c     **** 					// min( v[2].i, (len - idx) )
 547:c_array.c     ****     if( size < 0 ) goto RETURN_NIL;
 548:c_array.c     **** 
 549:c_array.c     ****     mrbc_value ret = mrbc_array_new(vm, size);
 550:c_array.c     ****     if( ret.array == NULL ) return;		// ENOMEM
 551:c_array.c     **** 
 552:c_array.c     ****     int i;
 553:c_array.c     ****     for( i = 0; i < size; i++ ) {
 554:c_array.c     ****       mrbc_value val = mrbc_array_get(v, v[1].i + i);
 555:c_array.c     ****       mrbc_dup(&val);
 556:c_array.c     ****       mrbc_array_push(&ret, &val);
 557:c_array.c     ****     }
 558:c_array.c     **** 
 559:c_array.c     ****     SET_RETURN(ret);
 560:c_array.c     ****     return;
 561:c_array.c     ****   }
 562:c_array.c     **** 
 563:c_array.c     ****   /*
 564:c_array.c     ****     other case
 565:c_array.c     ****   */
 566:c_array.c     ****   console_print( "Not support such case in Array#[].\n" );
 567:c_array.c     ****   return;
 568:c_array.c     **** 
 569:c_array.c     ****  RETURN_NIL:
 570:c_array.c     ****   SET_NIL_RETURN();
 571:c_array.c     **** }
 572:c_array.c     **** 
 573:c_array.c     **** 
 574:c_array.c     **** //================================================================
 575:c_array.c     **** /*! (operator) []=
 576:c_array.c     **** */
 577:c_array.c     **** static void c_array_set(struct VM *vm, mrbc_value v[], int argc)
 578:c_array.c     **** {
 579:c_array.c     ****   /*
 580:c_array.c     ****     in case of self[nth] = val
 581:c_array.c     ****   */
 582:c_array.c     ****   if( argc == 2 && v[1].tt == MRBC_TT_FIXNUM ) {
 583:c_array.c     ****     mrbc_array_set(v, v[1].i, &v[2]);	// raise? IndexError or ENOMEM
 584:c_array.c     ****     v[2].tt = MRBC_TT_EMPTY;
 585:c_array.c     ****     return;
 586:c_array.c     ****   }
 587:c_array.c     **** 
 588:c_array.c     ****   /*
 589:c_array.c     ****     in case of self[start, length] = val
 590:c_array.c     ****   */
 591:c_array.c     ****   if( argc == 3 && v[1].tt == MRBC_TT_FIXNUM && v[2].tt == MRBC_TT_FIXNUM ) {
 592:c_array.c     ****     // TODO: not implement yet.
 593:c_array.c     ****   }
 594:c_array.c     **** 
 595:c_array.c     ****   /*
 596:c_array.c     ****     other case
 597:c_array.c     ****   */
 598:c_array.c     ****   console_print( "Not support such case in Array#[].\n" );
 599:c_array.c     **** }
 600:c_array.c     **** 
 601:c_array.c     **** 
ARM GAS  C:\Users\164\AppData\Local\Temp\ccuYWdBJ.s 			page 12


 602:c_array.c     **** //================================================================
 603:c_array.c     **** /*! (method) clear
 604:c_array.c     **** */
 605:c_array.c     **** static void c_array_clear(struct VM *vm, mrbc_value v[], int argc)
 606:c_array.c     **** {
 607:c_array.c     ****   mrbc_array_clear(v);
 608:c_array.c     **** }
 609:c_array.c     **** 
 610:c_array.c     **** 
 611:c_array.c     **** //================================================================
 612:c_array.c     **** /*! (method) delete_at
 613:c_array.c     **** */
 614:c_array.c     **** static void c_array_delete_at(struct VM *vm, mrbc_value v[], int argc)
 615:c_array.c     **** {
 616:c_array.c     ****   mrbc_value val = mrbc_array_remove(v, GET_INT_ARG(1));
 617:c_array.c     ****   SET_RETURN(val);
 618:c_array.c     **** }
 619:c_array.c     **** 
 620:c_array.c     **** 
 621:c_array.c     **** //================================================================
 622:c_array.c     **** /*! (method) empty?
 623:c_array.c     **** */
 624:c_array.c     **** static void c_array_empty(struct VM *vm, mrbc_value v[], int argc)
 625:c_array.c     **** {
 626:c_array.c     ****   int n = mrbc_array_size(v);
 627:c_array.c     **** 
 628:c_array.c     ****   if( n ) {
 629:c_array.c     ****     SET_FALSE_RETURN();
 630:c_array.c     ****   } else {
 631:c_array.c     ****     SET_TRUE_RETURN();
 632:c_array.c     ****   }
 633:c_array.c     **** }
 634:c_array.c     **** 
 635:c_array.c     **** 
 636:c_array.c     **** //================================================================
 637:c_array.c     **** /*! (method) size,length,count
 638:c_array.c     **** */
 639:c_array.c     **** static void c_array_size(struct VM *vm, mrbc_value v[], int argc)
 640:c_array.c     **** {
  27              		.loc 1 640 0
  28              		.cfi_startproc
  29              		@ args = 0, pretend = 0, frame = 0
  30              		@ frame_needed = 0, uses_anonymous_args = 0
  31              	.LVL0:
  32 0000 38B5     		push	{r3, r4, r5, lr}
  33              		.cfi_def_cfa_offset 16
  34              		.cfi_offset 3, -16
  35              		.cfi_offset 4, -12
  36              		.cfi_offset 5, -8
  37              		.cfi_offset 14, -4
  38 0002 0C46     		mov	r4, r1
  39              	.LVL1:
  40              	.LBB32:
  41              	.LBB33:
  42              		.file 2 "c_array.h"
   1:c_array.h     **** /*! @file
   2:c_array.h     ****   @brief
ARM GAS  C:\Users\164\AppData\Local\Temp\ccuYWdBJ.s 			page 13


   3:c_array.h     ****   mruby/c Array class
   4:c_array.h     **** 
   5:c_array.h     ****   <pre>
   6:c_array.h     ****   Copyright (C) 2015-2018 Kyushu Institute of Technology.
   7:c_array.h     ****   Copyright (C) 2015-2018 Shimane IT Open-Innovation Center.
   8:c_array.h     **** 
   9:c_array.h     ****   This file is distributed under BSD 3-Clause License.
  10:c_array.h     **** 
  11:c_array.h     ****   </pre>
  12:c_array.h     **** */
  13:c_array.h     **** 
  14:c_array.h     **** #ifndef MRBC_SRC_C_ARRAY_H_
  15:c_array.h     **** #define MRBC_SRC_C_ARRAY_H_
  16:c_array.h     **** 
  17:c_array.h     **** #include "value.h"
  18:c_array.h     **** 
  19:c_array.h     **** #ifdef __cplusplus
  20:c_array.h     **** extern "C" {
  21:c_array.h     **** #endif
  22:c_array.h     **** 
  23:c_array.h     **** //================================================================
  24:c_array.h     **** /*!@brief
  25:c_array.h     ****   Define Array handle.
  26:c_array.h     **** */
  27:c_array.h     **** typedef struct RArray {
  28:c_array.h     ****   MRBC_OBJECT_HEADER;
  29:c_array.h     **** 
  30:c_array.h     ****   uint16_t data_size;	//!< data buffer size.
  31:c_array.h     ****   uint16_t n_stored;	//!< # of stored.
  32:c_array.h     ****   mrbc_value *data;	//!< pointer to allocated memory.
  33:c_array.h     **** 
  34:c_array.h     **** } mrbc_array;
  35:c_array.h     **** 
  36:c_array.h     **** 
  37:c_array.h     **** mrbc_value mrbc_array_new(struct VM *vm, int size);
  38:c_array.h     **** void mrbc_array_delete(mrbc_value *ary);
  39:c_array.h     **** void mrbc_array_clear_vm_id(mrbc_value *ary);
  40:c_array.h     **** int mrbc_array_resize(mrbc_value *ary, int size);
  41:c_array.h     **** int mrbc_array_set(mrbc_value *ary, int idx, mrbc_value *set_val);
  42:c_array.h     **** mrbc_value mrbc_array_get(mrbc_value *ary, int idx);
  43:c_array.h     **** int mrbc_array_push(mrbc_value *ary, mrbc_value *set_val);
  44:c_array.h     **** mrbc_value mrbc_array_pop(mrbc_value *ary);
  45:c_array.h     **** int mrbc_array_unshift(mrbc_value *ary, mrbc_value *set_val);
  46:c_array.h     **** mrbc_value mrbc_array_shift(mrbc_value *ary);
  47:c_array.h     **** int mrbc_array_insert(mrbc_value *ary, int idx, mrbc_value *set_val);
  48:c_array.h     **** mrbc_value mrbc_array_remove(mrbc_value *ary, int idx);
  49:c_array.h     **** void mrbc_array_clear(mrbc_value *ary);
  50:c_array.h     **** int mrbc_array_compare(const mrbc_value *v1, const mrbc_value *v2);
  51:c_array.h     **** void mrbc_array_minmax(mrbc_value *ary, mrbc_value **pp_min_value, mrbc_value **pp_max_value);
  52:c_array.h     **** void mrbc_init_class_array(struct VM *vm);
  53:c_array.h     **** 
  54:c_array.h     **** 
  55:c_array.h     **** //================================================================
  56:c_array.h     **** /*! get size
  57:c_array.h     **** */
  58:c_array.h     **** static inline int mrbc_array_size(const mrbc_value *ary)
  59:c_array.h     **** {
ARM GAS  C:\Users\164\AppData\Local\Temp\ccuYWdBJ.s 			page 14


  60:c_array.h     ****   return ary->array->n_stored;
  43              		.loc 2 60 0
  44 0004 8B68     		ldr	r3, [r1, #8]
  45 0006 DD88     		ldrh	r5, [r3, #6]
  46              	.LVL2:
  47              	.LBE33:
  48              	.LBE32:
  49              	.LBB34:
 641:c_array.c     ****   int n = mrbc_array_size(v);
 642:c_array.c     **** 
 643:c_array.c     ****   SET_INT_RETURN(n);
  50              		.loc 1 643 0
  51 0008 0846     		mov	r0, r1
  52              	.LVL3:
  53 000a FFF7FEFF 		bl	mrbc_dec_ref_counter
  54              	.LVL4:
  55 000e 0423     		movs	r3, #4
  56 0010 2370     		strb	r3, [r4]
  57 0012 A560     		str	r5, [r4, #8]
  58 0014 38BD     		pop	{r3, r4, r5, pc}
  59              	.LBE34:
  60              		.cfi_endproc
  61              	.LFE107:
  62              		.size	c_array_size, .-c_array_size
  63 0016 00BF     		.section	.text.c_array_empty,"ax",%progbits
  64              		.align	2
  65              		.thumb
  66              		.thumb_func
  67              		.type	c_array_empty, %function
  68              	c_array_empty:
  69              	.LFB106:
 625:c_array.c     ****   int n = mrbc_array_size(v);
  70              		.loc 1 625 0
  71              		.cfi_startproc
  72              		@ args = 0, pretend = 0, frame = 0
  73              		@ frame_needed = 0, uses_anonymous_args = 0
  74              	.LVL5:
  75 0000 10B5     		push	{r4, lr}
  76              		.cfi_def_cfa_offset 8
  77              		.cfi_offset 4, -8
  78              		.cfi_offset 14, -4
  79 0002 0C46     		mov	r4, r1
  80              	.LVL6:
  81              	.LBB35:
  82              	.LBB36:
  83              		.loc 2 60 0
  84 0004 8B68     		ldr	r3, [r1, #8]
  85 0006 DB88     		ldrh	r3, [r3, #6]
  86              	.LVL7:
  87              	.LBE36:
  88              	.LBE35:
 628:c_array.c     ****     SET_FALSE_RETURN();
  89              		.loc 1 628 0
  90 0008 2BB1     		cbz	r3, .L4
 629:c_array.c     ****   } else {
  91              		.loc 1 629 0
  92 000a 0846     		mov	r0, r1
ARM GAS  C:\Users\164\AppData\Local\Temp\ccuYWdBJ.s 			page 15


  93              	.LVL8:
  94 000c FFF7FEFF 		bl	mrbc_dec_ref_counter
  95              	.LVL9:
  96 0010 0223     		movs	r3, #2
  97 0012 2370     		strb	r3, [r4]
  98 0014 10BD     		pop	{r4, pc}
  99              	.LVL10:
 100              	.L4:
 631:c_array.c     ****   }
 101              		.loc 1 631 0
 102 0016 0846     		mov	r0, r1
 103              	.LVL11:
 104 0018 FFF7FEFF 		bl	mrbc_dec_ref_counter
 105              	.LVL12:
 106 001c 0323     		movs	r3, #3
 107 001e 2370     		strb	r3, [r4]
 108 0020 10BD     		pop	{r4, pc}
 109              		.cfi_endproc
 110              	.LFE106:
 111              		.size	c_array_empty, .-c_array_empty
 112 0022 00BF     		.section	.text.c_array_index,"ax",%progbits
 113              		.align	2
 114              		.thumb
 115              		.thumb_func
 116              		.type	c_array_index, %function
 117              	c_array_index:
 118              	.LFB108:
 644:c_array.c     **** }
 645:c_array.c     **** 
 646:c_array.c     **** 
 647:c_array.c     **** //================================================================
 648:c_array.c     **** /*! (method) index
 649:c_array.c     **** */
 650:c_array.c     **** static void c_array_index(struct VM *vm, mrbc_value v[], int argc)
 651:c_array.c     **** {
 119              		.loc 1 651 0
 120              		.cfi_startproc
 121              		@ args = 0, pretend = 0, frame = 0
 122              		@ frame_needed = 0, uses_anonymous_args = 0
 123              	.LVL13:
 124 0000 2DE9F041 		push	{r4, r5, r6, r7, r8, lr}
 125              		.cfi_def_cfa_offset 24
 126              		.cfi_offset 4, -24
 127              		.cfi_offset 5, -20
 128              		.cfi_offset 6, -16
 129              		.cfi_offset 7, -12
 130              		.cfi_offset 8, -8
 131              		.cfi_offset 14, -4
 132 0004 8846     		mov	r8, r1
 652:c_array.c     ****   mrbc_value *value = &GET_ARG(1);
 133              		.loc 1 652 0
 134 0006 01F11007 		add	r7, r1, #16
 135              	.LVL14:
 653:c_array.c     ****   mrbc_value *data = v->array->data;
 136              		.loc 1 653 0
 137 000a 8B68     		ldr	r3, [r1, #8]
 138 000c 9E68     		ldr	r6, [r3, #8]
ARM GAS  C:\Users\164\AppData\Local\Temp\ccuYWdBJ.s 			page 16


 139              	.LVL15:
 654:c_array.c     ****   int n = v->array->n_stored;
 140              		.loc 1 654 0
 141 000e DD88     		ldrh	r5, [r3, #6]
 142              	.LVL16:
 655:c_array.c     ****   int i;
 656:c_array.c     **** 
 657:c_array.c     ****   for( i = 0; i < n; i++ ) {
 143              		.loc 1 657 0
 144 0010 0024     		movs	r4, #0
 145 0012 06E0     		b	.L8
 146              	.LVL17:
 147              	.L10:
 658:c_array.c     ****     if( mrbc_compare(&data[i], value) == 0 ) break;
 148              		.loc 1 658 0
 149 0014 3946     		mov	r1, r7
 150 0016 06EB0410 		add	r0, r6, r4, lsl #4
 151 001a FFF7FEFF 		bl	mrbc_compare
 152              	.LVL18:
 153 001e 10B1     		cbz	r0, .L9
 657:c_array.c     ****     if( mrbc_compare(&data[i], value) == 0 ) break;
 154              		.loc 1 657 0 discriminator 2
 155 0020 0134     		adds	r4, r4, #1
 156              	.LVL19:
 157              	.L8:
 657:c_array.c     ****     if( mrbc_compare(&data[i], value) == 0 ) break;
 158              		.loc 1 657 0 is_stmt 0 discriminator 1
 159 0022 AC42     		cmp	r4, r5
 160 0024 F6DB     		blt	.L10
 161              	.L9:
 659:c_array.c     ****   }
 660:c_array.c     **** 
 661:c_array.c     ****   if( i < n ) {
 162              		.loc 1 661 0 is_stmt 1
 163 0026 AC42     		cmp	r4, r5
 164 0028 09DA     		bge	.L11
 165              	.LVL20:
 166              	.LBB37:
 662:c_array.c     ****     SET_INT_RETURN(i);
 167              		.loc 1 662 0
 168 002a 4046     		mov	r0, r8
 169 002c FFF7FEFF 		bl	mrbc_dec_ref_counter
 170              	.LVL21:
 171 0030 0423     		movs	r3, #4
 172 0032 88F80030 		strb	r3, [r8]
 173 0036 C8F80840 		str	r4, [r8, #8]
 174              	.LBE37:
 175 003a BDE8F081 		pop	{r4, r5, r6, r7, r8, pc}
 176              	.LVL22:
 177              	.L11:
 663:c_array.c     ****   } else {
 664:c_array.c     ****     SET_NIL_RETURN();
 178              		.loc 1 664 0
 179 003e 4046     		mov	r0, r8
 180 0040 FFF7FEFF 		bl	mrbc_dec_ref_counter
 181              	.LVL23:
 182 0044 0123     		movs	r3, #1
ARM GAS  C:\Users\164\AppData\Local\Temp\ccuYWdBJ.s 			page 17


 183 0046 88F80030 		strb	r3, [r8]
 184 004a BDE8F081 		pop	{r4, r5, r6, r7, r8, pc}
 185              		.cfi_endproc
 186              	.LFE108:
 187              		.size	c_array_index, .-c_array_index
 188 004e 00BF     		.section	.text.c_array_join_1,"ax",%progbits
 189              		.align	2
 190              		.thumb
 191              		.thumb_func
 192              		.type	c_array_join_1, %function
 193              	c_array_join_1:
 194              	.LFB120:
 665:c_array.c     ****   }
 666:c_array.c     **** }
 667:c_array.c     **** 
 668:c_array.c     **** 
 669:c_array.c     **** //================================================================
 670:c_array.c     **** /*! (method) first
 671:c_array.c     **** */
 672:c_array.c     **** static void c_array_first(struct VM *vm, mrbc_value v[], int argc)
 673:c_array.c     **** {
 674:c_array.c     ****   mrbc_value val = mrbc_array_get(v, 0);
 675:c_array.c     ****   mrbc_dup(&val);
 676:c_array.c     ****   SET_RETURN(val);
 677:c_array.c     **** }
 678:c_array.c     **** 
 679:c_array.c     **** 
 680:c_array.c     **** //================================================================
 681:c_array.c     **** /*! (method) last
 682:c_array.c     **** */
 683:c_array.c     **** static void c_array_last(struct VM *vm, mrbc_value v[], int argc)
 684:c_array.c     **** {
 685:c_array.c     ****   mrbc_value val = mrbc_array_get(v, -1);
 686:c_array.c     ****   mrbc_dup(&val);
 687:c_array.c     ****   SET_RETURN(val);
 688:c_array.c     **** }
 689:c_array.c     **** 
 690:c_array.c     **** 
 691:c_array.c     **** //================================================================
 692:c_array.c     **** /*! (method) push
 693:c_array.c     **** */
 694:c_array.c     **** static void c_array_push(struct VM *vm, mrbc_value v[], int argc)
 695:c_array.c     **** {
 696:c_array.c     ****   mrbc_array_push(&v[0], &v[1]);	// raise? ENOMEM
 697:c_array.c     ****   v[1].tt = MRBC_TT_EMPTY;
 698:c_array.c     **** }
 699:c_array.c     **** 
 700:c_array.c     **** 
 701:c_array.c     **** //================================================================
 702:c_array.c     **** /*! (method) pop
 703:c_array.c     **** */
 704:c_array.c     **** static void c_array_pop(struct VM *vm, mrbc_value v[], int argc)
 705:c_array.c     **** {
 706:c_array.c     ****   /*
 707:c_array.c     ****     in case of pop() -> object | nil
 708:c_array.c     ****   */
 709:c_array.c     ****   if( argc == 0 ) {
ARM GAS  C:\Users\164\AppData\Local\Temp\ccuYWdBJ.s 			page 18


 710:c_array.c     ****     mrbc_value val = mrbc_array_pop(v);
 711:c_array.c     ****     SET_RETURN(val);
 712:c_array.c     ****     return;
 713:c_array.c     ****   }
 714:c_array.c     **** 
 715:c_array.c     ****   /*
 716:c_array.c     ****     in case of pop(n) -> Array
 717:c_array.c     ****   */
 718:c_array.c     ****   if( argc == 1 && v[1].tt == MRBC_TT_FIXNUM ) {
 719:c_array.c     ****     // TODO: not implement yet.
 720:c_array.c     ****   }
 721:c_array.c     **** 
 722:c_array.c     ****   /*
 723:c_array.c     ****     other case
 724:c_array.c     ****   */
 725:c_array.c     ****   console_print( "Not support such case in Array#pop.\n" );
 726:c_array.c     **** }
 727:c_array.c     **** 
 728:c_array.c     **** 
 729:c_array.c     **** //================================================================
 730:c_array.c     **** /*! (method) unshift
 731:c_array.c     **** */
 732:c_array.c     **** static void c_array_unshift(struct VM *vm, mrbc_value v[], int argc)
 733:c_array.c     **** {
 734:c_array.c     ****   mrbc_array_unshift(&v[0], &v[1]);	// raise? IndexError or ENOMEM
 735:c_array.c     ****   v[1].tt = MRBC_TT_EMPTY;
 736:c_array.c     **** }
 737:c_array.c     **** 
 738:c_array.c     **** 
 739:c_array.c     **** //================================================================
 740:c_array.c     **** /*! (method) shift
 741:c_array.c     **** */
 742:c_array.c     **** static void c_array_shift(struct VM *vm, mrbc_value v[], int argc)
 743:c_array.c     **** {
 744:c_array.c     ****   /*
 745:c_array.c     ****     in case of pop() -> object | nil
 746:c_array.c     ****   */
 747:c_array.c     ****   if( argc == 0 ) {
 748:c_array.c     ****     mrbc_value val = mrbc_array_shift(v);
 749:c_array.c     ****     SET_RETURN(val);
 750:c_array.c     ****     return;
 751:c_array.c     ****   }
 752:c_array.c     **** 
 753:c_array.c     ****   /*
 754:c_array.c     ****     in case of pop(n) -> Array
 755:c_array.c     ****   */
 756:c_array.c     ****   if( argc == 1 && v[1].tt == MRBC_TT_FIXNUM ) {
 757:c_array.c     ****     // TODO: not implement yet.
 758:c_array.c     ****   }
 759:c_array.c     **** 
 760:c_array.c     ****   /*
 761:c_array.c     ****     other case
 762:c_array.c     ****   */
 763:c_array.c     ****   console_print( "Not support such case in Array#shift.\n" );
 764:c_array.c     **** }
 765:c_array.c     **** 
 766:c_array.c     **** 
ARM GAS  C:\Users\164\AppData\Local\Temp\ccuYWdBJ.s 			page 19


 767:c_array.c     **** //================================================================
 768:c_array.c     **** /*! (method) dup
 769:c_array.c     **** */
 770:c_array.c     **** static void c_array_dup(struct VM *vm, mrbc_value v[], int argc)
 771:c_array.c     **** {
 772:c_array.c     ****   mrbc_array *h = v[0].array;
 773:c_array.c     **** 
 774:c_array.c     ****   mrbc_value value = mrbc_array_new(vm, h->n_stored);
 775:c_array.c     ****   if( value.array == NULL ) return;		// ENOMEM
 776:c_array.c     **** 
 777:c_array.c     ****   memcpy( value.array->data, h->data, sizeof(mrbc_value) * h->n_stored );
 778:c_array.c     ****   value.array->n_stored = h->n_stored;
 779:c_array.c     **** 
 780:c_array.c     ****   mrbc_value *p1 = value.array->data;
 781:c_array.c     ****   const mrbc_value *p2 = p1 + value.array->n_stored;
 782:c_array.c     ****   while( p1 < p2 ) {
 783:c_array.c     ****     mrbc_dup(p1++);
 784:c_array.c     ****   }
 785:c_array.c     **** 
 786:c_array.c     ****   SET_RETURN(value);
 787:c_array.c     **** }
 788:c_array.c     **** 
 789:c_array.c     **** 
 790:c_array.c     **** 
 791:c_array.c     **** //================================================================
 792:c_array.c     **** /*! (method) min
 793:c_array.c     **** */
 794:c_array.c     **** static void c_array_min(struct VM *vm, mrbc_value v[], int argc)
 795:c_array.c     **** {
 796:c_array.c     ****   // Subset of Array#min, not support min(n).
 797:c_array.c     **** 
 798:c_array.c     ****   mrbc_value *p_min_value, *p_max_value;
 799:c_array.c     **** 
 800:c_array.c     ****   mrbc_array_minmax(&v[0], &p_min_value, &p_max_value);
 801:c_array.c     ****   if( p_min_value == NULL ) {
 802:c_array.c     ****     SET_NIL_RETURN();
 803:c_array.c     ****     return;
 804:c_array.c     ****   }
 805:c_array.c     **** 
 806:c_array.c     ****   mrbc_dup(p_min_value);
 807:c_array.c     ****   SET_RETURN(*p_min_value);
 808:c_array.c     **** }
 809:c_array.c     **** 
 810:c_array.c     **** 
 811:c_array.c     **** //================================================================
 812:c_array.c     **** /*! (method) max
 813:c_array.c     **** */
 814:c_array.c     **** static void c_array_max(struct VM *vm, mrbc_value v[], int argc)
 815:c_array.c     **** {
 816:c_array.c     ****   // Subset of Array#max, not support max(n).
 817:c_array.c     **** 
 818:c_array.c     ****   mrbc_value *p_min_value, *p_max_value;
 819:c_array.c     **** 
 820:c_array.c     ****   mrbc_array_minmax(&v[0], &p_min_value, &p_max_value);
 821:c_array.c     ****   if( p_max_value == NULL ) {
 822:c_array.c     ****     SET_NIL_RETURN();
 823:c_array.c     ****     return;
ARM GAS  C:\Users\164\AppData\Local\Temp\ccuYWdBJ.s 			page 20


 824:c_array.c     ****   }
 825:c_array.c     **** 
 826:c_array.c     ****   mrbc_dup(p_max_value);
 827:c_array.c     ****   SET_RETURN(*p_max_value);
 828:c_array.c     **** }
 829:c_array.c     **** 
 830:c_array.c     **** 
 831:c_array.c     **** //================================================================
 832:c_array.c     **** /*! (method) minmax
 833:c_array.c     **** */
 834:c_array.c     **** static void c_array_minmax(struct VM *vm, mrbc_value v[], int argc)
 835:c_array.c     **** {
 836:c_array.c     ****   // Subset of Array#minmax, not support minmax(n).
 837:c_array.c     **** 
 838:c_array.c     ****   mrbc_value *p_min_value, *p_max_value;
 839:c_array.c     ****   mrbc_value nil = mrbc_nil_value();
 840:c_array.c     ****   mrbc_value ret = mrbc_array_new(vm, 2);
 841:c_array.c     **** 
 842:c_array.c     ****   mrbc_array_minmax(&v[0], &p_min_value, &p_max_value);
 843:c_array.c     ****   if( p_min_value == NULL ) p_min_value = &nil;
 844:c_array.c     ****   if( p_max_value == NULL ) p_max_value = &nil;
 845:c_array.c     **** 
 846:c_array.c     ****   mrbc_dup(p_min_value);
 847:c_array.c     ****   mrbc_dup(p_max_value);
 848:c_array.c     ****   mrbc_array_set(&ret, 0, p_min_value);
 849:c_array.c     ****   mrbc_array_set(&ret, 1, p_max_value);
 850:c_array.c     **** 
 851:c_array.c     ****   SET_RETURN(ret);
 852:c_array.c     **** }
 853:c_array.c     **** 
 854:c_array.c     **** 
 855:c_array.c     **** #if MRBC_USE_STRING
 856:c_array.c     **** //================================================================
 857:c_array.c     **** /*! (method) inspect
 858:c_array.c     **** */
 859:c_array.c     **** static void c_array_inspect(struct VM *vm, mrbc_value v[], int argc)
 860:c_array.c     **** {
 861:c_array.c     ****   mrbc_value ret = mrbc_string_new_cstr(vm, "[");
 862:c_array.c     ****   if( !ret.string ) goto RETURN_NIL;		// ENOMEM
 863:c_array.c     **** 
 864:c_array.c     ****   int i;
 865:c_array.c     ****   for( i = 0; i < mrbc_array_size(v); i++ ) {
 866:c_array.c     ****     if( i != 0 ) mrbc_string_append_cstr( &ret, ", " );
 867:c_array.c     **** 
 868:c_array.c     ****     mrbc_value v1 = mrbc_array_get(v, i);
 869:c_array.c     ****     mrbc_value s1 = mrbc_send( vm, v, argc, &v1, "inspect", 0 );
 870:c_array.c     ****     mrbc_string_append( &ret, &s1 );
 871:c_array.c     ****     mrbc_string_delete( &s1 );
 872:c_array.c     ****   }
 873:c_array.c     **** 
 874:c_array.c     ****   mrbc_string_append_cstr( &ret, "]" );
 875:c_array.c     **** 
 876:c_array.c     ****   SET_RETURN(ret);
 877:c_array.c     ****   return;
 878:c_array.c     **** 
 879:c_array.c     ****  RETURN_NIL:
 880:c_array.c     ****   SET_NIL_RETURN();
ARM GAS  C:\Users\164\AppData\Local\Temp\ccuYWdBJ.s 			page 21


 881:c_array.c     **** }
 882:c_array.c     **** 
 883:c_array.c     **** 
 884:c_array.c     **** //================================================================
 885:c_array.c     **** /*! (method) join
 886:c_array.c     **** */
 887:c_array.c     **** static void c_array_join_1(struct VM *vm, mrbc_value v[], int argc,
 888:c_array.c     **** 			   mrbc_value *src, mrbc_value *ret, mrbc_value *separator)
 889:c_array.c     **** {
 195              		.loc 1 889 0
 196              		.cfi_startproc
 197              		@ args = 8, pretend = 0, frame = 16
 198              		@ frame_needed = 0, uses_anonymous_args = 0
 199              	.LVL24:
 200 0000 2DE9F04F 		push	{r4, r5, r6, r7, r8, r9, r10, fp, lr}
 201              		.cfi_def_cfa_offset 36
 202              		.cfi_offset 4, -36
 203              		.cfi_offset 5, -32
 204              		.cfi_offset 6, -28
 205              		.cfi_offset 7, -24
 206              		.cfi_offset 8, -20
 207              		.cfi_offset 9, -16
 208              		.cfi_offset 10, -12
 209              		.cfi_offset 11, -8
 210              		.cfi_offset 14, -4
 211 0004 89B0     		sub	sp, sp, #36
 212              		.cfi_def_cfa_offset 72
 213 0006 129F     		ldr	r7, [sp, #72]
 214 0008 DDF84C80 		ldr	r8, [sp, #76]
 215              	.LVL25:
 216              	.LBB38:
 217              	.LBB39:
 218              		.loc 2 60 0
 219 000c 9C68     		ldr	r4, [r3, #8]
 220 000e E488     		ldrh	r4, [r4, #6]
 221              	.LVL26:
 222              	.LBE39:
 223              	.LBE38:
 890:c_array.c     ****   if( mrbc_array_size(src) == 0 ) return;
 224              		.loc 1 890 0
 225 0010 002C     		cmp	r4, #0
 226 0012 35D0     		beq	.L14
 227 0014 1E46     		mov	r6, r3
 228 0016 9346     		mov	fp, r2
 229 0018 8A46     		mov	r10, r1
 230 001a 8146     		mov	r9, r0
 231 001c 0024     		movs	r4, #0
 232 001e 2546     		mov	r5, r4
 233 0020 2CE0     		b	.L16
 234              	.LVL27:
 235              	.L19:
 891:c_array.c     **** 
 892:c_array.c     ****   int i = 0;
 893:c_array.c     ****   int flag_error = 0;
 894:c_array.c     ****   while( !flag_error ) {
 895:c_array.c     ****     if( src->array->data[i].tt == MRBC_TT_ARRAY ) {
 236              		.loc 1 895 0
ARM GAS  C:\Users\164\AppData\Local\Temp\ccuYWdBJ.s 			page 22


 237 0022 B368     		ldr	r3, [r6, #8]
 238 0024 9968     		ldr	r1, [r3, #8]
 239 0026 2A01     		lsls	r2, r5, #4
 240 0028 8B18     		adds	r3, r1, r2
 241 002a 8A56     		ldrsb	r2, [r1, r2]
 242 002c 162A     		cmp	r2, #22
 243 002e 08D1     		bne	.L17
 896:c_array.c     ****       c_array_join_1(vm, v, argc, &src->array->data[i], ret, separator);
 244              		.loc 1 896 0
 245 0030 CDF80480 		str	r8, [sp, #4]
 246 0034 0097     		str	r7, [sp]
 247 0036 5A46     		mov	r2, fp
 248 0038 5146     		mov	r1, r10
 249 003a 4846     		mov	r0, r9
 250 003c FFF7E0FF 		bl	c_array_join_1
 251              	.LVL28:
 252 0040 12E0     		b	.L18
 253              	.L17:
 254              	.LBB40:
 897:c_array.c     ****     } else {
 898:c_array.c     ****       mrbc_value v1 = mrbc_send( vm, v, argc, &src->array->data[i], "to_s", 0 );
 255              		.loc 1 898 0
 256 0042 0022     		movs	r2, #0
 257 0044 0292     		str	r2, [sp, #8]
 258 0046 104A     		ldr	r2, .L21
 259 0048 0192     		str	r2, [sp, #4]
 260 004a 0093     		str	r3, [sp]
 261 004c 5B46     		mov	r3, fp
 262 004e 5246     		mov	r2, r10
 263 0050 4946     		mov	r1, r9
 264 0052 04A8     		add	r0, sp, #16
 265 0054 FFF7FEFF 		bl	mrbc_send
 266              	.LVL29:
 899:c_array.c     ****       flag_error |= mrbc_string_append( ret, &v1 );
 267              		.loc 1 899 0
 268 0058 04A9     		add	r1, sp, #16
 269 005a 3846     		mov	r0, r7
 270 005c FFF7FEFF 		bl	mrbc_string_append
 271              	.LVL30:
 272 0060 0443     		orrs	r4, r4, r0
 273              	.LVL31:
 900:c_array.c     ****       mrbc_dec_ref_counter(&v1);
 274              		.loc 1 900 0
 275 0062 04A8     		add	r0, sp, #16
 276 0064 FFF7FEFF 		bl	mrbc_dec_ref_counter
 277              	.LVL32:
 278              	.L18:
 279              	.LBE40:
 901:c_array.c     ****     }
 902:c_array.c     ****     if( ++i >= mrbc_array_size(src) ) break;	// normal return.
 280              		.loc 1 902 0
 281 0068 0135     		adds	r5, r5, #1
 282              	.LVL33:
 283              	.LBB41:
 284              	.LBB42:
 285              		.loc 2 60 0
 286 006a B368     		ldr	r3, [r6, #8]
ARM GAS  C:\Users\164\AppData\Local\Temp\ccuYWdBJ.s 			page 23


 287 006c DB88     		ldrh	r3, [r3, #6]
 288              	.LVL34:
 289              	.LBE42:
 290              	.LBE41:
 291              		.loc 1 902 0
 292 006e 9D42     		cmp	r5, r3
 293 0070 06DA     		bge	.L14
 903:c_array.c     ****     flag_error |= mrbc_string_append( ret, separator );
 294              		.loc 1 903 0
 295 0072 4146     		mov	r1, r8
 296 0074 3846     		mov	r0, r7
 297 0076 FFF7FEFF 		bl	mrbc_string_append
 298              	.LVL35:
 299 007a 0443     		orrs	r4, r4, r0
 300              	.LVL36:
 301              	.L16:
 894:c_array.c     ****     if( src->array->data[i].tt == MRBC_TT_ARRAY ) {
 302              		.loc 1 894 0
 303 007c 002C     		cmp	r4, #0
 304 007e D0D0     		beq	.L19
 305              	.LVL37:
 306              	.L14:
 904:c_array.c     ****   }
 905:c_array.c     **** }
 307              		.loc 1 905 0
 308 0080 09B0     		add	sp, sp, #36
 309              		.cfi_def_cfa_offset 36
 310              		@ sp needed
 311 0082 BDE8F08F 		pop	{r4, r5, r6, r7, r8, r9, r10, fp, pc}
 312              	.LVL38:
 313              	.L22:
 314 0086 00BF     		.align	2
 315              	.L21:
 316 0088 00000000 		.word	.LC0
 317              		.cfi_endproc
 318              	.LFE120:
 319              		.size	c_array_join_1, .-c_array_join_1
 320              		.section	.text.c_array_join,"ax",%progbits
 321              		.align	2
 322              		.thumb
 323              		.thumb_func
 324              		.type	c_array_join, %function
 325              	c_array_join:
 326              	.LFB121:
 906:c_array.c     **** 
 907:c_array.c     **** static void c_array_join(struct VM *vm, mrbc_value v[], int argc)
 908:c_array.c     **** {
 327              		.loc 1 908 0
 328              		.cfi_startproc
 329              		@ args = 0, pretend = 0, frame = 48
 330              		@ frame_needed = 0, uses_anonymous_args = 0
 331              	.LVL39:
 332 0000 2DE9F041 		push	{r4, r5, r6, r7, r8, lr}
 333              		.cfi_def_cfa_offset 24
 334              		.cfi_offset 4, -24
 335              		.cfi_offset 5, -20
 336              		.cfi_offset 6, -16
ARM GAS  C:\Users\164\AppData\Local\Temp\ccuYWdBJ.s 			page 24


 337              		.cfi_offset 7, -12
 338              		.cfi_offset 8, -8
 339              		.cfi_offset 14, -4
 340 0004 90B0     		sub	sp, sp, #64
 341              		.cfi_def_cfa_offset 88
 342 0006 0546     		mov	r5, r0
 343 0008 0C46     		mov	r4, r1
 344 000a 1746     		mov	r7, r2
 909:c_array.c     ****   mrbc_value ret = mrbc_string_new(vm, NULL, 0);
 345              		.loc 1 909 0
 346 000c 0023     		movs	r3, #0
 347 000e 1A46     		mov	r2, r3
 348              	.LVL40:
 349 0010 0146     		mov	r1, r0
 350              	.LVL41:
 351 0012 0CA8     		add	r0, sp, #48
 352              	.LVL42:
 353 0014 FFF7FEFF 		bl	mrbc_string_new
 354              	.LVL43:
 910:c_array.c     ****   if( !ret.string ) goto RETURN_NIL;		// ENOMEM
 355              		.loc 1 910 0
 356 0018 0E9B     		ldr	r3, [sp, #56]
 357 001a 7BB3     		cbz	r3, .L24
 911:c_array.c     **** 
 912:c_array.c     ****   mrbc_value separator = (argc == 0) ? mrbc_string_new_cstr(vm, "") :
 358              		.loc 1 912 0
 359 001c 2FB9     		cbnz	r7, .L25
 360              		.loc 1 912 0 is_stmt 0 discriminator 1
 361 001e 1B4A     		ldr	r2, .L29
 362 0020 2946     		mov	r1, r5
 363 0022 08A8     		add	r0, sp, #32
 364 0024 FFF7FEFF 		bl	mrbc_string_new_cstr
 365              	.LVL44:
 366 0028 0CE0     		b	.L26
 367              	.L25:
 913:c_array.c     ****     mrbc_send( vm, v, argc, &v[1], "to_s", 0 );
 368              		.loc 1 913 0 is_stmt 1 discriminator 2
 369 002a 04F11003 		add	r3, r4, #16
 912:c_array.c     ****     mrbc_send( vm, v, argc, &v[1], "to_s", 0 );
 370              		.loc 1 912 0 discriminator 2
 371 002e 0022     		movs	r2, #0
 372 0030 0292     		str	r2, [sp, #8]
 373 0032 174A     		ldr	r2, .L29+4
 374 0034 0192     		str	r2, [sp, #4]
 375 0036 0093     		str	r3, [sp]
 376 0038 3B46     		mov	r3, r7
 377 003a 2246     		mov	r2, r4
 378 003c 2946     		mov	r1, r5
 379 003e 08A8     		add	r0, sp, #32
 380 0040 FFF7FEFF 		bl	mrbc_send
 381              	.LVL45:
 382              	.L26:
 914:c_array.c     **** 
 915:c_array.c     ****   c_array_join_1(vm, v, argc, &v[0], &ret, &separator );
 383              		.loc 1 915 0
 384 0044 0DF12008 		add	r8, sp, #32
 385 0048 CDF80480 		str	r8, [sp, #4]
ARM GAS  C:\Users\164\AppData\Local\Temp\ccuYWdBJ.s 			page 25


 386 004c 0CAE     		add	r6, sp, #48
 387 004e 0096     		str	r6, [sp]
 388 0050 2346     		mov	r3, r4
 389 0052 3A46     		mov	r2, r7
 390 0054 2146     		mov	r1, r4
 391 0056 2846     		mov	r0, r5
 392 0058 FFF7FEFF 		bl	c_array_join_1
 393              	.LVL46:
 916:c_array.c     ****   mrbc_dec_ref_counter(&separator);
 394              		.loc 1 916 0
 395 005c 4046     		mov	r0, r8
 396 005e FFF7FEFF 		bl	mrbc_dec_ref_counter
 397              	.LVL47:
 398              	.LBB43:
 917:c_array.c     **** 
 918:c_array.c     ****   SET_RETURN(ret);
 399              		.loc 1 918 0
 400 0062 04AD     		add	r5, sp, #16
 401              	.LVL48:
 402 0064 96E80F00 		ldmia	r6, {r0, r1, r2, r3}
 403 0068 85E80F00 		stmia	r5, {r0, r1, r2, r3}
 404 006c 2046     		mov	r0, r4
 405 006e FFF7FEFF 		bl	mrbc_dec_ref_counter
 406              	.LVL49:
 407 0072 95E80F00 		ldmia	r5, {r0, r1, r2, r3}
 408 0076 84E80F00 		stmia	r4, {r0, r1, r2, r3}
 409 007a 04E0     		b	.L23
 410              	.LVL50:
 411              	.L24:
 412              	.LBE43:
 919:c_array.c     ****   return;
 920:c_array.c     **** 
 921:c_array.c     ****  RETURN_NIL:
 922:c_array.c     ****   SET_NIL_RETURN();
 413              		.loc 1 922 0
 414 007c 2046     		mov	r0, r4
 415 007e FFF7FEFF 		bl	mrbc_dec_ref_counter
 416              	.LVL51:
 417 0082 0123     		movs	r3, #1
 418 0084 2370     		strb	r3, [r4]
 419              	.LVL52:
 420              	.L23:
 923:c_array.c     **** }
 421              		.loc 1 923 0
 422 0086 10B0     		add	sp, sp, #64
 423              		.cfi_def_cfa_offset 24
 424              		@ sp needed
 425 0088 BDE8F081 		pop	{r4, r5, r6, r7, r8, pc}
 426              	.LVL53:
 427              	.L30:
 428              		.align	2
 429              	.L29:
 430 008c 08000000 		.word	.LC1
 431 0090 00000000 		.word	.LC0
 432              		.cfi_endproc
 433              	.LFE121:
 434              		.size	c_array_join, .-c_array_join
ARM GAS  C:\Users\164\AppData\Local\Temp\ccuYWdBJ.s 			page 26


 435              		.section	.text.mrbc_array_new,"ax",%progbits
 436              		.align	2
 437              		.global	mrbc_array_new
 438              		.thumb
 439              		.thumb_func
 440              		.type	mrbc_array_new, %function
 441              	mrbc_array_new:
 442              	.LFB85:
  67:c_array.c     ****   mrbc_value value = {.tt = MRBC_TT_ARRAY};
 443              		.loc 1 67 0
 444              		.cfi_startproc
 445              		@ args = 0, pretend = 0, frame = 0
 446              		@ frame_needed = 0, uses_anonymous_args = 0
 447              	.LVL54:
 448 0000 F8B5     		push	{r3, r4, r5, r6, r7, lr}
 449              		.cfi_def_cfa_offset 24
 450              		.cfi_offset 3, -24
 451              		.cfi_offset 4, -20
 452              		.cfi_offset 5, -16
 453              		.cfi_offset 6, -12
 454              		.cfi_offset 7, -8
 455              		.cfi_offset 14, -4
 456 0002 0446     		mov	r4, r0
 457 0004 0E46     		mov	r6, r1
 458 0006 1746     		mov	r7, r2
  68:c_array.c     **** 
 459              		.loc 1 68 0
 460 0008 0023     		movs	r3, #0
 461 000a 0360     		str	r3, [r0]
 462 000c 4360     		str	r3, [r0, #4]
 463 000e 8360     		str	r3, [r0, #8]
 464 0010 C360     		str	r3, [r0, #12]
 465 0012 1623     		movs	r3, #22
 466 0014 0370     		strb	r3, [r0]
  73:c_array.c     ****   if( !h ) return value;	// ENOMEM
 467              		.loc 1 73 0
 468 0016 0C21     		movs	r1, #12
 469              	.LVL55:
 470 0018 3046     		mov	r0, r6
 471              	.LVL56:
 472 001a FFF7FEFF 		bl	mrbc_alloc
 473              	.LVL57:
  74:c_array.c     **** 
 474              		.loc 1 74 0
 475 001e 90B1     		cbz	r0, .L31
 476 0020 0546     		mov	r5, r0
  76:c_array.c     ****   if( !data ) {			// ENOMEM
 477              		.loc 1 76 0
 478 0022 3901     		lsls	r1, r7, #4
 479 0024 3046     		mov	r0, r6
 480              	.LVL58:
 481 0026 FFF7FEFF 		bl	mrbc_alloc
 482              	.LVL59:
  77:c_array.c     ****     mrbc_raw_free( h );
 483              		.loc 1 77 0
 484 002a 18B9     		cbnz	r0, .L33
  78:c_array.c     ****     return value;
ARM GAS  C:\Users\164\AppData\Local\Temp\ccuYWdBJ.s 			page 27


 485              		.loc 1 78 0
 486 002c 2846     		mov	r0, r5
 487              	.LVL60:
 488 002e FFF7FEFF 		bl	mrbc_raw_free
 489              	.LVL61:
  79:c_array.c     ****   }
 490              		.loc 1 79 0
 491 0032 08E0     		b	.L31
 492              	.LVL62:
 493              	.L33:
  82:c_array.c     ****   h->tt = MRBC_TT_ARRAY;
 494              		.loc 1 82 0
 495 0034 0122     		movs	r2, #1
 496 0036 2A80     		strh	r2, [r5]	@ movhi
  83:c_array.c     ****   h->data_size = size;
 497              		.loc 1 83 0
 498 0038 1622     		movs	r2, #22
 499 003a AA70     		strb	r2, [r5, #2]
  84:c_array.c     ****   h->n_stored = 0;
 500              		.loc 1 84 0
 501 003c AF80     		strh	r7, [r5, #4]	@ movhi
  85:c_array.c     ****   h->data = data;
 502              		.loc 1 85 0
 503 003e 0022     		movs	r2, #0
 504 0040 EA80     		strh	r2, [r5, #6]	@ movhi
  86:c_array.c     **** 
 505              		.loc 1 86 0
 506 0042 A860     		str	r0, [r5, #8]
  88:c_array.c     ****   return value;
 507              		.loc 1 88 0
 508 0044 A560     		str	r5, [r4, #8]
 509              	.LVL63:
 510              	.L31:
  90:c_array.c     **** 
 511              		.loc 1 90 0
 512 0046 2046     		mov	r0, r4
 513 0048 F8BD     		pop	{r3, r4, r5, r6, r7, pc}
 514              		.cfi_endproc
 515              	.LFE85:
 516              		.size	mrbc_array_new, .-mrbc_array_new
 517 004a 00BF     		.section	.text.c_array_dup,"ax",%progbits
 518              		.align	2
 519              		.thumb
 520              		.thumb_func
 521              		.type	c_array_dup, %function
 522              	c_array_dup:
 523              	.LFB115:
 771:c_array.c     ****   mrbc_array *h = v[0].array;
 524              		.loc 1 771 0
 525              		.cfi_startproc
 526              		@ args = 0, pretend = 0, frame = 32
 527              		@ frame_needed = 0, uses_anonymous_args = 0
 528              	.LVL64:
 529 0000 70B5     		push	{r4, r5, r6, lr}
 530              		.cfi_def_cfa_offset 16
 531              		.cfi_offset 4, -16
 532              		.cfi_offset 5, -12
ARM GAS  C:\Users\164\AppData\Local\Temp\ccuYWdBJ.s 			page 28


 533              		.cfi_offset 6, -8
 534              		.cfi_offset 14, -4
 535 0002 88B0     		sub	sp, sp, #32
 536              		.cfi_def_cfa_offset 48
 537 0004 0E46     		mov	r6, r1
 772:c_array.c     **** 
 538              		.loc 1 772 0
 539 0006 8D68     		ldr	r5, [r1, #8]
 540              	.LVL65:
 774:c_array.c     ****   if( value.array == NULL ) return;		// ENOMEM
 541              		.loc 1 774 0
 542 0008 EA88     		ldrh	r2, [r5, #6]
 543              	.LVL66:
 544 000a 0146     		mov	r1, r0
 545              	.LVL67:
 546 000c 04A8     		add	r0, sp, #16
 547              	.LVL68:
 548 000e FFF7FEFF 		bl	mrbc_array_new
 549              	.LVL69:
 775:c_array.c     **** 
 550              		.loc 1 775 0
 551 0012 069C     		ldr	r4, [sp, #24]
 552 0014 F4B1     		cbz	r4, .L35
 777:c_array.c     ****   value.array->n_stored = h->n_stored;
 553              		.loc 1 777 0
 554 0016 EA88     		ldrh	r2, [r5, #6]
 555 0018 1201     		lsls	r2, r2, #4
 556 001a A968     		ldr	r1, [r5, #8]
 557 001c A068     		ldr	r0, [r4, #8]
 558 001e FFF7FEFF 		bl	memcpy
 559              	.LVL70:
 778:c_array.c     **** 
 560              		.loc 1 778 0
 561 0022 ED88     		ldrh	r5, [r5, #6]
 562              	.LVL71:
 563 0024 E580     		strh	r5, [r4, #6]	@ movhi
 780:c_array.c     ****   const mrbc_value *p2 = p1 + value.array->n_stored;
 564              		.loc 1 780 0
 565 0026 A068     		ldr	r0, [r4, #8]
 566              	.LVL72:
 781:c_array.c     ****   while( p1 < p2 ) {
 567              		.loc 1 781 0
 568 0028 00EB0515 		add	r5, r0, r5, lsl #4
 569              	.LVL73:
 782:c_array.c     ****     mrbc_dup(p1++);
 570              		.loc 1 782 0
 571 002c 04E0     		b	.L37
 572              	.L38:
 783:c_array.c     ****   }
 573              		.loc 1 783 0
 574 002e 00F11004 		add	r4, r0, #16
 575              	.LVL74:
 576 0032 FFF7FEFF 		bl	mrbc_dup
 577              	.LVL75:
 578 0036 2046     		mov	r0, r4
 579              	.LVL76:
 580              	.L37:
ARM GAS  C:\Users\164\AppData\Local\Temp\ccuYWdBJ.s 			page 29


 782:c_array.c     ****     mrbc_dup(p1++);
 581              		.loc 1 782 0
 582 0038 A842     		cmp	r0, r5
 583 003a F8D3     		bcc	.L38
 584              	.LBB44:
 786:c_array.c     **** }
 585              		.loc 1 786 0
 586 003c 08AB     		add	r3, sp, #32
 587 003e 13E90F00 		ldmdb	r3, {r0, r1, r2, r3}
 588              	.LVL77:
 589 0042 8DE80F00 		stmia	sp, {r0, r1, r2, r3}
 590 0046 3046     		mov	r0, r6
 591 0048 FFF7FEFF 		bl	mrbc_dec_ref_counter
 592              	.LVL78:
 593 004c 9DE80F00 		ldmia	sp, {r0, r1, r2, r3}
 594 0050 86E80F00 		stmia	r6, {r0, r1, r2, r3}
 595              	.LVL79:
 596              	.L35:
 597              	.LBE44:
 787:c_array.c     **** 
 598              		.loc 1 787 0
 599 0054 08B0     		add	sp, sp, #32
 600              		.cfi_def_cfa_offset 16
 601              		@ sp needed
 602 0056 70BD     		pop	{r4, r5, r6, pc}
 603              		.cfi_endproc
 604              	.LFE115:
 605              		.size	c_array_dup, .-c_array_dup
 606              		.section	.text.c_array_add,"ax",%progbits
 607              		.align	2
 608              		.thumb
 609              		.thumb_func
 610              		.type	c_array_add, %function
 611              	c_array_add:
 612              	.LFB101:
 492:c_array.c     ****   if( GET_TT_ARG(1) != MRBC_TT_ARRAY ) {
 613              		.loc 1 492 0
 614              		.cfi_startproc
 615              		@ args = 0, pretend = 0, frame = 32
 616              		@ frame_needed = 0, uses_anonymous_args = 0
 617              	.LVL80:
 618 0000 F0B5     		push	{r4, r5, r6, r7, lr}
 619              		.cfi_def_cfa_offset 20
 620              		.cfi_offset 4, -20
 621              		.cfi_offset 5, -16
 622              		.cfi_offset 6, -12
 623              		.cfi_offset 7, -8
 624              		.cfi_offset 14, -4
 625 0002 89B0     		sub	sp, sp, #36
 626              		.cfi_def_cfa_offset 56
 493:c_array.c     ****     console_print( "TypeError\n" );	// raise?
 627              		.loc 1 493 0
 628 0004 91F91030 		ldrsb	r3, [r1, #16]
 629 0008 162B     		cmp	r3, #22
 630 000a 05D0     		beq	.L42
 631              	.LVL81:
 632              	.LBB48:
ARM GAS  C:\Users\164\AppData\Local\Temp\ccuYWdBJ.s 			page 30


 633              	.LBB49:
 634              		.file 3 "console.h"
   1:console.h     **** /*! @file
   2:console.h     ****   @brief
   3:console.h     ****   console output module. (not yet input)
   4:console.h     **** 
   5:console.h     ****   <pre>
   6:console.h     ****   Copyright (C) 2015-2018 Kyushu Institute of Technology.
   7:console.h     ****   Copyright (C) 2015-2018 Shimane IT Open-Innovation Center.
   8:console.h     **** 
   9:console.h     ****   This file is distributed under BSD 3-Clause License.
  10:console.h     **** 
  11:console.h     ****   </pre>
  12:console.h     **** */
  13:console.h     **** 
  14:console.h     **** #ifndef MRBC_SRC_CONSOLE_H_
  15:console.h     **** #define MRBC_SRC_CONSOLE_H_
  16:console.h     **** 
  17:console.h     **** #include <stdint.h>
  18:console.h     **** #include <stdarg.h>
  19:console.h     **** #include <string.h>
  20:console.h     **** #include "hal/hal.h"
  21:console.h     **** 
  22:console.h     **** #ifdef __cplusplus
  23:console.h     **** extern "C" {
  24:console.h     **** #endif
  25:console.h     **** 
  26:console.h     **** 
  27:console.h     **** //================================================================
  28:console.h     **** /*! printf tiny (mruby/c) version data container.
  29:console.h     **** */
  30:console.h     **** typedef struct RPrintf {
  31:console.h     ****   char *buf;		//!< output buffer.
  32:console.h     ****   const char *buf_end;	//!< output buffer end point.
  33:console.h     ****   char *p;		//!< output buffer write point.
  34:console.h     ****   const char *fstr;	//!< format string. (e.g. "%d %03x")
  35:console.h     **** 
  36:console.h     ****   struct RPrintfFormat {
  37:console.h     ****     char type;				//!< format char. (e.g. 'd','f','x'...)
  38:console.h     ****     unsigned int flag_plus : 1;
  39:console.h     ****     unsigned int flag_minus : 1;
  40:console.h     ****     unsigned int flag_space : 1;
  41:console.h     ****     unsigned int flag_zero : 1;
  42:console.h     ****     int width;				//!< display width. (e.g. %10d as 10)
  43:console.h     ****     int precision;			//!< precision (e.g. %5.2f as 2)
  44:console.h     ****   } fmt;
  45:console.h     **** } mrbc_printf;
  46:console.h     **** 
  47:console.h     **** 
  48:console.h     **** void console_printf(const char *fstr, ...);
  49:console.h     **** int mrbc_printf_main(mrbc_printf *pf);
  50:console.h     **** int mrbc_printf_char(mrbc_printf *pf, int ch);
  51:console.h     **** int mrbc_printf_bstr(mrbc_printf *pf, const char *str, int len, int pad);
  52:console.h     **** int mrbc_printf_int(mrbc_printf *pf, mrbc_int value, int base);
  53:console.h     **** int mrbc_printf_float(mrbc_printf *pf, double value);
  54:console.h     **** void mrbc_printf_replace_buffer(mrbc_printf *pf, char *buf, int size);
  55:console.h     **** 
ARM GAS  C:\Users\164\AppData\Local\Temp\ccuYWdBJ.s 			page 31


  56:console.h     **** 
  57:console.h     **** //================================================================
  58:console.h     **** /*! output a character
  59:console.h     **** 
  60:console.h     ****   @param  c	character
  61:console.h     **** */
  62:console.h     **** static inline void console_putchar(char c)
  63:console.h     **** {
  64:console.h     ****   hal_write(1, &c, 1);
  65:console.h     **** }
  66:console.h     **** 
  67:console.h     **** 
  68:console.h     **** //================================================================
  69:console.h     **** /*! output string
  70:console.h     **** 
  71:console.h     ****   @param str	str
  72:console.h     **** */
  73:console.h     **** static inline void console_print(const char *str)
  74:console.h     **** {
  75:console.h     ****   hal_write(1, str, strlen(str));
 635              		.loc 3 75 0
 636 000c 0A22     		movs	r2, #10
 637              	.LVL82:
 638 000e 2149     		ldr	r1, .L48
 639              	.LVL83:
 640 0010 0120     		movs	r0, #1
 641              	.LVL84:
 642 0012 FFF7FEFF 		bl	hal_write
 643              	.LVL85:
 644 0016 3AE0     		b	.L41
 645              	.LVL86:
 646              	.L42:
 647 0018 0E46     		mov	r6, r1
 648              	.LBE49:
 649              	.LBE48:
 498:c_array.c     ****   mrbc_array *h2 = v[1].array;
 650              		.loc 1 498 0
 651 001a 8D68     		ldr	r5, [r1, #8]
 652              	.LVL87:
 499:c_array.c     **** 
 653              		.loc 1 499 0
 654 001c 8F69     		ldr	r7, [r1, #24]
 655              	.LVL88:
 501:c_array.c     ****   if( value.array == NULL ) return;		// ENOMEM
 656              		.loc 1 501 0
 657 001e EA88     		ldrh	r2, [r5, #6]
 658              	.LVL89:
 659 0020 FB88     		ldrh	r3, [r7, #6]
 660 0022 1A44     		add	r2, r2, r3
 661 0024 0146     		mov	r1, r0
 662              	.LVL90:
 663 0026 04A8     		add	r0, sp, #16
 664              	.LVL91:
 665 0028 FFF7FEFF 		bl	mrbc_array_new
 666              	.LVL92:
 502:c_array.c     **** 
 667              		.loc 1 502 0
ARM GAS  C:\Users\164\AppData\Local\Temp\ccuYWdBJ.s 			page 32


 668 002c 069C     		ldr	r4, [sp, #24]
 669 002e 74B3     		cbz	r4, .L41
 505:c_array.c     ****   memcpy( value.array->data + h1->n_stored, h2->data,
 670              		.loc 1 505 0
 671 0030 EA88     		ldrh	r2, [r5, #6]
 504:c_array.c     **** 	  sizeof(mrbc_value) * h1->n_stored );
 672              		.loc 1 504 0
 673 0032 1201     		lsls	r2, r2, #4
 674 0034 A968     		ldr	r1, [r5, #8]
 675 0036 A068     		ldr	r0, [r4, #8]
 676 0038 FFF7FEFF 		bl	memcpy
 677              	.LVL93:
 506:c_array.c     **** 	  sizeof(mrbc_value) * h2->n_stored );
 678              		.loc 1 506 0
 679 003c A368     		ldr	r3, [r4, #8]
 680 003e E888     		ldrh	r0, [r5, #6]
 507:c_array.c     ****   value.array->n_stored = h1->n_stored + h2->n_stored;
 681              		.loc 1 507 0
 682 0040 FA88     		ldrh	r2, [r7, #6]
 506:c_array.c     **** 	  sizeof(mrbc_value) * h2->n_stored );
 683              		.loc 1 506 0
 684 0042 1201     		lsls	r2, r2, #4
 685 0044 B968     		ldr	r1, [r7, #8]
 686 0046 03EB0010 		add	r0, r3, r0, lsl #4
 687 004a FFF7FEFF 		bl	memcpy
 688              	.LVL94:
 508:c_array.c     **** 
 689              		.loc 1 508 0
 690 004e ED88     		ldrh	r5, [r5, #6]
 691              	.LVL95:
 692 0050 FB88     		ldrh	r3, [r7, #6]
 693 0052 1D44     		add	r5, r5, r3
 694 0054 ADB2     		uxth	r5, r5
 695 0056 E580     		strh	r5, [r4, #6]	@ movhi
 510:c_array.c     ****   const mrbc_value *p2 = p1 + value.array->n_stored;
 696              		.loc 1 510 0
 697 0058 A068     		ldr	r0, [r4, #8]
 698              	.LVL96:
 511:c_array.c     ****   while( p1 < p2 ) {
 699              		.loc 1 511 0
 700 005a 00EB0515 		add	r5, r0, r5, lsl #4
 701              	.LVL97:
 512:c_array.c     ****     mrbc_dup(p1++);
 702              		.loc 1 512 0
 703 005e 04E0     		b	.L44
 704              	.L45:
 513:c_array.c     ****   }
 705              		.loc 1 513 0
 706 0060 00F11004 		add	r4, r0, #16
 707              	.LVL98:
 708 0064 FFF7FEFF 		bl	mrbc_dup
 709              	.LVL99:
 710 0068 2046     		mov	r0, r4
 711              	.LVL100:
 712              	.L44:
 512:c_array.c     ****     mrbc_dup(p1++);
 713              		.loc 1 512 0
ARM GAS  C:\Users\164\AppData\Local\Temp\ccuYWdBJ.s 			page 33


 714 006a A842     		cmp	r0, r5
 715 006c F8D3     		bcc	.L45
 516:c_array.c     ****   SET_RETURN(value);
 716              		.loc 1 516 0
 717 006e 06F11000 		add	r0, r6, #16
 718              	.LVL101:
 719 0072 FFF7FEFF 		bl	mrbc_release
 720              	.LVL102:
 721              	.LBB50:
 517:c_array.c     **** }
 722              		.loc 1 517 0
 723 0076 08AB     		add	r3, sp, #32
 724 0078 13E90F00 		ldmdb	r3, {r0, r1, r2, r3}
 725 007c 8DE80F00 		stmia	sp, {r0, r1, r2, r3}
 726 0080 3046     		mov	r0, r6
 727 0082 FFF7FEFF 		bl	mrbc_dec_ref_counter
 728              	.LVL103:
 729 0086 9DE80F00 		ldmia	sp, {r0, r1, r2, r3}
 730 008a 86E80F00 		stmia	r6, {r0, r1, r2, r3}
 731              	.LVL104:
 732              	.L41:
 733              	.LBE50:
 518:c_array.c     **** 
 734              		.loc 1 518 0
 735 008e 09B0     		add	sp, sp, #36
 736              		.cfi_def_cfa_offset 20
 737              		@ sp needed
 738 0090 F0BD     		pop	{r4, r5, r6, r7, pc}
 739              	.L49:
 740 0092 00BF     		.align	2
 741              	.L48:
 742 0094 0C000000 		.word	.LC2
 743              		.cfi_endproc
 744              	.LFE101:
 745              		.size	c_array_add, .-c_array_add
 746              		.section	.text.mrbc_array_delete,"ax",%progbits
 747              		.align	2
 748              		.global	mrbc_array_delete
 749              		.thumb
 750              		.thumb_func
 751              		.type	mrbc_array_delete, %function
 752              	mrbc_array_delete:
 753              	.LFB86:
  99:c_array.c     ****   mrbc_array *h = ary->array;
 754              		.loc 1 99 0
 755              		.cfi_startproc
 756              		@ args = 0, pretend = 0, frame = 0
 757              		@ frame_needed = 0, uses_anonymous_args = 0
 758              	.LVL105:
 759 0000 70B5     		push	{r4, r5, r6, lr}
 760              		.cfi_def_cfa_offset 16
 761              		.cfi_offset 4, -16
 762              		.cfi_offset 5, -12
 763              		.cfi_offset 6, -8
 764              		.cfi_offset 14, -4
 100:c_array.c     **** 
 765              		.loc 1 100 0
ARM GAS  C:\Users\164\AppData\Local\Temp\ccuYWdBJ.s 			page 34


 766 0002 8668     		ldr	r6, [r0, #8]
 767              	.LVL106:
 102:c_array.c     ****   const mrbc_value *p2 = p1 + h->n_stored;
 768              		.loc 1 102 0
 769 0004 B068     		ldr	r0, [r6, #8]
 770              	.LVL107:
 103:c_array.c     ****   while( p1 < p2 ) {
 771              		.loc 1 103 0
 772 0006 F588     		ldrh	r5, [r6, #6]
 773 0008 00EB0515 		add	r5, r0, r5, lsl #4
 774              	.LVL108:
 104:c_array.c     ****     mrbc_dec_ref_counter(p1++);
 775              		.loc 1 104 0
 776 000c 04E0     		b	.L51
 777              	.L52:
 105:c_array.c     ****   }
 778              		.loc 1 105 0
 779 000e 00F11004 		add	r4, r0, #16
 780              	.LVL109:
 781 0012 FFF7FEFF 		bl	mrbc_dec_ref_counter
 782              	.LVL110:
 783 0016 2046     		mov	r0, r4
 784              	.LVL111:
 785              	.L51:
 104:c_array.c     ****     mrbc_dec_ref_counter(p1++);
 786              		.loc 1 104 0
 787 0018 A842     		cmp	r0, r5
 788 001a F8D3     		bcc	.L52
 108:c_array.c     ****   mrbc_raw_free(h);
 789              		.loc 1 108 0
 790 001c B068     		ldr	r0, [r6, #8]
 791              	.LVL112:
 792 001e FFF7FEFF 		bl	mrbc_raw_free
 793              	.LVL113:
 109:c_array.c     **** }
 794              		.loc 1 109 0
 795 0022 3046     		mov	r0, r6
 796 0024 FFF7FEFF 		bl	mrbc_raw_free
 797              	.LVL114:
 798 0028 70BD     		pop	{r4, r5, r6, pc}
 799              		.cfi_endproc
 800              	.LFE86:
 801              		.size	mrbc_array_delete, .-mrbc_array_delete
 802 002a 00BF     		.section	.text.mrbc_array_clear_vm_id,"ax",%progbits
 803              		.align	2
 804              		.global	mrbc_array_clear_vm_id
 805              		.thumb
 806              		.thumb_func
 807              		.type	mrbc_array_clear_vm_id, %function
 808              	mrbc_array_clear_vm_id:
 809              	.LFB87:
 119:c_array.c     ****   mrbc_array *h = ary->array;
 810              		.loc 1 119 0
 811              		.cfi_startproc
 812              		@ args = 0, pretend = 0, frame = 0
 813              		@ frame_needed = 0, uses_anonymous_args = 0
 814              	.LVL115:
ARM GAS  C:\Users\164\AppData\Local\Temp\ccuYWdBJ.s 			page 35


 815 0000 38B5     		push	{r3, r4, r5, lr}
 816              		.cfi_def_cfa_offset 16
 817              		.cfi_offset 3, -16
 818              		.cfi_offset 4, -12
 819              		.cfi_offset 5, -8
 820              		.cfi_offset 14, -4
 120:c_array.c     **** 
 821              		.loc 1 120 0
 822 0002 8468     		ldr	r4, [r0, #8]
 823              	.LVL116:
 122:c_array.c     **** 
 824              		.loc 1 122 0
 825 0004 0021     		movs	r1, #0
 826 0006 2046     		mov	r0, r4
 827              	.LVL117:
 828 0008 FFF7FEFF 		bl	mrbc_set_vm_id
 829              	.LVL118:
 124:c_array.c     ****   const mrbc_value *p2 = p1 + h->n_stored;
 830              		.loc 1 124 0
 831 000c A068     		ldr	r0, [r4, #8]
 832              	.LVL119:
 125:c_array.c     ****   while( p1 < p2 ) {
 833              		.loc 1 125 0
 834 000e E588     		ldrh	r5, [r4, #6]
 835 0010 00EB0515 		add	r5, r0, r5, lsl #4
 836              	.LVL120:
 126:c_array.c     ****     mrbc_clear_vm_id(p1++);
 837              		.loc 1 126 0
 838 0014 04E0     		b	.L55
 839              	.LVL121:
 840              	.L56:
 127:c_array.c     ****   }
 841              		.loc 1 127 0
 842 0016 00F11004 		add	r4, r0, #16
 843              	.LVL122:
 844 001a FFF7FEFF 		bl	mrbc_clear_vm_id
 845              	.LVL123:
 846 001e 2046     		mov	r0, r4
 847              	.LVL124:
 848              	.L55:
 126:c_array.c     ****     mrbc_clear_vm_id(p1++);
 849              		.loc 1 126 0
 850 0020 A842     		cmp	r0, r5
 851 0022 F8D3     		bcc	.L56
 129:c_array.c     **** 
 852              		.loc 1 129 0
 853 0024 38BD     		pop	{r3, r4, r5, pc}
 854              		.cfi_endproc
 855              	.LFE87:
 856              		.size	mrbc_array_clear_vm_id, .-mrbc_array_clear_vm_id
 857 0026 00BF     		.section	.text.mrbc_array_resize,"ax",%progbits
 858              		.align	2
 859              		.global	mrbc_array_resize
 860              		.thumb
 861              		.thumb_func
 862              		.type	mrbc_array_resize, %function
 863              	mrbc_array_resize:
ARM GAS  C:\Users\164\AppData\Local\Temp\ccuYWdBJ.s 			page 36


 864              	.LFB88:
 140:c_array.c     ****   mrbc_array *h = ary->array;
 865              		.loc 1 140 0
 866              		.cfi_startproc
 867              		@ args = 0, pretend = 0, frame = 0
 868              		@ frame_needed = 0, uses_anonymous_args = 0
 869              	.LVL125:
 870 0000 38B5     		push	{r3, r4, r5, lr}
 871              		.cfi_def_cfa_offset 16
 872              		.cfi_offset 3, -16
 873              		.cfi_offset 4, -12
 874              		.cfi_offset 5, -8
 875              		.cfi_offset 14, -4
 876 0002 0D46     		mov	r5, r1
 141:c_array.c     **** 
 877              		.loc 1 141 0
 878 0004 8468     		ldr	r4, [r0, #8]
 879              	.LVL126:
 143:c_array.c     ****   if( !data2 ) return E_NOMEMORY_ERROR;	// ENOMEM
 880              		.loc 1 143 0
 881 0006 0901     		lsls	r1, r1, #4
 882              	.LVL127:
 883 0008 A068     		ldr	r0, [r4, #8]
 884              	.LVL128:
 885 000a FFF7FEFF 		bl	mrbc_raw_realloc
 886              	.LVL129:
 144:c_array.c     **** 
 887              		.loc 1 144 0
 888 000e 18B1     		cbz	r0, .L60
 146:c_array.c     ****   h->data_size = size;
 889              		.loc 1 146 0
 890 0010 A060     		str	r0, [r4, #8]
 147:c_array.c     **** 
 891              		.loc 1 147 0
 892 0012 A580     		strh	r5, [r4, #4]	@ movhi
 149:c_array.c     **** }
 893              		.loc 1 149 0
 894 0014 0020     		movs	r0, #0
 895              	.LVL130:
 896 0016 38BD     		pop	{r3, r4, r5, pc}
 897              	.LVL131:
 898              	.L60:
 144:c_array.c     **** 
 899              		.loc 1 144 0
 900 0018 0120     		movs	r0, #1
 901              	.LVL132:
 150:c_array.c     **** 
 902              		.loc 1 150 0
 903 001a 38BD     		pop	{r3, r4, r5, pc}
 904              		.cfi_endproc
 905              	.LFE88:
 906              		.size	mrbc_array_resize, .-mrbc_array_resize
 907              		.section	.text.mrbc_array_set,"ax",%progbits
 908              		.align	2
 909              		.global	mrbc_array_set
 910              		.thumb
 911              		.thumb_func
ARM GAS  C:\Users\164\AppData\Local\Temp\ccuYWdBJ.s 			page 37


 912              		.type	mrbc_array_set, %function
 913              	mrbc_array_set:
 914              	.LFB89:
 162:c_array.c     ****   mrbc_array *h = ary->array;
 915              		.loc 1 162 0
 916              		.cfi_startproc
 917              		@ args = 0, pretend = 0, frame = 0
 918              		@ frame_needed = 0, uses_anonymous_args = 0
 919              	.LVL133:
 920 0000 F8B5     		push	{r3, r4, r5, r6, r7, lr}
 921              		.cfi_def_cfa_offset 24
 922              		.cfi_offset 3, -24
 923              		.cfi_offset 4, -20
 924              		.cfi_offset 5, -16
 925              		.cfi_offset 6, -12
 926              		.cfi_offset 7, -8
 927              		.cfi_offset 14, -4
 928 0002 1746     		mov	r7, r2
 163:c_array.c     **** 
 929              		.loc 1 163 0
 930 0004 8668     		ldr	r6, [r0, #8]
 931              	.LVL134:
 165:c_array.c     ****     idx = h->n_stored + idx;
 932              		.loc 1 165 0
 933 0006 0D1E     		subs	r5, r1, #0
 934 0008 02DA     		bge	.L63
 166:c_array.c     ****     if( idx < 0 ) return E_INDEX_ERROR;		// raise?
 935              		.loc 1 166 0
 936 000a F388     		ldrh	r3, [r6, #6]
 937              	.LVL135:
 167:c_array.c     ****   }
 938              		.loc 1 167 0
 939 000c ED18     		adds	r5, r5, r3
 940              	.LVL136:
 941 000e 27D4     		bmi	.L69
 942              	.L63:
 171:c_array.c     ****     return E_NOMEMORY_ERROR;			// ENOMEM
 943              		.loc 1 171 0
 944 0010 B388     		ldrh	r3, [r6, #4]
 945 0012 9D42     		cmp	r5, r3
 946 0014 03DB     		blt	.L65
 171:c_array.c     ****     return E_NOMEMORY_ERROR;			// ENOMEM
 947              		.loc 1 171 0 is_stmt 0 discriminator 1
 948 0016 691C     		adds	r1, r5, #1
 949 0018 FFF7FEFF 		bl	mrbc_array_resize
 950              	.LVL137:
 951 001c 10BB     		cbnz	r0, .L70
 952              	.L65:
 175:c_array.c     ****     // release existing data.
 953              		.loc 1 175 0 is_stmt 1
 954 001e F288     		ldrh	r2, [r6, #6]
 955 0020 9542     		cmp	r5, r2
 956 0022 10DA     		bge	.L66
 177:c_array.c     ****   } else {
 957              		.loc 1 177 0
 958 0024 B068     		ldr	r0, [r6, #8]
 959 0026 00EB0510 		add	r0, r0, r5, lsl #4
ARM GAS  C:\Users\164\AppData\Local\Temp\ccuYWdBJ.s 			page 38


 960 002a FFF7FEFF 		bl	mrbc_dec_ref_counter
 961              	.LVL138:
 962 002e 0EE0     		b	.L67
 963              	.LVL139:
 964              	.L68:
 965              	.LBB51:
 182:c_array.c     ****     }
 966              		.loc 1 182 0 discriminator 3
 967 0030 B068     		ldr	r0, [r6, #8]
 968 0032 1101     		lsls	r1, r2, #4
 969 0034 4418     		adds	r4, r0, r1
 970 0036 0023     		movs	r3, #0
 971 0038 4350     		str	r3, [r0, r1]
 972 003a 6360     		str	r3, [r4, #4]
 973 003c A360     		str	r3, [r4, #8]
 974 003e E360     		str	r3, [r4, #12]
 975 0040 0123     		movs	r3, #1
 976 0042 4354     		strb	r3, [r0, r1]
 181:c_array.c     ****       h->data[i] = mrbc_nil_value();
 977              		.loc 1 181 0 discriminator 3
 978 0044 1A44     		add	r2, r2, r3
 979              	.LVL140:
 980              	.L66:
 181:c_array.c     ****       h->data[i] = mrbc_nil_value();
 981              		.loc 1 181 0 is_stmt 0 discriminator 1
 982 0046 9542     		cmp	r5, r2
 983 0048 F2DC     		bgt	.L68
 184:c_array.c     ****   }
 984              		.loc 1 184 0 is_stmt 1
 985 004a 6B1C     		adds	r3, r5, #1
 986 004c F380     		strh	r3, [r6, #6]	@ movhi
 987              	.LVL141:
 988              	.L67:
 989              	.LBE51:
 187:c_array.c     **** 
 990              		.loc 1 187 0
 991 004e B368     		ldr	r3, [r6, #8]
 992 0050 03EB0515 		add	r5, r3, r5, lsl #4
 993              	.LVL142:
 994 0054 97E80F00 		ldmia	r7, {r0, r1, r2, r3}
 995 0058 85E80F00 		stmia	r5, {r0, r1, r2, r3}
 189:c_array.c     **** }
 996              		.loc 1 189 0
 997 005c 0020     		movs	r0, #0
 998 005e F8BD     		pop	{r3, r4, r5, r6, r7, pc}
 999              	.LVL143:
 1000              	.L69:
 167:c_array.c     ****   }
 1001              		.loc 1 167 0
 1002 0060 0520     		movs	r0, #5
 1003              	.LVL144:
 1004 0062 F8BD     		pop	{r3, r4, r5, r6, r7, pc}
 1005              	.LVL145:
 1006              	.L70:
 172:c_array.c     ****   }
 1007              		.loc 1 172 0
 1008 0064 0120     		movs	r0, #1
ARM GAS  C:\Users\164\AppData\Local\Temp\ccuYWdBJ.s 			page 39


 190:c_array.c     **** 
 1009              		.loc 1 190 0
 1010 0066 F8BD     		pop	{r3, r4, r5, r6, r7, pc}
 1011              		.cfi_endproc
 1012              	.LFE89:
 1013              		.size	mrbc_array_set, .-mrbc_array_set
 1014              		.section	.text.c_array_set,"ax",%progbits
 1015              		.align	2
 1016              		.thumb
 1017              		.thumb_func
 1018              		.type	c_array_set, %function
 1019              	c_array_set:
 1020              	.LFB103:
 578:c_array.c     ****   /*
 1021              		.loc 1 578 0
 1022              		.cfi_startproc
 1023              		@ args = 0, pretend = 0, frame = 0
 1024              		@ frame_needed = 0, uses_anonymous_args = 0
 1025              	.LVL146:
 1026 0000 10B5     		push	{r4, lr}
 1027              		.cfi_def_cfa_offset 8
 1028              		.cfi_offset 4, -8
 1029              		.cfi_offset 14, -4
 582:c_array.c     ****     mrbc_array_set(v, v[1].i, &v[2]);	// raise? IndexError or ENOMEM
 1030              		.loc 1 582 0
 1031 0002 022A     		cmp	r2, #2
 1032 0004 0ED1     		bne	.L73
 1033 0006 0C46     		mov	r4, r1
 582:c_array.c     ****     mrbc_array_set(v, v[1].i, &v[2]);	// raise? IndexError or ENOMEM
 1034              		.loc 1 582 0 is_stmt 0 discriminator 1
 1035 0008 91F91030 		ldrsb	r3, [r1, #16]
 1036 000c 042B     		cmp	r3, #4
 1037 000e 09D1     		bne	.L73
 583:c_array.c     ****     v[2].tt = MRBC_TT_EMPTY;
 1038              		.loc 1 583 0 is_stmt 1
 1039 0010 01F12002 		add	r2, r1, #32
 1040              	.LVL147:
 1041 0014 8969     		ldr	r1, [r1, #24]
 1042              	.LVL148:
 1043 0016 2046     		mov	r0, r4
 1044              	.LVL149:
 1045 0018 FFF7FEFF 		bl	mrbc_array_set
 1046              	.LVL150:
 584:c_array.c     ****     return;
 1047              		.loc 1 584 0
 1048 001c 0023     		movs	r3, #0
 1049 001e 84F82030 		strb	r3, [r4, #32]
 585:c_array.c     ****   }
 1050              		.loc 1 585 0
 1051 0022 10BD     		pop	{r4, pc}
 1052              	.LVL151:
 1053              	.L73:
 1054              	.LBB54:
 1055              	.LBB55:
 1056              		.loc 3 75 0
 1057 0024 2322     		movs	r2, #35
 1058              	.LVL152:
ARM GAS  C:\Users\164\AppData\Local\Temp\ccuYWdBJ.s 			page 40


 1059 0026 0249     		ldr	r1, .L76
 1060              	.LVL153:
 1061 0028 0120     		movs	r0, #1
 1062              	.LVL154:
 1063 002a FFF7FEFF 		bl	hal_write
 1064              	.LVL155:
 1065 002e 10BD     		pop	{r4, pc}
 1066              	.L77:
 1067              		.align	2
 1068              	.L76:
 1069 0030 18000000 		.word	.LC3
 1070              	.LBE55:
 1071              	.LBE54:
 1072              		.cfi_endproc
 1073              	.LFE103:
 1074              		.size	c_array_set, .-c_array_set
 1075              		.section	.text.c_array_new,"ax",%progbits
 1076              		.align	2
 1077              		.thumb
 1078              		.thumb_func
 1079              		.type	c_array_new, %function
 1080              	c_array_new:
 1081              	.LFB100:
 438:c_array.c     ****   /*
 1082              		.loc 1 438 0
 1083              		.cfi_startproc
 1084              		@ args = 0, pretend = 0, frame = 48
 1085              		@ frame_needed = 0, uses_anonymous_args = 0
 1086              	.LVL156:
 1087 0000 70B5     		push	{r4, r5, r6, lr}
 1088              		.cfi_def_cfa_offset 16
 1089              		.cfi_offset 4, -16
 1090              		.cfi_offset 5, -12
 1091              		.cfi_offset 6, -8
 1092              		.cfi_offset 14, -4
 1093 0002 8CB0     		sub	sp, sp, #48
 1094              		.cfi_def_cfa_offset 64
 1095 0004 0C46     		mov	r4, r1
 442:c_array.c     ****     mrbc_value ret = mrbc_array_new(vm, 0);
 1096              		.loc 1 442 0
 1097 0006 9AB9     		cbnz	r2, .L79
 1098              	.LBB64:
 443:c_array.c     ****     if( ret.array == NULL ) return;		// ENOMEM
 1099              		.loc 1 443 0
 1100 0008 0146     		mov	r1, r0
 1101              	.LVL157:
 1102 000a 04A8     		add	r0, sp, #16
 1103              	.LVL158:
 1104 000c FFF7FEFF 		bl	mrbc_array_new
 1105              	.LVL159:
 444:c_array.c     **** 
 1106              		.loc 1 444 0
 1107 0010 069B     		ldr	r3, [sp, #24]
 1108 0012 002B     		cmp	r3, #0
 1109 0014 6BD0     		beq	.L78
 1110              	.LBB65:
 446:c_array.c     ****     return;
ARM GAS  C:\Users\164\AppData\Local\Temp\ccuYWdBJ.s 			page 41


 1111              		.loc 1 446 0 discriminator 2
 1112 0016 08AD     		add	r5, sp, #32
 1113 0018 04AB     		add	r3, sp, #16
 1114 001a 0FCB     		ldmia	r3, {r0, r1, r2, r3}
 1115 001c 85E80F00 		stmia	r5, {r0, r1, r2, r3}
 1116 0020 2046     		mov	r0, r4
 1117 0022 FFF7FEFF 		bl	mrbc_dec_ref_counter
 1118              	.LVL160:
 1119 0026 95E80F00 		ldmia	r5, {r0, r1, r2, r3}
 1120 002a 84E80F00 		stmia	r4, {r0, r1, r2, r3}
 1121              	.LBE65:
 447:c_array.c     ****   }
 1122              		.loc 1 447 0 discriminator 2
 1123 002e 5EE0     		b	.L78
 1124              	.LVL161:
 1125              	.L79:
 1126 0030 1346     		mov	r3, r2
 1127              	.LBE64:
 453:c_array.c     ****     mrbc_value ret = mrbc_array_new(vm, v[1].i);
 1128              		.loc 1 453 0
 1129 0032 012A     		cmp	r2, #1
 1130 0034 2AD1     		bne	.L82
 453:c_array.c     ****     mrbc_value ret = mrbc_array_new(vm, v[1].i);
 1131              		.loc 1 453 0 is_stmt 0 discriminator 1
 1132 0036 91F91020 		ldrsb	r2, [r1, #16]
 1133              	.LVL162:
 1134 003a 042A     		cmp	r2, #4
 1135 003c 26D1     		bne	.L82
 453:c_array.c     ****     mrbc_value ret = mrbc_array_new(vm, v[1].i);
 1136              		.loc 1 453 0 discriminator 2
 1137 003e 8A69     		ldr	r2, [r1, #24]
 1138 0040 002A     		cmp	r2, #0
 1139 0042 23DB     		blt	.L82
 1140              	.LBB66:
 454:c_array.c     ****     if( ret.array == NULL ) return;		// ENOMEM
 1141              		.loc 1 454 0 is_stmt 1
 1142 0044 0146     		mov	r1, r0
 1143              	.LVL163:
 1144 0046 6846     		mov	r0, sp
 1145              	.LVL164:
 1146 0048 FFF7FEFF 		bl	mrbc_array_new
 1147              	.LVL165:
 455:c_array.c     **** 
 1148              		.loc 1 455 0
 1149 004c 029B     		ldr	r3, [sp, #8]
 1150 004e 002B     		cmp	r3, #0
 1151 0050 4DD0     		beq	.L78
 457:c_array.c     ****     if( v[1].i > 0 ) {
 1152              		.loc 1 457 0
 1153 0052 0023     		movs	r3, #0
 1154 0054 0493     		str	r3, [sp, #16]
 1155 0056 0593     		str	r3, [sp, #20]
 1156 0058 0693     		str	r3, [sp, #24]
 1157 005a 0793     		str	r3, [sp, #28]
 1158 005c 0123     		movs	r3, #1
 1159 005e 8DF81030 		strb	r3, [sp, #16]
 458:c_array.c     ****       mrbc_array_set(&ret, v[1].i - 1, &nil);
ARM GAS  C:\Users\164\AppData\Local\Temp\ccuYWdBJ.s 			page 42


 1160              		.loc 1 458 0
 1161 0062 A169     		ldr	r1, [r4, #24]
 1162 0064 0029     		cmp	r1, #0
 1163 0066 04DD     		ble	.L84
 459:c_array.c     ****     }
 1164              		.loc 1 459 0
 1165 0068 04AA     		add	r2, sp, #16
 1166 006a 0139     		subs	r1, r1, #1
 1167 006c 6846     		mov	r0, sp
 1168 006e FFF7FEFF 		bl	mrbc_array_set
 1169              	.LVL166:
 1170              	.L84:
 1171              	.LBB67:
 461:c_array.c     ****     return;
 1172              		.loc 1 461 0 discriminator 5
 1173 0072 08AD     		add	r5, sp, #32
 1174 0074 9DE80F00 		ldmia	sp, {r0, r1, r2, r3}
 1175 0078 85E80F00 		stmia	r5, {r0, r1, r2, r3}
 1176 007c 2046     		mov	r0, r4
 1177 007e FFF7FEFF 		bl	mrbc_dec_ref_counter
 1178              	.LVL167:
 1179 0082 95E80F00 		ldmia	r5, {r0, r1, r2, r3}
 1180 0086 84E80F00 		stmia	r4, {r0, r1, r2, r3}
 1181              	.LBE67:
 462:c_array.c     ****   }
 1182              		.loc 1 462 0 discriminator 5
 1183 008a 30E0     		b	.L78
 1184              	.LVL168:
 1185              	.L82:
 1186              	.LBE66:
 468:c_array.c     ****     mrbc_value ret = mrbc_array_new(vm, v[1].i);
 1187              		.loc 1 468 0
 1188 008c 022B     		cmp	r3, #2
 1189 008e 29D1     		bne	.L85
 468:c_array.c     ****     mrbc_value ret = mrbc_array_new(vm, v[1].i);
 1190              		.loc 1 468 0 is_stmt 0 discriminator 1
 1191 0090 94F91030 		ldrsb	r3, [r4, #16]
 1192              	.LVL169:
 1193 0094 042B     		cmp	r3, #4
 1194 0096 25D1     		bne	.L85
 468:c_array.c     ****     mrbc_value ret = mrbc_array_new(vm, v[1].i);
 1195              		.loc 1 468 0 discriminator 2
 1196 0098 A269     		ldr	r2, [r4, #24]
 1197 009a 002A     		cmp	r2, #0
 1198 009c 22DB     		blt	.L85
 1199              	.LBB68:
 469:c_array.c     ****     if( ret.array == NULL ) return;		// ENOMEM
 1200              		.loc 1 469 0 is_stmt 1
 1201 009e 0146     		mov	r1, r0
 1202              	.LVL170:
 1203 00a0 04A8     		add	r0, sp, #16
 1204              	.LVL171:
 1205 00a2 FFF7FEFF 		bl	mrbc_array_new
 1206              	.LVL172:
 470:c_array.c     **** 
 1207              		.loc 1 470 0
 1208 00a6 069B     		ldr	r3, [sp, #24]
ARM GAS  C:\Users\164\AppData\Local\Temp\ccuYWdBJ.s 			page 43


 1209 00a8 0BB3     		cbz	r3, .L78
 1210 00aa 0025     		movs	r5, #0
 1211 00ac 0AE0     		b	.L87
 1212              	.LVL173:
 1213              	.L88:
 474:c_array.c     ****       mrbc_array_set(&ret, i, &v[2]);
 1214              		.loc 1 474 0 discriminator 3
 1215 00ae 04F12006 		add	r6, r4, #32
 1216 00b2 3046     		mov	r0, r6
 1217 00b4 FFF7FEFF 		bl	mrbc_dup
 1218              	.LVL174:
 475:c_array.c     ****     }
 1219              		.loc 1 475 0 discriminator 3
 1220 00b8 3246     		mov	r2, r6
 1221 00ba 2946     		mov	r1, r5
 1222 00bc 04A8     		add	r0, sp, #16
 1223 00be FFF7FEFF 		bl	mrbc_array_set
 1224              	.LVL175:
 473:c_array.c     ****       mrbc_dup(&v[2]);
 1225              		.loc 1 473 0 discriminator 3
 1226 00c2 0135     		adds	r5, r5, #1
 1227              	.LVL176:
 1228              	.L87:
 473:c_array.c     ****       mrbc_dup(&v[2]);
 1229              		.loc 1 473 0 is_stmt 0 discriminator 1
 1230 00c4 A369     		ldr	r3, [r4, #24]
 1231 00c6 9D42     		cmp	r5, r3
 1232 00c8 F1DB     		blt	.L88
 1233              	.LBB69:
 477:c_array.c     ****     return;
 1234              		.loc 1 477 0 is_stmt 1 discriminator 8
 1235 00ca 08AD     		add	r5, sp, #32
 1236              	.LVL177:
 1237 00cc 04AB     		add	r3, sp, #16
 1238 00ce 0FCB     		ldmia	r3, {r0, r1, r2, r3}
 1239 00d0 85E80F00 		stmia	r5, {r0, r1, r2, r3}
 1240 00d4 2046     		mov	r0, r4
 1241 00d6 FFF7FEFF 		bl	mrbc_dec_ref_counter
 1242              	.LVL178:
 1243 00da 95E80F00 		ldmia	r5, {r0, r1, r2, r3}
 1244 00de 84E80F00 		stmia	r4, {r0, r1, r2, r3}
 1245              	.LBE69:
 478:c_array.c     ****   }
 1246              		.loc 1 478 0 discriminator 8
 1247 00e2 04E0     		b	.L78
 1248              	.LVL179:
 1249              	.L85:
 1250              	.LBE68:
 1251              	.LBB70:
 1252              	.LBB71:
 1253              		.loc 3 75 0
 1254 00e4 0E22     		movs	r2, #14
 1255 00e6 0349     		ldr	r1, .L90
 1256              	.LVL180:
 1257 00e8 0120     		movs	r0, #1
 1258              	.LVL181:
 1259 00ea FFF7FEFF 		bl	hal_write
ARM GAS  C:\Users\164\AppData\Local\Temp\ccuYWdBJ.s 			page 44


 1260              	.LVL182:
 1261              	.L78:
 1262              	.LBE71:
 1263              	.LBE70:
 485:c_array.c     **** 
 1264              		.loc 1 485 0
 1265 00ee 0CB0     		add	sp, sp, #48
 1266              		.cfi_def_cfa_offset 16
 1267              		@ sp needed
 1268 00f0 70BD     		pop	{r4, r5, r6, pc}
 1269              	.LVL183:
 1270              	.L91:
 1271 00f2 00BF     		.align	2
 1272              	.L90:
 1273 00f4 3C000000 		.word	.LC4
 1274              		.cfi_endproc
 1275              	.LFE100:
 1276              		.size	c_array_new, .-c_array_new
 1277              		.section	.text.mrbc_array_get,"ax",%progbits
 1278              		.align	2
 1279              		.global	mrbc_array_get
 1280              		.thumb
 1281              		.thumb_func
 1282              		.type	mrbc_array_get, %function
 1283              	mrbc_array_get:
 1284              	.LFB90:
 201:c_array.c     ****   mrbc_array *h = ary->array;
 1285              		.loc 1 201 0
 1286              		.cfi_startproc
 1287              		@ args = 0, pretend = 0, frame = 0
 1288              		@ frame_needed = 0, uses_anonymous_args = 0
 1289              		@ link register save eliminated.
 1290              	.LVL184:
 1291 0000 10B4     		push	{r4}
 1292              		.cfi_def_cfa_offset 4
 1293              		.cfi_offset 4, -4
 1294 0002 0446     		mov	r4, r0
 202:c_array.c     **** 
 1295              		.loc 1 202 0
 1296 0004 8B68     		ldr	r3, [r1, #8]
 1297              	.LVL185:
 204:c_array.c     ****   if( idx < 0 || idx >= h->n_stored ) return mrbc_nil_value();
 1298              		.loc 1 204 0
 1299 0006 002A     		cmp	r2, #0
 1300 0008 01DA     		bge	.L93
 204:c_array.c     ****   if( idx < 0 || idx >= h->n_stored ) return mrbc_nil_value();
 1301              		.loc 1 204 0 is_stmt 0 discriminator 1
 1302 000a D988     		ldrh	r1, [r3, #6]
 1303              	.LVL186:
 1304 000c 0A44     		add	r2, r2, r1
 1305              	.LVL187:
 1306              	.L93:
 205:c_array.c     **** 
 1307              		.loc 1 205 0 is_stmt 1
 1308 000e 002A     		cmp	r2, #0
 1309 0010 02DB     		blt	.L94
 205:c_array.c     **** 
ARM GAS  C:\Users\164\AppData\Local\Temp\ccuYWdBJ.s 			page 45


 1310              		.loc 1 205 0 is_stmt 0 discriminator 2
 1311 0012 D988     		ldrh	r1, [r3, #6]
 1312 0014 8A42     		cmp	r2, r1
 1313 0016 07DB     		blt	.L95
 1314              	.L94:
 205:c_array.c     **** 
 1315              		.loc 1 205 0 discriminator 3
 1316 0018 0023     		movs	r3, #0
 1317              	.LVL188:
 1318 001a 2360     		str	r3, [r4]
 1319 001c 6360     		str	r3, [r4, #4]
 1320 001e A360     		str	r3, [r4, #8]
 1321 0020 E360     		str	r3, [r4, #12]
 1322 0022 0123     		movs	r3, #1
 1323 0024 2370     		strb	r3, [r4]
 1324 0026 05E0     		b	.L92
 1325              	.LVL189:
 1326              	.L95:
 207:c_array.c     **** }
 1327              		.loc 1 207 0 is_stmt 1
 1328 0028 9B68     		ldr	r3, [r3, #8]
 1329              	.LVL190:
 1330 002a 03EB0212 		add	r2, r3, r2, lsl #4
 1331              	.LVL191:
 1332 002e 0FCA     		ldmia	r2, {r0, r1, r2, r3}
 1333              	.LVL192:
 1334 0030 84E80F00 		stmia	r4, {r0, r1, r2, r3}
 1335              	.L92:
 208:c_array.c     **** 
 1336              		.loc 1 208 0
 1337 0034 2046     		mov	r0, r4
 1338 0036 10BC     		pop	{r4}
 1339              		.cfi_restore 4
 1340              		.cfi_def_cfa_offset 0
 1341              	.LVL193:
 1342 0038 7047     		bx	lr
 1343              		.cfi_endproc
 1344              	.LFE90:
 1345              		.size	mrbc_array_get, .-mrbc_array_get
 1346              		.section	.text.c_array_inspect,"ax",%progbits
 1347              		.align	2
 1348              		.thumb
 1349              		.thumb_func
 1350              		.type	c_array_inspect, %function
 1351              	c_array_inspect:
 1352              	.LFB119:
 860:c_array.c     ****   mrbc_value ret = mrbc_string_new_cstr(vm, "[");
 1353              		.loc 1 860 0
 1354              		.cfi_startproc
 1355              		@ args = 0, pretend = 0, frame = 48
 1356              		@ frame_needed = 0, uses_anonymous_args = 0
 1357              	.LVL194:
 1358 0000 2DE9F041 		push	{r4, r5, r6, r7, r8, lr}
 1359              		.cfi_def_cfa_offset 24
 1360              		.cfi_offset 4, -24
 1361              		.cfi_offset 5, -20
 1362              		.cfi_offset 6, -16
ARM GAS  C:\Users\164\AppData\Local\Temp\ccuYWdBJ.s 			page 46


 1363              		.cfi_offset 7, -12
 1364              		.cfi_offset 8, -8
 1365              		.cfi_offset 14, -4
 1366 0004 90B0     		sub	sp, sp, #64
 1367              		.cfi_def_cfa_offset 88
 1368 0006 0746     		mov	r7, r0
 1369 0008 0D46     		mov	r5, r1
 1370 000a 9046     		mov	r8, r2
 861:c_array.c     ****   if( !ret.string ) goto RETURN_NIL;		// ENOMEM
 1371              		.loc 1 861 0
 1372 000c 224A     		ldr	r2, .L105
 1373              	.LVL195:
 1374 000e 0146     		mov	r1, r0
 1375              	.LVL196:
 1376 0010 0CA8     		add	r0, sp, #48
 1377              	.LVL197:
 1378 0012 FFF7FEFF 		bl	mrbc_string_new_cstr
 1379              	.LVL198:
 862:c_array.c     **** 
 1380              		.loc 1 862 0
 1381 0016 0E9B     		ldr	r3, [sp, #56]
 1382 0018 002B     		cmp	r3, #0
 1383 001a 35D0     		beq	.L99
 1384 001c 0024     		movs	r4, #0
 1385 001e 1DE0     		b	.L100
 1386              	.LVL199:
 1387              	.L102:
 1388              	.LBB72:
 866:c_array.c     **** 
 1389              		.loc 1 866 0
 1390 0020 1CB1     		cbz	r4, .L101
 866:c_array.c     **** 
 1391              		.loc 1 866 0 is_stmt 0 discriminator 1
 1392 0022 1E49     		ldr	r1, .L105+4
 1393 0024 0CA8     		add	r0, sp, #48
 1394 0026 FFF7FEFF 		bl	mrbc_string_append_cstr
 1395              	.LVL200:
 1396              	.L101:
 868:c_array.c     ****     mrbc_value s1 = mrbc_send( vm, v, argc, &v1, "inspect", 0 );
 1397              		.loc 1 868 0 is_stmt 1 discriminator 2
 1398 002a 04AE     		add	r6, sp, #16
 1399 002c 2246     		mov	r2, r4
 1400 002e 2946     		mov	r1, r5
 1401 0030 3046     		mov	r0, r6
 1402 0032 FFF7FEFF 		bl	mrbc_array_get
 1403              	.LVL201:
 869:c_array.c     ****     mrbc_string_append( &ret, &s1 );
 1404              		.loc 1 869 0 discriminator 2
 1405 0036 0023     		movs	r3, #0
 1406 0038 0293     		str	r3, [sp, #8]
 1407 003a 194B     		ldr	r3, .L105+8
 1408 003c 0193     		str	r3, [sp, #4]
 1409 003e 0096     		str	r6, [sp]
 1410 0040 4346     		mov	r3, r8
 1411 0042 2A46     		mov	r2, r5
 1412 0044 3946     		mov	r1, r7
 1413 0046 08A8     		add	r0, sp, #32
ARM GAS  C:\Users\164\AppData\Local\Temp\ccuYWdBJ.s 			page 47


 1414 0048 FFF7FEFF 		bl	mrbc_send
 1415              	.LVL202:
 870:c_array.c     ****     mrbc_string_delete( &s1 );
 1416              		.loc 1 870 0 discriminator 2
 1417 004c 08A9     		add	r1, sp, #32
 1418 004e 0CA8     		add	r0, sp, #48
 1419 0050 FFF7FEFF 		bl	mrbc_string_append
 1420              	.LVL203:
 871:c_array.c     ****   }
 1421              		.loc 1 871 0 discriminator 2
 1422 0054 08A8     		add	r0, sp, #32
 1423 0056 FFF7FEFF 		bl	mrbc_string_delete
 1424              	.LVL204:
 1425              	.LBE72:
 865:c_array.c     ****     if( i != 0 ) mrbc_string_append_cstr( &ret, ", " );
 1426              		.loc 1 865 0 discriminator 2
 1427 005a 0134     		adds	r4, r4, #1
 1428              	.LVL205:
 1429              	.L100:
 1430              	.LBB73:
 1431              	.LBB74:
 1432              		.loc 2 60 0 discriminator 1
 1433 005c AB68     		ldr	r3, [r5, #8]
 1434 005e DB88     		ldrh	r3, [r3, #6]
 1435              	.LVL206:
 1436              	.LBE74:
 1437              	.LBE73:
 865:c_array.c     ****     if( i != 0 ) mrbc_string_append_cstr( &ret, ", " );
 1438              		.loc 1 865 0 discriminator 1
 1439 0060 9C42     		cmp	r4, r3
 1440 0062 DDDB     		blt	.L102
 874:c_array.c     **** 
 1441              		.loc 1 874 0
 1442 0064 0CAE     		add	r6, sp, #48
 1443 0066 0F49     		ldr	r1, .L105+12
 1444 0068 3046     		mov	r0, r6
 1445 006a FFF7FEFF 		bl	mrbc_string_append_cstr
 1446              	.LVL207:
 1447              	.LBB75:
 876:c_array.c     ****   return;
 1448              		.loc 1 876 0
 1449 006e 08AC     		add	r4, sp, #32
 1450              	.LVL208:
 1451 0070 96E80F00 		ldmia	r6, {r0, r1, r2, r3}
 1452 0074 84E80F00 		stmia	r4, {r0, r1, r2, r3}
 1453 0078 2846     		mov	r0, r5
 1454 007a FFF7FEFF 		bl	mrbc_dec_ref_counter
 1455              	.LVL209:
 1456 007e 94E80F00 		ldmia	r4, {r0, r1, r2, r3}
 1457 0082 85E80F00 		stmia	r5, {r0, r1, r2, r3}
 1458 0086 04E0     		b	.L98
 1459              	.L99:
 1460              	.LBE75:
 880:c_array.c     **** }
 1461              		.loc 1 880 0
 1462 0088 2846     		mov	r0, r5
 1463 008a FFF7FEFF 		bl	mrbc_dec_ref_counter
ARM GAS  C:\Users\164\AppData\Local\Temp\ccuYWdBJ.s 			page 48


 1464              	.LVL210:
 1465 008e 0123     		movs	r3, #1
 1466 0090 2B70     		strb	r3, [r5]
 1467              	.L98:
 881:c_array.c     **** 
 1468              		.loc 1 881 0
 1469 0092 10B0     		add	sp, sp, #64
 1470              		.cfi_def_cfa_offset 24
 1471              		@ sp needed
 1472 0094 BDE8F081 		pop	{r4, r5, r6, r7, r8, pc}
 1473              	.LVL211:
 1474              	.L106:
 1475              		.align	2
 1476              	.L105:
 1477 0098 4C000000 		.word	.LC5
 1478 009c 50000000 		.word	.LC6
 1479 00a0 54000000 		.word	.LC7
 1480 00a4 5C000000 		.word	.LC8
 1481              		.cfi_endproc
 1482              	.LFE119:
 1483              		.size	c_array_inspect, .-c_array_inspect
 1484              		.section	.text.c_array_last,"ax",%progbits
 1485              		.align	2
 1486              		.thumb
 1487              		.thumb_func
 1488              		.type	c_array_last, %function
 1489              	c_array_last:
 1490              	.LFB110:
 684:c_array.c     ****   mrbc_value val = mrbc_array_get(v, -1);
 1491              		.loc 1 684 0
 1492              		.cfi_startproc
 1493              		@ args = 0, pretend = 0, frame = 32
 1494              		@ frame_needed = 0, uses_anonymous_args = 0
 1495              	.LVL212:
 1496 0000 70B5     		push	{r4, r5, r6, lr}
 1497              		.cfi_def_cfa_offset 16
 1498              		.cfi_offset 4, -16
 1499              		.cfi_offset 5, -12
 1500              		.cfi_offset 6, -8
 1501              		.cfi_offset 14, -4
 1502 0002 88B0     		sub	sp, sp, #32
 1503              		.cfi_def_cfa_offset 48
 1504 0004 0E46     		mov	r6, r1
 685:c_array.c     ****   mrbc_dup(&val);
 1505              		.loc 1 685 0
 1506 0006 04AD     		add	r5, sp, #16
 1507 0008 4FF0FF32 		mov	r2, #-1
 1508              	.LVL213:
 1509 000c 2846     		mov	r0, r5
 1510              	.LVL214:
 1511 000e FFF7FEFF 		bl	mrbc_array_get
 1512              	.LVL215:
 686:c_array.c     ****   SET_RETURN(val);
 1513              		.loc 1 686 0
 1514 0012 2846     		mov	r0, r5
 1515 0014 FFF7FEFF 		bl	mrbc_dup
 1516              	.LVL216:
ARM GAS  C:\Users\164\AppData\Local\Temp\ccuYWdBJ.s 			page 49


 1517              	.LBB76:
 687:c_array.c     **** }
 1518              		.loc 1 687 0
 1519 0018 95E80F00 		ldmia	r5, {r0, r1, r2, r3}
 1520 001c 8DE80F00 		stmia	sp, {r0, r1, r2, r3}
 1521 0020 3046     		mov	r0, r6
 1522 0022 FFF7FEFF 		bl	mrbc_dec_ref_counter
 1523              	.LVL217:
 1524 0026 9DE80F00 		ldmia	sp, {r0, r1, r2, r3}
 1525 002a 86E80F00 		stmia	r6, {r0, r1, r2, r3}
 1526              	.LBE76:
 688:c_array.c     **** 
 1527              		.loc 1 688 0
 1528 002e 08B0     		add	sp, sp, #32
 1529              		.cfi_def_cfa_offset 16
 1530              		@ sp needed
 1531 0030 70BD     		pop	{r4, r5, r6, pc}
 1532              		.cfi_endproc
 1533              	.LFE110:
 1534              		.size	c_array_last, .-c_array_last
 1535              		.section	.text.c_array_first,"ax",%progbits
 1536              		.align	2
 1537              		.thumb
 1538              		.thumb_func
 1539              		.type	c_array_first, %function
 1540              	c_array_first:
 1541              	.LFB109:
 673:c_array.c     ****   mrbc_value val = mrbc_array_get(v, 0);
 1542              		.loc 1 673 0
 1543              		.cfi_startproc
 1544              		@ args = 0, pretend = 0, frame = 32
 1545              		@ frame_needed = 0, uses_anonymous_args = 0
 1546              	.LVL218:
 1547 0000 70B5     		push	{r4, r5, r6, lr}
 1548              		.cfi_def_cfa_offset 16
 1549              		.cfi_offset 4, -16
 1550              		.cfi_offset 5, -12
 1551              		.cfi_offset 6, -8
 1552              		.cfi_offset 14, -4
 1553 0002 88B0     		sub	sp, sp, #32
 1554              		.cfi_def_cfa_offset 48
 1555 0004 0E46     		mov	r6, r1
 674:c_array.c     ****   mrbc_dup(&val);
 1556              		.loc 1 674 0
 1557 0006 04AD     		add	r5, sp, #16
 1558 0008 0022     		movs	r2, #0
 1559              	.LVL219:
 1560 000a 2846     		mov	r0, r5
 1561              	.LVL220:
 1562 000c FFF7FEFF 		bl	mrbc_array_get
 1563              	.LVL221:
 675:c_array.c     ****   SET_RETURN(val);
 1564              		.loc 1 675 0
 1565 0010 2846     		mov	r0, r5
 1566 0012 FFF7FEFF 		bl	mrbc_dup
 1567              	.LVL222:
 1568              	.LBB77:
ARM GAS  C:\Users\164\AppData\Local\Temp\ccuYWdBJ.s 			page 50


 676:c_array.c     **** }
 1569              		.loc 1 676 0
 1570 0016 95E80F00 		ldmia	r5, {r0, r1, r2, r3}
 1571 001a 8DE80F00 		stmia	sp, {r0, r1, r2, r3}
 1572 001e 3046     		mov	r0, r6
 1573 0020 FFF7FEFF 		bl	mrbc_dec_ref_counter
 1574              	.LVL223:
 1575 0024 9DE80F00 		ldmia	sp, {r0, r1, r2, r3}
 1576 0028 86E80F00 		stmia	r6, {r0, r1, r2, r3}
 1577              	.LBE77:
 677:c_array.c     **** 
 1578              		.loc 1 677 0
 1579 002c 08B0     		add	sp, sp, #32
 1580              		.cfi_def_cfa_offset 16
 1581              		@ sp needed
 1582 002e 70BD     		pop	{r4, r5, r6, pc}
 1583              		.cfi_endproc
 1584              	.LFE109:
 1585              		.size	c_array_first, .-c_array_first
 1586              		.section	.text.mrbc_array_push,"ax",%progbits
 1587              		.align	2
 1588              		.global	mrbc_array_push
 1589              		.thumb
 1590              		.thumb_func
 1591              		.type	mrbc_array_push, %function
 1592              	mrbc_array_push:
 1593              	.LFB91:
 219:c_array.c     ****   mrbc_array *h = ary->array;
 1594              		.loc 1 219 0
 1595              		.cfi_startproc
 1596              		@ args = 0, pretend = 0, frame = 0
 1597              		@ frame_needed = 0, uses_anonymous_args = 0
 1598              	.LVL224:
 1599 0000 70B5     		push	{r4, r5, r6, lr}
 1600              		.cfi_def_cfa_offset 16
 1601              		.cfi_offset 4, -16
 1602              		.cfi_offset 5, -12
 1603              		.cfi_offset 6, -8
 1604              		.cfi_offset 14, -4
 1605 0002 0E46     		mov	r6, r1
 220:c_array.c     **** 
 1606              		.loc 1 220 0
 1607 0004 8568     		ldr	r5, [r0, #8]
 1608              	.LVL225:
 222:c_array.c     ****     int size = h->data_size + 6;
 1609              		.loc 1 222 0
 1610 0006 EB88     		ldrh	r3, [r5, #6]
 1611 0008 A988     		ldrh	r1, [r5, #4]
 1612              	.LVL226:
 1613 000a 8B42     		cmp	r3, r1
 1614 000c 03D3     		bcc	.L112
 1615              	.LVL227:
 1616              	.LBB78:
 224:c_array.c     ****       return E_NOMEMORY_ERROR;		// ENOMEM
 1617              		.loc 1 224 0
 1618 000e 0631     		adds	r1, r1, #6
 1619              	.LVL228:
ARM GAS  C:\Users\164\AppData\Local\Temp\ccuYWdBJ.s 			page 51


 1620 0010 FFF7FEFF 		bl	mrbc_array_resize
 1621              	.LVL229:
 1622 0014 58B9     		cbnz	r0, .L114
 1623              	.L112:
 1624              	.LBE78:
 228:c_array.c     **** 
 1625              		.loc 1 228 0
 1626 0016 AB68     		ldr	r3, [r5, #8]
 1627 0018 EC88     		ldrh	r4, [r5, #6]
 1628 001a 621C     		adds	r2, r4, #1
 1629 001c EA80     		strh	r2, [r5, #6]	@ movhi
 1630 001e 03EB0414 		add	r4, r3, r4, lsl #4
 1631 0022 96E80F00 		ldmia	r6, {r0, r1, r2, r3}
 1632 0026 84E80F00 		stmia	r4, {r0, r1, r2, r3}
 230:c_array.c     **** }
 1633              		.loc 1 230 0
 1634 002a 0020     		movs	r0, #0
 1635 002c 70BD     		pop	{r4, r5, r6, pc}
 1636              	.LVL230:
 1637              	.L114:
 1638              	.LBB79:
 225:c_array.c     ****   }
 1639              		.loc 1 225 0
 1640 002e 0120     		movs	r0, #1
 1641              	.LBE79:
 231:c_array.c     **** 
 1642              		.loc 1 231 0
 1643 0030 70BD     		pop	{r4, r5, r6, pc}
 1644              		.cfi_endproc
 1645              	.LFE91:
 1646              		.size	mrbc_array_push, .-mrbc_array_push
 1647 0032 00BF     		.section	.text.c_array_push,"ax",%progbits
 1648              		.align	2
 1649              		.thumb
 1650              		.thumb_func
 1651              		.type	c_array_push, %function
 1652              	c_array_push:
 1653              	.LFB111:
 695:c_array.c     ****   mrbc_array_push(&v[0], &v[1]);	// raise? ENOMEM
 1654              		.loc 1 695 0
 1655              		.cfi_startproc
 1656              		@ args = 0, pretend = 0, frame = 0
 1657              		@ frame_needed = 0, uses_anonymous_args = 0
 1658              	.LVL231:
 1659 0000 10B5     		push	{r4, lr}
 1660              		.cfi_def_cfa_offset 8
 1661              		.cfi_offset 4, -8
 1662              		.cfi_offset 14, -4
 1663 0002 0C46     		mov	r4, r1
 696:c_array.c     ****   v[1].tt = MRBC_TT_EMPTY;
 1664              		.loc 1 696 0
 1665 0004 1031     		adds	r1, r1, #16
 1666              	.LVL232:
 1667 0006 2046     		mov	r0, r4
 1668              	.LVL233:
 1669 0008 FFF7FEFF 		bl	mrbc_array_push
 1670              	.LVL234:
ARM GAS  C:\Users\164\AppData\Local\Temp\ccuYWdBJ.s 			page 52


 697:c_array.c     **** }
 1671              		.loc 1 697 0
 1672 000c 0023     		movs	r3, #0
 1673 000e 2374     		strb	r3, [r4, #16]
 1674 0010 10BD     		pop	{r4, pc}
 1675              		.cfi_endproc
 1676              	.LFE111:
 1677              		.size	c_array_push, .-c_array_push
 1678 0012 00BF     		.section	.text.c_array_get,"ax",%progbits
 1679              		.align	2
 1680              		.thumb
 1681              		.thumb_func
 1682              		.type	c_array_get, %function
 1683              	c_array_get:
 1684              	.LFB102:
 525:c_array.c     ****   /*
 1685              		.loc 1 525 0
 1686              		.cfi_startproc
 1687              		@ args = 0, pretend = 0, frame = 32
 1688              		@ frame_needed = 0, uses_anonymous_args = 0
 1689              	.LVL235:
 1690 0000 70B5     		push	{r4, r5, r6, lr}
 1691              		.cfi_def_cfa_offset 16
 1692              		.cfi_offset 4, -16
 1693              		.cfi_offset 5, -12
 1694              		.cfi_offset 6, -8
 1695              		.cfi_offset 14, -4
 1696 0002 88B0     		sub	sp, sp, #32
 1697              		.cfi_def_cfa_offset 48
 1698 0004 0C46     		mov	r4, r1
 529:c_array.c     ****     mrbc_value ret = mrbc_array_get(v, v[1].i);
 1699              		.loc 1 529 0
 1700 0006 012A     		cmp	r2, #1
 1701 0008 17D1     		bne	.L119
 529:c_array.c     ****     mrbc_value ret = mrbc_array_get(v, v[1].i);
 1702              		.loc 1 529 0 is_stmt 0 discriminator 1
 1703 000a 91F91030 		ldrsb	r3, [r1, #16]
 1704 000e 042B     		cmp	r3, #4
 1705 0010 13D1     		bne	.L119
 1706              	.LBB89:
 530:c_array.c     ****     mrbc_dup(&ret);
 1707              		.loc 1 530 0 is_stmt 1
 1708 0012 8A69     		ldr	r2, [r1, #24]
 1709              	.LVL236:
 1710 0014 6846     		mov	r0, sp
 1711              	.LVL237:
 1712 0016 FFF7FEFF 		bl	mrbc_array_get
 1713              	.LVL238:
 531:c_array.c     ****     SET_RETURN(ret);
 1714              		.loc 1 531 0
 1715 001a 6846     		mov	r0, sp
 1716 001c FFF7FEFF 		bl	mrbc_dup
 1717              	.LVL239:
 1718              	.LBB90:
 532:c_array.c     ****     return;
 1719              		.loc 1 532 0
 1720 0020 04AD     		add	r5, sp, #16
ARM GAS  C:\Users\164\AppData\Local\Temp\ccuYWdBJ.s 			page 53


 1721 0022 9DE80F00 		ldmia	sp, {r0, r1, r2, r3}
 1722 0026 85E80F00 		stmia	r5, {r0, r1, r2, r3}
 1723 002a 2046     		mov	r0, r4
 1724 002c FFF7FEFF 		bl	mrbc_dec_ref_counter
 1725              	.LVL240:
 1726 0030 95E80F00 		ldmia	r5, {r0, r1, r2, r3}
 1727 0034 84E80F00 		stmia	r4, {r0, r1, r2, r3}
 1728 0038 49E0     		b	.L118
 1729              	.LVL241:
 1730              	.L119:
 1731              	.LBE90:
 1732              	.LBE89:
 539:c_array.c     ****     int len = mrbc_array_size(&v[0]);
 1733              		.loc 1 539 0
 1734 003a 022A     		cmp	r2, #2
 1735 003c 42D1     		bne	.L121
 539:c_array.c     ****     int len = mrbc_array_size(&v[0]);
 1736              		.loc 1 539 0 is_stmt 0 discriminator 1
 1737 003e 94F91030 		ldrsb	r3, [r4, #16]
 1738 0042 042B     		cmp	r3, #4
 1739 0044 3ED1     		bne	.L121
 539:c_array.c     ****     int len = mrbc_array_size(&v[0]);
 1740              		.loc 1 539 0 discriminator 2
 1741 0046 94F92030 		ldrsb	r3, [r4, #32]
 1742 004a 042B     		cmp	r3, #4
 1743 004c 3AD1     		bne	.L121
 1744              	.LVL242:
 1745              	.LBB91:
 1746              	.LBB92:
 1747              	.LBB93:
 1748              		.loc 2 60 0 is_stmt 1
 1749 004e A368     		ldr	r3, [r4, #8]
 1750 0050 DE88     		ldrh	r6, [r3, #6]
 1751              	.LVL243:
 1752              	.LBE93:
 1753              	.LBE92:
 541:c_array.c     ****     if( idx < 0 ) idx += len;
 1754              		.loc 1 541 0
 1755 0052 A369     		ldr	r3, [r4, #24]
 1756              	.LVL244:
 542:c_array.c     ****     if( idx < 0 ) goto RETURN_NIL;
 1757              		.loc 1 542 0
 1758 0054 002B     		cmp	r3, #0
 1759 0056 00DA     		bge	.L122
 542:c_array.c     ****     if( idx < 0 ) goto RETURN_NIL;
 1760              		.loc 1 542 0 is_stmt 0 discriminator 1
 1761 0058 3344     		add	r3, r3, r6
 1762              	.LVL245:
 1763              	.L122:
 543:c_array.c     **** 
 1764              		.loc 1 543 0 is_stmt 1
 1765 005a 002B     		cmp	r3, #0
 1766 005c 2CDB     		blt	.L123
 545:c_array.c     **** 					// min( v[2].i, (len - idx) )
 1767              		.loc 1 545 0
 1768 005e F61A     		subs	r6, r6, r3
 1769 0060 A36A     		ldr	r3, [r4, #40]
ARM GAS  C:\Users\164\AppData\Local\Temp\ccuYWdBJ.s 			page 54


 1770              	.LVL246:
 1771 0062 9E42     		cmp	r6, r3
 1772 0064 A8BF     		it	ge
 1773 0066 1E46     		movge	r6, r3
 1774              	.LVL247:
 547:c_array.c     **** 
 1775              		.loc 1 547 0
 1776 0068 002E     		cmp	r6, #0
 1777 006a 25DB     		blt	.L123
 549:c_array.c     ****     if( ret.array == NULL ) return;		// ENOMEM
 1778              		.loc 1 549 0
 1779 006c 3246     		mov	r2, r6
 1780              	.LVL248:
 1781 006e 0146     		mov	r1, r0
 1782              	.LVL249:
 1783 0070 6846     		mov	r0, sp
 1784              	.LVL250:
 1785 0072 FFF7FEFF 		bl	mrbc_array_new
 1786              	.LVL251:
 550:c_array.c     **** 
 1787              		.loc 1 550 0
 1788 0076 029B     		ldr	r3, [sp, #8]
 1789 0078 4BB3     		cbz	r3, .L118
 1790 007a 0025     		movs	r5, #0
 1791 007c 0DE0     		b	.L125
 1792              	.LVL252:
 1793              	.L126:
 1794              	.LBB94:
 554:c_array.c     ****       mrbc_dup(&val);
 1795              		.loc 1 554 0 discriminator 3
 1796 007e A269     		ldr	r2, [r4, #24]
 1797 0080 2A44     		add	r2, r2, r5
 1798 0082 2146     		mov	r1, r4
 1799 0084 04A8     		add	r0, sp, #16
 1800 0086 FFF7FEFF 		bl	mrbc_array_get
 1801              	.LVL253:
 555:c_array.c     ****       mrbc_array_push(&ret, &val);
 1802              		.loc 1 555 0 discriminator 3
 1803 008a 04A8     		add	r0, sp, #16
 1804 008c FFF7FEFF 		bl	mrbc_dup
 1805              	.LVL254:
 556:c_array.c     ****     }
 1806              		.loc 1 556 0 discriminator 3
 1807 0090 04A9     		add	r1, sp, #16
 1808 0092 6846     		mov	r0, sp
 1809 0094 FFF7FEFF 		bl	mrbc_array_push
 1810              	.LVL255:
 1811              	.LBE94:
 553:c_array.c     ****       mrbc_value val = mrbc_array_get(v, v[1].i + i);
 1812              		.loc 1 553 0 discriminator 3
 1813 0098 0135     		adds	r5, r5, #1
 1814              	.LVL256:
 1815              	.L125:
 553:c_array.c     ****       mrbc_value val = mrbc_array_get(v, v[1].i + i);
 1816              		.loc 1 553 0 is_stmt 0 discriminator 1
 1817 009a B542     		cmp	r5, r6
 1818 009c EFDB     		blt	.L126
ARM GAS  C:\Users\164\AppData\Local\Temp\ccuYWdBJ.s 			page 55


 1819              	.LBB95:
 559:c_array.c     ****     return;
 1820              		.loc 1 559 0 is_stmt 1
 1821 009e 04AD     		add	r5, sp, #16
 1822              	.LVL257:
 1823 00a0 9DE80F00 		ldmia	sp, {r0, r1, r2, r3}
 1824 00a4 85E80F00 		stmia	r5, {r0, r1, r2, r3}
 1825 00a8 2046     		mov	r0, r4
 1826 00aa FFF7FEFF 		bl	mrbc_dec_ref_counter
 1827              	.LVL258:
 1828 00ae 95E80F00 		ldmia	r5, {r0, r1, r2, r3}
 1829 00b2 84E80F00 		stmia	r4, {r0, r1, r2, r3}
 1830              	.LBE95:
 560:c_array.c     ****   }
 1831              		.loc 1 560 0
 1832 00b6 0AE0     		b	.L118
 1833              	.LVL259:
 1834              	.L123:
 1835              	.LDL1:
 1836              	.LBE91:
 570:c_array.c     **** }
 1837              		.loc 1 570 0
 1838 00b8 2046     		mov	r0, r4
 1839              	.LVL260:
 1840 00ba FFF7FEFF 		bl	mrbc_dec_ref_counter
 1841              	.LVL261:
 1842 00be 0123     		movs	r3, #1
 1843 00c0 2370     		strb	r3, [r4]
 1844 00c2 04E0     		b	.L118
 1845              	.LVL262:
 1846              	.L121:
 1847              	.LBB96:
 1848              	.LBB97:
 1849              		.loc 3 75 0
 1850 00c4 2322     		movs	r2, #35
 1851              	.LVL263:
 1852 00c6 0349     		ldr	r1, .L128
 1853              	.LVL264:
 1854 00c8 0120     		movs	r0, #1
 1855              	.LVL265:
 1856 00ca FFF7FEFF 		bl	hal_write
 1857              	.LVL266:
 1858              	.L118:
 1859              	.LBE97:
 1860              	.LBE96:
 571:c_array.c     **** 
 1861              		.loc 1 571 0
 1862 00ce 08B0     		add	sp, sp, #32
 1863              		.cfi_def_cfa_offset 16
 1864              		@ sp needed
 1865 00d0 70BD     		pop	{r4, r5, r6, pc}
 1866              	.LVL267:
 1867              	.L129:
 1868 00d2 00BF     		.align	2
 1869              	.L128:
 1870 00d4 18000000 		.word	.LC3
 1871              		.cfi_endproc
ARM GAS  C:\Users\164\AppData\Local\Temp\ccuYWdBJ.s 			page 56


 1872              	.LFE102:
 1873              		.size	c_array_get, .-c_array_get
 1874              		.section	.text.mrbc_array_pop,"ax",%progbits
 1875              		.align	2
 1876              		.global	mrbc_array_pop
 1877              		.thumb
 1878              		.thumb_func
 1879              		.type	mrbc_array_pop, %function
 1880              	mrbc_array_pop:
 1881              	.LFB92:
 241:c_array.c     ****   mrbc_array *h = ary->array;
 1882              		.loc 1 241 0
 1883              		.cfi_startproc
 1884              		@ args = 0, pretend = 0, frame = 0
 1885              		@ frame_needed = 0, uses_anonymous_args = 0
 1886              		@ link register save eliminated.
 1887              	.LVL268:
 1888 0000 10B4     		push	{r4}
 1889              		.cfi_def_cfa_offset 4
 1890              		.cfi_offset 4, -4
 1891 0002 0446     		mov	r4, r0
 242:c_array.c     **** 
 1892              		.loc 1 242 0
 1893 0004 8968     		ldr	r1, [r1, #8]
 1894              	.LVL269:
 244:c_array.c     ****   return h->data[--h->n_stored];
 1895              		.loc 1 244 0
 1896 0006 CB88     		ldrh	r3, [r1, #6]
 1897 0008 33B9     		cbnz	r3, .L131
 244:c_array.c     ****   return h->data[--h->n_stored];
 1898              		.loc 1 244 0 is_stmt 0 discriminator 1
 1899 000a 0360     		str	r3, [r0]
 1900 000c 4360     		str	r3, [r0, #4]
 1901 000e 8360     		str	r3, [r0, #8]
 1902 0010 C360     		str	r3, [r0, #12]
 1903 0012 0123     		movs	r3, #1
 1904 0014 0370     		strb	r3, [r0]
 1905 0016 08E0     		b	.L130
 1906              	.L131:
 245:c_array.c     **** }
 1907              		.loc 1 245 0 is_stmt 1
 1908 0018 8A68     		ldr	r2, [r1, #8]
 1909 001a 013B     		subs	r3, r3, #1
 1910 001c 9BB2     		uxth	r3, r3
 1911 001e CB80     		strh	r3, [r1, #6]	@ movhi
 1912 0020 02EB0313 		add	r3, r2, r3, lsl #4
 1913 0024 0FCB     		ldmia	r3, {r0, r1, r2, r3}
 1914              	.LVL270:
 1915 0026 84E80F00 		stmia	r4, {r0, r1, r2, r3}
 1916              	.L130:
 246:c_array.c     **** 
 1917              		.loc 1 246 0
 1918 002a 2046     		mov	r0, r4
 1919 002c 10BC     		pop	{r4}
 1920              		.cfi_restore 4
 1921              		.cfi_def_cfa_offset 0
 1922              	.LVL271:
ARM GAS  C:\Users\164\AppData\Local\Temp\ccuYWdBJ.s 			page 57


 1923 002e 7047     		bx	lr
 1924              		.cfi_endproc
 1925              	.LFE92:
 1926              		.size	mrbc_array_pop, .-mrbc_array_pop
 1927              		.section	.text.c_array_pop,"ax",%progbits
 1928              		.align	2
 1929              		.thumb
 1930              		.thumb_func
 1931              		.type	c_array_pop, %function
 1932              	c_array_pop:
 1933              	.LFB112:
 705:c_array.c     ****   /*
 1934              		.loc 1 705 0
 1935              		.cfi_startproc
 1936              		@ args = 0, pretend = 0, frame = 32
 1937              		@ frame_needed = 0, uses_anonymous_args = 0
 1938              	.LVL272:
 1939 0000 70B5     		push	{r4, r5, r6, lr}
 1940              		.cfi_def_cfa_offset 16
 1941              		.cfi_offset 4, -16
 1942              		.cfi_offset 5, -12
 1943              		.cfi_offset 6, -8
 1944              		.cfi_offset 14, -4
 1945 0002 88B0     		sub	sp, sp, #32
 1946              		.cfi_def_cfa_offset 48
 709:c_array.c     ****     mrbc_value val = mrbc_array_pop(v);
 1947              		.loc 1 709 0
 1948 0004 82B9     		cbnz	r2, .L135
 1949 0006 0D46     		mov	r5, r1
 1950              	.LBB102:
 710:c_array.c     ****     SET_RETURN(val);
 1951              		.loc 1 710 0
 1952 0008 6846     		mov	r0, sp
 1953              	.LVL273:
 1954 000a FFF7FEFF 		bl	mrbc_array_pop
 1955              	.LVL274:
 1956              	.LBB103:
 711:c_array.c     ****     return;
 1957              		.loc 1 711 0
 1958 000e 04AC     		add	r4, sp, #16
 1959 0010 9DE80F00 		ldmia	sp, {r0, r1, r2, r3}
 1960 0014 84E80F00 		stmia	r4, {r0, r1, r2, r3}
 1961 0018 2846     		mov	r0, r5
 1962 001a FFF7FEFF 		bl	mrbc_dec_ref_counter
 1963              	.LVL275:
 1964 001e 94E80F00 		ldmia	r4, {r0, r1, r2, r3}
 1965 0022 85E80F00 		stmia	r5, {r0, r1, r2, r3}
 1966 0026 04E0     		b	.L134
 1967              	.LVL276:
 1968              	.L135:
 1969              	.LBE103:
 1970              	.LBE102:
 1971              	.LBB104:
 1972              	.LBB105:
 1973              		.loc 3 75 0
 1974 0028 2422     		movs	r2, #36
 1975              	.LVL277:
ARM GAS  C:\Users\164\AppData\Local\Temp\ccuYWdBJ.s 			page 58


 1976 002a 0349     		ldr	r1, .L138
 1977              	.LVL278:
 1978 002c 0120     		movs	r0, #1
 1979              	.LVL279:
 1980 002e FFF7FEFF 		bl	hal_write
 1981              	.LVL280:
 1982              	.L134:
 1983              	.LBE105:
 1984              	.LBE104:
 726:c_array.c     **** 
 1985              		.loc 1 726 0
 1986 0032 08B0     		add	sp, sp, #32
 1987              		.cfi_def_cfa_offset 16
 1988              		@ sp needed
 1989 0034 70BD     		pop	{r4, r5, r6, pc}
 1990              	.L139:
 1991 0036 00BF     		.align	2
 1992              	.L138:
 1993 0038 60000000 		.word	.LC9
 1994              		.cfi_endproc
 1995              	.LFE112:
 1996              		.size	c_array_pop, .-c_array_pop
 1997              		.section	.text.mrbc_array_shift,"ax",%progbits
 1998              		.align	2
 1999              		.global	mrbc_array_shift
 2000              		.thumb
 2001              		.thumb_func
 2002              		.type	mrbc_array_shift, %function
 2003              	mrbc_array_shift:
 2004              	.LFB94:
 269:c_array.c     ****   mrbc_array *h = ary->array;
 2005              		.loc 1 269 0
 2006              		.cfi_startproc
 2007              		@ args = 0, pretend = 0, frame = 16
 2008              		@ frame_needed = 0, uses_anonymous_args = 0
 2009              	.LVL281:
 2010 0000 F0B5     		push	{r4, r5, r6, r7, lr}
 2011              		.cfi_def_cfa_offset 20
 2012              		.cfi_offset 4, -20
 2013              		.cfi_offset 5, -16
 2014              		.cfi_offset 6, -12
 2015              		.cfi_offset 7, -8
 2016              		.cfi_offset 14, -4
 2017 0002 85B0     		sub	sp, sp, #20
 2018              		.cfi_def_cfa_offset 40
 2019 0004 0446     		mov	r4, r0
 270:c_array.c     **** 
 2020              		.loc 1 270 0
 2021 0006 8F68     		ldr	r7, [r1, #8]
 2022              	.LVL282:
 272:c_array.c     **** 
 2023              		.loc 1 272 0
 2024 0008 FD88     		ldrh	r5, [r7, #6]
 2025 000a 3DB9     		cbnz	r5, .L141
 272:c_array.c     **** 
 2026              		.loc 1 272 0 is_stmt 0 discriminator 1
 2027 000c 0023     		movs	r3, #0
ARM GAS  C:\Users\164\AppData\Local\Temp\ccuYWdBJ.s 			page 59


 2028 000e 0360     		str	r3, [r0]
 2029 0010 4360     		str	r3, [r0, #4]
 2030 0012 8360     		str	r3, [r0, #8]
 2031 0014 C360     		str	r3, [r0, #12]
 2032 0016 0123     		movs	r3, #1
 2033 0018 0370     		strb	r3, [r0]
 2034 001a 12E0     		b	.L140
 2035              	.L141:
 274:c_array.c     ****   memmove(h->data, h->data+1, sizeof(mrbc_value) * --h->n_stored);
 2036              		.loc 1 274 0 is_stmt 1
 2037 001c D7F808E0 		ldr	lr, [r7, #8]
 2038 0020 9EE80F00 		ldmia	lr, {r0, r1, r2, r3}
 2039              	.LVL283:
 2040 0024 8DE80F00 		stmia	sp, {r0, r1, r2, r3}
 275:c_array.c     **** 
 2041              		.loc 1 275 0
 2042 0028 6A1E     		subs	r2, r5, #1
 2043 002a 92B2     		uxth	r2, r2
 2044 002c FA80     		strh	r2, [r7, #6]	@ movhi
 2045 002e 1201     		lsls	r2, r2, #4
 2046 0030 0EF11001 		add	r1, lr, #16
 2047 0034 7046     		mov	r0, lr
 2048 0036 FFF7FEFF 		bl	memmove
 2049              	.LVL284:
 277:c_array.c     **** }
 2050              		.loc 1 277 0
 2051 003a 9DE80F00 		ldmia	sp, {r0, r1, r2, r3}
 2052 003e 84E80F00 		stmia	r4, {r0, r1, r2, r3}
 2053              	.L140:
 278:c_array.c     **** 
 2054              		.loc 1 278 0
 2055 0042 2046     		mov	r0, r4
 2056 0044 05B0     		add	sp, sp, #20
 2057              		.cfi_def_cfa_offset 20
 2058              		@ sp needed
 2059 0046 F0BD     		pop	{r4, r5, r6, r7, pc}
 2060              		.cfi_endproc
 2061              	.LFE94:
 2062              		.size	mrbc_array_shift, .-mrbc_array_shift
 2063              		.section	.text.c_array_shift,"ax",%progbits
 2064              		.align	2
 2065              		.thumb
 2066              		.thumb_func
 2067              		.type	c_array_shift, %function
 2068              	c_array_shift:
 2069              	.LFB114:
 743:c_array.c     ****   /*
 2070              		.loc 1 743 0
 2071              		.cfi_startproc
 2072              		@ args = 0, pretend = 0, frame = 32
 2073              		@ frame_needed = 0, uses_anonymous_args = 0
 2074              	.LVL285:
 2075 0000 70B5     		push	{r4, r5, r6, lr}
 2076              		.cfi_def_cfa_offset 16
 2077              		.cfi_offset 4, -16
 2078              		.cfi_offset 5, -12
 2079              		.cfi_offset 6, -8
ARM GAS  C:\Users\164\AppData\Local\Temp\ccuYWdBJ.s 			page 60


 2080              		.cfi_offset 14, -4
 2081 0002 88B0     		sub	sp, sp, #32
 2082              		.cfi_def_cfa_offset 48
 747:c_array.c     ****     mrbc_value val = mrbc_array_shift(v);
 2083              		.loc 1 747 0
 2084 0004 82B9     		cbnz	r2, .L145
 2085 0006 0D46     		mov	r5, r1
 2086              	.LBB110:
 748:c_array.c     ****     SET_RETURN(val);
 2087              		.loc 1 748 0
 2088 0008 6846     		mov	r0, sp
 2089              	.LVL286:
 2090 000a FFF7FEFF 		bl	mrbc_array_shift
 2091              	.LVL287:
 2092              	.LBB111:
 749:c_array.c     ****     return;
 2093              		.loc 1 749 0
 2094 000e 04AC     		add	r4, sp, #16
 2095 0010 9DE80F00 		ldmia	sp, {r0, r1, r2, r3}
 2096 0014 84E80F00 		stmia	r4, {r0, r1, r2, r3}
 2097 0018 2846     		mov	r0, r5
 2098 001a FFF7FEFF 		bl	mrbc_dec_ref_counter
 2099              	.LVL288:
 2100 001e 94E80F00 		ldmia	r4, {r0, r1, r2, r3}
 2101 0022 85E80F00 		stmia	r5, {r0, r1, r2, r3}
 2102 0026 04E0     		b	.L144
 2103              	.LVL289:
 2104              	.L145:
 2105              	.LBE111:
 2106              	.LBE110:
 2107              	.LBB112:
 2108              	.LBB113:
 2109              		.loc 3 75 0
 2110 0028 2622     		movs	r2, #38
 2111              	.LVL290:
 2112 002a 0349     		ldr	r1, .L148
 2113              	.LVL291:
 2114 002c 0120     		movs	r0, #1
 2115              	.LVL292:
 2116 002e FFF7FEFF 		bl	hal_write
 2117              	.LVL293:
 2118              	.L144:
 2119              	.LBE113:
 2120              	.LBE112:
 764:c_array.c     **** 
 2121              		.loc 1 764 0
 2122 0032 08B0     		add	sp, sp, #32
 2123              		.cfi_def_cfa_offset 16
 2124              		@ sp needed
 2125 0034 70BD     		pop	{r4, r5, r6, pc}
 2126              	.L149:
 2127 0036 00BF     		.align	2
 2128              	.L148:
 2129 0038 88000000 		.word	.LC10
 2130              		.cfi_endproc
 2131              	.LFE114:
 2132              		.size	c_array_shift, .-c_array_shift
ARM GAS  C:\Users\164\AppData\Local\Temp\ccuYWdBJ.s 			page 61


 2133              		.section	.text.mrbc_array_insert,"ax",%progbits
 2134              		.align	2
 2135              		.global	mrbc_array_insert
 2136              		.thumb
 2137              		.thumb_func
 2138              		.type	mrbc_array_insert, %function
 2139              	mrbc_array_insert:
 2140              	.LFB95:
 290:c_array.c     ****   mrbc_array *h = ary->array;
 2141              		.loc 1 290 0
 2142              		.cfi_startproc
 2143              		@ args = 0, pretend = 0, frame = 0
 2144              		@ frame_needed = 0, uses_anonymous_args = 0
 2145              	.LVL294:
 2146 0000 F8B5     		push	{r3, r4, r5, r6, r7, lr}
 2147              		.cfi_def_cfa_offset 24
 2148              		.cfi_offset 3, -24
 2149              		.cfi_offset 4, -20
 2150              		.cfi_offset 5, -16
 2151              		.cfi_offset 6, -12
 2152              		.cfi_offset 7, -8
 2153              		.cfi_offset 14, -4
 2154 0002 1746     		mov	r7, r2
 291:c_array.c     **** 
 2155              		.loc 1 291 0
 2156 0004 8568     		ldr	r5, [r0, #8]
 2157              	.LVL295:
 293:c_array.c     ****     idx = h->n_stored + idx + 1;
 2158              		.loc 1 293 0
 2159 0006 0C1E     		subs	r4, r1, #0
 2160 0008 03DA     		bge	.L151
 294:c_array.c     ****     if( idx < 0 ) return E_INDEX_ERROR;		// raise?
 2161              		.loc 1 294 0
 2162 000a EB88     		ldrh	r3, [r5, #6]
 2163 000c 1C44     		add	r4, r4, r3
 2164              	.LVL296:
 295:c_array.c     ****   }
 2165              		.loc 1 295 0
 2166 000e 0134     		adds	r4, r4, #1
 2167              	.LVL297:
 2168 0010 3BD4     		bmi	.L159
 2169              	.L151:
 2170              	.LVL298:
 300:c_array.c     ****     size = idx + 1;
 2171              		.loc 1 300 0
 2172 0012 A988     		ldrh	r1, [r5, #4]
 2173 0014 8C42     		cmp	r4, r1
 2174 0016 01DB     		blt	.L153
 301:c_array.c     ****   } else if( h->n_stored >= h->data_size ) {
 2175              		.loc 1 301 0
 2176 0018 611C     		adds	r1, r4, #1
 2177              	.LVL299:
 2178 001a 05E0     		b	.L154
 2179              	.LVL300:
 2180              	.L153:
 302:c_array.c     ****     size = h->data_size + 1;
 2181              		.loc 1 302 0
ARM GAS  C:\Users\164\AppData\Local\Temp\ccuYWdBJ.s 			page 62


 2182 001c EB88     		ldrh	r3, [r5, #6]
 2183 001e 9942     		cmp	r1, r3
 2184 0020 01D8     		bhi	.L160
 303:c_array.c     ****   }
 2185              		.loc 1 303 0
 2186 0022 0131     		adds	r1, r1, #1
 2187              	.LVL301:
 2188 0024 00E0     		b	.L154
 2189              	.LVL302:
 2190              	.L160:
 299:c_array.c     ****   if( idx >= h->data_size ) {
 2191              		.loc 1 299 0
 2192 0026 0021     		movs	r1, #0
 2193              	.LVL303:
 2194              	.L154:
 305:c_array.c     ****     return E_NOMEMORY_ERROR;			// ENOMEM
 2195              		.loc 1 305 0
 2196 0028 11B1     		cbz	r1, .L155
 305:c_array.c     ****     return E_NOMEMORY_ERROR;			// ENOMEM
 2197              		.loc 1 305 0 is_stmt 0 discriminator 1
 2198 002a FFF7FEFF 		bl	mrbc_array_resize
 2199              	.LVL304:
 2200 002e 70BB     		cbnz	r0, .L161
 2201              	.L155:
 310:c_array.c     ****     memmove(h->data + idx + 1, h->data + idx,
 2202              		.loc 1 310 0 is_stmt 1
 2203 0030 EA88     		ldrh	r2, [r5, #6]
 2204 0032 9442     		cmp	r4, r2
 2205 0034 09DA     		bge	.L156
 311:c_array.c     **** 	    sizeof(mrbc_value) * (h->n_stored - idx));
 2206              		.loc 1 311 0
 2207 0036 AB68     		ldr	r3, [r5, #8]
 2208 0038 601C     		adds	r0, r4, #1
 312:c_array.c     ****   }
 2209              		.loc 1 312 0
 2210 003a 121B     		subs	r2, r2, r4
 311:c_array.c     **** 	    sizeof(mrbc_value) * (h->n_stored - idx));
 2211              		.loc 1 311 0
 2212 003c 1201     		lsls	r2, r2, #4
 2213 003e 03EB0411 		add	r1, r3, r4, lsl #4
 2214 0042 03EB0010 		add	r0, r3, r0, lsl #4
 2215 0046 FFF7FEFF 		bl	memmove
 2216              	.LVL305:
 2217              	.L156:
 316:c_array.c     ****   h->n_stored++;
 2218              		.loc 1 316 0
 2219 004a AE68     		ldr	r6, [r5, #8]
 2220 004c 06EB0416 		add	r6, r6, r4, lsl #4
 2221 0050 97E80F00 		ldmia	r7, {r0, r1, r2, r3}
 2222 0054 86E80F00 		stmia	r6, {r0, r1, r2, r3}
 317:c_array.c     **** 
 2223              		.loc 1 317 0
 2224 0058 EB88     		ldrh	r3, [r5, #6]
 2225 005a 0133     		adds	r3, r3, #1
 2226 005c 9BB2     		uxth	r3, r3
 2227 005e EB80     		strh	r3, [r5, #6]	@ movhi
 320:c_array.c     ****     int i;
ARM GAS  C:\Users\164\AppData\Local\Temp\ccuYWdBJ.s 			page 63


 2228              		.loc 1 320 0
 2229 0060 9C42     		cmp	r4, r3
 2230 0062 16DB     		blt	.L162
 2231              	.LBB114:
 322:c_array.c     ****       h->data[i] = mrbc_nil_value();
 2232              		.loc 1 322 0
 2233 0064 013B     		subs	r3, r3, #1
 2234              	.LVL306:
 2235 0066 0AE0     		b	.L157
 2236              	.L158:
 323:c_array.c     ****     }
 2237              		.loc 1 323 0 discriminator 3
 2238 0068 A868     		ldr	r0, [r5, #8]
 2239 006a 1901     		lsls	r1, r3, #4
 2240 006c 4618     		adds	r6, r0, r1
 2241 006e 0022     		movs	r2, #0
 2242 0070 4250     		str	r2, [r0, r1]
 2243 0072 7260     		str	r2, [r6, #4]
 2244 0074 B260     		str	r2, [r6, #8]
 2245 0076 F260     		str	r2, [r6, #12]
 2246 0078 0122     		movs	r2, #1
 2247 007a 4254     		strb	r2, [r0, r1]
 322:c_array.c     ****       h->data[i] = mrbc_nil_value();
 2248              		.loc 1 322 0 discriminator 3
 2249 007c 1344     		add	r3, r3, r2
 2250              	.LVL307:
 2251              	.L157:
 322:c_array.c     ****       h->data[i] = mrbc_nil_value();
 2252              		.loc 1 322 0 is_stmt 0 discriminator 1
 2253 007e 9C42     		cmp	r4, r3
 2254 0080 F2DC     		bgt	.L158
 325:c_array.c     ****   }
 2255              		.loc 1 325 0 is_stmt 1
 2256 0082 0134     		adds	r4, r4, #1
 2257              	.LVL308:
 2258 0084 EC80     		strh	r4, [r5, #6]	@ movhi
 2259              	.LBE114:
 328:c_array.c     **** }
 2260              		.loc 1 328 0
 2261 0086 0020     		movs	r0, #0
 2262 0088 F8BD     		pop	{r3, r4, r5, r6, r7, pc}
 2263              	.LVL309:
 2264              	.L159:
 295:c_array.c     ****   }
 2265              		.loc 1 295 0
 2266 008a 0520     		movs	r0, #5
 2267              	.LVL310:
 2268 008c F8BD     		pop	{r3, r4, r5, r6, r7, pc}
 2269              	.LVL311:
 2270              	.L161:
 306:c_array.c     ****   }
 2271              		.loc 1 306 0
 2272 008e 0120     		movs	r0, #1
 2273 0090 F8BD     		pop	{r3, r4, r5, r6, r7, pc}
 2274              	.LVL312:
 2275              	.L162:
 328:c_array.c     **** }
ARM GAS  C:\Users\164\AppData\Local\Temp\ccuYWdBJ.s 			page 64


 2276              		.loc 1 328 0
 2277 0092 0020     		movs	r0, #0
 329:c_array.c     **** 
 2278              		.loc 1 329 0
 2279 0094 F8BD     		pop	{r3, r4, r5, r6, r7, pc}
 2280              		.cfi_endproc
 2281              	.LFE95:
 2282              		.size	mrbc_array_insert, .-mrbc_array_insert
 2283 0096 00BF     		.section	.text.mrbc_array_unshift,"ax",%progbits
 2284              		.align	2
 2285              		.global	mrbc_array_unshift
 2286              		.thumb
 2287              		.thumb_func
 2288              		.type	mrbc_array_unshift, %function
 2289              	mrbc_array_unshift:
 2290              	.LFB93:
 257:c_array.c     ****   return mrbc_array_insert(ary, 0, set_val);
 2291              		.loc 1 257 0
 2292              		.cfi_startproc
 2293              		@ args = 0, pretend = 0, frame = 0
 2294              		@ frame_needed = 0, uses_anonymous_args = 0
 2295              	.LVL313:
 2296 0000 08B5     		push	{r3, lr}
 2297              		.cfi_def_cfa_offset 8
 2298              		.cfi_offset 3, -8
 2299              		.cfi_offset 14, -4
 258:c_array.c     **** }
 2300              		.loc 1 258 0
 2301 0002 0A46     		mov	r2, r1
 2302 0004 0021     		movs	r1, #0
 2303              	.LVL314:
 2304 0006 FFF7FEFF 		bl	mrbc_array_insert
 2305              	.LVL315:
 259:c_array.c     **** 
 2306              		.loc 1 259 0
 2307 000a 08BD     		pop	{r3, pc}
 2308              		.cfi_endproc
 2309              	.LFE93:
 2310              		.size	mrbc_array_unshift, .-mrbc_array_unshift
 2311              		.section	.text.c_array_unshift,"ax",%progbits
 2312              		.align	2
 2313              		.thumb
 2314              		.thumb_func
 2315              		.type	c_array_unshift, %function
 2316              	c_array_unshift:
 2317              	.LFB113:
 733:c_array.c     ****   mrbc_array_unshift(&v[0], &v[1]);	// raise? IndexError or ENOMEM
 2318              		.loc 1 733 0
 2319              		.cfi_startproc
 2320              		@ args = 0, pretend = 0, frame = 0
 2321              		@ frame_needed = 0, uses_anonymous_args = 0
 2322              	.LVL316:
 2323 0000 10B5     		push	{r4, lr}
 2324              		.cfi_def_cfa_offset 8
 2325              		.cfi_offset 4, -8
 2326              		.cfi_offset 14, -4
 2327 0002 0C46     		mov	r4, r1
ARM GAS  C:\Users\164\AppData\Local\Temp\ccuYWdBJ.s 			page 65


 734:c_array.c     ****   v[1].tt = MRBC_TT_EMPTY;
 2328              		.loc 1 734 0
 2329 0004 1031     		adds	r1, r1, #16
 2330              	.LVL317:
 2331 0006 2046     		mov	r0, r4
 2332              	.LVL318:
 2333 0008 FFF7FEFF 		bl	mrbc_array_unshift
 2334              	.LVL319:
 735:c_array.c     **** }
 2335              		.loc 1 735 0
 2336 000c 0023     		movs	r3, #0
 2337 000e 2374     		strb	r3, [r4, #16]
 2338 0010 10BD     		pop	{r4, pc}
 2339              		.cfi_endproc
 2340              	.LFE113:
 2341              		.size	c_array_unshift, .-c_array_unshift
 2342 0012 00BF     		.section	.text.mrbc_array_remove,"ax",%progbits
 2343              		.align	2
 2344              		.global	mrbc_array_remove
 2345              		.thumb
 2346              		.thumb_func
 2347              		.type	mrbc_array_remove, %function
 2348              	mrbc_array_remove:
 2349              	.LFB96:
 340:c_array.c     ****   mrbc_array *h = ary->array;
 2350              		.loc 1 340 0
 2351              		.cfi_startproc
 2352              		@ args = 0, pretend = 0, frame = 16
 2353              		@ frame_needed = 0, uses_anonymous_args = 0
 2354              	.LVL320:
 2355 0000 2DE9F041 		push	{r4, r5, r6, r7, r8, lr}
 2356              		.cfi_def_cfa_offset 24
 2357              		.cfi_offset 4, -24
 2358              		.cfi_offset 5, -20
 2359              		.cfi_offset 6, -16
 2360              		.cfi_offset 7, -12
 2361              		.cfi_offset 8, -8
 2362              		.cfi_offset 14, -4
 2363 0004 84B0     		sub	sp, sp, #16
 2364              		.cfi_def_cfa_offset 40
 2365 0006 0446     		mov	r4, r0
 341:c_array.c     **** 
 2366              		.loc 1 341 0
 2367 0008 8F68     		ldr	r7, [r1, #8]
 2368              	.LVL321:
 343:c_array.c     ****   if( idx < 0 || idx >= h->n_stored ) return mrbc_nil_value();
 2369              		.loc 1 343 0
 2370 000a 161E     		subs	r6, r2, #0
 2371 000c 01DA     		bge	.L169
 343:c_array.c     ****   if( idx < 0 || idx >= h->n_stored ) return mrbc_nil_value();
 2372              		.loc 1 343 0 is_stmt 0 discriminator 1
 2373 000e FB88     		ldrh	r3, [r7, #6]
 2374 0010 1E44     		add	r6, r6, r3
 2375              	.LVL322:
 2376              	.L169:
 344:c_array.c     **** 
 2377              		.loc 1 344 0 is_stmt 1
ARM GAS  C:\Users\164\AppData\Local\Temp\ccuYWdBJ.s 			page 66


 2378 0012 002E     		cmp	r6, #0
 2379 0014 02DB     		blt	.L170
 344:c_array.c     **** 
 2380              		.loc 1 344 0 is_stmt 0 discriminator 2
 2381 0016 FD88     		ldrh	r5, [r7, #6]
 2382 0018 AE42     		cmp	r6, r5
 2383 001a 07DB     		blt	.L171
 2384              	.L170:
 344:c_array.c     **** 
 2385              		.loc 1 344 0 discriminator 3
 2386 001c 0023     		movs	r3, #0
 2387 001e 2360     		str	r3, [r4]
 2388 0020 6360     		str	r3, [r4, #4]
 2389 0022 A360     		str	r3, [r4, #8]
 2390 0024 E360     		str	r3, [r4, #12]
 2391 0026 0123     		movs	r3, #1
 2392 0028 2370     		strb	r3, [r4]
 2393 002a 1BE0     		b	.L168
 2394              	.L171:
 346:c_array.c     ****   h->n_stored--;
 2395              		.loc 1 346 0 is_stmt 1
 2396 002c D7F808C0 		ldr	ip, [r7, #8]
 2397 0030 0CEB061E 		add	lr, ip, r6, lsl #4
 2398 0034 9EE80F00 		ldmia	lr, {r0, r1, r2, r3}
 2399              	.LVL323:
 2400 0038 0DF11008 		add	r8, sp, #16
 2401 003c 08E90F00 		stmdb	r8, {r0, r1, r2, r3}
 347:c_array.c     ****   if( idx < h->n_stored ) {
 2402              		.loc 1 347 0
 2403 0040 013D     		subs	r5, r5, #1
 2404 0042 ADB2     		uxth	r5, r5
 2405 0044 FD80     		strh	r5, [r7, #6]	@ movhi
 348:c_array.c     ****     memmove(h->data + idx, h->data + idx + 1,
 2406              		.loc 1 348 0
 2407 0046 AE42     		cmp	r6, r5
 2408 0048 07DA     		bge	.L173
 349:c_array.c     **** 	    sizeof(mrbc_value) * (h->n_stored - idx));
 2409              		.loc 1 349 0
 2410 004a 711C     		adds	r1, r6, #1
 350:c_array.c     ****   }
 2411              		.loc 1 350 0
 2412 004c AA1B     		subs	r2, r5, r6
 349:c_array.c     **** 	    sizeof(mrbc_value) * (h->n_stored - idx));
 2413              		.loc 1 349 0
 2414 004e 1201     		lsls	r2, r2, #4
 2415 0050 0CEB0111 		add	r1, ip, r1, lsl #4
 2416 0054 7046     		mov	r0, lr
 2417 0056 FFF7FEFF 		bl	memmove
 2418              	.LVL324:
 2419              	.L173:
 353:c_array.c     **** }
 2420              		.loc 1 353 0
 2421 005a 04AB     		add	r3, sp, #16
 2422 005c 13E90F00 		ldmdb	r3, {r0, r1, r2, r3}
 2423 0060 84E80F00 		stmia	r4, {r0, r1, r2, r3}
 2424              	.L168:
 354:c_array.c     **** 
ARM GAS  C:\Users\164\AppData\Local\Temp\ccuYWdBJ.s 			page 67


 2425              		.loc 1 354 0
 2426 0064 2046     		mov	r0, r4
 2427 0066 04B0     		add	sp, sp, #16
 2428              		.cfi_def_cfa_offset 24
 2429              		@ sp needed
 2430 0068 BDE8F081 		pop	{r4, r5, r6, r7, r8, pc}
 2431              		.cfi_endproc
 2432              	.LFE96:
 2433              		.size	mrbc_array_remove, .-mrbc_array_remove
 2434              		.section	.text.c_array_delete_at,"ax",%progbits
 2435              		.align	2
 2436              		.thumb
 2437              		.thumb_func
 2438              		.type	c_array_delete_at, %function
 2439              	c_array_delete_at:
 2440              	.LFB105:
 615:c_array.c     ****   mrbc_value val = mrbc_array_remove(v, GET_INT_ARG(1));
 2441              		.loc 1 615 0
 2442              		.cfi_startproc
 2443              		@ args = 0, pretend = 0, frame = 32
 2444              		@ frame_needed = 0, uses_anonymous_args = 0
 2445              	.LVL325:
 2446 0000 70B5     		push	{r4, r5, r6, lr}
 2447              		.cfi_def_cfa_offset 16
 2448              		.cfi_offset 4, -16
 2449              		.cfi_offset 5, -12
 2450              		.cfi_offset 6, -8
 2451              		.cfi_offset 14, -4
 2452 0002 88B0     		sub	sp, sp, #32
 2453              		.cfi_def_cfa_offset 48
 2454 0004 0D46     		mov	r5, r1
 616:c_array.c     ****   SET_RETURN(val);
 2455              		.loc 1 616 0
 2456 0006 04AE     		add	r6, sp, #16
 2457 0008 8A69     		ldr	r2, [r1, #24]
 2458              	.LVL326:
 2459 000a 3046     		mov	r0, r6
 2460              	.LVL327:
 2461 000c FFF7FEFF 		bl	mrbc_array_remove
 2462              	.LVL328:
 2463              	.LBB115:
 617:c_array.c     **** }
 2464              		.loc 1 617 0
 2465 0010 96E80F00 		ldmia	r6, {r0, r1, r2, r3}
 2466 0014 8DE80F00 		stmia	sp, {r0, r1, r2, r3}
 2467 0018 2846     		mov	r0, r5
 2468 001a FFF7FEFF 		bl	mrbc_dec_ref_counter
 2469              	.LVL329:
 2470 001e 9DE80F00 		ldmia	sp, {r0, r1, r2, r3}
 2471 0022 85E80F00 		stmia	r5, {r0, r1, r2, r3}
 2472              	.LBE115:
 618:c_array.c     **** 
 2473              		.loc 1 618 0
 2474 0026 08B0     		add	sp, sp, #32
 2475              		.cfi_def_cfa_offset 16
 2476              		@ sp needed
 2477 0028 70BD     		pop	{r4, r5, r6, pc}
ARM GAS  C:\Users\164\AppData\Local\Temp\ccuYWdBJ.s 			page 68


 2478              		.cfi_endproc
 2479              	.LFE105:
 2480              		.size	c_array_delete_at, .-c_array_delete_at
 2481 002a 00BF     		.section	.text.mrbc_array_clear,"ax",%progbits
 2482              		.align	2
 2483              		.global	mrbc_array_clear
 2484              		.thumb
 2485              		.thumb_func
 2486              		.type	mrbc_array_clear, %function
 2487              	mrbc_array_clear:
 2488              	.LFB97:
 363:c_array.c     ****   mrbc_array *h = ary->array;
 2489              		.loc 1 363 0
 2490              		.cfi_startproc
 2491              		@ args = 0, pretend = 0, frame = 0
 2492              		@ frame_needed = 0, uses_anonymous_args = 0
 2493              	.LVL330:
 2494 0000 70B5     		push	{r4, r5, r6, lr}
 2495              		.cfi_def_cfa_offset 16
 2496              		.cfi_offset 4, -16
 2497              		.cfi_offset 5, -12
 2498              		.cfi_offset 6, -8
 2499              		.cfi_offset 14, -4
 364:c_array.c     **** 
 2500              		.loc 1 364 0
 2501 0002 8668     		ldr	r6, [r0, #8]
 2502              	.LVL331:
 366:c_array.c     ****   const mrbc_value *p2 = p1 + h->n_stored;
 2503              		.loc 1 366 0
 2504 0004 B068     		ldr	r0, [r6, #8]
 2505              	.LVL332:
 367:c_array.c     ****   while( p1 < p2 ) {
 2506              		.loc 1 367 0
 2507 0006 F588     		ldrh	r5, [r6, #6]
 2508 0008 00EB0515 		add	r5, r0, r5, lsl #4
 2509              	.LVL333:
 368:c_array.c     ****     mrbc_dec_ref_counter(p1++);
 2510              		.loc 1 368 0
 2511 000c 04E0     		b	.L178
 2512              	.L179:
 369:c_array.c     ****   }
 2513              		.loc 1 369 0
 2514 000e 00F11004 		add	r4, r0, #16
 2515              	.LVL334:
 2516 0012 FFF7FEFF 		bl	mrbc_dec_ref_counter
 2517              	.LVL335:
 2518 0016 2046     		mov	r0, r4
 2519              	.LVL336:
 2520              	.L178:
 368:c_array.c     ****     mrbc_dec_ref_counter(p1++);
 2521              		.loc 1 368 0
 2522 0018 A842     		cmp	r0, r5
 2523 001a F8D3     		bcc	.L179
 372:c_array.c     **** }
 2524              		.loc 1 372 0
 2525 001c 0023     		movs	r3, #0
 2526 001e F380     		strh	r3, [r6, #6]	@ movhi
ARM GAS  C:\Users\164\AppData\Local\Temp\ccuYWdBJ.s 			page 69


 2527 0020 70BD     		pop	{r4, r5, r6, pc}
 2528              		.cfi_endproc
 2529              	.LFE97:
 2530              		.size	mrbc_array_clear, .-mrbc_array_clear
 2531 0022 00BF     		.section	.text.c_array_clear,"ax",%progbits
 2532              		.align	2
 2533              		.thumb
 2534              		.thumb_func
 2535              		.type	c_array_clear, %function
 2536              	c_array_clear:
 2537              	.LFB104:
 606:c_array.c     ****   mrbc_array_clear(v);
 2538              		.loc 1 606 0
 2539              		.cfi_startproc
 2540              		@ args = 0, pretend = 0, frame = 0
 2541              		@ frame_needed = 0, uses_anonymous_args = 0
 2542              	.LVL337:
 2543 0000 08B5     		push	{r3, lr}
 2544              		.cfi_def_cfa_offset 8
 2545              		.cfi_offset 3, -8
 2546              		.cfi_offset 14, -4
 607:c_array.c     **** }
 2547              		.loc 1 607 0
 2548 0002 0846     		mov	r0, r1
 2549              	.LVL338:
 2550 0004 FFF7FEFF 		bl	mrbc_array_clear
 2551              	.LVL339:
 2552 0008 08BD     		pop	{r3, pc}
 2553              		.cfi_endproc
 2554              	.LFE104:
 2555              		.size	c_array_clear, .-c_array_clear
 2556 000a 00BF     		.section	.text.mrbc_array_compare,"ax",%progbits
 2557              		.align	2
 2558              		.global	mrbc_array_compare
 2559              		.thumb
 2560              		.thumb_func
 2561              		.type	mrbc_array_compare, %function
 2562              	mrbc_array_compare:
 2563              	.LFB98:
 386:c_array.c     ****   int i;
 2564              		.loc 1 386 0
 2565              		.cfi_startproc
 2566              		@ args = 0, pretend = 0, frame = 0
 2567              		@ frame_needed = 0, uses_anonymous_args = 0
 2568              	.LVL340:
 2569 0000 70B5     		push	{r4, r5, r6, lr}
 2570              		.cfi_def_cfa_offset 16
 2571              		.cfi_offset 4, -16
 2572              		.cfi_offset 5, -12
 2573              		.cfi_offset 6, -8
 2574              		.cfi_offset 14, -4
 2575 0002 0646     		mov	r6, r0
 2576 0004 0D46     		mov	r5, r1
 2577              	.LVL341:
 388:c_array.c     ****     if( i >= mrbc_array_size(v1) || i >= mrbc_array_size(v2) ) {
 2578              		.loc 1 388 0
 2579 0006 0024     		movs	r4, #0
ARM GAS  C:\Users\164\AppData\Local\Temp\ccuYWdBJ.s 			page 70


 2580              	.LVL342:
 2581              	.L187:
 2582              	.LBB116:
 2583              	.LBB117:
 2584              	.LBB118:
 2585              		.loc 2 60 0
 2586 0008 B268     		ldr	r2, [r6, #8]
 2587 000a D388     		ldrh	r3, [r2, #6]
 2588              	.LVL343:
 2589              	.LBE118:
 2590              	.LBE117:
 389:c_array.c     ****       return mrbc_array_size(v1) - mrbc_array_size(v2);
 2591              		.loc 1 389 0
 2592 000c 9C42     		cmp	r4, r3
 2593 000e 03DA     		bge	.L184
 2594              	.LVL344:
 2595              	.LBB119:
 2596              	.LBB120:
 2597              		.loc 2 60 0
 2598 0010 A968     		ldr	r1, [r5, #8]
 2599 0012 C888     		ldrh	r0, [r1, #6]
 2600              	.LVL345:
 2601              	.LBE120:
 2602              	.LBE119:
 389:c_array.c     ****       return mrbc_array_size(v1) - mrbc_array_size(v2);
 2603              		.loc 1 389 0
 2604 0014 8442     		cmp	r4, r0
 2605 0016 03DB     		blt	.L185
 2606              	.L184:
 2607              	.LVL346:
 2608              	.LBB121:
 2609              	.LBB122:
 2610              		.loc 2 60 0
 2611 0018 AA68     		ldr	r2, [r5, #8]
 2612 001a D088     		ldrh	r0, [r2, #6]
 2613              	.LVL347:
 2614              	.LBE122:
 2615              	.LBE121:
 390:c_array.c     ****     }
 2616              		.loc 1 390 0
 2617 001c 181A     		subs	r0, r3, r0
 2618 001e 70BD     		pop	{r4, r5, r6, pc}
 2619              	.LVL348:
 2620              	.L185:
 393:c_array.c     ****     if( res != 0 ) return res;
 2621              		.loc 1 393 0
 2622 0020 9368     		ldr	r3, [r2, #8]
 2623 0022 2001     		lsls	r0, r4, #4
 2624 0024 8968     		ldr	r1, [r1, #8]
 2625 0026 0144     		add	r1, r1, r0
 2626 0028 1844     		add	r0, r0, r3
 2627 002a FFF7FEFF 		bl	mrbc_compare
 2628              	.LVL349:
 394:c_array.c     ****   }
 2629              		.loc 1 394 0
 2630 002e 08B9     		cbnz	r0, .L188
 2631              	.LBE116:
ARM GAS  C:\Users\164\AppData\Local\Temp\ccuYWdBJ.s 			page 71


 388:c_array.c     ****     if( i >= mrbc_array_size(v1) || i >= mrbc_array_size(v2) ) {
 2632              		.loc 1 388 0
 2633 0030 0134     		adds	r4, r4, #1
 2634              	.LVL350:
 395:c_array.c     **** }
 2635              		.loc 1 395 0
 2636 0032 E9E7     		b	.L187
 2637              	.L188:
 396:c_array.c     **** 
 2638              		.loc 1 396 0
 2639 0034 70BD     		pop	{r4, r5, r6, pc}
 2640              		.cfi_endproc
 2641              	.LFE98:
 2642              		.size	mrbc_array_compare, .-mrbc_array_compare
 2643 0036 00BF     		.section	.text.mrbc_array_minmax,"ax",%progbits
 2644              		.align	2
 2645              		.global	mrbc_array_minmax
 2646              		.thumb
 2647              		.thumb_func
 2648              		.type	mrbc_array_minmax, %function
 2649              	mrbc_array_minmax:
 2650              	.LFB99:
 407:c_array.c     ****   mrbc_array *h = ary->array;
 2651              		.loc 1 407 0
 2652              		.cfi_startproc
 2653              		@ args = 0, pretend = 0, frame = 0
 2654              		@ frame_needed = 0, uses_anonymous_args = 0
 2655              	.LVL351:
 2656 0000 2DE9F047 		push	{r4, r5, r6, r7, r8, r9, r10, lr}
 2657              		.cfi_def_cfa_offset 32
 2658              		.cfi_offset 4, -32
 2659              		.cfi_offset 5, -28
 2660              		.cfi_offset 6, -24
 2661              		.cfi_offset 7, -20
 2662              		.cfi_offset 8, -16
 2663              		.cfi_offset 9, -12
 2664              		.cfi_offset 10, -8
 2665              		.cfi_offset 14, -4
 408:c_array.c     **** 
 2666              		.loc 1 408 0
 2667 0004 8468     		ldr	r4, [r0, #8]
 2668              	.LVL352:
 410:c_array.c     ****     *pp_min_value = NULL;
 2669              		.loc 1 410 0
 2670 0006 E388     		ldrh	r3, [r4, #6]
 2671 0008 1BB9     		cbnz	r3, .L191
 411:c_array.c     ****     *pp_max_value = NULL;
 2672              		.loc 1 411 0
 2673 000a 0B60     		str	r3, [r1]
 412:c_array.c     ****     return;
 2674              		.loc 1 412 0
 2675 000c 1360     		str	r3, [r2]
 413:c_array.c     ****   }
 2676              		.loc 1 413 0
 2677 000e BDE8F087 		pop	{r4, r5, r6, r7, r8, r9, r10, pc}
 2678              	.LVL353:
 2679              	.L191:
ARM GAS  C:\Users\164\AppData\Local\Temp\ccuYWdBJ.s 			page 72


 2680 0012 9146     		mov	r9, r2
 2681 0014 8A46     		mov	r10, r1
 416:c_array.c     ****   mrbc_value *p_max_value = h->data;
 2682              		.loc 1 416 0
 2683 0016 D4F80880 		ldr	r8, [r4, #8]
 2684              	.LVL354:
 417:c_array.c     **** 
 2685              		.loc 1 417 0
 2686 001a 4746     		mov	r7, r8
 420:c_array.c     ****     if( mrbc_compare( &h->data[i], p_min_value ) < 0 ) {
 2687              		.loc 1 420 0
 2688 001c 0125     		movs	r5, #1
 2689 001e 14E0     		b	.L193
 2690              	.LVL355:
 2691              	.L196:
 421:c_array.c     ****       p_min_value = &h->data[i];
 2692              		.loc 1 421 0
 2693 0020 A068     		ldr	r0, [r4, #8]
 2694 0022 2E01     		lsls	r6, r5, #4
 2695 0024 4146     		mov	r1, r8
 2696 0026 3044     		add	r0, r0, r6
 2697 0028 FFF7FEFF 		bl	mrbc_compare
 2698              	.LVL356:
 2699 002c 0028     		cmp	r0, #0
 2700 002e 02DA     		bge	.L194
 422:c_array.c     ****     }
 2701              		.loc 1 422 0
 2702 0030 A368     		ldr	r3, [r4, #8]
 2703 0032 03EB0608 		add	r8, r3, r6
 2704              	.LVL357:
 2705              	.L194:
 424:c_array.c     ****       p_max_value = &h->data[i];
 2706              		.loc 1 424 0
 2707 0036 A068     		ldr	r0, [r4, #8]
 2708 0038 3946     		mov	r1, r7
 2709 003a 3044     		add	r0, r0, r6
 2710 003c FFF7FEFF 		bl	mrbc_compare
 2711              	.LVL358:
 2712 0040 0028     		cmp	r0, #0
 2713 0042 01DD     		ble	.L195
 425:c_array.c     ****     }
 2714              		.loc 1 425 0
 2715 0044 A768     		ldr	r7, [r4, #8]
 2716              	.LVL359:
 2717 0046 3744     		add	r7, r7, r6
 2718              	.LVL360:
 2719              	.L195:
 420:c_array.c     ****     if( mrbc_compare( &h->data[i], p_min_value ) < 0 ) {
 2720              		.loc 1 420 0 discriminator 2
 2721 0048 0135     		adds	r5, r5, #1
 2722              	.LVL361:
 2723              	.L193:
 420:c_array.c     ****     if( mrbc_compare( &h->data[i], p_min_value ) < 0 ) {
 2724              		.loc 1 420 0 is_stmt 0 discriminator 1
 2725 004a E388     		ldrh	r3, [r4, #6]
 2726 004c 9D42     		cmp	r5, r3
 2727 004e E7DB     		blt	.L196
ARM GAS  C:\Users\164\AppData\Local\Temp\ccuYWdBJ.s 			page 73


 429:c_array.c     ****   *pp_max_value = p_max_value;
 2728              		.loc 1 429 0 is_stmt 1
 2729 0050 CAF80080 		str	r8, [r10]
 430:c_array.c     **** }
 2730              		.loc 1 430 0
 2731 0054 C9F80070 		str	r7, [r9]
 2732 0058 BDE8F087 		pop	{r4, r5, r6, r7, r8, r9, r10, pc}
 2733              		.cfi_endproc
 2734              	.LFE99:
 2735              		.size	mrbc_array_minmax, .-mrbc_array_minmax
 2736              		.section	.text.c_array_minmax,"ax",%progbits
 2737              		.align	2
 2738              		.thumb
 2739              		.thumb_func
 2740              		.type	c_array_minmax, %function
 2741              	c_array_minmax:
 2742              	.LFB118:
 835:c_array.c     ****   // Subset of Array#minmax, not support minmax(n).
 2743              		.loc 1 835 0
 2744              		.cfi_startproc
 2745              		@ args = 0, pretend = 0, frame = 56
 2746              		@ frame_needed = 0, uses_anonymous_args = 0
 2747              	.LVL362:
 2748 0000 70B5     		push	{r4, r5, r6, lr}
 2749              		.cfi_def_cfa_offset 16
 2750              		.cfi_offset 4, -16
 2751              		.cfi_offset 5, -12
 2752              		.cfi_offset 6, -8
 2753              		.cfi_offset 14, -4
 2754 0002 8EB0     		sub	sp, sp, #56
 2755              		.cfi_def_cfa_offset 72
 2756 0004 0D46     		mov	r5, r1
 839:c_array.c     ****   mrbc_value ret = mrbc_array_new(vm, 2);
 2757              		.loc 1 839 0
 2758 0006 0023     		movs	r3, #0
 2759 0008 0893     		str	r3, [sp, #32]
 2760 000a 0993     		str	r3, [sp, #36]
 2761 000c 0A93     		str	r3, [sp, #40]
 2762 000e 0B93     		str	r3, [sp, #44]
 2763 0010 0123     		movs	r3, #1
 2764 0012 8DF82030 		strb	r3, [sp, #32]
 840:c_array.c     **** 
 2765              		.loc 1 840 0
 2766 0016 0222     		movs	r2, #2
 2767              	.LVL363:
 2768 0018 0146     		mov	r1, r0
 2769              	.LVL364:
 2770 001a 04A8     		add	r0, sp, #16
 2771              	.LVL365:
 2772 001c FFF7FEFF 		bl	mrbc_array_new
 2773              	.LVL366:
 842:c_array.c     ****   if( p_min_value == NULL ) p_min_value = &nil;
 2774              		.loc 1 842 0
 2775 0020 0CAA     		add	r2, sp, #48
 2776 0022 0DA9     		add	r1, sp, #52
 2777 0024 2846     		mov	r0, r5
 2778 0026 FFF7FEFF 		bl	mrbc_array_minmax
ARM GAS  C:\Users\164\AppData\Local\Temp\ccuYWdBJ.s 			page 74


 2779              	.LVL367:
 843:c_array.c     ****   if( p_max_value == NULL ) p_max_value = &nil;
 2780              		.loc 1 843 0
 2781 002a 0D9B     		ldr	r3, [sp, #52]
 2782 002c 0BB9     		cbnz	r3, .L199
 843:c_array.c     ****   if( p_max_value == NULL ) p_max_value = &nil;
 2783              		.loc 1 843 0 is_stmt 0 discriminator 1
 2784 002e 08AB     		add	r3, sp, #32
 2785 0030 0D93     		str	r3, [sp, #52]
 2786              	.L199:
 844:c_array.c     **** 
 2787              		.loc 1 844 0 is_stmt 1
 2788 0032 0C9B     		ldr	r3, [sp, #48]
 2789 0034 0BB9     		cbnz	r3, .L200
 844:c_array.c     **** 
 2790              		.loc 1 844 0 is_stmt 0 discriminator 1
 2791 0036 08AB     		add	r3, sp, #32
 2792 0038 0C93     		str	r3, [sp, #48]
 2793              	.L200:
 846:c_array.c     ****   mrbc_dup(p_max_value);
 2794              		.loc 1 846 0 is_stmt 1
 2795 003a 0D98     		ldr	r0, [sp, #52]
 2796 003c FFF7FEFF 		bl	mrbc_dup
 2797              	.LVL368:
 847:c_array.c     ****   mrbc_array_set(&ret, 0, p_min_value);
 2798              		.loc 1 847 0
 2799 0040 0C98     		ldr	r0, [sp, #48]
 2800 0042 FFF7FEFF 		bl	mrbc_dup
 2801              	.LVL369:
 848:c_array.c     ****   mrbc_array_set(&ret, 1, p_max_value);
 2802              		.loc 1 848 0
 2803 0046 04AE     		add	r6, sp, #16
 2804 0048 0D9A     		ldr	r2, [sp, #52]
 2805 004a 0021     		movs	r1, #0
 2806 004c 3046     		mov	r0, r6
 2807 004e FFF7FEFF 		bl	mrbc_array_set
 2808              	.LVL370:
 849:c_array.c     **** 
 2809              		.loc 1 849 0
 2810 0052 0C9A     		ldr	r2, [sp, #48]
 2811 0054 0121     		movs	r1, #1
 2812 0056 3046     		mov	r0, r6
 2813 0058 FFF7FEFF 		bl	mrbc_array_set
 2814              	.LVL371:
 2815              	.LBB123:
 851:c_array.c     **** }
 2816              		.loc 1 851 0
 2817 005c 96E80F00 		ldmia	r6, {r0, r1, r2, r3}
 2818 0060 8DE80F00 		stmia	sp, {r0, r1, r2, r3}
 2819 0064 2846     		mov	r0, r5
 2820 0066 FFF7FEFF 		bl	mrbc_dec_ref_counter
 2821              	.LVL372:
 2822 006a 9DE80F00 		ldmia	sp, {r0, r1, r2, r3}
 2823 006e 85E80F00 		stmia	r5, {r0, r1, r2, r3}
 2824              	.LBE123:
 852:c_array.c     **** 
 2825              		.loc 1 852 0
ARM GAS  C:\Users\164\AppData\Local\Temp\ccuYWdBJ.s 			page 75


 2826 0072 0EB0     		add	sp, sp, #56
 2827              		.cfi_def_cfa_offset 16
 2828              		@ sp needed
 2829 0074 70BD     		pop	{r4, r5, r6, pc}
 2830              		.cfi_endproc
 2831              	.LFE118:
 2832              		.size	c_array_minmax, .-c_array_minmax
 2833 0076 00BF     		.section	.text.c_array_max,"ax",%progbits
 2834              		.align	2
 2835              		.thumb
 2836              		.thumb_func
 2837              		.type	c_array_max, %function
 2838              	c_array_max:
 2839              	.LFB117:
 815:c_array.c     ****   // Subset of Array#max, not support max(n).
 2840              		.loc 1 815 0
 2841              		.cfi_startproc
 2842              		@ args = 0, pretend = 0, frame = 24
 2843              		@ frame_needed = 0, uses_anonymous_args = 0
 2844              	.LVL373:
 2845 0000 30B5     		push	{r4, r5, lr}
 2846              		.cfi_def_cfa_offset 12
 2847              		.cfi_offset 4, -12
 2848              		.cfi_offset 5, -8
 2849              		.cfi_offset 14, -4
 2850 0002 87B0     		sub	sp, sp, #28
 2851              		.cfi_def_cfa_offset 40
 2852 0004 0D46     		mov	r5, r1
 820:c_array.c     ****   if( p_max_value == NULL ) {
 2853              		.loc 1 820 0
 2854 0006 04AA     		add	r2, sp, #16
 2855              	.LVL374:
 2856 0008 05A9     		add	r1, sp, #20
 2857              	.LVL375:
 2858 000a 2846     		mov	r0, r5
 2859              	.LVL376:
 2860 000c FFF7FEFF 		bl	mrbc_array_minmax
 2861              	.LVL377:
 821:c_array.c     ****     SET_NIL_RETURN();
 2862              		.loc 1 821 0
 2863 0010 0498     		ldr	r0, [sp, #16]
 2864 0012 28B9     		cbnz	r0, .L203
 822:c_array.c     ****     return;
 2865              		.loc 1 822 0
 2866 0014 2846     		mov	r0, r5
 2867 0016 FFF7FEFF 		bl	mrbc_dec_ref_counter
 2868              	.LVL378:
 2869 001a 0123     		movs	r3, #1
 2870 001c 2B70     		strb	r3, [r5]
 2871 001e 0CE0     		b	.L202
 2872              	.L203:
 826:c_array.c     ****   SET_RETURN(*p_max_value);
 2873              		.loc 1 826 0
 2874 0020 FFF7FEFF 		bl	mrbc_dup
 2875              	.LVL379:
 2876              	.LBB124:
 827:c_array.c     **** }
ARM GAS  C:\Users\164\AppData\Local\Temp\ccuYWdBJ.s 			page 76


 2877              		.loc 1 827 0
 2878 0024 049B     		ldr	r3, [sp, #16]
 2879 0026 0FCB     		ldmia	r3, {r0, r1, r2, r3}
 2880 0028 8DE80F00 		stmia	sp, {r0, r1, r2, r3}
 2881 002c 2846     		mov	r0, r5
 2882 002e FFF7FEFF 		bl	mrbc_dec_ref_counter
 2883              	.LVL380:
 2884 0032 9DE80F00 		ldmia	sp, {r0, r1, r2, r3}
 2885 0036 85E80F00 		stmia	r5, {r0, r1, r2, r3}
 2886              	.L202:
 2887              	.LBE124:
 828:c_array.c     **** 
 2888              		.loc 1 828 0
 2889 003a 07B0     		add	sp, sp, #28
 2890              		.cfi_def_cfa_offset 12
 2891              		@ sp needed
 2892 003c 30BD     		pop	{r4, r5, pc}
 2893              		.cfi_endproc
 2894              	.LFE117:
 2895              		.size	c_array_max, .-c_array_max
 2896 003e 00BF     		.section	.text.c_array_min,"ax",%progbits
 2897              		.align	2
 2898              		.thumb
 2899              		.thumb_func
 2900              		.type	c_array_min, %function
 2901              	c_array_min:
 2902              	.LFB116:
 795:c_array.c     ****   // Subset of Array#min, not support min(n).
 2903              		.loc 1 795 0
 2904              		.cfi_startproc
 2905              		@ args = 0, pretend = 0, frame = 24
 2906              		@ frame_needed = 0, uses_anonymous_args = 0
 2907              	.LVL381:
 2908 0000 30B5     		push	{r4, r5, lr}
 2909              		.cfi_def_cfa_offset 12
 2910              		.cfi_offset 4, -12
 2911              		.cfi_offset 5, -8
 2912              		.cfi_offset 14, -4
 2913 0002 87B0     		sub	sp, sp, #28
 2914              		.cfi_def_cfa_offset 40
 2915 0004 0D46     		mov	r5, r1
 800:c_array.c     ****   if( p_min_value == NULL ) {
 2916              		.loc 1 800 0
 2917 0006 04AA     		add	r2, sp, #16
 2918              	.LVL382:
 2919 0008 05A9     		add	r1, sp, #20
 2920              	.LVL383:
 2921 000a 2846     		mov	r0, r5
 2922              	.LVL384:
 2923 000c FFF7FEFF 		bl	mrbc_array_minmax
 2924              	.LVL385:
 801:c_array.c     ****     SET_NIL_RETURN();
 2925              		.loc 1 801 0
 2926 0010 0598     		ldr	r0, [sp, #20]
 2927 0012 28B9     		cbnz	r0, .L207
 802:c_array.c     ****     return;
 2928              		.loc 1 802 0
ARM GAS  C:\Users\164\AppData\Local\Temp\ccuYWdBJ.s 			page 77


 2929 0014 2846     		mov	r0, r5
 2930 0016 FFF7FEFF 		bl	mrbc_dec_ref_counter
 2931              	.LVL386:
 2932 001a 0123     		movs	r3, #1
 2933 001c 2B70     		strb	r3, [r5]
 2934 001e 0CE0     		b	.L206
 2935              	.L207:
 806:c_array.c     ****   SET_RETURN(*p_min_value);
 2936              		.loc 1 806 0
 2937 0020 FFF7FEFF 		bl	mrbc_dup
 2938              	.LVL387:
 2939              	.LBB125:
 807:c_array.c     **** }
 2940              		.loc 1 807 0
 2941 0024 059B     		ldr	r3, [sp, #20]
 2942 0026 0FCB     		ldmia	r3, {r0, r1, r2, r3}
 2943 0028 8DE80F00 		stmia	sp, {r0, r1, r2, r3}
 2944 002c 2846     		mov	r0, r5
 2945 002e FFF7FEFF 		bl	mrbc_dec_ref_counter
 2946              	.LVL388:
 2947 0032 9DE80F00 		ldmia	sp, {r0, r1, r2, r3}
 2948 0036 85E80F00 		stmia	r5, {r0, r1, r2, r3}
 2949              	.L206:
 2950              	.LBE125:
 808:c_array.c     **** 
 2951              		.loc 1 808 0
 2952 003a 07B0     		add	sp, sp, #28
 2953              		.cfi_def_cfa_offset 12
 2954              		@ sp needed
 2955 003c 30BD     		pop	{r4, r5, pc}
 2956              		.cfi_endproc
 2957              	.LFE116:
 2958              		.size	c_array_min, .-c_array_min
 2959 003e 00BF     		.section	.text.mrbc_init_class_array,"ax",%progbits
 2960              		.align	2
 2961              		.global	mrbc_init_class_array
 2962              		.thumb
 2963              		.thumb_func
 2964              		.type	mrbc_init_class_array, %function
 2965              	mrbc_init_class_array:
 2966              	.LFB122:
 924:c_array.c     **** 
 925:c_array.c     **** #endif
 926:c_array.c     **** 
 927:c_array.c     **** 
 928:c_array.c     **** 
 929:c_array.c     **** //================================================================
 930:c_array.c     **** /*! initialize
 931:c_array.c     **** */
 932:c_array.c     **** void mrbc_init_class_array(struct VM *vm)
 933:c_array.c     **** {
 2967              		.loc 1 933 0
 2968              		.cfi_startproc
 2969              		@ args = 0, pretend = 0, frame = 0
 2970              		@ frame_needed = 0, uses_anonymous_args = 0
 2971              	.LVL389:
 2972 0000 F8B5     		push	{r3, r4, r5, r6, r7, lr}
ARM GAS  C:\Users\164\AppData\Local\Temp\ccuYWdBJ.s 			page 78


 2973              		.cfi_def_cfa_offset 24
 2974              		.cfi_offset 3, -24
 2975              		.cfi_offset 4, -20
 2976              		.cfi_offset 5, -16
 2977              		.cfi_offset 6, -12
 2978              		.cfi_offset 7, -8
 2979              		.cfi_offset 14, -4
 2980 0002 0446     		mov	r4, r0
 934:c_array.c     ****   mrbc_class_array = mrbc_define_class(vm, "Array", mrbc_class_object);
 2981              		.loc 1 934 0
 2982 0004 534B     		ldr	r3, .L212
 2983 0006 1A68     		ldr	r2, [r3]
 2984 0008 5349     		ldr	r1, .L212+4
 2985 000a FFF7FEFF 		bl	mrbc_define_class
 2986              	.LVL390:
 2987 000e 0146     		mov	r1, r0
 2988 0010 524D     		ldr	r5, .L212+8
 2989 0012 2860     		str	r0, [r5]
 935:c_array.c     **** 
 936:c_array.c     ****   mrbc_define_method(vm, mrbc_class_array, "new", c_array_new);
 2990              		.loc 1 936 0
 2991 0014 524B     		ldr	r3, .L212+12
 2992 0016 534A     		ldr	r2, .L212+16
 2993 0018 2046     		mov	r0, r4
 2994 001a FFF7FEFF 		bl	mrbc_define_method
 2995              	.LVL391:
 937:c_array.c     ****   mrbc_define_method(vm, mrbc_class_array, "+", c_array_add);
 2996              		.loc 1 937 0
 2997 001e 524B     		ldr	r3, .L212+20
 2998 0020 524A     		ldr	r2, .L212+24
 2999 0022 2968     		ldr	r1, [r5]
 3000 0024 2046     		mov	r0, r4
 3001 0026 FFF7FEFF 		bl	mrbc_define_method
 3002              	.LVL392:
 938:c_array.c     ****   mrbc_define_method(vm, mrbc_class_array, "[]", c_array_get);
 3003              		.loc 1 938 0
 3004 002a 514E     		ldr	r6, .L212+28
 3005 002c 3346     		mov	r3, r6
 3006 002e 514A     		ldr	r2, .L212+32
 3007 0030 2968     		ldr	r1, [r5]
 3008 0032 2046     		mov	r0, r4
 3009 0034 FFF7FEFF 		bl	mrbc_define_method
 3010              	.LVL393:
 939:c_array.c     ****   mrbc_define_method(vm, mrbc_class_array, "at", c_array_get);
 3011              		.loc 1 939 0
 3012 0038 3346     		mov	r3, r6
 3013 003a 4F4A     		ldr	r2, .L212+36
 3014 003c 2968     		ldr	r1, [r5]
 3015 003e 2046     		mov	r0, r4
 3016 0040 FFF7FEFF 		bl	mrbc_define_method
 3017              	.LVL394:
 940:c_array.c     ****   mrbc_define_method(vm, mrbc_class_array, "[]=", c_array_set);
 3018              		.loc 1 940 0
 3019 0044 4D4B     		ldr	r3, .L212+40
 3020 0046 4E4A     		ldr	r2, .L212+44
 3021 0048 2968     		ldr	r1, [r5]
 3022 004a 2046     		mov	r0, r4
ARM GAS  C:\Users\164\AppData\Local\Temp\ccuYWdBJ.s 			page 79


 3023 004c FFF7FEFF 		bl	mrbc_define_method
 3024              	.LVL395:
 941:c_array.c     ****   mrbc_define_method(vm, mrbc_class_array, "<<", c_array_push);
 3025              		.loc 1 941 0
 3026 0050 4C4F     		ldr	r7, .L212+48
 3027 0052 3B46     		mov	r3, r7
 3028 0054 4C4A     		ldr	r2, .L212+52
 3029 0056 2968     		ldr	r1, [r5]
 3030 0058 2046     		mov	r0, r4
 3031 005a FFF7FEFF 		bl	mrbc_define_method
 3032              	.LVL396:
 942:c_array.c     ****   mrbc_define_method(vm, mrbc_class_array, "clear", c_array_clear);
 3033              		.loc 1 942 0
 3034 005e 4B4B     		ldr	r3, .L212+56
 3035 0060 4B4A     		ldr	r2, .L212+60
 3036 0062 2968     		ldr	r1, [r5]
 3037 0064 2046     		mov	r0, r4
 3038 0066 FFF7FEFF 		bl	mrbc_define_method
 3039              	.LVL397:
 943:c_array.c     ****   mrbc_define_method(vm, mrbc_class_array, "delete_at", c_array_delete_at);
 3040              		.loc 1 943 0
 3041 006a 4A4B     		ldr	r3, .L212+64
 3042 006c 4A4A     		ldr	r2, .L212+68
 3043 006e 2968     		ldr	r1, [r5]
 3044 0070 2046     		mov	r0, r4
 3045 0072 FFF7FEFF 		bl	mrbc_define_method
 3046              	.LVL398:
 944:c_array.c     ****   mrbc_define_method(vm, mrbc_class_array, "empty?", c_array_empty);
 3047              		.loc 1 944 0
 3048 0076 494B     		ldr	r3, .L212+72
 3049 0078 494A     		ldr	r2, .L212+76
 3050 007a 2968     		ldr	r1, [r5]
 3051 007c 2046     		mov	r0, r4
 3052 007e FFF7FEFF 		bl	mrbc_define_method
 3053              	.LVL399:
 945:c_array.c     ****   mrbc_define_method(vm, mrbc_class_array, "size", c_array_size);
 3054              		.loc 1 945 0
 3055 0082 484E     		ldr	r6, .L212+80
 3056 0084 3346     		mov	r3, r6
 3057 0086 484A     		ldr	r2, .L212+84
 3058 0088 2968     		ldr	r1, [r5]
 3059 008a 2046     		mov	r0, r4
 3060 008c FFF7FEFF 		bl	mrbc_define_method
 3061              	.LVL400:
 946:c_array.c     ****   mrbc_define_method(vm, mrbc_class_array, "length", c_array_size);
 3062              		.loc 1 946 0
 3063 0090 3346     		mov	r3, r6
 3064 0092 464A     		ldr	r2, .L212+88
 3065 0094 2968     		ldr	r1, [r5]
 3066 0096 2046     		mov	r0, r4
 3067 0098 FFF7FEFF 		bl	mrbc_define_method
 3068              	.LVL401:
 947:c_array.c     ****   mrbc_define_method(vm, mrbc_class_array, "count", c_array_size);
 3069              		.loc 1 947 0
 3070 009c 3346     		mov	r3, r6
 3071 009e 444A     		ldr	r2, .L212+92
 3072 00a0 2968     		ldr	r1, [r5]
ARM GAS  C:\Users\164\AppData\Local\Temp\ccuYWdBJ.s 			page 80


 3073 00a2 2046     		mov	r0, r4
 3074 00a4 FFF7FEFF 		bl	mrbc_define_method
 3075              	.LVL402:
 948:c_array.c     ****   mrbc_define_method(vm, mrbc_class_array, "index", c_array_index);
 3076              		.loc 1 948 0
 3077 00a8 424B     		ldr	r3, .L212+96
 3078 00aa 434A     		ldr	r2, .L212+100
 3079 00ac 2968     		ldr	r1, [r5]
 3080 00ae 2046     		mov	r0, r4
 3081 00b0 FFF7FEFF 		bl	mrbc_define_method
 3082              	.LVL403:
 949:c_array.c     ****   mrbc_define_method(vm, mrbc_class_array, "first", c_array_first);
 3083              		.loc 1 949 0
 3084 00b4 414B     		ldr	r3, .L212+104
 3085 00b6 424A     		ldr	r2, .L212+108
 3086 00b8 2968     		ldr	r1, [r5]
 3087 00ba 2046     		mov	r0, r4
 3088 00bc FFF7FEFF 		bl	mrbc_define_method
 3089              	.LVL404:
 950:c_array.c     ****   mrbc_define_method(vm, mrbc_class_array, "last", c_array_last);
 3090              		.loc 1 950 0
 3091 00c0 404B     		ldr	r3, .L212+112
 3092 00c2 414A     		ldr	r2, .L212+116
 3093 00c4 2968     		ldr	r1, [r5]
 3094 00c6 2046     		mov	r0, r4
 3095 00c8 FFF7FEFF 		bl	mrbc_define_method
 3096              	.LVL405:
 951:c_array.c     ****   mrbc_define_method(vm, mrbc_class_array, "push", c_array_push);
 3097              		.loc 1 951 0
 3098 00cc 3B46     		mov	r3, r7
 3099 00ce 3F4A     		ldr	r2, .L212+120
 3100 00d0 2968     		ldr	r1, [r5]
 3101 00d2 2046     		mov	r0, r4
 3102 00d4 FFF7FEFF 		bl	mrbc_define_method
 3103              	.LVL406:
 952:c_array.c     ****   mrbc_define_method(vm, mrbc_class_array, "pop", c_array_pop);
 3104              		.loc 1 952 0
 3105 00d8 3D4B     		ldr	r3, .L212+124
 3106 00da 3E4A     		ldr	r2, .L212+128
 3107 00dc 2968     		ldr	r1, [r5]
 3108 00de 2046     		mov	r0, r4
 3109 00e0 FFF7FEFF 		bl	mrbc_define_method
 3110              	.LVL407:
 953:c_array.c     ****   mrbc_define_method(vm, mrbc_class_array, "shift", c_array_shift);
 3111              		.loc 1 953 0
 3112 00e4 3C4B     		ldr	r3, .L212+132
 3113 00e6 3D4A     		ldr	r2, .L212+136
 3114 00e8 2968     		ldr	r1, [r5]
 3115 00ea 2046     		mov	r0, r4
 3116 00ec FFF7FEFF 		bl	mrbc_define_method
 3117              	.LVL408:
 954:c_array.c     ****   mrbc_define_method(vm, mrbc_class_array, "unshift", c_array_unshift);
 3118              		.loc 1 954 0
 3119 00f0 3B4B     		ldr	r3, .L212+140
 3120 00f2 3C4A     		ldr	r2, .L212+144
 3121 00f4 2968     		ldr	r1, [r5]
 3122 00f6 2046     		mov	r0, r4
ARM GAS  C:\Users\164\AppData\Local\Temp\ccuYWdBJ.s 			page 81


 3123 00f8 FFF7FEFF 		bl	mrbc_define_method
 3124              	.LVL409:
 955:c_array.c     ****   mrbc_define_method(vm, mrbc_class_array, "dup", c_array_dup);
 3125              		.loc 1 955 0
 3126 00fc 3A4B     		ldr	r3, .L212+148
 3127 00fe 3B4A     		ldr	r2, .L212+152
 3128 0100 2968     		ldr	r1, [r5]
 3129 0102 2046     		mov	r0, r4
 3130 0104 FFF7FEFF 		bl	mrbc_define_method
 3131              	.LVL410:
 956:c_array.c     ****   mrbc_define_method(vm, mrbc_class_array, "min", c_array_min);
 3132              		.loc 1 956 0
 3133 0108 394B     		ldr	r3, .L212+156
 3134 010a 3A4A     		ldr	r2, .L212+160
 3135 010c 2968     		ldr	r1, [r5]
 3136 010e 2046     		mov	r0, r4
 3137 0110 FFF7FEFF 		bl	mrbc_define_method
 3138              	.LVL411:
 957:c_array.c     ****   mrbc_define_method(vm, mrbc_class_array, "max", c_array_max);
 3139              		.loc 1 957 0
 3140 0114 384B     		ldr	r3, .L212+164
 3141 0116 394A     		ldr	r2, .L212+168
 3142 0118 2968     		ldr	r1, [r5]
 3143 011a 2046     		mov	r0, r4
 3144 011c FFF7FEFF 		bl	mrbc_define_method
 3145              	.LVL412:
 958:c_array.c     ****   mrbc_define_method(vm, mrbc_class_array, "minmax", c_array_minmax);
 3146              		.loc 1 958 0
 3147 0120 374B     		ldr	r3, .L212+172
 3148 0122 384A     		ldr	r2, .L212+176
 3149 0124 2968     		ldr	r1, [r5]
 3150 0126 2046     		mov	r0, r4
 3151 0128 FFF7FEFF 		bl	mrbc_define_method
 3152              	.LVL413:
 959:c_array.c     **** #if MRBC_USE_STRING
 960:c_array.c     ****   mrbc_define_method(vm, mrbc_class_array, "inspect", c_array_inspect);
 3153              		.loc 1 960 0
 3154 012c 364E     		ldr	r6, .L212+180
 3155 012e 3346     		mov	r3, r6
 3156 0130 364A     		ldr	r2, .L212+184
 3157 0132 2968     		ldr	r1, [r5]
 3158 0134 2046     		mov	r0, r4
 3159 0136 FFF7FEFF 		bl	mrbc_define_method
 3160              	.LVL414:
 961:c_array.c     ****   mrbc_define_method(vm, mrbc_class_array, "to_s", c_array_inspect);
 3161              		.loc 1 961 0
 3162 013a 3346     		mov	r3, r6
 3163 013c 344A     		ldr	r2, .L212+188
 3164 013e 2968     		ldr	r1, [r5]
 3165 0140 2046     		mov	r0, r4
 3166 0142 FFF7FEFF 		bl	mrbc_define_method
 3167              	.LVL415:
 962:c_array.c     ****   mrbc_define_method(vm, mrbc_class_array, "join", c_array_join);
 3168              		.loc 1 962 0
 3169 0146 334B     		ldr	r3, .L212+192
 3170 0148 334A     		ldr	r2, .L212+196
 3171 014a 2968     		ldr	r1, [r5]
ARM GAS  C:\Users\164\AppData\Local\Temp\ccuYWdBJ.s 			page 82


 3172 014c 2046     		mov	r0, r4
 3173 014e FFF7FEFF 		bl	mrbc_define_method
 3174              	.LVL416:
 3175 0152 F8BD     		pop	{r3, r4, r5, r6, r7, pc}
 3176              	.LVL417:
 3177              	.L213:
 3178              		.align	2
 3179              	.L212:
 3180 0154 00000000 		.word	mrbc_class_object
 3181 0158 B0000000 		.word	.LC11
 3182 015c 00000000 		.word	mrbc_class_array
 3183 0160 00000000 		.word	c_array_new
 3184 0164 B8000000 		.word	.LC12
 3185 0168 00000000 		.word	c_array_add
 3186 016c BC000000 		.word	.LC13
 3187 0170 00000000 		.word	c_array_get
 3188 0174 C0000000 		.word	.LC14
 3189 0178 C4000000 		.word	.LC15
 3190 017c 00000000 		.word	c_array_set
 3191 0180 C8000000 		.word	.LC16
 3192 0184 00000000 		.word	c_array_push
 3193 0188 CC000000 		.word	.LC17
 3194 018c 00000000 		.word	c_array_clear
 3195 0190 D0000000 		.word	.LC18
 3196 0194 00000000 		.word	c_array_delete_at
 3197 0198 D8000000 		.word	.LC19
 3198 019c 00000000 		.word	c_array_empty
 3199 01a0 E4000000 		.word	.LC20
 3200 01a4 00000000 		.word	c_array_size
 3201 01a8 EC000000 		.word	.LC21
 3202 01ac F4000000 		.word	.LC22
 3203 01b0 FC000000 		.word	.LC23
 3204 01b4 00000000 		.word	c_array_index
 3205 01b8 04010000 		.word	.LC24
 3206 01bc 00000000 		.word	c_array_first
 3207 01c0 0C010000 		.word	.LC25
 3208 01c4 00000000 		.word	c_array_last
 3209 01c8 14010000 		.word	.LC26
 3210 01cc 1C010000 		.word	.LC27
 3211 01d0 00000000 		.word	c_array_pop
 3212 01d4 24010000 		.word	.LC28
 3213 01d8 00000000 		.word	c_array_shift
 3214 01dc 28010000 		.word	.LC29
 3215 01e0 00000000 		.word	c_array_unshift
 3216 01e4 30010000 		.word	.LC30
 3217 01e8 00000000 		.word	c_array_dup
 3218 01ec 38010000 		.word	.LC31
 3219 01f0 00000000 		.word	c_array_min
 3220 01f4 3C010000 		.word	.LC32
 3221 01f8 00000000 		.word	c_array_max
 3222 01fc 40010000 		.word	.LC33
 3223 0200 00000000 		.word	c_array_minmax
 3224 0204 44010000 		.word	.LC34
 3225 0208 00000000 		.word	c_array_inspect
 3226 020c 54000000 		.word	.LC7
 3227 0210 00000000 		.word	.LC0
 3228 0214 00000000 		.word	c_array_join
ARM GAS  C:\Users\164\AppData\Local\Temp\ccuYWdBJ.s 			page 83


 3229 0218 4C010000 		.word	.LC35
 3230              		.cfi_endproc
 3231              	.LFE122:
 3232              		.size	mrbc_init_class_array, .-mrbc_init_class_array
 3233              		.section	.rodata.str1.4,"aMS",%progbits,1
 3234              		.align	2
 3235              	.LC0:
 3236 0000 746F5F73 		.ascii	"to_s\000"
 3236      00
 3237 0005 000000   		.space	3
 3238              	.LC1:
 3239 0008 00       		.ascii	"\000"
 3240 0009 000000   		.space	3
 3241              	.LC2:
 3242 000c 54797065 		.ascii	"TypeError\012\000"
 3242      4572726F 
 3242      720A00
 3243 0017 00       		.space	1
 3244              	.LC3:
 3245 0018 4E6F7420 		.ascii	"Not support such case in Array#[].\012\000"
 3245      73757070 
 3245      6F727420 
 3245      73756368 
 3245      20636173 
 3246              	.LC4:
 3247 003c 41726775 		.ascii	"ArgumentError\012\000"
 3247      6D656E74 
 3247      4572726F 
 3247      720A00
 3248 004b 00       		.space	1
 3249              	.LC5:
 3250 004c 5B00     		.ascii	"[\000"
 3251 004e 0000     		.space	2
 3252              	.LC6:
 3253 0050 2C2000   		.ascii	", \000"
 3254 0053 00       		.space	1
 3255              	.LC7:
 3256 0054 696E7370 		.ascii	"inspect\000"
 3256      65637400 
 3257              	.LC8:
 3258 005c 5D00     		.ascii	"]\000"
 3259 005e 0000     		.space	2
 3260              	.LC9:
 3261 0060 4E6F7420 		.ascii	"Not support such case in Array#pop.\012\000"
 3261      73757070 
 3261      6F727420 
 3261      73756368 
 3261      20636173 
 3262 0085 000000   		.space	3
 3263              	.LC10:
 3264 0088 4E6F7420 		.ascii	"Not support such case in Array#shift.\012\000"
 3264      73757070 
 3264      6F727420 
 3264      73756368 
 3264      20636173 
 3265 00af 00       		.space	1
 3266              	.LC11:
ARM GAS  C:\Users\164\AppData\Local\Temp\ccuYWdBJ.s 			page 84


 3267 00b0 41727261 		.ascii	"Array\000"
 3267      7900
 3268 00b6 0000     		.space	2
 3269              	.LC12:
 3270 00b8 6E657700 		.ascii	"new\000"
 3271              	.LC13:
 3272 00bc 2B00     		.ascii	"+\000"
 3273 00be 0000     		.space	2
 3274              	.LC14:
 3275 00c0 5B5D00   		.ascii	"[]\000"
 3276 00c3 00       		.space	1
 3277              	.LC15:
 3278 00c4 617400   		.ascii	"at\000"
 3279 00c7 00       		.space	1
 3280              	.LC16:
 3281 00c8 5B5D3D00 		.ascii	"[]=\000"
 3282              	.LC17:
 3283 00cc 3C3C00   		.ascii	"<<\000"
 3284 00cf 00       		.space	1
 3285              	.LC18:
 3286 00d0 636C6561 		.ascii	"clear\000"
 3286      7200
 3287 00d6 0000     		.space	2
 3288              	.LC19:
 3289 00d8 64656C65 		.ascii	"delete_at\000"
 3289      74655F61 
 3289      7400
 3290 00e2 0000     		.space	2
 3291              	.LC20:
 3292 00e4 656D7074 		.ascii	"empty?\000"
 3292      793F00
 3293 00eb 00       		.space	1
 3294              	.LC21:
 3295 00ec 73697A65 		.ascii	"size\000"
 3295      00
 3296 00f1 000000   		.space	3
 3297              	.LC22:
 3298 00f4 6C656E67 		.ascii	"length\000"
 3298      746800
 3299 00fb 00       		.space	1
 3300              	.LC23:
 3301 00fc 636F756E 		.ascii	"count\000"
 3301      7400
 3302 0102 0000     		.space	2
 3303              	.LC24:
 3304 0104 696E6465 		.ascii	"index\000"
 3304      7800
 3305 010a 0000     		.space	2
 3306              	.LC25:
 3307 010c 66697273 		.ascii	"first\000"
 3307      7400
 3308 0112 0000     		.space	2
 3309              	.LC26:
 3310 0114 6C617374 		.ascii	"last\000"
 3310      00
 3311 0119 000000   		.space	3
 3312              	.LC27:
ARM GAS  C:\Users\164\AppData\Local\Temp\ccuYWdBJ.s 			page 85


 3313 011c 70757368 		.ascii	"push\000"
 3313      00
 3314 0121 000000   		.space	3
 3315              	.LC28:
 3316 0124 706F7000 		.ascii	"pop\000"
 3317              	.LC29:
 3318 0128 73686966 		.ascii	"shift\000"
 3318      7400
 3319 012e 0000     		.space	2
 3320              	.LC30:
 3321 0130 756E7368 		.ascii	"unshift\000"
 3321      69667400 
 3322              	.LC31:
 3323 0138 64757000 		.ascii	"dup\000"
 3324              	.LC32:
 3325 013c 6D696E00 		.ascii	"min\000"
 3326              	.LC33:
 3327 0140 6D617800 		.ascii	"max\000"
 3328              	.LC34:
 3329 0144 6D696E6D 		.ascii	"minmax\000"
 3329      617800
 3330 014b 00       		.space	1
 3331              	.LC35:
 3332 014c 6A6F696E 		.ascii	"join\000"
 3332      00
 3333              		.text
 3334              	.Letext0:
 3335              		.file 4 "c:\\program files (x86)\\cypress\\psoc creator\\4.2\\psoc creator\\import\\gnu\\arm\\5.4.
 3336              		.file 5 "c:\\program files (x86)\\cypress\\psoc creator\\4.2\\psoc creator\\import\\gnu\\arm\\5.4.
 3337              		.file 6 "value.h"
 3338              		.file 7 "vm.h"
 3339              		.file 8 "c_string.h"
 3340              		.file 9 "static.h"
 3341              		.file 10 "Generated_Source\\PSoC5/core_cm3.h"
 3342              		.file 11 "class.h"
 3343              		.file 12 "alloc.h"
 3344              		.file 13 "hal/hal.h"
 3345              		.file 14 "c:\\program files (x86)\\cypress\\psoc creator\\4.2\\psoc creator\\import\\gnu\\arm\\5.4
 3346              		.section	.debug_info,"",%progbits
 3347              	.Ldebug_info0:
 3348 0000 21280000 		.4byte	0x2821
 3349 0004 0400     		.2byte	0x4
 3350 0006 00000000 		.4byte	.Ldebug_abbrev0
 3351 000a 04       		.byte	0x4
 3352 000b 01       		.uleb128 0x1
 3353 000c A1060000 		.4byte	.LASF187
 3354 0010 0C       		.byte	0xc
 3355 0011 4F040000 		.4byte	.LASF188
 3356 0015 F8030000 		.4byte	.LASF189
 3357 0019 18000000 		.4byte	.Ldebug_ranges0+0x18
 3358 001d 00000000 		.4byte	0
 3359 0021 00000000 		.4byte	.Ldebug_line0
 3360 0025 02       		.uleb128 0x2
 3361 0026 04       		.byte	0x4
 3362 0027 05       		.byte	0x5
 3363 0028 696E7400 		.ascii	"int\000"
 3364 002c 03       		.uleb128 0x3
ARM GAS  C:\Users\164\AppData\Local\Temp\ccuYWdBJ.s 			page 86


 3365 002d 04       		.byte	0x4
 3366 002e 07       		.byte	0x7
 3367 002f B5070000 		.4byte	.LASF0
 3368 0033 03       		.uleb128 0x3
 3369 0034 08       		.byte	0x8
 3370 0035 05       		.byte	0x5
 3371 0036 7A020000 		.4byte	.LASF1
 3372 003a 03       		.uleb128 0x3
 3373 003b 08       		.byte	0x8
 3374 003c 04       		.byte	0x4
 3375 003d 8A070000 		.4byte	.LASF2
 3376 0041 04       		.uleb128 0x4
 3377 0042 39010000 		.4byte	.LASF4
 3378 0046 04       		.byte	0x4
 3379 0047 1B       		.byte	0x1b
 3380 0048 4C000000 		.4byte	0x4c
 3381 004c 03       		.uleb128 0x3
 3382 004d 01       		.byte	0x1
 3383 004e 06       		.byte	0x6
 3384 004f 9A010000 		.4byte	.LASF3
 3385 0053 04       		.uleb128 0x4
 3386 0054 67000000 		.4byte	.LASF5
 3387 0058 04       		.byte	0x4
 3388 0059 1D       		.byte	0x1d
 3389 005a 5E000000 		.4byte	0x5e
 3390 005e 03       		.uleb128 0x3
 3391 005f 01       		.byte	0x1
 3392 0060 08       		.byte	0x8
 3393 0061 F7050000 		.4byte	.LASF6
 3394 0065 04       		.uleb128 0x4
 3395 0066 39030000 		.4byte	.LASF7
 3396 006a 04       		.byte	0x4
 3397 006b 29       		.byte	0x29
 3398 006c 70000000 		.4byte	0x70
 3399 0070 03       		.uleb128 0x3
 3400 0071 02       		.byte	0x2
 3401 0072 05       		.byte	0x5
 3402 0073 2C060000 		.4byte	.LASF8
 3403 0077 04       		.uleb128 0x4
 3404 0078 02030000 		.4byte	.LASF9
 3405 007c 04       		.byte	0x4
 3406 007d 2B       		.byte	0x2b
 3407 007e 82000000 		.4byte	0x82
 3408 0082 03       		.uleb128 0x3
 3409 0083 02       		.byte	0x2
 3410 0084 07       		.byte	0x7
 3411 0085 76080000 		.4byte	.LASF10
 3412 0089 04       		.uleb128 0x4
 3413 008a FB070000 		.4byte	.LASF11
 3414 008e 04       		.byte	0x4
 3415 008f 3F       		.byte	0x3f
 3416 0090 94000000 		.4byte	0x94
 3417 0094 03       		.uleb128 0x3
 3418 0095 04       		.byte	0x4
 3419 0096 05       		.byte	0x5
 3420 0097 62090000 		.4byte	.LASF12
 3421 009b 03       		.uleb128 0x3
ARM GAS  C:\Users\164\AppData\Local\Temp\ccuYWdBJ.s 			page 87


 3422 009c 04       		.byte	0x4
 3423 009d 07       		.byte	0x7
 3424 009e C7030000 		.4byte	.LASF13
 3425 00a2 03       		.uleb128 0x3
 3426 00a3 08       		.byte	0x8
 3427 00a4 07       		.byte	0x7
 3428 00a5 E8000000 		.4byte	.LASF14
 3429 00a9 03       		.uleb128 0x3
 3430 00aa 04       		.byte	0x4
 3431 00ab 07       		.byte	0x7
 3432 00ac BF040000 		.4byte	.LASF15
 3433 00b0 03       		.uleb128 0x3
 3434 00b1 01       		.byte	0x1
 3435 00b2 08       		.byte	0x8
 3436 00b3 9C070000 		.4byte	.LASF16
 3437 00b7 05       		.uleb128 0x5
 3438 00b8 04       		.byte	0x4
 3439 00b9 BD000000 		.4byte	0xbd
 3440 00bd 06       		.uleb128 0x6
 3441 00be B0000000 		.4byte	0xb0
 3442 00c2 04       		.uleb128 0x4
 3443 00c3 90080000 		.4byte	.LASF17
 3444 00c7 05       		.byte	0x5
 3445 00c8 14       		.byte	0x14
 3446 00c9 41000000 		.4byte	0x41
 3447 00cd 04       		.uleb128 0x4
 3448 00ce FC080000 		.4byte	.LASF18
 3449 00d2 05       		.byte	0x5
 3450 00d3 18       		.byte	0x18
 3451 00d4 53000000 		.4byte	0x53
 3452 00d8 04       		.uleb128 0x4
 3453 00d9 86090000 		.4byte	.LASF19
 3454 00dd 05       		.byte	0x5
 3455 00de 20       		.byte	0x20
 3456 00df 65000000 		.4byte	0x65
 3457 00e3 04       		.uleb128 0x4
 3458 00e4 A9030000 		.4byte	.LASF20
 3459 00e8 05       		.byte	0x5
 3460 00e9 24       		.byte	0x24
 3461 00ea 77000000 		.4byte	0x77
 3462 00ee 04       		.uleb128 0x4
 3463 00ef EF050000 		.4byte	.LASF21
 3464 00f3 05       		.byte	0x5
 3465 00f4 2C       		.byte	0x2c
 3466 00f5 89000000 		.4byte	0x89
 3467 00f9 04       		.uleb128 0x4
 3468 00fa 78030000 		.4byte	.LASF22
 3469 00fe 06       		.byte	0x6
 3470 00ff 1A       		.byte	0x1a
 3471 0100 EE000000 		.4byte	0xee
 3472 0104 04       		.uleb128 0x4
 3473 0105 5A050000 		.4byte	.LASF23
 3474 0109 06       		.byte	0x6
 3475 010a 1B       		.byte	0x1b
 3476 010b 0F010000 		.4byte	0x10f
 3477 010f 03       		.uleb128 0x3
 3478 0110 08       		.byte	0x8
ARM GAS  C:\Users\164\AppData\Local\Temp\ccuYWdBJ.s 			page 88


 3479 0111 04       		.byte	0x4
 3480 0112 B9020000 		.4byte	.LASF24
 3481 0116 04       		.uleb128 0x4
 3482 0117 4B090000 		.4byte	.LASF25
 3483 011b 06       		.byte	0x6
 3484 011c 1C       		.byte	0x1c
 3485 011d D8000000 		.4byte	0xd8
 3486 0121 04       		.uleb128 0x4
 3487 0122 C0050000 		.4byte	.LASF26
 3488 0126 06       		.byte	0x6
 3489 0127 2C       		.byte	0x2c
 3490 0128 2C010000 		.4byte	0x12c
 3491 012c 05       		.uleb128 0x5
 3492 012d 04       		.byte	0x4
 3493 012e 32010000 		.4byte	0x132
 3494 0132 07       		.uleb128 0x7
 3495 0133 47010000 		.4byte	0x147
 3496 0137 08       		.uleb128 0x8
 3497 0138 47010000 		.4byte	0x147
 3498 013c 08       		.uleb128 0x8
 3499 013d EF010000 		.4byte	0x1ef
 3500 0141 08       		.uleb128 0x8
 3501 0142 25000000 		.4byte	0x25
 3502 0146 00       		.byte	0
 3503 0147 05       		.uleb128 0x5
 3504 0148 04       		.byte	0x4
 3505 0149 4D010000 		.4byte	0x14d
 3506 014d 09       		.uleb128 0x9
 3507 014e 564D00   		.ascii	"VM\000"
 3508 0151 7006     		.2byte	0x670
 3509 0153 07       		.byte	0x7
 3510 0154 43       		.byte	0x43
 3511 0155 EF010000 		.4byte	0x1ef
 3512 0159 0A       		.uleb128 0xa
 3513 015a 64080000 		.4byte	.LASF27
 3514 015e 07       		.byte	0x7
 3515 015f 44       		.byte	0x44
 3516 0160 51060000 		.4byte	0x651
 3517 0164 00       		.byte	0
 3518 0165 0A       		.uleb128 0xa
 3519 0166 96070000 		.4byte	.LASF28
 3520 016a 07       		.byte	0x7
 3521 016b 46       		.byte	0x46
 3522 016c CD000000 		.4byte	0xcd
 3523 0170 04       		.byte	0x4
 3524 0171 0B       		.uleb128 0xb
 3525 0172 6D726200 		.ascii	"mrb\000"
 3526 0176 07       		.byte	0x7
 3527 0177 47       		.byte	0x47
 3528 0178 6E060000 		.4byte	0x66e
 3529 017c 08       		.byte	0x8
 3530 017d 0A       		.uleb128 0xa
 3531 017e 9C000000 		.4byte	.LASF29
 3532 0182 07       		.byte	0x7
 3533 0183 49       		.byte	0x49
 3534 0184 51060000 		.4byte	0x651
 3535 0188 0C       		.byte	0xc
ARM GAS  C:\Users\164\AppData\Local\Temp\ccuYWdBJ.s 			page 89


 3536 0189 0B       		.uleb128 0xb
 3537 018a 706300   		.ascii	"pc\000"
 3538 018d 07       		.byte	0x7
 3539 018e 4A       		.byte	0x4a
 3540 018f E3000000 		.4byte	0xe3
 3541 0193 10       		.byte	0x10
 3542 0194 0A       		.uleb128 0xa
 3543 0195 79070000 		.4byte	.LASF30
 3544 0199 07       		.byte	0x7
 3545 019a 4D       		.byte	0x4d
 3546 019b 79060000 		.4byte	0x679
 3547 019f 18       		.byte	0x18
 3548 01a0 0C       		.uleb128 0xc
 3549 01a1 C0080000 		.4byte	.LASF31
 3550 01a5 07       		.byte	0x7
 3551 01a6 4E       		.byte	0x4e
 3552 01a7 57060000 		.4byte	0x657
 3553 01ab 5806     		.2byte	0x658
 3554 01ad 0C       		.uleb128 0xc
 3555 01ae 0D090000 		.4byte	.LASF32
 3556 01b2 07       		.byte	0x7
 3557 01b3 4F       		.byte	0x4f
 3558 01b4 89060000 		.4byte	0x689
 3559 01b8 5C06     		.2byte	0x65c
 3560 01ba 0C       		.uleb128 0xc
 3561 01bb E5030000 		.4byte	.LASF33
 3562 01bf 07       		.byte	0x7
 3563 01c0 51       		.byte	0x51
 3564 01c1 5D060000 		.4byte	0x65d
 3565 01c5 6006     		.2byte	0x660
 3566 01c7 0C       		.uleb128 0xc
 3567 01c8 55000000 		.4byte	.LASF34
 3568 01cc 07       		.byte	0x7
 3569 01cd 53       		.byte	0x53
 3570 01ce EE000000 		.4byte	0xee
 3571 01d2 6406     		.2byte	0x664
 3572 01d4 0C       		.uleb128 0xc
 3573 01d5 35080000 		.4byte	.LASF35
 3574 01d9 07       		.byte	0x7
 3575 01da 55       		.byte	0x55
 3576 01db 8F060000 		.4byte	0x68f
 3577 01df 6806     		.2byte	0x668
 3578 01e1 0C       		.uleb128 0xc
 3579 01e2 0D000000 		.4byte	.LASF36
 3580 01e6 07       		.byte	0x7
 3581 01e7 56       		.byte	0x56
 3582 01e8 C2000000 		.4byte	0xc2
 3583 01ec 6906     		.2byte	0x669
 3584 01ee 00       		.byte	0
 3585 01ef 05       		.uleb128 0x5
 3586 01f0 04       		.byte	0x4
 3587 01f1 F5010000 		.4byte	0x1f5
 3588 01f5 0D       		.uleb128 0xd
 3589 01f6 E7050000 		.4byte	.LASF37
 3590 01fa 10       		.byte	0x10
 3591 01fb 06       		.byte	0x6
 3592 01fc 68       		.byte	0x68
ARM GAS  C:\Users\164\AppData\Local\Temp\ccuYWdBJ.s 			page 90


 3593 01fd 16020000 		.4byte	0x216
 3594 0201 0E       		.uleb128 0xe
 3595 0202 747400   		.ascii	"tt\000"
 3596 0205 06       		.byte	0x6
 3597 0206 69       		.byte	0x69
 3598 0207 7D020000 		.4byte	0x27d
 3599 020b 01       		.byte	0x1
 3600 020c 08       		.byte	0x8
 3601 020d 00       		.byte	0
 3602 020e 00       		.byte	0
 3603 020f 0F       		.uleb128 0xf
 3604 0210 EF020000 		.4byte	0x2ef
 3605 0214 08       		.byte	0x8
 3606 0215 00       		.byte	0
 3607 0216 10       		.uleb128 0x10
 3608 0217 01       		.byte	0x1
 3609 0218 4C000000 		.4byte	0x4c
 3610 021c 06       		.byte	0x6
 3611 021d 33       		.byte	0x33
 3612 021e 7D020000 		.4byte	0x27d
 3613 0222 11       		.uleb128 0x11
 3614 0223 9D040000 		.4byte	.LASF38
 3615 0227 7F       		.sleb128 -1
 3616 0228 12       		.uleb128 0x12
 3617 0229 4F010000 		.4byte	.LASF39
 3618 022d 00       		.byte	0
 3619 022e 12       		.uleb128 0x12
 3620 022f 1F000000 		.4byte	.LASF40
 3621 0233 01       		.byte	0x1
 3622 0234 12       		.uleb128 0x12
 3623 0235 B2050000 		.4byte	.LASF41
 3624 0239 02       		.byte	0x2
 3625 023a 12       		.uleb128 0x12
 3626 023b 79090000 		.4byte	.LASF42
 3627 023f 03       		.byte	0x3
 3628 0240 12       		.uleb128 0x12
 3629 0241 C0020000 		.4byte	.LASF43
 3630 0245 04       		.byte	0x4
 3631 0246 12       		.uleb128 0x12
 3632 0247 54090000 		.4byte	.LASF44
 3633 024b 05       		.byte	0x5
 3634 024c 12       		.uleb128 0x12
 3635 024d 95090000 		.4byte	.LASF45
 3636 0251 06       		.byte	0x6
 3637 0252 12       		.uleb128 0x12
 3638 0253 14050000 		.4byte	.LASF46
 3639 0257 07       		.byte	0x7
 3640 0258 12       		.uleb128 0x12
 3641 0259 10060000 		.4byte	.LASF47
 3642 025d 14       		.byte	0x14
 3643 025e 12       		.uleb128 0x12
 3644 025f A5050000 		.4byte	.LASF48
 3645 0263 15       		.byte	0x15
 3646 0264 12       		.uleb128 0x12
 3647 0265 19020000 		.4byte	.LASF49
 3648 0269 16       		.byte	0x16
 3649 026a 12       		.uleb128 0x12
ARM GAS  C:\Users\164\AppData\Local\Temp\ccuYWdBJ.s 			page 91


 3650 026b E1080000 		.4byte	.LASF50
 3651 026f 17       		.byte	0x17
 3652 0270 12       		.uleb128 0x12
 3653 0271 6C020000 		.4byte	.LASF51
 3654 0275 18       		.byte	0x18
 3655 0276 12       		.uleb128 0x12
 3656 0277 13010000 		.4byte	.LASF52
 3657 027b 19       		.byte	0x19
 3658 027c 00       		.byte	0
 3659 027d 04       		.uleb128 0x4
 3660 027e 91000000 		.4byte	.LASF53
 3661 0282 06       		.byte	0x6
 3662 0283 49       		.byte	0x49
 3663 0284 16020000 		.4byte	0x216
 3664 0288 10       		.uleb128 0x10
 3665 0289 01       		.byte	0x1
 3666 028a 5E000000 		.4byte	0x5e
 3667 028e 06       		.byte	0x6
 3668 028f 50       		.byte	0x50
 3669 0290 EF020000 		.4byte	0x2ef
 3670 0294 12       		.uleb128 0x12
 3671 0295 84050000 		.4byte	.LASF54
 3672 0299 01       		.byte	0x1
 3673 029a 12       		.uleb128 0x12
 3674 029b 61060000 		.4byte	.LASF55
 3675 029f 02       		.byte	0x2
 3676 02a0 12       		.uleb128 0x12
 3677 02a1 00000000 		.4byte	.LASF56
 3678 02a5 03       		.byte	0x3
 3679 02a6 12       		.uleb128 0x12
 3680 02a7 E5010000 		.4byte	.LASF57
 3681 02ab 04       		.byte	0x4
 3682 02ac 12       		.uleb128 0x12
 3683 02ad AB020000 		.4byte	.LASF58
 3684 02b1 05       		.byte	0x5
 3685 02b2 12       		.uleb128 0x12
 3686 02b3 88020000 		.4byte	.LASF59
 3687 02b7 06       		.byte	0x6
 3688 02b8 12       		.uleb128 0x12
 3689 02b9 54030000 		.4byte	.LASF60
 3690 02bd 07       		.byte	0x7
 3691 02be 12       		.uleb128 0x12
 3692 02bf 43030000 		.4byte	.LASF61
 3693 02c3 08       		.byte	0x8
 3694 02c4 12       		.uleb128 0x12
 3695 02c5 A6070000 		.4byte	.LASF62
 3696 02c9 09       		.byte	0x9
 3697 02ca 12       		.uleb128 0x12
 3698 02cb D2080000 		.4byte	.LASF63
 3699 02cf 0A       		.byte	0xa
 3700 02d0 12       		.uleb128 0x12
 3701 02d1 B6010000 		.4byte	.LASF64
 3702 02d5 0B       		.byte	0xb
 3703 02d6 12       		.uleb128 0x12
 3704 02d7 D1070000 		.4byte	.LASF65
 3705 02db 0C       		.byte	0xc
 3706 02dc 12       		.uleb128 0x12
ARM GAS  C:\Users\164\AppData\Local\Temp\ccuYWdBJ.s 			page 92


 3707 02dd 28040000 		.4byte	.LASF66
 3708 02e1 0D       		.byte	0xd
 3709 02e2 12       		.uleb128 0x12
 3710 02e3 1B090000 		.4byte	.LASF67
 3711 02e7 0E       		.byte	0xe
 3712 02e8 12       		.uleb128 0x12
 3713 02e9 41050000 		.4byte	.LASF68
 3714 02ed 0F       		.byte	0xf
 3715 02ee 00       		.byte	0
 3716 02ef 13       		.uleb128 0x13
 3717 02f0 08       		.byte	0x8
 3718 02f1 06       		.byte	0x6
 3719 02f2 6A       		.byte	0x6a
 3720 02f3 6D030000 		.4byte	0x36d
 3721 02f7 14       		.uleb128 0x14
 3722 02f8 6900     		.ascii	"i\000"
 3723 02fa 06       		.byte	0x6
 3724 02fb 6B       		.byte	0x6b
 3725 02fc F9000000 		.4byte	0xf9
 3726 0300 14       		.uleb128 0x14
 3727 0301 6400     		.ascii	"d\000"
 3728 0303 06       		.byte	0x6
 3729 0304 6D       		.byte	0x6d
 3730 0305 04010000 		.4byte	0x104
 3731 0309 14       		.uleb128 0x14
 3732 030a 636C7300 		.ascii	"cls\000"
 3733 030e 06       		.byte	0x6
 3734 030f 6F       		.byte	0x6f
 3735 0310 9E030000 		.4byte	0x39e
 3736 0314 15       		.uleb128 0x15
 3737 0315 44090000 		.4byte	.LASF69
 3738 0319 06       		.byte	0x6
 3739 031a 70       		.byte	0x70
 3740 031b EF010000 		.4byte	0x1ef
 3741 031f 15       		.uleb128 0x15
 3742 0320 7F010000 		.4byte	.LASF70
 3743 0324 06       		.byte	0x6
 3744 0325 71       		.byte	0x71
 3745 0326 EF030000 		.4byte	0x3ef
 3746 032a 15       		.uleb128 0x15
 3747 032b B2030000 		.4byte	.LASF71
 3748 032f 06       		.byte	0x6
 3749 0330 72       		.byte	0x72
 3750 0331 49040000 		.4byte	0x449
 3751 0335 15       		.uleb128 0x15
 3752 0336 E0020000 		.4byte	.LASF72
 3753 033a 06       		.byte	0x6
 3754 033b 73       		.byte	0x73
 3755 033c 9A040000 		.4byte	0x49a
 3756 0340 15       		.uleb128 0x15
 3757 0341 60000000 		.4byte	.LASF73
 3758 0345 06       		.byte	0x6
 3759 0346 74       		.byte	0x74
 3760 0347 DF040000 		.4byte	0x4df
 3761 034b 14       		.uleb128 0x14
 3762 034c 73747200 		.ascii	"str\000"
 3763 0350 06       		.byte	0x6
ARM GAS  C:\Users\164\AppData\Local\Temp\ccuYWdBJ.s 			page 93


 3764 0351 75       		.byte	0x75
 3765 0352 B7000000 		.4byte	0xb7
 3766 0356 15       		.uleb128 0x15
 3767 0357 78050000 		.4byte	.LASF74
 3768 035b 06       		.byte	0x6
 3769 035c 76       		.byte	0x76
 3770 035d EA040000 		.4byte	0x4ea
 3771 0361 15       		.uleb128 0x15
 3772 0362 F6070000 		.4byte	.LASF75
 3773 0366 06       		.byte	0x6
 3774 0367 77       		.byte	0x77
 3775 0368 F5040000 		.4byte	0x4f5
 3776 036c 00       		.byte	0
 3777 036d 0D       		.uleb128 0xd
 3778 036e A4090000 		.4byte	.LASF76
 3779 0372 0C       		.byte	0xc
 3780 0373 06       		.byte	0x6
 3781 0374 84       		.byte	0x84
 3782 0375 9E030000 		.4byte	0x39e
 3783 0379 0A       		.uleb128 0xa
 3784 037a F0080000 		.4byte	.LASF77
 3785 037e 06       		.byte	0x6
 3786 037f 85       		.byte	0x85
 3787 0380 16010000 		.4byte	0x116
 3788 0384 00       		.byte	0
 3789 0385 0A       		.uleb128 0xa
 3790 0386 49040000 		.4byte	.LASF78
 3791 038a 06       		.byte	0x6
 3792 038b 89       		.byte	0x89
 3793 038c 9E030000 		.4byte	0x39e
 3794 0390 04       		.byte	0x4
 3795 0391 0A       		.uleb128 0xa
 3796 0392 B9040000 		.4byte	.LASF79
 3797 0396 06       		.byte	0x6
 3798 0397 8A       		.byte	0x8a
 3799 0398 49040000 		.4byte	0x449
 3800 039c 08       		.byte	0x8
 3801 039d 00       		.byte	0
 3802 039e 05       		.uleb128 0x5
 3803 039f 04       		.byte	0x4
 3804 03a0 6D030000 		.4byte	0x36d
 3805 03a4 0D       		.uleb128 0xd
 3806 03a5 36060000 		.4byte	.LASF80
 3807 03a9 0C       		.byte	0xc
 3808 03aa 06       		.byte	0x6
 3809 03ab 93       		.byte	0x93
 3810 03ac EF030000 		.4byte	0x3ef
 3811 03b0 0A       		.uleb128 0xa
 3812 03b1 45080000 		.4byte	.LASF81
 3813 03b5 06       		.byte	0x6
 3814 03b6 94       		.byte	0x94
 3815 03b7 E3000000 		.4byte	0xe3
 3816 03bb 00       		.byte	0
 3817 03bc 0E       		.uleb128 0xe
 3818 03bd 747400   		.ascii	"tt\000"
 3819 03c0 06       		.byte	0x6
 3820 03c1 94       		.byte	0x94
ARM GAS  C:\Users\164\AppData\Local\Temp\ccuYWdBJ.s 			page 94


 3821 03c2 7D020000 		.4byte	0x27d
 3822 03c6 01       		.byte	0x1
 3823 03c7 08       		.byte	0x8
 3824 03c8 00       		.byte	0
 3825 03c9 02       		.byte	0x2
 3826 03ca 0B       		.uleb128 0xb
 3827 03cb 636C7300 		.ascii	"cls\000"
 3828 03cf 06       		.byte	0x6
 3829 03d0 96       		.byte	0x96
 3830 03d1 9E030000 		.4byte	0x39e
 3831 03d5 04       		.byte	0x4
 3832 03d6 0A       		.uleb128 0xa
 3833 03d7 55050000 		.4byte	.LASF82
 3834 03db 06       		.byte	0x6
 3835 03dc 97       		.byte	0x97
 3836 03dd 21050000 		.4byte	0x521
 3837 03e1 08       		.byte	0x8
 3838 03e2 0A       		.uleb128 0xa
 3839 03e3 37040000 		.4byte	.LASF83
 3840 03e7 06       		.byte	0x6
 3841 03e8 98       		.byte	0x98
 3842 03e9 27050000 		.4byte	0x527
 3843 03ed 0C       		.byte	0xc
 3844 03ee 00       		.byte	0
 3845 03ef 05       		.uleb128 0x5
 3846 03f0 04       		.byte	0x4
 3847 03f1 A4030000 		.4byte	0x3a4
 3848 03f5 0D       		.uleb128 0xd
 3849 03f6 F2030000 		.4byte	.LASF84
 3850 03fa 10       		.byte	0x10
 3851 03fb 06       		.byte	0x6
 3852 03fc A1       		.byte	0xa1
 3853 03fd 49040000 		.4byte	0x449
 3854 0401 0A       		.uleb128 0xa
 3855 0402 45080000 		.4byte	.LASF81
 3856 0406 06       		.byte	0x6
 3857 0407 A2       		.byte	0xa2
 3858 0408 E3000000 		.4byte	0xe3
 3859 040c 00       		.byte	0
 3860 040d 0E       		.uleb128 0xe
 3861 040e 747400   		.ascii	"tt\000"
 3862 0411 06       		.byte	0x6
 3863 0412 A2       		.byte	0xa2
 3864 0413 7D020000 		.4byte	0x27d
 3865 0417 01       		.byte	0x1
 3866 0418 08       		.byte	0x8
 3867 0419 00       		.byte	0
 3868 041a 02       		.byte	0x2
 3869 041b 16       		.uleb128 0x16
 3870 041c 0D050000 		.4byte	.LASF85
 3871 0420 06       		.byte	0x6
 3872 0421 A4       		.byte	0xa4
 3873 0422 2C000000 		.4byte	0x2c
 3874 0426 04       		.byte	0x4
 3875 0427 01       		.byte	0x1
 3876 0428 07       		.byte	0x7
 3877 0429 00       		.byte	0
ARM GAS  C:\Users\164\AppData\Local\Temp\ccuYWdBJ.s 			page 95


 3878 042a 0A       		.uleb128 0xa
 3879 042b F0080000 		.4byte	.LASF77
 3880 042f 06       		.byte	0x6
 3881 0430 A5       		.byte	0xa5
 3882 0431 16010000 		.4byte	0x116
 3883 0435 04       		.byte	0x4
 3884 0436 0A       		.uleb128 0xa
 3885 0437 5D010000 		.4byte	.LASF86
 3886 043b 06       		.byte	0x6
 3887 043c A9       		.byte	0xa9
 3888 043d 49040000 		.4byte	0x449
 3889 0441 08       		.byte	0x8
 3890 0442 0F       		.uleb128 0xf
 3891 0443 36050000 		.4byte	0x536
 3892 0447 0C       		.byte	0xc
 3893 0448 00       		.byte	0
 3894 0449 05       		.uleb128 0x5
 3895 044a 04       		.byte	0x4
 3896 044b F5030000 		.4byte	0x3f5
 3897 044f 0D       		.uleb128 0xd
 3898 0450 89080000 		.4byte	.LASF87
 3899 0454 0C       		.byte	0xc
 3900 0455 02       		.byte	0x2
 3901 0456 1B       		.byte	0x1b
 3902 0457 9A040000 		.4byte	0x49a
 3903 045b 0A       		.uleb128 0xa
 3904 045c 45080000 		.4byte	.LASF81
 3905 0460 02       		.byte	0x2
 3906 0461 1C       		.byte	0x1c
 3907 0462 E3000000 		.4byte	0xe3
 3908 0466 00       		.byte	0
 3909 0467 0E       		.uleb128 0xe
 3910 0468 747400   		.ascii	"tt\000"
 3911 046b 02       		.byte	0x2
 3912 046c 1C       		.byte	0x1c
 3913 046d 7D020000 		.4byte	0x27d
 3914 0471 01       		.byte	0x1
 3915 0472 08       		.byte	0x8
 3916 0473 00       		.byte	0
 3917 0474 02       		.byte	0x2
 3918 0475 0A       		.uleb128 0xa
 3919 0476 76040000 		.4byte	.LASF88
 3920 047a 02       		.byte	0x2
 3921 047b 1E       		.byte	0x1e
 3922 047c E3000000 		.4byte	0xe3
 3923 0480 04       		.byte	0x4
 3924 0481 0A       		.uleb128 0xa
 3925 0482 04090000 		.4byte	.LASF89
 3926 0486 02       		.byte	0x2
 3927 0487 1F       		.byte	0x1f
 3928 0488 E3000000 		.4byte	0xe3
 3929 048c 06       		.byte	0x6
 3930 048d 0A       		.uleb128 0xa
 3931 048e 37040000 		.4byte	.LASF83
 3932 0492 02       		.byte	0x2
 3933 0493 20       		.byte	0x20
 3934 0494 57060000 		.4byte	0x657
ARM GAS  C:\Users\164\AppData\Local\Temp\ccuYWdBJ.s 			page 96


 3935 0498 08       		.byte	0x8
 3936 0499 00       		.byte	0
 3937 049a 05       		.uleb128 0x5
 3938 049b 04       		.byte	0x4
 3939 049c 4F040000 		.4byte	0x44f
 3940 04a0 0D       		.uleb128 0xd
 3941 04a1 4D050000 		.4byte	.LASF90
 3942 04a5 0C       		.byte	0xc
 3943 04a6 08       		.byte	0x8
 3944 04a7 1D       		.byte	0x1d
 3945 04a8 DF040000 		.4byte	0x4df
 3946 04ac 0A       		.uleb128 0xa
 3947 04ad 45080000 		.4byte	.LASF81
 3948 04b1 08       		.byte	0x8
 3949 04b2 1E       		.byte	0x1e
 3950 04b3 E3000000 		.4byte	0xe3
 3951 04b7 00       		.byte	0
 3952 04b8 0E       		.uleb128 0xe
 3953 04b9 747400   		.ascii	"tt\000"
 3954 04bc 08       		.byte	0x8
 3955 04bd 1E       		.byte	0x1e
 3956 04be 7D020000 		.4byte	0x27d
 3957 04c2 01       		.byte	0x1
 3958 04c3 08       		.byte	0x8
 3959 04c4 00       		.byte	0
 3960 04c5 02       		.byte	0x2
 3961 04c6 0A       		.uleb128 0xa
 3962 04c7 43070000 		.4byte	.LASF91
 3963 04cb 08       		.byte	0x8
 3964 04cc 20       		.byte	0x20
 3965 04cd E3000000 		.4byte	0xe3
 3966 04d1 04       		.byte	0x4
 3967 04d2 0A       		.uleb128 0xa
 3968 04d3 37040000 		.4byte	.LASF83
 3969 04d7 08       		.byte	0x8
 3970 04d8 21       		.byte	0x21
 3971 04d9 D4050000 		.4byte	0x5d4
 3972 04dd 08       		.byte	0x8
 3973 04de 00       		.byte	0
 3974 04df 05       		.uleb128 0x5
 3975 04e0 04       		.byte	0x4
 3976 04e1 A0040000 		.4byte	0x4a0
 3977 04e5 17       		.uleb128 0x17
 3978 04e6 40060000 		.4byte	.LASF92
 3979 04ea 05       		.uleb128 0x5
 3980 04eb 04       		.byte	0x4
 3981 04ec E5040000 		.4byte	0x4e5
 3982 04f0 17       		.uleb128 0x17
 3983 04f1 AE080000 		.4byte	.LASF93
 3984 04f5 05       		.uleb128 0x5
 3985 04f6 04       		.byte	0x4
 3986 04f7 F0040000 		.4byte	0x4f0
 3987 04fb 04       		.uleb128 0x4
 3988 04fc B4080000 		.4byte	.LASF94
 3989 0500 06       		.byte	0x6
 3990 0501 7C       		.byte	0x7c
 3991 0502 F5010000 		.4byte	0x1f5
ARM GAS  C:\Users\164\AppData\Local\Temp\ccuYWdBJ.s 			page 97


 3992 0506 04       		.uleb128 0x4
 3993 0507 DA010000 		.4byte	.LASF95
 3994 050b 06       		.byte	0x6
 3995 050c 7D       		.byte	0x7d
 3996 050d F5010000 		.4byte	0x1f5
 3997 0511 04       		.uleb128 0x4
 3998 0512 80040000 		.4byte	.LASF96
 3999 0516 06       		.byte	0x6
 4000 0517 8B       		.byte	0x8b
 4001 0518 6D030000 		.4byte	0x36d
 4002 051c 17       		.uleb128 0x17
 4003 051d B7030000 		.4byte	.LASF97
 4004 0521 05       		.uleb128 0x5
 4005 0522 04       		.byte	0x4
 4006 0523 1C050000 		.4byte	0x51c
 4007 0527 18       		.uleb128 0x18
 4008 0528 CD000000 		.4byte	0xcd
 4009 052c 36050000 		.4byte	0x536
 4010 0530 19       		.uleb128 0x19
 4011 0531 A9000000 		.4byte	0xa9
 4012 0535 00       		.byte	0
 4013 0536 13       		.uleb128 0x13
 4014 0537 04       		.byte	0x4
 4015 0538 06       		.byte	0x6
 4016 0539 AA       		.byte	0xaa
 4017 053a 55050000 		.4byte	0x555
 4018 053e 15       		.uleb128 0x15
 4019 053f 64080000 		.4byte	.LASF27
 4020 0543 06       		.byte	0x6
 4021 0544 AB       		.byte	0xab
 4022 0545 CE050000 		.4byte	0x5ce
 4023 0549 15       		.uleb128 0x15
 4024 054a A1070000 		.4byte	.LASF98
 4025 054e 06       		.byte	0x6
 4026 054f AC       		.byte	0xac
 4027 0550 21010000 		.4byte	0x121
 4028 0554 00       		.byte	0
 4029 0555 0D       		.uleb128 0xd
 4030 0556 97080000 		.4byte	.LASF99
 4031 055a 1C       		.byte	0x1c
 4032 055b 07       		.byte	0x7
 4033 055c 20       		.byte	0x20
 4034 055d CE050000 		.4byte	0x5ce
 4035 0561 0A       		.uleb128 0xa
 4036 0562 BF000000 		.4byte	.LASF100
 4037 0566 07       		.byte	0x7
 4038 0567 21       		.byte	0x21
 4039 0568 E3000000 		.4byte	0xe3
 4040 056c 00       		.byte	0
 4041 056d 0A       		.uleb128 0xa
 4042 056e 2F070000 		.4byte	.LASF101
 4043 0572 07       		.byte	0x7
 4044 0573 22       		.byte	0x22
 4045 0574 E3000000 		.4byte	0xe3
 4046 0578 02       		.byte	0x2
 4047 0579 0A       		.uleb128 0xa
 4048 057a 4D020000 		.4byte	.LASF102
ARM GAS  C:\Users\164\AppData\Local\Temp\ccuYWdBJ.s 			page 98


 4049 057e 07       		.byte	0x7
 4050 057f 23       		.byte	0x23
 4051 0580 E3000000 		.4byte	0xe3
 4052 0584 04       		.byte	0x4
 4053 0585 0A       		.uleb128 0xa
 4054 0586 F7080000 		.4byte	.LASF103
 4055 058a 07       		.byte	0x7
 4056 058b 24       		.byte	0x24
 4057 058c E3000000 		.4byte	0xe3
 4058 0590 06       		.byte	0x6
 4059 0591 0A       		.uleb128 0xa
 4060 0592 62010000 		.4byte	.LASF104
 4061 0596 07       		.byte	0x7
 4062 0597 25       		.byte	0x25
 4063 0598 E3000000 		.4byte	0xe3
 4064 059c 08       		.byte	0x8
 4065 059d 0A       		.uleb128 0xa
 4066 059e CD080000 		.4byte	.LASF105
 4067 05a2 07       		.byte	0x7
 4068 05a3 27       		.byte	0x27
 4069 05a4 D4050000 		.4byte	0x5d4
 4070 05a8 0C       		.byte	0xc
 4071 05a9 0A       		.uleb128 0xa
 4072 05aa AB090000 		.4byte	.LASF106
 4073 05ae 07       		.byte	0x7
 4074 05af 28       		.byte	0x28
 4075 05b0 DA050000 		.4byte	0x5da
 4076 05b4 10       		.byte	0x10
 4077 05b5 0A       		.uleb128 0xa
 4078 05b6 05060000 		.4byte	.LASF107
 4079 05ba 07       		.byte	0x7
 4080 05bb 29       		.byte	0x29
 4081 05bc D4050000 		.4byte	0x5d4
 4082 05c0 14       		.byte	0x14
 4083 05c1 0A       		.uleb128 0xa
 4084 05c2 3A090000 		.4byte	.LASF108
 4085 05c6 07       		.byte	0x7
 4086 05c7 2A       		.byte	0x2a
 4087 05c8 E6050000 		.4byte	0x5e6
 4088 05cc 18       		.byte	0x18
 4089 05cd 00       		.byte	0
 4090 05ce 05       		.uleb128 0x5
 4091 05cf 04       		.byte	0x4
 4092 05d0 55050000 		.4byte	0x555
 4093 05d4 05       		.uleb128 0x5
 4094 05d5 04       		.byte	0x4
 4095 05d6 CD000000 		.4byte	0xcd
 4096 05da 05       		.uleb128 0x5
 4097 05db 04       		.byte	0x4
 4098 05dc E0050000 		.4byte	0x5e0
 4099 05e0 05       		.uleb128 0x5
 4100 05e1 04       		.byte	0x4
 4101 05e2 FB040000 		.4byte	0x4fb
 4102 05e6 05       		.uleb128 0x5
 4103 05e7 04       		.byte	0x4
 4104 05e8 CE050000 		.4byte	0x5ce
 4105 05ec 04       		.uleb128 0x4
ARM GAS  C:\Users\164\AppData\Local\Temp\ccuYWdBJ.s 			page 99


 4106 05ed 48070000 		.4byte	.LASF109
 4107 05f1 07       		.byte	0x7
 4108 05f2 2C       		.byte	0x2c
 4109 05f3 55050000 		.4byte	0x555
 4110 05f7 0D       		.uleb128 0xd
 4111 05f8 DF000000 		.4byte	.LASF110
 4112 05fc 18       		.byte	0x18
 4113 05fd 07       		.byte	0x7
 4114 05fe 34       		.byte	0x34
 4115 05ff 4B060000 		.4byte	0x64b
 4116 0603 0A       		.uleb128 0xa
 4117 0604 71000000 		.4byte	.LASF111
 4118 0608 07       		.byte	0x7
 4119 0609 35       		.byte	0x35
 4120 060a 4B060000 		.4byte	0x64b
 4121 060e 00       		.byte	0
 4122 060f 0A       		.uleb128 0xa
 4123 0610 9C000000 		.4byte	.LASF29
 4124 0614 07       		.byte	0x7
 4125 0615 36       		.byte	0x36
 4126 0616 51060000 		.4byte	0x651
 4127 061a 04       		.byte	0x4
 4128 061b 0B       		.uleb128 0xb
 4129 061c 706300   		.ascii	"pc\000"
 4130 061f 07       		.byte	0x7
 4131 0620 37       		.byte	0x37
 4132 0621 E3000000 		.4byte	0xe3
 4133 0625 08       		.byte	0x8
 4134 0626 0A       		.uleb128 0xa
 4135 0627 C0080000 		.4byte	.LASF31
 4136 062b 07       		.byte	0x7
 4137 062c 38       		.byte	0x38
 4138 062d 57060000 		.4byte	0x657
 4139 0631 0C       		.byte	0xc
 4140 0632 0A       		.uleb128 0xa
 4141 0633 E5030000 		.4byte	.LASF33
 4142 0637 07       		.byte	0x7
 4143 0638 39       		.byte	0x39
 4144 0639 5D060000 		.4byte	0x65d
 4145 063d 10       		.byte	0x10
 4146 063e 0A       		.uleb128 0xa
 4147 063f 8E090000 		.4byte	.LASF112
 4148 0643 07       		.byte	0x7
 4149 0644 3A       		.byte	0x3a
 4150 0645 CD000000 		.4byte	0xcd
 4151 0649 14       		.byte	0x14
 4152 064a 00       		.byte	0
 4153 064b 05       		.uleb128 0x5
 4154 064c 04       		.byte	0x4
 4155 064d F7050000 		.4byte	0x5f7
 4156 0651 05       		.uleb128 0x5
 4157 0652 04       		.byte	0x4
 4158 0653 EC050000 		.4byte	0x5ec
 4159 0657 05       		.uleb128 0x5
 4160 0658 04       		.byte	0x4
 4161 0659 06050000 		.4byte	0x506
 4162 065d 05       		.uleb128 0x5
ARM GAS  C:\Users\164\AppData\Local\Temp\ccuYWdBJ.s 			page 100


 4163 065e 04       		.byte	0x4
 4164 065f 11050000 		.4byte	0x511
 4165 0663 04       		.uleb128 0x4
 4166 0664 20010000 		.4byte	.LASF113
 4167 0668 07       		.byte	0x7
 4168 0669 3B       		.byte	0x3b
 4169 066a F7050000 		.4byte	0x5f7
 4170 066e 05       		.uleb128 0x5
 4171 066f 04       		.byte	0x4
 4172 0670 74060000 		.4byte	0x674
 4173 0674 06       		.uleb128 0x6
 4174 0675 CD000000 		.4byte	0xcd
 4175 0679 18       		.uleb128 0x18
 4176 067a 06050000 		.4byte	0x506
 4177 067e 89060000 		.4byte	0x689
 4178 0682 1A       		.uleb128 0x1a
 4179 0683 A9000000 		.4byte	0xa9
 4180 0687 63       		.byte	0x63
 4181 0688 00       		.byte	0
 4182 0689 05       		.uleb128 0x5
 4183 068a 04       		.byte	0x4
 4184 068b 63060000 		.4byte	0x663
 4185 068f 1B       		.uleb128 0x1b
 4186 0690 C2000000 		.4byte	0xc2
 4187 0694 04       		.uleb128 0x4
 4188 0695 2E010000 		.4byte	.LASF114
 4189 0699 02       		.byte	0x2
 4190 069a 22       		.byte	0x22
 4191 069b 4F040000 		.4byte	0x44f
 4192 069f 03       		.uleb128 0x3
 4193 06a0 04       		.byte	0x4
 4194 06a1 04       		.byte	0x4
 4195 06a2 7E050000 		.4byte	.LASF115
 4196 06a6 1C       		.uleb128 0x1c
 4197 06a7 66040000 		.4byte	.LASF190
 4198 06ab 02       		.byte	0x2
 4199 06ac 3A       		.byte	0x3a
 4200 06ad 25000000 		.4byte	0x25
 4201 06b1 03       		.byte	0x3
 4202 06b2 C2060000 		.4byte	0x6c2
 4203 06b6 1D       		.uleb128 0x1d
 4204 06b7 61727900 		.ascii	"ary\000"
 4205 06bb 02       		.byte	0x2
 4206 06bc 3A       		.byte	0x3a
 4207 06bd C2060000 		.4byte	0x6c2
 4208 06c1 00       		.byte	0
 4209 06c2 05       		.uleb128 0x5
 4210 06c3 04       		.byte	0x4
 4211 06c4 C8060000 		.4byte	0x6c8
 4212 06c8 06       		.uleb128 0x6
 4213 06c9 06050000 		.4byte	0x506
 4214 06cd 1E       		.uleb128 0x1e
 4215 06ce 3C040000 		.4byte	.LASF117
 4216 06d2 01       		.byte	0x1
 4217 06d3 7F02     		.2byte	0x27f
 4218 06d5 00000000 		.4byte	.LFB107
 4219 06d9 16000000 		.4byte	.LFE107-.LFB107
ARM GAS  C:\Users\164\AppData\Local\Temp\ccuYWdBJ.s 			page 101


 4220 06dd 01       		.uleb128 0x1
 4221 06de 9C       		.byte	0x9c
 4222 06df 61070000 		.4byte	0x761
 4223 06e3 1F       		.uleb128 0x1f
 4224 06e4 766D00   		.ascii	"vm\000"
 4225 06e7 01       		.byte	0x1
 4226 06e8 7F02     		.2byte	0x27f
 4227 06ea 47010000 		.4byte	0x147
 4228 06ee 00000000 		.4byte	.LLST0
 4229 06f2 1F       		.uleb128 0x1f
 4230 06f3 7600     		.ascii	"v\000"
 4231 06f5 01       		.byte	0x1
 4232 06f6 7F02     		.2byte	0x27f
 4233 06f8 57060000 		.4byte	0x657
 4234 06fc 21000000 		.4byte	.LLST1
 4235 0700 20       		.uleb128 0x20
 4236 0701 3F090000 		.4byte	.LASF116
 4237 0705 01       		.byte	0x1
 4238 0706 7F02     		.2byte	0x27f
 4239 0708 25000000 		.4byte	0x25
 4240 070c 3F000000 		.4byte	.LLST2
 4241 0710 21       		.uleb128 0x21
 4242 0711 6E00     		.ascii	"n\000"
 4243 0713 01       		.byte	0x1
 4244 0714 8102     		.2byte	0x281
 4245 0716 25000000 		.4byte	0x25
 4246 071a 22       		.uleb128 0x22
 4247 071b A6060000 		.4byte	0x6a6
 4248 071f 04000000 		.4byte	.LBB32
 4249 0723 04000000 		.4byte	.LBE32-.LBB32
 4250 0727 01       		.byte	0x1
 4251 0728 8102     		.2byte	0x281
 4252 072a 38070000 		.4byte	0x738
 4253 072e 23       		.uleb128 0x23
 4254 072f B6060000 		.4byte	0x6b6
 4255 0733 60000000 		.4byte	.LLST3
 4256 0737 00       		.byte	0
 4257 0738 24       		.uleb128 0x24
 4258 0739 08000000 		.4byte	.LBB34
 4259 073d 0E000000 		.4byte	.LBE34-.LBB34
 4260 0741 25       		.uleb128 0x25
 4261 0742 6E6E6E00 		.ascii	"nnn\000"
 4262 0746 01       		.byte	0x1
 4263 0747 8302     		.2byte	0x283
 4264 0749 F9000000 		.4byte	0xf9
 4265 074d 01       		.uleb128 0x1
 4266 074e 55       		.byte	0x55
 4267 074f 26       		.uleb128 0x26
 4268 0750 0E000000 		.4byte	.LVL4
 4269 0754 4A270000 		.4byte	0x274a
 4270 0758 27       		.uleb128 0x27
 4271 0759 01       		.uleb128 0x1
 4272 075a 50       		.byte	0x50
 4273 075b 02       		.uleb128 0x2
 4274 075c 74       		.byte	0x74
 4275 075d 00       		.sleb128 0
 4276 075e 00       		.byte	0
ARM GAS  C:\Users\164\AppData\Local\Temp\ccuYWdBJ.s 			page 102


 4277 075f 00       		.byte	0
 4278 0760 00       		.byte	0
 4279 0761 1E       		.uleb128 0x1e
 4280 0762 6B090000 		.4byte	.LASF118
 4281 0766 01       		.byte	0x1
 4282 0767 7002     		.2byte	0x270
 4283 0769 00000000 		.4byte	.LFB106
 4284 076d 22000000 		.4byte	.LFE106-.LFB106
 4285 0771 01       		.uleb128 0x1
 4286 0772 9C       		.byte	0x9c
 4287 0773 F1070000 		.4byte	0x7f1
 4288 0777 1F       		.uleb128 0x1f
 4289 0778 766D00   		.ascii	"vm\000"
 4290 077b 01       		.byte	0x1
 4291 077c 7002     		.2byte	0x270
 4292 077e 47010000 		.4byte	0x147
 4293 0782 73000000 		.4byte	.LLST4
 4294 0786 1F       		.uleb128 0x1f
 4295 0787 7600     		.ascii	"v\000"
 4296 0789 01       		.byte	0x1
 4297 078a 7002     		.2byte	0x270
 4298 078c 57060000 		.4byte	0x657
 4299 0790 AD000000 		.4byte	.LLST5
 4300 0794 20       		.uleb128 0x20
 4301 0795 3F090000 		.4byte	.LASF116
 4302 0799 01       		.byte	0x1
 4303 079a 7002     		.2byte	0x270
 4304 079c 25000000 		.4byte	0x25
 4305 07a0 E1000000 		.4byte	.LLST6
 4306 07a4 21       		.uleb128 0x21
 4307 07a5 6E00     		.ascii	"n\000"
 4308 07a7 01       		.byte	0x1
 4309 07a8 7202     		.2byte	0x272
 4310 07aa 25000000 		.4byte	0x25
 4311 07ae 22       		.uleb128 0x22
 4312 07af A6060000 		.4byte	0x6a6
 4313 07b3 04000000 		.4byte	.LBB35
 4314 07b7 04000000 		.4byte	.LBE35-.LBB35
 4315 07bb 01       		.byte	0x1
 4316 07bc 7202     		.2byte	0x272
 4317 07be CC070000 		.4byte	0x7cc
 4318 07c2 23       		.uleb128 0x23
 4319 07c3 B6060000 		.4byte	0x6b6
 4320 07c7 1B010000 		.4byte	.LLST7
 4321 07cb 00       		.byte	0
 4322 07cc 28       		.uleb128 0x28
 4323 07cd 10000000 		.4byte	.LVL9
 4324 07d1 4A270000 		.4byte	0x274a
 4325 07d5 E0070000 		.4byte	0x7e0
 4326 07d9 27       		.uleb128 0x27
 4327 07da 01       		.uleb128 0x1
 4328 07db 50       		.byte	0x50
 4329 07dc 02       		.uleb128 0x2
 4330 07dd 74       		.byte	0x74
 4331 07de 00       		.sleb128 0
 4332 07df 00       		.byte	0
 4333 07e0 26       		.uleb128 0x26
ARM GAS  C:\Users\164\AppData\Local\Temp\ccuYWdBJ.s 			page 103


 4334 07e1 1C000000 		.4byte	.LVL12
 4335 07e5 4A270000 		.4byte	0x274a
 4336 07e9 27       		.uleb128 0x27
 4337 07ea 01       		.uleb128 0x1
 4338 07eb 50       		.byte	0x50
 4339 07ec 02       		.uleb128 0x2
 4340 07ed 74       		.byte	0x74
 4341 07ee 00       		.sleb128 0
 4342 07ef 00       		.byte	0
 4343 07f0 00       		.byte	0
 4344 07f1 1E       		.uleb128 0x1e
 4345 07f2 33050000 		.4byte	.LASF119
 4346 07f6 01       		.byte	0x1
 4347 07f7 8A02     		.2byte	0x28a
 4348 07f9 00000000 		.4byte	.LFB108
 4349 07fd 4E000000 		.4byte	.LFE108-.LFB108
 4350 0801 01       		.uleb128 0x1
 4351 0802 9C       		.byte	0x9c
 4352 0803 C8080000 		.4byte	0x8c8
 4353 0807 1F       		.uleb128 0x1f
 4354 0808 766D00   		.ascii	"vm\000"
 4355 080b 01       		.byte	0x1
 4356 080c 8A02     		.2byte	0x28a
 4357 080e 47010000 		.4byte	0x147
 4358 0812 2E010000 		.4byte	.LLST8
 4359 0816 1F       		.uleb128 0x1f
 4360 0817 7600     		.ascii	"v\000"
 4361 0819 01       		.byte	0x1
 4362 081a 8A02     		.2byte	0x28a
 4363 081c 57060000 		.4byte	0x657
 4364 0820 4F010000 		.4byte	.LLST9
 4365 0824 20       		.uleb128 0x20
 4366 0825 3F090000 		.4byte	.LASF116
 4367 0829 01       		.byte	0x1
 4368 082a 8A02     		.2byte	0x28a
 4369 082c 25000000 		.4byte	0x25
 4370 0830 6D010000 		.4byte	.LLST10
 4371 0834 29       		.uleb128 0x29
 4372 0835 72030000 		.4byte	.LASF120
 4373 0839 01       		.byte	0x1
 4374 083a 8C02     		.2byte	0x28c
 4375 083c 57060000 		.4byte	0x657
 4376 0840 01       		.uleb128 0x1
 4377 0841 57       		.byte	0x57
 4378 0842 29       		.uleb128 0x29
 4379 0843 37040000 		.4byte	.LASF83
 4380 0847 01       		.byte	0x1
 4381 0848 8D02     		.2byte	0x28d
 4382 084a 57060000 		.4byte	0x657
 4383 084e 01       		.uleb128 0x1
 4384 084f 56       		.byte	0x56
 4385 0850 25       		.uleb128 0x25
 4386 0851 6E00     		.ascii	"n\000"
 4387 0853 01       		.byte	0x1
 4388 0854 8E02     		.2byte	0x28e
 4389 0856 25000000 		.4byte	0x25
 4390 085a 01       		.uleb128 0x1
ARM GAS  C:\Users\164\AppData\Local\Temp\ccuYWdBJ.s 			page 104


 4391 085b 55       		.byte	0x55
 4392 085c 2A       		.uleb128 0x2a
 4393 085d 6900     		.ascii	"i\000"
 4394 085f 01       		.byte	0x1
 4395 0860 8F02     		.2byte	0x28f
 4396 0862 25000000 		.4byte	0x25
 4397 0866 8E010000 		.4byte	.LLST11
 4398 086a 2B       		.uleb128 0x2b
 4399 086b 2A000000 		.4byte	.LBB37
 4400 086f 10000000 		.4byte	.LBE37-.LBB37
 4401 0873 98080000 		.4byte	0x898
 4402 0877 2A       		.uleb128 0x2a
 4403 0878 6E6E6E00 		.ascii	"nnn\000"
 4404 087c 01       		.byte	0x1
 4405 087d 9602     		.2byte	0x296
 4406 087f F9000000 		.4byte	0xf9
 4407 0883 AD010000 		.4byte	.LLST12
 4408 0887 26       		.uleb128 0x26
 4409 0888 30000000 		.4byte	.LVL21
 4410 088c 4A270000 		.4byte	0x274a
 4411 0890 27       		.uleb128 0x27
 4412 0891 01       		.uleb128 0x1
 4413 0892 50       		.byte	0x50
 4414 0893 02       		.uleb128 0x2
 4415 0894 78       		.byte	0x78
 4416 0895 00       		.sleb128 0
 4417 0896 00       		.byte	0
 4418 0897 00       		.byte	0
 4419 0898 28       		.uleb128 0x28
 4420 0899 1E000000 		.4byte	.LVL18
 4421 089d 55270000 		.4byte	0x2755
 4422 08a1 B7080000 		.4byte	0x8b7
 4423 08a5 27       		.uleb128 0x27
 4424 08a6 01       		.uleb128 0x1
 4425 08a7 50       		.byte	0x50
 4426 08a8 07       		.uleb128 0x7
 4427 08a9 74       		.byte	0x74
 4428 08aa 00       		.sleb128 0
 4429 08ab 34       		.byte	0x34
 4430 08ac 24       		.byte	0x24
 4431 08ad 76       		.byte	0x76
 4432 08ae 00       		.sleb128 0
 4433 08af 22       		.byte	0x22
 4434 08b0 27       		.uleb128 0x27
 4435 08b1 01       		.uleb128 0x1
 4436 08b2 51       		.byte	0x51
 4437 08b3 02       		.uleb128 0x2
 4438 08b4 77       		.byte	0x77
 4439 08b5 00       		.sleb128 0
 4440 08b6 00       		.byte	0
 4441 08b7 26       		.uleb128 0x26
 4442 08b8 44000000 		.4byte	.LVL23
 4443 08bc 4A270000 		.4byte	0x274a
 4444 08c0 27       		.uleb128 0x27
 4445 08c1 01       		.uleb128 0x1
 4446 08c2 50       		.byte	0x50
 4447 08c3 02       		.uleb128 0x2
ARM GAS  C:\Users\164\AppData\Local\Temp\ccuYWdBJ.s 			page 105


 4448 08c4 78       		.byte	0x78
 4449 08c5 00       		.sleb128 0
 4450 08c6 00       		.byte	0
 4451 08c7 00       		.byte	0
 4452 08c8 1E       		.uleb128 0x1e
 4453 08c9 67010000 		.4byte	.LASF121
 4454 08cd 01       		.byte	0x1
 4455 08ce 7703     		.2byte	0x377
 4456 08d0 00000000 		.4byte	.LFB120
 4457 08d4 8C000000 		.4byte	.LFE120-.LFB120
 4458 08d8 01       		.uleb128 0x1
 4459 08d9 9C       		.byte	0x9c
 4460 08da 560A0000 		.4byte	0xa56
 4461 08de 1F       		.uleb128 0x1f
 4462 08df 766D00   		.ascii	"vm\000"
 4463 08e2 01       		.byte	0x1
 4464 08e3 7703     		.2byte	0x377
 4465 08e5 47010000 		.4byte	0x147
 4466 08e9 C0010000 		.4byte	.LLST13
 4467 08ed 1F       		.uleb128 0x1f
 4468 08ee 7600     		.ascii	"v\000"
 4469 08f0 01       		.byte	0x1
 4470 08f1 7703     		.2byte	0x377
 4471 08f3 57060000 		.4byte	0x657
 4472 08f7 EC010000 		.4byte	.LLST14
 4473 08fb 20       		.uleb128 0x20
 4474 08fc 3F090000 		.4byte	.LASF116
 4475 0900 01       		.byte	0x1
 4476 0901 7703     		.2byte	0x377
 4477 0903 25000000 		.4byte	0x25
 4478 0907 18020000 		.4byte	.LLST15
 4479 090b 1F       		.uleb128 0x1f
 4480 090c 73726300 		.ascii	"src\000"
 4481 0910 01       		.byte	0x1
 4482 0911 7803     		.2byte	0x378
 4483 0913 57060000 		.4byte	0x657
 4484 0917 44020000 		.4byte	.LLST16
 4485 091b 1F       		.uleb128 0x1f
 4486 091c 72657400 		.ascii	"ret\000"
 4487 0920 01       		.byte	0x1
 4488 0921 7803     		.2byte	0x378
 4489 0923 57060000 		.4byte	0x657
 4490 0927 70020000 		.4byte	.LLST17
 4491 092b 20       		.uleb128 0x20
 4492 092c 57060000 		.4byte	.LASF122
 4493 0930 01       		.byte	0x1
 4494 0931 7803     		.2byte	0x378
 4495 0933 57060000 		.4byte	0x657
 4496 0937 90020000 		.4byte	.LLST18
 4497 093b 2A       		.uleb128 0x2a
 4498 093c 6900     		.ascii	"i\000"
 4499 093e 01       		.byte	0x1
 4500 093f 7C03     		.2byte	0x37c
 4501 0941 25000000 		.4byte	0x25
 4502 0945 B0020000 		.4byte	.LLST19
 4503 0949 2C       		.uleb128 0x2c
 4504 094a 27020000 		.4byte	.LASF123
ARM GAS  C:\Users\164\AppData\Local\Temp\ccuYWdBJ.s 			page 106


 4505 094e 01       		.byte	0x1
 4506 094f 7D03     		.2byte	0x37d
 4507 0951 25000000 		.4byte	0x25
 4508 0955 C3020000 		.4byte	.LLST20
 4509 0959 22       		.uleb128 0x22
 4510 095a A6060000 		.4byte	0x6a6
 4511 095e 0C000000 		.4byte	.LBB38
 4512 0962 04000000 		.4byte	.LBE38-.LBB38
 4513 0966 01       		.byte	0x1
 4514 0967 7A03     		.2byte	0x37a
 4515 0969 77090000 		.4byte	0x977
 4516 096d 23       		.uleb128 0x23
 4517 096e B6060000 		.4byte	0x6b6
 4518 0972 D6020000 		.4byte	.LLST21
 4519 0976 00       		.byte	0
 4520 0977 2B       		.uleb128 0x2b
 4521 0978 42000000 		.4byte	.LBB40
 4522 097c 26000000 		.4byte	.LBE40-.LBB40
 4523 0980 F3090000 		.4byte	0x9f3
 4524 0984 25       		.uleb128 0x25
 4525 0985 763100   		.ascii	"v1\000"
 4526 0988 01       		.byte	0x1
 4527 0989 8203     		.2byte	0x382
 4528 098b 06050000 		.4byte	0x506
 4529 098f 02       		.uleb128 0x2
 4530 0990 91       		.byte	0x91
 4531 0991 48       		.sleb128 -56
 4532 0992 28       		.uleb128 0x28
 4533 0993 58000000 		.4byte	.LVL29
 4534 0997 60270000 		.4byte	0x2760
 4535 099b C8090000 		.4byte	0x9c8
 4536 099f 27       		.uleb128 0x27
 4537 09a0 01       		.uleb128 0x1
 4538 09a1 50       		.byte	0x50
 4539 09a2 02       		.uleb128 0x2
 4540 09a3 91       		.byte	0x91
 4541 09a4 48       		.sleb128 -56
 4542 09a5 27       		.uleb128 0x27
 4543 09a6 01       		.uleb128 0x1
 4544 09a7 51       		.byte	0x51
 4545 09a8 02       		.uleb128 0x2
 4546 09a9 79       		.byte	0x79
 4547 09aa 00       		.sleb128 0
 4548 09ab 27       		.uleb128 0x27
 4549 09ac 01       		.uleb128 0x1
 4550 09ad 52       		.byte	0x52
 4551 09ae 02       		.uleb128 0x2
 4552 09af 7A       		.byte	0x7a
 4553 09b0 00       		.sleb128 0
 4554 09b1 27       		.uleb128 0x27
 4555 09b2 01       		.uleb128 0x1
 4556 09b3 53       		.byte	0x53
 4557 09b4 02       		.uleb128 0x2
 4558 09b5 7B       		.byte	0x7b
 4559 09b6 00       		.sleb128 0
 4560 09b7 27       		.uleb128 0x27
 4561 09b8 02       		.uleb128 0x2
ARM GAS  C:\Users\164\AppData\Local\Temp\ccuYWdBJ.s 			page 107


 4562 09b9 7D       		.byte	0x7d
 4563 09ba 04       		.sleb128 4
 4564 09bb 05       		.uleb128 0x5
 4565 09bc 03       		.byte	0x3
 4566 09bd 00000000 		.4byte	.LC0
 4567 09c1 27       		.uleb128 0x27
 4568 09c2 02       		.uleb128 0x2
 4569 09c3 7D       		.byte	0x7d
 4570 09c4 08       		.sleb128 8
 4571 09c5 01       		.uleb128 0x1
 4572 09c6 30       		.byte	0x30
 4573 09c7 00       		.byte	0
 4574 09c8 28       		.uleb128 0x28
 4575 09c9 60000000 		.4byte	.LVL30
 4576 09cd 6B270000 		.4byte	0x276b
 4577 09d1 E2090000 		.4byte	0x9e2
 4578 09d5 27       		.uleb128 0x27
 4579 09d6 01       		.uleb128 0x1
 4580 09d7 50       		.byte	0x50
 4581 09d8 02       		.uleb128 0x2
 4582 09d9 77       		.byte	0x77
 4583 09da 00       		.sleb128 0
 4584 09db 27       		.uleb128 0x27
 4585 09dc 01       		.uleb128 0x1
 4586 09dd 51       		.byte	0x51
 4587 09de 02       		.uleb128 0x2
 4588 09df 91       		.byte	0x91
 4589 09e0 48       		.sleb128 -56
 4590 09e1 00       		.byte	0
 4591 09e2 26       		.uleb128 0x26
 4592 09e3 68000000 		.4byte	.LVL32
 4593 09e7 4A270000 		.4byte	0x274a
 4594 09eb 27       		.uleb128 0x27
 4595 09ec 01       		.uleb128 0x1
 4596 09ed 50       		.byte	0x50
 4597 09ee 02       		.uleb128 0x2
 4598 09ef 91       		.byte	0x91
 4599 09f0 48       		.sleb128 -56
 4600 09f1 00       		.byte	0
 4601 09f2 00       		.byte	0
 4602 09f3 22       		.uleb128 0x22
 4603 09f4 A6060000 		.4byte	0x6a6
 4604 09f8 6A000000 		.4byte	.LBB41
 4605 09fc 04000000 		.4byte	.LBE41-.LBB41
 4606 0a00 01       		.byte	0x1
 4607 0a01 8603     		.2byte	0x386
 4608 0a03 110A0000 		.4byte	0xa11
 4609 0a07 23       		.uleb128 0x23
 4610 0a08 B6060000 		.4byte	0x6b6
 4611 0a0c E9020000 		.4byte	.LLST22
 4612 0a10 00       		.byte	0
 4613 0a11 28       		.uleb128 0x28
 4614 0a12 40000000 		.4byte	.LVL28
 4615 0a16 C8080000 		.4byte	0x8c8
 4616 0a1a 3F0A0000 		.4byte	0xa3f
 4617 0a1e 27       		.uleb128 0x27
 4618 0a1f 01       		.uleb128 0x1
ARM GAS  C:\Users\164\AppData\Local\Temp\ccuYWdBJ.s 			page 108


 4619 0a20 50       		.byte	0x50
 4620 0a21 02       		.uleb128 0x2
 4621 0a22 79       		.byte	0x79
 4622 0a23 00       		.sleb128 0
 4623 0a24 27       		.uleb128 0x27
 4624 0a25 01       		.uleb128 0x1
 4625 0a26 51       		.byte	0x51
 4626 0a27 02       		.uleb128 0x2
 4627 0a28 7A       		.byte	0x7a
 4628 0a29 00       		.sleb128 0
 4629 0a2a 27       		.uleb128 0x27
 4630 0a2b 01       		.uleb128 0x1
 4631 0a2c 52       		.byte	0x52
 4632 0a2d 02       		.uleb128 0x2
 4633 0a2e 7B       		.byte	0x7b
 4634 0a2f 00       		.sleb128 0
 4635 0a30 27       		.uleb128 0x27
 4636 0a31 02       		.uleb128 0x2
 4637 0a32 7D       		.byte	0x7d
 4638 0a33 00       		.sleb128 0
 4639 0a34 02       		.uleb128 0x2
 4640 0a35 77       		.byte	0x77
 4641 0a36 00       		.sleb128 0
 4642 0a37 27       		.uleb128 0x27
 4643 0a38 02       		.uleb128 0x2
 4644 0a39 7D       		.byte	0x7d
 4645 0a3a 04       		.sleb128 4
 4646 0a3b 02       		.uleb128 0x2
 4647 0a3c 78       		.byte	0x78
 4648 0a3d 00       		.sleb128 0
 4649 0a3e 00       		.byte	0
 4650 0a3f 26       		.uleb128 0x26
 4651 0a40 7A000000 		.4byte	.LVL35
 4652 0a44 6B270000 		.4byte	0x276b
 4653 0a48 27       		.uleb128 0x27
 4654 0a49 01       		.uleb128 0x1
 4655 0a4a 50       		.byte	0x50
 4656 0a4b 02       		.uleb128 0x2
 4657 0a4c 77       		.byte	0x77
 4658 0a4d 00       		.sleb128 0
 4659 0a4e 27       		.uleb128 0x27
 4660 0a4f 01       		.uleb128 0x1
 4661 0a50 51       		.byte	0x51
 4662 0a51 02       		.uleb128 0x2
 4663 0a52 78       		.byte	0x78
 4664 0a53 00       		.sleb128 0
 4665 0a54 00       		.byte	0
 4666 0a55 00       		.byte	0
 4667 0a56 1E       		.uleb128 0x1e
 4668 0a57 05080000 		.4byte	.LASF124
 4669 0a5b 01       		.byte	0x1
 4670 0a5c 8B03     		.2byte	0x38b
 4671 0a5e 00000000 		.4byte	.LFB121
 4672 0a62 94000000 		.4byte	.LFE121-.LFB121
 4673 0a66 01       		.uleb128 0x1
 4674 0a67 9C       		.byte	0x9c
 4675 0a68 CE0B0000 		.4byte	0xbce
ARM GAS  C:\Users\164\AppData\Local\Temp\ccuYWdBJ.s 			page 109


 4676 0a6c 1F       		.uleb128 0x1f
 4677 0a6d 766D00   		.ascii	"vm\000"
 4678 0a70 01       		.byte	0x1
 4679 0a71 8B03     		.2byte	0x38b
 4680 0a73 47010000 		.4byte	0x147
 4681 0a77 FC020000 		.4byte	.LLST23
 4682 0a7b 1F       		.uleb128 0x1f
 4683 0a7c 7600     		.ascii	"v\000"
 4684 0a7e 01       		.byte	0x1
 4685 0a7f 8B03     		.2byte	0x38b
 4686 0a81 57060000 		.4byte	0x657
 4687 0a85 4C030000 		.4byte	.LLST24
 4688 0a89 20       		.uleb128 0x20
 4689 0a8a 3F090000 		.4byte	.LASF116
 4690 0a8e 01       		.byte	0x1
 4691 0a8f 8B03     		.2byte	0x38b
 4692 0a91 25000000 		.4byte	0x25
 4693 0a95 78030000 		.4byte	.LLST25
 4694 0a99 25       		.uleb128 0x25
 4695 0a9a 72657400 		.ascii	"ret\000"
 4696 0a9e 01       		.byte	0x1
 4697 0a9f 8D03     		.2byte	0x38d
 4698 0aa1 06050000 		.4byte	0x506
 4699 0aa5 02       		.uleb128 0x2
 4700 0aa6 91       		.byte	0x91
 4701 0aa7 58       		.sleb128 -40
 4702 0aa8 2D       		.uleb128 0x2d
 4703 0aa9 2F090000 		.4byte	.LASF138
 4704 0aad 01       		.byte	0x1
 4705 0aae 9903     		.2byte	0x399
 4706 0ab0 7C000000 		.4byte	.L24
 4707 0ab4 29       		.uleb128 0x29
 4708 0ab5 57060000 		.4byte	.LASF122
 4709 0ab9 01       		.byte	0x1
 4710 0aba 9003     		.2byte	0x390
 4711 0abc 06050000 		.4byte	0x506
 4712 0ac0 02       		.uleb128 0x2
 4713 0ac1 91       		.byte	0x91
 4714 0ac2 48       		.sleb128 -56
 4715 0ac3 2B       		.uleb128 0x2b
 4716 0ac4 62000000 		.4byte	.LBB43
 4717 0ac8 1A000000 		.4byte	.LBE43-.LBB43
 4718 0acc F10A0000 		.4byte	0xaf1
 4719 0ad0 25       		.uleb128 0x25
 4720 0ad1 6E6E6E00 		.ascii	"nnn\000"
 4721 0ad5 01       		.byte	0x1
 4722 0ad6 9603     		.2byte	0x396
 4723 0ad8 06050000 		.4byte	0x506
 4724 0adc 03       		.uleb128 0x3
 4725 0add 91       		.byte	0x91
 4726 0ade B87F     		.sleb128 -72
 4727 0ae0 26       		.uleb128 0x26
 4728 0ae1 72000000 		.4byte	.LVL49
 4729 0ae5 4A270000 		.4byte	0x274a
 4730 0ae9 27       		.uleb128 0x27
 4731 0aea 01       		.uleb128 0x1
 4732 0aeb 50       		.byte	0x50
ARM GAS  C:\Users\164\AppData\Local\Temp\ccuYWdBJ.s 			page 110


 4733 0aec 02       		.uleb128 0x2
 4734 0aed 74       		.byte	0x74
 4735 0aee 00       		.sleb128 0
 4736 0aef 00       		.byte	0
 4737 0af0 00       		.byte	0
 4738 0af1 28       		.uleb128 0x28
 4739 0af2 18000000 		.4byte	.LVL43
 4740 0af6 76270000 		.4byte	0x2776
 4741 0afa 150B0000 		.4byte	0xb15
 4742 0afe 27       		.uleb128 0x27
 4743 0aff 01       		.uleb128 0x1
 4744 0b00 50       		.byte	0x50
 4745 0b01 02       		.uleb128 0x2
 4746 0b02 91       		.byte	0x91
 4747 0b03 58       		.sleb128 -40
 4748 0b04 27       		.uleb128 0x27
 4749 0b05 01       		.uleb128 0x1
 4750 0b06 51       		.byte	0x51
 4751 0b07 02       		.uleb128 0x2
 4752 0b08 75       		.byte	0x75
 4753 0b09 00       		.sleb128 0
 4754 0b0a 27       		.uleb128 0x27
 4755 0b0b 01       		.uleb128 0x1
 4756 0b0c 52       		.byte	0x52
 4757 0b0d 01       		.uleb128 0x1
 4758 0b0e 30       		.byte	0x30
 4759 0b0f 27       		.uleb128 0x27
 4760 0b10 01       		.uleb128 0x1
 4761 0b11 53       		.byte	0x53
 4762 0b12 01       		.uleb128 0x1
 4763 0b13 30       		.byte	0x30
 4764 0b14 00       		.byte	0
 4765 0b15 28       		.uleb128 0x28
 4766 0b16 28000000 		.4byte	.LVL44
 4767 0b1a 81270000 		.4byte	0x2781
 4768 0b1e 380B0000 		.4byte	0xb38
 4769 0b22 27       		.uleb128 0x27
 4770 0b23 01       		.uleb128 0x1
 4771 0b24 50       		.byte	0x50
 4772 0b25 02       		.uleb128 0x2
 4773 0b26 91       		.byte	0x91
 4774 0b27 48       		.sleb128 -56
 4775 0b28 27       		.uleb128 0x27
 4776 0b29 01       		.uleb128 0x1
 4777 0b2a 51       		.byte	0x51
 4778 0b2b 02       		.uleb128 0x2
 4779 0b2c 75       		.byte	0x75
 4780 0b2d 00       		.sleb128 0
 4781 0b2e 27       		.uleb128 0x27
 4782 0b2f 01       		.uleb128 0x1
 4783 0b30 52       		.byte	0x52
 4784 0b31 05       		.uleb128 0x5
 4785 0b32 03       		.byte	0x3
 4786 0b33 08000000 		.4byte	.LC1
 4787 0b37 00       		.byte	0
 4788 0b38 28       		.uleb128 0x28
 4789 0b39 44000000 		.4byte	.LVL45
ARM GAS  C:\Users\164\AppData\Local\Temp\ccuYWdBJ.s 			page 111


 4790 0b3d 60270000 		.4byte	0x2760
 4791 0b41 750B0000 		.4byte	0xb75
 4792 0b45 27       		.uleb128 0x27
 4793 0b46 01       		.uleb128 0x1
 4794 0b47 50       		.byte	0x50
 4795 0b48 02       		.uleb128 0x2
 4796 0b49 91       		.byte	0x91
 4797 0b4a 48       		.sleb128 -56
 4798 0b4b 27       		.uleb128 0x27
 4799 0b4c 01       		.uleb128 0x1
 4800 0b4d 51       		.byte	0x51
 4801 0b4e 02       		.uleb128 0x2
 4802 0b4f 75       		.byte	0x75
 4803 0b50 00       		.sleb128 0
 4804 0b51 27       		.uleb128 0x27
 4805 0b52 01       		.uleb128 0x1
 4806 0b53 52       		.byte	0x52
 4807 0b54 02       		.uleb128 0x2
 4808 0b55 74       		.byte	0x74
 4809 0b56 00       		.sleb128 0
 4810 0b57 27       		.uleb128 0x27
 4811 0b58 01       		.uleb128 0x1
 4812 0b59 53       		.byte	0x53
 4813 0b5a 02       		.uleb128 0x2
 4814 0b5b 77       		.byte	0x77
 4815 0b5c 00       		.sleb128 0
 4816 0b5d 27       		.uleb128 0x27
 4817 0b5e 02       		.uleb128 0x2
 4818 0b5f 7D       		.byte	0x7d
 4819 0b60 00       		.sleb128 0
 4820 0b61 02       		.uleb128 0x2
 4821 0b62 74       		.byte	0x74
 4822 0b63 10       		.sleb128 16
 4823 0b64 27       		.uleb128 0x27
 4824 0b65 02       		.uleb128 0x2
 4825 0b66 7D       		.byte	0x7d
 4826 0b67 04       		.sleb128 4
 4827 0b68 05       		.uleb128 0x5
 4828 0b69 03       		.byte	0x3
 4829 0b6a 00000000 		.4byte	.LC0
 4830 0b6e 27       		.uleb128 0x27
 4831 0b6f 02       		.uleb128 0x2
 4832 0b70 7D       		.byte	0x7d
 4833 0b71 08       		.sleb128 8
 4834 0b72 01       		.uleb128 0x1
 4835 0b73 30       		.byte	0x30
 4836 0b74 00       		.byte	0
 4837 0b75 28       		.uleb128 0x28
 4838 0b76 5C000000 		.4byte	.LVL46
 4839 0b7a C8080000 		.4byte	0x8c8
 4840 0b7e A90B0000 		.4byte	0xba9
 4841 0b82 27       		.uleb128 0x27
 4842 0b83 01       		.uleb128 0x1
 4843 0b84 50       		.byte	0x50
 4844 0b85 02       		.uleb128 0x2
 4845 0b86 75       		.byte	0x75
 4846 0b87 00       		.sleb128 0
ARM GAS  C:\Users\164\AppData\Local\Temp\ccuYWdBJ.s 			page 112


 4847 0b88 27       		.uleb128 0x27
 4848 0b89 01       		.uleb128 0x1
 4849 0b8a 51       		.byte	0x51
 4850 0b8b 02       		.uleb128 0x2
 4851 0b8c 74       		.byte	0x74
 4852 0b8d 00       		.sleb128 0
 4853 0b8e 27       		.uleb128 0x27
 4854 0b8f 01       		.uleb128 0x1
 4855 0b90 52       		.byte	0x52
 4856 0b91 02       		.uleb128 0x2
 4857 0b92 77       		.byte	0x77
 4858 0b93 00       		.sleb128 0
 4859 0b94 27       		.uleb128 0x27
 4860 0b95 01       		.uleb128 0x1
 4861 0b96 53       		.byte	0x53
 4862 0b97 02       		.uleb128 0x2
 4863 0b98 74       		.byte	0x74
 4864 0b99 00       		.sleb128 0
 4865 0b9a 27       		.uleb128 0x27
 4866 0b9b 02       		.uleb128 0x2
 4867 0b9c 7D       		.byte	0x7d
 4868 0b9d 00       		.sleb128 0
 4869 0b9e 02       		.uleb128 0x2
 4870 0b9f 76       		.byte	0x76
 4871 0ba0 00       		.sleb128 0
 4872 0ba1 27       		.uleb128 0x27
 4873 0ba2 02       		.uleb128 0x2
 4874 0ba3 7D       		.byte	0x7d
 4875 0ba4 04       		.sleb128 4
 4876 0ba5 02       		.uleb128 0x2
 4877 0ba6 78       		.byte	0x78
 4878 0ba7 00       		.sleb128 0
 4879 0ba8 00       		.byte	0
 4880 0ba9 28       		.uleb128 0x28
 4881 0baa 62000000 		.4byte	.LVL47
 4882 0bae 4A270000 		.4byte	0x274a
 4883 0bb2 BD0B0000 		.4byte	0xbbd
 4884 0bb6 27       		.uleb128 0x27
 4885 0bb7 01       		.uleb128 0x1
 4886 0bb8 50       		.byte	0x50
 4887 0bb9 02       		.uleb128 0x2
 4888 0bba 78       		.byte	0x78
 4889 0bbb 00       		.sleb128 0
 4890 0bbc 00       		.byte	0
 4891 0bbd 26       		.uleb128 0x26
 4892 0bbe 82000000 		.4byte	.LVL51
 4893 0bc2 4A270000 		.4byte	0x274a
 4894 0bc6 27       		.uleb128 0x27
 4895 0bc7 01       		.uleb128 0x1
 4896 0bc8 50       		.byte	0x50
 4897 0bc9 02       		.uleb128 0x2
 4898 0bca 74       		.byte	0x74
 4899 0bcb 00       		.sleb128 0
 4900 0bcc 00       		.byte	0
 4901 0bcd 00       		.byte	0
 4902 0bce 2E       		.uleb128 0x2e
 4903 0bcf 71060000 		.4byte	.LASF129
ARM GAS  C:\Users\164\AppData\Local\Temp\ccuYWdBJ.s 			page 113


 4904 0bd3 01       		.byte	0x1
 4905 0bd4 42       		.byte	0x42
 4906 0bd5 06050000 		.4byte	0x506
 4907 0bd9 00000000 		.4byte	.LFB85
 4908 0bdd 4A000000 		.4byte	.LFE85-.LFB85
 4909 0be1 01       		.uleb128 0x1
 4910 0be2 9C       		.byte	0x9c
 4911 0be3 750C0000 		.4byte	0xc75
 4912 0be7 2F       		.uleb128 0x2f
 4913 0be8 766D00   		.ascii	"vm\000"
 4914 0beb 01       		.byte	0x1
 4915 0bec 42       		.byte	0x42
 4916 0bed 47010000 		.4byte	0x147
 4917 0bf1 A4030000 		.4byte	.LLST26
 4918 0bf5 30       		.uleb128 0x30
 4919 0bf6 43070000 		.4byte	.LASF91
 4920 0bfa 01       		.byte	0x1
 4921 0bfb 42       		.byte	0x42
 4922 0bfc 25000000 		.4byte	0x25
 4923 0c00 C2030000 		.4byte	.LLST27
 4924 0c04 31       		.uleb128 0x31
 4925 0c05 72030000 		.4byte	.LASF120
 4926 0c09 01       		.byte	0x1
 4927 0c0a 44       		.byte	0x44
 4928 0c0b 06050000 		.4byte	0x506
 4929 0c0f E0030000 		.4byte	.LLST28
 4930 0c13 32       		.uleb128 0x32
 4931 0c14 6800     		.ascii	"h\000"
 4932 0c16 01       		.byte	0x1
 4933 0c17 49       		.byte	0x49
 4934 0c18 750C0000 		.4byte	0xc75
 4935 0c1c 00040000 		.4byte	.LLST29
 4936 0c20 31       		.uleb128 0x31
 4937 0c21 37040000 		.4byte	.LASF83
 4938 0c25 01       		.byte	0x1
 4939 0c26 4C       		.byte	0x4c
 4940 0c27 57060000 		.4byte	0x657
 4941 0c2b 1E040000 		.4byte	.LLST30
 4942 0c2f 28       		.uleb128 0x28
 4943 0c30 1E000000 		.4byte	.LVL57
 4944 0c34 8C270000 		.4byte	0x278c
 4945 0c38 480C0000 		.4byte	0xc48
 4946 0c3c 27       		.uleb128 0x27
 4947 0c3d 01       		.uleb128 0x1
 4948 0c3e 50       		.byte	0x50
 4949 0c3f 02       		.uleb128 0x2
 4950 0c40 76       		.byte	0x76
 4951 0c41 00       		.sleb128 0
 4952 0c42 27       		.uleb128 0x27
 4953 0c43 01       		.uleb128 0x1
 4954 0c44 51       		.byte	0x51
 4955 0c45 01       		.uleb128 0x1
 4956 0c46 3C       		.byte	0x3c
 4957 0c47 00       		.byte	0
 4958 0c48 28       		.uleb128 0x28
 4959 0c49 2A000000 		.4byte	.LVL59
 4960 0c4d 8C270000 		.4byte	0x278c
ARM GAS  C:\Users\164\AppData\Local\Temp\ccuYWdBJ.s 			page 114


 4961 0c51 640C0000 		.4byte	0xc64
 4962 0c55 27       		.uleb128 0x27
 4963 0c56 01       		.uleb128 0x1
 4964 0c57 50       		.byte	0x50
 4965 0c58 02       		.uleb128 0x2
 4966 0c59 76       		.byte	0x76
 4967 0c5a 00       		.sleb128 0
 4968 0c5b 27       		.uleb128 0x27
 4969 0c5c 01       		.uleb128 0x1
 4970 0c5d 51       		.byte	0x51
 4971 0c5e 04       		.uleb128 0x4
 4972 0c5f 77       		.byte	0x77
 4973 0c60 00       		.sleb128 0
 4974 0c61 34       		.byte	0x34
 4975 0c62 24       		.byte	0x24
 4976 0c63 00       		.byte	0
 4977 0c64 26       		.uleb128 0x26
 4978 0c65 32000000 		.4byte	.LVL61
 4979 0c69 97270000 		.4byte	0x2797
 4980 0c6d 27       		.uleb128 0x27
 4981 0c6e 01       		.uleb128 0x1
 4982 0c6f 50       		.byte	0x50
 4983 0c70 02       		.uleb128 0x2
 4984 0c71 75       		.byte	0x75
 4985 0c72 00       		.sleb128 0
 4986 0c73 00       		.byte	0
 4987 0c74 00       		.byte	0
 4988 0c75 05       		.uleb128 0x5
 4989 0c76 04       		.byte	0x4
 4990 0c77 94060000 		.4byte	0x694
 4991 0c7b 1E       		.uleb128 0x1e
 4992 0c7c 60070000 		.4byte	.LASF125
 4993 0c80 01       		.byte	0x1
 4994 0c81 0203     		.2byte	0x302
 4995 0c83 00000000 		.4byte	.LFB115
 4996 0c87 58000000 		.4byte	.LFE115-.LFB115
 4997 0c8b 01       		.uleb128 0x1
 4998 0c8c 9C       		.byte	0x9c
 4999 0c8d 5B0D0000 		.4byte	0xd5b
 5000 0c91 1F       		.uleb128 0x1f
 5001 0c92 766D00   		.ascii	"vm\000"
 5002 0c95 01       		.byte	0x1
 5003 0c96 0203     		.2byte	0x302
 5004 0c98 47010000 		.4byte	0x147
 5005 0c9c 3C040000 		.4byte	.LLST31
 5006 0ca0 1F       		.uleb128 0x1f
 5007 0ca1 7600     		.ascii	"v\000"
 5008 0ca3 01       		.byte	0x1
 5009 0ca4 0203     		.2byte	0x302
 5010 0ca6 57060000 		.4byte	0x657
 5011 0caa 68040000 		.4byte	.LLST32
 5012 0cae 20       		.uleb128 0x20
 5013 0caf 3F090000 		.4byte	.LASF116
 5014 0cb3 01       		.byte	0x1
 5015 0cb4 0203     		.2byte	0x302
 5016 0cb6 25000000 		.4byte	0x25
 5017 0cba 86040000 		.4byte	.LLST33
ARM GAS  C:\Users\164\AppData\Local\Temp\ccuYWdBJ.s 			page 115


 5018 0cbe 2A       		.uleb128 0x2a
 5019 0cbf 6800     		.ascii	"h\000"
 5020 0cc1 01       		.byte	0x1
 5021 0cc2 0403     		.2byte	0x304
 5022 0cc4 750C0000 		.4byte	0xc75
 5023 0cc8 A7040000 		.4byte	.LLST34
 5024 0ccc 29       		.uleb128 0x29
 5025 0ccd 72030000 		.4byte	.LASF120
 5026 0cd1 01       		.byte	0x1
 5027 0cd2 0603     		.2byte	0x306
 5028 0cd4 06050000 		.4byte	0x506
 5029 0cd8 02       		.uleb128 0x2
 5030 0cd9 91       		.byte	0x91
 5031 0cda 60       		.sleb128 -32
 5032 0cdb 2A       		.uleb128 0x2a
 5033 0cdc 703100   		.ascii	"p1\000"
 5034 0cdf 01       		.byte	0x1
 5035 0ce0 0C03     		.2byte	0x30c
 5036 0ce2 57060000 		.4byte	0x657
 5037 0ce6 BA040000 		.4byte	.LLST35
 5038 0cea 2A       		.uleb128 0x2a
 5039 0ceb 703200   		.ascii	"p2\000"
 5040 0cee 01       		.byte	0x1
 5041 0cef 0D03     		.2byte	0x30d
 5042 0cf1 C2060000 		.4byte	0x6c2
 5043 0cf5 E3040000 		.4byte	.LLST36
 5044 0cf9 2B       		.uleb128 0x2b
 5045 0cfa 3C000000 		.4byte	.LBB44
 5046 0cfe 18000000 		.4byte	.LBE44-.LBB44
 5047 0d02 260D0000 		.4byte	0xd26
 5048 0d06 25       		.uleb128 0x25
 5049 0d07 6E6E6E00 		.ascii	"nnn\000"
 5050 0d0b 01       		.byte	0x1
 5051 0d0c 1203     		.2byte	0x312
 5052 0d0e 06050000 		.4byte	0x506
 5053 0d12 02       		.uleb128 0x2
 5054 0d13 91       		.byte	0x91
 5055 0d14 50       		.sleb128 -48
 5056 0d15 26       		.uleb128 0x26
 5057 0d16 4C000000 		.4byte	.LVL78
 5058 0d1a 4A270000 		.4byte	0x274a
 5059 0d1e 27       		.uleb128 0x27
 5060 0d1f 01       		.uleb128 0x1
 5061 0d20 50       		.byte	0x50
 5062 0d21 02       		.uleb128 0x2
 5063 0d22 76       		.byte	0x76
 5064 0d23 00       		.sleb128 0
 5065 0d24 00       		.byte	0
 5066 0d25 00       		.byte	0
 5067 0d26 28       		.uleb128 0x28
 5068 0d27 12000000 		.4byte	.LVL69
 5069 0d2b CE0B0000 		.4byte	0xbce
 5070 0d2f 410D0000 		.4byte	0xd41
 5071 0d33 27       		.uleb128 0x27
 5072 0d34 01       		.uleb128 0x1
 5073 0d35 50       		.byte	0x50
 5074 0d36 02       		.uleb128 0x2
ARM GAS  C:\Users\164\AppData\Local\Temp\ccuYWdBJ.s 			page 116


 5075 0d37 91       		.byte	0x91
 5076 0d38 60       		.sleb128 -32
 5077 0d39 27       		.uleb128 0x27
 5078 0d3a 01       		.uleb128 0x1
 5079 0d3b 51       		.byte	0x51
 5080 0d3c 03       		.uleb128 0x3
 5081 0d3d F3       		.byte	0xf3
 5082 0d3e 01       		.uleb128 0x1
 5083 0d3f 50       		.byte	0x50
 5084 0d40 00       		.byte	0
 5085 0d41 33       		.uleb128 0x33
 5086 0d42 22000000 		.4byte	.LVL70
 5087 0d46 A2270000 		.4byte	0x27a2
 5088 0d4a 26       		.uleb128 0x26
 5089 0d4b 36000000 		.4byte	.LVL75
 5090 0d4f AB270000 		.4byte	0x27ab
 5091 0d53 27       		.uleb128 0x27
 5092 0d54 01       		.uleb128 0x1
 5093 0d55 50       		.byte	0x50
 5094 0d56 02       		.uleb128 0x2
 5095 0d57 74       		.byte	0x74
 5096 0d58 70       		.sleb128 -16
 5097 0d59 00       		.byte	0
 5098 0d5a 00       		.byte	0
 5099 0d5b 34       		.uleb128 0x34
 5100 0d5c 93060000 		.4byte	.LASF191
 5101 0d60 03       		.byte	0x3
 5102 0d61 49       		.byte	0x49
 5103 0d62 03       		.byte	0x3
 5104 0d63 730D0000 		.4byte	0xd73
 5105 0d67 1D       		.uleb128 0x1d
 5106 0d68 73747200 		.ascii	"str\000"
 5107 0d6c 03       		.byte	0x3
 5108 0d6d 49       		.byte	0x49
 5109 0d6e B7000000 		.4byte	0xb7
 5110 0d72 00       		.byte	0
 5111 0d73 1E       		.uleb128 0x1e
 5112 0d74 0D030000 		.4byte	.LASF126
 5113 0d78 01       		.byte	0x1
 5114 0d79 EB01     		.2byte	0x1eb
 5115 0d7b 00000000 		.4byte	.LFB101
 5116 0d7f 98000000 		.4byte	.LFE101-.LFB101
 5117 0d83 01       		.uleb128 0x1
 5118 0d84 9C       		.byte	0x9c
 5119 0d85 BB0E0000 		.4byte	0xebb
 5120 0d89 1F       		.uleb128 0x1f
 5121 0d8a 766D00   		.ascii	"vm\000"
 5122 0d8d 01       		.byte	0x1
 5123 0d8e EB01     		.2byte	0x1eb
 5124 0d90 47010000 		.4byte	0x147
 5125 0d94 F6040000 		.4byte	.LLST37
 5126 0d98 1F       		.uleb128 0x1f
 5127 0d99 7600     		.ascii	"v\000"
 5128 0d9b 01       		.byte	0x1
 5129 0d9c EB01     		.2byte	0x1eb
 5130 0d9e 57060000 		.4byte	0x657
 5131 0da2 3B050000 		.4byte	.LLST38
ARM GAS  C:\Users\164\AppData\Local\Temp\ccuYWdBJ.s 			page 117


 5132 0da6 20       		.uleb128 0x20
 5133 0da7 3F090000 		.4byte	.LASF116
 5134 0dab 01       		.byte	0x1
 5135 0dac EB01     		.2byte	0x1eb
 5136 0dae 25000000 		.4byte	0x25
 5137 0db2 80050000 		.4byte	.LLST39
 5138 0db6 2A       		.uleb128 0x2a
 5139 0db7 683100   		.ascii	"h1\000"
 5140 0dba 01       		.byte	0x1
 5141 0dbb F201     		.2byte	0x1f2
 5142 0dbd 750C0000 		.4byte	0xc75
 5143 0dc1 BA050000 		.4byte	.LLST40
 5144 0dc5 2A       		.uleb128 0x2a
 5145 0dc6 683200   		.ascii	"h2\000"
 5146 0dc9 01       		.byte	0x1
 5147 0dca F301     		.2byte	0x1f3
 5148 0dcc 750C0000 		.4byte	0xc75
 5149 0dd0 CD050000 		.4byte	.LLST41
 5150 0dd4 29       		.uleb128 0x29
 5151 0dd5 72030000 		.4byte	.LASF120
 5152 0dd9 01       		.byte	0x1
 5153 0dda F501     		.2byte	0x1f5
 5154 0ddc 06050000 		.4byte	0x506
 5155 0de0 02       		.uleb128 0x2
 5156 0de1 91       		.byte	0x91
 5157 0de2 58       		.sleb128 -40
 5158 0de3 2A       		.uleb128 0x2a
 5159 0de4 703100   		.ascii	"p1\000"
 5160 0de7 01       		.byte	0x1
 5161 0de8 FE01     		.2byte	0x1fe
 5162 0dea 57060000 		.4byte	0x657
 5163 0dee E0050000 		.4byte	.LLST42
 5164 0df2 2A       		.uleb128 0x2a
 5165 0df3 703200   		.ascii	"p2\000"
 5166 0df6 01       		.byte	0x1
 5167 0df7 FF01     		.2byte	0x1ff
 5168 0df9 C2060000 		.4byte	0x6c2
 5169 0dfd 09060000 		.4byte	.LLST43
 5170 0e01 22       		.uleb128 0x22
 5171 0e02 5B0D0000 		.4byte	0xd5b
 5172 0e06 0C000000 		.4byte	.LBB48
 5173 0e0a 0E000000 		.4byte	.LBE48-.LBB48
 5174 0e0e 01       		.byte	0x1
 5175 0e0f EE01     		.2byte	0x1ee
 5176 0e11 3C0E0000 		.4byte	0xe3c
 5177 0e15 23       		.uleb128 0x23
 5178 0e16 670D0000 		.4byte	0xd67
 5179 0e1a 1C060000 		.4byte	.LLST44
 5180 0e1e 26       		.uleb128 0x26
 5181 0e1f 16000000 		.4byte	.LVL85
 5182 0e23 B6270000 		.4byte	0x27b6
 5183 0e27 27       		.uleb128 0x27
 5184 0e28 01       		.uleb128 0x1
 5185 0e29 50       		.byte	0x50
 5186 0e2a 01       		.uleb128 0x1
 5187 0e2b 31       		.byte	0x31
 5188 0e2c 27       		.uleb128 0x27
ARM GAS  C:\Users\164\AppData\Local\Temp\ccuYWdBJ.s 			page 118


 5189 0e2d 01       		.uleb128 0x1
 5190 0e2e 51       		.byte	0x51
 5191 0e2f 05       		.uleb128 0x5
 5192 0e30 03       		.byte	0x3
 5193 0e31 0C000000 		.4byte	.LC2
 5194 0e35 27       		.uleb128 0x27
 5195 0e36 01       		.uleb128 0x1
 5196 0e37 52       		.byte	0x52
 5197 0e38 01       		.uleb128 0x1
 5198 0e39 3A       		.byte	0x3a
 5199 0e3a 00       		.byte	0
 5200 0e3b 00       		.byte	0
 5201 0e3c 2B       		.uleb128 0x2b
 5202 0e3d 76000000 		.4byte	.LBB50
 5203 0e41 18000000 		.4byte	.LBE50-.LBB50
 5204 0e45 690E0000 		.4byte	0xe69
 5205 0e49 25       		.uleb128 0x25
 5206 0e4a 6E6E6E00 		.ascii	"nnn\000"
 5207 0e4e 01       		.byte	0x1
 5208 0e4f 0502     		.2byte	0x205
 5209 0e51 06050000 		.4byte	0x506
 5210 0e55 02       		.uleb128 0x2
 5211 0e56 91       		.byte	0x91
 5212 0e57 48       		.sleb128 -56
 5213 0e58 26       		.uleb128 0x26
 5214 0e59 86000000 		.4byte	.LVL103
 5215 0e5d 4A270000 		.4byte	0x274a
 5216 0e61 27       		.uleb128 0x27
 5217 0e62 01       		.uleb128 0x1
 5218 0e63 50       		.byte	0x50
 5219 0e64 02       		.uleb128 0x2
 5220 0e65 76       		.byte	0x76
 5221 0e66 00       		.sleb128 0
 5222 0e67 00       		.byte	0
 5223 0e68 00       		.byte	0
 5224 0e69 28       		.uleb128 0x28
 5225 0e6a 2C000000 		.4byte	.LVL92
 5226 0e6e CE0B0000 		.4byte	0xbce
 5227 0e72 840E0000 		.4byte	0xe84
 5228 0e76 27       		.uleb128 0x27
 5229 0e77 01       		.uleb128 0x1
 5230 0e78 50       		.byte	0x50
 5231 0e79 02       		.uleb128 0x2
 5232 0e7a 91       		.byte	0x91
 5233 0e7b 58       		.sleb128 -40
 5234 0e7c 27       		.uleb128 0x27
 5235 0e7d 01       		.uleb128 0x1
 5236 0e7e 51       		.byte	0x51
 5237 0e7f 03       		.uleb128 0x3
 5238 0e80 F3       		.byte	0xf3
 5239 0e81 01       		.uleb128 0x1
 5240 0e82 50       		.byte	0x50
 5241 0e83 00       		.byte	0
 5242 0e84 33       		.uleb128 0x33
 5243 0e85 3C000000 		.4byte	.LVL93
 5244 0e89 A2270000 		.4byte	0x27a2
 5245 0e8d 33       		.uleb128 0x33
ARM GAS  C:\Users\164\AppData\Local\Temp\ccuYWdBJ.s 			page 119


 5246 0e8e 4E000000 		.4byte	.LVL94
 5247 0e92 A2270000 		.4byte	0x27a2
 5248 0e96 28       		.uleb128 0x28
 5249 0e97 68000000 		.4byte	.LVL99
 5250 0e9b AB270000 		.4byte	0x27ab
 5251 0e9f AA0E0000 		.4byte	0xeaa
 5252 0ea3 27       		.uleb128 0x27
 5253 0ea4 01       		.uleb128 0x1
 5254 0ea5 50       		.byte	0x50
 5255 0ea6 02       		.uleb128 0x2
 5256 0ea7 74       		.byte	0x74
 5257 0ea8 70       		.sleb128 -16
 5258 0ea9 00       		.byte	0
 5259 0eaa 26       		.uleb128 0x26
 5260 0eab 76000000 		.4byte	.LVL102
 5261 0eaf C1270000 		.4byte	0x27c1
 5262 0eb3 27       		.uleb128 0x27
 5263 0eb4 01       		.uleb128 0x1
 5264 0eb5 50       		.byte	0x50
 5265 0eb6 02       		.uleb128 0x2
 5266 0eb7 76       		.byte	0x76
 5267 0eb8 10       		.sleb128 16
 5268 0eb9 00       		.byte	0
 5269 0eba 00       		.byte	0
 5270 0ebb 35       		.uleb128 0x35
 5271 0ebc ED040000 		.4byte	.LASF127
 5272 0ec0 01       		.byte	0x1
 5273 0ec1 62       		.byte	0x62
 5274 0ec2 00000000 		.4byte	.LFB86
 5275 0ec6 2A000000 		.4byte	.LFE86-.LFB86
 5276 0eca 01       		.uleb128 0x1
 5277 0ecb 9C       		.byte	0x9c
 5278 0ecc 320F0000 		.4byte	0xf32
 5279 0ed0 2F       		.uleb128 0x2f
 5280 0ed1 61727900 		.ascii	"ary\000"
 5281 0ed5 01       		.byte	0x1
 5282 0ed6 62       		.byte	0x62
 5283 0ed7 57060000 		.4byte	0x657
 5284 0edb 34060000 		.4byte	.LLST45
 5285 0edf 36       		.uleb128 0x36
 5286 0ee0 6800     		.ascii	"h\000"
 5287 0ee2 01       		.byte	0x1
 5288 0ee3 64       		.byte	0x64
 5289 0ee4 750C0000 		.4byte	0xc75
 5290 0ee8 01       		.uleb128 0x1
 5291 0ee9 56       		.byte	0x56
 5292 0eea 32       		.uleb128 0x32
 5293 0eeb 703100   		.ascii	"p1\000"
 5294 0eee 01       		.byte	0x1
 5295 0eef 66       		.byte	0x66
 5296 0ef0 57060000 		.4byte	0x657
 5297 0ef4 55060000 		.4byte	.LLST46
 5298 0ef8 36       		.uleb128 0x36
 5299 0ef9 703200   		.ascii	"p2\000"
 5300 0efc 01       		.byte	0x1
 5301 0efd 67       		.byte	0x67
 5302 0efe C2060000 		.4byte	0x6c2
ARM GAS  C:\Users\164\AppData\Local\Temp\ccuYWdBJ.s 			page 120


 5303 0f02 01       		.uleb128 0x1
 5304 0f03 55       		.byte	0x55
 5305 0f04 28       		.uleb128 0x28
 5306 0f05 16000000 		.4byte	.LVL110
 5307 0f09 4A270000 		.4byte	0x274a
 5308 0f0d 180F0000 		.4byte	0xf18
 5309 0f11 27       		.uleb128 0x27
 5310 0f12 01       		.uleb128 0x1
 5311 0f13 50       		.byte	0x50
 5312 0f14 02       		.uleb128 0x2
 5313 0f15 74       		.byte	0x74
 5314 0f16 70       		.sleb128 -16
 5315 0f17 00       		.byte	0
 5316 0f18 33       		.uleb128 0x33
 5317 0f19 22000000 		.4byte	.LVL113
 5318 0f1d 97270000 		.4byte	0x2797
 5319 0f21 26       		.uleb128 0x26
 5320 0f22 28000000 		.4byte	.LVL114
 5321 0f26 97270000 		.4byte	0x2797
 5322 0f2a 27       		.uleb128 0x27
 5323 0f2b 01       		.uleb128 0x1
 5324 0f2c 50       		.byte	0x50
 5325 0f2d 02       		.uleb128 0x2
 5326 0f2e 76       		.byte	0x76
 5327 0f2f 00       		.sleb128 0
 5328 0f30 00       		.byte	0
 5329 0f31 00       		.byte	0
 5330 0f32 35       		.uleb128 0x35
 5331 0f33 F6010000 		.4byte	.LASF128
 5332 0f37 01       		.byte	0x1
 5333 0f38 76       		.byte	0x76
 5334 0f39 00000000 		.4byte	.LFB87
 5335 0f3d 26000000 		.4byte	.LFE87-.LFB87
 5336 0f41 01       		.uleb128 0x1
 5337 0f42 9C       		.byte	0x9c
 5338 0f43 A70F0000 		.4byte	0xfa7
 5339 0f47 2F       		.uleb128 0x2f
 5340 0f48 61727900 		.ascii	"ary\000"
 5341 0f4c 01       		.byte	0x1
 5342 0f4d 76       		.byte	0x76
 5343 0f4e 57060000 		.4byte	0x657
 5344 0f52 7E060000 		.4byte	.LLST47
 5345 0f56 32       		.uleb128 0x32
 5346 0f57 6800     		.ascii	"h\000"
 5347 0f59 01       		.byte	0x1
 5348 0f5a 78       		.byte	0x78
 5349 0f5b 750C0000 		.4byte	0xc75
 5350 0f5f 9F060000 		.4byte	.LLST48
 5351 0f63 32       		.uleb128 0x32
 5352 0f64 703100   		.ascii	"p1\000"
 5353 0f67 01       		.byte	0x1
 5354 0f68 7C       		.byte	0x7c
 5355 0f69 57060000 		.4byte	0x657
 5356 0f6d B2060000 		.4byte	.LLST49
 5357 0f71 36       		.uleb128 0x36
 5358 0f72 703200   		.ascii	"p2\000"
 5359 0f75 01       		.byte	0x1
ARM GAS  C:\Users\164\AppData\Local\Temp\ccuYWdBJ.s 			page 121


 5360 0f76 7D       		.byte	0x7d
 5361 0f77 C2060000 		.4byte	0x6c2
 5362 0f7b 01       		.uleb128 0x1
 5363 0f7c 55       		.byte	0x55
 5364 0f7d 28       		.uleb128 0x28
 5365 0f7e 0C000000 		.4byte	.LVL118
 5366 0f82 CC270000 		.4byte	0x27cc
 5367 0f86 960F0000 		.4byte	0xf96
 5368 0f8a 27       		.uleb128 0x27
 5369 0f8b 01       		.uleb128 0x1
 5370 0f8c 50       		.byte	0x50
 5371 0f8d 02       		.uleb128 0x2
 5372 0f8e 74       		.byte	0x74
 5373 0f8f 00       		.sleb128 0
 5374 0f90 27       		.uleb128 0x27
 5375 0f91 01       		.uleb128 0x1
 5376 0f92 51       		.byte	0x51
 5377 0f93 01       		.uleb128 0x1
 5378 0f94 30       		.byte	0x30
 5379 0f95 00       		.byte	0
 5380 0f96 26       		.uleb128 0x26
 5381 0f97 1E000000 		.4byte	.LVL123
 5382 0f9b D7270000 		.4byte	0x27d7
 5383 0f9f 27       		.uleb128 0x27
 5384 0fa0 01       		.uleb128 0x1
 5385 0fa1 50       		.byte	0x50
 5386 0fa2 02       		.uleb128 0x2
 5387 0fa3 74       		.byte	0x74
 5388 0fa4 70       		.sleb128 -16
 5389 0fa5 00       		.byte	0
 5390 0fa6 00       		.byte	0
 5391 0fa7 2E       		.uleb128 0x2e
 5392 0fa8 23080000 		.4byte	.LASF130
 5393 0fac 01       		.byte	0x1
 5394 0fad 8B       		.byte	0x8b
 5395 0fae 25000000 		.4byte	0x25
 5396 0fb2 00000000 		.4byte	.LFB88
 5397 0fb6 1C000000 		.4byte	.LFE88-.LFB88
 5398 0fba 01       		.uleb128 0x1
 5399 0fbb 9C       		.byte	0x9c
 5400 0fbc 0B100000 		.4byte	0x100b
 5401 0fc0 2F       		.uleb128 0x2f
 5402 0fc1 61727900 		.ascii	"ary\000"
 5403 0fc5 01       		.byte	0x1
 5404 0fc6 8B       		.byte	0x8b
 5405 0fc7 57060000 		.4byte	0x657
 5406 0fcb DB060000 		.4byte	.LLST50
 5407 0fcf 30       		.uleb128 0x30
 5408 0fd0 43070000 		.4byte	.LASF91
 5409 0fd4 01       		.byte	0x1
 5410 0fd5 8B       		.byte	0x8b
 5411 0fd6 25000000 		.4byte	0x25
 5412 0fda FC060000 		.4byte	.LLST51
 5413 0fde 36       		.uleb128 0x36
 5414 0fdf 6800     		.ascii	"h\000"
 5415 0fe1 01       		.byte	0x1
 5416 0fe2 8D       		.byte	0x8d
ARM GAS  C:\Users\164\AppData\Local\Temp\ccuYWdBJ.s 			page 122


 5417 0fe3 750C0000 		.4byte	0xc75
 5418 0fe7 01       		.uleb128 0x1
 5419 0fe8 54       		.byte	0x54
 5420 0fe9 31       		.uleb128 0x31
 5421 0fea E7040000 		.4byte	.LASF131
 5422 0fee 01       		.byte	0x1
 5423 0fef 8F       		.byte	0x8f
 5424 0ff0 57060000 		.4byte	0x657
 5425 0ff4 1A070000 		.4byte	.LLST52
 5426 0ff8 26       		.uleb128 0x26
 5427 0ff9 0E000000 		.4byte	.LVL129
 5428 0ffd E2270000 		.4byte	0x27e2
 5429 1001 27       		.uleb128 0x27
 5430 1002 01       		.uleb128 0x1
 5431 1003 51       		.byte	0x51
 5432 1004 04       		.uleb128 0x4
 5433 1005 75       		.byte	0x75
 5434 1006 00       		.sleb128 0
 5435 1007 34       		.byte	0x34
 5436 1008 24       		.byte	0x24
 5437 1009 00       		.byte	0
 5438 100a 00       		.byte	0
 5439 100b 2E       		.uleb128 0x2e
 5440 100c C2070000 		.4byte	.LASF132
 5441 1010 01       		.byte	0x1
 5442 1011 A1       		.byte	0xa1
 5443 1012 25000000 		.4byte	0x25
 5444 1016 00000000 		.4byte	.LFB89
 5445 101a 68000000 		.4byte	.LFE89-.LFB89
 5446 101e 01       		.uleb128 0x1
 5447 101f 9C       		.byte	0x9c
 5448 1020 95100000 		.4byte	0x1095
 5449 1024 2F       		.uleb128 0x2f
 5450 1025 61727900 		.ascii	"ary\000"
 5451 1029 01       		.byte	0x1
 5452 102a A1       		.byte	0xa1
 5453 102b 57060000 		.4byte	0x657
 5454 102f 44070000 		.4byte	.LLST53
 5455 1033 2F       		.uleb128 0x2f
 5456 1034 69647800 		.ascii	"idx\000"
 5457 1038 01       		.byte	0x1
 5458 1039 A1       		.byte	0xa1
 5459 103a 25000000 		.4byte	0x25
 5460 103e 7E070000 		.4byte	.LLST54
 5461 1042 30       		.uleb128 0x30
 5462 1043 45020000 		.4byte	.LASF133
 5463 1047 01       		.byte	0x1
 5464 1048 A1       		.byte	0xa1
 5465 1049 57060000 		.4byte	0x657
 5466 104d B7070000 		.4byte	.LLST55
 5467 1051 36       		.uleb128 0x36
 5468 1052 6800     		.ascii	"h\000"
 5469 1054 01       		.byte	0x1
 5470 1055 A3       		.byte	0xa3
 5471 1056 750C0000 		.4byte	0xc75
 5472 105a 01       		.uleb128 0x1
 5473 105b 56       		.byte	0x56
ARM GAS  C:\Users\164\AppData\Local\Temp\ccuYWdBJ.s 			page 123


 5474 105c 2B       		.uleb128 0x2b
 5475 105d 30000000 		.4byte	.LBB51
 5476 1061 1E000000 		.4byte	.LBE51-.LBB51
 5477 1065 77100000 		.4byte	0x1077
 5478 1069 32       		.uleb128 0x32
 5479 106a 6900     		.ascii	"i\000"
 5480 106c 01       		.byte	0x1
 5481 106d B4       		.byte	0xb4
 5482 106e 25000000 		.4byte	0x25
 5483 1072 EB070000 		.4byte	.LLST56
 5484 1076 00       		.byte	0
 5485 1077 28       		.uleb128 0x28
 5486 1078 1C000000 		.4byte	.LVL137
 5487 107c A70F0000 		.4byte	0xfa7
 5488 1080 8B100000 		.4byte	0x108b
 5489 1084 27       		.uleb128 0x27
 5490 1085 01       		.uleb128 0x1
 5491 1086 51       		.byte	0x51
 5492 1087 02       		.uleb128 0x2
 5493 1088 75       		.byte	0x75
 5494 1089 01       		.sleb128 1
 5495 108a 00       		.byte	0
 5496 108b 33       		.uleb128 0x33
 5497 108c 2E000000 		.4byte	.LVL138
 5498 1090 4A270000 		.4byte	0x274a
 5499 1094 00       		.byte	0
 5500 1095 1E       		.uleb128 0x1e
 5501 1096 0D020000 		.4byte	.LASF134
 5502 109a 01       		.byte	0x1
 5503 109b 4102     		.2byte	0x241
 5504 109d 00000000 		.4byte	.LFB103
 5505 10a1 34000000 		.4byte	.LFE103-.LFB103
 5506 10a5 01       		.uleb128 0x1
 5507 10a6 9C       		.byte	0x9c
 5508 10a7 2E110000 		.4byte	0x112e
 5509 10ab 1F       		.uleb128 0x1f
 5510 10ac 766D00   		.ascii	"vm\000"
 5511 10af 01       		.byte	0x1
 5512 10b0 4102     		.2byte	0x241
 5513 10b2 47010000 		.4byte	0x147
 5514 10b6 FE070000 		.4byte	.LLST57
 5515 10ba 1F       		.uleb128 0x1f
 5516 10bb 7600     		.ascii	"v\000"
 5517 10bd 01       		.byte	0x1
 5518 10be 4102     		.2byte	0x241
 5519 10c0 57060000 		.4byte	0x657
 5520 10c4 38080000 		.4byte	.LLST58
 5521 10c8 20       		.uleb128 0x20
 5522 10c9 3F090000 		.4byte	.LASF116
 5523 10cd 01       		.byte	0x1
 5524 10ce 4102     		.2byte	0x241
 5525 10d0 25000000 		.4byte	0x25
 5526 10d4 6F080000 		.4byte	.LLST59
 5527 10d8 22       		.uleb128 0x22
 5528 10d9 5B0D0000 		.4byte	0xd5b
 5529 10dd 24000000 		.4byte	.LBB54
 5530 10e1 10000000 		.4byte	.LBE54-.LBB54
ARM GAS  C:\Users\164\AppData\Local\Temp\ccuYWdBJ.s 			page 124


 5531 10e5 01       		.byte	0x1
 5532 10e6 5602     		.2byte	0x256
 5533 10e8 17110000 		.4byte	0x1117
 5534 10ec 37       		.uleb128 0x37
 5535 10ed 670D0000 		.4byte	0xd67
 5536 10f1 06       		.uleb128 0x6
 5537 10f2 03       		.byte	0x3
 5538 10f3 18000000 		.4byte	.LC3
 5539 10f7 9F       		.byte	0x9f
 5540 10f8 26       		.uleb128 0x26
 5541 10f9 2E000000 		.4byte	.LVL155
 5542 10fd B6270000 		.4byte	0x27b6
 5543 1101 27       		.uleb128 0x27
 5544 1102 01       		.uleb128 0x1
 5545 1103 50       		.byte	0x50
 5546 1104 01       		.uleb128 0x1
 5547 1105 31       		.byte	0x31
 5548 1106 27       		.uleb128 0x27
 5549 1107 01       		.uleb128 0x1
 5550 1108 51       		.byte	0x51
 5551 1109 05       		.uleb128 0x5
 5552 110a 03       		.byte	0x3
 5553 110b 18000000 		.4byte	.LC3
 5554 110f 27       		.uleb128 0x27
 5555 1110 01       		.uleb128 0x1
 5556 1111 52       		.byte	0x52
 5557 1112 02       		.uleb128 0x2
 5558 1113 08       		.byte	0x8
 5559 1114 23       		.byte	0x23
 5560 1115 00       		.byte	0
 5561 1116 00       		.byte	0
 5562 1117 26       		.uleb128 0x26
 5563 1118 1C000000 		.4byte	.LVL150
 5564 111c 0B100000 		.4byte	0x100b
 5565 1120 27       		.uleb128 0x27
 5566 1121 01       		.uleb128 0x1
 5567 1122 50       		.byte	0x50
 5568 1123 02       		.uleb128 0x2
 5569 1124 74       		.byte	0x74
 5570 1125 00       		.sleb128 0
 5571 1126 27       		.uleb128 0x27
 5572 1127 01       		.uleb128 0x1
 5573 1128 52       		.byte	0x52
 5574 1129 02       		.uleb128 0x2
 5575 112a 74       		.byte	0x74
 5576 112b 20       		.sleb128 32
 5577 112c 00       		.byte	0
 5578 112d 00       		.byte	0
 5579 112e 1E       		.uleb128 0x1e
 5580 112f FF000000 		.4byte	.LASF135
 5581 1133 01       		.byte	0x1
 5582 1134 B501     		.2byte	0x1b5
 5583 1136 00000000 		.4byte	.LFB100
 5584 113a F8000000 		.4byte	.LFE100-.LFB100
 5585 113e 01       		.uleb128 0x1
 5586 113f 9C       		.byte	0x9c
 5587 1140 3E130000 		.4byte	0x133e
ARM GAS  C:\Users\164\AppData\Local\Temp\ccuYWdBJ.s 			page 125


 5588 1144 1F       		.uleb128 0x1f
 5589 1145 766D00   		.ascii	"vm\000"
 5590 1148 01       		.byte	0x1
 5591 1149 B501     		.2byte	0x1b5
 5592 114b 47010000 		.4byte	0x147
 5593 114f A9080000 		.4byte	.LLST60
 5594 1153 1F       		.uleb128 0x1f
 5595 1154 7600     		.ascii	"v\000"
 5596 1156 01       		.byte	0x1
 5597 1157 B501     		.2byte	0x1b5
 5598 1159 57060000 		.4byte	0x657
 5599 115d 36090000 		.4byte	.LLST61
 5600 1161 20       		.uleb128 0x20
 5601 1162 3F090000 		.4byte	.LASF116
 5602 1166 01       		.byte	0x1
 5603 1167 B501     		.2byte	0x1b5
 5604 1169 25000000 		.4byte	0x25
 5605 116d A4090000 		.4byte	.LLST62
 5606 1171 2B       		.uleb128 0x2b
 5607 1172 08000000 		.4byte	.LBB64
 5608 1176 2A000000 		.4byte	.LBE64-.LBB64
 5609 117a D9110000 		.4byte	0x11d9
 5610 117e 25       		.uleb128 0x25
 5611 117f 72657400 		.ascii	"ret\000"
 5612 1183 01       		.byte	0x1
 5613 1184 BB01     		.2byte	0x1bb
 5614 1186 06050000 		.4byte	0x506
 5615 118a 02       		.uleb128 0x2
 5616 118b 91       		.byte	0x91
 5617 118c 50       		.sleb128 -48
 5618 118d 2B       		.uleb128 0x2b
 5619 118e 16000000 		.4byte	.LBB65
 5620 1192 18000000 		.4byte	.LBE65-.LBB65
 5621 1196 BA110000 		.4byte	0x11ba
 5622 119a 25       		.uleb128 0x25
 5623 119b 6E6E6E00 		.ascii	"nnn\000"
 5624 119f 01       		.byte	0x1
 5625 11a0 BE01     		.2byte	0x1be
 5626 11a2 06050000 		.4byte	0x506
 5627 11a6 02       		.uleb128 0x2
 5628 11a7 91       		.byte	0x91
 5629 11a8 60       		.sleb128 -32
 5630 11a9 26       		.uleb128 0x26
 5631 11aa 26000000 		.4byte	.LVL160
 5632 11ae 4A270000 		.4byte	0x274a
 5633 11b2 27       		.uleb128 0x27
 5634 11b3 01       		.uleb128 0x1
 5635 11b4 50       		.byte	0x50
 5636 11b5 02       		.uleb128 0x2
 5637 11b6 74       		.byte	0x74
 5638 11b7 00       		.sleb128 0
 5639 11b8 00       		.byte	0
 5640 11b9 00       		.byte	0
 5641 11ba 26       		.uleb128 0x26
 5642 11bb 10000000 		.4byte	.LVL159
 5643 11bf CE0B0000 		.4byte	0xbce
 5644 11c3 27       		.uleb128 0x27
ARM GAS  C:\Users\164\AppData\Local\Temp\ccuYWdBJ.s 			page 126


 5645 11c4 01       		.uleb128 0x1
 5646 11c5 50       		.byte	0x50
 5647 11c6 02       		.uleb128 0x2
 5648 11c7 91       		.byte	0x91
 5649 11c8 50       		.sleb128 -48
 5650 11c9 27       		.uleb128 0x27
 5651 11ca 01       		.uleb128 0x1
 5652 11cb 51       		.byte	0x51
 5653 11cc 03       		.uleb128 0x3
 5654 11cd F3       		.byte	0xf3
 5655 11ce 01       		.uleb128 0x1
 5656 11cf 50       		.byte	0x50
 5657 11d0 27       		.uleb128 0x27
 5658 11d1 01       		.uleb128 0x1
 5659 11d2 52       		.byte	0x52
 5660 11d3 03       		.uleb128 0x3
 5661 11d4 F3       		.byte	0xf3
 5662 11d5 01       		.uleb128 0x1
 5663 11d6 52       		.byte	0x52
 5664 11d7 00       		.byte	0
 5665 11d8 00       		.byte	0
 5666 11d9 2B       		.uleb128 0x2b
 5667 11da 44000000 		.4byte	.LBB66
 5668 11de 48000000 		.4byte	.LBE66-.LBB66
 5669 11e2 63120000 		.4byte	0x1263
 5670 11e6 25       		.uleb128 0x25
 5671 11e7 72657400 		.ascii	"ret\000"
 5672 11eb 01       		.byte	0x1
 5673 11ec C601     		.2byte	0x1c6
 5674 11ee 06050000 		.4byte	0x506
 5675 11f2 02       		.uleb128 0x2
 5676 11f3 91       		.byte	0x91
 5677 11f4 40       		.sleb128 -64
 5678 11f5 25       		.uleb128 0x25
 5679 11f6 6E696C00 		.ascii	"nil\000"
 5680 11fa 01       		.byte	0x1
 5681 11fb C901     		.2byte	0x1c9
 5682 11fd 06050000 		.4byte	0x506
 5683 1201 02       		.uleb128 0x2
 5684 1202 91       		.byte	0x91
 5685 1203 50       		.sleb128 -48
 5686 1204 2B       		.uleb128 0x2b
 5687 1205 72000000 		.4byte	.LBB67
 5688 1209 18000000 		.4byte	.LBE67-.LBB67
 5689 120d 31120000 		.4byte	0x1231
 5690 1211 25       		.uleb128 0x25
 5691 1212 6E6E6E00 		.ascii	"nnn\000"
 5692 1216 01       		.byte	0x1
 5693 1217 CD01     		.2byte	0x1cd
 5694 1219 06050000 		.4byte	0x506
 5695 121d 02       		.uleb128 0x2
 5696 121e 91       		.byte	0x91
 5697 121f 60       		.sleb128 -32
 5698 1220 26       		.uleb128 0x26
 5699 1221 82000000 		.4byte	.LVL167
 5700 1225 4A270000 		.4byte	0x274a
 5701 1229 27       		.uleb128 0x27
ARM GAS  C:\Users\164\AppData\Local\Temp\ccuYWdBJ.s 			page 127


 5702 122a 01       		.uleb128 0x1
 5703 122b 50       		.byte	0x50
 5704 122c 02       		.uleb128 0x2
 5705 122d 74       		.byte	0x74
 5706 122e 00       		.sleb128 0
 5707 122f 00       		.byte	0
 5708 1230 00       		.byte	0
 5709 1231 28       		.uleb128 0x28
 5710 1232 4C000000 		.4byte	.LVL165
 5711 1236 CE0B0000 		.4byte	0xbce
 5712 123a 4C120000 		.4byte	0x124c
 5713 123e 27       		.uleb128 0x27
 5714 123f 01       		.uleb128 0x1
 5715 1240 50       		.byte	0x50
 5716 1241 02       		.uleb128 0x2
 5717 1242 7D       		.byte	0x7d
 5718 1243 00       		.sleb128 0
 5719 1244 27       		.uleb128 0x27
 5720 1245 01       		.uleb128 0x1
 5721 1246 51       		.byte	0x51
 5722 1247 03       		.uleb128 0x3
 5723 1248 F3       		.byte	0xf3
 5724 1249 01       		.uleb128 0x1
 5725 124a 50       		.byte	0x50
 5726 124b 00       		.byte	0
 5727 124c 26       		.uleb128 0x26
 5728 124d 72000000 		.4byte	.LVL166
 5729 1251 0B100000 		.4byte	0x100b
 5730 1255 27       		.uleb128 0x27
 5731 1256 01       		.uleb128 0x1
 5732 1257 50       		.byte	0x50
 5733 1258 02       		.uleb128 0x2
 5734 1259 7D       		.byte	0x7d
 5735 125a 00       		.sleb128 0
 5736 125b 27       		.uleb128 0x27
 5737 125c 01       		.uleb128 0x1
 5738 125d 52       		.byte	0x52
 5739 125e 02       		.uleb128 0x2
 5740 125f 91       		.byte	0x91
 5741 1260 50       		.sleb128 -48
 5742 1261 00       		.byte	0
 5743 1262 00       		.byte	0
 5744 1263 2B       		.uleb128 0x2b
 5745 1264 9E000000 		.4byte	.LBB68
 5746 1268 46000000 		.4byte	.LBE68-.LBB68
 5747 126c 06130000 		.4byte	0x1306
 5748 1270 25       		.uleb128 0x25
 5749 1271 72657400 		.ascii	"ret\000"
 5750 1275 01       		.byte	0x1
 5751 1276 D501     		.2byte	0x1d5
 5752 1278 06050000 		.4byte	0x506
 5753 127c 02       		.uleb128 0x2
 5754 127d 91       		.byte	0x91
 5755 127e 50       		.sleb128 -48
 5756 127f 2A       		.uleb128 0x2a
 5757 1280 6900     		.ascii	"i\000"
 5758 1282 01       		.byte	0x1
ARM GAS  C:\Users\164\AppData\Local\Temp\ccuYWdBJ.s 			page 128


 5759 1283 D801     		.2byte	0x1d8
 5760 1285 25000000 		.4byte	0x25
 5761 1289 020A0000 		.4byte	.LLST63
 5762 128d 2B       		.uleb128 0x2b
 5763 128e CA000000 		.4byte	.LBB69
 5764 1292 18000000 		.4byte	.LBE69-.LBB69
 5765 1296 BA120000 		.4byte	0x12ba
 5766 129a 25       		.uleb128 0x25
 5767 129b 6E6E6E00 		.ascii	"nnn\000"
 5768 129f 01       		.byte	0x1
 5769 12a0 DD01     		.2byte	0x1dd
 5770 12a2 06050000 		.4byte	0x506
 5771 12a6 02       		.uleb128 0x2
 5772 12a7 91       		.byte	0x91
 5773 12a8 60       		.sleb128 -32
 5774 12a9 26       		.uleb128 0x26
 5775 12aa DA000000 		.4byte	.LVL178
 5776 12ae 4A270000 		.4byte	0x274a
 5777 12b2 27       		.uleb128 0x27
 5778 12b3 01       		.uleb128 0x1
 5779 12b4 50       		.byte	0x50
 5780 12b5 02       		.uleb128 0x2
 5781 12b6 74       		.byte	0x74
 5782 12b7 00       		.sleb128 0
 5783 12b8 00       		.byte	0
 5784 12b9 00       		.byte	0
 5785 12ba 28       		.uleb128 0x28
 5786 12bb A6000000 		.4byte	.LVL172
 5787 12bf CE0B0000 		.4byte	0xbce
 5788 12c3 D5120000 		.4byte	0x12d5
 5789 12c7 27       		.uleb128 0x27
 5790 12c8 01       		.uleb128 0x1
 5791 12c9 50       		.byte	0x50
 5792 12ca 02       		.uleb128 0x2
 5793 12cb 91       		.byte	0x91
 5794 12cc 50       		.sleb128 -48
 5795 12cd 27       		.uleb128 0x27
 5796 12ce 01       		.uleb128 0x1
 5797 12cf 51       		.byte	0x51
 5798 12d0 03       		.uleb128 0x3
 5799 12d1 F3       		.byte	0xf3
 5800 12d2 01       		.uleb128 0x1
 5801 12d3 50       		.byte	0x50
 5802 12d4 00       		.byte	0
 5803 12d5 28       		.uleb128 0x28
 5804 12d6 B8000000 		.4byte	.LVL174
 5805 12da AB270000 		.4byte	0x27ab
 5806 12de E9120000 		.4byte	0x12e9
 5807 12e2 27       		.uleb128 0x27
 5808 12e3 01       		.uleb128 0x1
 5809 12e4 50       		.byte	0x50
 5810 12e5 02       		.uleb128 0x2
 5811 12e6 76       		.byte	0x76
 5812 12e7 00       		.sleb128 0
 5813 12e8 00       		.byte	0
 5814 12e9 26       		.uleb128 0x26
 5815 12ea C2000000 		.4byte	.LVL175
ARM GAS  C:\Users\164\AppData\Local\Temp\ccuYWdBJ.s 			page 129


 5816 12ee 0B100000 		.4byte	0x100b
 5817 12f2 27       		.uleb128 0x27
 5818 12f3 01       		.uleb128 0x1
 5819 12f4 50       		.byte	0x50
 5820 12f5 02       		.uleb128 0x2
 5821 12f6 91       		.byte	0x91
 5822 12f7 50       		.sleb128 -48
 5823 12f8 27       		.uleb128 0x27
 5824 12f9 01       		.uleb128 0x1
 5825 12fa 51       		.byte	0x51
 5826 12fb 02       		.uleb128 0x2
 5827 12fc 75       		.byte	0x75
 5828 12fd 00       		.sleb128 0
 5829 12fe 27       		.uleb128 0x27
 5830 12ff 01       		.uleb128 0x1
 5831 1300 52       		.byte	0x52
 5832 1301 02       		.uleb128 0x2
 5833 1302 76       		.byte	0x76
 5834 1303 00       		.sleb128 0
 5835 1304 00       		.byte	0
 5836 1305 00       		.byte	0
 5837 1306 38       		.uleb128 0x38
 5838 1307 5B0D0000 		.4byte	0xd5b
 5839 130b E4000000 		.4byte	.LBB70
 5840 130f 0A000000 		.4byte	.LBE70-.LBB70
 5841 1313 01       		.byte	0x1
 5842 1314 E401     		.2byte	0x1e4
 5843 1316 23       		.uleb128 0x23
 5844 1317 670D0000 		.4byte	0xd67
 5845 131b 150A0000 		.4byte	.LLST64
 5846 131f 26       		.uleb128 0x26
 5847 1320 EE000000 		.4byte	.LVL182
 5848 1324 B6270000 		.4byte	0x27b6
 5849 1328 27       		.uleb128 0x27
 5850 1329 01       		.uleb128 0x1
 5851 132a 50       		.byte	0x50
 5852 132b 01       		.uleb128 0x1
 5853 132c 31       		.byte	0x31
 5854 132d 27       		.uleb128 0x27
 5855 132e 01       		.uleb128 0x1
 5856 132f 51       		.byte	0x51
 5857 1330 05       		.uleb128 0x5
 5858 1331 03       		.byte	0x3
 5859 1332 3C000000 		.4byte	.LC4
 5860 1336 27       		.uleb128 0x27
 5861 1337 01       		.uleb128 0x1
 5862 1338 52       		.byte	0x52
 5863 1339 01       		.uleb128 0x1
 5864 133a 3E       		.byte	0x3e
 5865 133b 00       		.byte	0
 5866 133c 00       		.byte	0
 5867 133d 00       		.byte	0
 5868 133e 2E       		.uleb128 0x2e
 5869 133f D8040000 		.4byte	.LASF136
 5870 1343 01       		.byte	0x1
 5871 1344 C8       		.byte	0xc8
 5872 1345 06050000 		.4byte	0x506
ARM GAS  C:\Users\164\AppData\Local\Temp\ccuYWdBJ.s 			page 130


 5873 1349 00000000 		.4byte	.LFB90
 5874 134d 3A000000 		.4byte	.LFE90-.LFB90
 5875 1351 01       		.uleb128 0x1
 5876 1352 9C       		.byte	0x9c
 5877 1353 83130000 		.4byte	0x1383
 5878 1357 2F       		.uleb128 0x2f
 5879 1358 61727900 		.ascii	"ary\000"
 5880 135c 01       		.byte	0x1
 5881 135d C8       		.byte	0xc8
 5882 135e 57060000 		.4byte	0x657
 5883 1362 2D0A0000 		.4byte	.LLST65
 5884 1366 2F       		.uleb128 0x2f
 5885 1367 69647800 		.ascii	"idx\000"
 5886 136b 01       		.byte	0x1
 5887 136c C8       		.byte	0xc8
 5888 136d 25000000 		.4byte	0x25
 5889 1371 4E0A0000 		.4byte	.LLST66
 5890 1375 32       		.uleb128 0x32
 5891 1376 6800     		.ascii	"h\000"
 5892 1378 01       		.byte	0x1
 5893 1379 CA       		.byte	0xca
 5894 137a 750C0000 		.4byte	0xc75
 5895 137e 6C0A0000 		.4byte	.LLST67
 5896 1382 00       		.byte	0
 5897 1383 1E       		.uleb128 0x1e
 5898 1384 C8040000 		.4byte	.LASF137
 5899 1388 01       		.byte	0x1
 5900 1389 5B03     		.2byte	0x35b
 5901 138b 00000000 		.4byte	.LFB119
 5902 138f A8000000 		.4byte	.LFE119-.LFB119
 5903 1393 01       		.uleb128 0x1
 5904 1394 9C       		.byte	0x9c
 5905 1395 5A150000 		.4byte	0x155a
 5906 1399 1F       		.uleb128 0x1f
 5907 139a 766D00   		.ascii	"vm\000"
 5908 139d 01       		.byte	0x1
 5909 139e 5B03     		.2byte	0x35b
 5910 13a0 47010000 		.4byte	0x147
 5911 13a4 A80A0000 		.4byte	.LLST68
 5912 13a8 1F       		.uleb128 0x1f
 5913 13a9 7600     		.ascii	"v\000"
 5914 13ab 01       		.byte	0x1
 5915 13ac 5B03     		.2byte	0x35b
 5916 13ae 57060000 		.4byte	0x657
 5917 13b2 DF0A0000 		.4byte	.LLST69
 5918 13b6 20       		.uleb128 0x20
 5919 13b7 3F090000 		.4byte	.LASF116
 5920 13bb 01       		.byte	0x1
 5921 13bc 5B03     		.2byte	0x35b
 5922 13be 25000000 		.4byte	0x25
 5923 13c2 0B0B0000 		.4byte	.LLST70
 5924 13c6 25       		.uleb128 0x25
 5925 13c7 72657400 		.ascii	"ret\000"
 5926 13cb 01       		.byte	0x1
 5927 13cc 5D03     		.2byte	0x35d
 5928 13ce 06050000 		.4byte	0x506
 5929 13d2 02       		.uleb128 0x2
ARM GAS  C:\Users\164\AppData\Local\Temp\ccuYWdBJ.s 			page 131


 5930 13d3 91       		.byte	0x91
 5931 13d4 58       		.sleb128 -40
 5932 13d5 2D       		.uleb128 0x2d
 5933 13d6 2F090000 		.4byte	.LASF138
 5934 13da 01       		.byte	0x1
 5935 13db 6F03     		.2byte	0x36f
 5936 13dd 88000000 		.4byte	.L99
 5937 13e1 2A       		.uleb128 0x2a
 5938 13e2 6900     		.ascii	"i\000"
 5939 13e4 01       		.byte	0x1
 5940 13e5 6003     		.2byte	0x360
 5941 13e7 25000000 		.4byte	0x25
 5942 13eb 370B0000 		.4byte	.LLST71
 5943 13ef 2B       		.uleb128 0x2b
 5944 13f0 20000000 		.4byte	.LBB72
 5945 13f4 3A000000 		.4byte	.LBE72-.LBB72
 5946 13f8 BE140000 		.4byte	0x14be
 5947 13fc 25       		.uleb128 0x25
 5948 13fd 763100   		.ascii	"v1\000"
 5949 1400 01       		.byte	0x1
 5950 1401 6403     		.2byte	0x364
 5951 1403 06050000 		.4byte	0x506
 5952 1407 03       		.uleb128 0x3
 5953 1408 91       		.byte	0x91
 5954 1409 B87F     		.sleb128 -72
 5955 140b 25       		.uleb128 0x25
 5956 140c 733100   		.ascii	"s1\000"
 5957 140f 01       		.byte	0x1
 5958 1410 6503     		.2byte	0x365
 5959 1412 06050000 		.4byte	0x506
 5960 1416 02       		.uleb128 0x2
 5961 1417 91       		.byte	0x91
 5962 1418 48       		.sleb128 -56
 5963 1419 28       		.uleb128 0x28
 5964 141a 2A000000 		.4byte	.LVL200
 5965 141e ED270000 		.4byte	0x27ed
 5966 1422 36140000 		.4byte	0x1436
 5967 1426 27       		.uleb128 0x27
 5968 1427 01       		.uleb128 0x1
 5969 1428 50       		.byte	0x50
 5970 1429 02       		.uleb128 0x2
 5971 142a 91       		.byte	0x91
 5972 142b 58       		.sleb128 -40
 5973 142c 27       		.uleb128 0x27
 5974 142d 01       		.uleb128 0x1
 5975 142e 51       		.byte	0x51
 5976 142f 05       		.uleb128 0x5
 5977 1430 03       		.byte	0x3
 5978 1431 50000000 		.4byte	.LC6
 5979 1435 00       		.byte	0
 5980 1436 28       		.uleb128 0x28
 5981 1437 36000000 		.4byte	.LVL201
 5982 143b 3E130000 		.4byte	0x133e
 5983 143f 56140000 		.4byte	0x1456
 5984 1443 27       		.uleb128 0x27
 5985 1444 01       		.uleb128 0x1
 5986 1445 50       		.byte	0x50
ARM GAS  C:\Users\164\AppData\Local\Temp\ccuYWdBJ.s 			page 132


 5987 1446 02       		.uleb128 0x2
 5988 1447 76       		.byte	0x76
 5989 1448 00       		.sleb128 0
 5990 1449 27       		.uleb128 0x27
 5991 144a 01       		.uleb128 0x1
 5992 144b 51       		.byte	0x51
 5993 144c 02       		.uleb128 0x2
 5994 144d 75       		.byte	0x75
 5995 144e 00       		.sleb128 0
 5996 144f 27       		.uleb128 0x27
 5997 1450 01       		.uleb128 0x1
 5998 1451 52       		.byte	0x52
 5999 1452 02       		.uleb128 0x2
 6000 1453 74       		.byte	0x74
 6001 1454 00       		.sleb128 0
 6002 1455 00       		.byte	0
 6003 1456 28       		.uleb128 0x28
 6004 1457 4C000000 		.4byte	.LVL202
 6005 145b 60270000 		.4byte	0x2760
 6006 145f 93140000 		.4byte	0x1493
 6007 1463 27       		.uleb128 0x27
 6008 1464 01       		.uleb128 0x1
 6009 1465 50       		.byte	0x50
 6010 1466 02       		.uleb128 0x2
 6011 1467 91       		.byte	0x91
 6012 1468 48       		.sleb128 -56
 6013 1469 27       		.uleb128 0x27
 6014 146a 01       		.uleb128 0x1
 6015 146b 51       		.byte	0x51
 6016 146c 02       		.uleb128 0x2
 6017 146d 77       		.byte	0x77
 6018 146e 00       		.sleb128 0
 6019 146f 27       		.uleb128 0x27
 6020 1470 01       		.uleb128 0x1
 6021 1471 52       		.byte	0x52
 6022 1472 02       		.uleb128 0x2
 6023 1473 75       		.byte	0x75
 6024 1474 00       		.sleb128 0
 6025 1475 27       		.uleb128 0x27
 6026 1476 01       		.uleb128 0x1
 6027 1477 53       		.byte	0x53
 6028 1478 02       		.uleb128 0x2
 6029 1479 78       		.byte	0x78
 6030 147a 00       		.sleb128 0
 6031 147b 27       		.uleb128 0x27
 6032 147c 02       		.uleb128 0x2
 6033 147d 7D       		.byte	0x7d
 6034 147e 00       		.sleb128 0
 6035 147f 02       		.uleb128 0x2
 6036 1480 76       		.byte	0x76
 6037 1481 00       		.sleb128 0
 6038 1482 27       		.uleb128 0x27
 6039 1483 02       		.uleb128 0x2
 6040 1484 7D       		.byte	0x7d
 6041 1485 04       		.sleb128 4
 6042 1486 05       		.uleb128 0x5
 6043 1487 03       		.byte	0x3
ARM GAS  C:\Users\164\AppData\Local\Temp\ccuYWdBJ.s 			page 133


 6044 1488 54000000 		.4byte	.LC7
 6045 148c 27       		.uleb128 0x27
 6046 148d 02       		.uleb128 0x2
 6047 148e 7D       		.byte	0x7d
 6048 148f 08       		.sleb128 8
 6049 1490 01       		.uleb128 0x1
 6050 1491 30       		.byte	0x30
 6051 1492 00       		.byte	0
 6052 1493 28       		.uleb128 0x28
 6053 1494 54000000 		.4byte	.LVL203
 6054 1498 6B270000 		.4byte	0x276b
 6055 149c AD140000 		.4byte	0x14ad
 6056 14a0 27       		.uleb128 0x27
 6057 14a1 01       		.uleb128 0x1
 6058 14a2 50       		.byte	0x50
 6059 14a3 02       		.uleb128 0x2
 6060 14a4 91       		.byte	0x91
 6061 14a5 58       		.sleb128 -40
 6062 14a6 27       		.uleb128 0x27
 6063 14a7 01       		.uleb128 0x1
 6064 14a8 51       		.byte	0x51
 6065 14a9 02       		.uleb128 0x2
 6066 14aa 91       		.byte	0x91
 6067 14ab 48       		.sleb128 -56
 6068 14ac 00       		.byte	0
 6069 14ad 26       		.uleb128 0x26
 6070 14ae 5A000000 		.4byte	.LVL204
 6071 14b2 F8270000 		.4byte	0x27f8
 6072 14b6 27       		.uleb128 0x27
 6073 14b7 01       		.uleb128 0x1
 6074 14b8 50       		.byte	0x50
 6075 14b9 02       		.uleb128 0x2
 6076 14ba 91       		.byte	0x91
 6077 14bb 48       		.sleb128 -56
 6078 14bc 00       		.byte	0
 6079 14bd 00       		.byte	0
 6080 14be 22       		.uleb128 0x22
 6081 14bf A6060000 		.4byte	0x6a6
 6082 14c3 5C000000 		.4byte	.LBB73
 6083 14c7 04000000 		.4byte	.LBE73-.LBB73
 6084 14cb 01       		.byte	0x1
 6085 14cc 6103     		.2byte	0x361
 6086 14ce DC140000 		.4byte	0x14dc
 6087 14d2 23       		.uleb128 0x23
 6088 14d3 B6060000 		.4byte	0x6b6
 6089 14d7 4A0B0000 		.4byte	.LLST72
 6090 14db 00       		.byte	0
 6091 14dc 2B       		.uleb128 0x2b
 6092 14dd 6E000000 		.4byte	.LBB75
 6093 14e1 1A000000 		.4byte	.LBE75-.LBB75
 6094 14e5 09150000 		.4byte	0x1509
 6095 14e9 25       		.uleb128 0x25
 6096 14ea 6E6E6E00 		.ascii	"nnn\000"
 6097 14ee 01       		.byte	0x1
 6098 14ef 6C03     		.2byte	0x36c
 6099 14f1 06050000 		.4byte	0x506
 6100 14f5 02       		.uleb128 0x2
ARM GAS  C:\Users\164\AppData\Local\Temp\ccuYWdBJ.s 			page 134


 6101 14f6 91       		.byte	0x91
 6102 14f7 48       		.sleb128 -56
 6103 14f8 26       		.uleb128 0x26
 6104 14f9 7E000000 		.4byte	.LVL209
 6105 14fd 4A270000 		.4byte	0x274a
 6106 1501 27       		.uleb128 0x27
 6107 1502 01       		.uleb128 0x1
 6108 1503 50       		.byte	0x50
 6109 1504 02       		.uleb128 0x2
 6110 1505 75       		.byte	0x75
 6111 1506 00       		.sleb128 0
 6112 1507 00       		.byte	0
 6113 1508 00       		.byte	0
 6114 1509 28       		.uleb128 0x28
 6115 150a 16000000 		.4byte	.LVL198
 6116 150e 81270000 		.4byte	0x2781
 6117 1512 2C150000 		.4byte	0x152c
 6118 1516 27       		.uleb128 0x27
 6119 1517 01       		.uleb128 0x1
 6120 1518 50       		.byte	0x50
 6121 1519 02       		.uleb128 0x2
 6122 151a 91       		.byte	0x91
 6123 151b 58       		.sleb128 -40
 6124 151c 27       		.uleb128 0x27
 6125 151d 01       		.uleb128 0x1
 6126 151e 51       		.byte	0x51
 6127 151f 02       		.uleb128 0x2
 6128 1520 77       		.byte	0x77
 6129 1521 00       		.sleb128 0
 6130 1522 27       		.uleb128 0x27
 6131 1523 01       		.uleb128 0x1
 6132 1524 52       		.byte	0x52
 6133 1525 05       		.uleb128 0x5
 6134 1526 03       		.byte	0x3
 6135 1527 4C000000 		.4byte	.LC5
 6136 152b 00       		.byte	0
 6137 152c 28       		.uleb128 0x28
 6138 152d 6E000000 		.4byte	.LVL207
 6139 1531 ED270000 		.4byte	0x27ed
 6140 1535 49150000 		.4byte	0x1549
 6141 1539 27       		.uleb128 0x27
 6142 153a 01       		.uleb128 0x1
 6143 153b 50       		.byte	0x50
 6144 153c 02       		.uleb128 0x2
 6145 153d 76       		.byte	0x76
 6146 153e 00       		.sleb128 0
 6147 153f 27       		.uleb128 0x27
 6148 1540 01       		.uleb128 0x1
 6149 1541 51       		.byte	0x51
 6150 1542 05       		.uleb128 0x5
 6151 1543 03       		.byte	0x3
 6152 1544 5C000000 		.4byte	.LC8
 6153 1548 00       		.byte	0
 6154 1549 26       		.uleb128 0x26
 6155 154a 8E000000 		.4byte	.LVL210
 6156 154e 4A270000 		.4byte	0x274a
 6157 1552 27       		.uleb128 0x27
ARM GAS  C:\Users\164\AppData\Local\Temp\ccuYWdBJ.s 			page 135


 6158 1553 01       		.uleb128 0x1
 6159 1554 50       		.byte	0x50
 6160 1555 02       		.uleb128 0x2
 6161 1556 75       		.byte	0x75
 6162 1557 00       		.sleb128 0
 6163 1558 00       		.byte	0
 6164 1559 00       		.byte	0
 6165 155a 1E       		.uleb128 0x1e
 6166 155b 6C070000 		.4byte	.LASF139
 6167 155f 01       		.byte	0x1
 6168 1560 AB02     		.2byte	0x2ab
 6169 1562 00000000 		.4byte	.LFB110
 6170 1566 32000000 		.4byte	.LFE110-.LFB110
 6171 156a 01       		.uleb128 0x1
 6172 156b 9C       		.byte	0x9c
 6173 156c 0A160000 		.4byte	0x160a
 6174 1570 1F       		.uleb128 0x1f
 6175 1571 766D00   		.ascii	"vm\000"
 6176 1574 01       		.byte	0x1
 6177 1575 AB02     		.2byte	0x2ab
 6178 1577 47010000 		.4byte	0x147
 6179 157b 5D0B0000 		.4byte	.LLST73
 6180 157f 1F       		.uleb128 0x1f
 6181 1580 7600     		.ascii	"v\000"
 6182 1582 01       		.byte	0x1
 6183 1583 AB02     		.2byte	0x2ab
 6184 1585 57060000 		.4byte	0x657
 6185 1589 7E0B0000 		.4byte	.LLST74
 6186 158d 20       		.uleb128 0x20
 6187 158e 3F090000 		.4byte	.LASF116
 6188 1592 01       		.byte	0x1
 6189 1593 AB02     		.2byte	0x2ab
 6190 1595 25000000 		.4byte	0x25
 6191 1599 9C0B0000 		.4byte	.LLST75
 6192 159d 25       		.uleb128 0x25
 6193 159e 76616C00 		.ascii	"val\000"
 6194 15a2 01       		.byte	0x1
 6195 15a3 AD02     		.2byte	0x2ad
 6196 15a5 06050000 		.4byte	0x506
 6197 15a9 02       		.uleb128 0x2
 6198 15aa 91       		.byte	0x91
 6199 15ab 60       		.sleb128 -32
 6200 15ac 2B       		.uleb128 0x2b
 6201 15ad 18000000 		.4byte	.LBB76
 6202 15b1 16000000 		.4byte	.LBE76-.LBB76
 6203 15b5 D9150000 		.4byte	0x15d9
 6204 15b9 25       		.uleb128 0x25
 6205 15ba 6E6E6E00 		.ascii	"nnn\000"
 6206 15be 01       		.byte	0x1
 6207 15bf AF02     		.2byte	0x2af
 6208 15c1 06050000 		.4byte	0x506
 6209 15c5 02       		.uleb128 0x2
 6210 15c6 91       		.byte	0x91
 6211 15c7 50       		.sleb128 -48
 6212 15c8 26       		.uleb128 0x26
 6213 15c9 26000000 		.4byte	.LVL217
 6214 15cd 4A270000 		.4byte	0x274a
ARM GAS  C:\Users\164\AppData\Local\Temp\ccuYWdBJ.s 			page 136


 6215 15d1 27       		.uleb128 0x27
 6216 15d2 01       		.uleb128 0x1
 6217 15d3 50       		.byte	0x50
 6218 15d4 02       		.uleb128 0x2
 6219 15d5 76       		.byte	0x76
 6220 15d6 00       		.sleb128 0
 6221 15d7 00       		.byte	0
 6222 15d8 00       		.byte	0
 6223 15d9 28       		.uleb128 0x28
 6224 15da 12000000 		.4byte	.LVL215
 6225 15de 3E130000 		.4byte	0x133e
 6226 15e2 F9150000 		.4byte	0x15f9
 6227 15e6 27       		.uleb128 0x27
 6228 15e7 01       		.uleb128 0x1
 6229 15e8 50       		.byte	0x50
 6230 15e9 02       		.uleb128 0x2
 6231 15ea 75       		.byte	0x75
 6232 15eb 00       		.sleb128 0
 6233 15ec 27       		.uleb128 0x27
 6234 15ed 01       		.uleb128 0x1
 6235 15ee 51       		.byte	0x51
 6236 15ef 02       		.uleb128 0x2
 6237 15f0 76       		.byte	0x76
 6238 15f1 00       		.sleb128 0
 6239 15f2 27       		.uleb128 0x27
 6240 15f3 01       		.uleb128 0x1
 6241 15f4 52       		.byte	0x52
 6242 15f5 02       		.uleb128 0x2
 6243 15f6 09       		.byte	0x9
 6244 15f7 FF       		.byte	0xff
 6245 15f8 00       		.byte	0
 6246 15f9 26       		.uleb128 0x26
 6247 15fa 18000000 		.4byte	.LVL216
 6248 15fe AB270000 		.4byte	0x27ab
 6249 1602 27       		.uleb128 0x27
 6250 1603 01       		.uleb128 0x1
 6251 1604 50       		.byte	0x50
 6252 1605 02       		.uleb128 0x2
 6253 1606 75       		.byte	0x75
 6254 1607 00       		.sleb128 0
 6255 1608 00       		.byte	0
 6256 1609 00       		.byte	0
 6257 160a 1E       		.uleb128 0x1e
 6258 160b FF040000 		.4byte	.LASF140
 6259 160f 01       		.byte	0x1
 6260 1610 A002     		.2byte	0x2a0
 6261 1612 00000000 		.4byte	.LFB109
 6262 1616 30000000 		.4byte	.LFE109-.LFB109
 6263 161a 01       		.uleb128 0x1
 6264 161b 9C       		.byte	0x9c
 6265 161c B9160000 		.4byte	0x16b9
 6266 1620 1F       		.uleb128 0x1f
 6267 1621 766D00   		.ascii	"vm\000"
 6268 1624 01       		.byte	0x1
 6269 1625 A002     		.2byte	0x2a0
 6270 1627 47010000 		.4byte	0x147
 6271 162b BD0B0000 		.4byte	.LLST76
ARM GAS  C:\Users\164\AppData\Local\Temp\ccuYWdBJ.s 			page 137


 6272 162f 1F       		.uleb128 0x1f
 6273 1630 7600     		.ascii	"v\000"
 6274 1632 01       		.byte	0x1
 6275 1633 A002     		.2byte	0x2a0
 6276 1635 57060000 		.4byte	0x657
 6277 1639 DE0B0000 		.4byte	.LLST77
 6278 163d 20       		.uleb128 0x20
 6279 163e 3F090000 		.4byte	.LASF116
 6280 1642 01       		.byte	0x1
 6281 1643 A002     		.2byte	0x2a0
 6282 1645 25000000 		.4byte	0x25
 6283 1649 FC0B0000 		.4byte	.LLST78
 6284 164d 25       		.uleb128 0x25
 6285 164e 76616C00 		.ascii	"val\000"
 6286 1652 01       		.byte	0x1
 6287 1653 A202     		.2byte	0x2a2
 6288 1655 06050000 		.4byte	0x506
 6289 1659 02       		.uleb128 0x2
 6290 165a 91       		.byte	0x91
 6291 165b 60       		.sleb128 -32
 6292 165c 2B       		.uleb128 0x2b
 6293 165d 16000000 		.4byte	.LBB77
 6294 1661 16000000 		.4byte	.LBE77-.LBB77
 6295 1665 89160000 		.4byte	0x1689
 6296 1669 25       		.uleb128 0x25
 6297 166a 6E6E6E00 		.ascii	"nnn\000"
 6298 166e 01       		.byte	0x1
 6299 166f A402     		.2byte	0x2a4
 6300 1671 06050000 		.4byte	0x506
 6301 1675 02       		.uleb128 0x2
 6302 1676 91       		.byte	0x91
 6303 1677 50       		.sleb128 -48
 6304 1678 26       		.uleb128 0x26
 6305 1679 24000000 		.4byte	.LVL223
 6306 167d 4A270000 		.4byte	0x274a
 6307 1681 27       		.uleb128 0x27
 6308 1682 01       		.uleb128 0x1
 6309 1683 50       		.byte	0x50
 6310 1684 02       		.uleb128 0x2
 6311 1685 76       		.byte	0x76
 6312 1686 00       		.sleb128 0
 6313 1687 00       		.byte	0
 6314 1688 00       		.byte	0
 6315 1689 28       		.uleb128 0x28
 6316 168a 10000000 		.4byte	.LVL221
 6317 168e 3E130000 		.4byte	0x133e
 6318 1692 A8160000 		.4byte	0x16a8
 6319 1696 27       		.uleb128 0x27
 6320 1697 01       		.uleb128 0x1
 6321 1698 50       		.byte	0x50
 6322 1699 02       		.uleb128 0x2
 6323 169a 75       		.byte	0x75
 6324 169b 00       		.sleb128 0
 6325 169c 27       		.uleb128 0x27
 6326 169d 01       		.uleb128 0x1
 6327 169e 51       		.byte	0x51
 6328 169f 02       		.uleb128 0x2
ARM GAS  C:\Users\164\AppData\Local\Temp\ccuYWdBJ.s 			page 138


 6329 16a0 76       		.byte	0x76
 6330 16a1 00       		.sleb128 0
 6331 16a2 27       		.uleb128 0x27
 6332 16a3 01       		.uleb128 0x1
 6333 16a4 52       		.byte	0x52
 6334 16a5 01       		.uleb128 0x1
 6335 16a6 30       		.byte	0x30
 6336 16a7 00       		.byte	0
 6337 16a8 26       		.uleb128 0x26
 6338 16a9 16000000 		.4byte	.LVL222
 6339 16ad AB270000 		.4byte	0x27ab
 6340 16b1 27       		.uleb128 0x27
 6341 16b2 01       		.uleb128 0x1
 6342 16b3 50       		.byte	0x50
 6343 16b4 02       		.uleb128 0x2
 6344 16b5 75       		.byte	0x75
 6345 16b6 00       		.sleb128 0
 6346 16b7 00       		.byte	0
 6347 16b8 00       		.byte	0
 6348 16b9 2E       		.uleb128 0x2e
 6349 16ba 95050000 		.4byte	.LASF141
 6350 16be 01       		.byte	0x1
 6351 16bf DA       		.byte	0xda
 6352 16c0 25000000 		.4byte	0x25
 6353 16c4 00000000 		.4byte	.LFB91
 6354 16c8 32000000 		.4byte	.LFE91-.LFB91
 6355 16cc 01       		.uleb128 0x1
 6356 16cd 9C       		.byte	0x9c
 6357 16ce 22170000 		.4byte	0x1722
 6358 16d2 2F       		.uleb128 0x2f
 6359 16d3 61727900 		.ascii	"ary\000"
 6360 16d7 01       		.byte	0x1
 6361 16d8 DA       		.byte	0xda
 6362 16d9 57060000 		.4byte	0x657
 6363 16dd 1D0C0000 		.4byte	.LLST79
 6364 16e1 30       		.uleb128 0x30
 6365 16e2 45020000 		.4byte	.LASF133
 6366 16e6 01       		.byte	0x1
 6367 16e7 DA       		.byte	0xda
 6368 16e8 57060000 		.4byte	0x657
 6369 16ec 3E0C0000 		.4byte	.LLST80
 6370 16f0 36       		.uleb128 0x36
 6371 16f1 6800     		.ascii	"h\000"
 6372 16f3 01       		.byte	0x1
 6373 16f4 DC       		.byte	0xdc
 6374 16f5 750C0000 		.4byte	0xc75
 6375 16f9 01       		.uleb128 0x1
 6376 16fa 55       		.byte	0x55
 6377 16fb 39       		.uleb128 0x39
 6378 16fc 00000000 		.4byte	.Ldebug_ranges0+0
 6379 1700 31       		.uleb128 0x31
 6380 1701 43070000 		.4byte	.LASF91
 6381 1705 01       		.byte	0x1
 6382 1706 DF       		.byte	0xdf
 6383 1707 25000000 		.4byte	0x25
 6384 170b 5C0C0000 		.4byte	.LLST81
 6385 170f 26       		.uleb128 0x26
ARM GAS  C:\Users\164\AppData\Local\Temp\ccuYWdBJ.s 			page 139


 6386 1710 14000000 		.4byte	.LVL229
 6387 1714 A70F0000 		.4byte	0xfa7
 6388 1718 27       		.uleb128 0x27
 6389 1719 01       		.uleb128 0x1
 6390 171a 50       		.byte	0x50
 6391 171b 03       		.uleb128 0x3
 6392 171c F3       		.byte	0xf3
 6393 171d 01       		.uleb128 0x1
 6394 171e 50       		.byte	0x50
 6395 171f 00       		.byte	0
 6396 1720 00       		.byte	0
 6397 1721 00       		.byte	0
 6398 1722 1E       		.uleb128 0x1e
 6399 1723 1F060000 		.4byte	.LASF142
 6400 1727 01       		.byte	0x1
 6401 1728 B602     		.2byte	0x2b6
 6402 172a 00000000 		.4byte	.LFB111
 6403 172e 12000000 		.4byte	.LFE111-.LFB111
 6404 1732 01       		.uleb128 0x1
 6405 1733 9C       		.byte	0x9c
 6406 1734 7C170000 		.4byte	0x177c
 6407 1738 1F       		.uleb128 0x1f
 6408 1739 766D00   		.ascii	"vm\000"
 6409 173c 01       		.byte	0x1
 6410 173d B602     		.2byte	0x2b6
 6411 173f 47010000 		.4byte	0x147
 6412 1743 7C0C0000 		.4byte	.LLST82
 6413 1747 1F       		.uleb128 0x1f
 6414 1748 7600     		.ascii	"v\000"
 6415 174a 01       		.byte	0x1
 6416 174b B602     		.2byte	0x2b6
 6417 174d 57060000 		.4byte	0x657
 6418 1751 9D0C0000 		.4byte	.LLST83
 6419 1755 20       		.uleb128 0x20
 6420 1756 3F090000 		.4byte	.LASF116
 6421 175a 01       		.byte	0x1
 6422 175b B602     		.2byte	0x2b6
 6423 175d 25000000 		.4byte	0x25
 6424 1761 BB0C0000 		.4byte	.LLST84
 6425 1765 26       		.uleb128 0x26
 6426 1766 0C000000 		.4byte	.LVL234
 6427 176a B9160000 		.4byte	0x16b9
 6428 176e 27       		.uleb128 0x27
 6429 176f 01       		.uleb128 0x1
 6430 1770 50       		.byte	0x50
 6431 1771 02       		.uleb128 0x2
 6432 1772 74       		.byte	0x74
 6433 1773 00       		.sleb128 0
 6434 1774 27       		.uleb128 0x27
 6435 1775 01       		.uleb128 0x1
 6436 1776 51       		.byte	0x51
 6437 1777 02       		.uleb128 0x2
 6438 1778 74       		.byte	0x74
 6439 1779 10       		.sleb128 16
 6440 177a 00       		.byte	0
 6441 177b 00       		.byte	0
 6442 177c 1E       		.uleb128 0x1e
ARM GAS  C:\Users\164\AppData\Local\Temp\ccuYWdBJ.s 			page 140


 6443 177d D9030000 		.4byte	.LASF143
 6444 1781 01       		.byte	0x1
 6445 1782 0C02     		.2byte	0x20c
 6446 1784 00000000 		.4byte	.LFB102
 6447 1788 D8000000 		.4byte	.LFE102-.LFB102
 6448 178c 01       		.uleb128 0x1
 6449 178d 9C       		.byte	0x9c
 6450 178e AC190000 		.4byte	0x19ac
 6451 1792 1F       		.uleb128 0x1f
 6452 1793 766D00   		.ascii	"vm\000"
 6453 1796 01       		.byte	0x1
 6454 1797 0C02     		.2byte	0x20c
 6455 1799 47010000 		.4byte	0x147
 6456 179d DC0C0000 		.4byte	.LLST85
 6457 17a1 1F       		.uleb128 0x1f
 6458 17a2 7600     		.ascii	"v\000"
 6459 17a4 01       		.byte	0x1
 6460 17a5 0C02     		.2byte	0x20c
 6461 17a7 57060000 		.4byte	0x657
 6462 17ab 530D0000 		.4byte	.LLST86
 6463 17af 20       		.uleb128 0x20
 6464 17b0 3F090000 		.4byte	.LASF116
 6465 17b4 01       		.byte	0x1
 6466 17b5 0C02     		.2byte	0x20c
 6467 17b7 25000000 		.4byte	0x25
 6468 17bb C10D0000 		.4byte	.LLST87
 6469 17bf 2D       		.uleb128 0x2d
 6470 17c0 2F090000 		.4byte	.LASF138
 6471 17c4 01       		.byte	0x1
 6472 17c5 3902     		.2byte	0x239
 6473 17c7 B8000000 		.4byte	.LDL1
 6474 17cb 2B       		.uleb128 0x2b
 6475 17cc 12000000 		.4byte	.LBB89
 6476 17d0 28000000 		.4byte	.LBE89-.LBB89
 6477 17d4 3F180000 		.4byte	0x183f
 6478 17d8 25       		.uleb128 0x25
 6479 17d9 72657400 		.ascii	"ret\000"
 6480 17dd 01       		.byte	0x1
 6481 17de 1202     		.2byte	0x212
 6482 17e0 06050000 		.4byte	0x506
 6483 17e4 02       		.uleb128 0x2
 6484 17e5 91       		.byte	0x91
 6485 17e6 50       		.sleb128 -48
 6486 17e7 2B       		.uleb128 0x2b
 6487 17e8 20000000 		.4byte	.LBB90
 6488 17ec 1A000000 		.4byte	.LBE90-.LBB90
 6489 17f0 14180000 		.4byte	0x1814
 6490 17f4 25       		.uleb128 0x25
 6491 17f5 6E6E6E00 		.ascii	"nnn\000"
 6492 17f9 01       		.byte	0x1
 6493 17fa 1402     		.2byte	0x214
 6494 17fc 06050000 		.4byte	0x506
 6495 1800 02       		.uleb128 0x2
 6496 1801 91       		.byte	0x91
 6497 1802 60       		.sleb128 -32
 6498 1803 26       		.uleb128 0x26
 6499 1804 30000000 		.4byte	.LVL240
ARM GAS  C:\Users\164\AppData\Local\Temp\ccuYWdBJ.s 			page 141


 6500 1808 4A270000 		.4byte	0x274a
 6501 180c 27       		.uleb128 0x27
 6502 180d 01       		.uleb128 0x1
 6503 180e 50       		.byte	0x50
 6504 180f 02       		.uleb128 0x2
 6505 1810 74       		.byte	0x74
 6506 1811 00       		.sleb128 0
 6507 1812 00       		.byte	0
 6508 1813 00       		.byte	0
 6509 1814 28       		.uleb128 0x28
 6510 1815 1A000000 		.4byte	.LVL238
 6511 1819 3E130000 		.4byte	0x133e
 6512 181d 2E180000 		.4byte	0x182e
 6513 1821 27       		.uleb128 0x27
 6514 1822 01       		.uleb128 0x1
 6515 1823 50       		.byte	0x50
 6516 1824 02       		.uleb128 0x2
 6517 1825 7D       		.byte	0x7d
 6518 1826 00       		.sleb128 0
 6519 1827 27       		.uleb128 0x27
 6520 1828 01       		.uleb128 0x1
 6521 1829 51       		.byte	0x51
 6522 182a 02       		.uleb128 0x2
 6523 182b 74       		.byte	0x74
 6524 182c 00       		.sleb128 0
 6525 182d 00       		.byte	0
 6526 182e 26       		.uleb128 0x26
 6527 182f 20000000 		.4byte	.LVL239
 6528 1833 AB270000 		.4byte	0x27ab
 6529 1837 27       		.uleb128 0x27
 6530 1838 01       		.uleb128 0x1
 6531 1839 50       		.byte	0x50
 6532 183a 02       		.uleb128 0x2
 6533 183b 7D       		.byte	0x7d
 6534 183c 00       		.sleb128 0
 6535 183d 00       		.byte	0
 6536 183e 00       		.byte	0
 6537 183f 2B       		.uleb128 0x2b
 6538 1840 4E000000 		.4byte	.LBB91
 6539 1844 6A000000 		.4byte	.LBE91-.LBB91
 6540 1848 5F190000 		.4byte	0x195f
 6541 184c 21       		.uleb128 0x21
 6542 184d 6C656E00 		.ascii	"len\000"
 6543 1851 01       		.byte	0x1
 6544 1852 1C02     		.2byte	0x21c
 6545 1854 25000000 		.4byte	0x25
 6546 1858 2A       		.uleb128 0x2a
 6547 1859 69647800 		.ascii	"idx\000"
 6548 185d 01       		.byte	0x1
 6549 185e 1D02     		.2byte	0x21d
 6550 1860 25000000 		.4byte	0x25
 6551 1864 2D0E0000 		.4byte	.LLST88
 6552 1868 2C       		.uleb128 0x2c
 6553 1869 43070000 		.4byte	.LASF91
 6554 186d 01       		.byte	0x1
 6555 186e 2102     		.2byte	0x221
 6556 1870 25000000 		.4byte	0x25
ARM GAS  C:\Users\164\AppData\Local\Temp\ccuYWdBJ.s 			page 142


 6557 1874 400E0000 		.4byte	.LLST89
 6558 1878 25       		.uleb128 0x25
 6559 1879 72657400 		.ascii	"ret\000"
 6560 187d 01       		.byte	0x1
 6561 187e 2502     		.2byte	0x225
 6562 1880 06050000 		.4byte	0x506
 6563 1884 02       		.uleb128 0x2
 6564 1885 91       		.byte	0x91
 6565 1886 50       		.sleb128 -48
 6566 1887 2A       		.uleb128 0x2a
 6567 1888 6900     		.ascii	"i\000"
 6568 188a 01       		.byte	0x1
 6569 188b 2802     		.2byte	0x228
 6570 188d 25000000 		.4byte	0x25
 6571 1891 530E0000 		.4byte	.LLST90
 6572 1895 22       		.uleb128 0x22
 6573 1896 A6060000 		.4byte	0x6a6
 6574 189a 4E000000 		.4byte	.LBB92
 6575 189e 04000000 		.4byte	.LBE92-.LBB92
 6576 18a2 01       		.byte	0x1
 6577 18a3 1C02     		.2byte	0x21c
 6578 18a5 B3180000 		.4byte	0x18b3
 6579 18a9 23       		.uleb128 0x23
 6580 18aa B6060000 		.4byte	0x6b6
 6581 18ae 660E0000 		.4byte	.LLST91
 6582 18b2 00       		.byte	0
 6583 18b3 2B       		.uleb128 0x2b
 6584 18b4 7E000000 		.4byte	.LBB94
 6585 18b8 1A000000 		.4byte	.LBE94-.LBB94
 6586 18bc 14190000 		.4byte	0x1914
 6587 18c0 25       		.uleb128 0x25
 6588 18c1 76616C00 		.ascii	"val\000"
 6589 18c5 01       		.byte	0x1
 6590 18c6 2A02     		.2byte	0x22a
 6591 18c8 06050000 		.4byte	0x506
 6592 18cc 02       		.uleb128 0x2
 6593 18cd 91       		.byte	0x91
 6594 18ce 60       		.sleb128 -32
 6595 18cf 28       		.uleb128 0x28
 6596 18d0 8A000000 		.4byte	.LVL253
 6597 18d4 3E130000 		.4byte	0x133e
 6598 18d8 E9180000 		.4byte	0x18e9
 6599 18dc 27       		.uleb128 0x27
 6600 18dd 01       		.uleb128 0x1
 6601 18de 50       		.byte	0x50
 6602 18df 02       		.uleb128 0x2
 6603 18e0 91       		.byte	0x91
 6604 18e1 60       		.sleb128 -32
 6605 18e2 27       		.uleb128 0x27
 6606 18e3 01       		.uleb128 0x1
 6607 18e4 51       		.byte	0x51
 6608 18e5 02       		.uleb128 0x2
 6609 18e6 74       		.byte	0x74
 6610 18e7 00       		.sleb128 0
 6611 18e8 00       		.byte	0
 6612 18e9 28       		.uleb128 0x28
 6613 18ea 90000000 		.4byte	.LVL254
ARM GAS  C:\Users\164\AppData\Local\Temp\ccuYWdBJ.s 			page 143


 6614 18ee AB270000 		.4byte	0x27ab
 6615 18f2 FD180000 		.4byte	0x18fd
 6616 18f6 27       		.uleb128 0x27
 6617 18f7 01       		.uleb128 0x1
 6618 18f8 50       		.byte	0x50
 6619 18f9 02       		.uleb128 0x2
 6620 18fa 91       		.byte	0x91
 6621 18fb 60       		.sleb128 -32
 6622 18fc 00       		.byte	0
 6623 18fd 26       		.uleb128 0x26
 6624 18fe 98000000 		.4byte	.LVL255
 6625 1902 B9160000 		.4byte	0x16b9
 6626 1906 27       		.uleb128 0x27
 6627 1907 01       		.uleb128 0x1
 6628 1908 50       		.byte	0x50
 6629 1909 02       		.uleb128 0x2
 6630 190a 7D       		.byte	0x7d
 6631 190b 00       		.sleb128 0
 6632 190c 27       		.uleb128 0x27
 6633 190d 01       		.uleb128 0x1
 6634 190e 51       		.byte	0x51
 6635 190f 02       		.uleb128 0x2
 6636 1910 91       		.byte	0x91
 6637 1911 60       		.sleb128 -32
 6638 1912 00       		.byte	0
 6639 1913 00       		.byte	0
 6640 1914 2B       		.uleb128 0x2b
 6641 1915 9E000000 		.4byte	.LBB95
 6642 1919 18000000 		.4byte	.LBE95-.LBB95
 6643 191d 41190000 		.4byte	0x1941
 6644 1921 25       		.uleb128 0x25
 6645 1922 6E6E6E00 		.ascii	"nnn\000"
 6646 1926 01       		.byte	0x1
 6647 1927 2F02     		.2byte	0x22f
 6648 1929 06050000 		.4byte	0x506
 6649 192d 02       		.uleb128 0x2
 6650 192e 91       		.byte	0x91
 6651 192f 60       		.sleb128 -32
 6652 1930 26       		.uleb128 0x26
 6653 1931 AE000000 		.4byte	.LVL258
 6654 1935 4A270000 		.4byte	0x274a
 6655 1939 27       		.uleb128 0x27
 6656 193a 01       		.uleb128 0x1
 6657 193b 50       		.byte	0x50
 6658 193c 02       		.uleb128 0x2
 6659 193d 74       		.byte	0x74
 6660 193e 00       		.sleb128 0
 6661 193f 00       		.byte	0
 6662 1940 00       		.byte	0
 6663 1941 26       		.uleb128 0x26
 6664 1942 76000000 		.4byte	.LVL251
 6665 1946 CE0B0000 		.4byte	0xbce
 6666 194a 27       		.uleb128 0x27
 6667 194b 01       		.uleb128 0x1
 6668 194c 50       		.byte	0x50
 6669 194d 02       		.uleb128 0x2
 6670 194e 7D       		.byte	0x7d
ARM GAS  C:\Users\164\AppData\Local\Temp\ccuYWdBJ.s 			page 144


 6671 194f 00       		.sleb128 0
 6672 1950 27       		.uleb128 0x27
 6673 1951 01       		.uleb128 0x1
 6674 1952 51       		.byte	0x51
 6675 1953 03       		.uleb128 0x3
 6676 1954 F3       		.byte	0xf3
 6677 1955 01       		.uleb128 0x1
 6678 1956 50       		.byte	0x50
 6679 1957 27       		.uleb128 0x27
 6680 1958 01       		.uleb128 0x1
 6681 1959 52       		.byte	0x52
 6682 195a 02       		.uleb128 0x2
 6683 195b 76       		.byte	0x76
 6684 195c 00       		.sleb128 0
 6685 195d 00       		.byte	0
 6686 195e 00       		.byte	0
 6687 195f 22       		.uleb128 0x22
 6688 1960 5B0D0000 		.4byte	0xd5b
 6689 1964 C4000000 		.4byte	.LBB96
 6690 1968 0A000000 		.4byte	.LBE96-.LBB96
 6691 196c 01       		.byte	0x1
 6692 196d 3602     		.2byte	0x236
 6693 196f 9B190000 		.4byte	0x199b
 6694 1973 23       		.uleb128 0x23
 6695 1974 670D0000 		.4byte	0xd67
 6696 1978 790E0000 		.4byte	.LLST92
 6697 197c 26       		.uleb128 0x26
 6698 197d CE000000 		.4byte	.LVL266
 6699 1981 B6270000 		.4byte	0x27b6
 6700 1985 27       		.uleb128 0x27
 6701 1986 01       		.uleb128 0x1
 6702 1987 50       		.byte	0x50
 6703 1988 01       		.uleb128 0x1
 6704 1989 31       		.byte	0x31
 6705 198a 27       		.uleb128 0x27
 6706 198b 01       		.uleb128 0x1
 6707 198c 51       		.byte	0x51
 6708 198d 05       		.uleb128 0x5
 6709 198e 03       		.byte	0x3
 6710 198f 18000000 		.4byte	.LC3
 6711 1993 27       		.uleb128 0x27
 6712 1994 01       		.uleb128 0x1
 6713 1995 52       		.byte	0x52
 6714 1996 02       		.uleb128 0x2
 6715 1997 08       		.byte	0x8
 6716 1998 23       		.byte	0x23
 6717 1999 00       		.byte	0
 6718 199a 00       		.byte	0
 6719 199b 26       		.uleb128 0x26
 6720 199c BE000000 		.4byte	.LVL261
 6721 19a0 4A270000 		.4byte	0x274a
 6722 19a4 27       		.uleb128 0x27
 6723 19a5 01       		.uleb128 0x1
 6724 19a6 50       		.byte	0x50
 6725 19a7 02       		.uleb128 0x2
 6726 19a8 74       		.byte	0x74
 6727 19a9 00       		.sleb128 0
ARM GAS  C:\Users\164\AppData\Local\Temp\ccuYWdBJ.s 			page 145


 6728 19aa 00       		.byte	0
 6729 19ab 00       		.byte	0
 6730 19ac 2E       		.uleb128 0x2e
 6731 19ad CC050000 		.4byte	.LASF144
 6732 19b1 01       		.byte	0x1
 6733 19b2 F0       		.byte	0xf0
 6734 19b3 06050000 		.4byte	0x506
 6735 19b7 00000000 		.4byte	.LFB92
 6736 19bb 30000000 		.4byte	.LFE92-.LFB92
 6737 19bf 01       		.uleb128 0x1
 6738 19c0 9C       		.byte	0x9c
 6739 19c1 E2190000 		.4byte	0x19e2
 6740 19c5 2F       		.uleb128 0x2f
 6741 19c6 61727900 		.ascii	"ary\000"
 6742 19ca 01       		.byte	0x1
 6743 19cb F0       		.byte	0xf0
 6744 19cc 57060000 		.4byte	0x657
 6745 19d0 910E0000 		.4byte	.LLST93
 6746 19d4 32       		.uleb128 0x32
 6747 19d5 6800     		.ascii	"h\000"
 6748 19d7 01       		.byte	0x1
 6749 19d8 F2       		.byte	0xf2
 6750 19d9 750C0000 		.4byte	0xc75
 6751 19dd B20E0000 		.4byte	.LLST94
 6752 19e1 00       		.byte	0
 6753 19e2 1E       		.uleb128 0x1e
 6754 19e3 36000000 		.4byte	.LASF145
 6755 19e7 01       		.byte	0x1
 6756 19e8 C002     		.2byte	0x2c0
 6757 19ea 00000000 		.4byte	.LFB112
 6758 19ee 3C000000 		.4byte	.LFE112-.LFB112
 6759 19f2 01       		.uleb128 0x1
 6760 19f3 9C       		.byte	0x9c
 6761 19f4 BE1A0000 		.4byte	0x1abe
 6762 19f8 1F       		.uleb128 0x1f
 6763 19f9 766D00   		.ascii	"vm\000"
 6764 19fc 01       		.byte	0x1
 6765 19fd C002     		.2byte	0x2c0
 6766 19ff 47010000 		.4byte	0x147
 6767 1a03 C50E0000 		.4byte	.LLST95
 6768 1a07 1F       		.uleb128 0x1f
 6769 1a08 7600     		.ascii	"v\000"
 6770 1a0a 01       		.byte	0x1
 6771 1a0b C002     		.2byte	0x2c0
 6772 1a0d 57060000 		.4byte	0x657
 6773 1a11 FF0E0000 		.4byte	.LLST96
 6774 1a15 20       		.uleb128 0x20
 6775 1a16 3F090000 		.4byte	.LASF116
 6776 1a1a 01       		.byte	0x1
 6777 1a1b C002     		.2byte	0x2c0
 6778 1a1d 25000000 		.4byte	0x25
 6779 1a21 360F0000 		.4byte	.LLST97
 6780 1a25 2B       		.uleb128 0x2b
 6781 1a26 08000000 		.4byte	.LBB102
 6782 1a2a 20000000 		.4byte	.LBE102-.LBB102
 6783 1a2e 851A0000 		.4byte	0x1a85
 6784 1a32 25       		.uleb128 0x25
ARM GAS  C:\Users\164\AppData\Local\Temp\ccuYWdBJ.s 			page 146


 6785 1a33 76616C00 		.ascii	"val\000"
 6786 1a37 01       		.byte	0x1
 6787 1a38 C602     		.2byte	0x2c6
 6788 1a3a 06050000 		.4byte	0x506
 6789 1a3e 02       		.uleb128 0x2
 6790 1a3f 91       		.byte	0x91
 6791 1a40 50       		.sleb128 -48
 6792 1a41 2B       		.uleb128 0x2b
 6793 1a42 0E000000 		.4byte	.LBB103
 6794 1a46 1A000000 		.4byte	.LBE103-.LBB103
 6795 1a4a 6E1A0000 		.4byte	0x1a6e
 6796 1a4e 25       		.uleb128 0x25
 6797 1a4f 6E6E6E00 		.ascii	"nnn\000"
 6798 1a53 01       		.byte	0x1
 6799 1a54 C702     		.2byte	0x2c7
 6800 1a56 06050000 		.4byte	0x506
 6801 1a5a 02       		.uleb128 0x2
 6802 1a5b 91       		.byte	0x91
 6803 1a5c 60       		.sleb128 -32
 6804 1a5d 26       		.uleb128 0x26
 6805 1a5e 1E000000 		.4byte	.LVL275
 6806 1a62 4A270000 		.4byte	0x274a
 6807 1a66 27       		.uleb128 0x27
 6808 1a67 01       		.uleb128 0x1
 6809 1a68 50       		.byte	0x50
 6810 1a69 02       		.uleb128 0x2
 6811 1a6a 75       		.byte	0x75
 6812 1a6b 00       		.sleb128 0
 6813 1a6c 00       		.byte	0
 6814 1a6d 00       		.byte	0
 6815 1a6e 26       		.uleb128 0x26
 6816 1a6f 0E000000 		.4byte	.LVL274
 6817 1a73 AC190000 		.4byte	0x19ac
 6818 1a77 27       		.uleb128 0x27
 6819 1a78 01       		.uleb128 0x1
 6820 1a79 50       		.byte	0x50
 6821 1a7a 02       		.uleb128 0x2
 6822 1a7b 7D       		.byte	0x7d
 6823 1a7c 00       		.sleb128 0
 6824 1a7d 27       		.uleb128 0x27
 6825 1a7e 01       		.uleb128 0x1
 6826 1a7f 51       		.byte	0x51
 6827 1a80 02       		.uleb128 0x2
 6828 1a81 75       		.byte	0x75
 6829 1a82 00       		.sleb128 0
 6830 1a83 00       		.byte	0
 6831 1a84 00       		.byte	0
 6832 1a85 38       		.uleb128 0x38
 6833 1a86 5B0D0000 		.4byte	0xd5b
 6834 1a8a 28000000 		.4byte	.LBB104
 6835 1a8e 0A000000 		.4byte	.LBE104-.LBB104
 6836 1a92 01       		.byte	0x1
 6837 1a93 D502     		.2byte	0x2d5
 6838 1a95 23       		.uleb128 0x23
 6839 1a96 670D0000 		.4byte	0xd67
 6840 1a9a 700F0000 		.4byte	.LLST98
 6841 1a9e 26       		.uleb128 0x26
ARM GAS  C:\Users\164\AppData\Local\Temp\ccuYWdBJ.s 			page 147


 6842 1a9f 32000000 		.4byte	.LVL280
 6843 1aa3 B6270000 		.4byte	0x27b6
 6844 1aa7 27       		.uleb128 0x27
 6845 1aa8 01       		.uleb128 0x1
 6846 1aa9 50       		.byte	0x50
 6847 1aaa 01       		.uleb128 0x1
 6848 1aab 31       		.byte	0x31
 6849 1aac 27       		.uleb128 0x27
 6850 1aad 01       		.uleb128 0x1
 6851 1aae 51       		.byte	0x51
 6852 1aaf 05       		.uleb128 0x5
 6853 1ab0 03       		.byte	0x3
 6854 1ab1 60000000 		.4byte	.LC9
 6855 1ab5 27       		.uleb128 0x27
 6856 1ab6 01       		.uleb128 0x1
 6857 1ab7 52       		.byte	0x52
 6858 1ab8 02       		.uleb128 0x2
 6859 1ab9 08       		.byte	0x8
 6860 1aba 24       		.byte	0x24
 6861 1abb 00       		.byte	0
 6862 1abc 00       		.byte	0
 6863 1abd 00       		.byte	0
 6864 1abe 3A       		.uleb128 0x3a
 6865 1abf 61030000 		.4byte	.LASF146
 6866 1ac3 01       		.byte	0x1
 6867 1ac4 0C01     		.2byte	0x10c
 6868 1ac6 06050000 		.4byte	0x506
 6869 1aca 00000000 		.4byte	.LFB94
 6870 1ace 48000000 		.4byte	.LFE94-.LFB94
 6871 1ad2 01       		.uleb128 0x1
 6872 1ad3 9C       		.byte	0x9c
 6873 1ad4 1A1B0000 		.4byte	0x1b1a
 6874 1ad8 1F       		.uleb128 0x1f
 6875 1ad9 61727900 		.ascii	"ary\000"
 6876 1add 01       		.byte	0x1
 6877 1ade 0C01     		.2byte	0x10c
 6878 1ae0 57060000 		.4byte	0x657
 6879 1ae4 880F0000 		.4byte	.LLST99
 6880 1ae8 25       		.uleb128 0x25
 6881 1ae9 6800     		.ascii	"h\000"
 6882 1aeb 01       		.byte	0x1
 6883 1aec 0E01     		.2byte	0x10e
 6884 1aee 750C0000 		.4byte	0xc75
 6885 1af2 01       		.uleb128 0x1
 6886 1af3 57       		.byte	0x57
 6887 1af4 25       		.uleb128 0x25
 6888 1af5 72657400 		.ascii	"ret\000"
 6889 1af9 01       		.byte	0x1
 6890 1afa 1201     		.2byte	0x112
 6891 1afc 06050000 		.4byte	0x506
 6892 1b00 02       		.uleb128 0x2
 6893 1b01 91       		.byte	0x91
 6894 1b02 58       		.sleb128 -40
 6895 1b03 26       		.uleb128 0x26
 6896 1b04 3A000000 		.4byte	.LVL284
 6897 1b08 03280000 		.4byte	0x2803
 6898 1b0c 27       		.uleb128 0x27
ARM GAS  C:\Users\164\AppData\Local\Temp\ccuYWdBJ.s 			page 148


 6899 1b0d 01       		.uleb128 0x1
 6900 1b0e 52       		.byte	0x52
 6901 1b0f 08       		.uleb128 0x8
 6902 1b10 75       		.byte	0x75
 6903 1b11 7F       		.sleb128 -1
 6904 1b12 0A       		.byte	0xa
 6905 1b13 FFFF     		.2byte	0xffff
 6906 1b15 1A       		.byte	0x1a
 6907 1b16 34       		.byte	0x34
 6908 1b17 24       		.byte	0x24
 6909 1b18 00       		.byte	0
 6910 1b19 00       		.byte	0
 6911 1b1a 1E       		.uleb128 0x1e
 6912 1b1b 52070000 		.4byte	.LASF147
 6913 1b1f 01       		.byte	0x1
 6914 1b20 E602     		.2byte	0x2e6
 6915 1b22 00000000 		.4byte	.LFB114
 6916 1b26 3C000000 		.4byte	.LFE114-.LFB114
 6917 1b2a 01       		.uleb128 0x1
 6918 1b2b 9C       		.byte	0x9c
 6919 1b2c F61B0000 		.4byte	0x1bf6
 6920 1b30 1F       		.uleb128 0x1f
 6921 1b31 766D00   		.ascii	"vm\000"
 6922 1b34 01       		.byte	0x1
 6923 1b35 E602     		.2byte	0x2e6
 6924 1b37 47010000 		.4byte	0x147
 6925 1b3b A90F0000 		.4byte	.LLST100
 6926 1b3f 1F       		.uleb128 0x1f
 6927 1b40 7600     		.ascii	"v\000"
 6928 1b42 01       		.byte	0x1
 6929 1b43 E602     		.2byte	0x2e6
 6930 1b45 57060000 		.4byte	0x657
 6931 1b49 E30F0000 		.4byte	.LLST101
 6932 1b4d 20       		.uleb128 0x20
 6933 1b4e 3F090000 		.4byte	.LASF116
 6934 1b52 01       		.byte	0x1
 6935 1b53 E602     		.2byte	0x2e6
 6936 1b55 25000000 		.4byte	0x25
 6937 1b59 1A100000 		.4byte	.LLST102
 6938 1b5d 2B       		.uleb128 0x2b
 6939 1b5e 08000000 		.4byte	.LBB110
 6940 1b62 20000000 		.4byte	.LBE110-.LBB110
 6941 1b66 BD1B0000 		.4byte	0x1bbd
 6942 1b6a 25       		.uleb128 0x25
 6943 1b6b 76616C00 		.ascii	"val\000"
 6944 1b6f 01       		.byte	0x1
 6945 1b70 EC02     		.2byte	0x2ec
 6946 1b72 06050000 		.4byte	0x506
 6947 1b76 02       		.uleb128 0x2
 6948 1b77 91       		.byte	0x91
 6949 1b78 50       		.sleb128 -48
 6950 1b79 2B       		.uleb128 0x2b
 6951 1b7a 0E000000 		.4byte	.LBB111
 6952 1b7e 1A000000 		.4byte	.LBE111-.LBB111
 6953 1b82 A61B0000 		.4byte	0x1ba6
 6954 1b86 25       		.uleb128 0x25
 6955 1b87 6E6E6E00 		.ascii	"nnn\000"
ARM GAS  C:\Users\164\AppData\Local\Temp\ccuYWdBJ.s 			page 149


 6956 1b8b 01       		.byte	0x1
 6957 1b8c ED02     		.2byte	0x2ed
 6958 1b8e 06050000 		.4byte	0x506
 6959 1b92 02       		.uleb128 0x2
 6960 1b93 91       		.byte	0x91
 6961 1b94 60       		.sleb128 -32
 6962 1b95 26       		.uleb128 0x26
 6963 1b96 1E000000 		.4byte	.LVL288
 6964 1b9a 4A270000 		.4byte	0x274a
 6965 1b9e 27       		.uleb128 0x27
 6966 1b9f 01       		.uleb128 0x1
 6967 1ba0 50       		.byte	0x50
 6968 1ba1 02       		.uleb128 0x2
 6969 1ba2 75       		.byte	0x75
 6970 1ba3 00       		.sleb128 0
 6971 1ba4 00       		.byte	0
 6972 1ba5 00       		.byte	0
 6973 1ba6 26       		.uleb128 0x26
 6974 1ba7 0E000000 		.4byte	.LVL287
 6975 1bab BE1A0000 		.4byte	0x1abe
 6976 1baf 27       		.uleb128 0x27
 6977 1bb0 01       		.uleb128 0x1
 6978 1bb1 50       		.byte	0x50
 6979 1bb2 02       		.uleb128 0x2
 6980 1bb3 7D       		.byte	0x7d
 6981 1bb4 00       		.sleb128 0
 6982 1bb5 27       		.uleb128 0x27
 6983 1bb6 01       		.uleb128 0x1
 6984 1bb7 51       		.byte	0x51
 6985 1bb8 02       		.uleb128 0x2
 6986 1bb9 75       		.byte	0x75
 6987 1bba 00       		.sleb128 0
 6988 1bbb 00       		.byte	0
 6989 1bbc 00       		.byte	0
 6990 1bbd 38       		.uleb128 0x38
 6991 1bbe 5B0D0000 		.4byte	0xd5b
 6992 1bc2 28000000 		.4byte	.LBB112
 6993 1bc6 0A000000 		.4byte	.LBE112-.LBB112
 6994 1bca 01       		.byte	0x1
 6995 1bcb FB02     		.2byte	0x2fb
 6996 1bcd 23       		.uleb128 0x23
 6997 1bce 670D0000 		.4byte	0xd67
 6998 1bd2 54100000 		.4byte	.LLST103
 6999 1bd6 26       		.uleb128 0x26
 7000 1bd7 32000000 		.4byte	.LVL293
 7001 1bdb B6270000 		.4byte	0x27b6
 7002 1bdf 27       		.uleb128 0x27
 7003 1be0 01       		.uleb128 0x1
 7004 1be1 50       		.byte	0x50
 7005 1be2 01       		.uleb128 0x1
 7006 1be3 31       		.byte	0x31
 7007 1be4 27       		.uleb128 0x27
 7008 1be5 01       		.uleb128 0x1
 7009 1be6 51       		.byte	0x51
 7010 1be7 05       		.uleb128 0x5
 7011 1be8 03       		.byte	0x3
 7012 1be9 88000000 		.4byte	.LC10
ARM GAS  C:\Users\164\AppData\Local\Temp\ccuYWdBJ.s 			page 150


 7013 1bed 27       		.uleb128 0x27
 7014 1bee 01       		.uleb128 0x1
 7015 1bef 52       		.byte	0x52
 7016 1bf0 02       		.uleb128 0x2
 7017 1bf1 08       		.byte	0x8
 7018 1bf2 26       		.byte	0x26
 7019 1bf3 00       		.byte	0
 7020 1bf4 00       		.byte	0
 7021 1bf5 00       		.byte	0
 7022 1bf6 3A       		.uleb128 0x3a
 7023 1bf7 8B040000 		.4byte	.LASF148
 7024 1bfb 01       		.byte	0x1
 7025 1bfc 2101     		.2byte	0x121
 7026 1bfe 25000000 		.4byte	0x25
 7027 1c02 00000000 		.4byte	.LFB95
 7028 1c06 96000000 		.4byte	.LFE95-.LFB95
 7029 1c0a 01       		.uleb128 0x1
 7030 1c0b 9C       		.byte	0x9c
 7031 1c0c 8B1C0000 		.4byte	0x1c8b
 7032 1c10 1F       		.uleb128 0x1f
 7033 1c11 61727900 		.ascii	"ary\000"
 7034 1c15 01       		.byte	0x1
 7035 1c16 2101     		.2byte	0x121
 7036 1c18 57060000 		.4byte	0x657
 7037 1c1c 6C100000 		.4byte	.LLST104
 7038 1c20 1F       		.uleb128 0x1f
 7039 1c21 69647800 		.ascii	"idx\000"
 7040 1c25 01       		.byte	0x1
 7041 1c26 2101     		.2byte	0x121
 7042 1c28 25000000 		.4byte	0x25
 7043 1c2c A6100000 		.4byte	.LLST105
 7044 1c30 20       		.uleb128 0x20
 7045 1c31 45020000 		.4byte	.LASF133
 7046 1c35 01       		.byte	0x1
 7047 1c36 2101     		.2byte	0x121
 7048 1c38 57060000 		.4byte	0x657
 7049 1c3c E9100000 		.4byte	.LLST106
 7050 1c40 25       		.uleb128 0x25
 7051 1c41 6800     		.ascii	"h\000"
 7052 1c43 01       		.byte	0x1
 7053 1c44 2301     		.2byte	0x123
 7054 1c46 750C0000 		.4byte	0xc75
 7055 1c4a 01       		.uleb128 0x1
 7056 1c4b 55       		.byte	0x55
 7057 1c4c 2C       		.uleb128 0x2c
 7058 1c4d 43070000 		.4byte	.LASF91
 7059 1c51 01       		.byte	0x1
 7060 1c52 2B01     		.2byte	0x12b
 7061 1c54 25000000 		.4byte	0x25
 7062 1c58 1D110000 		.4byte	.LLST107
 7063 1c5c 2B       		.uleb128 0x2b
 7064 1c5d 64000000 		.4byte	.LBB114
 7065 1c61 22000000 		.4byte	.LBE114-.LBB114
 7066 1c65 781C0000 		.4byte	0x1c78
 7067 1c69 2A       		.uleb128 0x2a
 7068 1c6a 6900     		.ascii	"i\000"
 7069 1c6c 01       		.byte	0x1
ARM GAS  C:\Users\164\AppData\Local\Temp\ccuYWdBJ.s 			page 151


 7070 1c6d 4101     		.2byte	0x141
 7071 1c6f 25000000 		.4byte	0x25
 7072 1c73 6A110000 		.4byte	.LLST108
 7073 1c77 00       		.byte	0
 7074 1c78 33       		.uleb128 0x33
 7075 1c79 2E000000 		.4byte	.LVL304
 7076 1c7d A70F0000 		.4byte	0xfa7
 7077 1c81 33       		.uleb128 0x33
 7078 1c82 4A000000 		.4byte	.LVL305
 7079 1c86 03280000 		.4byte	0x2803
 7080 1c8a 00       		.byte	0
 7081 1c8b 3A       		.uleb128 0x3a
 7082 1c8c 80060000 		.4byte	.LASF149
 7083 1c90 01       		.byte	0x1
 7084 1c91 0001     		.2byte	0x100
 7085 1c93 25000000 		.4byte	0x25
 7086 1c97 00000000 		.4byte	.LFB93
 7087 1c9b 0C000000 		.4byte	.LFE93-.LFB93
 7088 1c9f 01       		.uleb128 0x1
 7089 1ca0 9C       		.byte	0x9c
 7090 1ca1 E31C0000 		.4byte	0x1ce3
 7091 1ca5 1F       		.uleb128 0x1f
 7092 1ca6 61727900 		.ascii	"ary\000"
 7093 1caa 01       		.byte	0x1
 7094 1cab 0001     		.2byte	0x100
 7095 1cad 57060000 		.4byte	0x657
 7096 1cb1 7D110000 		.4byte	.LLST109
 7097 1cb5 20       		.uleb128 0x20
 7098 1cb6 45020000 		.4byte	.LASF133
 7099 1cba 01       		.byte	0x1
 7100 1cbb 0001     		.2byte	0x100
 7101 1cbd 57060000 		.4byte	0x657
 7102 1cc1 9E110000 		.4byte	.LLST110
 7103 1cc5 26       		.uleb128 0x26
 7104 1cc6 0A000000 		.4byte	.LVL315
 7105 1cca F61B0000 		.4byte	0x1bf6
 7106 1cce 27       		.uleb128 0x27
 7107 1ccf 01       		.uleb128 0x1
 7108 1cd0 50       		.byte	0x50
 7109 1cd1 03       		.uleb128 0x3
 7110 1cd2 F3       		.byte	0xf3
 7111 1cd3 01       		.uleb128 0x1
 7112 1cd4 50       		.byte	0x50
 7113 1cd5 27       		.uleb128 0x27
 7114 1cd6 01       		.uleb128 0x1
 7115 1cd7 51       		.byte	0x51
 7116 1cd8 01       		.uleb128 0x1
 7117 1cd9 30       		.byte	0x30
 7118 1cda 27       		.uleb128 0x27
 7119 1cdb 01       		.uleb128 0x1
 7120 1cdc 52       		.byte	0x52
 7121 1cdd 03       		.uleb128 0x3
 7122 1cde F3       		.byte	0xf3
 7123 1cdf 01       		.uleb128 0x1
 7124 1ce0 51       		.byte	0x51
 7125 1ce1 00       		.byte	0
 7126 1ce2 00       		.byte	0
ARM GAS  C:\Users\164\AppData\Local\Temp\ccuYWdBJ.s 			page 152


 7127 1ce3 1E       		.uleb128 0x1e
 7128 1ce4 A6010000 		.4byte	.LASF150
 7129 1ce8 01       		.byte	0x1
 7130 1ce9 DC02     		.2byte	0x2dc
 7131 1ceb 00000000 		.4byte	.LFB113
 7132 1cef 12000000 		.4byte	.LFE113-.LFB113
 7133 1cf3 01       		.uleb128 0x1
 7134 1cf4 9C       		.byte	0x9c
 7135 1cf5 3D1D0000 		.4byte	0x1d3d
 7136 1cf9 1F       		.uleb128 0x1f
 7137 1cfa 766D00   		.ascii	"vm\000"
 7138 1cfd 01       		.byte	0x1
 7139 1cfe DC02     		.2byte	0x2dc
 7140 1d00 47010000 		.4byte	0x147
 7141 1d04 CA110000 		.4byte	.LLST111
 7142 1d08 1F       		.uleb128 0x1f
 7143 1d09 7600     		.ascii	"v\000"
 7144 1d0b 01       		.byte	0x1
 7145 1d0c DC02     		.2byte	0x2dc
 7146 1d0e 57060000 		.4byte	0x657
 7147 1d12 EB110000 		.4byte	.LLST112
 7148 1d16 20       		.uleb128 0x20
 7149 1d17 3F090000 		.4byte	.LASF116
 7150 1d1b 01       		.byte	0x1
 7151 1d1c DC02     		.2byte	0x2dc
 7152 1d1e 25000000 		.4byte	0x25
 7153 1d22 09120000 		.4byte	.LLST113
 7154 1d26 26       		.uleb128 0x26
 7155 1d27 0C000000 		.4byte	.LVL319
 7156 1d2b 8B1C0000 		.4byte	0x1c8b
 7157 1d2f 27       		.uleb128 0x27
 7158 1d30 01       		.uleb128 0x1
 7159 1d31 50       		.byte	0x50
 7160 1d32 02       		.uleb128 0x2
 7161 1d33 74       		.byte	0x74
 7162 1d34 00       		.sleb128 0
 7163 1d35 27       		.uleb128 0x27
 7164 1d36 01       		.uleb128 0x1
 7165 1d37 51       		.byte	0x51
 7166 1d38 02       		.uleb128 0x2
 7167 1d39 74       		.byte	0x74
 7168 1d3a 10       		.sleb128 16
 7169 1d3b 00       		.byte	0
 7170 1d3c 00       		.byte	0
 7171 1d3d 3A       		.uleb128 0x3a
 7172 1d3e 9C080000 		.4byte	.LASF151
 7173 1d42 01       		.byte	0x1
 7174 1d43 5301     		.2byte	0x153
 7175 1d45 06050000 		.4byte	0x506
 7176 1d49 00000000 		.4byte	.LFB96
 7177 1d4d 6C000000 		.4byte	.LFE96-.LFB96
 7178 1d51 01       		.uleb128 0x1
 7179 1d52 9C       		.byte	0x9c
 7180 1d53 A81D0000 		.4byte	0x1da8
 7181 1d57 1F       		.uleb128 0x1f
 7182 1d58 61727900 		.ascii	"ary\000"
 7183 1d5c 01       		.byte	0x1
ARM GAS  C:\Users\164\AppData\Local\Temp\ccuYWdBJ.s 			page 153


 7184 1d5d 5301     		.2byte	0x153
 7185 1d5f 57060000 		.4byte	0x657
 7186 1d63 2A120000 		.4byte	.LLST114
 7187 1d67 1F       		.uleb128 0x1f
 7188 1d68 69647800 		.ascii	"idx\000"
 7189 1d6c 01       		.byte	0x1
 7190 1d6d 5301     		.2byte	0x153
 7191 1d6f 25000000 		.4byte	0x25
 7192 1d73 4B120000 		.4byte	.LLST115
 7193 1d77 25       		.uleb128 0x25
 7194 1d78 6800     		.ascii	"h\000"
 7195 1d7a 01       		.byte	0x1
 7196 1d7b 5501     		.2byte	0x155
 7197 1d7d 750C0000 		.4byte	0xc75
 7198 1d81 01       		.uleb128 0x1
 7199 1d82 57       		.byte	0x57
 7200 1d83 25       		.uleb128 0x25
 7201 1d84 76616C00 		.ascii	"val\000"
 7202 1d88 01       		.byte	0x1
 7203 1d89 5A01     		.2byte	0x15a
 7204 1d8b 06050000 		.4byte	0x506
 7205 1d8f 02       		.uleb128 0x2
 7206 1d90 91       		.byte	0x91
 7207 1d91 58       		.sleb128 -40
 7208 1d92 26       		.uleb128 0x26
 7209 1d93 5A000000 		.4byte	.LVL324
 7210 1d97 03280000 		.4byte	0x2803
 7211 1d9b 27       		.uleb128 0x27
 7212 1d9c 01       		.uleb128 0x1
 7213 1d9d 52       		.byte	0x52
 7214 1d9e 07       		.uleb128 0x7
 7215 1d9f 75       		.byte	0x75
 7216 1da0 00       		.sleb128 0
 7217 1da1 76       		.byte	0x76
 7218 1da2 00       		.sleb128 0
 7219 1da3 1C       		.byte	0x1c
 7220 1da4 34       		.byte	0x34
 7221 1da5 24       		.byte	0x24
 7222 1da6 00       		.byte	0
 7223 1da7 00       		.byte	0
 7224 1da8 1E       		.uleb128 0x1e
 7225 1da9 97030000 		.4byte	.LASF152
 7226 1dad 01       		.byte	0x1
 7227 1dae 6602     		.2byte	0x266
 7228 1db0 00000000 		.4byte	.LFB105
 7229 1db4 2A000000 		.4byte	.LFE105-.LFB105
 7230 1db8 01       		.uleb128 0x1
 7231 1db9 9C       		.byte	0x9c
 7232 1dba 3E1E0000 		.4byte	0x1e3e
 7233 1dbe 1F       		.uleb128 0x1f
 7234 1dbf 766D00   		.ascii	"vm\000"
 7235 1dc2 01       		.byte	0x1
 7236 1dc3 6602     		.2byte	0x266
 7237 1dc5 47010000 		.4byte	0x147
 7238 1dc9 69120000 		.4byte	.LLST116
 7239 1dcd 1F       		.uleb128 0x1f
 7240 1dce 7600     		.ascii	"v\000"
ARM GAS  C:\Users\164\AppData\Local\Temp\ccuYWdBJ.s 			page 154


 7241 1dd0 01       		.byte	0x1
 7242 1dd1 6602     		.2byte	0x266
 7243 1dd3 57060000 		.4byte	0x657
 7244 1dd7 8A120000 		.4byte	.LLST117
 7245 1ddb 20       		.uleb128 0x20
 7246 1ddc 3F090000 		.4byte	.LASF116
 7247 1de0 01       		.byte	0x1
 7248 1de1 6602     		.2byte	0x266
 7249 1de3 25000000 		.4byte	0x25
 7250 1de7 A8120000 		.4byte	.LLST118
 7251 1deb 25       		.uleb128 0x25
 7252 1dec 76616C00 		.ascii	"val\000"
 7253 1df0 01       		.byte	0x1
 7254 1df1 6802     		.2byte	0x268
 7255 1df3 06050000 		.4byte	0x506
 7256 1df7 02       		.uleb128 0x2
 7257 1df8 91       		.byte	0x91
 7258 1df9 60       		.sleb128 -32
 7259 1dfa 2B       		.uleb128 0x2b
 7260 1dfb 10000000 		.4byte	.LBB115
 7261 1dff 16000000 		.4byte	.LBE115-.LBB115
 7262 1e03 271E0000 		.4byte	0x1e27
 7263 1e07 25       		.uleb128 0x25
 7264 1e08 6E6E6E00 		.ascii	"nnn\000"
 7265 1e0c 01       		.byte	0x1
 7266 1e0d 6902     		.2byte	0x269
 7267 1e0f 06050000 		.4byte	0x506
 7268 1e13 02       		.uleb128 0x2
 7269 1e14 91       		.byte	0x91
 7270 1e15 50       		.sleb128 -48
 7271 1e16 26       		.uleb128 0x26
 7272 1e17 1E000000 		.4byte	.LVL329
 7273 1e1b 4A270000 		.4byte	0x274a
 7274 1e1f 27       		.uleb128 0x27
 7275 1e20 01       		.uleb128 0x1
 7276 1e21 50       		.byte	0x50
 7277 1e22 02       		.uleb128 0x2
 7278 1e23 75       		.byte	0x75
 7279 1e24 00       		.sleb128 0
 7280 1e25 00       		.byte	0
 7281 1e26 00       		.byte	0
 7282 1e27 26       		.uleb128 0x26
 7283 1e28 10000000 		.4byte	.LVL328
 7284 1e2c 3D1D0000 		.4byte	0x1d3d
 7285 1e30 27       		.uleb128 0x27
 7286 1e31 01       		.uleb128 0x1
 7287 1e32 50       		.byte	0x50
 7288 1e33 02       		.uleb128 0x2
 7289 1e34 76       		.byte	0x76
 7290 1e35 00       		.sleb128 0
 7291 1e36 27       		.uleb128 0x27
 7292 1e37 01       		.uleb128 0x1
 7293 1e38 51       		.byte	0x51
 7294 1e39 02       		.uleb128 0x2
 7295 1e3a 75       		.byte	0x75
 7296 1e3b 00       		.sleb128 0
 7297 1e3c 00       		.byte	0
ARM GAS  C:\Users\164\AppData\Local\Temp\ccuYWdBJ.s 			page 155


 7298 1e3d 00       		.byte	0
 7299 1e3e 3B       		.uleb128 0x3b
 7300 1e3f 12080000 		.4byte	.LASF153
 7301 1e43 01       		.byte	0x1
 7302 1e44 6A01     		.2byte	0x16a
 7303 1e46 00000000 		.4byte	.LFB97
 7304 1e4a 22000000 		.4byte	.LFE97-.LFB97
 7305 1e4e 01       		.uleb128 0x1
 7306 1e4f 9C       		.byte	0x9c
 7307 1e50 9D1E0000 		.4byte	0x1e9d
 7308 1e54 1F       		.uleb128 0x1f
 7309 1e55 61727900 		.ascii	"ary\000"
 7310 1e59 01       		.byte	0x1
 7311 1e5a 6A01     		.2byte	0x16a
 7312 1e5c 57060000 		.4byte	0x657
 7313 1e60 C9120000 		.4byte	.LLST119
 7314 1e64 25       		.uleb128 0x25
 7315 1e65 6800     		.ascii	"h\000"
 7316 1e67 01       		.byte	0x1
 7317 1e68 6C01     		.2byte	0x16c
 7318 1e6a 750C0000 		.4byte	0xc75
 7319 1e6e 01       		.uleb128 0x1
 7320 1e6f 56       		.byte	0x56
 7321 1e70 2A       		.uleb128 0x2a
 7322 1e71 703100   		.ascii	"p1\000"
 7323 1e74 01       		.byte	0x1
 7324 1e75 6E01     		.2byte	0x16e
 7325 1e77 57060000 		.4byte	0x657
 7326 1e7b EA120000 		.4byte	.LLST120
 7327 1e7f 25       		.uleb128 0x25
 7328 1e80 703200   		.ascii	"p2\000"
 7329 1e83 01       		.byte	0x1
 7330 1e84 6F01     		.2byte	0x16f
 7331 1e86 C2060000 		.4byte	0x6c2
 7332 1e8a 01       		.uleb128 0x1
 7333 1e8b 55       		.byte	0x55
 7334 1e8c 26       		.uleb128 0x26
 7335 1e8d 16000000 		.4byte	.LVL335
 7336 1e91 4A270000 		.4byte	0x274a
 7337 1e95 27       		.uleb128 0x27
 7338 1e96 01       		.uleb128 0x1
 7339 1e97 50       		.byte	0x50
 7340 1e98 02       		.uleb128 0x2
 7341 1e99 74       		.byte	0x74
 7342 1e9a 70       		.sleb128 -16
 7343 1e9b 00       		.byte	0
 7344 1e9c 00       		.byte	0
 7345 1e9d 1E       		.uleb128 0x1e
 7346 1e9e 19030000 		.4byte	.LASF154
 7347 1ea2 01       		.byte	0x1
 7348 1ea3 5D02     		.2byte	0x25d
 7349 1ea5 00000000 		.4byte	.LFB104
 7350 1ea9 0A000000 		.4byte	.LFE104-.LFB104
 7351 1ead 01       		.uleb128 0x1
 7352 1eae 9C       		.byte	0x9c
 7353 1eaf F21E0000 		.4byte	0x1ef2
 7354 1eb3 1F       		.uleb128 0x1f
ARM GAS  C:\Users\164\AppData\Local\Temp\ccuYWdBJ.s 			page 156


 7355 1eb4 766D00   		.ascii	"vm\000"
 7356 1eb7 01       		.byte	0x1
 7357 1eb8 5D02     		.2byte	0x25d
 7358 1eba 47010000 		.4byte	0x147
 7359 1ebe 13130000 		.4byte	.LLST121
 7360 1ec2 1F       		.uleb128 0x1f
 7361 1ec3 7600     		.ascii	"v\000"
 7362 1ec5 01       		.byte	0x1
 7363 1ec6 5D02     		.2byte	0x25d
 7364 1ec8 57060000 		.4byte	0x657
 7365 1ecc 34130000 		.4byte	.LLST122
 7366 1ed0 20       		.uleb128 0x20
 7367 1ed1 3F090000 		.4byte	.LASF116
 7368 1ed5 01       		.byte	0x1
 7369 1ed6 5D02     		.2byte	0x25d
 7370 1ed8 25000000 		.4byte	0x25
 7371 1edc 55130000 		.4byte	.LLST123
 7372 1ee0 26       		.uleb128 0x26
 7373 1ee1 08000000 		.4byte	.LVL339
 7374 1ee5 3E1E0000 		.4byte	0x1e3e
 7375 1ee9 27       		.uleb128 0x27
 7376 1eea 01       		.uleb128 0x1
 7377 1eeb 50       		.byte	0x50
 7378 1eec 03       		.uleb128 0x3
 7379 1eed F3       		.byte	0xf3
 7380 1eee 01       		.uleb128 0x1
 7381 1eef 51       		.byte	0x51
 7382 1ef0 00       		.byte	0
 7383 1ef1 00       		.byte	0
 7384 1ef2 3A       		.uleb128 0x3a
 7385 1ef3 65050000 		.4byte	.LASF155
 7386 1ef7 01       		.byte	0x1
 7387 1ef8 8101     		.2byte	0x181
 7388 1efa 25000000 		.4byte	0x25
 7389 1efe 00000000 		.4byte	.LFB98
 7390 1f02 36000000 		.4byte	.LFE98-.LFB98
 7391 1f06 01       		.uleb128 0x1
 7392 1f07 9C       		.byte	0x9c
 7393 1f08 B41F0000 		.4byte	0x1fb4
 7394 1f0c 1F       		.uleb128 0x1f
 7395 1f0d 763100   		.ascii	"v1\000"
 7396 1f10 01       		.byte	0x1
 7397 1f11 8101     		.2byte	0x181
 7398 1f13 C2060000 		.4byte	0x6c2
 7399 1f17 76130000 		.4byte	.LLST124
 7400 1f1b 1F       		.uleb128 0x1f
 7401 1f1c 763200   		.ascii	"v2\000"
 7402 1f1f 01       		.byte	0x1
 7403 1f20 8101     		.2byte	0x181
 7404 1f22 C2060000 		.4byte	0x6c2
 7405 1f26 94130000 		.4byte	.LLST125
 7406 1f2a 2A       		.uleb128 0x2a
 7407 1f2b 6900     		.ascii	"i\000"
 7408 1f2d 01       		.byte	0x1
 7409 1f2e 8301     		.2byte	0x183
 7410 1f30 25000000 		.4byte	0x25
 7411 1f34 B2130000 		.4byte	.LLST126
ARM GAS  C:\Users\164\AppData\Local\Temp\ccuYWdBJ.s 			page 157


 7412 1f38 24       		.uleb128 0x24
 7413 1f39 08000000 		.4byte	.LBB116
 7414 1f3d 28000000 		.4byte	.LBE116-.LBB116
 7415 1f41 25       		.uleb128 0x25
 7416 1f42 72657300 		.ascii	"res\000"
 7417 1f46 01       		.byte	0x1
 7418 1f47 8901     		.2byte	0x189
 7419 1f49 25000000 		.4byte	0x25
 7420 1f4d 01       		.uleb128 0x1
 7421 1f4e 50       		.byte	0x50
 7422 1f4f 22       		.uleb128 0x22
 7423 1f50 A6060000 		.4byte	0x6a6
 7424 1f54 08000000 		.4byte	.LBB117
 7425 1f58 04000000 		.4byte	.LBE117-.LBB117
 7426 1f5c 01       		.byte	0x1
 7427 1f5d 8501     		.2byte	0x185
 7428 1f5f 6D1F0000 		.4byte	0x1f6d
 7429 1f63 23       		.uleb128 0x23
 7430 1f64 B6060000 		.4byte	0x6b6
 7431 1f68 D1130000 		.4byte	.LLST127
 7432 1f6c 00       		.byte	0
 7433 1f6d 22       		.uleb128 0x22
 7434 1f6e A6060000 		.4byte	0x6a6
 7435 1f72 10000000 		.4byte	.LBB119
 7436 1f76 04000000 		.4byte	.LBE119-.LBB119
 7437 1f7a 01       		.byte	0x1
 7438 1f7b 8501     		.2byte	0x185
 7439 1f7d 8B1F0000 		.4byte	0x1f8b
 7440 1f81 23       		.uleb128 0x23
 7441 1f82 B6060000 		.4byte	0x6b6
 7442 1f86 E4130000 		.4byte	.LLST128
 7443 1f8a 00       		.byte	0
 7444 1f8b 22       		.uleb128 0x22
 7445 1f8c A6060000 		.4byte	0x6a6
 7446 1f90 18000000 		.4byte	.LBB121
 7447 1f94 04000000 		.4byte	.LBE121-.LBB121
 7448 1f98 01       		.byte	0x1
 7449 1f99 8601     		.2byte	0x186
 7450 1f9b A91F0000 		.4byte	0x1fa9
 7451 1f9f 23       		.uleb128 0x23
 7452 1fa0 B6060000 		.4byte	0x6b6
 7453 1fa4 F7130000 		.4byte	.LLST129
 7454 1fa8 00       		.byte	0
 7455 1fa9 33       		.uleb128 0x33
 7456 1faa 2E000000 		.4byte	.LVL349
 7457 1fae 55270000 		.4byte	0x2755
 7458 1fb2 00       		.byte	0
 7459 1fb3 00       		.byte	0
 7460 1fb4 3B       		.uleb128 0x3b
 7461 1fb5 C8010000 		.4byte	.LASF156
 7462 1fb9 01       		.byte	0x1
 7463 1fba 9601     		.2byte	0x196
 7464 1fbc 00000000 		.4byte	.LFB99
 7465 1fc0 5C000000 		.4byte	.LFE99-.LFB99
 7466 1fc4 01       		.uleb128 0x1
 7467 1fc5 9C       		.byte	0x9c
 7468 1fc6 57200000 		.4byte	0x2057
ARM GAS  C:\Users\164\AppData\Local\Temp\ccuYWdBJ.s 			page 158


 7469 1fca 1F       		.uleb128 0x1f
 7470 1fcb 61727900 		.ascii	"ary\000"
 7471 1fcf 01       		.byte	0x1
 7472 1fd0 9601     		.2byte	0x196
 7473 1fd2 57060000 		.4byte	0x657
 7474 1fd6 0A140000 		.4byte	.LLST130
 7475 1fda 20       		.uleb128 0x20
 7476 1fdb AC040000 		.4byte	.LASF157
 7477 1fdf 01       		.byte	0x1
 7478 1fe0 9601     		.2byte	0x196
 7479 1fe2 57200000 		.4byte	0x2057
 7480 1fe6 2B140000 		.4byte	.LLST131
 7481 1fea 20       		.uleb128 0x20
 7482 1feb F5020000 		.4byte	.LASF158
 7483 1fef 01       		.byte	0x1
 7484 1ff0 9601     		.2byte	0x196
 7485 1ff2 57200000 		.4byte	0x2057
 7486 1ff6 49140000 		.4byte	.LLST132
 7487 1ffa 25       		.uleb128 0x25
 7488 1ffb 6800     		.ascii	"h\000"
 7489 1ffd 01       		.byte	0x1
 7490 1ffe 9801     		.2byte	0x198
 7491 2000 750C0000 		.4byte	0xc75
 7492 2004 01       		.uleb128 0x1
 7493 2005 54       		.byte	0x54
 7494 2006 29       		.uleb128 0x29
 7495 2007 85000000 		.4byte	.LASF159
 7496 200b 01       		.byte	0x1
 7497 200c A001     		.2byte	0x1a0
 7498 200e 57060000 		.4byte	0x657
 7499 2012 01       		.uleb128 0x1
 7500 2013 58       		.byte	0x58
 7501 2014 2C       		.uleb128 0x2c
 7502 2015 DB050000 		.4byte	.LASF160
 7503 2019 01       		.byte	0x1
 7504 201a A101     		.2byte	0x1a1
 7505 201c 57060000 		.4byte	0x657
 7506 2020 67140000 		.4byte	.LLST133
 7507 2024 2A       		.uleb128 0x2a
 7508 2025 6900     		.ascii	"i\000"
 7509 2027 01       		.byte	0x1
 7510 2028 A301     		.2byte	0x1a3
 7511 202a 25000000 		.4byte	0x25
 7512 202e 90140000 		.4byte	.LLST134
 7513 2032 28       		.uleb128 0x28
 7514 2033 2C000000 		.4byte	.LVL356
 7515 2037 55270000 		.4byte	0x2755
 7516 203b 46200000 		.4byte	0x2046
 7517 203f 27       		.uleb128 0x27
 7518 2040 01       		.uleb128 0x1
 7519 2041 51       		.byte	0x51
 7520 2042 02       		.uleb128 0x2
 7521 2043 78       		.byte	0x78
 7522 2044 00       		.sleb128 0
 7523 2045 00       		.byte	0
 7524 2046 26       		.uleb128 0x26
 7525 2047 40000000 		.4byte	.LVL358
ARM GAS  C:\Users\164\AppData\Local\Temp\ccuYWdBJ.s 			page 159


 7526 204b 55270000 		.4byte	0x2755
 7527 204f 27       		.uleb128 0x27
 7528 2050 01       		.uleb128 0x1
 7529 2051 51       		.byte	0x51
 7530 2052 02       		.uleb128 0x2
 7531 2053 77       		.byte	0x77
 7532 2054 00       		.sleb128 0
 7533 2055 00       		.byte	0
 7534 2056 00       		.byte	0
 7535 2057 05       		.uleb128 0x5
 7536 2058 04       		.byte	0x4
 7537 2059 57060000 		.4byte	0x657
 7538 205d 1E       		.uleb128 0x1e
 7539 205e 76000000 		.4byte	.LASF161
 7540 2062 01       		.byte	0x1
 7541 2063 4203     		.2byte	0x342
 7542 2065 00000000 		.4byte	.LFB118
 7543 2069 76000000 		.4byte	.LFE118-.LFB118
 7544 206d 01       		.uleb128 0x1
 7545 206e 9C       		.byte	0x9c
 7546 206f 8B210000 		.4byte	0x218b
 7547 2073 1F       		.uleb128 0x1f
 7548 2074 766D00   		.ascii	"vm\000"
 7549 2077 01       		.byte	0x1
 7550 2078 4203     		.2byte	0x342
 7551 207a 47010000 		.4byte	0x147
 7552 207e AF140000 		.4byte	.LLST135
 7553 2082 1F       		.uleb128 0x1f
 7554 2083 7600     		.ascii	"v\000"
 7555 2085 01       		.byte	0x1
 7556 2086 4203     		.2byte	0x342
 7557 2088 57060000 		.4byte	0x657
 7558 208c DB140000 		.4byte	.LLST136
 7559 2090 20       		.uleb128 0x20
 7560 2091 3F090000 		.4byte	.LASF116
 7561 2095 01       		.byte	0x1
 7562 2096 4203     		.2byte	0x342
 7563 2098 25000000 		.4byte	0x25
 7564 209c F9140000 		.4byte	.LLST137
 7565 20a0 29       		.uleb128 0x29
 7566 20a1 85000000 		.4byte	.LASF159
 7567 20a5 01       		.byte	0x1
 7568 20a6 4603     		.2byte	0x346
 7569 20a8 57060000 		.4byte	0x657
 7570 20ac 02       		.uleb128 0x2
 7571 20ad 91       		.byte	0x91
 7572 20ae 6C       		.sleb128 -20
 7573 20af 29       		.uleb128 0x29
 7574 20b0 DB050000 		.4byte	.LASF160
 7575 20b4 01       		.byte	0x1
 7576 20b5 4603     		.2byte	0x346
 7577 20b7 57060000 		.4byte	0x657
 7578 20bb 02       		.uleb128 0x2
 7579 20bc 91       		.byte	0x91
 7580 20bd 68       		.sleb128 -24
 7581 20be 25       		.uleb128 0x25
 7582 20bf 6E696C00 		.ascii	"nil\000"
ARM GAS  C:\Users\164\AppData\Local\Temp\ccuYWdBJ.s 			page 160


 7583 20c3 01       		.byte	0x1
 7584 20c4 4703     		.2byte	0x347
 7585 20c6 06050000 		.4byte	0x506
 7586 20ca 02       		.uleb128 0x2
 7587 20cb 91       		.byte	0x91
 7588 20cc 58       		.sleb128 -40
 7589 20cd 25       		.uleb128 0x25
 7590 20ce 72657400 		.ascii	"ret\000"
 7591 20d2 01       		.byte	0x1
 7592 20d3 4803     		.2byte	0x348
 7593 20d5 06050000 		.4byte	0x506
 7594 20d9 02       		.uleb128 0x2
 7595 20da 91       		.byte	0x91
 7596 20db 48       		.sleb128 -56
 7597 20dc 2B       		.uleb128 0x2b
 7598 20dd 5C000000 		.4byte	.LBB123
 7599 20e1 16000000 		.4byte	.LBE123-.LBB123
 7600 20e5 0A210000 		.4byte	0x210a
 7601 20e9 25       		.uleb128 0x25
 7602 20ea 6E6E6E00 		.ascii	"nnn\000"
 7603 20ee 01       		.byte	0x1
 7604 20ef 5303     		.2byte	0x353
 7605 20f1 06050000 		.4byte	0x506
 7606 20f5 03       		.uleb128 0x3
 7607 20f6 91       		.byte	0x91
 7608 20f7 B87F     		.sleb128 -72
 7609 20f9 26       		.uleb128 0x26
 7610 20fa 6A000000 		.4byte	.LVL372
 7611 20fe 4A270000 		.4byte	0x274a
 7612 2102 27       		.uleb128 0x27
 7613 2103 01       		.uleb128 0x1
 7614 2104 50       		.byte	0x50
 7615 2105 02       		.uleb128 0x2
 7616 2106 75       		.byte	0x75
 7617 2107 00       		.sleb128 0
 7618 2108 00       		.byte	0
 7619 2109 00       		.byte	0
 7620 210a 28       		.uleb128 0x28
 7621 210b 20000000 		.4byte	.LVL366
 7622 210f CE0B0000 		.4byte	0xbce
 7623 2113 2A210000 		.4byte	0x212a
 7624 2117 27       		.uleb128 0x27
 7625 2118 01       		.uleb128 0x1
 7626 2119 50       		.byte	0x50
 7627 211a 02       		.uleb128 0x2
 7628 211b 91       		.byte	0x91
 7629 211c 48       		.sleb128 -56
 7630 211d 27       		.uleb128 0x27
 7631 211e 01       		.uleb128 0x1
 7632 211f 51       		.byte	0x51
 7633 2120 03       		.uleb128 0x3
 7634 2121 F3       		.byte	0xf3
 7635 2122 01       		.uleb128 0x1
 7636 2123 50       		.byte	0x50
 7637 2124 27       		.uleb128 0x27
 7638 2125 01       		.uleb128 0x1
 7639 2126 52       		.byte	0x52
ARM GAS  C:\Users\164\AppData\Local\Temp\ccuYWdBJ.s 			page 161


 7640 2127 01       		.uleb128 0x1
 7641 2128 32       		.byte	0x32
 7642 2129 00       		.byte	0
 7643 212a 28       		.uleb128 0x28
 7644 212b 2A000000 		.4byte	.LVL367
 7645 212f B41F0000 		.4byte	0x1fb4
 7646 2133 4A210000 		.4byte	0x214a
 7647 2137 27       		.uleb128 0x27
 7648 2138 01       		.uleb128 0x1
 7649 2139 50       		.byte	0x50
 7650 213a 02       		.uleb128 0x2
 7651 213b 75       		.byte	0x75
 7652 213c 00       		.sleb128 0
 7653 213d 27       		.uleb128 0x27
 7654 213e 01       		.uleb128 0x1
 7655 213f 51       		.byte	0x51
 7656 2140 02       		.uleb128 0x2
 7657 2141 91       		.byte	0x91
 7658 2142 6C       		.sleb128 -20
 7659 2143 27       		.uleb128 0x27
 7660 2144 01       		.uleb128 0x1
 7661 2145 52       		.byte	0x52
 7662 2146 02       		.uleb128 0x2
 7663 2147 91       		.byte	0x91
 7664 2148 68       		.sleb128 -24
 7665 2149 00       		.byte	0
 7666 214a 33       		.uleb128 0x33
 7667 214b 40000000 		.4byte	.LVL368
 7668 214f AB270000 		.4byte	0x27ab
 7669 2153 33       		.uleb128 0x33
 7670 2154 46000000 		.4byte	.LVL369
 7671 2158 AB270000 		.4byte	0x27ab
 7672 215c 28       		.uleb128 0x28
 7673 215d 52000000 		.4byte	.LVL370
 7674 2161 0B100000 		.4byte	0x100b
 7675 2165 75210000 		.4byte	0x2175
 7676 2169 27       		.uleb128 0x27
 7677 216a 01       		.uleb128 0x1
 7678 216b 50       		.byte	0x50
 7679 216c 02       		.uleb128 0x2
 7680 216d 76       		.byte	0x76
 7681 216e 00       		.sleb128 0
 7682 216f 27       		.uleb128 0x27
 7683 2170 01       		.uleb128 0x1
 7684 2171 51       		.byte	0x51
 7685 2172 01       		.uleb128 0x1
 7686 2173 30       		.byte	0x30
 7687 2174 00       		.byte	0
 7688 2175 26       		.uleb128 0x26
 7689 2176 5C000000 		.4byte	.LVL371
 7690 217a 0B100000 		.4byte	0x100b
 7691 217e 27       		.uleb128 0x27
 7692 217f 01       		.uleb128 0x1
 7693 2180 50       		.byte	0x50
 7694 2181 02       		.uleb128 0x2
 7695 2182 76       		.byte	0x76
 7696 2183 00       		.sleb128 0
ARM GAS  C:\Users\164\AppData\Local\Temp\ccuYWdBJ.s 			page 162


 7697 2184 27       		.uleb128 0x27
 7698 2185 01       		.uleb128 0x1
 7699 2186 51       		.byte	0x51
 7700 2187 01       		.uleb128 0x1
 7701 2188 31       		.byte	0x31
 7702 2189 00       		.byte	0
 7703 218a 00       		.byte	0
 7704 218b 1E       		.uleb128 0x1e
 7705 218c 7E070000 		.4byte	.LASF162
 7706 2190 01       		.byte	0x1
 7707 2191 2E03     		.2byte	0x32e
 7708 2193 00000000 		.4byte	.LFB117
 7709 2197 3E000000 		.4byte	.LFE117-.LFB117
 7710 219b 01       		.uleb128 0x1
 7711 219c 9C       		.byte	0x9c
 7712 219d 57220000 		.4byte	0x2257
 7713 21a1 1F       		.uleb128 0x1f
 7714 21a2 766D00   		.ascii	"vm\000"
 7715 21a5 01       		.byte	0x1
 7716 21a6 2E03     		.2byte	0x32e
 7717 21a8 47010000 		.4byte	0x147
 7718 21ac 1A150000 		.4byte	.LLST138
 7719 21b0 1F       		.uleb128 0x1f
 7720 21b1 7600     		.ascii	"v\000"
 7721 21b3 01       		.byte	0x1
 7722 21b4 2E03     		.2byte	0x32e
 7723 21b6 57060000 		.4byte	0x657
 7724 21ba 3B150000 		.4byte	.LLST139
 7725 21be 20       		.uleb128 0x20
 7726 21bf 3F090000 		.4byte	.LASF116
 7727 21c3 01       		.byte	0x1
 7728 21c4 2E03     		.2byte	0x32e
 7729 21c6 25000000 		.4byte	0x25
 7730 21ca 59150000 		.4byte	.LLST140
 7731 21ce 29       		.uleb128 0x29
 7732 21cf 85000000 		.4byte	.LASF159
 7733 21d3 01       		.byte	0x1
 7734 21d4 3203     		.2byte	0x332
 7735 21d6 57060000 		.4byte	0x657
 7736 21da 02       		.uleb128 0x2
 7737 21db 91       		.byte	0x91
 7738 21dc 6C       		.sleb128 -20
 7739 21dd 29       		.uleb128 0x29
 7740 21de DB050000 		.4byte	.LASF160
 7741 21e2 01       		.byte	0x1
 7742 21e3 3203     		.2byte	0x332
 7743 21e5 57060000 		.4byte	0x657
 7744 21e9 02       		.uleb128 0x2
 7745 21ea 91       		.byte	0x91
 7746 21eb 68       		.sleb128 -24
 7747 21ec 2B       		.uleb128 0x2b
 7748 21ed 24000000 		.4byte	.LBB124
 7749 21f1 16000000 		.4byte	.LBE124-.LBB124
 7750 21f5 19220000 		.4byte	0x2219
 7751 21f9 25       		.uleb128 0x25
 7752 21fa 6E6E6E00 		.ascii	"nnn\000"
 7753 21fe 01       		.byte	0x1
ARM GAS  C:\Users\164\AppData\Local\Temp\ccuYWdBJ.s 			page 163


 7754 21ff 3B03     		.2byte	0x33b
 7755 2201 06050000 		.4byte	0x506
 7756 2205 02       		.uleb128 0x2
 7757 2206 91       		.byte	0x91
 7758 2207 58       		.sleb128 -40
 7759 2208 26       		.uleb128 0x26
 7760 2209 32000000 		.4byte	.LVL380
 7761 220d 4A270000 		.4byte	0x274a
 7762 2211 27       		.uleb128 0x27
 7763 2212 01       		.uleb128 0x1
 7764 2213 50       		.byte	0x50
 7765 2214 02       		.uleb128 0x2
 7766 2215 75       		.byte	0x75
 7767 2216 00       		.sleb128 0
 7768 2217 00       		.byte	0
 7769 2218 00       		.byte	0
 7770 2219 28       		.uleb128 0x28
 7771 221a 10000000 		.4byte	.LVL377
 7772 221e B41F0000 		.4byte	0x1fb4
 7773 2222 39220000 		.4byte	0x2239
 7774 2226 27       		.uleb128 0x27
 7775 2227 01       		.uleb128 0x1
 7776 2228 50       		.byte	0x50
 7777 2229 02       		.uleb128 0x2
 7778 222a 75       		.byte	0x75
 7779 222b 00       		.sleb128 0
 7780 222c 27       		.uleb128 0x27
 7781 222d 01       		.uleb128 0x1
 7782 222e 51       		.byte	0x51
 7783 222f 02       		.uleb128 0x2
 7784 2230 91       		.byte	0x91
 7785 2231 6C       		.sleb128 -20
 7786 2232 27       		.uleb128 0x27
 7787 2233 01       		.uleb128 0x1
 7788 2234 52       		.byte	0x52
 7789 2235 02       		.uleb128 0x2
 7790 2236 91       		.byte	0x91
 7791 2237 68       		.sleb128 -24
 7792 2238 00       		.byte	0
 7793 2239 28       		.uleb128 0x28
 7794 223a 1A000000 		.4byte	.LVL378
 7795 223e 4A270000 		.4byte	0x274a
 7796 2242 4D220000 		.4byte	0x224d
 7797 2246 27       		.uleb128 0x27
 7798 2247 01       		.uleb128 0x1
 7799 2248 50       		.byte	0x50
 7800 2249 02       		.uleb128 0x2
 7801 224a 75       		.byte	0x75
 7802 224b 00       		.sleb128 0
 7803 224c 00       		.byte	0
 7804 224d 33       		.uleb128 0x33
 7805 224e 24000000 		.4byte	.LVL379
 7806 2252 AB270000 		.4byte	0x27ab
 7807 2256 00       		.byte	0
 7808 2257 1E       		.uleb128 0x1e
 7809 2258 E0070000 		.4byte	.LASF163
 7810 225c 01       		.byte	0x1
ARM GAS  C:\Users\164\AppData\Local\Temp\ccuYWdBJ.s 			page 164


 7811 225d 1A03     		.2byte	0x31a
 7812 225f 00000000 		.4byte	.LFB116
 7813 2263 3E000000 		.4byte	.LFE116-.LFB116
 7814 2267 01       		.uleb128 0x1
 7815 2268 9C       		.byte	0x9c
 7816 2269 23230000 		.4byte	0x2323
 7817 226d 1F       		.uleb128 0x1f
 7818 226e 766D00   		.ascii	"vm\000"
 7819 2271 01       		.byte	0x1
 7820 2272 1A03     		.2byte	0x31a
 7821 2274 47010000 		.4byte	0x147
 7822 2278 7A150000 		.4byte	.LLST141
 7823 227c 1F       		.uleb128 0x1f
 7824 227d 7600     		.ascii	"v\000"
 7825 227f 01       		.byte	0x1
 7826 2280 1A03     		.2byte	0x31a
 7827 2282 57060000 		.4byte	0x657
 7828 2286 9B150000 		.4byte	.LLST142
 7829 228a 20       		.uleb128 0x20
 7830 228b 3F090000 		.4byte	.LASF116
 7831 228f 01       		.byte	0x1
 7832 2290 1A03     		.2byte	0x31a
 7833 2292 25000000 		.4byte	0x25
 7834 2296 B9150000 		.4byte	.LLST143
 7835 229a 29       		.uleb128 0x29
 7836 229b 85000000 		.4byte	.LASF159
 7837 229f 01       		.byte	0x1
 7838 22a0 1E03     		.2byte	0x31e
 7839 22a2 57060000 		.4byte	0x657
 7840 22a6 02       		.uleb128 0x2
 7841 22a7 91       		.byte	0x91
 7842 22a8 6C       		.sleb128 -20
 7843 22a9 29       		.uleb128 0x29
 7844 22aa DB050000 		.4byte	.LASF160
 7845 22ae 01       		.byte	0x1
 7846 22af 1E03     		.2byte	0x31e
 7847 22b1 57060000 		.4byte	0x657
 7848 22b5 02       		.uleb128 0x2
 7849 22b6 91       		.byte	0x91
 7850 22b7 68       		.sleb128 -24
 7851 22b8 2B       		.uleb128 0x2b
 7852 22b9 24000000 		.4byte	.LBB125
 7853 22bd 16000000 		.4byte	.LBE125-.LBB125
 7854 22c1 E5220000 		.4byte	0x22e5
 7855 22c5 25       		.uleb128 0x25
 7856 22c6 6E6E6E00 		.ascii	"nnn\000"
 7857 22ca 01       		.byte	0x1
 7858 22cb 2703     		.2byte	0x327
 7859 22cd 06050000 		.4byte	0x506
 7860 22d1 02       		.uleb128 0x2
 7861 22d2 91       		.byte	0x91
 7862 22d3 58       		.sleb128 -40
 7863 22d4 26       		.uleb128 0x26
 7864 22d5 32000000 		.4byte	.LVL388
 7865 22d9 4A270000 		.4byte	0x274a
 7866 22dd 27       		.uleb128 0x27
 7867 22de 01       		.uleb128 0x1
ARM GAS  C:\Users\164\AppData\Local\Temp\ccuYWdBJ.s 			page 165


 7868 22df 50       		.byte	0x50
 7869 22e0 02       		.uleb128 0x2
 7870 22e1 75       		.byte	0x75
 7871 22e2 00       		.sleb128 0
 7872 22e3 00       		.byte	0
 7873 22e4 00       		.byte	0
 7874 22e5 28       		.uleb128 0x28
 7875 22e6 10000000 		.4byte	.LVL385
 7876 22ea B41F0000 		.4byte	0x1fb4
 7877 22ee 05230000 		.4byte	0x2305
 7878 22f2 27       		.uleb128 0x27
 7879 22f3 01       		.uleb128 0x1
 7880 22f4 50       		.byte	0x50
 7881 22f5 02       		.uleb128 0x2
 7882 22f6 75       		.byte	0x75
 7883 22f7 00       		.sleb128 0
 7884 22f8 27       		.uleb128 0x27
 7885 22f9 01       		.uleb128 0x1
 7886 22fa 51       		.byte	0x51
 7887 22fb 02       		.uleb128 0x2
 7888 22fc 91       		.byte	0x91
 7889 22fd 6C       		.sleb128 -20
 7890 22fe 27       		.uleb128 0x27
 7891 22ff 01       		.uleb128 0x1
 7892 2300 52       		.byte	0x52
 7893 2301 02       		.uleb128 0x2
 7894 2302 91       		.byte	0x91
 7895 2303 68       		.sleb128 -24
 7896 2304 00       		.byte	0
 7897 2305 28       		.uleb128 0x28
 7898 2306 1A000000 		.4byte	.LVL386
 7899 230a 4A270000 		.4byte	0x274a
 7900 230e 19230000 		.4byte	0x2319
 7901 2312 27       		.uleb128 0x27
 7902 2313 01       		.uleb128 0x1
 7903 2314 50       		.byte	0x50
 7904 2315 02       		.uleb128 0x2
 7905 2316 75       		.byte	0x75
 7906 2317 00       		.sleb128 0
 7907 2318 00       		.byte	0
 7908 2319 33       		.uleb128 0x33
 7909 231a 24000000 		.4byte	.LVL387
 7910 231e AB270000 		.4byte	0x27ab
 7911 2322 00       		.byte	0
 7912 2323 3B       		.uleb128 0x3b
 7913 2324 81030000 		.4byte	.LASF164
 7914 2328 01       		.byte	0x1
 7915 2329 A403     		.2byte	0x3a4
 7916 232b 00000000 		.4byte	.LFB122
 7917 232f 1C020000 		.4byte	.LFE122-.LFB122
 7918 2333 01       		.uleb128 0x1
 7919 2334 9C       		.byte	0x9c
 7920 2335 23270000 		.4byte	0x2723
 7921 2339 1F       		.uleb128 0x1f
 7922 233a 766D00   		.ascii	"vm\000"
 7923 233d 01       		.byte	0x1
 7924 233e A403     		.2byte	0x3a4
ARM GAS  C:\Users\164\AppData\Local\Temp\ccuYWdBJ.s 			page 166


 7925 2340 47010000 		.4byte	0x147
 7926 2344 DA150000 		.4byte	.LLST144
 7927 2348 28       		.uleb128 0x28
 7928 2349 0E000000 		.4byte	.LVL390
 7929 234d 0E280000 		.4byte	0x280e
 7930 2351 65230000 		.4byte	0x2365
 7931 2355 27       		.uleb128 0x27
 7932 2356 01       		.uleb128 0x1
 7933 2357 50       		.byte	0x50
 7934 2358 02       		.uleb128 0x2
 7935 2359 74       		.byte	0x74
 7936 235a 00       		.sleb128 0
 7937 235b 27       		.uleb128 0x27
 7938 235c 01       		.uleb128 0x1
 7939 235d 51       		.byte	0x51
 7940 235e 05       		.uleb128 0x5
 7941 235f 03       		.byte	0x3
 7942 2360 B0000000 		.4byte	.LC11
 7943 2364 00       		.byte	0
 7944 2365 28       		.uleb128 0x28
 7945 2366 1E000000 		.4byte	.LVL391
 7946 236a 19280000 		.4byte	0x2819
 7947 236e 8B230000 		.4byte	0x238b
 7948 2372 27       		.uleb128 0x27
 7949 2373 01       		.uleb128 0x1
 7950 2374 50       		.byte	0x50
 7951 2375 02       		.uleb128 0x2
 7952 2376 74       		.byte	0x74
 7953 2377 00       		.sleb128 0
 7954 2378 27       		.uleb128 0x27
 7955 2379 01       		.uleb128 0x1
 7956 237a 52       		.byte	0x52
 7957 237b 05       		.uleb128 0x5
 7958 237c 03       		.byte	0x3
 7959 237d B8000000 		.4byte	.LC12
 7960 2381 27       		.uleb128 0x27
 7961 2382 01       		.uleb128 0x1
 7962 2383 53       		.byte	0x53
 7963 2384 05       		.uleb128 0x5
 7964 2385 03       		.byte	0x3
 7965 2386 00000000 		.4byte	c_array_new
 7966 238a 00       		.byte	0
 7967 238b 28       		.uleb128 0x28
 7968 238c 2A000000 		.4byte	.LVL392
 7969 2390 19280000 		.4byte	0x2819
 7970 2394 B1230000 		.4byte	0x23b1
 7971 2398 27       		.uleb128 0x27
 7972 2399 01       		.uleb128 0x1
 7973 239a 50       		.byte	0x50
 7974 239b 02       		.uleb128 0x2
 7975 239c 74       		.byte	0x74
 7976 239d 00       		.sleb128 0
 7977 239e 27       		.uleb128 0x27
 7978 239f 01       		.uleb128 0x1
 7979 23a0 52       		.byte	0x52
 7980 23a1 05       		.uleb128 0x5
 7981 23a2 03       		.byte	0x3
ARM GAS  C:\Users\164\AppData\Local\Temp\ccuYWdBJ.s 			page 167


 7982 23a3 BC000000 		.4byte	.LC13
 7983 23a7 27       		.uleb128 0x27
 7984 23a8 01       		.uleb128 0x1
 7985 23a9 53       		.byte	0x53
 7986 23aa 05       		.uleb128 0x5
 7987 23ab 03       		.byte	0x3
 7988 23ac 00000000 		.4byte	c_array_add
 7989 23b0 00       		.byte	0
 7990 23b1 28       		.uleb128 0x28
 7991 23b2 38000000 		.4byte	.LVL393
 7992 23b6 19280000 		.4byte	0x2819
 7993 23ba D4230000 		.4byte	0x23d4
 7994 23be 27       		.uleb128 0x27
 7995 23bf 01       		.uleb128 0x1
 7996 23c0 50       		.byte	0x50
 7997 23c1 02       		.uleb128 0x2
 7998 23c2 74       		.byte	0x74
 7999 23c3 00       		.sleb128 0
 8000 23c4 27       		.uleb128 0x27
 8001 23c5 01       		.uleb128 0x1
 8002 23c6 52       		.byte	0x52
 8003 23c7 05       		.uleb128 0x5
 8004 23c8 03       		.byte	0x3
 8005 23c9 C0000000 		.4byte	.LC14
 8006 23cd 27       		.uleb128 0x27
 8007 23ce 01       		.uleb128 0x1
 8008 23cf 53       		.byte	0x53
 8009 23d0 02       		.uleb128 0x2
 8010 23d1 76       		.byte	0x76
 8011 23d2 00       		.sleb128 0
 8012 23d3 00       		.byte	0
 8013 23d4 28       		.uleb128 0x28
 8014 23d5 44000000 		.4byte	.LVL394
 8015 23d9 19280000 		.4byte	0x2819
 8016 23dd F7230000 		.4byte	0x23f7
 8017 23e1 27       		.uleb128 0x27
 8018 23e2 01       		.uleb128 0x1
 8019 23e3 50       		.byte	0x50
 8020 23e4 02       		.uleb128 0x2
 8021 23e5 74       		.byte	0x74
 8022 23e6 00       		.sleb128 0
 8023 23e7 27       		.uleb128 0x27
 8024 23e8 01       		.uleb128 0x1
 8025 23e9 52       		.byte	0x52
 8026 23ea 05       		.uleb128 0x5
 8027 23eb 03       		.byte	0x3
 8028 23ec C4000000 		.4byte	.LC15
 8029 23f0 27       		.uleb128 0x27
 8030 23f1 01       		.uleb128 0x1
 8031 23f2 53       		.byte	0x53
 8032 23f3 02       		.uleb128 0x2
 8033 23f4 76       		.byte	0x76
 8034 23f5 00       		.sleb128 0
 8035 23f6 00       		.byte	0
 8036 23f7 28       		.uleb128 0x28
 8037 23f8 50000000 		.4byte	.LVL395
 8038 23fc 19280000 		.4byte	0x2819
ARM GAS  C:\Users\164\AppData\Local\Temp\ccuYWdBJ.s 			page 168


 8039 2400 1D240000 		.4byte	0x241d
 8040 2404 27       		.uleb128 0x27
 8041 2405 01       		.uleb128 0x1
 8042 2406 50       		.byte	0x50
 8043 2407 02       		.uleb128 0x2
 8044 2408 74       		.byte	0x74
 8045 2409 00       		.sleb128 0
 8046 240a 27       		.uleb128 0x27
 8047 240b 01       		.uleb128 0x1
 8048 240c 52       		.byte	0x52
 8049 240d 05       		.uleb128 0x5
 8050 240e 03       		.byte	0x3
 8051 240f C8000000 		.4byte	.LC16
 8052 2413 27       		.uleb128 0x27
 8053 2414 01       		.uleb128 0x1
 8054 2415 53       		.byte	0x53
 8055 2416 05       		.uleb128 0x5
 8056 2417 03       		.byte	0x3
 8057 2418 00000000 		.4byte	c_array_set
 8058 241c 00       		.byte	0
 8059 241d 28       		.uleb128 0x28
 8060 241e 5E000000 		.4byte	.LVL396
 8061 2422 19280000 		.4byte	0x2819
 8062 2426 40240000 		.4byte	0x2440
 8063 242a 27       		.uleb128 0x27
 8064 242b 01       		.uleb128 0x1
 8065 242c 50       		.byte	0x50
 8066 242d 02       		.uleb128 0x2
 8067 242e 74       		.byte	0x74
 8068 242f 00       		.sleb128 0
 8069 2430 27       		.uleb128 0x27
 8070 2431 01       		.uleb128 0x1
 8071 2432 52       		.byte	0x52
 8072 2433 05       		.uleb128 0x5
 8073 2434 03       		.byte	0x3
 8074 2435 CC000000 		.4byte	.LC17
 8075 2439 27       		.uleb128 0x27
 8076 243a 01       		.uleb128 0x1
 8077 243b 53       		.byte	0x53
 8078 243c 02       		.uleb128 0x2
 8079 243d 77       		.byte	0x77
 8080 243e 00       		.sleb128 0
 8081 243f 00       		.byte	0
 8082 2440 28       		.uleb128 0x28
 8083 2441 6A000000 		.4byte	.LVL397
 8084 2445 19280000 		.4byte	0x2819
 8085 2449 66240000 		.4byte	0x2466
 8086 244d 27       		.uleb128 0x27
 8087 244e 01       		.uleb128 0x1
 8088 244f 50       		.byte	0x50
 8089 2450 02       		.uleb128 0x2
 8090 2451 74       		.byte	0x74
 8091 2452 00       		.sleb128 0
 8092 2453 27       		.uleb128 0x27
 8093 2454 01       		.uleb128 0x1
 8094 2455 52       		.byte	0x52
 8095 2456 05       		.uleb128 0x5
ARM GAS  C:\Users\164\AppData\Local\Temp\ccuYWdBJ.s 			page 169


 8096 2457 03       		.byte	0x3
 8097 2458 D0000000 		.4byte	.LC18
 8098 245c 27       		.uleb128 0x27
 8099 245d 01       		.uleb128 0x1
 8100 245e 53       		.byte	0x53
 8101 245f 05       		.uleb128 0x5
 8102 2460 03       		.byte	0x3
 8103 2461 00000000 		.4byte	c_array_clear
 8104 2465 00       		.byte	0
 8105 2466 28       		.uleb128 0x28
 8106 2467 76000000 		.4byte	.LVL398
 8107 246b 19280000 		.4byte	0x2819
 8108 246f 8C240000 		.4byte	0x248c
 8109 2473 27       		.uleb128 0x27
 8110 2474 01       		.uleb128 0x1
 8111 2475 50       		.byte	0x50
 8112 2476 02       		.uleb128 0x2
 8113 2477 74       		.byte	0x74
 8114 2478 00       		.sleb128 0
 8115 2479 27       		.uleb128 0x27
 8116 247a 01       		.uleb128 0x1
 8117 247b 52       		.byte	0x52
 8118 247c 05       		.uleb128 0x5
 8119 247d 03       		.byte	0x3
 8120 247e D8000000 		.4byte	.LC19
 8121 2482 27       		.uleb128 0x27
 8122 2483 01       		.uleb128 0x1
 8123 2484 53       		.byte	0x53
 8124 2485 05       		.uleb128 0x5
 8125 2486 03       		.byte	0x3
 8126 2487 00000000 		.4byte	c_array_delete_at
 8127 248b 00       		.byte	0
 8128 248c 28       		.uleb128 0x28
 8129 248d 82000000 		.4byte	.LVL399
 8130 2491 19280000 		.4byte	0x2819
 8131 2495 B2240000 		.4byte	0x24b2
 8132 2499 27       		.uleb128 0x27
 8133 249a 01       		.uleb128 0x1
 8134 249b 50       		.byte	0x50
 8135 249c 02       		.uleb128 0x2
 8136 249d 74       		.byte	0x74
 8137 249e 00       		.sleb128 0
 8138 249f 27       		.uleb128 0x27
 8139 24a0 01       		.uleb128 0x1
 8140 24a1 52       		.byte	0x52
 8141 24a2 05       		.uleb128 0x5
 8142 24a3 03       		.byte	0x3
 8143 24a4 E4000000 		.4byte	.LC20
 8144 24a8 27       		.uleb128 0x27
 8145 24a9 01       		.uleb128 0x1
 8146 24aa 53       		.byte	0x53
 8147 24ab 05       		.uleb128 0x5
 8148 24ac 03       		.byte	0x3
 8149 24ad 00000000 		.4byte	c_array_empty
 8150 24b1 00       		.byte	0
 8151 24b2 28       		.uleb128 0x28
 8152 24b3 90000000 		.4byte	.LVL400
ARM GAS  C:\Users\164\AppData\Local\Temp\ccuYWdBJ.s 			page 170


 8153 24b7 19280000 		.4byte	0x2819
 8154 24bb D5240000 		.4byte	0x24d5
 8155 24bf 27       		.uleb128 0x27
 8156 24c0 01       		.uleb128 0x1
 8157 24c1 50       		.byte	0x50
 8158 24c2 02       		.uleb128 0x2
 8159 24c3 74       		.byte	0x74
 8160 24c4 00       		.sleb128 0
 8161 24c5 27       		.uleb128 0x27
 8162 24c6 01       		.uleb128 0x1
 8163 24c7 52       		.byte	0x52
 8164 24c8 05       		.uleb128 0x5
 8165 24c9 03       		.byte	0x3
 8166 24ca EC000000 		.4byte	.LC21
 8167 24ce 27       		.uleb128 0x27
 8168 24cf 01       		.uleb128 0x1
 8169 24d0 53       		.byte	0x53
 8170 24d1 02       		.uleb128 0x2
 8171 24d2 76       		.byte	0x76
 8172 24d3 00       		.sleb128 0
 8173 24d4 00       		.byte	0
 8174 24d5 28       		.uleb128 0x28
 8175 24d6 9C000000 		.4byte	.LVL401
 8176 24da 19280000 		.4byte	0x2819
 8177 24de F8240000 		.4byte	0x24f8
 8178 24e2 27       		.uleb128 0x27
 8179 24e3 01       		.uleb128 0x1
 8180 24e4 50       		.byte	0x50
 8181 24e5 02       		.uleb128 0x2
 8182 24e6 74       		.byte	0x74
 8183 24e7 00       		.sleb128 0
 8184 24e8 27       		.uleb128 0x27
 8185 24e9 01       		.uleb128 0x1
 8186 24ea 52       		.byte	0x52
 8187 24eb 05       		.uleb128 0x5
 8188 24ec 03       		.byte	0x3
 8189 24ed F4000000 		.4byte	.LC22
 8190 24f1 27       		.uleb128 0x27
 8191 24f2 01       		.uleb128 0x1
 8192 24f3 53       		.byte	0x53
 8193 24f4 02       		.uleb128 0x2
 8194 24f5 76       		.byte	0x76
 8195 24f6 00       		.sleb128 0
 8196 24f7 00       		.byte	0
 8197 24f8 28       		.uleb128 0x28
 8198 24f9 A8000000 		.4byte	.LVL402
 8199 24fd 19280000 		.4byte	0x2819
 8200 2501 1B250000 		.4byte	0x251b
 8201 2505 27       		.uleb128 0x27
 8202 2506 01       		.uleb128 0x1
 8203 2507 50       		.byte	0x50
 8204 2508 02       		.uleb128 0x2
 8205 2509 74       		.byte	0x74
 8206 250a 00       		.sleb128 0
 8207 250b 27       		.uleb128 0x27
 8208 250c 01       		.uleb128 0x1
 8209 250d 52       		.byte	0x52
ARM GAS  C:\Users\164\AppData\Local\Temp\ccuYWdBJ.s 			page 171


 8210 250e 05       		.uleb128 0x5
 8211 250f 03       		.byte	0x3
 8212 2510 FC000000 		.4byte	.LC23
 8213 2514 27       		.uleb128 0x27
 8214 2515 01       		.uleb128 0x1
 8215 2516 53       		.byte	0x53
 8216 2517 02       		.uleb128 0x2
 8217 2518 76       		.byte	0x76
 8218 2519 00       		.sleb128 0
 8219 251a 00       		.byte	0
 8220 251b 28       		.uleb128 0x28
 8221 251c B4000000 		.4byte	.LVL403
 8222 2520 19280000 		.4byte	0x2819
 8223 2524 41250000 		.4byte	0x2541
 8224 2528 27       		.uleb128 0x27
 8225 2529 01       		.uleb128 0x1
 8226 252a 50       		.byte	0x50
 8227 252b 02       		.uleb128 0x2
 8228 252c 74       		.byte	0x74
 8229 252d 00       		.sleb128 0
 8230 252e 27       		.uleb128 0x27
 8231 252f 01       		.uleb128 0x1
 8232 2530 52       		.byte	0x52
 8233 2531 05       		.uleb128 0x5
 8234 2532 03       		.byte	0x3
 8235 2533 04010000 		.4byte	.LC24
 8236 2537 27       		.uleb128 0x27
 8237 2538 01       		.uleb128 0x1
 8238 2539 53       		.byte	0x53
 8239 253a 05       		.uleb128 0x5
 8240 253b 03       		.byte	0x3
 8241 253c 00000000 		.4byte	c_array_index
 8242 2540 00       		.byte	0
 8243 2541 28       		.uleb128 0x28
 8244 2542 C0000000 		.4byte	.LVL404
 8245 2546 19280000 		.4byte	0x2819
 8246 254a 67250000 		.4byte	0x2567
 8247 254e 27       		.uleb128 0x27
 8248 254f 01       		.uleb128 0x1
 8249 2550 50       		.byte	0x50
 8250 2551 02       		.uleb128 0x2
 8251 2552 74       		.byte	0x74
 8252 2553 00       		.sleb128 0
 8253 2554 27       		.uleb128 0x27
 8254 2555 01       		.uleb128 0x1
 8255 2556 52       		.byte	0x52
 8256 2557 05       		.uleb128 0x5
 8257 2558 03       		.byte	0x3
 8258 2559 0C010000 		.4byte	.LC25
 8259 255d 27       		.uleb128 0x27
 8260 255e 01       		.uleb128 0x1
 8261 255f 53       		.byte	0x53
 8262 2560 05       		.uleb128 0x5
 8263 2561 03       		.byte	0x3
 8264 2562 00000000 		.4byte	c_array_first
 8265 2566 00       		.byte	0
 8266 2567 28       		.uleb128 0x28
ARM GAS  C:\Users\164\AppData\Local\Temp\ccuYWdBJ.s 			page 172


 8267 2568 CC000000 		.4byte	.LVL405
 8268 256c 19280000 		.4byte	0x2819
 8269 2570 8D250000 		.4byte	0x258d
 8270 2574 27       		.uleb128 0x27
 8271 2575 01       		.uleb128 0x1
 8272 2576 50       		.byte	0x50
 8273 2577 02       		.uleb128 0x2
 8274 2578 74       		.byte	0x74
 8275 2579 00       		.sleb128 0
 8276 257a 27       		.uleb128 0x27
 8277 257b 01       		.uleb128 0x1
 8278 257c 52       		.byte	0x52
 8279 257d 05       		.uleb128 0x5
 8280 257e 03       		.byte	0x3
 8281 257f 14010000 		.4byte	.LC26
 8282 2583 27       		.uleb128 0x27
 8283 2584 01       		.uleb128 0x1
 8284 2585 53       		.byte	0x53
 8285 2586 05       		.uleb128 0x5
 8286 2587 03       		.byte	0x3
 8287 2588 00000000 		.4byte	c_array_last
 8288 258c 00       		.byte	0
 8289 258d 28       		.uleb128 0x28
 8290 258e D8000000 		.4byte	.LVL406
 8291 2592 19280000 		.4byte	0x2819
 8292 2596 B0250000 		.4byte	0x25b0
 8293 259a 27       		.uleb128 0x27
 8294 259b 01       		.uleb128 0x1
 8295 259c 50       		.byte	0x50
 8296 259d 02       		.uleb128 0x2
 8297 259e 74       		.byte	0x74
 8298 259f 00       		.sleb128 0
 8299 25a0 27       		.uleb128 0x27
 8300 25a1 01       		.uleb128 0x1
 8301 25a2 52       		.byte	0x52
 8302 25a3 05       		.uleb128 0x5
 8303 25a4 03       		.byte	0x3
 8304 25a5 1C010000 		.4byte	.LC27
 8305 25a9 27       		.uleb128 0x27
 8306 25aa 01       		.uleb128 0x1
 8307 25ab 53       		.byte	0x53
 8308 25ac 02       		.uleb128 0x2
 8309 25ad 77       		.byte	0x77
 8310 25ae 00       		.sleb128 0
 8311 25af 00       		.byte	0
 8312 25b0 28       		.uleb128 0x28
 8313 25b1 E4000000 		.4byte	.LVL407
 8314 25b5 19280000 		.4byte	0x2819
 8315 25b9 D6250000 		.4byte	0x25d6
 8316 25bd 27       		.uleb128 0x27
 8317 25be 01       		.uleb128 0x1
 8318 25bf 50       		.byte	0x50
 8319 25c0 02       		.uleb128 0x2
 8320 25c1 74       		.byte	0x74
 8321 25c2 00       		.sleb128 0
 8322 25c3 27       		.uleb128 0x27
 8323 25c4 01       		.uleb128 0x1
ARM GAS  C:\Users\164\AppData\Local\Temp\ccuYWdBJ.s 			page 173


 8324 25c5 52       		.byte	0x52
 8325 25c6 05       		.uleb128 0x5
 8326 25c7 03       		.byte	0x3
 8327 25c8 24010000 		.4byte	.LC28
 8328 25cc 27       		.uleb128 0x27
 8329 25cd 01       		.uleb128 0x1
 8330 25ce 53       		.byte	0x53
 8331 25cf 05       		.uleb128 0x5
 8332 25d0 03       		.byte	0x3
 8333 25d1 00000000 		.4byte	c_array_pop
 8334 25d5 00       		.byte	0
 8335 25d6 28       		.uleb128 0x28
 8336 25d7 F0000000 		.4byte	.LVL408
 8337 25db 19280000 		.4byte	0x2819
 8338 25df FC250000 		.4byte	0x25fc
 8339 25e3 27       		.uleb128 0x27
 8340 25e4 01       		.uleb128 0x1
 8341 25e5 50       		.byte	0x50
 8342 25e6 02       		.uleb128 0x2
 8343 25e7 74       		.byte	0x74
 8344 25e8 00       		.sleb128 0
 8345 25e9 27       		.uleb128 0x27
 8346 25ea 01       		.uleb128 0x1
 8347 25eb 52       		.byte	0x52
 8348 25ec 05       		.uleb128 0x5
 8349 25ed 03       		.byte	0x3
 8350 25ee 28010000 		.4byte	.LC29
 8351 25f2 27       		.uleb128 0x27
 8352 25f3 01       		.uleb128 0x1
 8353 25f4 53       		.byte	0x53
 8354 25f5 05       		.uleb128 0x5
 8355 25f6 03       		.byte	0x3
 8356 25f7 00000000 		.4byte	c_array_shift
 8357 25fb 00       		.byte	0
 8358 25fc 28       		.uleb128 0x28
 8359 25fd FC000000 		.4byte	.LVL409
 8360 2601 19280000 		.4byte	0x2819
 8361 2605 22260000 		.4byte	0x2622
 8362 2609 27       		.uleb128 0x27
 8363 260a 01       		.uleb128 0x1
 8364 260b 50       		.byte	0x50
 8365 260c 02       		.uleb128 0x2
 8366 260d 74       		.byte	0x74
 8367 260e 00       		.sleb128 0
 8368 260f 27       		.uleb128 0x27
 8369 2610 01       		.uleb128 0x1
 8370 2611 52       		.byte	0x52
 8371 2612 05       		.uleb128 0x5
 8372 2613 03       		.byte	0x3
 8373 2614 30010000 		.4byte	.LC30
 8374 2618 27       		.uleb128 0x27
 8375 2619 01       		.uleb128 0x1
 8376 261a 53       		.byte	0x53
 8377 261b 05       		.uleb128 0x5
 8378 261c 03       		.byte	0x3
 8379 261d 00000000 		.4byte	c_array_unshift
 8380 2621 00       		.byte	0
ARM GAS  C:\Users\164\AppData\Local\Temp\ccuYWdBJ.s 			page 174


 8381 2622 28       		.uleb128 0x28
 8382 2623 08010000 		.4byte	.LVL410
 8383 2627 19280000 		.4byte	0x2819
 8384 262b 48260000 		.4byte	0x2648
 8385 262f 27       		.uleb128 0x27
 8386 2630 01       		.uleb128 0x1
 8387 2631 50       		.byte	0x50
 8388 2632 02       		.uleb128 0x2
 8389 2633 74       		.byte	0x74
 8390 2634 00       		.sleb128 0
 8391 2635 27       		.uleb128 0x27
 8392 2636 01       		.uleb128 0x1
 8393 2637 52       		.byte	0x52
 8394 2638 05       		.uleb128 0x5
 8395 2639 03       		.byte	0x3
 8396 263a 38010000 		.4byte	.LC31
 8397 263e 27       		.uleb128 0x27
 8398 263f 01       		.uleb128 0x1
 8399 2640 53       		.byte	0x53
 8400 2641 05       		.uleb128 0x5
 8401 2642 03       		.byte	0x3
 8402 2643 00000000 		.4byte	c_array_dup
 8403 2647 00       		.byte	0
 8404 2648 28       		.uleb128 0x28
 8405 2649 14010000 		.4byte	.LVL411
 8406 264d 19280000 		.4byte	0x2819
 8407 2651 6E260000 		.4byte	0x266e
 8408 2655 27       		.uleb128 0x27
 8409 2656 01       		.uleb128 0x1
 8410 2657 50       		.byte	0x50
 8411 2658 02       		.uleb128 0x2
 8412 2659 74       		.byte	0x74
 8413 265a 00       		.sleb128 0
 8414 265b 27       		.uleb128 0x27
 8415 265c 01       		.uleb128 0x1
 8416 265d 52       		.byte	0x52
 8417 265e 05       		.uleb128 0x5
 8418 265f 03       		.byte	0x3
 8419 2660 3C010000 		.4byte	.LC32
 8420 2664 27       		.uleb128 0x27
 8421 2665 01       		.uleb128 0x1
 8422 2666 53       		.byte	0x53
 8423 2667 05       		.uleb128 0x5
 8424 2668 03       		.byte	0x3
 8425 2669 00000000 		.4byte	c_array_min
 8426 266d 00       		.byte	0
 8427 266e 28       		.uleb128 0x28
 8428 266f 20010000 		.4byte	.LVL412
 8429 2673 19280000 		.4byte	0x2819
 8430 2677 94260000 		.4byte	0x2694
 8431 267b 27       		.uleb128 0x27
 8432 267c 01       		.uleb128 0x1
 8433 267d 50       		.byte	0x50
 8434 267e 02       		.uleb128 0x2
 8435 267f 74       		.byte	0x74
 8436 2680 00       		.sleb128 0
 8437 2681 27       		.uleb128 0x27
ARM GAS  C:\Users\164\AppData\Local\Temp\ccuYWdBJ.s 			page 175


 8438 2682 01       		.uleb128 0x1
 8439 2683 52       		.byte	0x52
 8440 2684 05       		.uleb128 0x5
 8441 2685 03       		.byte	0x3
 8442 2686 40010000 		.4byte	.LC33
 8443 268a 27       		.uleb128 0x27
 8444 268b 01       		.uleb128 0x1
 8445 268c 53       		.byte	0x53
 8446 268d 05       		.uleb128 0x5
 8447 268e 03       		.byte	0x3
 8448 268f 00000000 		.4byte	c_array_max
 8449 2693 00       		.byte	0
 8450 2694 28       		.uleb128 0x28
 8451 2695 2C010000 		.4byte	.LVL413
 8452 2699 19280000 		.4byte	0x2819
 8453 269d BA260000 		.4byte	0x26ba
 8454 26a1 27       		.uleb128 0x27
 8455 26a2 01       		.uleb128 0x1
 8456 26a3 50       		.byte	0x50
 8457 26a4 02       		.uleb128 0x2
 8458 26a5 74       		.byte	0x74
 8459 26a6 00       		.sleb128 0
 8460 26a7 27       		.uleb128 0x27
 8461 26a8 01       		.uleb128 0x1
 8462 26a9 52       		.byte	0x52
 8463 26aa 05       		.uleb128 0x5
 8464 26ab 03       		.byte	0x3
 8465 26ac 44010000 		.4byte	.LC34
 8466 26b0 27       		.uleb128 0x27
 8467 26b1 01       		.uleb128 0x1
 8468 26b2 53       		.byte	0x53
 8469 26b3 05       		.uleb128 0x5
 8470 26b4 03       		.byte	0x3
 8471 26b5 00000000 		.4byte	c_array_minmax
 8472 26b9 00       		.byte	0
 8473 26ba 28       		.uleb128 0x28
 8474 26bb 3A010000 		.4byte	.LVL414
 8475 26bf 19280000 		.4byte	0x2819
 8476 26c3 DD260000 		.4byte	0x26dd
 8477 26c7 27       		.uleb128 0x27
 8478 26c8 01       		.uleb128 0x1
 8479 26c9 50       		.byte	0x50
 8480 26ca 02       		.uleb128 0x2
 8481 26cb 74       		.byte	0x74
 8482 26cc 00       		.sleb128 0
 8483 26cd 27       		.uleb128 0x27
 8484 26ce 01       		.uleb128 0x1
 8485 26cf 52       		.byte	0x52
 8486 26d0 05       		.uleb128 0x5
 8487 26d1 03       		.byte	0x3
 8488 26d2 54000000 		.4byte	.LC7
 8489 26d6 27       		.uleb128 0x27
 8490 26d7 01       		.uleb128 0x1
 8491 26d8 53       		.byte	0x53
 8492 26d9 02       		.uleb128 0x2
 8493 26da 76       		.byte	0x76
 8494 26db 00       		.sleb128 0
ARM GAS  C:\Users\164\AppData\Local\Temp\ccuYWdBJ.s 			page 176


 8495 26dc 00       		.byte	0
 8496 26dd 28       		.uleb128 0x28
 8497 26de 46010000 		.4byte	.LVL415
 8498 26e2 19280000 		.4byte	0x2819
 8499 26e6 00270000 		.4byte	0x2700
 8500 26ea 27       		.uleb128 0x27
 8501 26eb 01       		.uleb128 0x1
 8502 26ec 50       		.byte	0x50
 8503 26ed 02       		.uleb128 0x2
 8504 26ee 74       		.byte	0x74
 8505 26ef 00       		.sleb128 0
 8506 26f0 27       		.uleb128 0x27
 8507 26f1 01       		.uleb128 0x1
 8508 26f2 52       		.byte	0x52
 8509 26f3 05       		.uleb128 0x5
 8510 26f4 03       		.byte	0x3
 8511 26f5 00000000 		.4byte	.LC0
 8512 26f9 27       		.uleb128 0x27
 8513 26fa 01       		.uleb128 0x1
 8514 26fb 53       		.byte	0x53
 8515 26fc 02       		.uleb128 0x2
 8516 26fd 76       		.byte	0x76
 8517 26fe 00       		.sleb128 0
 8518 26ff 00       		.byte	0
 8519 2700 26       		.uleb128 0x26
 8520 2701 52010000 		.4byte	.LVL416
 8521 2705 19280000 		.4byte	0x2819
 8522 2709 27       		.uleb128 0x27
 8523 270a 01       		.uleb128 0x1
 8524 270b 50       		.byte	0x50
 8525 270c 02       		.uleb128 0x2
 8526 270d 74       		.byte	0x74
 8527 270e 00       		.sleb128 0
 8528 270f 27       		.uleb128 0x27
 8529 2710 01       		.uleb128 0x1
 8530 2711 52       		.byte	0x52
 8531 2712 05       		.uleb128 0x5
 8532 2713 03       		.byte	0x3
 8533 2714 4C010000 		.4byte	.LC35
 8534 2718 27       		.uleb128 0x27
 8535 2719 01       		.uleb128 0x1
 8536 271a 53       		.byte	0x53
 8537 271b 05       		.uleb128 0x5
 8538 271c 03       		.byte	0x3
 8539 271d 00000000 		.4byte	c_array_join
 8540 2721 00       		.byte	0
 8541 2722 00       		.byte	0
 8542 2723 3C       		.uleb128 0x3c
 8543 2724 88010000 		.4byte	.LASF165
 8544 2728 09       		.byte	0x9
 8545 2729 1A       		.byte	0x1a
 8546 272a 5D060000 		.4byte	0x65d
 8547 272e 3C       		.uleb128 0x3c
 8548 272f CF020000 		.4byte	.LASF166
 8549 2733 09       		.byte	0x9
 8550 2734 20       		.byte	0x20
 8551 2735 5D060000 		.4byte	0x65d
ARM GAS  C:\Users\164\AppData\Local\Temp\ccuYWdBJ.s 			page 177


 8552 2739 3D       		.uleb128 0x3d
 8553 273a 42010000 		.4byte	.LASF167
 8554 273e 0A       		.byte	0xa
 8555 273f 1207     		.2byte	0x712
 8556 2741 45270000 		.4byte	0x2745
 8557 2745 1B       		.uleb128 0x1b
 8558 2746 EE000000 		.4byte	0xee
 8559 274a 3E       		.uleb128 0x3e
 8560 274b 4F080000 		.4byte	.LASF168
 8561 274f 4F080000 		.4byte	.LASF168
 8562 2753 06       		.byte	0x6
 8563 2754 D7       		.byte	0xd7
 8564 2755 3E       		.uleb128 0x3e
 8565 2756 69080000 		.4byte	.LASF169
 8566 275a 69080000 		.4byte	.LASF169
 8567 275e 06       		.byte	0x6
 8568 275f D3       		.byte	0xd3
 8569 2760 3E       		.uleb128 0x3e
 8570 2761 A4000000 		.4byte	.LASF170
 8571 2765 A4000000 		.4byte	.LASF170
 8572 2769 0B       		.byte	0xb
 8573 276a 20       		.byte	0x20
 8574 276b 3E       		.uleb128 0x3e
 8575 276c 52020000 		.4byte	.LASF171
 8576 2770 52020000 		.4byte	.LASF171
 8577 2774 08       		.byte	0x8
 8578 2775 2D       		.byte	0x2d
 8579 2776 3E       		.uleb128 0x3e
 8580 2777 47060000 		.4byte	.LASF172
 8581 277b 47060000 		.4byte	.LASF172
 8582 277f 08       		.byte	0x8
 8583 2780 26       		.byte	0x26
 8584 2781 3E       		.uleb128 0x3e
 8585 2782 96020000 		.4byte	.LASF173
 8586 2786 96020000 		.4byte	.LASF173
 8587 278a 08       		.byte	0x8
 8588 278b 27       		.byte	0x27
 8589 278c 3E       		.uleb128 0x3e
 8590 278d 2B000000 		.4byte	.LASF174
 8591 2791 2B000000 		.4byte	.LASF174
 8592 2795 0C       		.byte	0xc
 8593 2796 1D       		.byte	0x1d
 8594 2797 3E       		.uleb128 0x3e
 8595 2798 35070000 		.4byte	.LASF175
 8596 279c 35070000 		.4byte	.LASF175
 8597 27a0 0C       		.byte	0xc
 8598 27a1 1B       		.byte	0x1b
 8599 27a2 3F       		.uleb128 0x3f
 8600 27a3 65020000 		.4byte	.LASF192
 8601 27a7 65020000 		.4byte	.LASF192
 8602 27ab 3E       		.uleb128 0x3e
 8603 27ac 76010000 		.4byte	.LASF176
 8604 27b0 76010000 		.4byte	.LASF176
 8605 27b4 06       		.byte	0x6
 8606 27b5 D5       		.byte	0xd5
 8607 27b6 3E       		.uleb128 0x3e
 8608 27b7 EC070000 		.4byte	.LASF177
ARM GAS  C:\Users\164\AppData\Local\Temp\ccuYWdBJ.s 			page 178


 8609 27bb EC070000 		.4byte	.LASF177
 8610 27bf 0D       		.byte	0xd
 8611 27c0 31       		.byte	0x31
 8612 27c1 3E       		.uleb128 0x3e
 8613 27c2 59040000 		.4byte	.LASF178
 8614 27c6 59040000 		.4byte	.LASF178
 8615 27ca 06       		.byte	0x6
 8616 27cb D6       		.byte	0xd6
 8617 27cc 3E       		.uleb128 0x3e
 8618 27cd E6020000 		.4byte	.LASF179
 8619 27d1 E6020000 		.4byte	.LASF179
 8620 27d5 0C       		.byte	0xc
 8621 27d6 21       		.byte	0x21
 8622 27d7 3E       		.uleb128 0x3e
 8623 27d8 AE000000 		.4byte	.LASF180
 8624 27dc AE000000 		.4byte	.LASF180
 8625 27e0 06       		.byte	0x6
 8626 27e1 D8       		.byte	0xd8
 8627 27e2 3E       		.uleb128 0x3e
 8628 27e3 22050000 		.4byte	.LASF181
 8629 27e7 22050000 		.4byte	.LASF181
 8630 27eb 0C       		.byte	0xc
 8631 27ec 1C       		.byte	0x1c
 8632 27ed 3E       		.uleb128 0x3e
 8633 27ee C7000000 		.4byte	.LASF182
 8634 27f2 C7000000 		.4byte	.LASF182
 8635 27f6 08       		.byte	0x8
 8636 27f7 2E       		.byte	0x2e
 8637 27f8 3E       		.uleb128 0x3e
 8638 27f9 32020000 		.4byte	.LASF183
 8639 27fd 32020000 		.4byte	.LASF183
 8640 2801 08       		.byte	0x8
 8641 2802 29       		.byte	0x29
 8642 2803 3E       		.uleb128 0x3e
 8643 2804 0B010000 		.4byte	.LASF184
 8644 2808 0B010000 		.4byte	.LASF184
 8645 280c 0E       		.byte	0xe
 8646 280d 18       		.byte	0x18
 8647 280e 3E       		.uleb128 0x3e
 8648 280f 27030000 		.4byte	.LASF185
 8649 2813 27030000 		.4byte	.LASF185
 8650 2817 0B       		.byte	0xb
 8651 2818 1C       		.byte	0x1c
 8652 2819 3E       		.uleb128 0x3e
 8653 281a 42000000 		.4byte	.LASF186
 8654 281e 42000000 		.4byte	.LASF186
 8655 2822 0B       		.byte	0xb
 8656 2823 1E       		.byte	0x1e
 8657 2824 00       		.byte	0
 8658              		.section	.debug_abbrev,"",%progbits
 8659              	.Ldebug_abbrev0:
 8660 0000 01       		.uleb128 0x1
 8661 0001 11       		.uleb128 0x11
 8662 0002 01       		.byte	0x1
 8663 0003 25       		.uleb128 0x25
 8664 0004 0E       		.uleb128 0xe
 8665 0005 13       		.uleb128 0x13
ARM GAS  C:\Users\164\AppData\Local\Temp\ccuYWdBJ.s 			page 179


 8666 0006 0B       		.uleb128 0xb
 8667 0007 03       		.uleb128 0x3
 8668 0008 0E       		.uleb128 0xe
 8669 0009 1B       		.uleb128 0x1b
 8670 000a 0E       		.uleb128 0xe
 8671 000b 55       		.uleb128 0x55
 8672 000c 17       		.uleb128 0x17
 8673 000d 11       		.uleb128 0x11
 8674 000e 01       		.uleb128 0x1
 8675 000f 10       		.uleb128 0x10
 8676 0010 17       		.uleb128 0x17
 8677 0011 00       		.byte	0
 8678 0012 00       		.byte	0
 8679 0013 02       		.uleb128 0x2
 8680 0014 24       		.uleb128 0x24
 8681 0015 00       		.byte	0
 8682 0016 0B       		.uleb128 0xb
 8683 0017 0B       		.uleb128 0xb
 8684 0018 3E       		.uleb128 0x3e
 8685 0019 0B       		.uleb128 0xb
 8686 001a 03       		.uleb128 0x3
 8687 001b 08       		.uleb128 0x8
 8688 001c 00       		.byte	0
 8689 001d 00       		.byte	0
 8690 001e 03       		.uleb128 0x3
 8691 001f 24       		.uleb128 0x24
 8692 0020 00       		.byte	0
 8693 0021 0B       		.uleb128 0xb
 8694 0022 0B       		.uleb128 0xb
 8695 0023 3E       		.uleb128 0x3e
 8696 0024 0B       		.uleb128 0xb
 8697 0025 03       		.uleb128 0x3
 8698 0026 0E       		.uleb128 0xe
 8699 0027 00       		.byte	0
 8700 0028 00       		.byte	0
 8701 0029 04       		.uleb128 0x4
 8702 002a 16       		.uleb128 0x16
 8703 002b 00       		.byte	0
 8704 002c 03       		.uleb128 0x3
 8705 002d 0E       		.uleb128 0xe
 8706 002e 3A       		.uleb128 0x3a
 8707 002f 0B       		.uleb128 0xb
 8708 0030 3B       		.uleb128 0x3b
 8709 0031 0B       		.uleb128 0xb
 8710 0032 49       		.uleb128 0x49
 8711 0033 13       		.uleb128 0x13
 8712 0034 00       		.byte	0
 8713 0035 00       		.byte	0
 8714 0036 05       		.uleb128 0x5
 8715 0037 0F       		.uleb128 0xf
 8716 0038 00       		.byte	0
 8717 0039 0B       		.uleb128 0xb
 8718 003a 0B       		.uleb128 0xb
 8719 003b 49       		.uleb128 0x49
 8720 003c 13       		.uleb128 0x13
 8721 003d 00       		.byte	0
 8722 003e 00       		.byte	0
ARM GAS  C:\Users\164\AppData\Local\Temp\ccuYWdBJ.s 			page 180


 8723 003f 06       		.uleb128 0x6
 8724 0040 26       		.uleb128 0x26
 8725 0041 00       		.byte	0
 8726 0042 49       		.uleb128 0x49
 8727 0043 13       		.uleb128 0x13
 8728 0044 00       		.byte	0
 8729 0045 00       		.byte	0
 8730 0046 07       		.uleb128 0x7
 8731 0047 15       		.uleb128 0x15
 8732 0048 01       		.byte	0x1
 8733 0049 27       		.uleb128 0x27
 8734 004a 19       		.uleb128 0x19
 8735 004b 01       		.uleb128 0x1
 8736 004c 13       		.uleb128 0x13
 8737 004d 00       		.byte	0
 8738 004e 00       		.byte	0
 8739 004f 08       		.uleb128 0x8
 8740 0050 05       		.uleb128 0x5
 8741 0051 00       		.byte	0
 8742 0052 49       		.uleb128 0x49
 8743 0053 13       		.uleb128 0x13
 8744 0054 00       		.byte	0
 8745 0055 00       		.byte	0
 8746 0056 09       		.uleb128 0x9
 8747 0057 13       		.uleb128 0x13
 8748 0058 01       		.byte	0x1
 8749 0059 03       		.uleb128 0x3
 8750 005a 08       		.uleb128 0x8
 8751 005b 0B       		.uleb128 0xb
 8752 005c 05       		.uleb128 0x5
 8753 005d 3A       		.uleb128 0x3a
 8754 005e 0B       		.uleb128 0xb
 8755 005f 3B       		.uleb128 0x3b
 8756 0060 0B       		.uleb128 0xb
 8757 0061 01       		.uleb128 0x1
 8758 0062 13       		.uleb128 0x13
 8759 0063 00       		.byte	0
 8760 0064 00       		.byte	0
 8761 0065 0A       		.uleb128 0xa
 8762 0066 0D       		.uleb128 0xd
 8763 0067 00       		.byte	0
 8764 0068 03       		.uleb128 0x3
 8765 0069 0E       		.uleb128 0xe
 8766 006a 3A       		.uleb128 0x3a
 8767 006b 0B       		.uleb128 0xb
 8768 006c 3B       		.uleb128 0x3b
 8769 006d 0B       		.uleb128 0xb
 8770 006e 49       		.uleb128 0x49
 8771 006f 13       		.uleb128 0x13
 8772 0070 38       		.uleb128 0x38
 8773 0071 0B       		.uleb128 0xb
 8774 0072 00       		.byte	0
 8775 0073 00       		.byte	0
 8776 0074 0B       		.uleb128 0xb
 8777 0075 0D       		.uleb128 0xd
 8778 0076 00       		.byte	0
 8779 0077 03       		.uleb128 0x3
ARM GAS  C:\Users\164\AppData\Local\Temp\ccuYWdBJ.s 			page 181


 8780 0078 08       		.uleb128 0x8
 8781 0079 3A       		.uleb128 0x3a
 8782 007a 0B       		.uleb128 0xb
 8783 007b 3B       		.uleb128 0x3b
 8784 007c 0B       		.uleb128 0xb
 8785 007d 49       		.uleb128 0x49
 8786 007e 13       		.uleb128 0x13
 8787 007f 38       		.uleb128 0x38
 8788 0080 0B       		.uleb128 0xb
 8789 0081 00       		.byte	0
 8790 0082 00       		.byte	0
 8791 0083 0C       		.uleb128 0xc
 8792 0084 0D       		.uleb128 0xd
 8793 0085 00       		.byte	0
 8794 0086 03       		.uleb128 0x3
 8795 0087 0E       		.uleb128 0xe
 8796 0088 3A       		.uleb128 0x3a
 8797 0089 0B       		.uleb128 0xb
 8798 008a 3B       		.uleb128 0x3b
 8799 008b 0B       		.uleb128 0xb
 8800 008c 49       		.uleb128 0x49
 8801 008d 13       		.uleb128 0x13
 8802 008e 38       		.uleb128 0x38
 8803 008f 05       		.uleb128 0x5
 8804 0090 00       		.byte	0
 8805 0091 00       		.byte	0
 8806 0092 0D       		.uleb128 0xd
 8807 0093 13       		.uleb128 0x13
 8808 0094 01       		.byte	0x1
 8809 0095 03       		.uleb128 0x3
 8810 0096 0E       		.uleb128 0xe
 8811 0097 0B       		.uleb128 0xb
 8812 0098 0B       		.uleb128 0xb
 8813 0099 3A       		.uleb128 0x3a
 8814 009a 0B       		.uleb128 0xb
 8815 009b 3B       		.uleb128 0x3b
 8816 009c 0B       		.uleb128 0xb
 8817 009d 01       		.uleb128 0x1
 8818 009e 13       		.uleb128 0x13
 8819 009f 00       		.byte	0
 8820 00a0 00       		.byte	0
 8821 00a1 0E       		.uleb128 0xe
 8822 00a2 0D       		.uleb128 0xd
 8823 00a3 00       		.byte	0
 8824 00a4 03       		.uleb128 0x3
 8825 00a5 08       		.uleb128 0x8
 8826 00a6 3A       		.uleb128 0x3a
 8827 00a7 0B       		.uleb128 0xb
 8828 00a8 3B       		.uleb128 0x3b
 8829 00a9 0B       		.uleb128 0xb
 8830 00aa 49       		.uleb128 0x49
 8831 00ab 13       		.uleb128 0x13
 8832 00ac 0B       		.uleb128 0xb
 8833 00ad 0B       		.uleb128 0xb
 8834 00ae 0D       		.uleb128 0xd
 8835 00af 0B       		.uleb128 0xb
 8836 00b0 0C       		.uleb128 0xc
ARM GAS  C:\Users\164\AppData\Local\Temp\ccuYWdBJ.s 			page 182


 8837 00b1 0B       		.uleb128 0xb
 8838 00b2 38       		.uleb128 0x38
 8839 00b3 0B       		.uleb128 0xb
 8840 00b4 00       		.byte	0
 8841 00b5 00       		.byte	0
 8842 00b6 0F       		.uleb128 0xf
 8843 00b7 0D       		.uleb128 0xd
 8844 00b8 00       		.byte	0
 8845 00b9 49       		.uleb128 0x49
 8846 00ba 13       		.uleb128 0x13
 8847 00bb 38       		.uleb128 0x38
 8848 00bc 0B       		.uleb128 0xb
 8849 00bd 00       		.byte	0
 8850 00be 00       		.byte	0
 8851 00bf 10       		.uleb128 0x10
 8852 00c0 04       		.uleb128 0x4
 8853 00c1 01       		.byte	0x1
 8854 00c2 0B       		.uleb128 0xb
 8855 00c3 0B       		.uleb128 0xb
 8856 00c4 49       		.uleb128 0x49
 8857 00c5 13       		.uleb128 0x13
 8858 00c6 3A       		.uleb128 0x3a
 8859 00c7 0B       		.uleb128 0xb
 8860 00c8 3B       		.uleb128 0x3b
 8861 00c9 0B       		.uleb128 0xb
 8862 00ca 01       		.uleb128 0x1
 8863 00cb 13       		.uleb128 0x13
 8864 00cc 00       		.byte	0
 8865 00cd 00       		.byte	0
 8866 00ce 11       		.uleb128 0x11
 8867 00cf 28       		.uleb128 0x28
 8868 00d0 00       		.byte	0
 8869 00d1 03       		.uleb128 0x3
 8870 00d2 0E       		.uleb128 0xe
 8871 00d3 1C       		.uleb128 0x1c
 8872 00d4 0D       		.uleb128 0xd
 8873 00d5 00       		.byte	0
 8874 00d6 00       		.byte	0
 8875 00d7 12       		.uleb128 0x12
 8876 00d8 28       		.uleb128 0x28
 8877 00d9 00       		.byte	0
 8878 00da 03       		.uleb128 0x3
 8879 00db 0E       		.uleb128 0xe
 8880 00dc 1C       		.uleb128 0x1c
 8881 00dd 0B       		.uleb128 0xb
 8882 00de 00       		.byte	0
 8883 00df 00       		.byte	0
 8884 00e0 13       		.uleb128 0x13
 8885 00e1 17       		.uleb128 0x17
 8886 00e2 01       		.byte	0x1
 8887 00e3 0B       		.uleb128 0xb
 8888 00e4 0B       		.uleb128 0xb
 8889 00e5 3A       		.uleb128 0x3a
 8890 00e6 0B       		.uleb128 0xb
 8891 00e7 3B       		.uleb128 0x3b
 8892 00e8 0B       		.uleb128 0xb
 8893 00e9 01       		.uleb128 0x1
ARM GAS  C:\Users\164\AppData\Local\Temp\ccuYWdBJ.s 			page 183


 8894 00ea 13       		.uleb128 0x13
 8895 00eb 00       		.byte	0
 8896 00ec 00       		.byte	0
 8897 00ed 14       		.uleb128 0x14
 8898 00ee 0D       		.uleb128 0xd
 8899 00ef 00       		.byte	0
 8900 00f0 03       		.uleb128 0x3
 8901 00f1 08       		.uleb128 0x8
 8902 00f2 3A       		.uleb128 0x3a
 8903 00f3 0B       		.uleb128 0xb
 8904 00f4 3B       		.uleb128 0x3b
 8905 00f5 0B       		.uleb128 0xb
 8906 00f6 49       		.uleb128 0x49
 8907 00f7 13       		.uleb128 0x13
 8908 00f8 00       		.byte	0
 8909 00f9 00       		.byte	0
 8910 00fa 15       		.uleb128 0x15
 8911 00fb 0D       		.uleb128 0xd
 8912 00fc 00       		.byte	0
 8913 00fd 03       		.uleb128 0x3
 8914 00fe 0E       		.uleb128 0xe
 8915 00ff 3A       		.uleb128 0x3a
 8916 0100 0B       		.uleb128 0xb
 8917 0101 3B       		.uleb128 0x3b
 8918 0102 0B       		.uleb128 0xb
 8919 0103 49       		.uleb128 0x49
 8920 0104 13       		.uleb128 0x13
 8921 0105 00       		.byte	0
 8922 0106 00       		.byte	0
 8923 0107 16       		.uleb128 0x16
 8924 0108 0D       		.uleb128 0xd
 8925 0109 00       		.byte	0
 8926 010a 03       		.uleb128 0x3
 8927 010b 0E       		.uleb128 0xe
 8928 010c 3A       		.uleb128 0x3a
 8929 010d 0B       		.uleb128 0xb
 8930 010e 3B       		.uleb128 0x3b
 8931 010f 0B       		.uleb128 0xb
 8932 0110 49       		.uleb128 0x49
 8933 0111 13       		.uleb128 0x13
 8934 0112 0B       		.uleb128 0xb
 8935 0113 0B       		.uleb128 0xb
 8936 0114 0D       		.uleb128 0xd
 8937 0115 0B       		.uleb128 0xb
 8938 0116 0C       		.uleb128 0xc
 8939 0117 0B       		.uleb128 0xb
 8940 0118 38       		.uleb128 0x38
 8941 0119 0B       		.uleb128 0xb
 8942 011a 00       		.byte	0
 8943 011b 00       		.byte	0
 8944 011c 17       		.uleb128 0x17
 8945 011d 13       		.uleb128 0x13
 8946 011e 00       		.byte	0
 8947 011f 03       		.uleb128 0x3
 8948 0120 0E       		.uleb128 0xe
 8949 0121 3C       		.uleb128 0x3c
 8950 0122 19       		.uleb128 0x19
ARM GAS  C:\Users\164\AppData\Local\Temp\ccuYWdBJ.s 			page 184


 8951 0123 00       		.byte	0
 8952 0124 00       		.byte	0
 8953 0125 18       		.uleb128 0x18
 8954 0126 01       		.uleb128 0x1
 8955 0127 01       		.byte	0x1
 8956 0128 49       		.uleb128 0x49
 8957 0129 13       		.uleb128 0x13
 8958 012a 01       		.uleb128 0x1
 8959 012b 13       		.uleb128 0x13
 8960 012c 00       		.byte	0
 8961 012d 00       		.byte	0
 8962 012e 19       		.uleb128 0x19
 8963 012f 21       		.uleb128 0x21
 8964 0130 00       		.byte	0
 8965 0131 49       		.uleb128 0x49
 8966 0132 13       		.uleb128 0x13
 8967 0133 00       		.byte	0
 8968 0134 00       		.byte	0
 8969 0135 1A       		.uleb128 0x1a
 8970 0136 21       		.uleb128 0x21
 8971 0137 00       		.byte	0
 8972 0138 49       		.uleb128 0x49
 8973 0139 13       		.uleb128 0x13
 8974 013a 2F       		.uleb128 0x2f
 8975 013b 0B       		.uleb128 0xb
 8976 013c 00       		.byte	0
 8977 013d 00       		.byte	0
 8978 013e 1B       		.uleb128 0x1b
 8979 013f 35       		.uleb128 0x35
 8980 0140 00       		.byte	0
 8981 0141 49       		.uleb128 0x49
 8982 0142 13       		.uleb128 0x13
 8983 0143 00       		.byte	0
 8984 0144 00       		.byte	0
 8985 0145 1C       		.uleb128 0x1c
 8986 0146 2E       		.uleb128 0x2e
 8987 0147 01       		.byte	0x1
 8988 0148 03       		.uleb128 0x3
 8989 0149 0E       		.uleb128 0xe
 8990 014a 3A       		.uleb128 0x3a
 8991 014b 0B       		.uleb128 0xb
 8992 014c 3B       		.uleb128 0x3b
 8993 014d 0B       		.uleb128 0xb
 8994 014e 27       		.uleb128 0x27
 8995 014f 19       		.uleb128 0x19
 8996 0150 49       		.uleb128 0x49
 8997 0151 13       		.uleb128 0x13
 8998 0152 20       		.uleb128 0x20
 8999 0153 0B       		.uleb128 0xb
 9000 0154 01       		.uleb128 0x1
 9001 0155 13       		.uleb128 0x13
 9002 0156 00       		.byte	0
 9003 0157 00       		.byte	0
 9004 0158 1D       		.uleb128 0x1d
 9005 0159 05       		.uleb128 0x5
 9006 015a 00       		.byte	0
 9007 015b 03       		.uleb128 0x3
ARM GAS  C:\Users\164\AppData\Local\Temp\ccuYWdBJ.s 			page 185


 9008 015c 08       		.uleb128 0x8
 9009 015d 3A       		.uleb128 0x3a
 9010 015e 0B       		.uleb128 0xb
 9011 015f 3B       		.uleb128 0x3b
 9012 0160 0B       		.uleb128 0xb
 9013 0161 49       		.uleb128 0x49
 9014 0162 13       		.uleb128 0x13
 9015 0163 00       		.byte	0
 9016 0164 00       		.byte	0
 9017 0165 1E       		.uleb128 0x1e
 9018 0166 2E       		.uleb128 0x2e
 9019 0167 01       		.byte	0x1
 9020 0168 03       		.uleb128 0x3
 9021 0169 0E       		.uleb128 0xe
 9022 016a 3A       		.uleb128 0x3a
 9023 016b 0B       		.uleb128 0xb
 9024 016c 3B       		.uleb128 0x3b
 9025 016d 05       		.uleb128 0x5
 9026 016e 27       		.uleb128 0x27
 9027 016f 19       		.uleb128 0x19
 9028 0170 11       		.uleb128 0x11
 9029 0171 01       		.uleb128 0x1
 9030 0172 12       		.uleb128 0x12
 9031 0173 06       		.uleb128 0x6
 9032 0174 40       		.uleb128 0x40
 9033 0175 18       		.uleb128 0x18
 9034 0176 9742     		.uleb128 0x2117
 9035 0178 19       		.uleb128 0x19
 9036 0179 01       		.uleb128 0x1
 9037 017a 13       		.uleb128 0x13
 9038 017b 00       		.byte	0
 9039 017c 00       		.byte	0
 9040 017d 1F       		.uleb128 0x1f
 9041 017e 05       		.uleb128 0x5
 9042 017f 00       		.byte	0
 9043 0180 03       		.uleb128 0x3
 9044 0181 08       		.uleb128 0x8
 9045 0182 3A       		.uleb128 0x3a
 9046 0183 0B       		.uleb128 0xb
 9047 0184 3B       		.uleb128 0x3b
 9048 0185 05       		.uleb128 0x5
 9049 0186 49       		.uleb128 0x49
 9050 0187 13       		.uleb128 0x13
 9051 0188 02       		.uleb128 0x2
 9052 0189 17       		.uleb128 0x17
 9053 018a 00       		.byte	0
 9054 018b 00       		.byte	0
 9055 018c 20       		.uleb128 0x20
 9056 018d 05       		.uleb128 0x5
 9057 018e 00       		.byte	0
 9058 018f 03       		.uleb128 0x3
 9059 0190 0E       		.uleb128 0xe
 9060 0191 3A       		.uleb128 0x3a
 9061 0192 0B       		.uleb128 0xb
 9062 0193 3B       		.uleb128 0x3b
 9063 0194 05       		.uleb128 0x5
 9064 0195 49       		.uleb128 0x49
ARM GAS  C:\Users\164\AppData\Local\Temp\ccuYWdBJ.s 			page 186


 9065 0196 13       		.uleb128 0x13
 9066 0197 02       		.uleb128 0x2
 9067 0198 17       		.uleb128 0x17
 9068 0199 00       		.byte	0
 9069 019a 00       		.byte	0
 9070 019b 21       		.uleb128 0x21
 9071 019c 34       		.uleb128 0x34
 9072 019d 00       		.byte	0
 9073 019e 03       		.uleb128 0x3
 9074 019f 08       		.uleb128 0x8
 9075 01a0 3A       		.uleb128 0x3a
 9076 01a1 0B       		.uleb128 0xb
 9077 01a2 3B       		.uleb128 0x3b
 9078 01a3 05       		.uleb128 0x5
 9079 01a4 49       		.uleb128 0x49
 9080 01a5 13       		.uleb128 0x13
 9081 01a6 00       		.byte	0
 9082 01a7 00       		.byte	0
 9083 01a8 22       		.uleb128 0x22
 9084 01a9 1D       		.uleb128 0x1d
 9085 01aa 01       		.byte	0x1
 9086 01ab 31       		.uleb128 0x31
 9087 01ac 13       		.uleb128 0x13
 9088 01ad 11       		.uleb128 0x11
 9089 01ae 01       		.uleb128 0x1
 9090 01af 12       		.uleb128 0x12
 9091 01b0 06       		.uleb128 0x6
 9092 01b1 58       		.uleb128 0x58
 9093 01b2 0B       		.uleb128 0xb
 9094 01b3 59       		.uleb128 0x59
 9095 01b4 05       		.uleb128 0x5
 9096 01b5 01       		.uleb128 0x1
 9097 01b6 13       		.uleb128 0x13
 9098 01b7 00       		.byte	0
 9099 01b8 00       		.byte	0
 9100 01b9 23       		.uleb128 0x23
 9101 01ba 05       		.uleb128 0x5
 9102 01bb 00       		.byte	0
 9103 01bc 31       		.uleb128 0x31
 9104 01bd 13       		.uleb128 0x13
 9105 01be 02       		.uleb128 0x2
 9106 01bf 17       		.uleb128 0x17
 9107 01c0 00       		.byte	0
 9108 01c1 00       		.byte	0
 9109 01c2 24       		.uleb128 0x24
 9110 01c3 0B       		.uleb128 0xb
 9111 01c4 01       		.byte	0x1
 9112 01c5 11       		.uleb128 0x11
 9113 01c6 01       		.uleb128 0x1
 9114 01c7 12       		.uleb128 0x12
 9115 01c8 06       		.uleb128 0x6
 9116 01c9 00       		.byte	0
 9117 01ca 00       		.byte	0
 9118 01cb 25       		.uleb128 0x25
 9119 01cc 34       		.uleb128 0x34
 9120 01cd 00       		.byte	0
 9121 01ce 03       		.uleb128 0x3
ARM GAS  C:\Users\164\AppData\Local\Temp\ccuYWdBJ.s 			page 187


 9122 01cf 08       		.uleb128 0x8
 9123 01d0 3A       		.uleb128 0x3a
 9124 01d1 0B       		.uleb128 0xb
 9125 01d2 3B       		.uleb128 0x3b
 9126 01d3 05       		.uleb128 0x5
 9127 01d4 49       		.uleb128 0x49
 9128 01d5 13       		.uleb128 0x13
 9129 01d6 02       		.uleb128 0x2
 9130 01d7 18       		.uleb128 0x18
 9131 01d8 00       		.byte	0
 9132 01d9 00       		.byte	0
 9133 01da 26       		.uleb128 0x26
 9134 01db 898201   		.uleb128 0x4109
 9135 01de 01       		.byte	0x1
 9136 01df 11       		.uleb128 0x11
 9137 01e0 01       		.uleb128 0x1
 9138 01e1 31       		.uleb128 0x31
 9139 01e2 13       		.uleb128 0x13
 9140 01e3 00       		.byte	0
 9141 01e4 00       		.byte	0
 9142 01e5 27       		.uleb128 0x27
 9143 01e6 8A8201   		.uleb128 0x410a
 9144 01e9 00       		.byte	0
 9145 01ea 02       		.uleb128 0x2
 9146 01eb 18       		.uleb128 0x18
 9147 01ec 9142     		.uleb128 0x2111
 9148 01ee 18       		.uleb128 0x18
 9149 01ef 00       		.byte	0
 9150 01f0 00       		.byte	0
 9151 01f1 28       		.uleb128 0x28
 9152 01f2 898201   		.uleb128 0x4109
 9153 01f5 01       		.byte	0x1
 9154 01f6 11       		.uleb128 0x11
 9155 01f7 01       		.uleb128 0x1
 9156 01f8 31       		.uleb128 0x31
 9157 01f9 13       		.uleb128 0x13
 9158 01fa 01       		.uleb128 0x1
 9159 01fb 13       		.uleb128 0x13
 9160 01fc 00       		.byte	0
 9161 01fd 00       		.byte	0
 9162 01fe 29       		.uleb128 0x29
 9163 01ff 34       		.uleb128 0x34
 9164 0200 00       		.byte	0
 9165 0201 03       		.uleb128 0x3
 9166 0202 0E       		.uleb128 0xe
 9167 0203 3A       		.uleb128 0x3a
 9168 0204 0B       		.uleb128 0xb
 9169 0205 3B       		.uleb128 0x3b
 9170 0206 05       		.uleb128 0x5
 9171 0207 49       		.uleb128 0x49
 9172 0208 13       		.uleb128 0x13
 9173 0209 02       		.uleb128 0x2
 9174 020a 18       		.uleb128 0x18
 9175 020b 00       		.byte	0
 9176 020c 00       		.byte	0
 9177 020d 2A       		.uleb128 0x2a
 9178 020e 34       		.uleb128 0x34
ARM GAS  C:\Users\164\AppData\Local\Temp\ccuYWdBJ.s 			page 188


 9179 020f 00       		.byte	0
 9180 0210 03       		.uleb128 0x3
 9181 0211 08       		.uleb128 0x8
 9182 0212 3A       		.uleb128 0x3a
 9183 0213 0B       		.uleb128 0xb
 9184 0214 3B       		.uleb128 0x3b
 9185 0215 05       		.uleb128 0x5
 9186 0216 49       		.uleb128 0x49
 9187 0217 13       		.uleb128 0x13
 9188 0218 02       		.uleb128 0x2
 9189 0219 17       		.uleb128 0x17
 9190 021a 00       		.byte	0
 9191 021b 00       		.byte	0
 9192 021c 2B       		.uleb128 0x2b
 9193 021d 0B       		.uleb128 0xb
 9194 021e 01       		.byte	0x1
 9195 021f 11       		.uleb128 0x11
 9196 0220 01       		.uleb128 0x1
 9197 0221 12       		.uleb128 0x12
 9198 0222 06       		.uleb128 0x6
 9199 0223 01       		.uleb128 0x1
 9200 0224 13       		.uleb128 0x13
 9201 0225 00       		.byte	0
 9202 0226 00       		.byte	0
 9203 0227 2C       		.uleb128 0x2c
 9204 0228 34       		.uleb128 0x34
 9205 0229 00       		.byte	0
 9206 022a 03       		.uleb128 0x3
 9207 022b 0E       		.uleb128 0xe
 9208 022c 3A       		.uleb128 0x3a
 9209 022d 0B       		.uleb128 0xb
 9210 022e 3B       		.uleb128 0x3b
 9211 022f 05       		.uleb128 0x5
 9212 0230 49       		.uleb128 0x49
 9213 0231 13       		.uleb128 0x13
 9214 0232 02       		.uleb128 0x2
 9215 0233 17       		.uleb128 0x17
 9216 0234 00       		.byte	0
 9217 0235 00       		.byte	0
 9218 0236 2D       		.uleb128 0x2d
 9219 0237 0A       		.uleb128 0xa
 9220 0238 00       		.byte	0
 9221 0239 03       		.uleb128 0x3
 9222 023a 0E       		.uleb128 0xe
 9223 023b 3A       		.uleb128 0x3a
 9224 023c 0B       		.uleb128 0xb
 9225 023d 3B       		.uleb128 0x3b
 9226 023e 05       		.uleb128 0x5
 9227 023f 11       		.uleb128 0x11
 9228 0240 01       		.uleb128 0x1
 9229 0241 00       		.byte	0
 9230 0242 00       		.byte	0
 9231 0243 2E       		.uleb128 0x2e
 9232 0244 2E       		.uleb128 0x2e
 9233 0245 01       		.byte	0x1
 9234 0246 3F       		.uleb128 0x3f
 9235 0247 19       		.uleb128 0x19
ARM GAS  C:\Users\164\AppData\Local\Temp\ccuYWdBJ.s 			page 189


 9236 0248 03       		.uleb128 0x3
 9237 0249 0E       		.uleb128 0xe
 9238 024a 3A       		.uleb128 0x3a
 9239 024b 0B       		.uleb128 0xb
 9240 024c 3B       		.uleb128 0x3b
 9241 024d 0B       		.uleb128 0xb
 9242 024e 27       		.uleb128 0x27
 9243 024f 19       		.uleb128 0x19
 9244 0250 49       		.uleb128 0x49
 9245 0251 13       		.uleb128 0x13
 9246 0252 11       		.uleb128 0x11
 9247 0253 01       		.uleb128 0x1
 9248 0254 12       		.uleb128 0x12
 9249 0255 06       		.uleb128 0x6
 9250 0256 40       		.uleb128 0x40
 9251 0257 18       		.uleb128 0x18
 9252 0258 9742     		.uleb128 0x2117
 9253 025a 19       		.uleb128 0x19
 9254 025b 01       		.uleb128 0x1
 9255 025c 13       		.uleb128 0x13
 9256 025d 00       		.byte	0
 9257 025e 00       		.byte	0
 9258 025f 2F       		.uleb128 0x2f
 9259 0260 05       		.uleb128 0x5
 9260 0261 00       		.byte	0
 9261 0262 03       		.uleb128 0x3
 9262 0263 08       		.uleb128 0x8
 9263 0264 3A       		.uleb128 0x3a
 9264 0265 0B       		.uleb128 0xb
 9265 0266 3B       		.uleb128 0x3b
 9266 0267 0B       		.uleb128 0xb
 9267 0268 49       		.uleb128 0x49
 9268 0269 13       		.uleb128 0x13
 9269 026a 02       		.uleb128 0x2
 9270 026b 17       		.uleb128 0x17
 9271 026c 00       		.byte	0
 9272 026d 00       		.byte	0
 9273 026e 30       		.uleb128 0x30
 9274 026f 05       		.uleb128 0x5
 9275 0270 00       		.byte	0
 9276 0271 03       		.uleb128 0x3
 9277 0272 0E       		.uleb128 0xe
 9278 0273 3A       		.uleb128 0x3a
 9279 0274 0B       		.uleb128 0xb
 9280 0275 3B       		.uleb128 0x3b
 9281 0276 0B       		.uleb128 0xb
 9282 0277 49       		.uleb128 0x49
 9283 0278 13       		.uleb128 0x13
 9284 0279 02       		.uleb128 0x2
 9285 027a 17       		.uleb128 0x17
 9286 027b 00       		.byte	0
 9287 027c 00       		.byte	0
 9288 027d 31       		.uleb128 0x31
 9289 027e 34       		.uleb128 0x34
 9290 027f 00       		.byte	0
 9291 0280 03       		.uleb128 0x3
 9292 0281 0E       		.uleb128 0xe
ARM GAS  C:\Users\164\AppData\Local\Temp\ccuYWdBJ.s 			page 190


 9293 0282 3A       		.uleb128 0x3a
 9294 0283 0B       		.uleb128 0xb
 9295 0284 3B       		.uleb128 0x3b
 9296 0285 0B       		.uleb128 0xb
 9297 0286 49       		.uleb128 0x49
 9298 0287 13       		.uleb128 0x13
 9299 0288 02       		.uleb128 0x2
 9300 0289 17       		.uleb128 0x17
 9301 028a 00       		.byte	0
 9302 028b 00       		.byte	0
 9303 028c 32       		.uleb128 0x32
 9304 028d 34       		.uleb128 0x34
 9305 028e 00       		.byte	0
 9306 028f 03       		.uleb128 0x3
 9307 0290 08       		.uleb128 0x8
 9308 0291 3A       		.uleb128 0x3a
 9309 0292 0B       		.uleb128 0xb
 9310 0293 3B       		.uleb128 0x3b
 9311 0294 0B       		.uleb128 0xb
 9312 0295 49       		.uleb128 0x49
 9313 0296 13       		.uleb128 0x13
 9314 0297 02       		.uleb128 0x2
 9315 0298 17       		.uleb128 0x17
 9316 0299 00       		.byte	0
 9317 029a 00       		.byte	0
 9318 029b 33       		.uleb128 0x33
 9319 029c 898201   		.uleb128 0x4109
 9320 029f 00       		.byte	0
 9321 02a0 11       		.uleb128 0x11
 9322 02a1 01       		.uleb128 0x1
 9323 02a2 31       		.uleb128 0x31
 9324 02a3 13       		.uleb128 0x13
 9325 02a4 00       		.byte	0
 9326 02a5 00       		.byte	0
 9327 02a6 34       		.uleb128 0x34
 9328 02a7 2E       		.uleb128 0x2e
 9329 02a8 01       		.byte	0x1
 9330 02a9 03       		.uleb128 0x3
 9331 02aa 0E       		.uleb128 0xe
 9332 02ab 3A       		.uleb128 0x3a
 9333 02ac 0B       		.uleb128 0xb
 9334 02ad 3B       		.uleb128 0x3b
 9335 02ae 0B       		.uleb128 0xb
 9336 02af 27       		.uleb128 0x27
 9337 02b0 19       		.uleb128 0x19
 9338 02b1 20       		.uleb128 0x20
 9339 02b2 0B       		.uleb128 0xb
 9340 02b3 01       		.uleb128 0x1
 9341 02b4 13       		.uleb128 0x13
 9342 02b5 00       		.byte	0
 9343 02b6 00       		.byte	0
 9344 02b7 35       		.uleb128 0x35
 9345 02b8 2E       		.uleb128 0x2e
 9346 02b9 01       		.byte	0x1
 9347 02ba 3F       		.uleb128 0x3f
 9348 02bb 19       		.uleb128 0x19
 9349 02bc 03       		.uleb128 0x3
ARM GAS  C:\Users\164\AppData\Local\Temp\ccuYWdBJ.s 			page 191


 9350 02bd 0E       		.uleb128 0xe
 9351 02be 3A       		.uleb128 0x3a
 9352 02bf 0B       		.uleb128 0xb
 9353 02c0 3B       		.uleb128 0x3b
 9354 02c1 0B       		.uleb128 0xb
 9355 02c2 27       		.uleb128 0x27
 9356 02c3 19       		.uleb128 0x19
 9357 02c4 11       		.uleb128 0x11
 9358 02c5 01       		.uleb128 0x1
 9359 02c6 12       		.uleb128 0x12
 9360 02c7 06       		.uleb128 0x6
 9361 02c8 40       		.uleb128 0x40
 9362 02c9 18       		.uleb128 0x18
 9363 02ca 9742     		.uleb128 0x2117
 9364 02cc 19       		.uleb128 0x19
 9365 02cd 01       		.uleb128 0x1
 9366 02ce 13       		.uleb128 0x13
 9367 02cf 00       		.byte	0
 9368 02d0 00       		.byte	0
 9369 02d1 36       		.uleb128 0x36
 9370 02d2 34       		.uleb128 0x34
 9371 02d3 00       		.byte	0
 9372 02d4 03       		.uleb128 0x3
 9373 02d5 08       		.uleb128 0x8
 9374 02d6 3A       		.uleb128 0x3a
 9375 02d7 0B       		.uleb128 0xb
 9376 02d8 3B       		.uleb128 0x3b
 9377 02d9 0B       		.uleb128 0xb
 9378 02da 49       		.uleb128 0x49
 9379 02db 13       		.uleb128 0x13
 9380 02dc 02       		.uleb128 0x2
 9381 02dd 18       		.uleb128 0x18
 9382 02de 00       		.byte	0
 9383 02df 00       		.byte	0
 9384 02e0 37       		.uleb128 0x37
 9385 02e1 05       		.uleb128 0x5
 9386 02e2 00       		.byte	0
 9387 02e3 31       		.uleb128 0x31
 9388 02e4 13       		.uleb128 0x13
 9389 02e5 02       		.uleb128 0x2
 9390 02e6 18       		.uleb128 0x18
 9391 02e7 00       		.byte	0
 9392 02e8 00       		.byte	0
 9393 02e9 38       		.uleb128 0x38
 9394 02ea 1D       		.uleb128 0x1d
 9395 02eb 01       		.byte	0x1
 9396 02ec 31       		.uleb128 0x31
 9397 02ed 13       		.uleb128 0x13
 9398 02ee 11       		.uleb128 0x11
 9399 02ef 01       		.uleb128 0x1
 9400 02f0 12       		.uleb128 0x12
 9401 02f1 06       		.uleb128 0x6
 9402 02f2 58       		.uleb128 0x58
 9403 02f3 0B       		.uleb128 0xb
 9404 02f4 59       		.uleb128 0x59
 9405 02f5 05       		.uleb128 0x5
 9406 02f6 00       		.byte	0
ARM GAS  C:\Users\164\AppData\Local\Temp\ccuYWdBJ.s 			page 192


 9407 02f7 00       		.byte	0
 9408 02f8 39       		.uleb128 0x39
 9409 02f9 0B       		.uleb128 0xb
 9410 02fa 01       		.byte	0x1
 9411 02fb 55       		.uleb128 0x55
 9412 02fc 17       		.uleb128 0x17
 9413 02fd 00       		.byte	0
 9414 02fe 00       		.byte	0
 9415 02ff 3A       		.uleb128 0x3a
 9416 0300 2E       		.uleb128 0x2e
 9417 0301 01       		.byte	0x1
 9418 0302 3F       		.uleb128 0x3f
 9419 0303 19       		.uleb128 0x19
 9420 0304 03       		.uleb128 0x3
 9421 0305 0E       		.uleb128 0xe
 9422 0306 3A       		.uleb128 0x3a
 9423 0307 0B       		.uleb128 0xb
 9424 0308 3B       		.uleb128 0x3b
 9425 0309 05       		.uleb128 0x5
 9426 030a 27       		.uleb128 0x27
 9427 030b 19       		.uleb128 0x19
 9428 030c 49       		.uleb128 0x49
 9429 030d 13       		.uleb128 0x13
 9430 030e 11       		.uleb128 0x11
 9431 030f 01       		.uleb128 0x1
 9432 0310 12       		.uleb128 0x12
 9433 0311 06       		.uleb128 0x6
 9434 0312 40       		.uleb128 0x40
 9435 0313 18       		.uleb128 0x18
 9436 0314 9742     		.uleb128 0x2117
 9437 0316 19       		.uleb128 0x19
 9438 0317 01       		.uleb128 0x1
 9439 0318 13       		.uleb128 0x13
 9440 0319 00       		.byte	0
 9441 031a 00       		.byte	0
 9442 031b 3B       		.uleb128 0x3b
 9443 031c 2E       		.uleb128 0x2e
 9444 031d 01       		.byte	0x1
 9445 031e 3F       		.uleb128 0x3f
 9446 031f 19       		.uleb128 0x19
 9447 0320 03       		.uleb128 0x3
 9448 0321 0E       		.uleb128 0xe
 9449 0322 3A       		.uleb128 0x3a
 9450 0323 0B       		.uleb128 0xb
 9451 0324 3B       		.uleb128 0x3b
 9452 0325 05       		.uleb128 0x5
 9453 0326 27       		.uleb128 0x27
 9454 0327 19       		.uleb128 0x19
 9455 0328 11       		.uleb128 0x11
 9456 0329 01       		.uleb128 0x1
 9457 032a 12       		.uleb128 0x12
 9458 032b 06       		.uleb128 0x6
 9459 032c 40       		.uleb128 0x40
 9460 032d 18       		.uleb128 0x18
 9461 032e 9742     		.uleb128 0x2117
 9462 0330 19       		.uleb128 0x19
 9463 0331 01       		.uleb128 0x1
ARM GAS  C:\Users\164\AppData\Local\Temp\ccuYWdBJ.s 			page 193


 9464 0332 13       		.uleb128 0x13
 9465 0333 00       		.byte	0
 9466 0334 00       		.byte	0
 9467 0335 3C       		.uleb128 0x3c
 9468 0336 34       		.uleb128 0x34
 9469 0337 00       		.byte	0
 9470 0338 03       		.uleb128 0x3
 9471 0339 0E       		.uleb128 0xe
 9472 033a 3A       		.uleb128 0x3a
 9473 033b 0B       		.uleb128 0xb
 9474 033c 3B       		.uleb128 0x3b
 9475 033d 0B       		.uleb128 0xb
 9476 033e 49       		.uleb128 0x49
 9477 033f 13       		.uleb128 0x13
 9478 0340 3F       		.uleb128 0x3f
 9479 0341 19       		.uleb128 0x19
 9480 0342 3C       		.uleb128 0x3c
 9481 0343 19       		.uleb128 0x19
 9482 0344 00       		.byte	0
 9483 0345 00       		.byte	0
 9484 0346 3D       		.uleb128 0x3d
 9485 0347 34       		.uleb128 0x34
 9486 0348 00       		.byte	0
 9487 0349 03       		.uleb128 0x3
 9488 034a 0E       		.uleb128 0xe
 9489 034b 3A       		.uleb128 0x3a
 9490 034c 0B       		.uleb128 0xb
 9491 034d 3B       		.uleb128 0x3b
 9492 034e 05       		.uleb128 0x5
 9493 034f 49       		.uleb128 0x49
 9494 0350 13       		.uleb128 0x13
 9495 0351 3F       		.uleb128 0x3f
 9496 0352 19       		.uleb128 0x19
 9497 0353 3C       		.uleb128 0x3c
 9498 0354 19       		.uleb128 0x19
 9499 0355 00       		.byte	0
 9500 0356 00       		.byte	0
 9501 0357 3E       		.uleb128 0x3e
 9502 0358 2E       		.uleb128 0x2e
 9503 0359 00       		.byte	0
 9504 035a 3F       		.uleb128 0x3f
 9505 035b 19       		.uleb128 0x19
 9506 035c 3C       		.uleb128 0x3c
 9507 035d 19       		.uleb128 0x19
 9508 035e 6E       		.uleb128 0x6e
 9509 035f 0E       		.uleb128 0xe
 9510 0360 03       		.uleb128 0x3
 9511 0361 0E       		.uleb128 0xe
 9512 0362 3A       		.uleb128 0x3a
 9513 0363 0B       		.uleb128 0xb
 9514 0364 3B       		.uleb128 0x3b
 9515 0365 0B       		.uleb128 0xb
 9516 0366 00       		.byte	0
 9517 0367 00       		.byte	0
 9518 0368 3F       		.uleb128 0x3f
 9519 0369 2E       		.uleb128 0x2e
 9520 036a 00       		.byte	0
ARM GAS  C:\Users\164\AppData\Local\Temp\ccuYWdBJ.s 			page 194


 9521 036b 3F       		.uleb128 0x3f
 9522 036c 19       		.uleb128 0x19
 9523 036d 3C       		.uleb128 0x3c
 9524 036e 19       		.uleb128 0x19
 9525 036f 6E       		.uleb128 0x6e
 9526 0370 0E       		.uleb128 0xe
 9527 0371 03       		.uleb128 0x3
 9528 0372 0E       		.uleb128 0xe
 9529 0373 00       		.byte	0
 9530 0374 00       		.byte	0
 9531 0375 00       		.byte	0
 9532              		.section	.debug_loc,"",%progbits
 9533              	.Ldebug_loc0:
 9534              	.LLST0:
 9535 0000 00000000 		.4byte	.LVL0
 9536 0004 0A000000 		.4byte	.LVL3
 9537 0008 0100     		.2byte	0x1
 9538 000a 50       		.byte	0x50
 9539 000b 0A000000 		.4byte	.LVL3
 9540 000f 16000000 		.4byte	.LFE107
 9541 0013 0400     		.2byte	0x4
 9542 0015 F3       		.byte	0xf3
 9543 0016 01       		.uleb128 0x1
 9544 0017 50       		.byte	0x50
 9545 0018 9F       		.byte	0x9f
 9546 0019 00000000 		.4byte	0
 9547 001d 00000000 		.4byte	0
 9548              	.LLST1:
 9549 0021 00000000 		.4byte	.LVL0
 9550 0025 0D000000 		.4byte	.LVL4-1
 9551 0029 0100     		.2byte	0x1
 9552 002b 51       		.byte	0x51
 9553 002c 0D000000 		.4byte	.LVL4-1
 9554 0030 16000000 		.4byte	.LFE107
 9555 0034 0100     		.2byte	0x1
 9556 0036 54       		.byte	0x54
 9557 0037 00000000 		.4byte	0
 9558 003b 00000000 		.4byte	0
 9559              	.LLST2:
 9560 003f 00000000 		.4byte	.LVL0
 9561 0043 0D000000 		.4byte	.LVL4-1
 9562 0047 0100     		.2byte	0x1
 9563 0049 52       		.byte	0x52
 9564 004a 0D000000 		.4byte	.LVL4-1
 9565 004e 16000000 		.4byte	.LFE107
 9566 0052 0400     		.2byte	0x4
 9567 0054 F3       		.byte	0xf3
 9568 0055 01       		.uleb128 0x1
 9569 0056 52       		.byte	0x52
 9570 0057 9F       		.byte	0x9f
 9571 0058 00000000 		.4byte	0
 9572 005c 00000000 		.4byte	0
 9573              	.LLST3:
 9574 0060 04000000 		.4byte	.LVL1
 9575 0064 08000000 		.4byte	.LVL2
 9576 0068 0100     		.2byte	0x1
 9577 006a 51       		.byte	0x51
ARM GAS  C:\Users\164\AppData\Local\Temp\ccuYWdBJ.s 			page 195


 9578 006b 00000000 		.4byte	0
 9579 006f 00000000 		.4byte	0
 9580              	.LLST4:
 9581 0073 00000000 		.4byte	.LVL5
 9582 0077 0C000000 		.4byte	.LVL8
 9583 007b 0100     		.2byte	0x1
 9584 007d 50       		.byte	0x50
 9585 007e 0C000000 		.4byte	.LVL8
 9586 0082 16000000 		.4byte	.LVL10
 9587 0086 0400     		.2byte	0x4
 9588 0088 F3       		.byte	0xf3
 9589 0089 01       		.uleb128 0x1
 9590 008a 50       		.byte	0x50
 9591 008b 9F       		.byte	0x9f
 9592 008c 16000000 		.4byte	.LVL10
 9593 0090 18000000 		.4byte	.LVL11
 9594 0094 0100     		.2byte	0x1
 9595 0096 50       		.byte	0x50
 9596 0097 18000000 		.4byte	.LVL11
 9597 009b 22000000 		.4byte	.LFE106
 9598 009f 0400     		.2byte	0x4
 9599 00a1 F3       		.byte	0xf3
 9600 00a2 01       		.uleb128 0x1
 9601 00a3 50       		.byte	0x50
 9602 00a4 9F       		.byte	0x9f
 9603 00a5 00000000 		.4byte	0
 9604 00a9 00000000 		.4byte	0
 9605              	.LLST5:
 9606 00ad 00000000 		.4byte	.LVL5
 9607 00b1 0F000000 		.4byte	.LVL9-1
 9608 00b5 0100     		.2byte	0x1
 9609 00b7 51       		.byte	0x51
 9610 00b8 0F000000 		.4byte	.LVL9-1
 9611 00bc 16000000 		.4byte	.LVL10
 9612 00c0 0100     		.2byte	0x1
 9613 00c2 54       		.byte	0x54
 9614 00c3 16000000 		.4byte	.LVL10
 9615 00c7 1B000000 		.4byte	.LVL12-1
 9616 00cb 0100     		.2byte	0x1
 9617 00cd 51       		.byte	0x51
 9618 00ce 1B000000 		.4byte	.LVL12-1
 9619 00d2 22000000 		.4byte	.LFE106
 9620 00d6 0100     		.2byte	0x1
 9621 00d8 54       		.byte	0x54
 9622 00d9 00000000 		.4byte	0
 9623 00dd 00000000 		.4byte	0
 9624              	.LLST6:
 9625 00e1 00000000 		.4byte	.LVL5
 9626 00e5 0F000000 		.4byte	.LVL9-1
 9627 00e9 0100     		.2byte	0x1
 9628 00eb 52       		.byte	0x52
 9629 00ec 0F000000 		.4byte	.LVL9-1
 9630 00f0 16000000 		.4byte	.LVL10
 9631 00f4 0400     		.2byte	0x4
 9632 00f6 F3       		.byte	0xf3
 9633 00f7 01       		.uleb128 0x1
 9634 00f8 52       		.byte	0x52
ARM GAS  C:\Users\164\AppData\Local\Temp\ccuYWdBJ.s 			page 196


 9635 00f9 9F       		.byte	0x9f
 9636 00fa 16000000 		.4byte	.LVL10
 9637 00fe 1B000000 		.4byte	.LVL12-1
 9638 0102 0100     		.2byte	0x1
 9639 0104 52       		.byte	0x52
 9640 0105 1B000000 		.4byte	.LVL12-1
 9641 0109 22000000 		.4byte	.LFE106
 9642 010d 0400     		.2byte	0x4
 9643 010f F3       		.byte	0xf3
 9644 0110 01       		.uleb128 0x1
 9645 0111 52       		.byte	0x52
 9646 0112 9F       		.byte	0x9f
 9647 0113 00000000 		.4byte	0
 9648 0117 00000000 		.4byte	0
 9649              	.LLST7:
 9650 011b 04000000 		.4byte	.LVL6
 9651 011f 08000000 		.4byte	.LVL7
 9652 0123 0100     		.2byte	0x1
 9653 0125 51       		.byte	0x51
 9654 0126 00000000 		.4byte	0
 9655 012a 00000000 		.4byte	0
 9656              	.LLST8:
 9657 012e 00000000 		.4byte	.LVL13
 9658 0132 14000000 		.4byte	.LVL17
 9659 0136 0100     		.2byte	0x1
 9660 0138 50       		.byte	0x50
 9661 0139 14000000 		.4byte	.LVL17
 9662 013d 4E000000 		.4byte	.LFE108
 9663 0141 0400     		.2byte	0x4
 9664 0143 F3       		.byte	0xf3
 9665 0144 01       		.uleb128 0x1
 9666 0145 50       		.byte	0x50
 9667 0146 9F       		.byte	0x9f
 9668 0147 00000000 		.4byte	0
 9669 014b 00000000 		.4byte	0
 9670              	.LLST9:
 9671 014f 00000000 		.4byte	.LVL13
 9672 0153 14000000 		.4byte	.LVL17
 9673 0157 0100     		.2byte	0x1
 9674 0159 51       		.byte	0x51
 9675 015a 14000000 		.4byte	.LVL17
 9676 015e 4E000000 		.4byte	.LFE108
 9677 0162 0100     		.2byte	0x1
 9678 0164 58       		.byte	0x58
 9679 0165 00000000 		.4byte	0
 9680 0169 00000000 		.4byte	0
 9681              	.LLST10:
 9682 016d 00000000 		.4byte	.LVL13
 9683 0171 14000000 		.4byte	.LVL17
 9684 0175 0100     		.2byte	0x1
 9685 0177 52       		.byte	0x52
 9686 0178 14000000 		.4byte	.LVL17
 9687 017c 4E000000 		.4byte	.LFE108
 9688 0180 0400     		.2byte	0x4
 9689 0182 F3       		.byte	0xf3
 9690 0183 01       		.uleb128 0x1
 9691 0184 52       		.byte	0x52
ARM GAS  C:\Users\164\AppData\Local\Temp\ccuYWdBJ.s 			page 197


 9692 0185 9F       		.byte	0x9f
 9693 0186 00000000 		.4byte	0
 9694 018a 00000000 		.4byte	0
 9695              	.LLST11:
 9696 018e 10000000 		.4byte	.LVL16
 9697 0192 14000000 		.4byte	.LVL17
 9698 0196 0200     		.2byte	0x2
 9699 0198 30       		.byte	0x30
 9700 0199 9F       		.byte	0x9f
 9701 019a 14000000 		.4byte	.LVL17
 9702 019e 4E000000 		.4byte	.LFE108
 9703 01a2 0100     		.2byte	0x1
 9704 01a4 54       		.byte	0x54
 9705 01a5 00000000 		.4byte	0
 9706 01a9 00000000 		.4byte	0
 9707              	.LLST12:
 9708 01ad 2A000000 		.4byte	.LVL20
 9709 01b1 3E000000 		.4byte	.LVL22
 9710 01b5 0100     		.2byte	0x1
 9711 01b7 54       		.byte	0x54
 9712 01b8 00000000 		.4byte	0
 9713 01bc 00000000 		.4byte	0
 9714              	.LLST13:
 9715 01c0 00000000 		.4byte	.LVL24
 9716 01c4 22000000 		.4byte	.LVL27
 9717 01c8 0100     		.2byte	0x1
 9718 01ca 50       		.byte	0x50
 9719 01cb 22000000 		.4byte	.LVL27
 9720 01cf 80000000 		.4byte	.LVL37
 9721 01d3 0100     		.2byte	0x1
 9722 01d5 59       		.byte	0x59
 9723 01d6 80000000 		.4byte	.LVL37
 9724 01da 8C000000 		.4byte	.LFE120
 9725 01de 0400     		.2byte	0x4
 9726 01e0 F3       		.byte	0xf3
 9727 01e1 01       		.uleb128 0x1
 9728 01e2 50       		.byte	0x50
 9729 01e3 9F       		.byte	0x9f
 9730 01e4 00000000 		.4byte	0
 9731 01e8 00000000 		.4byte	0
 9732              	.LLST14:
 9733 01ec 00000000 		.4byte	.LVL24
 9734 01f0 22000000 		.4byte	.LVL27
 9735 01f4 0100     		.2byte	0x1
 9736 01f6 51       		.byte	0x51
 9737 01f7 22000000 		.4byte	.LVL27
 9738 01fb 80000000 		.4byte	.LVL37
 9739 01ff 0100     		.2byte	0x1
 9740 0201 5A       		.byte	0x5a
 9741 0202 80000000 		.4byte	.LVL37
 9742 0206 8C000000 		.4byte	.LFE120
 9743 020a 0400     		.2byte	0x4
 9744 020c F3       		.byte	0xf3
 9745 020d 01       		.uleb128 0x1
 9746 020e 51       		.byte	0x51
 9747 020f 9F       		.byte	0x9f
 9748 0210 00000000 		.4byte	0
ARM GAS  C:\Users\164\AppData\Local\Temp\ccuYWdBJ.s 			page 198


 9749 0214 00000000 		.4byte	0
 9750              	.LLST15:
 9751 0218 00000000 		.4byte	.LVL24
 9752 021c 22000000 		.4byte	.LVL27
 9753 0220 0100     		.2byte	0x1
 9754 0222 52       		.byte	0x52
 9755 0223 22000000 		.4byte	.LVL27
 9756 0227 80000000 		.4byte	.LVL37
 9757 022b 0100     		.2byte	0x1
 9758 022d 5B       		.byte	0x5b
 9759 022e 80000000 		.4byte	.LVL37
 9760 0232 8C000000 		.4byte	.LFE120
 9761 0236 0400     		.2byte	0x4
 9762 0238 F3       		.byte	0xf3
 9763 0239 01       		.uleb128 0x1
 9764 023a 52       		.byte	0x52
 9765 023b 9F       		.byte	0x9f
 9766 023c 00000000 		.4byte	0
 9767 0240 00000000 		.4byte	0
 9768              	.LLST16:
 9769 0244 00000000 		.4byte	.LVL24
 9770 0248 22000000 		.4byte	.LVL27
 9771 024c 0100     		.2byte	0x1
 9772 024e 53       		.byte	0x53
 9773 024f 22000000 		.4byte	.LVL27
 9774 0253 80000000 		.4byte	.LVL37
 9775 0257 0100     		.2byte	0x1
 9776 0259 56       		.byte	0x56
 9777 025a 80000000 		.4byte	.LVL37
 9778 025e 8C000000 		.4byte	.LFE120
 9779 0262 0400     		.2byte	0x4
 9780 0264 F3       		.byte	0xf3
 9781 0265 01       		.uleb128 0x1
 9782 0266 53       		.byte	0x53
 9783 0267 9F       		.byte	0x9f
 9784 0268 00000000 		.4byte	0
 9785 026c 00000000 		.4byte	0
 9786              	.LLST17:
 9787 0270 00000000 		.4byte	.LVL24
 9788 0274 86000000 		.4byte	.LVL38
 9789 0278 0200     		.2byte	0x2
 9790 027a 91       		.byte	0x91
 9791 027b 00       		.sleb128 0
 9792 027c 86000000 		.4byte	.LVL38
 9793 0280 8C000000 		.4byte	.LFE120
 9794 0284 0200     		.2byte	0x2
 9795 0286 7D       		.byte	0x7d
 9796 0287 00       		.sleb128 0
 9797 0288 00000000 		.4byte	0
 9798 028c 00000000 		.4byte	0
 9799              	.LLST18:
 9800 0290 00000000 		.4byte	.LVL24
 9801 0294 86000000 		.4byte	.LVL38
 9802 0298 0200     		.2byte	0x2
 9803 029a 91       		.byte	0x91
 9804 029b 04       		.sleb128 4
 9805 029c 86000000 		.4byte	.LVL38
ARM GAS  C:\Users\164\AppData\Local\Temp\ccuYWdBJ.s 			page 199


 9806 02a0 8C000000 		.4byte	.LFE120
 9807 02a4 0200     		.2byte	0x2
 9808 02a6 7D       		.byte	0x7d
 9809 02a7 04       		.sleb128 4
 9810 02a8 00000000 		.4byte	0
 9811 02ac 00000000 		.4byte	0
 9812              	.LLST19:
 9813 02b0 22000000 		.4byte	.LVL27
 9814 02b4 80000000 		.4byte	.LVL37
 9815 02b8 0100     		.2byte	0x1
 9816 02ba 55       		.byte	0x55
 9817 02bb 00000000 		.4byte	0
 9818 02bf 00000000 		.4byte	0
 9819              	.LLST20:
 9820 02c3 22000000 		.4byte	.LVL27
 9821 02c7 80000000 		.4byte	.LVL37
 9822 02cb 0100     		.2byte	0x1
 9823 02cd 54       		.byte	0x54
 9824 02ce 00000000 		.4byte	0
 9825 02d2 00000000 		.4byte	0
 9826              	.LLST21:
 9827 02d6 0C000000 		.4byte	.LVL25
 9828 02da 10000000 		.4byte	.LVL26
 9829 02de 0100     		.2byte	0x1
 9830 02e0 53       		.byte	0x53
 9831 02e1 00000000 		.4byte	0
 9832 02e5 00000000 		.4byte	0
 9833              	.LLST22:
 9834 02e9 6A000000 		.4byte	.LVL33
 9835 02ed 6E000000 		.4byte	.LVL34
 9836 02f1 0100     		.2byte	0x1
 9837 02f3 56       		.byte	0x56
 9838 02f4 00000000 		.4byte	0
 9839 02f8 00000000 		.4byte	0
 9840              	.LLST23:
 9841 02fc 00000000 		.4byte	.LVL39
 9842 0300 14000000 		.4byte	.LVL42
 9843 0304 0100     		.2byte	0x1
 9844 0306 50       		.byte	0x50
 9845 0307 14000000 		.4byte	.LVL42
 9846 030b 17000000 		.4byte	.LVL43-1
 9847 030f 0100     		.2byte	0x1
 9848 0311 51       		.byte	0x51
 9849 0312 17000000 		.4byte	.LVL43-1
 9850 0316 64000000 		.4byte	.LVL48
 9851 031a 0100     		.2byte	0x1
 9852 031c 55       		.byte	0x55
 9853 031d 64000000 		.4byte	.LVL48
 9854 0321 7C000000 		.4byte	.LVL50
 9855 0325 0400     		.2byte	0x4
 9856 0327 F3       		.byte	0xf3
 9857 0328 01       		.uleb128 0x1
 9858 0329 50       		.byte	0x50
 9859 032a 9F       		.byte	0x9f
 9860 032b 7C000000 		.4byte	.LVL50
 9861 032f 86000000 		.4byte	.LVL52
 9862 0333 0100     		.2byte	0x1
ARM GAS  C:\Users\164\AppData\Local\Temp\ccuYWdBJ.s 			page 200


 9863 0335 55       		.byte	0x55
 9864 0336 86000000 		.4byte	.LVL52
 9865 033a 94000000 		.4byte	.LFE121
 9866 033e 0400     		.2byte	0x4
 9867 0340 F3       		.byte	0xf3
 9868 0341 01       		.uleb128 0x1
 9869 0342 50       		.byte	0x50
 9870 0343 9F       		.byte	0x9f
 9871 0344 00000000 		.4byte	0
 9872 0348 00000000 		.4byte	0
 9873              	.LLST24:
 9874 034c 00000000 		.4byte	.LVL39
 9875 0350 12000000 		.4byte	.LVL41
 9876 0354 0100     		.2byte	0x1
 9877 0356 51       		.byte	0x51
 9878 0357 12000000 		.4byte	.LVL41
 9879 035b 8C000000 		.4byte	.LVL53
 9880 035f 0100     		.2byte	0x1
 9881 0361 54       		.byte	0x54
 9882 0362 8C000000 		.4byte	.LVL53
 9883 0366 94000000 		.4byte	.LFE121
 9884 036a 0400     		.2byte	0x4
 9885 036c F3       		.byte	0xf3
 9886 036d 01       		.uleb128 0x1
 9887 036e 51       		.byte	0x51
 9888 036f 9F       		.byte	0x9f
 9889 0370 00000000 		.4byte	0
 9890 0374 00000000 		.4byte	0
 9891              	.LLST25:
 9892 0378 00000000 		.4byte	.LVL39
 9893 037c 10000000 		.4byte	.LVL40
 9894 0380 0100     		.2byte	0x1
 9895 0382 52       		.byte	0x52
 9896 0383 10000000 		.4byte	.LVL40
 9897 0387 8C000000 		.4byte	.LVL53
 9898 038b 0100     		.2byte	0x1
 9899 038d 57       		.byte	0x57
 9900 038e 8C000000 		.4byte	.LVL53
 9901 0392 94000000 		.4byte	.LFE121
 9902 0396 0400     		.2byte	0x4
 9903 0398 F3       		.byte	0xf3
 9904 0399 01       		.uleb128 0x1
 9905 039a 52       		.byte	0x52
 9906 039b 9F       		.byte	0x9f
 9907 039c 00000000 		.4byte	0
 9908 03a0 00000000 		.4byte	0
 9909              	.LLST26:
 9910 03a4 00000000 		.4byte	.LVL54
 9911 03a8 18000000 		.4byte	.LVL55
 9912 03ac 0100     		.2byte	0x1
 9913 03ae 51       		.byte	0x51
 9914 03af 18000000 		.4byte	.LVL55
 9915 03b3 4A000000 		.4byte	.LFE85
 9916 03b7 0100     		.2byte	0x1
 9917 03b9 56       		.byte	0x56
 9918 03ba 00000000 		.4byte	0
 9919 03be 00000000 		.4byte	0
ARM GAS  C:\Users\164\AppData\Local\Temp\ccuYWdBJ.s 			page 201


 9920              	.LLST27:
 9921 03c2 00000000 		.4byte	.LVL54
 9922 03c6 1D000000 		.4byte	.LVL57-1
 9923 03ca 0100     		.2byte	0x1
 9924 03cc 52       		.byte	0x52
 9925 03cd 1D000000 		.4byte	.LVL57-1
 9926 03d1 4A000000 		.4byte	.LFE85
 9927 03d5 0100     		.2byte	0x1
 9928 03d7 57       		.byte	0x57
 9929 03d8 00000000 		.4byte	0
 9930 03dc 00000000 		.4byte	0
 9931              	.LLST28:
 9932 03e0 00000000 		.4byte	.LVL54
 9933 03e4 1A000000 		.4byte	.LVL56
 9934 03e8 0200     		.2byte	0x2
 9935 03ea 70       		.byte	0x70
 9936 03eb 00       		.sleb128 0
 9937 03ec 1A000000 		.4byte	.LVL56
 9938 03f0 4A000000 		.4byte	.LFE85
 9939 03f4 0200     		.2byte	0x2
 9940 03f6 74       		.byte	0x74
 9941 03f7 00       		.sleb128 0
 9942 03f8 00000000 		.4byte	0
 9943 03fc 00000000 		.4byte	0
 9944              	.LLST29:
 9945 0400 1E000000 		.4byte	.LVL57
 9946 0404 26000000 		.4byte	.LVL58
 9947 0408 0100     		.2byte	0x1
 9948 040a 50       		.byte	0x50
 9949 040b 26000000 		.4byte	.LVL58
 9950 040f 46000000 		.4byte	.LVL63
 9951 0413 0100     		.2byte	0x1
 9952 0415 55       		.byte	0x55
 9953 0416 00000000 		.4byte	0
 9954 041a 00000000 		.4byte	0
 9955              	.LLST30:
 9956 041e 2A000000 		.4byte	.LVL59
 9957 0422 2E000000 		.4byte	.LVL60
 9958 0426 0100     		.2byte	0x1
 9959 0428 50       		.byte	0x50
 9960 0429 34000000 		.4byte	.LVL62
 9961 042d 46000000 		.4byte	.LVL63
 9962 0431 0100     		.2byte	0x1
 9963 0433 50       		.byte	0x50
 9964 0434 00000000 		.4byte	0
 9965 0438 00000000 		.4byte	0
 9966              	.LLST31:
 9967 043c 00000000 		.4byte	.LVL64
 9968 0440 0E000000 		.4byte	.LVL68
 9969 0444 0100     		.2byte	0x1
 9970 0446 50       		.byte	0x50
 9971 0447 0E000000 		.4byte	.LVL68
 9972 044b 11000000 		.4byte	.LVL69-1
 9973 044f 0100     		.2byte	0x1
 9974 0451 51       		.byte	0x51
 9975 0452 11000000 		.4byte	.LVL69-1
 9976 0456 58000000 		.4byte	.LFE115
ARM GAS  C:\Users\164\AppData\Local\Temp\ccuYWdBJ.s 			page 202


 9977 045a 0400     		.2byte	0x4
 9978 045c F3       		.byte	0xf3
 9979 045d 01       		.uleb128 0x1
 9980 045e 50       		.byte	0x50
 9981 045f 9F       		.byte	0x9f
 9982 0460 00000000 		.4byte	0
 9983 0464 00000000 		.4byte	0
 9984              	.LLST32:
 9985 0468 00000000 		.4byte	.LVL64
 9986 046c 0C000000 		.4byte	.LVL67
 9987 0470 0100     		.2byte	0x1
 9988 0472 51       		.byte	0x51
 9989 0473 0C000000 		.4byte	.LVL67
 9990 0477 58000000 		.4byte	.LFE115
 9991 047b 0100     		.2byte	0x1
 9992 047d 56       		.byte	0x56
 9993 047e 00000000 		.4byte	0
 9994 0482 00000000 		.4byte	0
 9995              	.LLST33:
 9996 0486 00000000 		.4byte	.LVL64
 9997 048a 0A000000 		.4byte	.LVL66
 9998 048e 0100     		.2byte	0x1
 9999 0490 52       		.byte	0x52
 10000 0491 0A000000 		.4byte	.LVL66
 10001 0495 58000000 		.4byte	.LFE115
 10002 0499 0400     		.2byte	0x4
 10003 049b F3       		.byte	0xf3
 10004 049c 01       		.uleb128 0x1
 10005 049d 52       		.byte	0x52
 10006 049e 9F       		.byte	0x9f
 10007 049f 00000000 		.4byte	0
 10008 04a3 00000000 		.4byte	0
 10009              	.LLST34:
 10010 04a7 08000000 		.4byte	.LVL65
 10011 04ab 24000000 		.4byte	.LVL71
 10012 04af 0100     		.2byte	0x1
 10013 04b1 55       		.byte	0x55
 10014 04b2 00000000 		.4byte	0
 10015 04b6 00000000 		.4byte	0
 10016              	.LLST35:
 10017 04ba 28000000 		.4byte	.LVL72
 10018 04be 32000000 		.4byte	.LVL74
 10019 04c2 0100     		.2byte	0x1
 10020 04c4 50       		.byte	0x50
 10021 04c5 32000000 		.4byte	.LVL74
 10022 04c9 38000000 		.4byte	.LVL76
 10023 04cd 0100     		.2byte	0x1
 10024 04cf 54       		.byte	0x54
 10025 04d0 38000000 		.4byte	.LVL76
 10026 04d4 42000000 		.4byte	.LVL77
 10027 04d8 0100     		.2byte	0x1
 10028 04da 50       		.byte	0x50
 10029 04db 00000000 		.4byte	0
 10030 04df 00000000 		.4byte	0
 10031              	.LLST36:
 10032 04e3 2C000000 		.4byte	.LVL73
 10033 04e7 54000000 		.4byte	.LVL79
ARM GAS  C:\Users\164\AppData\Local\Temp\ccuYWdBJ.s 			page 203


 10034 04eb 0100     		.2byte	0x1
 10035 04ed 55       		.byte	0x55
 10036 04ee 00000000 		.4byte	0
 10037 04f2 00000000 		.4byte	0
 10038              	.LLST37:
 10039 04f6 00000000 		.4byte	.LVL80
 10040 04fa 12000000 		.4byte	.LVL84
 10041 04fe 0100     		.2byte	0x1
 10042 0500 50       		.byte	0x50
 10043 0501 12000000 		.4byte	.LVL84
 10044 0505 18000000 		.4byte	.LVL86
 10045 0509 0400     		.2byte	0x4
 10046 050b F3       		.byte	0xf3
 10047 050c 01       		.uleb128 0x1
 10048 050d 50       		.byte	0x50
 10049 050e 9F       		.byte	0x9f
 10050 050f 18000000 		.4byte	.LVL86
 10051 0513 28000000 		.4byte	.LVL91
 10052 0517 0100     		.2byte	0x1
 10053 0519 50       		.byte	0x50
 10054 051a 28000000 		.4byte	.LVL91
 10055 051e 2B000000 		.4byte	.LVL92-1
 10056 0522 0100     		.2byte	0x1
 10057 0524 51       		.byte	0x51
 10058 0525 2B000000 		.4byte	.LVL92-1
 10059 0529 98000000 		.4byte	.LFE101
 10060 052d 0400     		.2byte	0x4
 10061 052f F3       		.byte	0xf3
 10062 0530 01       		.uleb128 0x1
 10063 0531 50       		.byte	0x50
 10064 0532 9F       		.byte	0x9f
 10065 0533 00000000 		.4byte	0
 10066 0537 00000000 		.4byte	0
 10067              	.LLST38:
 10068 053b 00000000 		.4byte	.LVL80
 10069 053f 10000000 		.4byte	.LVL83
 10070 0543 0100     		.2byte	0x1
 10071 0545 51       		.byte	0x51
 10072 0546 10000000 		.4byte	.LVL83
 10073 054a 18000000 		.4byte	.LVL86
 10074 054e 0400     		.2byte	0x4
 10075 0550 F3       		.byte	0xf3
 10076 0551 01       		.uleb128 0x1
 10077 0552 51       		.byte	0x51
 10078 0553 9F       		.byte	0x9f
 10079 0554 18000000 		.4byte	.LVL86
 10080 0558 26000000 		.4byte	.LVL90
 10081 055c 0100     		.2byte	0x1
 10082 055e 51       		.byte	0x51
 10083 055f 26000000 		.4byte	.LVL90
 10084 0563 8E000000 		.4byte	.LVL104
 10085 0567 0100     		.2byte	0x1
 10086 0569 56       		.byte	0x56
 10087 056a 8E000000 		.4byte	.LVL104
 10088 056e 98000000 		.4byte	.LFE101
 10089 0572 0400     		.2byte	0x4
 10090 0574 F3       		.byte	0xf3
ARM GAS  C:\Users\164\AppData\Local\Temp\ccuYWdBJ.s 			page 204


 10091 0575 01       		.uleb128 0x1
 10092 0576 51       		.byte	0x51
 10093 0577 9F       		.byte	0x9f
 10094 0578 00000000 		.4byte	0
 10095 057c 00000000 		.4byte	0
 10096              	.LLST39:
 10097 0580 00000000 		.4byte	.LVL80
 10098 0584 0E000000 		.4byte	.LVL82
 10099 0588 0100     		.2byte	0x1
 10100 058a 52       		.byte	0x52
 10101 058b 0E000000 		.4byte	.LVL82
 10102 058f 18000000 		.4byte	.LVL86
 10103 0593 0400     		.2byte	0x4
 10104 0595 F3       		.byte	0xf3
 10105 0596 01       		.uleb128 0x1
 10106 0597 52       		.byte	0x52
 10107 0598 9F       		.byte	0x9f
 10108 0599 18000000 		.4byte	.LVL86
 10109 059d 20000000 		.4byte	.LVL89
 10110 05a1 0100     		.2byte	0x1
 10111 05a3 52       		.byte	0x52
 10112 05a4 20000000 		.4byte	.LVL89
 10113 05a8 98000000 		.4byte	.LFE101
 10114 05ac 0400     		.2byte	0x4
 10115 05ae F3       		.byte	0xf3
 10116 05af 01       		.uleb128 0x1
 10117 05b0 52       		.byte	0x52
 10118 05b1 9F       		.byte	0x9f
 10119 05b2 00000000 		.4byte	0
 10120 05b6 00000000 		.4byte	0
 10121              	.LLST40:
 10122 05ba 1C000000 		.4byte	.LVL87
 10123 05be 50000000 		.4byte	.LVL95
 10124 05c2 0100     		.2byte	0x1
 10125 05c4 55       		.byte	0x55
 10126 05c5 00000000 		.4byte	0
 10127 05c9 00000000 		.4byte	0
 10128              	.LLST41:
 10129 05cd 1E000000 		.4byte	.LVL88
 10130 05d1 8E000000 		.4byte	.LVL104
 10131 05d5 0100     		.2byte	0x1
 10132 05d7 57       		.byte	0x57
 10133 05d8 00000000 		.4byte	0
 10134 05dc 00000000 		.4byte	0
 10135              	.LLST42:
 10136 05e0 5A000000 		.4byte	.LVL96
 10137 05e4 64000000 		.4byte	.LVL98
 10138 05e8 0100     		.2byte	0x1
 10139 05ea 50       		.byte	0x50
 10140 05eb 64000000 		.4byte	.LVL98
 10141 05ef 6A000000 		.4byte	.LVL100
 10142 05f3 0100     		.2byte	0x1
 10143 05f5 54       		.byte	0x54
 10144 05f6 6A000000 		.4byte	.LVL100
 10145 05fa 72000000 		.4byte	.LVL101
 10146 05fe 0100     		.2byte	0x1
 10147 0600 50       		.byte	0x50
ARM GAS  C:\Users\164\AppData\Local\Temp\ccuYWdBJ.s 			page 205


 10148 0601 00000000 		.4byte	0
 10149 0605 00000000 		.4byte	0
 10150              	.LLST43:
 10151 0609 5E000000 		.4byte	.LVL97
 10152 060d 8E000000 		.4byte	.LVL104
 10153 0611 0100     		.2byte	0x1
 10154 0613 55       		.byte	0x55
 10155 0614 00000000 		.4byte	0
 10156 0618 00000000 		.4byte	0
 10157              	.LLST44:
 10158 061c 0C000000 		.4byte	.LVL81
 10159 0620 18000000 		.4byte	.LVL86
 10160 0624 0600     		.2byte	0x6
 10161 0626 03       		.byte	0x3
 10162 0627 0C000000 		.4byte	.LC2
 10163 062b 9F       		.byte	0x9f
 10164 062c 00000000 		.4byte	0
 10165 0630 00000000 		.4byte	0
 10166              	.LLST45:
 10167 0634 00000000 		.4byte	.LVL105
 10168 0638 06000000 		.4byte	.LVL107
 10169 063c 0100     		.2byte	0x1
 10170 063e 50       		.byte	0x50
 10171 063f 06000000 		.4byte	.LVL107
 10172 0643 2A000000 		.4byte	.LFE86
 10173 0647 0400     		.2byte	0x4
 10174 0649 F3       		.byte	0xf3
 10175 064a 01       		.uleb128 0x1
 10176 064b 50       		.byte	0x50
 10177 064c 9F       		.byte	0x9f
 10178 064d 00000000 		.4byte	0
 10179 0651 00000000 		.4byte	0
 10180              	.LLST46:
 10181 0655 06000000 		.4byte	.LVL107
 10182 0659 12000000 		.4byte	.LVL109
 10183 065d 0100     		.2byte	0x1
 10184 065f 50       		.byte	0x50
 10185 0660 12000000 		.4byte	.LVL109
 10186 0664 18000000 		.4byte	.LVL111
 10187 0668 0100     		.2byte	0x1
 10188 066a 54       		.byte	0x54
 10189 066b 18000000 		.4byte	.LVL111
 10190 066f 1E000000 		.4byte	.LVL112
 10191 0673 0100     		.2byte	0x1
 10192 0675 50       		.byte	0x50
 10193 0676 00000000 		.4byte	0
 10194 067a 00000000 		.4byte	0
 10195              	.LLST47:
 10196 067e 00000000 		.4byte	.LVL115
 10197 0682 08000000 		.4byte	.LVL117
 10198 0686 0100     		.2byte	0x1
 10199 0688 50       		.byte	0x50
 10200 0689 08000000 		.4byte	.LVL117
 10201 068d 26000000 		.4byte	.LFE87
 10202 0691 0400     		.2byte	0x4
 10203 0693 F3       		.byte	0xf3
 10204 0694 01       		.uleb128 0x1
ARM GAS  C:\Users\164\AppData\Local\Temp\ccuYWdBJ.s 			page 206


 10205 0695 50       		.byte	0x50
 10206 0696 9F       		.byte	0x9f
 10207 0697 00000000 		.4byte	0
 10208 069b 00000000 		.4byte	0
 10209              	.LLST48:
 10210 069f 04000000 		.4byte	.LVL116
 10211 06a3 16000000 		.4byte	.LVL121
 10212 06a7 0100     		.2byte	0x1
 10213 06a9 54       		.byte	0x54
 10214 06aa 00000000 		.4byte	0
 10215 06ae 00000000 		.4byte	0
 10216              	.LLST49:
 10217 06b2 0E000000 		.4byte	.LVL119
 10218 06b6 1A000000 		.4byte	.LVL122
 10219 06ba 0100     		.2byte	0x1
 10220 06bc 50       		.byte	0x50
 10221 06bd 1A000000 		.4byte	.LVL122
 10222 06c1 20000000 		.4byte	.LVL124
 10223 06c5 0100     		.2byte	0x1
 10224 06c7 54       		.byte	0x54
 10225 06c8 20000000 		.4byte	.LVL124
 10226 06cc 26000000 		.4byte	.LFE87
 10227 06d0 0100     		.2byte	0x1
 10228 06d2 50       		.byte	0x50
 10229 06d3 00000000 		.4byte	0
 10230 06d7 00000000 		.4byte	0
 10231              	.LLST50:
 10232 06db 00000000 		.4byte	.LVL125
 10233 06df 0A000000 		.4byte	.LVL128
 10234 06e3 0100     		.2byte	0x1
 10235 06e5 50       		.byte	0x50
 10236 06e6 0A000000 		.4byte	.LVL128
 10237 06ea 1C000000 		.4byte	.LFE88
 10238 06ee 0400     		.2byte	0x4
 10239 06f0 F3       		.byte	0xf3
 10240 06f1 01       		.uleb128 0x1
 10241 06f2 50       		.byte	0x50
 10242 06f3 9F       		.byte	0x9f
 10243 06f4 00000000 		.4byte	0
 10244 06f8 00000000 		.4byte	0
 10245              	.LLST51:
 10246 06fc 00000000 		.4byte	.LVL125
 10247 0700 08000000 		.4byte	.LVL127
 10248 0704 0100     		.2byte	0x1
 10249 0706 51       		.byte	0x51
 10250 0707 08000000 		.4byte	.LVL127
 10251 070b 1C000000 		.4byte	.LFE88
 10252 070f 0100     		.2byte	0x1
 10253 0711 55       		.byte	0x55
 10254 0712 00000000 		.4byte	0
 10255 0716 00000000 		.4byte	0
 10256              	.LLST52:
 10257 071a 0E000000 		.4byte	.LVL129
 10258 071e 16000000 		.4byte	.LVL130
 10259 0722 0100     		.2byte	0x1
 10260 0724 50       		.byte	0x50
 10261 0725 16000000 		.4byte	.LVL130
ARM GAS  C:\Users\164\AppData\Local\Temp\ccuYWdBJ.s 			page 207


 10262 0729 18000000 		.4byte	.LVL131
 10263 072d 0200     		.2byte	0x2
 10264 072f 74       		.byte	0x74
 10265 0730 08       		.sleb128 8
 10266 0731 18000000 		.4byte	.LVL131
 10267 0735 1A000000 		.4byte	.LVL132
 10268 0739 0100     		.2byte	0x1
 10269 073b 50       		.byte	0x50
 10270 073c 00000000 		.4byte	0
 10271 0740 00000000 		.4byte	0
 10272              	.LLST53:
 10273 0744 00000000 		.4byte	.LVL133
 10274 0748 1B000000 		.4byte	.LVL137-1
 10275 074c 0100     		.2byte	0x1
 10276 074e 50       		.byte	0x50
 10277 074f 1B000000 		.4byte	.LVL137-1
 10278 0753 60000000 		.4byte	.LVL143
 10279 0757 0400     		.2byte	0x4
 10280 0759 F3       		.byte	0xf3
 10281 075a 01       		.uleb128 0x1
 10282 075b 50       		.byte	0x50
 10283 075c 9F       		.byte	0x9f
 10284 075d 60000000 		.4byte	.LVL143
 10285 0761 62000000 		.4byte	.LVL144
 10286 0765 0100     		.2byte	0x1
 10287 0767 50       		.byte	0x50
 10288 0768 62000000 		.4byte	.LVL144
 10289 076c 68000000 		.4byte	.LFE89
 10290 0770 0400     		.2byte	0x4
 10291 0772 F3       		.byte	0xf3
 10292 0773 01       		.uleb128 0x1
 10293 0774 50       		.byte	0x50
 10294 0775 9F       		.byte	0x9f
 10295 0776 00000000 		.4byte	0
 10296 077a 00000000 		.4byte	0
 10297              	.LLST54:
 10298 077e 00000000 		.4byte	.LVL133
 10299 0782 0C000000 		.4byte	.LVL135
 10300 0786 0100     		.2byte	0x1
 10301 0788 51       		.byte	0x51
 10302 0789 0C000000 		.4byte	.LVL135
 10303 078d 0E000000 		.4byte	.LVL136
 10304 0791 0600     		.2byte	0x6
 10305 0793 71       		.byte	0x71
 10306 0794 00       		.sleb128 0
 10307 0795 73       		.byte	0x73
 10308 0796 00       		.sleb128 0
 10309 0797 22       		.byte	0x22
 10310 0798 9F       		.byte	0x9f
 10311 0799 0E000000 		.4byte	.LVL136
 10312 079d 54000000 		.4byte	.LVL142
 10313 07a1 0100     		.2byte	0x1
 10314 07a3 55       		.byte	0x55
 10315 07a4 60000000 		.4byte	.LVL143
 10316 07a8 68000000 		.4byte	.LFE89
 10317 07ac 0100     		.2byte	0x1
 10318 07ae 55       		.byte	0x55
ARM GAS  C:\Users\164\AppData\Local\Temp\ccuYWdBJ.s 			page 208


 10319 07af 00000000 		.4byte	0
 10320 07b3 00000000 		.4byte	0
 10321              	.LLST55:
 10322 07b7 00000000 		.4byte	.LVL133
 10323 07bb 1B000000 		.4byte	.LVL137-1
 10324 07bf 0100     		.2byte	0x1
 10325 07c1 52       		.byte	0x52
 10326 07c2 1B000000 		.4byte	.LVL137-1
 10327 07c6 60000000 		.4byte	.LVL143
 10328 07ca 0100     		.2byte	0x1
 10329 07cc 57       		.byte	0x57
 10330 07cd 60000000 		.4byte	.LVL143
 10331 07d1 64000000 		.4byte	.LVL145
 10332 07d5 0100     		.2byte	0x1
 10333 07d7 52       		.byte	0x52
 10334 07d8 64000000 		.4byte	.LVL145
 10335 07dc 68000000 		.4byte	.LFE89
 10336 07e0 0100     		.2byte	0x1
 10337 07e2 57       		.byte	0x57
 10338 07e3 00000000 		.4byte	0
 10339 07e7 00000000 		.4byte	0
 10340              	.LLST56:
 10341 07eb 30000000 		.4byte	.LVL139
 10342 07ef 4E000000 		.4byte	.LVL141
 10343 07f3 0100     		.2byte	0x1
 10344 07f5 52       		.byte	0x52
 10345 07f6 00000000 		.4byte	0
 10346 07fa 00000000 		.4byte	0
 10347              	.LLST57:
 10348 07fe 00000000 		.4byte	.LVL146
 10349 0802 18000000 		.4byte	.LVL149
 10350 0806 0100     		.2byte	0x1
 10351 0808 50       		.byte	0x50
 10352 0809 18000000 		.4byte	.LVL149
 10353 080d 24000000 		.4byte	.LVL151
 10354 0811 0400     		.2byte	0x4
 10355 0813 F3       		.byte	0xf3
 10356 0814 01       		.uleb128 0x1
 10357 0815 50       		.byte	0x50
 10358 0816 9F       		.byte	0x9f
 10359 0817 24000000 		.4byte	.LVL151
 10360 081b 2A000000 		.4byte	.LVL154
 10361 081f 0100     		.2byte	0x1
 10362 0821 50       		.byte	0x50
 10363 0822 2A000000 		.4byte	.LVL154
 10364 0826 34000000 		.4byte	.LFE103
 10365 082a 0400     		.2byte	0x4
 10366 082c F3       		.byte	0xf3
 10367 082d 01       		.uleb128 0x1
 10368 082e 50       		.byte	0x50
 10369 082f 9F       		.byte	0x9f
 10370 0830 00000000 		.4byte	0
 10371 0834 00000000 		.4byte	0
 10372              	.LLST58:
 10373 0838 00000000 		.4byte	.LVL146
 10374 083c 16000000 		.4byte	.LVL148
 10375 0840 0100     		.2byte	0x1
ARM GAS  C:\Users\164\AppData\Local\Temp\ccuYWdBJ.s 			page 209


 10376 0842 51       		.byte	0x51
 10377 0843 16000000 		.4byte	.LVL148
 10378 0847 24000000 		.4byte	.LVL151
 10379 084b 0100     		.2byte	0x1
 10380 084d 54       		.byte	0x54
 10381 084e 24000000 		.4byte	.LVL151
 10382 0852 28000000 		.4byte	.LVL153
 10383 0856 0100     		.2byte	0x1
 10384 0858 51       		.byte	0x51
 10385 0859 28000000 		.4byte	.LVL153
 10386 085d 34000000 		.4byte	.LFE103
 10387 0861 0400     		.2byte	0x4
 10388 0863 F3       		.byte	0xf3
 10389 0864 01       		.uleb128 0x1
 10390 0865 51       		.byte	0x51
 10391 0866 9F       		.byte	0x9f
 10392 0867 00000000 		.4byte	0
 10393 086b 00000000 		.4byte	0
 10394              	.LLST59:
 10395 086f 00000000 		.4byte	.LVL146
 10396 0873 14000000 		.4byte	.LVL147
 10397 0877 0100     		.2byte	0x1
 10398 0879 52       		.byte	0x52
 10399 087a 14000000 		.4byte	.LVL147
 10400 087e 24000000 		.4byte	.LVL151
 10401 0882 0400     		.2byte	0x4
 10402 0884 F3       		.byte	0xf3
 10403 0885 01       		.uleb128 0x1
 10404 0886 52       		.byte	0x52
 10405 0887 9F       		.byte	0x9f
 10406 0888 24000000 		.4byte	.LVL151
 10407 088c 26000000 		.4byte	.LVL152
 10408 0890 0100     		.2byte	0x1
 10409 0892 52       		.byte	0x52
 10410 0893 26000000 		.4byte	.LVL152
 10411 0897 34000000 		.4byte	.LFE103
 10412 089b 0400     		.2byte	0x4
 10413 089d F3       		.byte	0xf3
 10414 089e 01       		.uleb128 0x1
 10415 089f 52       		.byte	0x52
 10416 08a0 9F       		.byte	0x9f
 10417 08a1 00000000 		.4byte	0
 10418 08a5 00000000 		.4byte	0
 10419              	.LLST60:
 10420 08a9 00000000 		.4byte	.LVL156
 10421 08ad 0C000000 		.4byte	.LVL158
 10422 08b1 0100     		.2byte	0x1
 10423 08b3 50       		.byte	0x50
 10424 08b4 0C000000 		.4byte	.LVL158
 10425 08b8 0F000000 		.4byte	.LVL159-1
 10426 08bc 0100     		.2byte	0x1
 10427 08be 51       		.byte	0x51
 10428 08bf 0F000000 		.4byte	.LVL159-1
 10429 08c3 30000000 		.4byte	.LVL161
 10430 08c7 0400     		.2byte	0x4
 10431 08c9 F3       		.byte	0xf3
 10432 08ca 01       		.uleb128 0x1
ARM GAS  C:\Users\164\AppData\Local\Temp\ccuYWdBJ.s 			page 210


 10433 08cb 50       		.byte	0x50
 10434 08cc 9F       		.byte	0x9f
 10435 08cd 30000000 		.4byte	.LVL161
 10436 08d1 48000000 		.4byte	.LVL164
 10437 08d5 0100     		.2byte	0x1
 10438 08d7 50       		.byte	0x50
 10439 08d8 48000000 		.4byte	.LVL164
 10440 08dc 4B000000 		.4byte	.LVL165-1
 10441 08e0 0100     		.2byte	0x1
 10442 08e2 51       		.byte	0x51
 10443 08e3 4B000000 		.4byte	.LVL165-1
 10444 08e7 8C000000 		.4byte	.LVL168
 10445 08eb 0400     		.2byte	0x4
 10446 08ed F3       		.byte	0xf3
 10447 08ee 01       		.uleb128 0x1
 10448 08ef 50       		.byte	0x50
 10449 08f0 9F       		.byte	0x9f
 10450 08f1 8C000000 		.4byte	.LVL168
 10451 08f5 A2000000 		.4byte	.LVL171
 10452 08f9 0100     		.2byte	0x1
 10453 08fb 50       		.byte	0x50
 10454 08fc A2000000 		.4byte	.LVL171
 10455 0900 A5000000 		.4byte	.LVL172-1
 10456 0904 0100     		.2byte	0x1
 10457 0906 51       		.byte	0x51
 10458 0907 A5000000 		.4byte	.LVL172-1
 10459 090b E4000000 		.4byte	.LVL179
 10460 090f 0400     		.2byte	0x4
 10461 0911 F3       		.byte	0xf3
 10462 0912 01       		.uleb128 0x1
 10463 0913 50       		.byte	0x50
 10464 0914 9F       		.byte	0x9f
 10465 0915 E4000000 		.4byte	.LVL179
 10466 0919 EA000000 		.4byte	.LVL181
 10467 091d 0100     		.2byte	0x1
 10468 091f 50       		.byte	0x50
 10469 0920 EA000000 		.4byte	.LVL181
 10470 0924 F8000000 		.4byte	.LFE100
 10471 0928 0400     		.2byte	0x4
 10472 092a F3       		.byte	0xf3
 10473 092b 01       		.uleb128 0x1
 10474 092c 50       		.byte	0x50
 10475 092d 9F       		.byte	0x9f
 10476 092e 00000000 		.4byte	0
 10477 0932 00000000 		.4byte	0
 10478              	.LLST61:
 10479 0936 00000000 		.4byte	.LVL156
 10480 093a 0A000000 		.4byte	.LVL157
 10481 093e 0100     		.2byte	0x1
 10482 0940 51       		.byte	0x51
 10483 0941 0A000000 		.4byte	.LVL157
 10484 0945 30000000 		.4byte	.LVL161
 10485 0949 0100     		.2byte	0x1
 10486 094b 54       		.byte	0x54
 10487 094c 30000000 		.4byte	.LVL161
 10488 0950 46000000 		.4byte	.LVL163
 10489 0954 0100     		.2byte	0x1
ARM GAS  C:\Users\164\AppData\Local\Temp\ccuYWdBJ.s 			page 211


 10490 0956 51       		.byte	0x51
 10491 0957 46000000 		.4byte	.LVL163
 10492 095b 8C000000 		.4byte	.LVL168
 10493 095f 0100     		.2byte	0x1
 10494 0961 54       		.byte	0x54
 10495 0962 8C000000 		.4byte	.LVL168
 10496 0966 A0000000 		.4byte	.LVL170
 10497 096a 0100     		.2byte	0x1
 10498 096c 51       		.byte	0x51
 10499 096d A0000000 		.4byte	.LVL170
 10500 0971 E4000000 		.4byte	.LVL179
 10501 0975 0100     		.2byte	0x1
 10502 0977 54       		.byte	0x54
 10503 0978 E4000000 		.4byte	.LVL179
 10504 097c E8000000 		.4byte	.LVL180
 10505 0980 0100     		.2byte	0x1
 10506 0982 51       		.byte	0x51
 10507 0983 E8000000 		.4byte	.LVL180
 10508 0987 F2000000 		.4byte	.LVL183
 10509 098b 0100     		.2byte	0x1
 10510 098d 54       		.byte	0x54
 10511 098e F2000000 		.4byte	.LVL183
 10512 0992 F8000000 		.4byte	.LFE100
 10513 0996 0400     		.2byte	0x4
 10514 0998 F3       		.byte	0xf3
 10515 0999 01       		.uleb128 0x1
 10516 099a 51       		.byte	0x51
 10517 099b 9F       		.byte	0x9f
 10518 099c 00000000 		.4byte	0
 10519 09a0 00000000 		.4byte	0
 10520              	.LLST62:
 10521 09a4 00000000 		.4byte	.LVL156
 10522 09a8 0F000000 		.4byte	.LVL159-1
 10523 09ac 0100     		.2byte	0x1
 10524 09ae 52       		.byte	0x52
 10525 09af 0F000000 		.4byte	.LVL159-1
 10526 09b3 30000000 		.4byte	.LVL161
 10527 09b7 0400     		.2byte	0x4
 10528 09b9 F3       		.byte	0xf3
 10529 09ba 01       		.uleb128 0x1
 10530 09bb 52       		.byte	0x52
 10531 09bc 9F       		.byte	0x9f
 10532 09bd 30000000 		.4byte	.LVL161
 10533 09c1 3A000000 		.4byte	.LVL162
 10534 09c5 0100     		.2byte	0x1
 10535 09c7 52       		.byte	0x52
 10536 09c8 3A000000 		.4byte	.LVL162
 10537 09cc 4B000000 		.4byte	.LVL165-1
 10538 09d0 0100     		.2byte	0x1
 10539 09d2 53       		.byte	0x53
 10540 09d3 4B000000 		.4byte	.LVL165-1
 10541 09d7 8C000000 		.4byte	.LVL168
 10542 09db 0400     		.2byte	0x4
 10543 09dd F3       		.byte	0xf3
 10544 09de 01       		.uleb128 0x1
 10545 09df 52       		.byte	0x52
 10546 09e0 9F       		.byte	0x9f
ARM GAS  C:\Users\164\AppData\Local\Temp\ccuYWdBJ.s 			page 212


 10547 09e1 8C000000 		.4byte	.LVL168
 10548 09e5 94000000 		.4byte	.LVL169
 10549 09e9 0100     		.2byte	0x1
 10550 09eb 53       		.byte	0x53
 10551 09ec 94000000 		.4byte	.LVL169
 10552 09f0 F8000000 		.4byte	.LFE100
 10553 09f4 0400     		.2byte	0x4
 10554 09f6 F3       		.byte	0xf3
 10555 09f7 01       		.uleb128 0x1
 10556 09f8 52       		.byte	0x52
 10557 09f9 9F       		.byte	0x9f
 10558 09fa 00000000 		.4byte	0
 10559 09fe 00000000 		.4byte	0
 10560              	.LLST63:
 10561 0a02 AE000000 		.4byte	.LVL173
 10562 0a06 CC000000 		.4byte	.LVL177
 10563 0a0a 0100     		.2byte	0x1
 10564 0a0c 55       		.byte	0x55
 10565 0a0d 00000000 		.4byte	0
 10566 0a11 00000000 		.4byte	0
 10567              	.LLST64:
 10568 0a15 E4000000 		.4byte	.LVL179
 10569 0a19 EE000000 		.4byte	.LVL182
 10570 0a1d 0600     		.2byte	0x6
 10571 0a1f 03       		.byte	0x3
 10572 0a20 3C000000 		.4byte	.LC4
 10573 0a24 9F       		.byte	0x9f
 10574 0a25 00000000 		.4byte	0
 10575 0a29 00000000 		.4byte	0
 10576              	.LLST65:
 10577 0a2d 00000000 		.4byte	.LVL184
 10578 0a31 0C000000 		.4byte	.LVL186
 10579 0a35 0100     		.2byte	0x1
 10580 0a37 51       		.byte	0x51
 10581 0a38 0C000000 		.4byte	.LVL186
 10582 0a3c 3A000000 		.4byte	.LFE90
 10583 0a40 0400     		.2byte	0x4
 10584 0a42 F3       		.byte	0xf3
 10585 0a43 01       		.uleb128 0x1
 10586 0a44 51       		.byte	0x51
 10587 0a45 9F       		.byte	0x9f
 10588 0a46 00000000 		.4byte	0
 10589 0a4a 00000000 		.4byte	0
 10590              	.LLST66:
 10591 0a4e 00000000 		.4byte	.LVL184
 10592 0a52 0E000000 		.4byte	.LVL187
 10593 0a56 0100     		.2byte	0x1
 10594 0a58 52       		.byte	0x52
 10595 0a59 0E000000 		.4byte	.LVL187
 10596 0a5d 2E000000 		.4byte	.LVL191
 10597 0a61 0100     		.2byte	0x1
 10598 0a63 52       		.byte	0x52
 10599 0a64 00000000 		.4byte	0
 10600 0a68 00000000 		.4byte	0
 10601              	.LLST67:
 10602 0a6c 06000000 		.4byte	.LVL185
 10603 0a70 1A000000 		.4byte	.LVL188
ARM GAS  C:\Users\164\AppData\Local\Temp\ccuYWdBJ.s 			page 213


 10604 0a74 0100     		.2byte	0x1
 10605 0a76 53       		.byte	0x53
 10606 0a77 1A000000 		.4byte	.LVL188
 10607 0a7b 28000000 		.4byte	.LVL189
 10608 0a7f 0500     		.2byte	0x5
 10609 0a81 F3       		.byte	0xf3
 10610 0a82 01       		.uleb128 0x1
 10611 0a83 51       		.byte	0x51
 10612 0a84 23       		.byte	0x23
 10613 0a85 08       		.uleb128 0x8
 10614 0a86 28000000 		.4byte	.LVL189
 10615 0a8a 2A000000 		.4byte	.LVL190
 10616 0a8e 0100     		.2byte	0x1
 10617 0a90 53       		.byte	0x53
 10618 0a91 2A000000 		.4byte	.LVL190
 10619 0a95 3A000000 		.4byte	.LFE90
 10620 0a99 0500     		.2byte	0x5
 10621 0a9b F3       		.byte	0xf3
 10622 0a9c 01       		.uleb128 0x1
 10623 0a9d 51       		.byte	0x51
 10624 0a9e 23       		.byte	0x23
 10625 0a9f 08       		.uleb128 0x8
 10626 0aa0 00000000 		.4byte	0
 10627 0aa4 00000000 		.4byte	0
 10628              	.LLST68:
 10629 0aa8 00000000 		.4byte	.LVL194
 10630 0aac 12000000 		.4byte	.LVL197
 10631 0ab0 0100     		.2byte	0x1
 10632 0ab2 50       		.byte	0x50
 10633 0ab3 12000000 		.4byte	.LVL197
 10634 0ab7 15000000 		.4byte	.LVL198-1
 10635 0abb 0100     		.2byte	0x1
 10636 0abd 51       		.byte	0x51
 10637 0abe 15000000 		.4byte	.LVL198-1
 10638 0ac2 98000000 		.4byte	.LVL211
 10639 0ac6 0100     		.2byte	0x1
 10640 0ac8 57       		.byte	0x57
 10641 0ac9 98000000 		.4byte	.LVL211
 10642 0acd A8000000 		.4byte	.LFE119
 10643 0ad1 0400     		.2byte	0x4
 10644 0ad3 F3       		.byte	0xf3
 10645 0ad4 01       		.uleb128 0x1
 10646 0ad5 50       		.byte	0x50
 10647 0ad6 9F       		.byte	0x9f
 10648 0ad7 00000000 		.4byte	0
 10649 0adb 00000000 		.4byte	0
 10650              	.LLST69:
 10651 0adf 00000000 		.4byte	.LVL194
 10652 0ae3 10000000 		.4byte	.LVL196
 10653 0ae7 0100     		.2byte	0x1
 10654 0ae9 51       		.byte	0x51
 10655 0aea 10000000 		.4byte	.LVL196
 10656 0aee 98000000 		.4byte	.LVL211
 10657 0af2 0100     		.2byte	0x1
 10658 0af4 55       		.byte	0x55
 10659 0af5 98000000 		.4byte	.LVL211
 10660 0af9 A8000000 		.4byte	.LFE119
ARM GAS  C:\Users\164\AppData\Local\Temp\ccuYWdBJ.s 			page 214


 10661 0afd 0400     		.2byte	0x4
 10662 0aff F3       		.byte	0xf3
 10663 0b00 01       		.uleb128 0x1
 10664 0b01 51       		.byte	0x51
 10665 0b02 9F       		.byte	0x9f
 10666 0b03 00000000 		.4byte	0
 10667 0b07 00000000 		.4byte	0
 10668              	.LLST70:
 10669 0b0b 00000000 		.4byte	.LVL194
 10670 0b0f 0E000000 		.4byte	.LVL195
 10671 0b13 0100     		.2byte	0x1
 10672 0b15 52       		.byte	0x52
 10673 0b16 0E000000 		.4byte	.LVL195
 10674 0b1a 98000000 		.4byte	.LVL211
 10675 0b1e 0100     		.2byte	0x1
 10676 0b20 58       		.byte	0x58
 10677 0b21 98000000 		.4byte	.LVL211
 10678 0b25 A8000000 		.4byte	.LFE119
 10679 0b29 0400     		.2byte	0x4
 10680 0b2b F3       		.byte	0xf3
 10681 0b2c 01       		.uleb128 0x1
 10682 0b2d 52       		.byte	0x52
 10683 0b2e 9F       		.byte	0x9f
 10684 0b2f 00000000 		.4byte	0
 10685 0b33 00000000 		.4byte	0
 10686              	.LLST71:
 10687 0b37 20000000 		.4byte	.LVL199
 10688 0b3b 70000000 		.4byte	.LVL208
 10689 0b3f 0100     		.2byte	0x1
 10690 0b41 54       		.byte	0x54
 10691 0b42 00000000 		.4byte	0
 10692 0b46 00000000 		.4byte	0
 10693              	.LLST72:
 10694 0b4a 5C000000 		.4byte	.LVL205
 10695 0b4e 60000000 		.4byte	.LVL206
 10696 0b52 0100     		.2byte	0x1
 10697 0b54 55       		.byte	0x55
 10698 0b55 00000000 		.4byte	0
 10699 0b59 00000000 		.4byte	0
 10700              	.LLST73:
 10701 0b5d 00000000 		.4byte	.LVL212
 10702 0b61 0E000000 		.4byte	.LVL214
 10703 0b65 0100     		.2byte	0x1
 10704 0b67 50       		.byte	0x50
 10705 0b68 0E000000 		.4byte	.LVL214
 10706 0b6c 32000000 		.4byte	.LFE110
 10707 0b70 0400     		.2byte	0x4
 10708 0b72 F3       		.byte	0xf3
 10709 0b73 01       		.uleb128 0x1
 10710 0b74 50       		.byte	0x50
 10711 0b75 9F       		.byte	0x9f
 10712 0b76 00000000 		.4byte	0
 10713 0b7a 00000000 		.4byte	0
 10714              	.LLST74:
 10715 0b7e 00000000 		.4byte	.LVL212
 10716 0b82 11000000 		.4byte	.LVL215-1
 10717 0b86 0100     		.2byte	0x1
ARM GAS  C:\Users\164\AppData\Local\Temp\ccuYWdBJ.s 			page 215


 10718 0b88 51       		.byte	0x51
 10719 0b89 11000000 		.4byte	.LVL215-1
 10720 0b8d 32000000 		.4byte	.LFE110
 10721 0b91 0100     		.2byte	0x1
 10722 0b93 56       		.byte	0x56
 10723 0b94 00000000 		.4byte	0
 10724 0b98 00000000 		.4byte	0
 10725              	.LLST75:
 10726 0b9c 00000000 		.4byte	.LVL212
 10727 0ba0 0C000000 		.4byte	.LVL213
 10728 0ba4 0100     		.2byte	0x1
 10729 0ba6 52       		.byte	0x52
 10730 0ba7 0C000000 		.4byte	.LVL213
 10731 0bab 32000000 		.4byte	.LFE110
 10732 0baf 0400     		.2byte	0x4
 10733 0bb1 F3       		.byte	0xf3
 10734 0bb2 01       		.uleb128 0x1
 10735 0bb3 52       		.byte	0x52
 10736 0bb4 9F       		.byte	0x9f
 10737 0bb5 00000000 		.4byte	0
 10738 0bb9 00000000 		.4byte	0
 10739              	.LLST76:
 10740 0bbd 00000000 		.4byte	.LVL218
 10741 0bc1 0C000000 		.4byte	.LVL220
 10742 0bc5 0100     		.2byte	0x1
 10743 0bc7 50       		.byte	0x50
 10744 0bc8 0C000000 		.4byte	.LVL220
 10745 0bcc 30000000 		.4byte	.LFE109
 10746 0bd0 0400     		.2byte	0x4
 10747 0bd2 F3       		.byte	0xf3
 10748 0bd3 01       		.uleb128 0x1
 10749 0bd4 50       		.byte	0x50
 10750 0bd5 9F       		.byte	0x9f
 10751 0bd6 00000000 		.4byte	0
 10752 0bda 00000000 		.4byte	0
 10753              	.LLST77:
 10754 0bde 00000000 		.4byte	.LVL218
 10755 0be2 0F000000 		.4byte	.LVL221-1
 10756 0be6 0100     		.2byte	0x1
 10757 0be8 51       		.byte	0x51
 10758 0be9 0F000000 		.4byte	.LVL221-1
 10759 0bed 30000000 		.4byte	.LFE109
 10760 0bf1 0100     		.2byte	0x1
 10761 0bf3 56       		.byte	0x56
 10762 0bf4 00000000 		.4byte	0
 10763 0bf8 00000000 		.4byte	0
 10764              	.LLST78:
 10765 0bfc 00000000 		.4byte	.LVL218
 10766 0c00 0A000000 		.4byte	.LVL219
 10767 0c04 0100     		.2byte	0x1
 10768 0c06 52       		.byte	0x52
 10769 0c07 0A000000 		.4byte	.LVL219
 10770 0c0b 30000000 		.4byte	.LFE109
 10771 0c0f 0400     		.2byte	0x4
 10772 0c11 F3       		.byte	0xf3
 10773 0c12 01       		.uleb128 0x1
 10774 0c13 52       		.byte	0x52
ARM GAS  C:\Users\164\AppData\Local\Temp\ccuYWdBJ.s 			page 216


 10775 0c14 9F       		.byte	0x9f
 10776 0c15 00000000 		.4byte	0
 10777 0c19 00000000 		.4byte	0
 10778              	.LLST79:
 10779 0c1d 00000000 		.4byte	.LVL224
 10780 0c21 13000000 		.4byte	.LVL229-1
 10781 0c25 0100     		.2byte	0x1
 10782 0c27 50       		.byte	0x50
 10783 0c28 13000000 		.4byte	.LVL229-1
 10784 0c2c 32000000 		.4byte	.LFE91
 10785 0c30 0400     		.2byte	0x4
 10786 0c32 F3       		.byte	0xf3
 10787 0c33 01       		.uleb128 0x1
 10788 0c34 50       		.byte	0x50
 10789 0c35 9F       		.byte	0x9f
 10790 0c36 00000000 		.4byte	0
 10791 0c3a 00000000 		.4byte	0
 10792              	.LLST80:
 10793 0c3e 00000000 		.4byte	.LVL224
 10794 0c42 0A000000 		.4byte	.LVL226
 10795 0c46 0100     		.2byte	0x1
 10796 0c48 51       		.byte	0x51
 10797 0c49 0A000000 		.4byte	.LVL226
 10798 0c4d 32000000 		.4byte	.LFE91
 10799 0c51 0100     		.2byte	0x1
 10800 0c53 56       		.byte	0x56
 10801 0c54 00000000 		.4byte	0
 10802 0c58 00000000 		.4byte	0
 10803              	.LLST81:
 10804 0c5c 0E000000 		.4byte	.LVL227
 10805 0c60 10000000 		.4byte	.LVL228
 10806 0c64 0300     		.2byte	0x3
 10807 0c66 71       		.byte	0x71
 10808 0c67 06       		.sleb128 6
 10809 0c68 9F       		.byte	0x9f
 10810 0c69 10000000 		.4byte	.LVL228
 10811 0c6d 13000000 		.4byte	.LVL229-1
 10812 0c71 0100     		.2byte	0x1
 10813 0c73 51       		.byte	0x51
 10814 0c74 00000000 		.4byte	0
 10815 0c78 00000000 		.4byte	0
 10816              	.LLST82:
 10817 0c7c 00000000 		.4byte	.LVL231
 10818 0c80 08000000 		.4byte	.LVL233
 10819 0c84 0100     		.2byte	0x1
 10820 0c86 50       		.byte	0x50
 10821 0c87 08000000 		.4byte	.LVL233
 10822 0c8b 12000000 		.4byte	.LFE111
 10823 0c8f 0400     		.2byte	0x4
 10824 0c91 F3       		.byte	0xf3
 10825 0c92 01       		.uleb128 0x1
 10826 0c93 50       		.byte	0x50
 10827 0c94 9F       		.byte	0x9f
 10828 0c95 00000000 		.4byte	0
 10829 0c99 00000000 		.4byte	0
 10830              	.LLST83:
 10831 0c9d 00000000 		.4byte	.LVL231
ARM GAS  C:\Users\164\AppData\Local\Temp\ccuYWdBJ.s 			page 217


 10832 0ca1 06000000 		.4byte	.LVL232
 10833 0ca5 0100     		.2byte	0x1
 10834 0ca7 51       		.byte	0x51
 10835 0ca8 06000000 		.4byte	.LVL232
 10836 0cac 12000000 		.4byte	.LFE111
 10837 0cb0 0100     		.2byte	0x1
 10838 0cb2 54       		.byte	0x54
 10839 0cb3 00000000 		.4byte	0
 10840 0cb7 00000000 		.4byte	0
 10841              	.LLST84:
 10842 0cbb 00000000 		.4byte	.LVL231
 10843 0cbf 0B000000 		.4byte	.LVL234-1
 10844 0cc3 0100     		.2byte	0x1
 10845 0cc5 52       		.byte	0x52
 10846 0cc6 0B000000 		.4byte	.LVL234-1
 10847 0cca 12000000 		.4byte	.LFE111
 10848 0cce 0400     		.2byte	0x4
 10849 0cd0 F3       		.byte	0xf3
 10850 0cd1 01       		.uleb128 0x1
 10851 0cd2 52       		.byte	0x52
 10852 0cd3 9F       		.byte	0x9f
 10853 0cd4 00000000 		.4byte	0
 10854 0cd8 00000000 		.4byte	0
 10855              	.LLST85:
 10856 0cdc 00000000 		.4byte	.LVL235
 10857 0ce0 16000000 		.4byte	.LVL237
 10858 0ce4 0100     		.2byte	0x1
 10859 0ce6 50       		.byte	0x50
 10860 0ce7 16000000 		.4byte	.LVL237
 10861 0ceb 3A000000 		.4byte	.LVL241
 10862 0cef 0400     		.2byte	0x4
 10863 0cf1 F3       		.byte	0xf3
 10864 0cf2 01       		.uleb128 0x1
 10865 0cf3 50       		.byte	0x50
 10866 0cf4 9F       		.byte	0x9f
 10867 0cf5 3A000000 		.4byte	.LVL241
 10868 0cf9 72000000 		.4byte	.LVL250
 10869 0cfd 0100     		.2byte	0x1
 10870 0cff 50       		.byte	0x50
 10871 0d00 72000000 		.4byte	.LVL250
 10872 0d04 75000000 		.4byte	.LVL251-1
 10873 0d08 0100     		.2byte	0x1
 10874 0d0a 51       		.byte	0x51
 10875 0d0b 75000000 		.4byte	.LVL251-1
 10876 0d0f B8000000 		.4byte	.LVL259
 10877 0d13 0400     		.2byte	0x4
 10878 0d15 F3       		.byte	0xf3
 10879 0d16 01       		.uleb128 0x1
 10880 0d17 50       		.byte	0x50
 10881 0d18 9F       		.byte	0x9f
 10882 0d19 B8000000 		.4byte	.LVL259
 10883 0d1d BA000000 		.4byte	.LVL260
 10884 0d21 0100     		.2byte	0x1
 10885 0d23 50       		.byte	0x50
 10886 0d24 BA000000 		.4byte	.LVL260
 10887 0d28 C4000000 		.4byte	.LVL262
 10888 0d2c 0400     		.2byte	0x4
ARM GAS  C:\Users\164\AppData\Local\Temp\ccuYWdBJ.s 			page 218


 10889 0d2e F3       		.byte	0xf3
 10890 0d2f 01       		.uleb128 0x1
 10891 0d30 50       		.byte	0x50
 10892 0d31 9F       		.byte	0x9f
 10893 0d32 C4000000 		.4byte	.LVL262
 10894 0d36 CA000000 		.4byte	.LVL265
 10895 0d3a 0100     		.2byte	0x1
 10896 0d3c 50       		.byte	0x50
 10897 0d3d CA000000 		.4byte	.LVL265
 10898 0d41 D8000000 		.4byte	.LFE102
 10899 0d45 0400     		.2byte	0x4
 10900 0d47 F3       		.byte	0xf3
 10901 0d48 01       		.uleb128 0x1
 10902 0d49 50       		.byte	0x50
 10903 0d4a 9F       		.byte	0x9f
 10904 0d4b 00000000 		.4byte	0
 10905 0d4f 00000000 		.4byte	0
 10906              	.LLST86:
 10907 0d53 00000000 		.4byte	.LVL235
 10908 0d57 19000000 		.4byte	.LVL238-1
 10909 0d5b 0100     		.2byte	0x1
 10910 0d5d 51       		.byte	0x51
 10911 0d5e 19000000 		.4byte	.LVL238-1
 10912 0d62 3A000000 		.4byte	.LVL241
 10913 0d66 0100     		.2byte	0x1
 10914 0d68 54       		.byte	0x54
 10915 0d69 3A000000 		.4byte	.LVL241
 10916 0d6d 70000000 		.4byte	.LVL249
 10917 0d71 0100     		.2byte	0x1
 10918 0d73 51       		.byte	0x51
 10919 0d74 70000000 		.4byte	.LVL249
 10920 0d78 B8000000 		.4byte	.LVL259
 10921 0d7c 0100     		.2byte	0x1
 10922 0d7e 54       		.byte	0x54
 10923 0d7f B8000000 		.4byte	.LVL259
 10924 0d83 BD000000 		.4byte	.LVL261-1
 10925 0d87 0100     		.2byte	0x1
 10926 0d89 51       		.byte	0x51
 10927 0d8a BD000000 		.4byte	.LVL261-1
 10928 0d8e C4000000 		.4byte	.LVL262
 10929 0d92 0100     		.2byte	0x1
 10930 0d94 54       		.byte	0x54
 10931 0d95 C4000000 		.4byte	.LVL262
 10932 0d99 C8000000 		.4byte	.LVL264
 10933 0d9d 0100     		.2byte	0x1
 10934 0d9f 51       		.byte	0x51
 10935 0da0 C8000000 		.4byte	.LVL264
 10936 0da4 D2000000 		.4byte	.LVL267
 10937 0da8 0100     		.2byte	0x1
 10938 0daa 54       		.byte	0x54
 10939 0dab D2000000 		.4byte	.LVL267
 10940 0daf D8000000 		.4byte	.LFE102
 10941 0db3 0400     		.2byte	0x4
 10942 0db5 F3       		.byte	0xf3
 10943 0db6 01       		.uleb128 0x1
 10944 0db7 51       		.byte	0x51
 10945 0db8 9F       		.byte	0x9f
ARM GAS  C:\Users\164\AppData\Local\Temp\ccuYWdBJ.s 			page 219


 10946 0db9 00000000 		.4byte	0
 10947 0dbd 00000000 		.4byte	0
 10948              	.LLST87:
 10949 0dc1 00000000 		.4byte	.LVL235
 10950 0dc5 14000000 		.4byte	.LVL236
 10951 0dc9 0100     		.2byte	0x1
 10952 0dcb 52       		.byte	0x52
 10953 0dcc 14000000 		.4byte	.LVL236
 10954 0dd0 3A000000 		.4byte	.LVL241
 10955 0dd4 0400     		.2byte	0x4
 10956 0dd6 F3       		.byte	0xf3
 10957 0dd7 01       		.uleb128 0x1
 10958 0dd8 52       		.byte	0x52
 10959 0dd9 9F       		.byte	0x9f
 10960 0dda 3A000000 		.4byte	.LVL241
 10961 0dde 6E000000 		.4byte	.LVL248
 10962 0de2 0100     		.2byte	0x1
 10963 0de4 52       		.byte	0x52
 10964 0de5 6E000000 		.4byte	.LVL248
 10965 0de9 B8000000 		.4byte	.LVL259
 10966 0ded 0400     		.2byte	0x4
 10967 0def F3       		.byte	0xf3
 10968 0df0 01       		.uleb128 0x1
 10969 0df1 52       		.byte	0x52
 10970 0df2 9F       		.byte	0x9f
 10971 0df3 B8000000 		.4byte	.LVL259
 10972 0df7 BD000000 		.4byte	.LVL261-1
 10973 0dfb 0100     		.2byte	0x1
 10974 0dfd 52       		.byte	0x52
 10975 0dfe BD000000 		.4byte	.LVL261-1
 10976 0e02 C4000000 		.4byte	.LVL262
 10977 0e06 0400     		.2byte	0x4
 10978 0e08 F3       		.byte	0xf3
 10979 0e09 01       		.uleb128 0x1
 10980 0e0a 52       		.byte	0x52
 10981 0e0b 9F       		.byte	0x9f
 10982 0e0c C4000000 		.4byte	.LVL262
 10983 0e10 C6000000 		.4byte	.LVL263
 10984 0e14 0100     		.2byte	0x1
 10985 0e16 52       		.byte	0x52
 10986 0e17 C6000000 		.4byte	.LVL263
 10987 0e1b D8000000 		.4byte	.LFE102
 10988 0e1f 0400     		.2byte	0x4
 10989 0e21 F3       		.byte	0xf3
 10990 0e22 01       		.uleb128 0x1
 10991 0e23 52       		.byte	0x52
 10992 0e24 9F       		.byte	0x9f
 10993 0e25 00000000 		.4byte	0
 10994 0e29 00000000 		.4byte	0
 10995              	.LLST88:
 10996 0e2d 54000000 		.4byte	.LVL244
 10997 0e31 62000000 		.4byte	.LVL246
 10998 0e35 0100     		.2byte	0x1
 10999 0e37 53       		.byte	0x53
 11000 0e38 00000000 		.4byte	0
 11001 0e3c 00000000 		.4byte	0
 11002              	.LLST89:
ARM GAS  C:\Users\164\AppData\Local\Temp\ccuYWdBJ.s 			page 220


 11003 0e40 68000000 		.4byte	.LVL247
 11004 0e44 B8000000 		.4byte	.LVL259
 11005 0e48 0100     		.2byte	0x1
 11006 0e4a 56       		.byte	0x56
 11007 0e4b 00000000 		.4byte	0
 11008 0e4f 00000000 		.4byte	0
 11009              	.LLST90:
 11010 0e53 7E000000 		.4byte	.LVL252
 11011 0e57 A0000000 		.4byte	.LVL257
 11012 0e5b 0100     		.2byte	0x1
 11013 0e5d 55       		.byte	0x55
 11014 0e5e 00000000 		.4byte	0
 11015 0e62 00000000 		.4byte	0
 11016              	.LLST91:
 11017 0e66 4E000000 		.4byte	.LVL242
 11018 0e6a 52000000 		.4byte	.LVL243
 11019 0e6e 0100     		.2byte	0x1
 11020 0e70 51       		.byte	0x51
 11021 0e71 00000000 		.4byte	0
 11022 0e75 00000000 		.4byte	0
 11023              	.LLST92:
 11024 0e79 C4000000 		.4byte	.LVL262
 11025 0e7d CE000000 		.4byte	.LVL266
 11026 0e81 0600     		.2byte	0x6
 11027 0e83 03       		.byte	0x3
 11028 0e84 18000000 		.4byte	.LC3
 11029 0e88 9F       		.byte	0x9f
 11030 0e89 00000000 		.4byte	0
 11031 0e8d 00000000 		.4byte	0
 11032              	.LLST93:
 11033 0e91 00000000 		.4byte	.LVL268
 11034 0e95 06000000 		.4byte	.LVL269
 11035 0e99 0100     		.2byte	0x1
 11036 0e9b 51       		.byte	0x51
 11037 0e9c 06000000 		.4byte	.LVL269
 11038 0ea0 30000000 		.4byte	.LFE92
 11039 0ea4 0400     		.2byte	0x4
 11040 0ea6 F3       		.byte	0xf3
 11041 0ea7 01       		.uleb128 0x1
 11042 0ea8 51       		.byte	0x51
 11043 0ea9 9F       		.byte	0x9f
 11044 0eaa 00000000 		.4byte	0
 11045 0eae 00000000 		.4byte	0
 11046              	.LLST94:
 11047 0eb2 06000000 		.4byte	.LVL269
 11048 0eb6 26000000 		.4byte	.LVL270
 11049 0eba 0100     		.2byte	0x1
 11050 0ebc 51       		.byte	0x51
 11051 0ebd 00000000 		.4byte	0
 11052 0ec1 00000000 		.4byte	0
 11053              	.LLST95:
 11054 0ec5 00000000 		.4byte	.LVL272
 11055 0ec9 0A000000 		.4byte	.LVL273
 11056 0ecd 0100     		.2byte	0x1
 11057 0ecf 50       		.byte	0x50
 11058 0ed0 0A000000 		.4byte	.LVL273
 11059 0ed4 28000000 		.4byte	.LVL276
ARM GAS  C:\Users\164\AppData\Local\Temp\ccuYWdBJ.s 			page 221


 11060 0ed8 0400     		.2byte	0x4
 11061 0eda F3       		.byte	0xf3
 11062 0edb 01       		.uleb128 0x1
 11063 0edc 50       		.byte	0x50
 11064 0edd 9F       		.byte	0x9f
 11065 0ede 28000000 		.4byte	.LVL276
 11066 0ee2 2E000000 		.4byte	.LVL279
 11067 0ee6 0100     		.2byte	0x1
 11068 0ee8 50       		.byte	0x50
 11069 0ee9 2E000000 		.4byte	.LVL279
 11070 0eed 3C000000 		.4byte	.LFE112
 11071 0ef1 0400     		.2byte	0x4
 11072 0ef3 F3       		.byte	0xf3
 11073 0ef4 01       		.uleb128 0x1
 11074 0ef5 50       		.byte	0x50
 11075 0ef6 9F       		.byte	0x9f
 11076 0ef7 00000000 		.4byte	0
 11077 0efb 00000000 		.4byte	0
 11078              	.LLST96:
 11079 0eff 00000000 		.4byte	.LVL272
 11080 0f03 0D000000 		.4byte	.LVL274-1
 11081 0f07 0100     		.2byte	0x1
 11082 0f09 51       		.byte	0x51
 11083 0f0a 0D000000 		.4byte	.LVL274-1
 11084 0f0e 28000000 		.4byte	.LVL276
 11085 0f12 0100     		.2byte	0x1
 11086 0f14 55       		.byte	0x55
 11087 0f15 28000000 		.4byte	.LVL276
 11088 0f19 2C000000 		.4byte	.LVL278
 11089 0f1d 0100     		.2byte	0x1
 11090 0f1f 51       		.byte	0x51
 11091 0f20 2C000000 		.4byte	.LVL278
 11092 0f24 3C000000 		.4byte	.LFE112
 11093 0f28 0400     		.2byte	0x4
 11094 0f2a F3       		.byte	0xf3
 11095 0f2b 01       		.uleb128 0x1
 11096 0f2c 51       		.byte	0x51
 11097 0f2d 9F       		.byte	0x9f
 11098 0f2e 00000000 		.4byte	0
 11099 0f32 00000000 		.4byte	0
 11100              	.LLST97:
 11101 0f36 00000000 		.4byte	.LVL272
 11102 0f3a 0D000000 		.4byte	.LVL274-1
 11103 0f3e 0100     		.2byte	0x1
 11104 0f40 52       		.byte	0x52
 11105 0f41 0D000000 		.4byte	.LVL274-1
 11106 0f45 28000000 		.4byte	.LVL276
 11107 0f49 0400     		.2byte	0x4
 11108 0f4b F3       		.byte	0xf3
 11109 0f4c 01       		.uleb128 0x1
 11110 0f4d 52       		.byte	0x52
 11111 0f4e 9F       		.byte	0x9f
 11112 0f4f 28000000 		.4byte	.LVL276
 11113 0f53 2A000000 		.4byte	.LVL277
 11114 0f57 0100     		.2byte	0x1
 11115 0f59 52       		.byte	0x52
 11116 0f5a 2A000000 		.4byte	.LVL277
ARM GAS  C:\Users\164\AppData\Local\Temp\ccuYWdBJ.s 			page 222


 11117 0f5e 3C000000 		.4byte	.LFE112
 11118 0f62 0400     		.2byte	0x4
 11119 0f64 F3       		.byte	0xf3
 11120 0f65 01       		.uleb128 0x1
 11121 0f66 52       		.byte	0x52
 11122 0f67 9F       		.byte	0x9f
 11123 0f68 00000000 		.4byte	0
 11124 0f6c 00000000 		.4byte	0
 11125              	.LLST98:
 11126 0f70 28000000 		.4byte	.LVL276
 11127 0f74 32000000 		.4byte	.LVL280
 11128 0f78 0600     		.2byte	0x6
 11129 0f7a 03       		.byte	0x3
 11130 0f7b 60000000 		.4byte	.LC9
 11131 0f7f 9F       		.byte	0x9f
 11132 0f80 00000000 		.4byte	0
 11133 0f84 00000000 		.4byte	0
 11134              	.LLST99:
 11135 0f88 00000000 		.4byte	.LVL281
 11136 0f8c 24000000 		.4byte	.LVL283
 11137 0f90 0100     		.2byte	0x1
 11138 0f92 51       		.byte	0x51
 11139 0f93 24000000 		.4byte	.LVL283
 11140 0f97 48000000 		.4byte	.LFE94
 11141 0f9b 0400     		.2byte	0x4
 11142 0f9d F3       		.byte	0xf3
 11143 0f9e 01       		.uleb128 0x1
 11144 0f9f 51       		.byte	0x51
 11145 0fa0 9F       		.byte	0x9f
 11146 0fa1 00000000 		.4byte	0
 11147 0fa5 00000000 		.4byte	0
 11148              	.LLST100:
 11149 0fa9 00000000 		.4byte	.LVL285
 11150 0fad 0A000000 		.4byte	.LVL286
 11151 0fb1 0100     		.2byte	0x1
 11152 0fb3 50       		.byte	0x50
 11153 0fb4 0A000000 		.4byte	.LVL286
 11154 0fb8 28000000 		.4byte	.LVL289
 11155 0fbc 0400     		.2byte	0x4
 11156 0fbe F3       		.byte	0xf3
 11157 0fbf 01       		.uleb128 0x1
 11158 0fc0 50       		.byte	0x50
 11159 0fc1 9F       		.byte	0x9f
 11160 0fc2 28000000 		.4byte	.LVL289
 11161 0fc6 2E000000 		.4byte	.LVL292
 11162 0fca 0100     		.2byte	0x1
 11163 0fcc 50       		.byte	0x50
 11164 0fcd 2E000000 		.4byte	.LVL292
 11165 0fd1 3C000000 		.4byte	.LFE114
 11166 0fd5 0400     		.2byte	0x4
 11167 0fd7 F3       		.byte	0xf3
 11168 0fd8 01       		.uleb128 0x1
 11169 0fd9 50       		.byte	0x50
 11170 0fda 9F       		.byte	0x9f
 11171 0fdb 00000000 		.4byte	0
 11172 0fdf 00000000 		.4byte	0
 11173              	.LLST101:
ARM GAS  C:\Users\164\AppData\Local\Temp\ccuYWdBJ.s 			page 223


 11174 0fe3 00000000 		.4byte	.LVL285
 11175 0fe7 0D000000 		.4byte	.LVL287-1
 11176 0feb 0100     		.2byte	0x1
 11177 0fed 51       		.byte	0x51
 11178 0fee 0D000000 		.4byte	.LVL287-1
 11179 0ff2 28000000 		.4byte	.LVL289
 11180 0ff6 0100     		.2byte	0x1
 11181 0ff8 55       		.byte	0x55
 11182 0ff9 28000000 		.4byte	.LVL289
 11183 0ffd 2C000000 		.4byte	.LVL291
 11184 1001 0100     		.2byte	0x1
 11185 1003 51       		.byte	0x51
 11186 1004 2C000000 		.4byte	.LVL291
 11187 1008 3C000000 		.4byte	.LFE114
 11188 100c 0400     		.2byte	0x4
 11189 100e F3       		.byte	0xf3
 11190 100f 01       		.uleb128 0x1
 11191 1010 51       		.byte	0x51
 11192 1011 9F       		.byte	0x9f
 11193 1012 00000000 		.4byte	0
 11194 1016 00000000 		.4byte	0
 11195              	.LLST102:
 11196 101a 00000000 		.4byte	.LVL285
 11197 101e 0D000000 		.4byte	.LVL287-1
 11198 1022 0100     		.2byte	0x1
 11199 1024 52       		.byte	0x52
 11200 1025 0D000000 		.4byte	.LVL287-1
 11201 1029 28000000 		.4byte	.LVL289
 11202 102d 0400     		.2byte	0x4
 11203 102f F3       		.byte	0xf3
 11204 1030 01       		.uleb128 0x1
 11205 1031 52       		.byte	0x52
 11206 1032 9F       		.byte	0x9f
 11207 1033 28000000 		.4byte	.LVL289
 11208 1037 2A000000 		.4byte	.LVL290
 11209 103b 0100     		.2byte	0x1
 11210 103d 52       		.byte	0x52
 11211 103e 2A000000 		.4byte	.LVL290
 11212 1042 3C000000 		.4byte	.LFE114
 11213 1046 0400     		.2byte	0x4
 11214 1048 F3       		.byte	0xf3
 11215 1049 01       		.uleb128 0x1
 11216 104a 52       		.byte	0x52
 11217 104b 9F       		.byte	0x9f
 11218 104c 00000000 		.4byte	0
 11219 1050 00000000 		.4byte	0
 11220              	.LLST103:
 11221 1054 28000000 		.4byte	.LVL289
 11222 1058 32000000 		.4byte	.LVL293
 11223 105c 0600     		.2byte	0x6
 11224 105e 03       		.byte	0x3
 11225 105f 88000000 		.4byte	.LC10
 11226 1063 9F       		.byte	0x9f
 11227 1064 00000000 		.4byte	0
 11228 1068 00000000 		.4byte	0
 11229              	.LLST104:
 11230 106c 00000000 		.4byte	.LVL294
ARM GAS  C:\Users\164\AppData\Local\Temp\ccuYWdBJ.s 			page 224


 11231 1070 2D000000 		.4byte	.LVL304-1
 11232 1074 0100     		.2byte	0x1
 11233 1076 50       		.byte	0x50
 11234 1077 2D000000 		.4byte	.LVL304-1
 11235 107b 8A000000 		.4byte	.LVL309
 11236 107f 0400     		.2byte	0x4
 11237 1081 F3       		.byte	0xf3
 11238 1082 01       		.uleb128 0x1
 11239 1083 50       		.byte	0x50
 11240 1084 9F       		.byte	0x9f
 11241 1085 8A000000 		.4byte	.LVL309
 11242 1089 8C000000 		.4byte	.LVL310
 11243 108d 0100     		.2byte	0x1
 11244 108f 50       		.byte	0x50
 11245 1090 8C000000 		.4byte	.LVL310
 11246 1094 96000000 		.4byte	.LFE95
 11247 1098 0400     		.2byte	0x4
 11248 109a F3       		.byte	0xf3
 11249 109b 01       		.uleb128 0x1
 11250 109c 50       		.byte	0x50
 11251 109d 9F       		.byte	0x9f
 11252 109e 00000000 		.4byte	0
 11253 10a2 00000000 		.4byte	0
 11254              	.LLST105:
 11255 10a6 00000000 		.4byte	.LVL294
 11256 10aa 0E000000 		.4byte	.LVL296
 11257 10ae 0100     		.2byte	0x1
 11258 10b0 51       		.byte	0x51
 11259 10b1 0E000000 		.4byte	.LVL296
 11260 10b5 10000000 		.4byte	.LVL297
 11261 10b9 0300     		.2byte	0x3
 11262 10bb 74       		.byte	0x74
 11263 10bc 01       		.sleb128 1
 11264 10bd 9F       		.byte	0x9f
 11265 10be 10000000 		.4byte	.LVL297
 11266 10c2 84000000 		.4byte	.LVL308
 11267 10c6 0100     		.2byte	0x1
 11268 10c8 54       		.byte	0x54
 11269 10c9 84000000 		.4byte	.LVL308
 11270 10cd 8A000000 		.4byte	.LVL309
 11271 10d1 0300     		.2byte	0x3
 11272 10d3 74       		.byte	0x74
 11273 10d4 7F       		.sleb128 -1
 11274 10d5 9F       		.byte	0x9f
 11275 10d6 8A000000 		.4byte	.LVL309
 11276 10da 96000000 		.4byte	.LFE95
 11277 10de 0100     		.2byte	0x1
 11278 10e0 54       		.byte	0x54
 11279 10e1 00000000 		.4byte	0
 11280 10e5 00000000 		.4byte	0
 11281              	.LLST106:
 11282 10e9 00000000 		.4byte	.LVL294
 11283 10ed 2D000000 		.4byte	.LVL304-1
 11284 10f1 0100     		.2byte	0x1
 11285 10f3 52       		.byte	0x52
 11286 10f4 2D000000 		.4byte	.LVL304-1
 11287 10f8 8A000000 		.4byte	.LVL309
ARM GAS  C:\Users\164\AppData\Local\Temp\ccuYWdBJ.s 			page 225


 11288 10fc 0100     		.2byte	0x1
 11289 10fe 57       		.byte	0x57
 11290 10ff 8A000000 		.4byte	.LVL309
 11291 1103 8E000000 		.4byte	.LVL311
 11292 1107 0100     		.2byte	0x1
 11293 1109 52       		.byte	0x52
 11294 110a 8E000000 		.4byte	.LVL311
 11295 110e 96000000 		.4byte	.LFE95
 11296 1112 0100     		.2byte	0x1
 11297 1114 57       		.byte	0x57
 11298 1115 00000000 		.4byte	0
 11299 1119 00000000 		.4byte	0
 11300              	.LLST107:
 11301 111d 12000000 		.4byte	.LVL298
 11302 1121 1A000000 		.4byte	.LVL299
 11303 1125 0200     		.2byte	0x2
 11304 1127 30       		.byte	0x30
 11305 1128 9F       		.byte	0x9f
 11306 1129 1A000000 		.4byte	.LVL299
 11307 112d 1C000000 		.4byte	.LVL300
 11308 1131 0100     		.2byte	0x1
 11309 1133 51       		.byte	0x51
 11310 1134 1C000000 		.4byte	.LVL300
 11311 1138 24000000 		.4byte	.LVL301
 11312 113c 0200     		.2byte	0x2
 11313 113e 30       		.byte	0x30
 11314 113f 9F       		.byte	0x9f
 11315 1140 24000000 		.4byte	.LVL301
 11316 1144 26000000 		.4byte	.LVL302
 11317 1148 0100     		.2byte	0x1
 11318 114a 51       		.byte	0x51
 11319 114b 26000000 		.4byte	.LVL302
 11320 114f 28000000 		.4byte	.LVL303
 11321 1153 0200     		.2byte	0x2
 11322 1155 30       		.byte	0x30
 11323 1156 9F       		.byte	0x9f
 11324 1157 28000000 		.4byte	.LVL303
 11325 115b 2D000000 		.4byte	.LVL304-1
 11326 115f 0100     		.2byte	0x1
 11327 1161 51       		.byte	0x51
 11328 1162 00000000 		.4byte	0
 11329 1166 00000000 		.4byte	0
 11330              	.LLST108:
 11331 116a 66000000 		.4byte	.LVL306
 11332 116e 8A000000 		.4byte	.LVL309
 11333 1172 0100     		.2byte	0x1
 11334 1174 53       		.byte	0x53
 11335 1175 00000000 		.4byte	0
 11336 1179 00000000 		.4byte	0
 11337              	.LLST109:
 11338 117d 00000000 		.4byte	.LVL313
 11339 1181 09000000 		.4byte	.LVL315-1
 11340 1185 0100     		.2byte	0x1
 11341 1187 50       		.byte	0x50
 11342 1188 09000000 		.4byte	.LVL315-1
 11343 118c 0C000000 		.4byte	.LFE93
 11344 1190 0400     		.2byte	0x4
ARM GAS  C:\Users\164\AppData\Local\Temp\ccuYWdBJ.s 			page 226


 11345 1192 F3       		.byte	0xf3
 11346 1193 01       		.uleb128 0x1
 11347 1194 50       		.byte	0x50
 11348 1195 9F       		.byte	0x9f
 11349 1196 00000000 		.4byte	0
 11350 119a 00000000 		.4byte	0
 11351              	.LLST110:
 11352 119e 00000000 		.4byte	.LVL313
 11353 11a2 06000000 		.4byte	.LVL314
 11354 11a6 0100     		.2byte	0x1
 11355 11a8 51       		.byte	0x51
 11356 11a9 06000000 		.4byte	.LVL314
 11357 11ad 09000000 		.4byte	.LVL315-1
 11358 11b1 0100     		.2byte	0x1
 11359 11b3 52       		.byte	0x52
 11360 11b4 09000000 		.4byte	.LVL315-1
 11361 11b8 0C000000 		.4byte	.LFE93
 11362 11bc 0400     		.2byte	0x4
 11363 11be F3       		.byte	0xf3
 11364 11bf 01       		.uleb128 0x1
 11365 11c0 51       		.byte	0x51
 11366 11c1 9F       		.byte	0x9f
 11367 11c2 00000000 		.4byte	0
 11368 11c6 00000000 		.4byte	0
 11369              	.LLST111:
 11370 11ca 00000000 		.4byte	.LVL316
 11371 11ce 08000000 		.4byte	.LVL318
 11372 11d2 0100     		.2byte	0x1
 11373 11d4 50       		.byte	0x50
 11374 11d5 08000000 		.4byte	.LVL318
 11375 11d9 12000000 		.4byte	.LFE113
 11376 11dd 0400     		.2byte	0x4
 11377 11df F3       		.byte	0xf3
 11378 11e0 01       		.uleb128 0x1
 11379 11e1 50       		.byte	0x50
 11380 11e2 9F       		.byte	0x9f
 11381 11e3 00000000 		.4byte	0
 11382 11e7 00000000 		.4byte	0
 11383              	.LLST112:
 11384 11eb 00000000 		.4byte	.LVL316
 11385 11ef 06000000 		.4byte	.LVL317
 11386 11f3 0100     		.2byte	0x1
 11387 11f5 51       		.byte	0x51
 11388 11f6 06000000 		.4byte	.LVL317
 11389 11fa 12000000 		.4byte	.LFE113
 11390 11fe 0100     		.2byte	0x1
 11391 1200 54       		.byte	0x54
 11392 1201 00000000 		.4byte	0
 11393 1205 00000000 		.4byte	0
 11394              	.LLST113:
 11395 1209 00000000 		.4byte	.LVL316
 11396 120d 0B000000 		.4byte	.LVL319-1
 11397 1211 0100     		.2byte	0x1
 11398 1213 52       		.byte	0x52
 11399 1214 0B000000 		.4byte	.LVL319-1
 11400 1218 12000000 		.4byte	.LFE113
 11401 121c 0400     		.2byte	0x4
ARM GAS  C:\Users\164\AppData\Local\Temp\ccuYWdBJ.s 			page 227


 11402 121e F3       		.byte	0xf3
 11403 121f 01       		.uleb128 0x1
 11404 1220 52       		.byte	0x52
 11405 1221 9F       		.byte	0x9f
 11406 1222 00000000 		.4byte	0
 11407 1226 00000000 		.4byte	0
 11408              	.LLST114:
 11409 122a 00000000 		.4byte	.LVL320
 11410 122e 38000000 		.4byte	.LVL323
 11411 1232 0100     		.2byte	0x1
 11412 1234 51       		.byte	0x51
 11413 1235 38000000 		.4byte	.LVL323
 11414 1239 6C000000 		.4byte	.LFE96
 11415 123d 0400     		.2byte	0x4
 11416 123f F3       		.byte	0xf3
 11417 1240 01       		.uleb128 0x1
 11418 1241 51       		.byte	0x51
 11419 1242 9F       		.byte	0x9f
 11420 1243 00000000 		.4byte	0
 11421 1247 00000000 		.4byte	0
 11422              	.LLST115:
 11423 124b 00000000 		.4byte	.LVL320
 11424 124f 12000000 		.4byte	.LVL322
 11425 1253 0100     		.2byte	0x1
 11426 1255 52       		.byte	0x52
 11427 1256 12000000 		.4byte	.LVL322
 11428 125a 6C000000 		.4byte	.LFE96
 11429 125e 0100     		.2byte	0x1
 11430 1260 56       		.byte	0x56
 11431 1261 00000000 		.4byte	0
 11432 1265 00000000 		.4byte	0
 11433              	.LLST116:
 11434 1269 00000000 		.4byte	.LVL325
 11435 126d 0C000000 		.4byte	.LVL327
 11436 1271 0100     		.2byte	0x1
 11437 1273 50       		.byte	0x50
 11438 1274 0C000000 		.4byte	.LVL327
 11439 1278 2A000000 		.4byte	.LFE105
 11440 127c 0400     		.2byte	0x4
 11441 127e F3       		.byte	0xf3
 11442 127f 01       		.uleb128 0x1
 11443 1280 50       		.byte	0x50
 11444 1281 9F       		.byte	0x9f
 11445 1282 00000000 		.4byte	0
 11446 1286 00000000 		.4byte	0
 11447              	.LLST117:
 11448 128a 00000000 		.4byte	.LVL325
 11449 128e 0F000000 		.4byte	.LVL328-1
 11450 1292 0100     		.2byte	0x1
 11451 1294 51       		.byte	0x51
 11452 1295 0F000000 		.4byte	.LVL328-1
 11453 1299 2A000000 		.4byte	.LFE105
 11454 129d 0100     		.2byte	0x1
 11455 129f 55       		.byte	0x55
 11456 12a0 00000000 		.4byte	0
 11457 12a4 00000000 		.4byte	0
 11458              	.LLST118:
ARM GAS  C:\Users\164\AppData\Local\Temp\ccuYWdBJ.s 			page 228


 11459 12a8 00000000 		.4byte	.LVL325
 11460 12ac 0A000000 		.4byte	.LVL326
 11461 12b0 0100     		.2byte	0x1
 11462 12b2 52       		.byte	0x52
 11463 12b3 0A000000 		.4byte	.LVL326
 11464 12b7 2A000000 		.4byte	.LFE105
 11465 12bb 0400     		.2byte	0x4
 11466 12bd F3       		.byte	0xf3
 11467 12be 01       		.uleb128 0x1
 11468 12bf 52       		.byte	0x52
 11469 12c0 9F       		.byte	0x9f
 11470 12c1 00000000 		.4byte	0
 11471 12c5 00000000 		.4byte	0
 11472              	.LLST119:
 11473 12c9 00000000 		.4byte	.LVL330
 11474 12cd 06000000 		.4byte	.LVL332
 11475 12d1 0100     		.2byte	0x1
 11476 12d3 50       		.byte	0x50
 11477 12d4 06000000 		.4byte	.LVL332
 11478 12d8 22000000 		.4byte	.LFE97
 11479 12dc 0400     		.2byte	0x4
 11480 12de F3       		.byte	0xf3
 11481 12df 01       		.uleb128 0x1
 11482 12e0 50       		.byte	0x50
 11483 12e1 9F       		.byte	0x9f
 11484 12e2 00000000 		.4byte	0
 11485 12e6 00000000 		.4byte	0
 11486              	.LLST120:
 11487 12ea 06000000 		.4byte	.LVL332
 11488 12ee 12000000 		.4byte	.LVL334
 11489 12f2 0100     		.2byte	0x1
 11490 12f4 50       		.byte	0x50
 11491 12f5 12000000 		.4byte	.LVL334
 11492 12f9 18000000 		.4byte	.LVL336
 11493 12fd 0100     		.2byte	0x1
 11494 12ff 54       		.byte	0x54
 11495 1300 18000000 		.4byte	.LVL336
 11496 1304 22000000 		.4byte	.LFE97
 11497 1308 0100     		.2byte	0x1
 11498 130a 50       		.byte	0x50
 11499 130b 00000000 		.4byte	0
 11500 130f 00000000 		.4byte	0
 11501              	.LLST121:
 11502 1313 00000000 		.4byte	.LVL337
 11503 1317 04000000 		.4byte	.LVL338
 11504 131b 0100     		.2byte	0x1
 11505 131d 50       		.byte	0x50
 11506 131e 04000000 		.4byte	.LVL338
 11507 1322 0A000000 		.4byte	.LFE104
 11508 1326 0400     		.2byte	0x4
 11509 1328 F3       		.byte	0xf3
 11510 1329 01       		.uleb128 0x1
 11511 132a 50       		.byte	0x50
 11512 132b 9F       		.byte	0x9f
 11513 132c 00000000 		.4byte	0
 11514 1330 00000000 		.4byte	0
 11515              	.LLST122:
ARM GAS  C:\Users\164\AppData\Local\Temp\ccuYWdBJ.s 			page 229


 11516 1334 00000000 		.4byte	.LVL337
 11517 1338 07000000 		.4byte	.LVL339-1
 11518 133c 0100     		.2byte	0x1
 11519 133e 51       		.byte	0x51
 11520 133f 07000000 		.4byte	.LVL339-1
 11521 1343 0A000000 		.4byte	.LFE104
 11522 1347 0400     		.2byte	0x4
 11523 1349 F3       		.byte	0xf3
 11524 134a 01       		.uleb128 0x1
 11525 134b 51       		.byte	0x51
 11526 134c 9F       		.byte	0x9f
 11527 134d 00000000 		.4byte	0
 11528 1351 00000000 		.4byte	0
 11529              	.LLST123:
 11530 1355 00000000 		.4byte	.LVL337
 11531 1359 07000000 		.4byte	.LVL339-1
 11532 135d 0100     		.2byte	0x1
 11533 135f 52       		.byte	0x52
 11534 1360 07000000 		.4byte	.LVL339-1
 11535 1364 0A000000 		.4byte	.LFE104
 11536 1368 0400     		.2byte	0x4
 11537 136a F3       		.byte	0xf3
 11538 136b 01       		.uleb128 0x1
 11539 136c 52       		.byte	0x52
 11540 136d 9F       		.byte	0x9f
 11541 136e 00000000 		.4byte	0
 11542 1372 00000000 		.4byte	0
 11543              	.LLST124:
 11544 1376 00000000 		.4byte	.LVL340
 11545 137a 08000000 		.4byte	.LVL342
 11546 137e 0100     		.2byte	0x1
 11547 1380 50       		.byte	0x50
 11548 1381 08000000 		.4byte	.LVL342
 11549 1385 36000000 		.4byte	.LFE98
 11550 1389 0100     		.2byte	0x1
 11551 138b 56       		.byte	0x56
 11552 138c 00000000 		.4byte	0
 11553 1390 00000000 		.4byte	0
 11554              	.LLST125:
 11555 1394 00000000 		.4byte	.LVL340
 11556 1398 08000000 		.4byte	.LVL342
 11557 139c 0100     		.2byte	0x1
 11558 139e 51       		.byte	0x51
 11559 139f 08000000 		.4byte	.LVL342
 11560 13a3 36000000 		.4byte	.LFE98
 11561 13a7 0100     		.2byte	0x1
 11562 13a9 55       		.byte	0x55
 11563 13aa 00000000 		.4byte	0
 11564 13ae 00000000 		.4byte	0
 11565              	.LLST126:
 11566 13b2 06000000 		.4byte	.LVL341
 11567 13b6 08000000 		.4byte	.LVL342
 11568 13ba 0200     		.2byte	0x2
 11569 13bc 30       		.byte	0x30
 11570 13bd 9F       		.byte	0x9f
 11571 13be 08000000 		.4byte	.LVL342
 11572 13c2 36000000 		.4byte	.LFE98
ARM GAS  C:\Users\164\AppData\Local\Temp\ccuYWdBJ.s 			page 230


 11573 13c6 0100     		.2byte	0x1
 11574 13c8 54       		.byte	0x54
 11575 13c9 00000000 		.4byte	0
 11576 13cd 00000000 		.4byte	0
 11577              	.LLST127:
 11578 13d1 08000000 		.4byte	.LVL342
 11579 13d5 0C000000 		.4byte	.LVL343
 11580 13d9 0100     		.2byte	0x1
 11581 13db 56       		.byte	0x56
 11582 13dc 00000000 		.4byte	0
 11583 13e0 00000000 		.4byte	0
 11584              	.LLST128:
 11585 13e4 10000000 		.4byte	.LVL344
 11586 13e8 14000000 		.4byte	.LVL345
 11587 13ec 0100     		.2byte	0x1
 11588 13ee 55       		.byte	0x55
 11589 13ef 00000000 		.4byte	0
 11590 13f3 00000000 		.4byte	0
 11591              	.LLST129:
 11592 13f7 18000000 		.4byte	.LVL346
 11593 13fb 1C000000 		.4byte	.LVL347
 11594 13ff 0100     		.2byte	0x1
 11595 1401 55       		.byte	0x55
 11596 1402 00000000 		.4byte	0
 11597 1406 00000000 		.4byte	0
 11598              	.LLST130:
 11599 140a 00000000 		.4byte	.LVL351
 11600 140e 20000000 		.4byte	.LVL355
 11601 1412 0100     		.2byte	0x1
 11602 1414 50       		.byte	0x50
 11603 1415 20000000 		.4byte	.LVL355
 11604 1419 5C000000 		.4byte	.LFE99
 11605 141d 0400     		.2byte	0x4
 11606 141f F3       		.byte	0xf3
 11607 1420 01       		.uleb128 0x1
 11608 1421 50       		.byte	0x50
 11609 1422 9F       		.byte	0x9f
 11610 1423 00000000 		.4byte	0
 11611 1427 00000000 		.4byte	0
 11612              	.LLST131:
 11613 142b 00000000 		.4byte	.LVL351
 11614 142f 20000000 		.4byte	.LVL355
 11615 1433 0100     		.2byte	0x1
 11616 1435 51       		.byte	0x51
 11617 1436 20000000 		.4byte	.LVL355
 11618 143a 5C000000 		.4byte	.LFE99
 11619 143e 0100     		.2byte	0x1
 11620 1440 5A       		.byte	0x5a
 11621 1441 00000000 		.4byte	0
 11622 1445 00000000 		.4byte	0
 11623              	.LLST132:
 11624 1449 00000000 		.4byte	.LVL351
 11625 144d 20000000 		.4byte	.LVL355
 11626 1451 0100     		.2byte	0x1
 11627 1453 52       		.byte	0x52
 11628 1454 20000000 		.4byte	.LVL355
 11629 1458 5C000000 		.4byte	.LFE99
ARM GAS  C:\Users\164\AppData\Local\Temp\ccuYWdBJ.s 			page 231


 11630 145c 0100     		.2byte	0x1
 11631 145e 59       		.byte	0x59
 11632 145f 00000000 		.4byte	0
 11633 1463 00000000 		.4byte	0
 11634              	.LLST133:
 11635 1467 1A000000 		.4byte	.LVL354
 11636 146b 20000000 		.4byte	.LVL355
 11637 146f 0100     		.2byte	0x1
 11638 1471 58       		.byte	0x58
 11639 1472 20000000 		.4byte	.LVL355
 11640 1476 46000000 		.4byte	.LVL359
 11641 147a 0100     		.2byte	0x1
 11642 147c 57       		.byte	0x57
 11643 147d 48000000 		.4byte	.LVL360
 11644 1481 5C000000 		.4byte	.LFE99
 11645 1485 0100     		.2byte	0x1
 11646 1487 57       		.byte	0x57
 11647 1488 00000000 		.4byte	0
 11648 148c 00000000 		.4byte	0
 11649              	.LLST134:
 11650 1490 1A000000 		.4byte	.LVL354
 11651 1494 20000000 		.4byte	.LVL355
 11652 1498 0200     		.2byte	0x2
 11653 149a 31       		.byte	0x31
 11654 149b 9F       		.byte	0x9f
 11655 149c 20000000 		.4byte	.LVL355
 11656 14a0 5C000000 		.4byte	.LFE99
 11657 14a4 0100     		.2byte	0x1
 11658 14a6 55       		.byte	0x55
 11659 14a7 00000000 		.4byte	0
 11660 14ab 00000000 		.4byte	0
 11661              	.LLST135:
 11662 14af 00000000 		.4byte	.LVL362
 11663 14b3 1C000000 		.4byte	.LVL365
 11664 14b7 0100     		.2byte	0x1
 11665 14b9 50       		.byte	0x50
 11666 14ba 1C000000 		.4byte	.LVL365
 11667 14be 1F000000 		.4byte	.LVL366-1
 11668 14c2 0100     		.2byte	0x1
 11669 14c4 51       		.byte	0x51
 11670 14c5 1F000000 		.4byte	.LVL366-1
 11671 14c9 76000000 		.4byte	.LFE118
 11672 14cd 0400     		.2byte	0x4
 11673 14cf F3       		.byte	0xf3
 11674 14d0 01       		.uleb128 0x1
 11675 14d1 50       		.byte	0x50
 11676 14d2 9F       		.byte	0x9f
 11677 14d3 00000000 		.4byte	0
 11678 14d7 00000000 		.4byte	0
 11679              	.LLST136:
 11680 14db 00000000 		.4byte	.LVL362
 11681 14df 1A000000 		.4byte	.LVL364
 11682 14e3 0100     		.2byte	0x1
 11683 14e5 51       		.byte	0x51
 11684 14e6 1A000000 		.4byte	.LVL364
 11685 14ea 76000000 		.4byte	.LFE118
 11686 14ee 0100     		.2byte	0x1
ARM GAS  C:\Users\164\AppData\Local\Temp\ccuYWdBJ.s 			page 232


 11687 14f0 55       		.byte	0x55
 11688 14f1 00000000 		.4byte	0
 11689 14f5 00000000 		.4byte	0
 11690              	.LLST137:
 11691 14f9 00000000 		.4byte	.LVL362
 11692 14fd 18000000 		.4byte	.LVL363
 11693 1501 0100     		.2byte	0x1
 11694 1503 52       		.byte	0x52
 11695 1504 18000000 		.4byte	.LVL363
 11696 1508 76000000 		.4byte	.LFE118
 11697 150c 0400     		.2byte	0x4
 11698 150e F3       		.byte	0xf3
 11699 150f 01       		.uleb128 0x1
 11700 1510 52       		.byte	0x52
 11701 1511 9F       		.byte	0x9f
 11702 1512 00000000 		.4byte	0
 11703 1516 00000000 		.4byte	0
 11704              	.LLST138:
 11705 151a 00000000 		.4byte	.LVL373
 11706 151e 0C000000 		.4byte	.LVL376
 11707 1522 0100     		.2byte	0x1
 11708 1524 50       		.byte	0x50
 11709 1525 0C000000 		.4byte	.LVL376
 11710 1529 3E000000 		.4byte	.LFE117
 11711 152d 0400     		.2byte	0x4
 11712 152f F3       		.byte	0xf3
 11713 1530 01       		.uleb128 0x1
 11714 1531 50       		.byte	0x50
 11715 1532 9F       		.byte	0x9f
 11716 1533 00000000 		.4byte	0
 11717 1537 00000000 		.4byte	0
 11718              	.LLST139:
 11719 153b 00000000 		.4byte	.LVL373
 11720 153f 0A000000 		.4byte	.LVL375
 11721 1543 0100     		.2byte	0x1
 11722 1545 51       		.byte	0x51
 11723 1546 0A000000 		.4byte	.LVL375
 11724 154a 3E000000 		.4byte	.LFE117
 11725 154e 0100     		.2byte	0x1
 11726 1550 55       		.byte	0x55
 11727 1551 00000000 		.4byte	0
 11728 1555 00000000 		.4byte	0
 11729              	.LLST140:
 11730 1559 00000000 		.4byte	.LVL373
 11731 155d 08000000 		.4byte	.LVL374
 11732 1561 0100     		.2byte	0x1
 11733 1563 52       		.byte	0x52
 11734 1564 08000000 		.4byte	.LVL374
 11735 1568 3E000000 		.4byte	.LFE117
 11736 156c 0400     		.2byte	0x4
 11737 156e F3       		.byte	0xf3
 11738 156f 01       		.uleb128 0x1
 11739 1570 52       		.byte	0x52
 11740 1571 9F       		.byte	0x9f
 11741 1572 00000000 		.4byte	0
 11742 1576 00000000 		.4byte	0
 11743              	.LLST141:
ARM GAS  C:\Users\164\AppData\Local\Temp\ccuYWdBJ.s 			page 233


 11744 157a 00000000 		.4byte	.LVL381
 11745 157e 0C000000 		.4byte	.LVL384
 11746 1582 0100     		.2byte	0x1
 11747 1584 50       		.byte	0x50
 11748 1585 0C000000 		.4byte	.LVL384
 11749 1589 3E000000 		.4byte	.LFE116
 11750 158d 0400     		.2byte	0x4
 11751 158f F3       		.byte	0xf3
 11752 1590 01       		.uleb128 0x1
 11753 1591 50       		.byte	0x50
 11754 1592 9F       		.byte	0x9f
 11755 1593 00000000 		.4byte	0
 11756 1597 00000000 		.4byte	0
 11757              	.LLST142:
 11758 159b 00000000 		.4byte	.LVL381
 11759 159f 0A000000 		.4byte	.LVL383
 11760 15a3 0100     		.2byte	0x1
 11761 15a5 51       		.byte	0x51
 11762 15a6 0A000000 		.4byte	.LVL383
 11763 15aa 3E000000 		.4byte	.LFE116
 11764 15ae 0100     		.2byte	0x1
 11765 15b0 55       		.byte	0x55
 11766 15b1 00000000 		.4byte	0
 11767 15b5 00000000 		.4byte	0
 11768              	.LLST143:
 11769 15b9 00000000 		.4byte	.LVL381
 11770 15bd 08000000 		.4byte	.LVL382
 11771 15c1 0100     		.2byte	0x1
 11772 15c3 52       		.byte	0x52
 11773 15c4 08000000 		.4byte	.LVL382
 11774 15c8 3E000000 		.4byte	.LFE116
 11775 15cc 0400     		.2byte	0x4
 11776 15ce F3       		.byte	0xf3
 11777 15cf 01       		.uleb128 0x1
 11778 15d0 52       		.byte	0x52
 11779 15d1 9F       		.byte	0x9f
 11780 15d2 00000000 		.4byte	0
 11781 15d6 00000000 		.4byte	0
 11782              	.LLST144:
 11783 15da 00000000 		.4byte	.LVL389
 11784 15de 0D000000 		.4byte	.LVL390-1
 11785 15e2 0100     		.2byte	0x1
 11786 15e4 50       		.byte	0x50
 11787 15e5 0D000000 		.4byte	.LVL390-1
 11788 15e9 54010000 		.4byte	.LVL417
 11789 15ed 0100     		.2byte	0x1
 11790 15ef 54       		.byte	0x54
 11791 15f0 54010000 		.4byte	.LVL417
 11792 15f4 1C020000 		.4byte	.LFE122
 11793 15f8 0400     		.2byte	0x4
 11794 15fa F3       		.byte	0xf3
 11795 15fb 01       		.uleb128 0x1
 11796 15fc 50       		.byte	0x50
 11797 15fd 9F       		.byte	0x9f
 11798 15fe 00000000 		.4byte	0
 11799 1602 00000000 		.4byte	0
 11800              		.section	.debug_aranges,"",%progbits
ARM GAS  C:\Users\164\AppData\Local\Temp\ccuYWdBJ.s 			page 234


 11801 0000 44010000 		.4byte	0x144
 11802 0004 0200     		.2byte	0x2
 11803 0006 00000000 		.4byte	.Ldebug_info0
 11804 000a 04       		.byte	0x4
 11805 000b 00       		.byte	0
 11806 000c 0000     		.2byte	0
 11807 000e 0000     		.2byte	0
 11808 0010 00000000 		.4byte	.LFB107
 11809 0014 16000000 		.4byte	.LFE107-.LFB107
 11810 0018 00000000 		.4byte	.LFB106
 11811 001c 22000000 		.4byte	.LFE106-.LFB106
 11812 0020 00000000 		.4byte	.LFB108
 11813 0024 4E000000 		.4byte	.LFE108-.LFB108
 11814 0028 00000000 		.4byte	.LFB120
 11815 002c 8C000000 		.4byte	.LFE120-.LFB120
 11816 0030 00000000 		.4byte	.LFB121
 11817 0034 94000000 		.4byte	.LFE121-.LFB121
 11818 0038 00000000 		.4byte	.LFB85
 11819 003c 4A000000 		.4byte	.LFE85-.LFB85
 11820 0040 00000000 		.4byte	.LFB115
 11821 0044 58000000 		.4byte	.LFE115-.LFB115
 11822 0048 00000000 		.4byte	.LFB101
 11823 004c 98000000 		.4byte	.LFE101-.LFB101
 11824 0050 00000000 		.4byte	.LFB86
 11825 0054 2A000000 		.4byte	.LFE86-.LFB86
 11826 0058 00000000 		.4byte	.LFB87
 11827 005c 26000000 		.4byte	.LFE87-.LFB87
 11828 0060 00000000 		.4byte	.LFB88
 11829 0064 1C000000 		.4byte	.LFE88-.LFB88
 11830 0068 00000000 		.4byte	.LFB89
 11831 006c 68000000 		.4byte	.LFE89-.LFB89
 11832 0070 00000000 		.4byte	.LFB103
 11833 0074 34000000 		.4byte	.LFE103-.LFB103
 11834 0078 00000000 		.4byte	.LFB100
 11835 007c F8000000 		.4byte	.LFE100-.LFB100
 11836 0080 00000000 		.4byte	.LFB90
 11837 0084 3A000000 		.4byte	.LFE90-.LFB90
 11838 0088 00000000 		.4byte	.LFB119
 11839 008c A8000000 		.4byte	.LFE119-.LFB119
 11840 0090 00000000 		.4byte	.LFB110
 11841 0094 32000000 		.4byte	.LFE110-.LFB110
 11842 0098 00000000 		.4byte	.LFB109
 11843 009c 30000000 		.4byte	.LFE109-.LFB109
 11844 00a0 00000000 		.4byte	.LFB91
 11845 00a4 32000000 		.4byte	.LFE91-.LFB91
 11846 00a8 00000000 		.4byte	.LFB111
 11847 00ac 12000000 		.4byte	.LFE111-.LFB111
 11848 00b0 00000000 		.4byte	.LFB102
 11849 00b4 D8000000 		.4byte	.LFE102-.LFB102
 11850 00b8 00000000 		.4byte	.LFB92
 11851 00bc 30000000 		.4byte	.LFE92-.LFB92
 11852 00c0 00000000 		.4byte	.LFB112
 11853 00c4 3C000000 		.4byte	.LFE112-.LFB112
 11854 00c8 00000000 		.4byte	.LFB94
 11855 00cc 48000000 		.4byte	.LFE94-.LFB94
 11856 00d0 00000000 		.4byte	.LFB114
 11857 00d4 3C000000 		.4byte	.LFE114-.LFB114
ARM GAS  C:\Users\164\AppData\Local\Temp\ccuYWdBJ.s 			page 235


 11858 00d8 00000000 		.4byte	.LFB95
 11859 00dc 96000000 		.4byte	.LFE95-.LFB95
 11860 00e0 00000000 		.4byte	.LFB93
 11861 00e4 0C000000 		.4byte	.LFE93-.LFB93
 11862 00e8 00000000 		.4byte	.LFB113
 11863 00ec 12000000 		.4byte	.LFE113-.LFB113
 11864 00f0 00000000 		.4byte	.LFB96
 11865 00f4 6C000000 		.4byte	.LFE96-.LFB96
 11866 00f8 00000000 		.4byte	.LFB105
 11867 00fc 2A000000 		.4byte	.LFE105-.LFB105
 11868 0100 00000000 		.4byte	.LFB97
 11869 0104 22000000 		.4byte	.LFE97-.LFB97
 11870 0108 00000000 		.4byte	.LFB104
 11871 010c 0A000000 		.4byte	.LFE104-.LFB104
 11872 0110 00000000 		.4byte	.LFB98
 11873 0114 36000000 		.4byte	.LFE98-.LFB98
 11874 0118 00000000 		.4byte	.LFB99
 11875 011c 5C000000 		.4byte	.LFE99-.LFB99
 11876 0120 00000000 		.4byte	.LFB118
 11877 0124 76000000 		.4byte	.LFE118-.LFB118
 11878 0128 00000000 		.4byte	.LFB117
 11879 012c 3E000000 		.4byte	.LFE117-.LFB117
 11880 0130 00000000 		.4byte	.LFB116
 11881 0134 3E000000 		.4byte	.LFE116-.LFB116
 11882 0138 00000000 		.4byte	.LFB122
 11883 013c 1C020000 		.4byte	.LFE122-.LFB122
 11884 0140 00000000 		.4byte	0
 11885 0144 00000000 		.4byte	0
 11886              		.section	.debug_ranges,"",%progbits
 11887              	.Ldebug_ranges0:
 11888 0000 0E000000 		.4byte	.LBB78
 11889 0004 16000000 		.4byte	.LBE78
 11890 0008 2E000000 		.4byte	.LBB79
 11891 000c 30000000 		.4byte	.LBE79
 11892 0010 00000000 		.4byte	0
 11893 0014 00000000 		.4byte	0
 11894 0018 00000000 		.4byte	.LFB107
 11895 001c 16000000 		.4byte	.LFE107
 11896 0020 00000000 		.4byte	.LFB106
 11897 0024 22000000 		.4byte	.LFE106
 11898 0028 00000000 		.4byte	.LFB108
 11899 002c 4E000000 		.4byte	.LFE108
 11900 0030 00000000 		.4byte	.LFB120
 11901 0034 8C000000 		.4byte	.LFE120
 11902 0038 00000000 		.4byte	.LFB121
 11903 003c 94000000 		.4byte	.LFE121
 11904 0040 00000000 		.4byte	.LFB85
 11905 0044 4A000000 		.4byte	.LFE85
 11906 0048 00000000 		.4byte	.LFB115
 11907 004c 58000000 		.4byte	.LFE115
 11908 0050 00000000 		.4byte	.LFB101
 11909 0054 98000000 		.4byte	.LFE101
 11910 0058 00000000 		.4byte	.LFB86
 11911 005c 2A000000 		.4byte	.LFE86
 11912 0060 00000000 		.4byte	.LFB87
 11913 0064 26000000 		.4byte	.LFE87
 11914 0068 00000000 		.4byte	.LFB88
ARM GAS  C:\Users\164\AppData\Local\Temp\ccuYWdBJ.s 			page 236


 11915 006c 1C000000 		.4byte	.LFE88
 11916 0070 00000000 		.4byte	.LFB89
 11917 0074 68000000 		.4byte	.LFE89
 11918 0078 00000000 		.4byte	.LFB103
 11919 007c 34000000 		.4byte	.LFE103
 11920 0080 00000000 		.4byte	.LFB100
 11921 0084 F8000000 		.4byte	.LFE100
 11922 0088 00000000 		.4byte	.LFB90
 11923 008c 3A000000 		.4byte	.LFE90
 11924 0090 00000000 		.4byte	.LFB119
 11925 0094 A8000000 		.4byte	.LFE119
 11926 0098 00000000 		.4byte	.LFB110
 11927 009c 32000000 		.4byte	.LFE110
 11928 00a0 00000000 		.4byte	.LFB109
 11929 00a4 30000000 		.4byte	.LFE109
 11930 00a8 00000000 		.4byte	.LFB91
 11931 00ac 32000000 		.4byte	.LFE91
 11932 00b0 00000000 		.4byte	.LFB111
 11933 00b4 12000000 		.4byte	.LFE111
 11934 00b8 00000000 		.4byte	.LFB102
 11935 00bc D8000000 		.4byte	.LFE102
 11936 00c0 00000000 		.4byte	.LFB92
 11937 00c4 30000000 		.4byte	.LFE92
 11938 00c8 00000000 		.4byte	.LFB112
 11939 00cc 3C000000 		.4byte	.LFE112
 11940 00d0 00000000 		.4byte	.LFB94
 11941 00d4 48000000 		.4byte	.LFE94
 11942 00d8 00000000 		.4byte	.LFB114
 11943 00dc 3C000000 		.4byte	.LFE114
 11944 00e0 00000000 		.4byte	.LFB95
 11945 00e4 96000000 		.4byte	.LFE95
 11946 00e8 00000000 		.4byte	.LFB93
 11947 00ec 0C000000 		.4byte	.LFE93
 11948 00f0 00000000 		.4byte	.LFB113
 11949 00f4 12000000 		.4byte	.LFE113
 11950 00f8 00000000 		.4byte	.LFB96
 11951 00fc 6C000000 		.4byte	.LFE96
 11952 0100 00000000 		.4byte	.LFB105
 11953 0104 2A000000 		.4byte	.LFE105
 11954 0108 00000000 		.4byte	.LFB97
 11955 010c 22000000 		.4byte	.LFE97
 11956 0110 00000000 		.4byte	.LFB104
 11957 0114 0A000000 		.4byte	.LFE104
 11958 0118 00000000 		.4byte	.LFB98
 11959 011c 36000000 		.4byte	.LFE98
 11960 0120 00000000 		.4byte	.LFB99
 11961 0124 5C000000 		.4byte	.LFE99
 11962 0128 00000000 		.4byte	.LFB118
 11963 012c 76000000 		.4byte	.LFE118
 11964 0130 00000000 		.4byte	.LFB117
 11965 0134 3E000000 		.4byte	.LFE117
 11966 0138 00000000 		.4byte	.LFB116
 11967 013c 3E000000 		.4byte	.LFE116
 11968 0140 00000000 		.4byte	.LFB122
 11969 0144 1C020000 		.4byte	.LFE122
 11970 0148 00000000 		.4byte	0
 11971 014c 00000000 		.4byte	0
ARM GAS  C:\Users\164\AppData\Local\Temp\ccuYWdBJ.s 			page 237


 11972              		.section	.debug_line,"",%progbits
 11973              	.Ldebug_line0:
 11974 0000 C6070000 		.section	.debug_str,"MS",%progbits,1
 11974      02002002 
 11974      00000201 
 11974      FB0E0D00 
 11974      01010101 
 11975              	.LASF56:
 11976 0000 455F5459 		.ascii	"E_TYPE_ERROR\000"
 11976      50455F45 
 11976      52524F52 
 11976      00
 11977              	.LASF36:
 11978 000d 666C6167 		.ascii	"flag_need_memfree\000"
 11978      5F6E6565 
 11978      645F6D65 
 11978      6D667265 
 11978      6500
 11979              	.LASF40:
 11980 001f 4D524243 		.ascii	"MRBC_TT_NIL\000"
 11980      5F54545F 
 11980      4E494C00 
 11981              	.LASF174:
 11982 002b 6D726263 		.ascii	"mrbc_alloc\000"
 11982      5F616C6C 
 11982      6F6300
 11983              	.LASF145:
 11984 0036 635F6172 		.ascii	"c_array_pop\000"
 11984      7261795F 
 11984      706F7000 
 11985              	.LASF186:
 11986 0042 6D726263 		.ascii	"mrbc_define_method\000"
 11986      5F646566 
 11986      696E655F 
 11986      6D657468 
 11986      6F6400
 11987              	.LASF34:
 11988 0055 6572726F 		.ascii	"error_code\000"
 11988      725F636F 
 11988      646500
 11989              	.LASF73:
 11990 0060 73747269 		.ascii	"string\000"
 11990      6E6700
 11991              	.LASF5:
 11992 0067 5F5F7569 		.ascii	"__uint8_t\000"
 11992      6E74385F 
 11992      7400
 11993              	.LASF111:
 11994 0071 70726576 		.ascii	"prev\000"
 11994      00
 11995              	.LASF161:
 11996 0076 635F6172 		.ascii	"c_array_minmax\000"
 11996      7261795F 
 11996      6D696E6D 
 11996      617800
 11997              	.LASF159:
 11998 0085 705F6D69 		.ascii	"p_min_value\000"
ARM GAS  C:\Users\164\AppData\Local\Temp\ccuYWdBJ.s 			page 238


 11998      6E5F7661 
 11998      6C756500 
 11999              	.LASF53:
 12000 0091 6D726263 		.ascii	"mrbc_vtype\000"
 12000      5F767479 
 12000      706500
 12001              	.LASF29:
 12002 009c 70635F69 		.ascii	"pc_irep\000"
 12002      72657000 
 12003              	.LASF170:
 12004 00a4 6D726263 		.ascii	"mrbc_send\000"
 12004      5F73656E 
 12004      6400
 12005              	.LASF180:
 12006 00ae 6D726263 		.ascii	"mrbc_clear_vm_id\000"
 12006      5F636C65 
 12006      61725F76 
 12006      6D5F6964 
 12006      00
 12007              	.LASF100:
 12008 00bf 6E6C6F63 		.ascii	"nlocals\000"
 12008      616C7300 
 12009              	.LASF182:
 12010 00c7 6D726263 		.ascii	"mrbc_string_append_cstr\000"
 12010      5F737472 
 12010      696E675F 
 12010      61707065 
 12010      6E645F63 
 12011              	.LASF110:
 12012 00df 43414C4C 		.ascii	"CALLINFO\000"
 12012      494E464F 
 12012      00
 12013              	.LASF14:
 12014 00e8 6C6F6E67 		.ascii	"long long unsigned int\000"
 12014      206C6F6E 
 12014      6720756E 
 12014      7369676E 
 12014      65642069 
 12015              	.LASF135:
 12016 00ff 635F6172 		.ascii	"c_array_new\000"
 12016      7261795F 
 12016      6E657700 
 12017              	.LASF184:
 12018 010b 6D656D6D 		.ascii	"memmove\000"
 12018      6F766500 
 12019              	.LASF52:
 12020 0113 4D524243 		.ascii	"MRBC_TT_HASH\000"
 12020      5F54545F 
 12020      48415348 
 12020      00
 12021              	.LASF113:
 12022 0120 6D726263 		.ascii	"mrbc_callinfo\000"
 12022      5F63616C 
 12022      6C696E66 
 12022      6F00
 12023              	.LASF114:
 12024 012e 6D726263 		.ascii	"mrbc_array\000"
ARM GAS  C:\Users\164\AppData\Local\Temp\ccuYWdBJ.s 			page 239


 12024      5F617272 
 12024      617900
 12025              	.LASF4:
 12026 0139 5F5F696E 		.ascii	"__int8_t\000"
 12026      74385F74 
 12026      00
 12027              	.LASF167:
 12028 0142 49544D5F 		.ascii	"ITM_RxBuffer\000"
 12028      52784275 
 12028      66666572 
 12028      00
 12029              	.LASF39:
 12030 014f 4D524243 		.ascii	"MRBC_TT_EMPTY\000"
 12030      5F54545F 
 12030      454D5054 
 12030      5900
 12031              	.LASF86:
 12032 015d 6E657874 		.ascii	"next\000"
 12032      00
 12033              	.LASF104:
 12034 0162 706C656E 		.ascii	"plen\000"
 12034      00
 12035              	.LASF121:
 12036 0167 635F6172 		.ascii	"c_array_join_1\000"
 12036      7261795F 
 12036      6A6F696E 
 12036      5F3100
 12037              	.LASF176:
 12038 0176 6D726263 		.ascii	"mrbc_dup\000"
 12038      5F647570 
 12038      00
 12039              	.LASF70:
 12040 017f 696E7374 		.ascii	"instance\000"
 12040      616E6365 
 12040      00
 12041              	.LASF165:
 12042 0188 6D726263 		.ascii	"mrbc_class_object\000"
 12042      5F636C61 
 12042      73735F6F 
 12042      626A6563 
 12042      7400
 12043              	.LASF3:
 12044 019a 7369676E 		.ascii	"signed char\000"
 12044      65642063 
 12044      68617200 
 12045              	.LASF150:
 12046 01a6 635F6172 		.ascii	"c_array_unshift\000"
 12046      7261795F 
 12046      756E7368 
 12046      69667400 
 12047              	.LASF64:
 12048 01b6 455F4C4F 		.ascii	"E_LOCALJUMP_ERROR\000"
 12048      43414C4A 
 12048      554D505F 
 12048      4552524F 
 12048      5200
 12049              	.LASF156:
ARM GAS  C:\Users\164\AppData\Local\Temp\ccuYWdBJ.s 			page 240


 12050 01c8 6D726263 		.ascii	"mrbc_array_minmax\000"
 12050      5F617272 
 12050      61795F6D 
 12050      696E6D61 
 12050      7800
 12051              	.LASF95:
 12052 01da 6D726263 		.ascii	"mrbc_value\000"
 12052      5F76616C 
 12052      756500
 12053              	.LASF57:
 12054 01e5 455F4152 		.ascii	"E_ARGUMENT_ERROR\000"
 12054      47554D45 
 12054      4E545F45 
 12054      52524F52 
 12054      00
 12055              	.LASF128:
 12056 01f6 6D726263 		.ascii	"mrbc_array_clear_vm_id\000"
 12056      5F617272 
 12056      61795F63 
 12056      6C656172 
 12056      5F766D5F 
 12057              	.LASF134:
 12058 020d 635F6172 		.ascii	"c_array_set\000"
 12058      7261795F 
 12058      73657400 
 12059              	.LASF49:
 12060 0219 4D524243 		.ascii	"MRBC_TT_ARRAY\000"
 12060      5F54545F 
 12060      41525241 
 12060      5900
 12061              	.LASF123:
 12062 0227 666C6167 		.ascii	"flag_error\000"
 12062      5F657272 
 12062      6F7200
 12063              	.LASF183:
 12064 0232 6D726263 		.ascii	"mrbc_string_delete\000"
 12064      5F737472 
 12064      696E675F 
 12064      64656C65 
 12064      746500
 12065              	.LASF133:
 12066 0245 7365745F 		.ascii	"set_val\000"
 12066      76616C00 
 12067              	.LASF102:
 12068 024d 726C656E 		.ascii	"rlen\000"
 12068      00
 12069              	.LASF171:
 12070 0252 6D726263 		.ascii	"mrbc_string_append\000"
 12070      5F737472 
 12070      696E675F 
 12070      61707065 
 12070      6E6400
 12071              	.LASF192:
 12072 0265 6D656D63 		.ascii	"memcpy\000"
 12072      707900
 12073              	.LASF51:
 12074 026c 4D524243 		.ascii	"MRBC_TT_RANGE\000"
ARM GAS  C:\Users\164\AppData\Local\Temp\ccuYWdBJ.s 			page 241


 12074      5F54545F 
 12074      52414E47 
 12074      4500
 12075              	.LASF1:
 12076 027a 6C6F6E67 		.ascii	"long long int\000"
 12076      206C6F6E 
 12076      6720696E 
 12076      7400
 12077              	.LASF59:
 12078 0288 455F5241 		.ascii	"E_RANGE_ERROR\000"
 12078      4E47455F 
 12078      4552524F 
 12078      5200
 12079              	.LASF173:
 12080 0296 6D726263 		.ascii	"mrbc_string_new_cstr\000"
 12080      5F737472 
 12080      696E675F 
 12080      6E65775F 
 12080      63737472 
 12081              	.LASF58:
 12082 02ab 455F494E 		.ascii	"E_INDEX_ERROR\000"
 12082      4445585F 
 12082      4552524F 
 12082      5200
 12083              	.LASF24:
 12084 02b9 646F7562 		.ascii	"double\000"
 12084      6C6500
 12085              	.LASF43:
 12086 02c0 4D524243 		.ascii	"MRBC_TT_FIXNUM\000"
 12086      5F54545F 
 12086      4649584E 
 12086      554D00
 12087              	.LASF166:
 12088 02cf 6D726263 		.ascii	"mrbc_class_array\000"
 12088      5F636C61 
 12088      73735F61 
 12088      72726179 
 12088      00
 12089              	.LASF72:
 12090 02e0 61727261 		.ascii	"array\000"
 12090      7900
 12091              	.LASF179:
 12092 02e6 6D726263 		.ascii	"mrbc_set_vm_id\000"
 12092      5F736574 
 12092      5F766D5F 
 12092      696400
 12093              	.LASF158:
 12094 02f5 70705F6D 		.ascii	"pp_max_value\000"
 12094      61785F76 
 12094      616C7565 
 12094      00
 12095              	.LASF9:
 12096 0302 5F5F7569 		.ascii	"__uint16_t\000"
 12096      6E743136 
 12096      5F7400
 12097              	.LASF126:
 12098 030d 635F6172 		.ascii	"c_array_add\000"
ARM GAS  C:\Users\164\AppData\Local\Temp\ccuYWdBJ.s 			page 242


 12098      7261795F 
 12098      61646400 
 12099              	.LASF154:
 12100 0319 635F6172 		.ascii	"c_array_clear\000"
 12100      7261795F 
 12100      636C6561 
 12100      7200
 12101              	.LASF185:
 12102 0327 6D726263 		.ascii	"mrbc_define_class\000"
 12102      5F646566 
 12102      696E655F 
 12102      636C6173 
 12102      7300
 12103              	.LASF7:
 12104 0339 5F5F696E 		.ascii	"__int16_t\000"
 12104      7431365F 
 12104      7400
 12105              	.LASF61:
 12106 0343 455F4E4F 		.ascii	"E_NOMETHOD_ERROR\000"
 12106      4D455448 
 12106      4F445F45 
 12106      52524F52 
 12106      00
 12107              	.LASF60:
 12108 0354 455F4E41 		.ascii	"E_NAME_ERROR\000"
 12108      4D455F45 
 12108      52524F52 
 12108      00
 12109              	.LASF146:
 12110 0361 6D726263 		.ascii	"mrbc_array_shift\000"
 12110      5F617272 
 12110      61795F73 
 12110      68696674 
 12110      00
 12111              	.LASF120:
 12112 0372 76616C75 		.ascii	"value\000"
 12112      6500
 12113              	.LASF22:
 12114 0378 6D726263 		.ascii	"mrbc_int\000"
 12114      5F696E74 
 12114      00
 12115              	.LASF164:
 12116 0381 6D726263 		.ascii	"mrbc_init_class_array\000"
 12116      5F696E69 
 12116      745F636C 
 12116      6173735F 
 12116      61727261 
 12117              	.LASF152:
 12118 0397 635F6172 		.ascii	"c_array_delete_at\000"
 12118      7261795F 
 12118      64656C65 
 12118      74655F61 
 12118      7400
 12119              	.LASF20:
 12120 03a9 75696E74 		.ascii	"uint16_t\000"
 12120      31365F74 
 12120      00
ARM GAS  C:\Users\164\AppData\Local\Temp\ccuYWdBJ.s 			page 243


 12121              	.LASF71:
 12122 03b2 70726F63 		.ascii	"proc\000"
 12122      00
 12123              	.LASF97:
 12124 03b7 524B6579 		.ascii	"RKeyValueHandle\000"
 12124      56616C75 
 12124      6548616E 
 12124      646C6500 
 12125              	.LASF13:
 12126 03c7 6C6F6E67 		.ascii	"long unsigned int\000"
 12126      20756E73 
 12126      69676E65 
 12126      6420696E 
 12126      7400
 12127              	.LASF143:
 12128 03d9 635F6172 		.ascii	"c_array_get\000"
 12128      7261795F 
 12128      67657400 
 12129              	.LASF33:
 12130 03e5 74617267 		.ascii	"target_class\000"
 12130      65745F63 
 12130      6C617373 
 12130      00
 12131              	.LASF84:
 12132 03f2 5250726F 		.ascii	"RProc\000"
 12132      6300
 12133              	.LASF189:
 12134 03f8 433A5C55 		.ascii	"C:\\Users\\164\\Desktop\\github\\mcmc\\Design01.cyd"
 12134      73657273 
 12134      5C313634 
 12134      5C446573 
 12134      6B746F70 
 12135 0425 736E00   		.ascii	"sn\000"
 12136              	.LASF66:
 12137 0428 455F4E4F 		.ascii	"E_NOTIMP_ERROR\000"
 12137      54494D50 
 12137      5F455252 
 12137      4F5200
 12138              	.LASF83:
 12139 0437 64617461 		.ascii	"data\000"
 12139      00
 12140              	.LASF117:
 12141 043c 635F6172 		.ascii	"c_array_size\000"
 12141      7261795F 
 12141      73697A65 
 12141      00
 12142              	.LASF78:
 12143 0449 73757065 		.ascii	"super\000"
 12143      7200
 12144              	.LASF188:
 12145 044f 635F6172 		.ascii	"c_array.c\000"
 12145      7261792E 
 12145      6300
 12146              	.LASF178:
 12147 0459 6D726263 		.ascii	"mrbc_release\000"
 12147      5F72656C 
 12147      65617365 
ARM GAS  C:\Users\164\AppData\Local\Temp\ccuYWdBJ.s 			page 244


 12147      00
 12148              	.LASF190:
 12149 0466 6D726263 		.ascii	"mrbc_array_size\000"
 12149      5F617272 
 12149      61795F73 
 12149      697A6500 
 12150              	.LASF88:
 12151 0476 64617461 		.ascii	"data_size\000"
 12151      5F73697A 
 12151      6500
 12152              	.LASF96:
 12153 0480 6D726263 		.ascii	"mrbc_class\000"
 12153      5F636C61 
 12153      737300
 12154              	.LASF148:
 12155 048b 6D726263 		.ascii	"mrbc_array_insert\000"
 12155      5F617272 
 12155      61795F69 
 12155      6E736572 
 12155      7400
 12156              	.LASF38:
 12157 049d 4D524243 		.ascii	"MRBC_TT_HANDLE\000"
 12157      5F54545F 
 12157      48414E44 
 12157      4C4500
 12158              	.LASF157:
 12159 04ac 70705F6D 		.ascii	"pp_min_value\000"
 12159      696E5F76 
 12159      616C7565 
 12159      00
 12160              	.LASF79:
 12161 04b9 70726F63 		.ascii	"procs\000"
 12161      7300
 12162              	.LASF15:
 12163 04bf 73697A65 		.ascii	"sizetype\000"
 12163      74797065 
 12163      00
 12164              	.LASF137:
 12165 04c8 635F6172 		.ascii	"c_array_inspect\000"
 12165      7261795F 
 12165      696E7370 
 12165      65637400 
 12166              	.LASF136:
 12167 04d8 6D726263 		.ascii	"mrbc_array_get\000"
 12167      5F617272 
 12167      61795F67 
 12167      657400
 12168              	.LASF131:
 12169 04e7 64617461 		.ascii	"data2\000"
 12169      3200
 12170              	.LASF127:
 12171 04ed 6D726263 		.ascii	"mrbc_array_delete\000"
 12171      5F617272 
 12171      61795F64 
 12171      656C6574 
 12171      6500
 12172              	.LASF140:
ARM GAS  C:\Users\164\AppData\Local\Temp\ccuYWdBJ.s 			page 245


 12173 04ff 635F6172 		.ascii	"c_array_first\000"
 12173      7261795F 
 12173      66697273 
 12173      7400
 12174              	.LASF85:
 12175 050d 635F6675 		.ascii	"c_func\000"
 12175      6E6300
 12176              	.LASF46:
 12177 0514 4D524243 		.ascii	"MRBC_TT_CLASS\000"
 12177      5F54545F 
 12177      434C4153 
 12177      5300
 12178              	.LASF181:
 12179 0522 6D726263 		.ascii	"mrbc_raw_realloc\000"
 12179      5F726177 
 12179      5F726561 
 12179      6C6C6F63 
 12179      00
 12180              	.LASF119:
 12181 0533 635F6172 		.ascii	"c_array_index\000"
 12181      7261795F 
 12181      696E6465 
 12181      7800
 12182              	.LASF68:
 12183 0541 455F4B45 		.ascii	"E_KEY_ERROR\000"
 12183      595F4552 
 12183      524F5200 
 12184              	.LASF90:
 12185 054d 52537472 		.ascii	"RString\000"
 12185      696E6700 
 12186              	.LASF82:
 12187 0555 69766172 		.ascii	"ivar\000"
 12187      00
 12188              	.LASF23:
 12189 055a 6D726263 		.ascii	"mrbc_float\000"
 12189      5F666C6F 
 12189      617400
 12190              	.LASF155:
 12191 0565 6D726263 		.ascii	"mrbc_array_compare\000"
 12191      5F617272 
 12191      61795F63 
 12191      6F6D7061 
 12191      726500
 12192              	.LASF74:
 12193 0578 72616E67 		.ascii	"range\000"
 12193      6500
 12194              	.LASF115:
 12195 057e 666C6F61 		.ascii	"float\000"
 12195      7400
 12196              	.LASF54:
 12197 0584 455F4E4F 		.ascii	"E_NOMEMORY_ERROR\000"
 12197      4D454D4F 
 12197      52595F45 
 12197      52524F52 
 12197      00
 12198              	.LASF141:
 12199 0595 6D726263 		.ascii	"mrbc_array_push\000"
ARM GAS  C:\Users\164\AppData\Local\Temp\ccuYWdBJ.s 			page 246


 12199      5F617272 
 12199      61795F70 
 12199      75736800 
 12200              	.LASF48:
 12201 05a5 4D524243 		.ascii	"MRBC_TT_PROC\000"
 12201      5F54545F 
 12201      50524F43 
 12201      00
 12202              	.LASF41:
 12203 05b2 4D524243 		.ascii	"MRBC_TT_FALSE\000"
 12203      5F54545F 
 12203      46414C53 
 12203      4500
 12204              	.LASF26:
 12205 05c0 6D726263 		.ascii	"mrbc_func_t\000"
 12205      5F66756E 
 12205      635F7400 
 12206              	.LASF144:
 12207 05cc 6D726263 		.ascii	"mrbc_array_pop\000"
 12207      5F617272 
 12207      61795F70 
 12207      6F7000
 12208              	.LASF160:
 12209 05db 705F6D61 		.ascii	"p_max_value\000"
 12209      785F7661 
 12209      6C756500 
 12210              	.LASF37:
 12211 05e7 524F626A 		.ascii	"RObject\000"
 12211      65637400 
 12212              	.LASF21:
 12213 05ef 696E7433 		.ascii	"int32_t\000"
 12213      325F7400 
 12214              	.LASF6:
 12215 05f7 756E7369 		.ascii	"unsigned char\000"
 12215      676E6564 
 12215      20636861 
 12215      7200
 12216              	.LASF107:
 12217 0605 7074725F 		.ascii	"ptr_to_sym\000"
 12217      746F5F73 
 12217      796D00
 12218              	.LASF47:
 12219 0610 4D524243 		.ascii	"MRBC_TT_OBJECT\000"
 12219      5F54545F 
 12219      4F424A45 
 12219      435400
 12220              	.LASF142:
 12221 061f 635F6172 		.ascii	"c_array_push\000"
 12221      7261795F 
 12221      70757368 
 12221      00
 12222              	.LASF8:
 12223 062c 73686F72 		.ascii	"short int\000"
 12223      7420696E 
 12223      7400
 12224              	.LASF80:
 12225 0636 52496E73 		.ascii	"RInstance\000"
ARM GAS  C:\Users\164\AppData\Local\Temp\ccuYWdBJ.s 			page 247


 12225      74616E63 
 12225      6500
 12226              	.LASF92:
 12227 0640 5252616E 		.ascii	"RRange\000"
 12227      676500
 12228              	.LASF172:
 12229 0647 6D726263 		.ascii	"mrbc_string_new\000"
 12229      5F737472 
 12229      696E675F 
 12229      6E657700 
 12230              	.LASF122:
 12231 0657 73657061 		.ascii	"separator\000"
 12231      7261746F 
 12231      7200
 12232              	.LASF55:
 12233 0661 455F5255 		.ascii	"E_RUNTIME_ERROR\000"
 12233      4E54494D 
 12233      455F4552 
 12233      524F5200 
 12234              	.LASF129:
 12235 0671 6D726263 		.ascii	"mrbc_array_new\000"
 12235      5F617272 
 12235      61795F6E 
 12235      657700
 12236              	.LASF149:
 12237 0680 6D726263 		.ascii	"mrbc_array_unshift\000"
 12237      5F617272 
 12237      61795F75 
 12237      6E736869 
 12237      667400
 12238              	.LASF191:
 12239 0693 636F6E73 		.ascii	"console_print\000"
 12239      6F6C655F 
 12239      7072696E 
 12239      7400
 12240              	.LASF187:
 12241 06a1 474E5520 		.ascii	"GNU C11 5.4.1 20160609 (release) [ARM/embedded-5-br"
 12241      43313120 
 12241      352E342E 
 12241      31203230 
 12241      31363036 
 12242 06d4 616E6368 		.ascii	"anch revision 237715] -mcpu=cortex-m3 -mthumb -g -O"
 12242      20726576 
 12242      6973696F 
 12242      6E203233 
 12242      37373135 
 12243 0707 67202D66 		.ascii	"g -ffunction-sections -ffat-lto-objects\000"
 12243      66756E63 
 12243      74696F6E 
 12243      2D736563 
 12243      74696F6E 
 12244              	.LASF101:
 12245 072f 6E726567 		.ascii	"nregs\000"
 12245      7300
 12246              	.LASF175:
 12247 0735 6D726263 		.ascii	"mrbc_raw_free\000"
 12247      5F726177 
ARM GAS  C:\Users\164\AppData\Local\Temp\ccuYWdBJ.s 			page 248


 12247      5F667265 
 12247      6500
 12248              	.LASF91:
 12249 0743 73697A65 		.ascii	"size\000"
 12249      00
 12250              	.LASF109:
 12251 0748 6D726263 		.ascii	"mrbc_irep\000"
 12251      5F697265 
 12251      7000
 12252              	.LASF147:
 12253 0752 635F6172 		.ascii	"c_array_shift\000"
 12253      7261795F 
 12253      73686966 
 12253      7400
 12254              	.LASF125:
 12255 0760 635F6172 		.ascii	"c_array_dup\000"
 12255      7261795F 
 12255      64757000 
 12256              	.LASF139:
 12257 076c 635F6172 		.ascii	"c_array_last\000"
 12257      7261795F 
 12257      6C617374 
 12257      00
 12258              	.LASF30:
 12259 0779 72656773 		.ascii	"regs\000"
 12259      00
 12260              	.LASF162:
 12261 077e 635F6172 		.ascii	"c_array_max\000"
 12261      7261795F 
 12261      6D617800 
 12262              	.LASF2:
 12263 078a 6C6F6E67 		.ascii	"long double\000"
 12263      20646F75 
 12263      626C6500 
 12264              	.LASF28:
 12265 0796 766D5F69 		.ascii	"vm_id\000"
 12265      6400
 12266              	.LASF16:
 12267 079c 63686172 		.ascii	"char\000"
 12267      00
 12268              	.LASF98:
 12269 07a1 66756E63 		.ascii	"func\000"
 12269      00
 12270              	.LASF62:
 12271 07a6 455F5343 		.ascii	"E_SCRIPT_ERROR\000"
 12271      52495054 
 12271      5F455252 
 12271      4F5200
 12272              	.LASF0:
 12273 07b5 756E7369 		.ascii	"unsigned int\000"
 12273      676E6564 
 12273      20696E74 
 12273      00
 12274              	.LASF132:
 12275 07c2 6D726263 		.ascii	"mrbc_array_set\000"
 12275      5F617272 
 12275      61795F73 
ARM GAS  C:\Users\164\AppData\Local\Temp\ccuYWdBJ.s 			page 249


 12275      657400
 12276              	.LASF65:
 12277 07d1 455F5245 		.ascii	"E_REGEXP_ERROR\000"
 12277      47455850 
 12277      5F455252 
 12277      4F5200
 12278              	.LASF163:
 12279 07e0 635F6172 		.ascii	"c_array_min\000"
 12279      7261795F 
 12279      6D696E00 
 12280              	.LASF177:
 12281 07ec 68616C5F 		.ascii	"hal_write\000"
 12281      77726974 
 12281      6500
 12282              	.LASF75:
 12283 07f6 68617368 		.ascii	"hash\000"
 12283      00
 12284              	.LASF11:
 12285 07fb 5F5F696E 		.ascii	"__int32_t\000"
 12285      7433325F 
 12285      7400
 12286              	.LASF124:
 12287 0805 635F6172 		.ascii	"c_array_join\000"
 12287      7261795F 
 12287      6A6F696E 
 12287      00
 12288              	.LASF153:
 12289 0812 6D726263 		.ascii	"mrbc_array_clear\000"
 12289      5F617272 
 12289      61795F63 
 12289      6C656172 
 12289      00
 12290              	.LASF130:
 12291 0823 6D726263 		.ascii	"mrbc_array_resize\000"
 12291      5F617272 
 12291      61795F72 
 12291      6573697A 
 12291      6500
 12292              	.LASF35:
 12293 0835 666C6167 		.ascii	"flag_preemption\000"
 12293      5F707265 
 12293      656D7074 
 12293      696F6E00 
 12294              	.LASF81:
 12295 0845 7265665F 		.ascii	"ref_count\000"
 12295      636F756E 
 12295      7400
 12296              	.LASF168:
 12297 084f 6D726263 		.ascii	"mrbc_dec_ref_counter\000"
 12297      5F646563 
 12297      5F726566 
 12297      5F636F75 
 12297      6E746572 
 12298              	.LASF27:
 12299 0864 69726570 		.ascii	"irep\000"
 12299      00
 12300              	.LASF169:
ARM GAS  C:\Users\164\AppData\Local\Temp\ccuYWdBJ.s 			page 250


 12301 0869 6D726263 		.ascii	"mrbc_compare\000"
 12301      5F636F6D 
 12301      70617265 
 12301      00
 12302              	.LASF10:
 12303 0876 73686F72 		.ascii	"short unsigned int\000"
 12303      7420756E 
 12303      7369676E 
 12303      65642069 
 12303      6E7400
 12304              	.LASF87:
 12305 0889 52417272 		.ascii	"RArray\000"
 12305      617900
 12306              	.LASF17:
 12307 0890 696E7438 		.ascii	"int8_t\000"
 12307      5F7400
 12308              	.LASF99:
 12309 0897 49524550 		.ascii	"IREP\000"
 12309      00
 12310              	.LASF151:
 12311 089c 6D726263 		.ascii	"mrbc_array_remove\000"
 12311      5F617272 
 12311      61795F72 
 12311      656D6F76 
 12311      6500
 12312              	.LASF93:
 12313 08ae 52486173 		.ascii	"RHash\000"
 12313      6800
 12314              	.LASF94:
 12315 08b4 6D726263 		.ascii	"mrbc_object\000"
 12315      5F6F626A 
 12315      65637400 
 12316              	.LASF31:
 12317 08c0 63757272 		.ascii	"current_regs\000"
 12317      656E745F 
 12317      72656773 
 12317      00
 12318              	.LASF105:
 12319 08cd 636F6465 		.ascii	"code\000"
 12319      00
 12320              	.LASF63:
 12321 08d2 455F5359 		.ascii	"E_SYNTAX_ERROR\000"
 12321      4E544158 
 12321      5F455252 
 12321      4F5200
 12322              	.LASF50:
 12323 08e1 4D524243 		.ascii	"MRBC_TT_STRING\000"
 12323      5F54545F 
 12323      53545249 
 12323      4E4700
 12324              	.LASF77:
 12325 08f0 73796D5F 		.ascii	"sym_id\000"
 12325      696400
 12326              	.LASF103:
 12327 08f7 696C656E 		.ascii	"ilen\000"
 12327      00
 12328              	.LASF18:
ARM GAS  C:\Users\164\AppData\Local\Temp\ccuYWdBJ.s 			page 251


 12329 08fc 75696E74 		.ascii	"uint8_t\000"
 12329      385F7400 
 12330              	.LASF89:
 12331 0904 6E5F7374 		.ascii	"n_stored\000"
 12331      6F726564 
 12331      00
 12332              	.LASF32:
 12333 090d 63616C6C 		.ascii	"callinfo_tail\000"
 12333      696E666F 
 12333      5F746169 
 12333      6C00
 12334              	.LASF67:
 12335 091b 455F464C 		.ascii	"E_FLOATDOMAIN_ERROR\000"
 12335      4F415444 
 12335      4F4D4149 
 12335      4E5F4552 
 12335      524F5200 
 12336              	.LASF138:
 12337 092f 52455455 		.ascii	"RETURN_NIL\000"
 12337      524E5F4E 
 12337      494C00
 12338              	.LASF108:
 12339 093a 72657073 		.ascii	"reps\000"
 12339      00
 12340              	.LASF116:
 12341 093f 61726763 		.ascii	"argc\000"
 12341      00
 12342              	.LASF69:
 12343 0944 68616E64 		.ascii	"handle\000"
 12343      6C6500
 12344              	.LASF25:
 12345 094b 6D726263 		.ascii	"mrbc_sym\000"
 12345      5F73796D 
 12345      00
 12346              	.LASF44:
 12347 0954 4D524243 		.ascii	"MRBC_TT_FLOAT\000"
 12347      5F54545F 
 12347      464C4F41 
 12347      5400
 12348              	.LASF12:
 12349 0962 6C6F6E67 		.ascii	"long int\000"
 12349      20696E74 
 12349      00
 12350              	.LASF118:
 12351 096b 635F6172 		.ascii	"c_array_empty\000"
 12351      7261795F 
 12351      656D7074 
 12351      7900
 12352              	.LASF42:
 12353 0979 4D524243 		.ascii	"MRBC_TT_TRUE\000"
 12353      5F54545F 
 12353      54525545 
 12353      00
 12354              	.LASF19:
 12355 0986 696E7431 		.ascii	"int16_t\000"
 12355      365F7400 
 12356              	.LASF112:
ARM GAS  C:\Users\164\AppData\Local\Temp\ccuYWdBJ.s 			page 252


 12357 098e 6E5F6172 		.ascii	"n_args\000"
 12357      677300
 12358              	.LASF45:
 12359 0995 4D524243 		.ascii	"MRBC_TT_SYMBOL\000"
 12359      5F54545F 
 12359      53594D42 
 12359      4F4C00
 12360              	.LASF76:
 12361 09a4 52436C61 		.ascii	"RClass\000"
 12361      737300
 12362              	.LASF106:
 12363 09ab 706F6F6C 		.ascii	"pools\000"
 12363      7300
 12364              		.ident	"GCC: (GNU Tools for ARM Embedded Processors) 5.4.1 20160609 (release) [ARM/embedded-5-bran
