ARM GAS  C:\Users\164\AppData\Local\Temp\ccySM5k9.s 			page 1


   1              		.syntax unified
   2              		.cpu cortex-m3
   3              		.fpu softvfp
   4              		.eabi_attribute 20, 1
   5              		.eabi_attribute 21, 1
   6              		.eabi_attribute 23, 3
   7              		.eabi_attribute 24, 1
   8              		.eabi_attribute 25, 1
   9              		.eabi_attribute 26, 1
  10              		.eabi_attribute 30, 1
  11              		.eabi_attribute 34, 1
  12              		.eabi_attribute 18, 4
  13              		.thumb
  14              		.syntax unified
  15              		.file	"c_hash.c"
  16              		.text
  17              	.Ltext0:
  18              		.cfi_sections	.debug_frame
  19              		.section	.text.c_hash_values,"ax",%progbits
  20              		.align	2
  21              		.thumb
  22              		.thumb_func
  23              		.type	c_hash_values, %function
  24              	c_hash_values:
  25              	.LFB37:
  26              		.file 1 "..\\..\\mruby_c2\\Design01.cydsn\\c_hash.c"
   1:..\..\mruby_c2\Design01.cydsn/c_hash.c **** /*! @file
   2:..\..\mruby_c2\Design01.cydsn/c_hash.c ****   @brief
   3:..\..\mruby_c2\Design01.cydsn/c_hash.c ****   mruby/c Hash class
   4:..\..\mruby_c2\Design01.cydsn/c_hash.c **** 
   5:..\..\mruby_c2\Design01.cydsn/c_hash.c ****   <pre>
   6:..\..\mruby_c2\Design01.cydsn/c_hash.c ****   Copyright (C) 2015-2018 Kyushu Institute of Technology.
   7:..\..\mruby_c2\Design01.cydsn/c_hash.c ****   Copyright (C) 2015-2018 Shimane IT Open-Innovation Center.
   8:..\..\mruby_c2\Design01.cydsn/c_hash.c **** 
   9:..\..\mruby_c2\Design01.cydsn/c_hash.c ****   This file is distributed under BSD 3-Clause License.
  10:..\..\mruby_c2\Design01.cydsn/c_hash.c **** 
  11:..\..\mruby_c2\Design01.cydsn/c_hash.c ****   </pre>
  12:..\..\mruby_c2\Design01.cydsn/c_hash.c **** */
  13:..\..\mruby_c2\Design01.cydsn/c_hash.c **** 
  14:..\..\mruby_c2\Design01.cydsn/c_hash.c **** #include "vm_config.h"
  15:..\..\mruby_c2\Design01.cydsn/c_hash.c **** #include <string.h>
  16:..\..\mruby_c2\Design01.cydsn/c_hash.c **** #include <assert.h>
  17:..\..\mruby_c2\Design01.cydsn/c_hash.c **** 
  18:..\..\mruby_c2\Design01.cydsn/c_hash.c **** #include "value.h"
  19:..\..\mruby_c2\Design01.cydsn/c_hash.c **** #include "vm.h"
  20:..\..\mruby_c2\Design01.cydsn/c_hash.c **** #include "alloc.h"
  21:..\..\mruby_c2\Design01.cydsn/c_hash.c **** #include "static.h"
  22:..\..\mruby_c2\Design01.cydsn/c_hash.c **** #include "class.h"
  23:..\..\mruby_c2\Design01.cydsn/c_hash.c **** #include "c_array.h"
  24:..\..\mruby_c2\Design01.cydsn/c_hash.c **** #include "c_hash.h"
  25:..\..\mruby_c2\Design01.cydsn/c_hash.c **** 
  26:..\..\mruby_c2\Design01.cydsn/c_hash.c **** /*
  27:..\..\mruby_c2\Design01.cydsn/c_hash.c ****   function summary
  28:..\..\mruby_c2\Design01.cydsn/c_hash.c **** 
  29:..\..\mruby_c2\Design01.cydsn/c_hash.c ****  (constructor)
  30:..\..\mruby_c2\Design01.cydsn/c_hash.c ****     mrbc_hash_new
  31:..\..\mruby_c2\Design01.cydsn/c_hash.c **** 
ARM GAS  C:\Users\164\AppData\Local\Temp\ccySM5k9.s 			page 2


  32:..\..\mruby_c2\Design01.cydsn/c_hash.c ****  (destructor)
  33:..\..\mruby_c2\Design01.cydsn/c_hash.c ****     mrbc_hash_delete
  34:..\..\mruby_c2\Design01.cydsn/c_hash.c **** 
  35:..\..\mruby_c2\Design01.cydsn/c_hash.c ****  (setter)
  36:..\..\mruby_c2\Design01.cydsn/c_hash.c ****   --[name]-------------[arg]---[ret]-------
  37:..\..\mruby_c2\Design01.cydsn/c_hash.c ****     mrbc_hash_set	*K,*V	int
  38:..\..\mruby_c2\Design01.cydsn/c_hash.c **** 
  39:..\..\mruby_c2\Design01.cydsn/c_hash.c ****  (getter)
  40:..\..\mruby_c2\Design01.cydsn/c_hash.c ****   --[name]-------------[arg]---[ret]---[note]------------------------
  41:..\..\mruby_c2\Design01.cydsn/c_hash.c ****     mrbc_hash_get	*K	T	Data remains in the container
  42:..\..\mruby_c2\Design01.cydsn/c_hash.c ****     mrbc_hash_remove	*K	T	Data does not remain in the container
  43:..\..\mruby_c2\Design01.cydsn/c_hash.c ****     mrbc_hash_i_next		*T	Data remains in the container
  44:..\..\mruby_c2\Design01.cydsn/c_hash.c **** */
  45:..\..\mruby_c2\Design01.cydsn/c_hash.c **** 
  46:..\..\mruby_c2\Design01.cydsn/c_hash.c **** 
  47:..\..\mruby_c2\Design01.cydsn/c_hash.c **** 
  48:..\..\mruby_c2\Design01.cydsn/c_hash.c **** //================================================================
  49:..\..\mruby_c2\Design01.cydsn/c_hash.c **** /*! constructor
  50:..\..\mruby_c2\Design01.cydsn/c_hash.c **** 
  51:..\..\mruby_c2\Design01.cydsn/c_hash.c ****   @param  vm	pointer to VM.
  52:..\..\mruby_c2\Design01.cydsn/c_hash.c ****   @param  size	initial size
  53:..\..\mruby_c2\Design01.cydsn/c_hash.c ****   @return 	hash object
  54:..\..\mruby_c2\Design01.cydsn/c_hash.c **** */
  55:..\..\mruby_c2\Design01.cydsn/c_hash.c **** mrb_value mrbc_hash_new(struct VM *vm, int size)
  56:..\..\mruby_c2\Design01.cydsn/c_hash.c **** {
  57:..\..\mruby_c2\Design01.cydsn/c_hash.c ****   mrb_value value = {.tt = MRB_TT_HASH};
  58:..\..\mruby_c2\Design01.cydsn/c_hash.c **** 
  59:..\..\mruby_c2\Design01.cydsn/c_hash.c ****   /*
  60:..\..\mruby_c2\Design01.cydsn/c_hash.c ****     Allocate handle and data buffer.
  61:..\..\mruby_c2\Design01.cydsn/c_hash.c ****   */
  62:..\..\mruby_c2\Design01.cydsn/c_hash.c ****   mrb_hash *h = mrbc_alloc(vm, sizeof(mrb_hash));
  63:..\..\mruby_c2\Design01.cydsn/c_hash.c ****   if( !h ) return value;	// ENOMEM
  64:..\..\mruby_c2\Design01.cydsn/c_hash.c **** 
  65:..\..\mruby_c2\Design01.cydsn/c_hash.c ****   mrb_value *data = mrbc_alloc(vm, sizeof(mrb_value) * size * 2);
  66:..\..\mruby_c2\Design01.cydsn/c_hash.c ****   if( !data ) {			// ENOMEM
  67:..\..\mruby_c2\Design01.cydsn/c_hash.c ****     mrbc_raw_free( h );
  68:..\..\mruby_c2\Design01.cydsn/c_hash.c ****     return value;
  69:..\..\mruby_c2\Design01.cydsn/c_hash.c ****   }
  70:..\..\mruby_c2\Design01.cydsn/c_hash.c **** 
  71:..\..\mruby_c2\Design01.cydsn/c_hash.c ****   h->ref_count = 1;
  72:..\..\mruby_c2\Design01.cydsn/c_hash.c ****   h->tt = MRB_TT_HASH;
  73:..\..\mruby_c2\Design01.cydsn/c_hash.c ****   h->data_size = size * 2;
  74:..\..\mruby_c2\Design01.cydsn/c_hash.c ****   h->n_stored = 0;
  75:..\..\mruby_c2\Design01.cydsn/c_hash.c ****   h->data = data;
  76:..\..\mruby_c2\Design01.cydsn/c_hash.c **** 
  77:..\..\mruby_c2\Design01.cydsn/c_hash.c ****   value.hash = h;
  78:..\..\mruby_c2\Design01.cydsn/c_hash.c ****   return value;
  79:..\..\mruby_c2\Design01.cydsn/c_hash.c **** }
  80:..\..\mruby_c2\Design01.cydsn/c_hash.c **** 
  81:..\..\mruby_c2\Design01.cydsn/c_hash.c **** 
  82:..\..\mruby_c2\Design01.cydsn/c_hash.c **** //================================================================
  83:..\..\mruby_c2\Design01.cydsn/c_hash.c **** /*! destructor
  84:..\..\mruby_c2\Design01.cydsn/c_hash.c **** 
  85:..\..\mruby_c2\Design01.cydsn/c_hash.c ****   @param  hash	pointer to target value
  86:..\..\mruby_c2\Design01.cydsn/c_hash.c **** */
  87:..\..\mruby_c2\Design01.cydsn/c_hash.c **** void mrbc_hash_delete(mrb_value *hash)
  88:..\..\mruby_c2\Design01.cydsn/c_hash.c **** {
ARM GAS  C:\Users\164\AppData\Local\Temp\ccySM5k9.s 			page 3


  89:..\..\mruby_c2\Design01.cydsn/c_hash.c ****   // TODO: delete other members (for search).
  90:..\..\mruby_c2\Design01.cydsn/c_hash.c **** 
  91:..\..\mruby_c2\Design01.cydsn/c_hash.c ****   mrbc_array_delete(hash);
  92:..\..\mruby_c2\Design01.cydsn/c_hash.c **** }
  93:..\..\mruby_c2\Design01.cydsn/c_hash.c **** 
  94:..\..\mruby_c2\Design01.cydsn/c_hash.c **** 
  95:..\..\mruby_c2\Design01.cydsn/c_hash.c **** //================================================================
  96:..\..\mruby_c2\Design01.cydsn/c_hash.c **** /*! search key
  97:..\..\mruby_c2\Design01.cydsn/c_hash.c **** 
  98:..\..\mruby_c2\Design01.cydsn/c_hash.c ****   @param  hash	pointer to target hash
  99:..\..\mruby_c2\Design01.cydsn/c_hash.c ****   @param  key	pointer to key value
 100:..\..\mruby_c2\Design01.cydsn/c_hash.c ****   @return	pointer to found key or NULL(not found).
 101:..\..\mruby_c2\Design01.cydsn/c_hash.c **** */
 102:..\..\mruby_c2\Design01.cydsn/c_hash.c **** mrb_value * mrbc_hash_search(const mrb_value *hash, const mrb_value *key)
 103:..\..\mruby_c2\Design01.cydsn/c_hash.c **** {
 104:..\..\mruby_c2\Design01.cydsn/c_hash.c **** #ifndef MRBC_HASH_SEARCH_LINER
 105:..\..\mruby_c2\Design01.cydsn/c_hash.c **** #define MRBC_HASH_SEARCH_LINER
 106:..\..\mruby_c2\Design01.cydsn/c_hash.c **** #endif
 107:..\..\mruby_c2\Design01.cydsn/c_hash.c **** 
 108:..\..\mruby_c2\Design01.cydsn/c_hash.c **** #ifdef MRBC_HASH_SEARCH_LINER
 109:..\..\mruby_c2\Design01.cydsn/c_hash.c ****   mrb_value *p1 = hash->hash->data;
 110:..\..\mruby_c2\Design01.cydsn/c_hash.c ****   const mrb_value *p2 = p1 + hash->hash->n_stored;
 111:..\..\mruby_c2\Design01.cydsn/c_hash.c **** 
 112:..\..\mruby_c2\Design01.cydsn/c_hash.c ****   while( p1 < p2 ) {
 113:..\..\mruby_c2\Design01.cydsn/c_hash.c ****     if( mrbc_compare(p1, key) == 0 ) return p1;
 114:..\..\mruby_c2\Design01.cydsn/c_hash.c ****     p1 += 2;
 115:..\..\mruby_c2\Design01.cydsn/c_hash.c ****   }
 116:..\..\mruby_c2\Design01.cydsn/c_hash.c ****   return NULL;
 117:..\..\mruby_c2\Design01.cydsn/c_hash.c **** #endif
 118:..\..\mruby_c2\Design01.cydsn/c_hash.c **** 
 119:..\..\mruby_c2\Design01.cydsn/c_hash.c **** #ifdef MRBC_HASH_SEARCH_LINER_ITERATOR
 120:..\..\mruby_c2\Design01.cydsn/c_hash.c ****   mrb_hash_iterator ite = mrbc_hash_iterator(hash);
 121:..\..\mruby_c2\Design01.cydsn/c_hash.c ****   while( mrbc_hash_i_has_next(&ite) ) {
 122:..\..\mruby_c2\Design01.cydsn/c_hash.c ****     mrb_value *v = mrbc_hash_i_next(&ite);
 123:..\..\mruby_c2\Design01.cydsn/c_hash.c ****     if( mrbc_compare( v, key ) == 0 ) return v;
 124:..\..\mruby_c2\Design01.cydsn/c_hash.c ****   }
 125:..\..\mruby_c2\Design01.cydsn/c_hash.c ****   return NULL;
 126:..\..\mruby_c2\Design01.cydsn/c_hash.c **** #endif
 127:..\..\mruby_c2\Design01.cydsn/c_hash.c **** }
 128:..\..\mruby_c2\Design01.cydsn/c_hash.c **** 
 129:..\..\mruby_c2\Design01.cydsn/c_hash.c **** 
 130:..\..\mruby_c2\Design01.cydsn/c_hash.c **** //================================================================
 131:..\..\mruby_c2\Design01.cydsn/c_hash.c **** /*! setter
 132:..\..\mruby_c2\Design01.cydsn/c_hash.c **** 
 133:..\..\mruby_c2\Design01.cydsn/c_hash.c ****   @param  hash	pointer to target hash
 134:..\..\mruby_c2\Design01.cydsn/c_hash.c ****   @param  key	pointer to key value
 135:..\..\mruby_c2\Design01.cydsn/c_hash.c ****   @param  val	pointer to value
 136:..\..\mruby_c2\Design01.cydsn/c_hash.c ****   @return	mrb_error_code
 137:..\..\mruby_c2\Design01.cydsn/c_hash.c **** */
 138:..\..\mruby_c2\Design01.cydsn/c_hash.c **** int mrbc_hash_set(mrb_value *hash, mrb_value *key, mrb_value *val)
 139:..\..\mruby_c2\Design01.cydsn/c_hash.c **** {
 140:..\..\mruby_c2\Design01.cydsn/c_hash.c ****   mrb_value *v = mrbc_hash_search(hash, key);
 141:..\..\mruby_c2\Design01.cydsn/c_hash.c ****   int ret = 0;
 142:..\..\mruby_c2\Design01.cydsn/c_hash.c ****   if( v == NULL ) {
 143:..\..\mruby_c2\Design01.cydsn/c_hash.c ****     // set a new value
 144:..\..\mruby_c2\Design01.cydsn/c_hash.c ****     if( (ret = mrbc_array_push(hash, key)) != 0 ) goto RETURN;
 145:..\..\mruby_c2\Design01.cydsn/c_hash.c ****     ret = mrbc_array_push(hash, val);
ARM GAS  C:\Users\164\AppData\Local\Temp\ccySM5k9.s 			page 4


 146:..\..\mruby_c2\Design01.cydsn/c_hash.c **** 
 147:..\..\mruby_c2\Design01.cydsn/c_hash.c ****   } else {
 148:..\..\mruby_c2\Design01.cydsn/c_hash.c ****     // replace a value
 149:..\..\mruby_c2\Design01.cydsn/c_hash.c ****     mrbc_dec_ref_counter(v);
 150:..\..\mruby_c2\Design01.cydsn/c_hash.c ****     *v = *key;
 151:..\..\mruby_c2\Design01.cydsn/c_hash.c ****     mrbc_dec_ref_counter(++v);
 152:..\..\mruby_c2\Design01.cydsn/c_hash.c ****     *v = *val;
 153:..\..\mruby_c2\Design01.cydsn/c_hash.c ****   }
 154:..\..\mruby_c2\Design01.cydsn/c_hash.c **** 
 155:..\..\mruby_c2\Design01.cydsn/c_hash.c ****  RETURN:
 156:..\..\mruby_c2\Design01.cydsn/c_hash.c ****   return ret;
 157:..\..\mruby_c2\Design01.cydsn/c_hash.c **** }
 158:..\..\mruby_c2\Design01.cydsn/c_hash.c **** 
 159:..\..\mruby_c2\Design01.cydsn/c_hash.c **** 
 160:..\..\mruby_c2\Design01.cydsn/c_hash.c **** //================================================================
 161:..\..\mruby_c2\Design01.cydsn/c_hash.c **** /*! getter
 162:..\..\mruby_c2\Design01.cydsn/c_hash.c **** 
 163:..\..\mruby_c2\Design01.cydsn/c_hash.c ****   @param  hash	pointer to target hash
 164:..\..\mruby_c2\Design01.cydsn/c_hash.c ****   @param  key	pointer to key value
 165:..\..\mruby_c2\Design01.cydsn/c_hash.c ****   @return	mrb_value data at key position or Nil.
 166:..\..\mruby_c2\Design01.cydsn/c_hash.c **** */
 167:..\..\mruby_c2\Design01.cydsn/c_hash.c **** mrb_value mrbc_hash_get(mrb_value *hash, mrb_value *key)
 168:..\..\mruby_c2\Design01.cydsn/c_hash.c **** {
 169:..\..\mruby_c2\Design01.cydsn/c_hash.c ****   mrb_value *v = mrbc_hash_search(hash, key);
 170:..\..\mruby_c2\Design01.cydsn/c_hash.c ****   return v ? *++v : mrb_nil_value();
 171:..\..\mruby_c2\Design01.cydsn/c_hash.c **** }
 172:..\..\mruby_c2\Design01.cydsn/c_hash.c **** 
 173:..\..\mruby_c2\Design01.cydsn/c_hash.c **** 
 174:..\..\mruby_c2\Design01.cydsn/c_hash.c **** //================================================================
 175:..\..\mruby_c2\Design01.cydsn/c_hash.c **** /*! remove a data
 176:..\..\mruby_c2\Design01.cydsn/c_hash.c **** 
 177:..\..\mruby_c2\Design01.cydsn/c_hash.c ****   @param  hash	pointer to target hash
 178:..\..\mruby_c2\Design01.cydsn/c_hash.c ****   @param  key	pointer to key value
 179:..\..\mruby_c2\Design01.cydsn/c_hash.c ****   @return	removed data or Nil
 180:..\..\mruby_c2\Design01.cydsn/c_hash.c **** */
 181:..\..\mruby_c2\Design01.cydsn/c_hash.c **** mrb_value mrbc_hash_remove(mrb_value *hash, mrb_value *key)
 182:..\..\mruby_c2\Design01.cydsn/c_hash.c **** {
 183:..\..\mruby_c2\Design01.cydsn/c_hash.c ****   mrb_value *v = mrbc_hash_search(hash, key);
 184:..\..\mruby_c2\Design01.cydsn/c_hash.c ****   if( v == NULL ) return mrb_nil_value();
 185:..\..\mruby_c2\Design01.cydsn/c_hash.c **** 
 186:..\..\mruby_c2\Design01.cydsn/c_hash.c ****   mrbc_dec_ref_counter(v);	// key
 187:..\..\mruby_c2\Design01.cydsn/c_hash.c ****   mrb_value val = v[1];		// value
 188:..\..\mruby_c2\Design01.cydsn/c_hash.c **** 
 189:..\..\mruby_c2\Design01.cydsn/c_hash.c ****   mrb_hash *h = hash->hash;
 190:..\..\mruby_c2\Design01.cydsn/c_hash.c ****   h->n_stored -= 2;
 191:..\..\mruby_c2\Design01.cydsn/c_hash.c **** 
 192:..\..\mruby_c2\Design01.cydsn/c_hash.c ****   memmove(v, v+2, (char*)(h->data + h->n_stored) - (char*)v);
 193:..\..\mruby_c2\Design01.cydsn/c_hash.c **** 
 194:..\..\mruby_c2\Design01.cydsn/c_hash.c ****   // TODO: re-index hash table if need.
 195:..\..\mruby_c2\Design01.cydsn/c_hash.c **** 
 196:..\..\mruby_c2\Design01.cydsn/c_hash.c ****   return val;
 197:..\..\mruby_c2\Design01.cydsn/c_hash.c **** }
 198:..\..\mruby_c2\Design01.cydsn/c_hash.c **** 
 199:..\..\mruby_c2\Design01.cydsn/c_hash.c **** 
 200:..\..\mruby_c2\Design01.cydsn/c_hash.c **** //================================================================
 201:..\..\mruby_c2\Design01.cydsn/c_hash.c **** /*! clear all
 202:..\..\mruby_c2\Design01.cydsn/c_hash.c **** 
ARM GAS  C:\Users\164\AppData\Local\Temp\ccySM5k9.s 			page 5


 203:..\..\mruby_c2\Design01.cydsn/c_hash.c ****   @param  hash	pointer to target hash
 204:..\..\mruby_c2\Design01.cydsn/c_hash.c **** */
 205:..\..\mruby_c2\Design01.cydsn/c_hash.c **** void mrbc_hash_clear(mrb_value *hash)
 206:..\..\mruby_c2\Design01.cydsn/c_hash.c **** {
 207:..\..\mruby_c2\Design01.cydsn/c_hash.c ****   mrbc_array_clear(hash);
 208:..\..\mruby_c2\Design01.cydsn/c_hash.c **** 
 209:..\..\mruby_c2\Design01.cydsn/c_hash.c ****   // TODO: re-index hash table if need.
 210:..\..\mruby_c2\Design01.cydsn/c_hash.c **** }
 211:..\..\mruby_c2\Design01.cydsn/c_hash.c **** 
 212:..\..\mruby_c2\Design01.cydsn/c_hash.c **** 
 213:..\..\mruby_c2\Design01.cydsn/c_hash.c **** //================================================================
 214:..\..\mruby_c2\Design01.cydsn/c_hash.c **** /*! compare
 215:..\..\mruby_c2\Design01.cydsn/c_hash.c **** 
 216:..\..\mruby_c2\Design01.cydsn/c_hash.c ****   @param  v1	Pointer to mrb_value
 217:..\..\mruby_c2\Design01.cydsn/c_hash.c ****   @param  v2	Pointer to another mrb_value
 218:..\..\mruby_c2\Design01.cydsn/c_hash.c ****   @retval 0	v1 == v2
 219:..\..\mruby_c2\Design01.cydsn/c_hash.c ****   @retval 1	v1 != v2
 220:..\..\mruby_c2\Design01.cydsn/c_hash.c **** */
 221:..\..\mruby_c2\Design01.cydsn/c_hash.c **** int mrbc_hash_compare(const mrb_value *v1, const mrb_value *v2)
 222:..\..\mruby_c2\Design01.cydsn/c_hash.c **** {
 223:..\..\mruby_c2\Design01.cydsn/c_hash.c ****   if( v1->hash->n_stored != v2->hash->n_stored ) return 1;
 224:..\..\mruby_c2\Design01.cydsn/c_hash.c **** 
 225:..\..\mruby_c2\Design01.cydsn/c_hash.c ****   mrb_value *d1 = v1->hash->data;
 226:..\..\mruby_c2\Design01.cydsn/c_hash.c ****   int i;
 227:..\..\mruby_c2\Design01.cydsn/c_hash.c ****   for( i = 0; i < mrbc_hash_size(v1); i++, d1++ ) {
 228:..\..\mruby_c2\Design01.cydsn/c_hash.c ****     mrb_value *d2 = mrbc_hash_search(v2, d1);	// check key
 229:..\..\mruby_c2\Design01.cydsn/c_hash.c ****     if( d2 == NULL ) return 1;
 230:..\..\mruby_c2\Design01.cydsn/c_hash.c ****     if( mrbc_compare( ++d1, ++d2 ) ) return 1;	// check data
 231:..\..\mruby_c2\Design01.cydsn/c_hash.c ****   }
 232:..\..\mruby_c2\Design01.cydsn/c_hash.c **** 
 233:..\..\mruby_c2\Design01.cydsn/c_hash.c ****   return 0;
 234:..\..\mruby_c2\Design01.cydsn/c_hash.c **** }
 235:..\..\mruby_c2\Design01.cydsn/c_hash.c **** 
 236:..\..\mruby_c2\Design01.cydsn/c_hash.c **** 
 237:..\..\mruby_c2\Design01.cydsn/c_hash.c **** //================================================================
 238:..\..\mruby_c2\Design01.cydsn/c_hash.c **** /*! duplicate
 239:..\..\mruby_c2\Design01.cydsn/c_hash.c **** 
 240:..\..\mruby_c2\Design01.cydsn/c_hash.c ****   @param  vm	pointer to VM.
 241:..\..\mruby_c2\Design01.cydsn/c_hash.c ****   @param  src	pointer to target hash.
 242:..\..\mruby_c2\Design01.cydsn/c_hash.c **** */
 243:..\..\mruby_c2\Design01.cydsn/c_hash.c **** mrb_value mrbc_hash_dup( struct VM *vm, mrb_value *src )
 244:..\..\mruby_c2\Design01.cydsn/c_hash.c **** {
 245:..\..\mruby_c2\Design01.cydsn/c_hash.c ****   mrb_value ret = mrbc_hash_new(vm, mrbc_hash_size(src));
 246:..\..\mruby_c2\Design01.cydsn/c_hash.c ****   if( ret.hash == NULL ) return ret;		// ENOMEM
 247:..\..\mruby_c2\Design01.cydsn/c_hash.c **** 
 248:..\..\mruby_c2\Design01.cydsn/c_hash.c ****   mrb_hash *h = src->hash;
 249:..\..\mruby_c2\Design01.cydsn/c_hash.c ****   memcpy( ret.hash->data, h->data, sizeof(mrb_value) * h->n_stored );
 250:..\..\mruby_c2\Design01.cydsn/c_hash.c ****   ret.hash->n_stored = h->n_stored;
 251:..\..\mruby_c2\Design01.cydsn/c_hash.c **** 
 252:..\..\mruby_c2\Design01.cydsn/c_hash.c ****   mrb_value *p1 = h->data;
 253:..\..\mruby_c2\Design01.cydsn/c_hash.c ****   const mrb_value *p2 = p1 + h->n_stored;
 254:..\..\mruby_c2\Design01.cydsn/c_hash.c ****   while( p1 < p2 ) {
 255:..\..\mruby_c2\Design01.cydsn/c_hash.c ****     mrbc_dup(p1++);
 256:..\..\mruby_c2\Design01.cydsn/c_hash.c ****   }
 257:..\..\mruby_c2\Design01.cydsn/c_hash.c **** 
 258:..\..\mruby_c2\Design01.cydsn/c_hash.c ****   // TODO: dup other members.
 259:..\..\mruby_c2\Design01.cydsn/c_hash.c **** 
ARM GAS  C:\Users\164\AppData\Local\Temp\ccySM5k9.s 			page 6


 260:..\..\mruby_c2\Design01.cydsn/c_hash.c ****   return ret;
 261:..\..\mruby_c2\Design01.cydsn/c_hash.c **** }
 262:..\..\mruby_c2\Design01.cydsn/c_hash.c **** 
 263:..\..\mruby_c2\Design01.cydsn/c_hash.c **** 
 264:..\..\mruby_c2\Design01.cydsn/c_hash.c **** 
 265:..\..\mruby_c2\Design01.cydsn/c_hash.c **** 
 266:..\..\mruby_c2\Design01.cydsn/c_hash.c **** //================================================================
 267:..\..\mruby_c2\Design01.cydsn/c_hash.c **** /*! (method) new
 268:..\..\mruby_c2\Design01.cydsn/c_hash.c **** */
 269:..\..\mruby_c2\Design01.cydsn/c_hash.c **** static void c_hash_new(mrb_vm *vm, mrb_value v[], int argc)
 270:..\..\mruby_c2\Design01.cydsn/c_hash.c **** {
 271:..\..\mruby_c2\Design01.cydsn/c_hash.c ****   mrb_value ret = mrbc_hash_new(vm, 0);
 272:..\..\mruby_c2\Design01.cydsn/c_hash.c ****   SET_RETURN(ret);
 273:..\..\mruby_c2\Design01.cydsn/c_hash.c **** }
 274:..\..\mruby_c2\Design01.cydsn/c_hash.c **** 
 275:..\..\mruby_c2\Design01.cydsn/c_hash.c **** 
 276:..\..\mruby_c2\Design01.cydsn/c_hash.c **** //================================================================
 277:..\..\mruby_c2\Design01.cydsn/c_hash.c **** /*! (operator) []
 278:..\..\mruby_c2\Design01.cydsn/c_hash.c **** */
 279:..\..\mruby_c2\Design01.cydsn/c_hash.c **** static void c_hash_get(mrb_vm *vm, mrb_value v[], int argc)
 280:..\..\mruby_c2\Design01.cydsn/c_hash.c **** {
 281:..\..\mruby_c2\Design01.cydsn/c_hash.c ****   if( argc != 1 ) {
 282:..\..\mruby_c2\Design01.cydsn/c_hash.c ****     return;	// raise ArgumentError.
 283:..\..\mruby_c2\Design01.cydsn/c_hash.c ****   }
 284:..\..\mruby_c2\Design01.cydsn/c_hash.c **** 
 285:..\..\mruby_c2\Design01.cydsn/c_hash.c ****   mrb_value val = mrbc_hash_get(&v[0], &v[1]);
 286:..\..\mruby_c2\Design01.cydsn/c_hash.c ****   mrbc_dup(&val);
 287:..\..\mruby_c2\Design01.cydsn/c_hash.c ****   SET_RETURN(val);
 288:..\..\mruby_c2\Design01.cydsn/c_hash.c **** }
 289:..\..\mruby_c2\Design01.cydsn/c_hash.c **** 
 290:..\..\mruby_c2\Design01.cydsn/c_hash.c **** 
 291:..\..\mruby_c2\Design01.cydsn/c_hash.c **** //================================================================
 292:..\..\mruby_c2\Design01.cydsn/c_hash.c **** /*! (operator) []=
 293:..\..\mruby_c2\Design01.cydsn/c_hash.c **** */
 294:..\..\mruby_c2\Design01.cydsn/c_hash.c **** static void c_hash_set(mrb_vm *vm, mrb_value v[], int argc)
 295:..\..\mruby_c2\Design01.cydsn/c_hash.c **** {
 296:..\..\mruby_c2\Design01.cydsn/c_hash.c ****   if( argc != 2 ) {
 297:..\..\mruby_c2\Design01.cydsn/c_hash.c ****     return;	// raise ArgumentError.
 298:..\..\mruby_c2\Design01.cydsn/c_hash.c ****   }
 299:..\..\mruby_c2\Design01.cydsn/c_hash.c **** 
 300:..\..\mruby_c2\Design01.cydsn/c_hash.c ****   mrb_value *v1 = &GET_ARG(1);
 301:..\..\mruby_c2\Design01.cydsn/c_hash.c ****   mrb_value *v2 = &GET_ARG(2);
 302:..\..\mruby_c2\Design01.cydsn/c_hash.c ****   mrbc_hash_set(v, v1, v2);
 303:..\..\mruby_c2\Design01.cydsn/c_hash.c ****   v1->tt = MRB_TT_EMPTY;
 304:..\..\mruby_c2\Design01.cydsn/c_hash.c ****   v2->tt = MRB_TT_EMPTY;
 305:..\..\mruby_c2\Design01.cydsn/c_hash.c **** }
 306:..\..\mruby_c2\Design01.cydsn/c_hash.c **** 
 307:..\..\mruby_c2\Design01.cydsn/c_hash.c **** 
 308:..\..\mruby_c2\Design01.cydsn/c_hash.c **** //================================================================
 309:..\..\mruby_c2\Design01.cydsn/c_hash.c **** /*! (method) clear
 310:..\..\mruby_c2\Design01.cydsn/c_hash.c **** */
 311:..\..\mruby_c2\Design01.cydsn/c_hash.c **** static void c_hash_clear(mrb_vm *vm, mrb_value v[], int argc)
 312:..\..\mruby_c2\Design01.cydsn/c_hash.c **** {
 313:..\..\mruby_c2\Design01.cydsn/c_hash.c ****   mrbc_hash_clear(v);
 314:..\..\mruby_c2\Design01.cydsn/c_hash.c **** }
 315:..\..\mruby_c2\Design01.cydsn/c_hash.c **** 
 316:..\..\mruby_c2\Design01.cydsn/c_hash.c **** 
ARM GAS  C:\Users\164\AppData\Local\Temp\ccySM5k9.s 			page 7


 317:..\..\mruby_c2\Design01.cydsn/c_hash.c **** //================================================================
 318:..\..\mruby_c2\Design01.cydsn/c_hash.c **** /*! (method) dup
 319:..\..\mruby_c2\Design01.cydsn/c_hash.c **** */
 320:..\..\mruby_c2\Design01.cydsn/c_hash.c **** static void c_hash_dup(mrb_vm *vm, mrb_value v[], int argc)
 321:..\..\mruby_c2\Design01.cydsn/c_hash.c **** {
 322:..\..\mruby_c2\Design01.cydsn/c_hash.c ****   mrb_value ret = mrbc_hash_dup( vm, &v[0] );
 323:..\..\mruby_c2\Design01.cydsn/c_hash.c **** 
 324:..\..\mruby_c2\Design01.cydsn/c_hash.c ****   SET_RETURN(ret);
 325:..\..\mruby_c2\Design01.cydsn/c_hash.c **** }
 326:..\..\mruby_c2\Design01.cydsn/c_hash.c **** 
 327:..\..\mruby_c2\Design01.cydsn/c_hash.c **** 
 328:..\..\mruby_c2\Design01.cydsn/c_hash.c **** //================================================================
 329:..\..\mruby_c2\Design01.cydsn/c_hash.c **** /*! (method) delete
 330:..\..\mruby_c2\Design01.cydsn/c_hash.c **** */
 331:..\..\mruby_c2\Design01.cydsn/c_hash.c **** static void c_hash_delete(mrb_vm *vm, mrb_value v[], int argc)
 332:..\..\mruby_c2\Design01.cydsn/c_hash.c **** {
 333:..\..\mruby_c2\Design01.cydsn/c_hash.c ****   // TODO : now, support only delete(key) -> object
 334:..\..\mruby_c2\Design01.cydsn/c_hash.c **** 
 335:..\..\mruby_c2\Design01.cydsn/c_hash.c ****   mrb_value ret = mrbc_hash_remove(v, v+1);
 336:..\..\mruby_c2\Design01.cydsn/c_hash.c **** 
 337:..\..\mruby_c2\Design01.cydsn/c_hash.c ****   // TODO: re-index hash table if need.
 338:..\..\mruby_c2\Design01.cydsn/c_hash.c **** 
 339:..\..\mruby_c2\Design01.cydsn/c_hash.c ****   SET_RETURN(ret);
 340:..\..\mruby_c2\Design01.cydsn/c_hash.c **** }
 341:..\..\mruby_c2\Design01.cydsn/c_hash.c **** 
 342:..\..\mruby_c2\Design01.cydsn/c_hash.c **** 
 343:..\..\mruby_c2\Design01.cydsn/c_hash.c **** //================================================================
 344:..\..\mruby_c2\Design01.cydsn/c_hash.c **** /*! (method) empty?
 345:..\..\mruby_c2\Design01.cydsn/c_hash.c **** */
 346:..\..\mruby_c2\Design01.cydsn/c_hash.c **** static void c_hash_empty(mrb_vm *vm, mrb_value v[], int argc)
 347:..\..\mruby_c2\Design01.cydsn/c_hash.c **** {
 348:..\..\mruby_c2\Design01.cydsn/c_hash.c ****   int n = mrbc_hash_size(v);
 349:..\..\mruby_c2\Design01.cydsn/c_hash.c **** 
 350:..\..\mruby_c2\Design01.cydsn/c_hash.c ****   if( n ) {
 351:..\..\mruby_c2\Design01.cydsn/c_hash.c ****     SET_FALSE_RETURN();
 352:..\..\mruby_c2\Design01.cydsn/c_hash.c ****   } else {
 353:..\..\mruby_c2\Design01.cydsn/c_hash.c ****     SET_TRUE_RETURN();
 354:..\..\mruby_c2\Design01.cydsn/c_hash.c ****   }
 355:..\..\mruby_c2\Design01.cydsn/c_hash.c **** }
 356:..\..\mruby_c2\Design01.cydsn/c_hash.c **** 
 357:..\..\mruby_c2\Design01.cydsn/c_hash.c **** 
 358:..\..\mruby_c2\Design01.cydsn/c_hash.c **** //================================================================
 359:..\..\mruby_c2\Design01.cydsn/c_hash.c **** /*! (method) has_key?
 360:..\..\mruby_c2\Design01.cydsn/c_hash.c **** */
 361:..\..\mruby_c2\Design01.cydsn/c_hash.c **** static void c_hash_has_key(mrb_vm *vm, mrb_value v[], int argc)
 362:..\..\mruby_c2\Design01.cydsn/c_hash.c **** {
 363:..\..\mruby_c2\Design01.cydsn/c_hash.c ****   mrb_value *res = mrbc_hash_search(v, v+1);
 364:..\..\mruby_c2\Design01.cydsn/c_hash.c **** 
 365:..\..\mruby_c2\Design01.cydsn/c_hash.c ****   if( res ) {
 366:..\..\mruby_c2\Design01.cydsn/c_hash.c ****     SET_TRUE_RETURN();
 367:..\..\mruby_c2\Design01.cydsn/c_hash.c ****   } else {
 368:..\..\mruby_c2\Design01.cydsn/c_hash.c ****     SET_FALSE_RETURN();
 369:..\..\mruby_c2\Design01.cydsn/c_hash.c ****   }
 370:..\..\mruby_c2\Design01.cydsn/c_hash.c **** }
 371:..\..\mruby_c2\Design01.cydsn/c_hash.c **** 
 372:..\..\mruby_c2\Design01.cydsn/c_hash.c **** 
 373:..\..\mruby_c2\Design01.cydsn/c_hash.c **** //================================================================
ARM GAS  C:\Users\164\AppData\Local\Temp\ccySM5k9.s 			page 8


 374:..\..\mruby_c2\Design01.cydsn/c_hash.c **** /*! (method) has_value?
 375:..\..\mruby_c2\Design01.cydsn/c_hash.c **** */
 376:..\..\mruby_c2\Design01.cydsn/c_hash.c **** static void c_hash_has_value(mrb_vm *vm, mrb_value v[], int argc)
 377:..\..\mruby_c2\Design01.cydsn/c_hash.c **** {
 378:..\..\mruby_c2\Design01.cydsn/c_hash.c ****   int ret = 0;
 379:..\..\mruby_c2\Design01.cydsn/c_hash.c ****   mrb_hash_iterator ite = mrbc_hash_iterator(&v[0]);
 380:..\..\mruby_c2\Design01.cydsn/c_hash.c **** 
 381:..\..\mruby_c2\Design01.cydsn/c_hash.c ****   while( mrbc_hash_i_has_next(&ite) ) {
 382:..\..\mruby_c2\Design01.cydsn/c_hash.c ****     mrb_value *val = mrbc_hash_i_next(&ite) + 1;	// skip key, get value
 383:..\..\mruby_c2\Design01.cydsn/c_hash.c ****     if( mrbc_compare(val, &v[1]) == 0 ) {
 384:..\..\mruby_c2\Design01.cydsn/c_hash.c ****       ret = 1;
 385:..\..\mruby_c2\Design01.cydsn/c_hash.c ****       break;
 386:..\..\mruby_c2\Design01.cydsn/c_hash.c ****     }
 387:..\..\mruby_c2\Design01.cydsn/c_hash.c ****   }
 388:..\..\mruby_c2\Design01.cydsn/c_hash.c **** 
 389:..\..\mruby_c2\Design01.cydsn/c_hash.c ****   if( ret ) {
 390:..\..\mruby_c2\Design01.cydsn/c_hash.c ****     SET_TRUE_RETURN();
 391:..\..\mruby_c2\Design01.cydsn/c_hash.c ****   } else {
 392:..\..\mruby_c2\Design01.cydsn/c_hash.c ****     SET_FALSE_RETURN();
 393:..\..\mruby_c2\Design01.cydsn/c_hash.c ****   }
 394:..\..\mruby_c2\Design01.cydsn/c_hash.c **** }
 395:..\..\mruby_c2\Design01.cydsn/c_hash.c **** 
 396:..\..\mruby_c2\Design01.cydsn/c_hash.c **** 
 397:..\..\mruby_c2\Design01.cydsn/c_hash.c **** //================================================================
 398:..\..\mruby_c2\Design01.cydsn/c_hash.c **** /*! (method) key
 399:..\..\mruby_c2\Design01.cydsn/c_hash.c **** */
 400:..\..\mruby_c2\Design01.cydsn/c_hash.c **** static void c_hash_key(mrb_vm *vm, mrb_value v[], int argc)
 401:..\..\mruby_c2\Design01.cydsn/c_hash.c **** {
 402:..\..\mruby_c2\Design01.cydsn/c_hash.c ****   mrb_value *ret = NULL;
 403:..\..\mruby_c2\Design01.cydsn/c_hash.c ****   mrb_hash_iterator ite = mrbc_hash_iterator(&v[0]);
 404:..\..\mruby_c2\Design01.cydsn/c_hash.c **** 
 405:..\..\mruby_c2\Design01.cydsn/c_hash.c ****   while( mrbc_hash_i_has_next(&ite) ) {
 406:..\..\mruby_c2\Design01.cydsn/c_hash.c ****     mrb_value *kv = mrbc_hash_i_next(&ite);
 407:..\..\mruby_c2\Design01.cydsn/c_hash.c ****     if( mrbc_compare( &kv[1], &v[1]) == 0 ) {
 408:..\..\mruby_c2\Design01.cydsn/c_hash.c ****       mrbc_dup( &kv[0] );
 409:..\..\mruby_c2\Design01.cydsn/c_hash.c ****       ret = &kv[0];
 410:..\..\mruby_c2\Design01.cydsn/c_hash.c ****       break;
 411:..\..\mruby_c2\Design01.cydsn/c_hash.c ****     }
 412:..\..\mruby_c2\Design01.cydsn/c_hash.c ****   }
 413:..\..\mruby_c2\Design01.cydsn/c_hash.c **** 
 414:..\..\mruby_c2\Design01.cydsn/c_hash.c ****   if( ret ) {
 415:..\..\mruby_c2\Design01.cydsn/c_hash.c ****     SET_RETURN(*ret);
 416:..\..\mruby_c2\Design01.cydsn/c_hash.c ****   } else {
 417:..\..\mruby_c2\Design01.cydsn/c_hash.c ****     SET_NIL_RETURN();
 418:..\..\mruby_c2\Design01.cydsn/c_hash.c ****   }
 419:..\..\mruby_c2\Design01.cydsn/c_hash.c **** }
 420:..\..\mruby_c2\Design01.cydsn/c_hash.c **** 
 421:..\..\mruby_c2\Design01.cydsn/c_hash.c **** 
 422:..\..\mruby_c2\Design01.cydsn/c_hash.c **** //================================================================
 423:..\..\mruby_c2\Design01.cydsn/c_hash.c **** /*! (method) keys
 424:..\..\mruby_c2\Design01.cydsn/c_hash.c **** */
 425:..\..\mruby_c2\Design01.cydsn/c_hash.c **** static void c_hash_keys(mrb_vm *vm, mrb_value v[], int argc)
 426:..\..\mruby_c2\Design01.cydsn/c_hash.c **** {
 427:..\..\mruby_c2\Design01.cydsn/c_hash.c ****   mrb_value ret = mrbc_array_new( vm, mrbc_hash_size(v) );
 428:..\..\mruby_c2\Design01.cydsn/c_hash.c ****   mrb_hash_iterator ite = mrbc_hash_iterator(v);
 429:..\..\mruby_c2\Design01.cydsn/c_hash.c **** 
 430:..\..\mruby_c2\Design01.cydsn/c_hash.c ****   while( mrbc_hash_i_has_next(&ite) ) {
ARM GAS  C:\Users\164\AppData\Local\Temp\ccySM5k9.s 			page 9


 431:..\..\mruby_c2\Design01.cydsn/c_hash.c ****     mrb_value *key = mrbc_hash_i_next(&ite);
 432:..\..\mruby_c2\Design01.cydsn/c_hash.c ****     mrbc_array_push(&ret, key);
 433:..\..\mruby_c2\Design01.cydsn/c_hash.c ****     mrbc_dup(key);
 434:..\..\mruby_c2\Design01.cydsn/c_hash.c ****   }
 435:..\..\mruby_c2\Design01.cydsn/c_hash.c **** 
 436:..\..\mruby_c2\Design01.cydsn/c_hash.c ****   SET_RETURN(ret);
 437:..\..\mruby_c2\Design01.cydsn/c_hash.c **** }
 438:..\..\mruby_c2\Design01.cydsn/c_hash.c **** 
 439:..\..\mruby_c2\Design01.cydsn/c_hash.c **** 
 440:..\..\mruby_c2\Design01.cydsn/c_hash.c **** //================================================================
 441:..\..\mruby_c2\Design01.cydsn/c_hash.c **** /*! (method) size,length,count
 442:..\..\mruby_c2\Design01.cydsn/c_hash.c **** */
 443:..\..\mruby_c2\Design01.cydsn/c_hash.c **** static void c_hash_size(mrb_vm *vm, mrb_value v[], int argc)
 444:..\..\mruby_c2\Design01.cydsn/c_hash.c **** {
 445:..\..\mruby_c2\Design01.cydsn/c_hash.c ****   int n = mrbc_hash_size(v);
 446:..\..\mruby_c2\Design01.cydsn/c_hash.c **** 
 447:..\..\mruby_c2\Design01.cydsn/c_hash.c ****   SET_INT_RETURN(n);
 448:..\..\mruby_c2\Design01.cydsn/c_hash.c **** }
 449:..\..\mruby_c2\Design01.cydsn/c_hash.c **** 
 450:..\..\mruby_c2\Design01.cydsn/c_hash.c **** 
 451:..\..\mruby_c2\Design01.cydsn/c_hash.c **** //================================================================
 452:..\..\mruby_c2\Design01.cydsn/c_hash.c **** /*! (method) merge
 453:..\..\mruby_c2\Design01.cydsn/c_hash.c **** */
 454:..\..\mruby_c2\Design01.cydsn/c_hash.c **** static void c_hash_merge(mrb_vm *vm, mrb_value v[], int argc)
 455:..\..\mruby_c2\Design01.cydsn/c_hash.c **** {
 456:..\..\mruby_c2\Design01.cydsn/c_hash.c ****   mrb_value ret = mrbc_hash_dup( vm, &v[0] );
 457:..\..\mruby_c2\Design01.cydsn/c_hash.c ****   mrb_hash_iterator ite = mrbc_hash_iterator(&v[1]);
 458:..\..\mruby_c2\Design01.cydsn/c_hash.c **** 
 459:..\..\mruby_c2\Design01.cydsn/c_hash.c ****   while( mrbc_hash_i_has_next(&ite) ) {
 460:..\..\mruby_c2\Design01.cydsn/c_hash.c ****     mrb_value *kv = mrbc_hash_i_next(&ite);
 461:..\..\mruby_c2\Design01.cydsn/c_hash.c ****     mrbc_hash_set( &ret, &kv[0], &kv[1] );
 462:..\..\mruby_c2\Design01.cydsn/c_hash.c ****     mrbc_dup( &kv[0] );
 463:..\..\mruby_c2\Design01.cydsn/c_hash.c ****     mrbc_dup( &kv[1] );
 464:..\..\mruby_c2\Design01.cydsn/c_hash.c ****   }
 465:..\..\mruby_c2\Design01.cydsn/c_hash.c **** 
 466:..\..\mruby_c2\Design01.cydsn/c_hash.c ****   SET_RETURN(ret);
 467:..\..\mruby_c2\Design01.cydsn/c_hash.c **** }
 468:..\..\mruby_c2\Design01.cydsn/c_hash.c **** 
 469:..\..\mruby_c2\Design01.cydsn/c_hash.c **** 
 470:..\..\mruby_c2\Design01.cydsn/c_hash.c **** //================================================================
 471:..\..\mruby_c2\Design01.cydsn/c_hash.c **** /*! (method) merge!
 472:..\..\mruby_c2\Design01.cydsn/c_hash.c **** */
 473:..\..\mruby_c2\Design01.cydsn/c_hash.c **** static void c_hash_merge_self(mrb_vm *vm, mrb_value v[], int argc)
 474:..\..\mruby_c2\Design01.cydsn/c_hash.c **** {
 475:..\..\mruby_c2\Design01.cydsn/c_hash.c ****   mrb_hash_iterator ite = mrbc_hash_iterator(&v[1]);
 476:..\..\mruby_c2\Design01.cydsn/c_hash.c **** 
 477:..\..\mruby_c2\Design01.cydsn/c_hash.c ****   while( mrbc_hash_i_has_next(&ite) ) {
 478:..\..\mruby_c2\Design01.cydsn/c_hash.c ****     mrb_value *kv = mrbc_hash_i_next(&ite);
 479:..\..\mruby_c2\Design01.cydsn/c_hash.c ****     mrbc_hash_set( v, &kv[0], &kv[1] );
 480:..\..\mruby_c2\Design01.cydsn/c_hash.c ****     mrbc_dup( &kv[0] );
 481:..\..\mruby_c2\Design01.cydsn/c_hash.c ****     mrbc_dup( &kv[1] );
 482:..\..\mruby_c2\Design01.cydsn/c_hash.c ****   }
 483:..\..\mruby_c2\Design01.cydsn/c_hash.c **** }
 484:..\..\mruby_c2\Design01.cydsn/c_hash.c **** 
 485:..\..\mruby_c2\Design01.cydsn/c_hash.c **** 
 486:..\..\mruby_c2\Design01.cydsn/c_hash.c **** //================================================================
 487:..\..\mruby_c2\Design01.cydsn/c_hash.c **** /*! (method) values
ARM GAS  C:\Users\164\AppData\Local\Temp\ccySM5k9.s 			page 10


 488:..\..\mruby_c2\Design01.cydsn/c_hash.c **** */
 489:..\..\mruby_c2\Design01.cydsn/c_hash.c **** static void c_hash_values(mrb_vm *vm, mrb_value v[], int argc)
 490:..\..\mruby_c2\Design01.cydsn/c_hash.c **** {
  27              		.loc 1 490 0
  28              		.cfi_startproc
  29              		@ args = 0, pretend = 0, frame = 40
  30              		@ frame_needed = 0, uses_anonymous_args = 0
  31              	.LVL0:
  32 0000 70B5     		push	{r4, r5, r6, lr}
  33              		.cfi_def_cfa_offset 16
  34              		.cfi_offset 4, -16
  35              		.cfi_offset 5, -12
  36              		.cfi_offset 6, -8
  37              		.cfi_offset 14, -4
  38 0002 8AB0     		sub	sp, sp, #40
  39              		.cfi_def_cfa_offset 56
  40 0004 0E46     		mov	r6, r1
  41              	.LVL1:
  42              	.LBB61:
  43              	.LBB62:
  44              		.file 2 "..\\..\\mruby_c2\\Design01.cydsn\\c_hash.h"
   1:..\..\mruby_c2\Design01.cydsn/c_hash.h **** /*! @file
   2:..\..\mruby_c2\Design01.cydsn/c_hash.h ****   @brief
   3:..\..\mruby_c2\Design01.cydsn/c_hash.h ****   mruby/c Hash class
   4:..\..\mruby_c2\Design01.cydsn/c_hash.h **** 
   5:..\..\mruby_c2\Design01.cydsn/c_hash.h ****   <pre>
   6:..\..\mruby_c2\Design01.cydsn/c_hash.h ****   Copyright (C) 2015-2018 Kyushu Institute of Technology.
   7:..\..\mruby_c2\Design01.cydsn/c_hash.h ****   Copyright (C) 2015-2018 Shimane IT Open-Innovation Center.
   8:..\..\mruby_c2\Design01.cydsn/c_hash.h **** 
   9:..\..\mruby_c2\Design01.cydsn/c_hash.h ****   This file is distributed under BSD 3-Clause License.
  10:..\..\mruby_c2\Design01.cydsn/c_hash.h **** 
  11:..\..\mruby_c2\Design01.cydsn/c_hash.h ****   </pre>
  12:..\..\mruby_c2\Design01.cydsn/c_hash.h **** */
  13:..\..\mruby_c2\Design01.cydsn/c_hash.h **** 
  14:..\..\mruby_c2\Design01.cydsn/c_hash.h **** #ifndef MRBC_SRC_C_HASH_H_
  15:..\..\mruby_c2\Design01.cydsn/c_hash.h **** #define MRBC_SRC_C_HASH_H_
  16:..\..\mruby_c2\Design01.cydsn/c_hash.h **** 
  17:..\..\mruby_c2\Design01.cydsn/c_hash.h **** #include "value.h"
  18:..\..\mruby_c2\Design01.cydsn/c_hash.h **** #include "c_array.h"
  19:..\..\mruby_c2\Design01.cydsn/c_hash.h **** 
  20:..\..\mruby_c2\Design01.cydsn/c_hash.h **** #ifdef __cplusplus
  21:..\..\mruby_c2\Design01.cydsn/c_hash.h **** extern "C" {
  22:..\..\mruby_c2\Design01.cydsn/c_hash.h **** #endif
  23:..\..\mruby_c2\Design01.cydsn/c_hash.h **** 
  24:..\..\mruby_c2\Design01.cydsn/c_hash.h **** //================================================================
  25:..\..\mruby_c2\Design01.cydsn/c_hash.h **** /*!@brief
  26:..\..\mruby_c2\Design01.cydsn/c_hash.h ****   Define Hash handle.
  27:..\..\mruby_c2\Design01.cydsn/c_hash.h **** */
  28:..\..\mruby_c2\Design01.cydsn/c_hash.h **** typedef struct RHash {
  29:..\..\mruby_c2\Design01.cydsn/c_hash.h ****   // (NOTE)
  30:..\..\mruby_c2\Design01.cydsn/c_hash.h ****   //  Needs to be same members and order as RArray.
  31:..\..\mruby_c2\Design01.cydsn/c_hash.h ****   MRBC_OBJECT_HEADER;
  32:..\..\mruby_c2\Design01.cydsn/c_hash.h **** 
  33:..\..\mruby_c2\Design01.cydsn/c_hash.h ****   uint16_t data_size;	//!< data buffer size.
  34:..\..\mruby_c2\Design01.cydsn/c_hash.h ****   uint16_t n_stored;	//!< # of stored.
  35:..\..\mruby_c2\Design01.cydsn/c_hash.h ****   mrb_value *data;	//!< pointer to allocated memory.
  36:..\..\mruby_c2\Design01.cydsn/c_hash.h **** 
ARM GAS  C:\Users\164\AppData\Local\Temp\ccySM5k9.s 			page 11


  37:..\..\mruby_c2\Design01.cydsn/c_hash.h ****   // TODO: and other member for search.
  38:..\..\mruby_c2\Design01.cydsn/c_hash.h **** 
  39:..\..\mruby_c2\Design01.cydsn/c_hash.h **** } mrb_hash;
  40:..\..\mruby_c2\Design01.cydsn/c_hash.h **** 
  41:..\..\mruby_c2\Design01.cydsn/c_hash.h **** 
  42:..\..\mruby_c2\Design01.cydsn/c_hash.h **** //================================================================
  43:..\..\mruby_c2\Design01.cydsn/c_hash.h **** /*!@brief
  44:..\..\mruby_c2\Design01.cydsn/c_hash.h ****   Define Hash iterator.
  45:..\..\mruby_c2\Design01.cydsn/c_hash.h **** */
  46:..\..\mruby_c2\Design01.cydsn/c_hash.h **** typedef struct RHashIterator {
  47:..\..\mruby_c2\Design01.cydsn/c_hash.h ****   mrb_hash *target;
  48:..\..\mruby_c2\Design01.cydsn/c_hash.h ****   mrb_value *point;
  49:..\..\mruby_c2\Design01.cydsn/c_hash.h ****   mrb_value *p_end;
  50:..\..\mruby_c2\Design01.cydsn/c_hash.h **** } mrb_hash_iterator;
  51:..\..\mruby_c2\Design01.cydsn/c_hash.h **** 
  52:..\..\mruby_c2\Design01.cydsn/c_hash.h **** 
  53:..\..\mruby_c2\Design01.cydsn/c_hash.h **** mrb_value mrbc_hash_new(struct VM *vm, int size);
  54:..\..\mruby_c2\Design01.cydsn/c_hash.h **** void mrbc_hash_delete(mrb_value *hash);
  55:..\..\mruby_c2\Design01.cydsn/c_hash.h **** mrb_value *mrbc_hash_search(const mrb_value *hash, const mrb_value *key);
  56:..\..\mruby_c2\Design01.cydsn/c_hash.h **** int mrbc_hash_set(mrb_value *hash, mrb_value *key, mrb_value *val);
  57:..\..\mruby_c2\Design01.cydsn/c_hash.h **** mrb_value mrbc_hash_get(mrb_value *hash, mrb_value *key);
  58:..\..\mruby_c2\Design01.cydsn/c_hash.h **** mrb_value mrbc_hash_remove(mrb_value *hash, mrb_value *key);
  59:..\..\mruby_c2\Design01.cydsn/c_hash.h **** void mrbc_hash_clear(mrb_value *hash);
  60:..\..\mruby_c2\Design01.cydsn/c_hash.h **** int mrbc_hash_compare(const mrb_value *v1, const mrb_value *v2);
  61:..\..\mruby_c2\Design01.cydsn/c_hash.h **** mrb_value mrbc_hash_dup(struct VM *vm, mrb_value *src);
  62:..\..\mruby_c2\Design01.cydsn/c_hash.h **** void mrbc_init_class_hash(struct VM *vm);
  63:..\..\mruby_c2\Design01.cydsn/c_hash.h **** 
  64:..\..\mruby_c2\Design01.cydsn/c_hash.h **** 
  65:..\..\mruby_c2\Design01.cydsn/c_hash.h **** //================================================================
  66:..\..\mruby_c2\Design01.cydsn/c_hash.h **** /*! get size
  67:..\..\mruby_c2\Design01.cydsn/c_hash.h **** */
  68:..\..\mruby_c2\Design01.cydsn/c_hash.h **** inline static int mrbc_hash_size(const mrb_value *hash) {
  69:..\..\mruby_c2\Design01.cydsn/c_hash.h ****   return hash->hash->n_stored / 2;
  45              		.loc 2 69 0
  46 0006 8B68     		ldr	r3, [r1, #8]
  47 0008 DA88     		ldrh	r2, [r3, #6]
  48              	.LVL2:
  49              	.LBE62:
  50              	.LBE61:
 491:..\..\mruby_c2\Design01.cydsn/c_hash.c ****   mrb_value ret = mrbc_array_new( vm, mrbc_hash_size(v) );
  51              		.loc 1 491 0
  52 000a 5208     		lsrs	r2, r2, #1
  53 000c 0146     		mov	r1, r0
  54              	.LVL3:
  55 000e 06A8     		add	r0, sp, #24
  56              	.LVL4:
  57 0010 FFF7FEFF 		bl	mrbc_array_new
  58              	.LVL5:
  59              	.LBB63:
  60              	.LBB64:
  70:..\..\mruby_c2\Design01.cydsn/c_hash.h **** }
  71:..\..\mruby_c2\Design01.cydsn/c_hash.h **** 
  72:..\..\mruby_c2\Design01.cydsn/c_hash.h **** //================================================================
  73:..\..\mruby_c2\Design01.cydsn/c_hash.h **** /*! clear vm_id
  74:..\..\mruby_c2\Design01.cydsn/c_hash.h **** */
  75:..\..\mruby_c2\Design01.cydsn/c_hash.h **** inline static void mrbc_hash_clear_vm_id(mrb_value *hash) {
  76:..\..\mruby_c2\Design01.cydsn/c_hash.h ****   mrbc_array_clear_vm_id(hash);
ARM GAS  C:\Users\164\AppData\Local\Temp\ccySM5k9.s 			page 12


  77:..\..\mruby_c2\Design01.cydsn/c_hash.h **** }
  78:..\..\mruby_c2\Design01.cydsn/c_hash.h **** 
  79:..\..\mruby_c2\Design01.cydsn/c_hash.h **** //================================================================
  80:..\..\mruby_c2\Design01.cydsn/c_hash.h **** /*! resize buffer
  81:..\..\mruby_c2\Design01.cydsn/c_hash.h **** */
  82:..\..\mruby_c2\Design01.cydsn/c_hash.h **** inline static int mrbc_hash_resize(mrb_value *hash, int size)
  83:..\..\mruby_c2\Design01.cydsn/c_hash.h **** {
  84:..\..\mruby_c2\Design01.cydsn/c_hash.h ****   return mrbc_array_resize(hash, size * 2);
  85:..\..\mruby_c2\Design01.cydsn/c_hash.h **** }
  86:..\..\mruby_c2\Design01.cydsn/c_hash.h **** 
  87:..\..\mruby_c2\Design01.cydsn/c_hash.h **** 
  88:..\..\mruby_c2\Design01.cydsn/c_hash.h **** //================================================================
  89:..\..\mruby_c2\Design01.cydsn/c_hash.h **** /*! iterator constructor
  90:..\..\mruby_c2\Design01.cydsn/c_hash.h **** */
  91:..\..\mruby_c2\Design01.cydsn/c_hash.h **** inline static mrb_hash_iterator mrbc_hash_iterator( mrb_value *v )
  92:..\..\mruby_c2\Design01.cydsn/c_hash.h **** {
  93:..\..\mruby_c2\Design01.cydsn/c_hash.h ****   mrb_hash_iterator ite;
  94:..\..\mruby_c2\Design01.cydsn/c_hash.h ****   ite.target = v->hash;
  61              		.loc 2 94 0
  62 0014 B268     		ldr	r2, [r6, #8]
  63 0016 0092     		str	r2, [sp]
  95:..\..\mruby_c2\Design01.cydsn/c_hash.h ****   ite.point = v->hash->data;
  64              		.loc 2 95 0
  65 0018 9368     		ldr	r3, [r2, #8]
  66 001a 0193     		str	r3, [sp, #4]
  96:..\..\mruby_c2\Design01.cydsn/c_hash.h ****   ite.p_end = ite.point + v->hash->n_stored;
  67              		.loc 2 96 0
  68 001c D588     		ldrh	r5, [r2, #6]
  69 001e 03EB0515 		add	r5, r3, r5, lsl #4
  70 0022 0295     		str	r5, [sp, #8]
  97:..\..\mruby_c2\Design01.cydsn/c_hash.h **** 
  98:..\..\mruby_c2\Design01.cydsn/c_hash.h ****   return ite;
  71              		.loc 2 98 0
  72 0024 03AB     		add	r3, sp, #12
  73 0026 9DE80700 		ldmia	sp, {r0, r1, r2}
  74 002a 83E80700 		stmia	r3, {r0, r1, r2}
  75 002e 0BE0     		b	.L2
  76              	.L3:
  77              	.LVL6:
  78              	.LBE64:
  79              	.LBE63:
  80              	.LBB65:
  81              	.LBB66:
  82              	.LBB67:
  99:..\..\mruby_c2\Design01.cydsn/c_hash.h **** }
 100:..\..\mruby_c2\Design01.cydsn/c_hash.h **** 
 101:..\..\mruby_c2\Design01.cydsn/c_hash.h **** //================================================================
 102:..\..\mruby_c2\Design01.cydsn/c_hash.h **** /*! iterator has_next?
 103:..\..\mruby_c2\Design01.cydsn/c_hash.h **** */
 104:..\..\mruby_c2\Design01.cydsn/c_hash.h **** inline static int mrbc_hash_i_has_next( mrb_hash_iterator *ite )
 105:..\..\mruby_c2\Design01.cydsn/c_hash.h **** {
 106:..\..\mruby_c2\Design01.cydsn/c_hash.h ****   return ite->point < ite->p_end;
 107:..\..\mruby_c2\Design01.cydsn/c_hash.h **** }
 108:..\..\mruby_c2\Design01.cydsn/c_hash.h **** 
 109:..\..\mruby_c2\Design01.cydsn/c_hash.h **** //================================================================
 110:..\..\mruby_c2\Design01.cydsn/c_hash.h **** /*! iterator getter
 111:..\..\mruby_c2\Design01.cydsn/c_hash.h **** */
ARM GAS  C:\Users\164\AppData\Local\Temp\ccySM5k9.s 			page 13


 112:..\..\mruby_c2\Design01.cydsn/c_hash.h **** inline static mrb_value *mrbc_hash_i_next( mrb_hash_iterator *ite )
 113:..\..\mruby_c2\Design01.cydsn/c_hash.h **** {
 114:..\..\mruby_c2\Design01.cydsn/c_hash.h ****   mrb_value *ret = ite->point;
 115:..\..\mruby_c2\Design01.cydsn/c_hash.h ****   ite->point += 2;
  83              		.loc 2 115 0
  84 0030 00F12003 		add	r3, r0, #32
  85 0034 0493     		str	r3, [sp, #16]
  86              	.LVL7:
  87              	.LBE67:
  88              	.LBE66:
 492:..\..\mruby_c2\Design01.cydsn/c_hash.c ****   mrb_hash_iterator ite = mrbc_hash_iterator(v);
 493:..\..\mruby_c2\Design01.cydsn/c_hash.c **** 
 494:..\..\mruby_c2\Design01.cydsn/c_hash.c ****   while( mrbc_hash_i_has_next(&ite) ) {
 495:..\..\mruby_c2\Design01.cydsn/c_hash.c ****     mrb_value *val = mrbc_hash_i_next(&ite) + 1;
  89              		.loc 1 495 0
  90 0036 00F11004 		add	r4, r0, #16
  91              	.LVL8:
 496:..\..\mruby_c2\Design01.cydsn/c_hash.c ****     mrbc_array_push(&ret, val);
  92              		.loc 1 496 0
  93 003a 2146     		mov	r1, r4
  94 003c 06A8     		add	r0, sp, #24
  95 003e FFF7FEFF 		bl	mrbc_array_push
  96              	.LVL9:
 497:..\..\mruby_c2\Design01.cydsn/c_hash.c ****     mrbc_dup(val);
  97              		.loc 1 497 0
  98 0042 2046     		mov	r0, r4
  99 0044 FFF7FEFF 		bl	mrbc_dup
 100              	.LVL10:
 101              	.L2:
 102              	.LBE65:
 103              	.LBB68:
 104              	.LBB69:
 106:..\..\mruby_c2\Design01.cydsn/c_hash.h **** }
 105              		.loc 2 106 0
 106 0048 0498     		ldr	r0, [sp, #16]
 107              	.LVL11:
 108              	.LBE69:
 109              	.LBE68:
 494:..\..\mruby_c2\Design01.cydsn/c_hash.c ****     mrb_value *val = mrbc_hash_i_next(&ite) + 1;
 110              		.loc 1 494 0
 111 004a A842     		cmp	r0, r5
 112 004c F0D3     		bcc	.L3
 498:..\..\mruby_c2\Design01.cydsn/c_hash.c ****   }
 499:..\..\mruby_c2\Design01.cydsn/c_hash.c **** 
 500:..\..\mruby_c2\Design01.cydsn/c_hash.c ****   SET_RETURN(ret);
 113              		.loc 1 500 0
 114 004e 3046     		mov	r0, r6
 115 0050 FFF7FEFF 		bl	mrbc_release
 116              	.LVL12:
 117 0054 0AAB     		add	r3, sp, #40
 118 0056 13E90F00 		ldmdb	r3, {r0, r1, r2, r3}
 119 005a 86E80F00 		stmia	r6, {r0, r1, r2, r3}
 501:..\..\mruby_c2\Design01.cydsn/c_hash.c **** }
 120              		.loc 1 501 0
 121 005e 0AB0     		add	sp, sp, #40
 122              		.cfi_def_cfa_offset 16
 123              		@ sp needed
ARM GAS  C:\Users\164\AppData\Local\Temp\ccySM5k9.s 			page 14


 124 0060 70BD     		pop	{r4, r5, r6, pc}
 125              		.cfi_endproc
 126              	.LFE37:
 127              		.size	c_hash_values, .-c_hash_values
 128 0062 00BF     		.section	.text.c_hash_size,"ax",%progbits
 129              		.align	2
 130              		.thumb
 131              		.thumb_func
 132              		.type	c_hash_size, %function
 133              	c_hash_size:
 134              	.LFB34:
 444:..\..\mruby_c2\Design01.cydsn/c_hash.c ****   int n = mrbc_hash_size(v);
 135              		.loc 1 444 0
 136              		.cfi_startproc
 137              		@ args = 0, pretend = 0, frame = 0
 138              		@ frame_needed = 0, uses_anonymous_args = 0
 139              	.LVL13:
 140 0000 38B5     		push	{r3, r4, r5, lr}
 141              		.cfi_def_cfa_offset 16
 142              		.cfi_offset 3, -16
 143              		.cfi_offset 4, -12
 144              		.cfi_offset 5, -8
 145              		.cfi_offset 14, -4
 146 0002 0C46     		mov	r4, r1
 147              	.LVL14:
 148              	.LBB70:
 149              	.LBB71:
  69:..\..\mruby_c2\Design01.cydsn/c_hash.h **** }
 150              		.loc 2 69 0
 151 0004 8B68     		ldr	r3, [r1, #8]
 152 0006 DD88     		ldrh	r5, [r3, #6]
 153 0008 6D08     		lsrs	r5, r5, #1
 154              	.LVL15:
 155              	.LBE71:
 156              	.LBE70:
 447:..\..\mruby_c2\Design01.cydsn/c_hash.c **** }
 157              		.loc 1 447 0
 158 000a 0846     		mov	r0, r1
 159              	.LVL16:
 160 000c FFF7FEFF 		bl	mrbc_release
 161              	.LVL17:
 162 0010 0423     		movs	r3, #4
 163 0012 2370     		strb	r3, [r4]
 164 0014 A560     		str	r5, [r4, #8]
 165 0016 38BD     		pop	{r3, r4, r5, pc}
 166              		.cfi_endproc
 167              	.LFE34:
 168              		.size	c_hash_size, .-c_hash_size
 169              		.section	.text.c_hash_keys,"ax",%progbits
 170              		.align	2
 171              		.thumb
 172              		.thumb_func
 173              		.type	c_hash_keys, %function
 174              	c_hash_keys:
 175              	.LFB33:
 426:..\..\mruby_c2\Design01.cydsn/c_hash.c ****   mrb_value ret = mrbc_array_new( vm, mrbc_hash_size(v) );
 176              		.loc 1 426 0
ARM GAS  C:\Users\164\AppData\Local\Temp\ccySM5k9.s 			page 15


 177              		.cfi_startproc
 178              		@ args = 0, pretend = 0, frame = 40
 179              		@ frame_needed = 0, uses_anonymous_args = 0
 180              	.LVL18:
 181 0000 70B5     		push	{r4, r5, r6, lr}
 182              		.cfi_def_cfa_offset 16
 183              		.cfi_offset 4, -16
 184              		.cfi_offset 5, -12
 185              		.cfi_offset 6, -8
 186              		.cfi_offset 14, -4
 187 0002 8AB0     		sub	sp, sp, #40
 188              		.cfi_def_cfa_offset 56
 189 0004 0E46     		mov	r6, r1
 190              	.LVL19:
 191              	.LBB72:
 192              	.LBB73:
  69:..\..\mruby_c2\Design01.cydsn/c_hash.h **** }
 193              		.loc 2 69 0
 194 0006 8B68     		ldr	r3, [r1, #8]
 195 0008 DA88     		ldrh	r2, [r3, #6]
 196              	.LVL20:
 197              	.LBE73:
 198              	.LBE72:
 427:..\..\mruby_c2\Design01.cydsn/c_hash.c ****   mrb_hash_iterator ite = mrbc_hash_iterator(v);
 199              		.loc 1 427 0
 200 000a 5208     		lsrs	r2, r2, #1
 201 000c 0146     		mov	r1, r0
 202              	.LVL21:
 203 000e 06A8     		add	r0, sp, #24
 204              	.LVL22:
 205 0010 FFF7FEFF 		bl	mrbc_array_new
 206              	.LVL23:
 207              	.LBB74:
 208              	.LBB75:
  94:..\..\mruby_c2\Design01.cydsn/c_hash.h ****   ite.point = v->hash->data;
 209              		.loc 2 94 0
 210 0014 B268     		ldr	r2, [r6, #8]
 211 0016 0092     		str	r2, [sp]
  95:..\..\mruby_c2\Design01.cydsn/c_hash.h ****   ite.p_end = ite.point + v->hash->n_stored;
 212              		.loc 2 95 0
 213 0018 9368     		ldr	r3, [r2, #8]
 214 001a 0193     		str	r3, [sp, #4]
  96:..\..\mruby_c2\Design01.cydsn/c_hash.h **** 
 215              		.loc 2 96 0
 216 001c D588     		ldrh	r5, [r2, #6]
 217 001e 03EB0515 		add	r5, r3, r5, lsl #4
 218 0022 0295     		str	r5, [sp, #8]
  98:..\..\mruby_c2\Design01.cydsn/c_hash.h **** }
 219              		.loc 2 98 0
 220 0024 03AB     		add	r3, sp, #12
 221 0026 9DE80700 		ldmia	sp, {r0, r1, r2}
 222 002a 83E80700 		stmia	r3, {r0, r1, r2}
 223 002e 09E0     		b	.L8
 224              	.L9:
 225              	.LVL24:
 226              	.LBE75:
 227              	.LBE74:
ARM GAS  C:\Users\164\AppData\Local\Temp\ccySM5k9.s 			page 16


 228              	.LBB76:
 229              	.LBB77:
 230              	.LBB78:
 231              		.loc 2 115 0
 232 0030 04F12003 		add	r3, r4, #32
 233 0034 0493     		str	r3, [sp, #16]
 234              	.LVL25:
 235              	.LBE78:
 236              	.LBE77:
 432:..\..\mruby_c2\Design01.cydsn/c_hash.c ****     mrbc_dup(key);
 237              		.loc 1 432 0
 238 0036 2146     		mov	r1, r4
 239 0038 06A8     		add	r0, sp, #24
 240 003a FFF7FEFF 		bl	mrbc_array_push
 241              	.LVL26:
 433:..\..\mruby_c2\Design01.cydsn/c_hash.c ****   }
 242              		.loc 1 433 0
 243 003e 2046     		mov	r0, r4
 244 0040 FFF7FEFF 		bl	mrbc_dup
 245              	.LVL27:
 246              	.L8:
 247              	.LBE76:
 248              	.LBB79:
 249              	.LBB80:
 106:..\..\mruby_c2\Design01.cydsn/c_hash.h **** }
 250              		.loc 2 106 0
 251 0044 049C     		ldr	r4, [sp, #16]
 252              	.LVL28:
 253              	.LBE80:
 254              	.LBE79:
 430:..\..\mruby_c2\Design01.cydsn/c_hash.c ****     mrb_value *key = mrbc_hash_i_next(&ite);
 255              		.loc 1 430 0
 256 0046 AC42     		cmp	r4, r5
 257 0048 F2D3     		bcc	.L9
 436:..\..\mruby_c2\Design01.cydsn/c_hash.c **** }
 258              		.loc 1 436 0
 259 004a 3046     		mov	r0, r6
 260 004c FFF7FEFF 		bl	mrbc_release
 261              	.LVL29:
 262 0050 0AAB     		add	r3, sp, #40
 263 0052 13E90F00 		ldmdb	r3, {r0, r1, r2, r3}
 264 0056 86E80F00 		stmia	r6, {r0, r1, r2, r3}
 437:..\..\mruby_c2\Design01.cydsn/c_hash.c **** 
 265              		.loc 1 437 0
 266 005a 0AB0     		add	sp, sp, #40
 267              		.cfi_def_cfa_offset 16
 268              		@ sp needed
 269 005c 70BD     		pop	{r4, r5, r6, pc}
 270              		.cfi_endproc
 271              	.LFE33:
 272              		.size	c_hash_keys, .-c_hash_keys
 273 005e 00BF     		.section	.text.c_hash_key,"ax",%progbits
 274              		.align	2
 275              		.thumb
 276              		.thumb_func
 277              		.type	c_hash_key, %function
 278              	c_hash_key:
ARM GAS  C:\Users\164\AppData\Local\Temp\ccySM5k9.s 			page 17


 279              	.LFB32:
 401:..\..\mruby_c2\Design01.cydsn/c_hash.c ****   mrb_value *ret = NULL;
 280              		.loc 1 401 0
 281              		.cfi_startproc
 282              		@ args = 0, pretend = 0, frame = 24
 283              		@ frame_needed = 0, uses_anonymous_args = 0
 284              	.LVL30:
 285 0000 70B5     		push	{r4, r5, r6, lr}
 286              		.cfi_def_cfa_offset 16
 287              		.cfi_offset 4, -16
 288              		.cfi_offset 5, -12
 289              		.cfi_offset 6, -8
 290              		.cfi_offset 14, -4
 291 0002 86B0     		sub	sp, sp, #24
 292              		.cfi_def_cfa_offset 40
 293 0004 0D46     		mov	r5, r1
 294              	.LVL31:
 295              	.LBB81:
 296              	.LBB82:
  94:..\..\mruby_c2\Design01.cydsn/c_hash.h ****   ite.point = v->hash->data;
 297              		.loc 2 94 0
 298 0006 8A68     		ldr	r2, [r1, #8]
 299              	.LVL32:
 300 0008 0092     		str	r2, [sp]
  95:..\..\mruby_c2\Design01.cydsn/c_hash.h ****   ite.p_end = ite.point + v->hash->n_stored;
 301              		.loc 2 95 0
 302 000a 9368     		ldr	r3, [r2, #8]
 303 000c 0193     		str	r3, [sp, #4]
  96:..\..\mruby_c2\Design01.cydsn/c_hash.h **** 
 304              		.loc 2 96 0
 305 000e D688     		ldrh	r6, [r2, #6]
 306 0010 03EB0616 		add	r6, r3, r6, lsl #4
 307 0014 0296     		str	r6, [sp, #8]
  98:..\..\mruby_c2\Design01.cydsn/c_hash.h **** }
 308              		.loc 2 98 0
 309 0016 9DE80700 		ldmia	sp, {r0, r1, r2}
 310              	.LVL33:
 311 001a 06AB     		add	r3, sp, #24
 312 001c 03E90700 		stmdb	r3, {r0, r1, r2}
 313 0020 0DE0     		b	.L12
 314              	.L14:
 315              	.LVL34:
 316              	.LBE82:
 317              	.LBE81:
 318              	.LBB83:
 319              	.LBB84:
 320              	.LBB85:
 321              		.loc 2 115 0
 322 0022 04F12003 		add	r3, r4, #32
 323 0026 0493     		str	r3, [sp, #16]
 324              	.LVL35:
 325              	.LBE85:
 326              	.LBE84:
 407:..\..\mruby_c2\Design01.cydsn/c_hash.c ****       mrbc_dup( &kv[0] );
 327              		.loc 1 407 0
 328 0028 05F11001 		add	r1, r5, #16
 329 002c 04F11000 		add	r0, r4, #16
ARM GAS  C:\Users\164\AppData\Local\Temp\ccySM5k9.s 			page 18


 330 0030 FFF7FEFF 		bl	mrbc_compare
 331              	.LVL36:
 332 0034 18B9     		cbnz	r0, .L12
 408:..\..\mruby_c2\Design01.cydsn/c_hash.c ****       ret = &kv[0];
 333              		.loc 1 408 0
 334 0036 2046     		mov	r0, r4
 335 0038 FFF7FEFF 		bl	mrbc_dup
 336              	.LVL37:
 410:..\..\mruby_c2\Design01.cydsn/c_hash.c ****     }
 337              		.loc 1 410 0
 338 003c 03E0     		b	.L13
 339              	.LVL38:
 340              	.L12:
 341              	.LBE83:
 342              	.LBB86:
 343              	.LBB87:
 106:..\..\mruby_c2\Design01.cydsn/c_hash.h **** }
 344              		.loc 2 106 0
 345 003e 049C     		ldr	r4, [sp, #16]
 346              	.LVL39:
 347              	.LBE87:
 348              	.LBE86:
 405:..\..\mruby_c2\Design01.cydsn/c_hash.c ****     mrb_value *kv = mrbc_hash_i_next(&ite);
 349              		.loc 1 405 0
 350 0040 B442     		cmp	r4, r6
 351 0042 EED3     		bcc	.L14
 402:..\..\mruby_c2\Design01.cydsn/c_hash.c ****   mrb_hash_iterator ite = mrbc_hash_iterator(&v[0]);
 352              		.loc 1 402 0
 353 0044 0024     		movs	r4, #0
 354              	.LVL40:
 355              	.L13:
 414:..\..\mruby_c2\Design01.cydsn/c_hash.c ****     SET_RETURN(*ret);
 356              		.loc 1 414 0
 357 0046 3CB1     		cbz	r4, .L15
 415:..\..\mruby_c2\Design01.cydsn/c_hash.c ****   } else {
 358              		.loc 1 415 0
 359 0048 2846     		mov	r0, r5
 360 004a FFF7FEFF 		bl	mrbc_release
 361              	.LVL41:
 362 004e 94E80F00 		ldmia	r4, {r0, r1, r2, r3}
 363 0052 85E80F00 		stmia	r5, {r0, r1, r2, r3}
 364 0056 04E0     		b	.L11
 365              	.L15:
 417:..\..\mruby_c2\Design01.cydsn/c_hash.c ****   }
 366              		.loc 1 417 0
 367 0058 2846     		mov	r0, r5
 368 005a FFF7FEFF 		bl	mrbc_release
 369              	.LVL42:
 370 005e 0123     		movs	r3, #1
 371 0060 2B70     		strb	r3, [r5]
 372              	.L11:
 419:..\..\mruby_c2\Design01.cydsn/c_hash.c **** 
 373              		.loc 1 419 0
 374 0062 06B0     		add	sp, sp, #24
 375              		.cfi_def_cfa_offset 16
 376              		@ sp needed
 377 0064 70BD     		pop	{r4, r5, r6, pc}
ARM GAS  C:\Users\164\AppData\Local\Temp\ccySM5k9.s 			page 19


 378              		.cfi_endproc
 379              	.LFE32:
 380              		.size	c_hash_key, .-c_hash_key
 381 0066 00BF     		.section	.text.c_hash_has_value,"ax",%progbits
 382              		.align	2
 383              		.thumb
 384              		.thumb_func
 385              		.type	c_hash_has_value, %function
 386              	c_hash_has_value:
 387              	.LFB31:
 377:..\..\mruby_c2\Design01.cydsn/c_hash.c ****   int ret = 0;
 388              		.loc 1 377 0
 389              		.cfi_startproc
 390              		@ args = 0, pretend = 0, frame = 24
 391              		@ frame_needed = 0, uses_anonymous_args = 0
 392              	.LVL43:
 393 0000 30B5     		push	{r4, r5, lr}
 394              		.cfi_def_cfa_offset 12
 395              		.cfi_offset 4, -12
 396              		.cfi_offset 5, -8
 397              		.cfi_offset 14, -4
 398 0002 87B0     		sub	sp, sp, #28
 399              		.cfi_def_cfa_offset 40
 400 0004 0D46     		mov	r5, r1
 401              	.LVL44:
 402              	.LBB88:
 403              	.LBB89:
  94:..\..\mruby_c2\Design01.cydsn/c_hash.h ****   ite.point = v->hash->data;
 404              		.loc 2 94 0
 405 0006 8A68     		ldr	r2, [r1, #8]
 406              	.LVL45:
 407 0008 0092     		str	r2, [sp]
  95:..\..\mruby_c2\Design01.cydsn/c_hash.h ****   ite.p_end = ite.point + v->hash->n_stored;
 408              		.loc 2 95 0
 409 000a 9368     		ldr	r3, [r2, #8]
 410 000c 0193     		str	r3, [sp, #4]
  96:..\..\mruby_c2\Design01.cydsn/c_hash.h **** 
 411              		.loc 2 96 0
 412 000e D488     		ldrh	r4, [r2, #6]
 413 0010 03EB0414 		add	r4, r3, r4, lsl #4
 414 0014 0294     		str	r4, [sp, #8]
  98:..\..\mruby_c2\Design01.cydsn/c_hash.h **** }
 415              		.loc 2 98 0
 416 0016 9DE80700 		ldmia	sp, {r0, r1, r2}
 417              	.LVL46:
 418 001a 06AB     		add	r3, sp, #24
 419 001c 03E90700 		stmdb	r3, {r0, r1, r2}
 420 0020 08E0     		b	.L19
 421              	.L21:
 422              	.LVL47:
 423              	.LBE89:
 424              	.LBE88:
 425              	.LBB90:
 426              	.LBB91:
 427              	.LBB92:
 428              		.loc 2 115 0
 429 0022 00F12003 		add	r3, r0, #32
ARM GAS  C:\Users\164\AppData\Local\Temp\ccySM5k9.s 			page 20


 430 0026 0493     		str	r3, [sp, #16]
 431              	.LVL48:
 432              	.LBE92:
 433              	.LBE91:
 383:..\..\mruby_c2\Design01.cydsn/c_hash.c ****       ret = 1;
 434              		.loc 1 383 0
 435 0028 05F11001 		add	r1, r5, #16
 436 002c 1030     		adds	r0, r0, #16
 437              	.LVL49:
 438 002e FFF7FEFF 		bl	mrbc_compare
 439              	.LVL50:
 440 0032 20B1     		cbz	r0, .L24
 441              	.LVL51:
 442              	.L19:
 443              	.LBE90:
 444              	.LBB93:
 445              	.LBB94:
 106:..\..\mruby_c2\Design01.cydsn/c_hash.h **** }
 446              		.loc 2 106 0
 447 0034 0498     		ldr	r0, [sp, #16]
 448              	.LVL52:
 449              	.LBE94:
 450              	.LBE93:
 381:..\..\mruby_c2\Design01.cydsn/c_hash.c ****     mrb_value *val = mrbc_hash_i_next(&ite) + 1;	// skip key, get value
 451              		.loc 1 381 0
 452 0036 A042     		cmp	r0, r4
 453 0038 F3D3     		bcc	.L21
 378:..\..\mruby_c2\Design01.cydsn/c_hash.c ****   mrb_hash_iterator ite = mrbc_hash_iterator(&v[0]);
 454              		.loc 1 378 0
 455 003a 0023     		movs	r3, #0
 456 003c 00E0     		b	.L20
 457              	.LVL53:
 458              	.L24:
 459              	.LBB95:
 384:..\..\mruby_c2\Design01.cydsn/c_hash.c ****       break;
 460              		.loc 1 384 0
 461 003e 0123     		movs	r3, #1
 462              	.LVL54:
 463              	.L20:
 464              	.LBE95:
 389:..\..\mruby_c2\Design01.cydsn/c_hash.c ****     SET_TRUE_RETURN();
 465              		.loc 1 389 0
 466 0040 2BB1     		cbz	r3, .L22
 390:..\..\mruby_c2\Design01.cydsn/c_hash.c ****   } else {
 467              		.loc 1 390 0
 468 0042 2846     		mov	r0, r5
 469 0044 FFF7FEFF 		bl	mrbc_release
 470              	.LVL55:
 471 0048 0323     		movs	r3, #3
 472 004a 2B70     		strb	r3, [r5]
 473 004c 04E0     		b	.L18
 474              	.LVL56:
 475              	.L22:
 392:..\..\mruby_c2\Design01.cydsn/c_hash.c ****   }
 476              		.loc 1 392 0
 477 004e 2846     		mov	r0, r5
 478 0050 FFF7FEFF 		bl	mrbc_release
ARM GAS  C:\Users\164\AppData\Local\Temp\ccySM5k9.s 			page 21


 479              	.LVL57:
 480 0054 0223     		movs	r3, #2
 481 0056 2B70     		strb	r3, [r5]
 482              	.L18:
 394:..\..\mruby_c2\Design01.cydsn/c_hash.c **** 
 483              		.loc 1 394 0
 484 0058 07B0     		add	sp, sp, #28
 485              		.cfi_def_cfa_offset 12
 486              		@ sp needed
 487 005a 30BD     		pop	{r4, r5, pc}
 488              		.cfi_endproc
 489              	.LFE31:
 490              		.size	c_hash_has_value, .-c_hash_has_value
 491              		.section	.text.c_hash_empty,"ax",%progbits
 492              		.align	2
 493              		.thumb
 494              		.thumb_func
 495              		.type	c_hash_empty, %function
 496              	c_hash_empty:
 497              	.LFB29:
 347:..\..\mruby_c2\Design01.cydsn/c_hash.c ****   int n = mrbc_hash_size(v);
 498              		.loc 1 347 0
 499              		.cfi_startproc
 500              		@ args = 0, pretend = 0, frame = 0
 501              		@ frame_needed = 0, uses_anonymous_args = 0
 502              	.LVL58:
 503 0000 10B5     		push	{r4, lr}
 504              		.cfi_def_cfa_offset 8
 505              		.cfi_offset 4, -8
 506              		.cfi_offset 14, -4
 507 0002 0C46     		mov	r4, r1
 508              	.LVL59:
 509              	.LBB96:
 510              	.LBB97:
  69:..\..\mruby_c2\Design01.cydsn/c_hash.h **** }
 511              		.loc 2 69 0
 512 0004 8B68     		ldr	r3, [r1, #8]
 513 0006 DB88     		ldrh	r3, [r3, #6]
 514              	.LVL60:
 515              	.LBE97:
 516              	.LBE96:
 350:..\..\mruby_c2\Design01.cydsn/c_hash.c ****     SET_FALSE_RETURN();
 517              		.loc 1 350 0
 518 0008 5B08     		lsrs	r3, r3, #1
 519 000a 05D0     		beq	.L27
 351:..\..\mruby_c2\Design01.cydsn/c_hash.c ****   } else {
 520              		.loc 1 351 0
 521 000c 0846     		mov	r0, r1
 522              	.LVL61:
 523 000e FFF7FEFF 		bl	mrbc_release
 524              	.LVL62:
 525 0012 0223     		movs	r3, #2
 526 0014 2370     		strb	r3, [r4]
 527 0016 10BD     		pop	{r4, pc}
 528              	.LVL63:
 529              	.L27:
 353:..\..\mruby_c2\Design01.cydsn/c_hash.c ****   }
ARM GAS  C:\Users\164\AppData\Local\Temp\ccySM5k9.s 			page 22


 530              		.loc 1 353 0
 531 0018 0846     		mov	r0, r1
 532              	.LVL64:
 533 001a FFF7FEFF 		bl	mrbc_release
 534              	.LVL65:
 535 001e 0323     		movs	r3, #3
 536 0020 2370     		strb	r3, [r4]
 537 0022 10BD     		pop	{r4, pc}
 538              		.cfi_endproc
 539              	.LFE29:
 540              		.size	c_hash_empty, .-c_hash_empty
 541              		.section	.text.mrbc_hash_new,"ax",%progbits
 542              		.align	2
 543              		.global	mrbc_hash_new
 544              		.thumb
 545              		.thumb_func
 546              		.type	mrbc_hash_new, %function
 547              	mrbc_hash_new:
 548              	.LFB14:
  56:..\..\mruby_c2\Design01.cydsn/c_hash.c ****   mrb_value value = {.tt = MRB_TT_HASH};
 549              		.loc 1 56 0
 550              		.cfi_startproc
 551              		@ args = 0, pretend = 0, frame = 0
 552              		@ frame_needed = 0, uses_anonymous_args = 0
 553              	.LVL66:
 554 0000 F8B5     		push	{r3, r4, r5, r6, r7, lr}
 555              		.cfi_def_cfa_offset 24
 556              		.cfi_offset 3, -24
 557              		.cfi_offset 4, -20
 558              		.cfi_offset 5, -16
 559              		.cfi_offset 6, -12
 560              		.cfi_offset 7, -8
 561              		.cfi_offset 14, -4
 562 0002 0446     		mov	r4, r0
 563 0004 0F46     		mov	r7, r1
 564 0006 1646     		mov	r6, r2
  57:..\..\mruby_c2\Design01.cydsn/c_hash.c **** 
 565              		.loc 1 57 0
 566 0008 0023     		movs	r3, #0
 567 000a 0360     		str	r3, [r0]
 568 000c 4360     		str	r3, [r0, #4]
 569 000e 8360     		str	r3, [r0, #8]
 570 0010 C360     		str	r3, [r0, #12]
 571 0012 1923     		movs	r3, #25
 572 0014 0370     		strb	r3, [r0]
  62:..\..\mruby_c2\Design01.cydsn/c_hash.c ****   if( !h ) return value;	// ENOMEM
 573              		.loc 1 62 0
 574 0016 0C21     		movs	r1, #12
 575              	.LVL67:
 576 0018 3846     		mov	r0, r7
 577              	.LVL68:
 578 001a FFF7FEFF 		bl	mrbc_alloc
 579              	.LVL69:
  63:..\..\mruby_c2\Design01.cydsn/c_hash.c **** 
 580              		.loc 1 63 0
 581 001e 98B1     		cbz	r0, .L30
 582 0020 0546     		mov	r5, r0
ARM GAS  C:\Users\164\AppData\Local\Temp\ccySM5k9.s 			page 23


  65:..\..\mruby_c2\Design01.cydsn/c_hash.c ****   if( !data ) {			// ENOMEM
 583              		.loc 1 65 0
 584 0022 7101     		lsls	r1, r6, #5
 585 0024 3846     		mov	r0, r7
 586              	.LVL70:
 587 0026 FFF7FEFF 		bl	mrbc_alloc
 588              	.LVL71:
  66:..\..\mruby_c2\Design01.cydsn/c_hash.c ****     mrbc_raw_free( h );
 589              		.loc 1 66 0
 590 002a 18B9     		cbnz	r0, .L32
  67:..\..\mruby_c2\Design01.cydsn/c_hash.c ****     return value;
 591              		.loc 1 67 0
 592 002c 2846     		mov	r0, r5
 593              	.LVL72:
 594 002e FFF7FEFF 		bl	mrbc_raw_free
 595              	.LVL73:
  68:..\..\mruby_c2\Design01.cydsn/c_hash.c ****   }
 596              		.loc 1 68 0
 597 0032 09E0     		b	.L30
 598              	.LVL74:
 599              	.L32:
  71:..\..\mruby_c2\Design01.cydsn/c_hash.c ****   h->tt = MRB_TT_HASH;
 600              		.loc 1 71 0
 601 0034 0122     		movs	r2, #1
 602 0036 2A80     		strh	r2, [r5]	@ movhi
  72:..\..\mruby_c2\Design01.cydsn/c_hash.c ****   h->data_size = size * 2;
 603              		.loc 1 72 0
 604 0038 1922     		movs	r2, #25
 605 003a AA70     		strb	r2, [r5, #2]
  73:..\..\mruby_c2\Design01.cydsn/c_hash.c ****   h->n_stored = 0;
 606              		.loc 1 73 0
 607 003c 7600     		lsls	r6, r6, #1
 608              	.LVL75:
 609 003e AE80     		strh	r6, [r5, #4]	@ movhi
  74:..\..\mruby_c2\Design01.cydsn/c_hash.c ****   h->data = data;
 610              		.loc 1 74 0
 611 0040 0022     		movs	r2, #0
 612 0042 EA80     		strh	r2, [r5, #6]	@ movhi
  75:..\..\mruby_c2\Design01.cydsn/c_hash.c **** 
 613              		.loc 1 75 0
 614 0044 A860     		str	r0, [r5, #8]
  77:..\..\mruby_c2\Design01.cydsn/c_hash.c ****   return value;
 615              		.loc 1 77 0
 616 0046 A560     		str	r5, [r4, #8]
 617              	.LVL76:
 618              	.L30:
  79:..\..\mruby_c2\Design01.cydsn/c_hash.c **** 
 619              		.loc 1 79 0
 620 0048 2046     		mov	r0, r4
 621 004a F8BD     		pop	{r3, r4, r5, r6, r7, pc}
 622              		.cfi_endproc
 623              	.LFE14:
 624              		.size	mrbc_hash_new, .-mrbc_hash_new
 625              		.section	.text.c_hash_new,"ax",%progbits
 626              		.align	2
 627              		.thumb
 628              		.thumb_func
ARM GAS  C:\Users\164\AppData\Local\Temp\ccySM5k9.s 			page 24


 629              		.type	c_hash_new, %function
 630              	c_hash_new:
 631              	.LFB23:
 270:..\..\mruby_c2\Design01.cydsn/c_hash.c ****   mrb_value ret = mrbc_hash_new(vm, 0);
 632              		.loc 1 270 0
 633              		.cfi_startproc
 634              		@ args = 0, pretend = 0, frame = 16
 635              		@ frame_needed = 0, uses_anonymous_args = 0
 636              	.LVL77:
 637 0000 30B5     		push	{r4, r5, lr}
 638              		.cfi_def_cfa_offset 12
 639              		.cfi_offset 4, -12
 640              		.cfi_offset 5, -8
 641              		.cfi_offset 14, -4
 642 0002 85B0     		sub	sp, sp, #20
 643              		.cfi_def_cfa_offset 32
 644 0004 0C46     		mov	r4, r1
 271:..\..\mruby_c2\Design01.cydsn/c_hash.c ****   SET_RETURN(ret);
 645              		.loc 1 271 0
 646 0006 0022     		movs	r2, #0
 647              	.LVL78:
 648 0008 0146     		mov	r1, r0
 649              	.LVL79:
 650 000a 6846     		mov	r0, sp
 651              	.LVL80:
 652 000c FFF7FEFF 		bl	mrbc_hash_new
 653              	.LVL81:
 272:..\..\mruby_c2\Design01.cydsn/c_hash.c **** }
 654              		.loc 1 272 0
 655 0010 2046     		mov	r0, r4
 656 0012 FFF7FEFF 		bl	mrbc_release
 657              	.LVL82:
 658 0016 9DE80F00 		ldmia	sp, {r0, r1, r2, r3}
 659 001a 84E80F00 		stmia	r4, {r0, r1, r2, r3}
 273:..\..\mruby_c2\Design01.cydsn/c_hash.c **** 
 660              		.loc 1 273 0
 661 001e 05B0     		add	sp, sp, #20
 662              		.cfi_def_cfa_offset 12
 663              		@ sp needed
 664 0020 30BD     		pop	{r4, r5, pc}
 665              		.cfi_endproc
 666              	.LFE23:
 667              		.size	c_hash_new, .-c_hash_new
 668 0022 00BF     		.section	.text.mrbc_hash_delete,"ax",%progbits
 669              		.align	2
 670              		.global	mrbc_hash_delete
 671              		.thumb
 672              		.thumb_func
 673              		.type	mrbc_hash_delete, %function
 674              	mrbc_hash_delete:
 675              	.LFB15:
  88:..\..\mruby_c2\Design01.cydsn/c_hash.c ****   // TODO: delete other members (for search).
 676              		.loc 1 88 0
 677              		.cfi_startproc
 678              		@ args = 0, pretend = 0, frame = 0
 679              		@ frame_needed = 0, uses_anonymous_args = 0
 680              	.LVL83:
ARM GAS  C:\Users\164\AppData\Local\Temp\ccySM5k9.s 			page 25


 681 0000 08B5     		push	{r3, lr}
 682              		.cfi_def_cfa_offset 8
 683              		.cfi_offset 3, -8
 684              		.cfi_offset 14, -4
  91:..\..\mruby_c2\Design01.cydsn/c_hash.c **** }
 685              		.loc 1 91 0
 686 0002 FFF7FEFF 		bl	mrbc_array_delete
 687              	.LVL84:
 688 0006 08BD     		pop	{r3, pc}
 689              		.cfi_endproc
 690              	.LFE15:
 691              		.size	mrbc_hash_delete, .-mrbc_hash_delete
 692              		.section	.text.mrbc_hash_search,"ax",%progbits
 693              		.align	2
 694              		.global	mrbc_hash_search
 695              		.thumb
 696              		.thumb_func
 697              		.type	mrbc_hash_search, %function
 698              	mrbc_hash_search:
 699              	.LFB16:
 103:..\..\mruby_c2\Design01.cydsn/c_hash.c **** #ifndef MRBC_HASH_SEARCH_LINER
 700              		.loc 1 103 0
 701              		.cfi_startproc
 702              		@ args = 0, pretend = 0, frame = 0
 703              		@ frame_needed = 0, uses_anonymous_args = 0
 704              	.LVL85:
 705 0000 70B5     		push	{r4, r5, r6, lr}
 706              		.cfi_def_cfa_offset 16
 707              		.cfi_offset 4, -16
 708              		.cfi_offset 5, -12
 709              		.cfi_offset 6, -8
 710              		.cfi_offset 14, -4
 711 0002 0E46     		mov	r6, r1
 109:..\..\mruby_c2\Design01.cydsn/c_hash.c ****   const mrb_value *p2 = p1 + hash->hash->n_stored;
 712              		.loc 1 109 0
 713 0004 8368     		ldr	r3, [r0, #8]
 714 0006 9C68     		ldr	r4, [r3, #8]
 715              	.LVL86:
 110:..\..\mruby_c2\Design01.cydsn/c_hash.c **** 
 716              		.loc 1 110 0
 717 0008 DD88     		ldrh	r5, [r3, #6]
 718 000a 04EB0515 		add	r5, r4, r5, lsl #4
 719              	.LVL87:
 112:..\..\mruby_c2\Design01.cydsn/c_hash.c ****     if( mrbc_compare(p1, key) == 0 ) return p1;
 720              		.loc 1 112 0
 721 000e 05E0     		b	.L39
 722              	.LVL88:
 723              	.L41:
 113:..\..\mruby_c2\Design01.cydsn/c_hash.c ****     p1 += 2;
 724              		.loc 1 113 0
 725 0010 3146     		mov	r1, r6
 726 0012 2046     		mov	r0, r4
 727 0014 FFF7FEFF 		bl	mrbc_compare
 728              	.LVL89:
 729 0018 20B1     		cbz	r0, .L42
 114:..\..\mruby_c2\Design01.cydsn/c_hash.c ****   }
 730              		.loc 1 114 0
ARM GAS  C:\Users\164\AppData\Local\Temp\ccySM5k9.s 			page 26


 731 001a 2034     		adds	r4, r4, #32
 732              	.LVL90:
 733              	.L39:
 112:..\..\mruby_c2\Design01.cydsn/c_hash.c ****     if( mrbc_compare(p1, key) == 0 ) return p1;
 734              		.loc 1 112 0
 735 001c AC42     		cmp	r4, r5
 736 001e F7D3     		bcc	.L41
 116:..\..\mruby_c2\Design01.cydsn/c_hash.c **** #endif
 737              		.loc 1 116 0
 738 0020 0020     		movs	r0, #0
 739 0022 70BD     		pop	{r4, r5, r6, pc}
 740              	.LVL91:
 741              	.L42:
 113:..\..\mruby_c2\Design01.cydsn/c_hash.c ****     p1 += 2;
 742              		.loc 1 113 0
 743 0024 2046     		mov	r0, r4
 127:..\..\mruby_c2\Design01.cydsn/c_hash.c **** 
 744              		.loc 1 127 0
 745 0026 70BD     		pop	{r4, r5, r6, pc}
 746              		.cfi_endproc
 747              	.LFE16:
 748              		.size	mrbc_hash_search, .-mrbc_hash_search
 749              		.section	.text.c_hash_has_key,"ax",%progbits
 750              		.align	2
 751              		.thumb
 752              		.thumb_func
 753              		.type	c_hash_has_key, %function
 754              	c_hash_has_key:
 755              	.LFB30:
 362:..\..\mruby_c2\Design01.cydsn/c_hash.c ****   mrb_value *res = mrbc_hash_search(v, v+1);
 756              		.loc 1 362 0
 757              		.cfi_startproc
 758              		@ args = 0, pretend = 0, frame = 0
 759              		@ frame_needed = 0, uses_anonymous_args = 0
 760              	.LVL92:
 761 0000 10B5     		push	{r4, lr}
 762              		.cfi_def_cfa_offset 8
 763              		.cfi_offset 4, -8
 764              		.cfi_offset 14, -4
 765 0002 0C46     		mov	r4, r1
 363:..\..\mruby_c2\Design01.cydsn/c_hash.c **** 
 766              		.loc 1 363 0
 767 0004 1031     		adds	r1, r1, #16
 768              	.LVL93:
 769 0006 2046     		mov	r0, r4
 770              	.LVL94:
 771 0008 FFF7FEFF 		bl	mrbc_hash_search
 772              	.LVL95:
 365:..\..\mruby_c2\Design01.cydsn/c_hash.c ****     SET_TRUE_RETURN();
 773              		.loc 1 365 0
 774 000c 28B1     		cbz	r0, .L45
 366:..\..\mruby_c2\Design01.cydsn/c_hash.c ****   } else {
 775              		.loc 1 366 0
 776 000e 2046     		mov	r0, r4
 777              	.LVL96:
 778 0010 FFF7FEFF 		bl	mrbc_release
 779              	.LVL97:
ARM GAS  C:\Users\164\AppData\Local\Temp\ccySM5k9.s 			page 27


 780 0014 0323     		movs	r3, #3
 781 0016 2370     		strb	r3, [r4]
 782 0018 10BD     		pop	{r4, pc}
 783              	.LVL98:
 784              	.L45:
 368:..\..\mruby_c2\Design01.cydsn/c_hash.c ****   }
 785              		.loc 1 368 0
 786 001a 2046     		mov	r0, r4
 787              	.LVL99:
 788 001c FFF7FEFF 		bl	mrbc_release
 789              	.LVL100:
 790 0020 0223     		movs	r3, #2
 791 0022 2370     		strb	r3, [r4]
 792 0024 10BD     		pop	{r4, pc}
 793              		.cfi_endproc
 794              	.LFE30:
 795              		.size	c_hash_has_key, .-c_hash_has_key
 796 0026 00BF     		.section	.text.mrbc_hash_set,"ax",%progbits
 797              		.align	2
 798              		.global	mrbc_hash_set
 799              		.thumb
 800              		.thumb_func
 801              		.type	mrbc_hash_set, %function
 802              	mrbc_hash_set:
 803              	.LFB17:
 139:..\..\mruby_c2\Design01.cydsn/c_hash.c ****   mrb_value *v = mrbc_hash_search(hash, key);
 804              		.loc 1 139 0
 805              		.cfi_startproc
 806              		@ args = 0, pretend = 0, frame = 0
 807              		@ frame_needed = 0, uses_anonymous_args = 0
 808              	.LVL101:
 809 0000 F8B5     		push	{r3, r4, r5, r6, r7, lr}
 810              		.cfi_def_cfa_offset 24
 811              		.cfi_offset 3, -24
 812              		.cfi_offset 4, -20
 813              		.cfi_offset 5, -16
 814              		.cfi_offset 6, -12
 815              		.cfi_offset 7, -8
 816              		.cfi_offset 14, -4
 817 0002 0746     		mov	r7, r0
 818 0004 0D46     		mov	r5, r1
 819 0006 1646     		mov	r6, r2
 140:..\..\mruby_c2\Design01.cydsn/c_hash.c ****   int ret = 0;
 820              		.loc 1 140 0
 821 0008 FFF7FEFF 		bl	mrbc_hash_search
 822              	.LVL102:
 142:..\..\mruby_c2\Design01.cydsn/c_hash.c ****     // set a new value
 823              		.loc 1 142 0
 824 000c 58B9     		cbnz	r0, .L49
 144:..\..\mruby_c2\Design01.cydsn/c_hash.c ****     ret = mrbc_array_push(hash, val);
 825              		.loc 1 144 0
 826 000e 2946     		mov	r1, r5
 827 0010 3846     		mov	r0, r7
 828              	.LVL103:
 829 0012 FFF7FEFF 		bl	mrbc_array_push
 830              	.LVL104:
 831 0016 0346     		mov	r3, r0
ARM GAS  C:\Users\164\AppData\Local\Temp\ccySM5k9.s 			page 28


 832 0018 A8B9     		cbnz	r0, .L50
 145:..\..\mruby_c2\Design01.cydsn/c_hash.c **** 
 833              		.loc 1 145 0
 834 001a 3146     		mov	r1, r6
 835 001c 3846     		mov	r0, r7
 836              	.LVL105:
 837 001e FFF7FEFF 		bl	mrbc_array_push
 838              	.LVL106:
 839 0022 0346     		mov	r3, r0
 840              	.LVL107:
 841 0024 0FE0     		b	.L50
 842              	.LVL108:
 843              	.L49:
 844 0026 0446     		mov	r4, r0
 149:..\..\mruby_c2\Design01.cydsn/c_hash.c ****     *v = *key;
 845              		.loc 1 149 0
 846 0028 FFF7FEFF 		bl	mrbc_dec_ref_counter
 847              	.LVL109:
 150:..\..\mruby_c2\Design01.cydsn/c_hash.c ****     mrbc_dec_ref_counter(++v);
 848              		.loc 1 150 0
 849 002c 95E80F00 		ldmia	r5, {r0, r1, r2, r3}
 850 0030 84E80F00 		stmia	r4, {r0, r1, r2, r3}
 851              	.LVL110:
 151:..\..\mruby_c2\Design01.cydsn/c_hash.c ****     *v = *val;
 852              		.loc 1 151 0
 853 0034 1034     		adds	r4, r4, #16
 854              	.LVL111:
 855 0036 2046     		mov	r0, r4
 856 0038 FFF7FEFF 		bl	mrbc_dec_ref_counter
 857              	.LVL112:
 152:..\..\mruby_c2\Design01.cydsn/c_hash.c ****   }
 858              		.loc 1 152 0
 859 003c 96E80F00 		ldmia	r6, {r0, r1, r2, r3}
 860 0040 84E80F00 		stmia	r4, {r0, r1, r2, r3}
 141:..\..\mruby_c2\Design01.cydsn/c_hash.c ****   if( v == NULL ) {
 861              		.loc 1 141 0
 862 0044 0023     		movs	r3, #0
 863              	.LVL113:
 864              	.L50:
 157:..\..\mruby_c2\Design01.cydsn/c_hash.c **** 
 865              		.loc 1 157 0
 866 0046 1846     		mov	r0, r3
 867 0048 F8BD     		pop	{r3, r4, r5, r6, r7, pc}
 868              		.cfi_endproc
 869              	.LFE17:
 870              		.size	mrbc_hash_set, .-mrbc_hash_set
 871 004a 00BF     		.section	.text.c_hash_merge_self,"ax",%progbits
 872              		.align	2
 873              		.thumb
 874              		.thumb_func
 875              		.type	c_hash_merge_self, %function
 876              	c_hash_merge_self:
 877              	.LFB36:
 474:..\..\mruby_c2\Design01.cydsn/c_hash.c ****   mrb_hash_iterator ite = mrbc_hash_iterator(&v[1]);
 878              		.loc 1 474 0
 879              		.cfi_startproc
 880              		@ args = 0, pretend = 0, frame = 24
ARM GAS  C:\Users\164\AppData\Local\Temp\ccySM5k9.s 			page 29


 881              		@ frame_needed = 0, uses_anonymous_args = 0
 882              	.LVL114:
 883 0000 F0B5     		push	{r4, r5, r6, r7, lr}
 884              		.cfi_def_cfa_offset 20
 885              		.cfi_offset 4, -20
 886              		.cfi_offset 5, -16
 887              		.cfi_offset 6, -12
 888              		.cfi_offset 7, -8
 889              		.cfi_offset 14, -4
 890 0002 87B0     		sub	sp, sp, #28
 891              		.cfi_def_cfa_offset 48
 892 0004 0F46     		mov	r7, r1
 893              	.LVL115:
 894              	.LBB98:
 895              	.LBB99:
  94:..\..\mruby_c2\Design01.cydsn/c_hash.h ****   ite.point = v->hash->data;
 896              		.loc 2 94 0
 897 0006 8A69     		ldr	r2, [r1, #24]
 898              	.LVL116:
 899 0008 0092     		str	r2, [sp]
  95:..\..\mruby_c2\Design01.cydsn/c_hash.h ****   ite.p_end = ite.point + v->hash->n_stored;
 900              		.loc 2 95 0
 901 000a 9368     		ldr	r3, [r2, #8]
 902 000c 0193     		str	r3, [sp, #4]
  96:..\..\mruby_c2\Design01.cydsn/c_hash.h **** 
 903              		.loc 2 96 0
 904 000e D688     		ldrh	r6, [r2, #6]
 905 0010 03EB0616 		add	r6, r3, r6, lsl #4
 906 0014 0296     		str	r6, [sp, #8]
  98:..\..\mruby_c2\Design01.cydsn/c_hash.h **** }
 907              		.loc 2 98 0
 908 0016 9DE80700 		ldmia	sp, {r0, r1, r2}
 909              	.LVL117:
 910 001a 06AB     		add	r3, sp, #24
 911 001c 03E90700 		stmdb	r3, {r0, r1, r2}
 912 0020 0FE0     		b	.L53
 913              	.L54:
 914              	.LVL118:
 915              	.LBE99:
 916              	.LBE98:
 917              	.LBB100:
 918              	.LBB101:
 919              	.LBB102:
 920              		.loc 2 115 0
 921 0022 04F12003 		add	r3, r4, #32
 922 0026 0493     		str	r3, [sp, #16]
 923              	.LVL119:
 924              	.LBE102:
 925              	.LBE101:
 479:..\..\mruby_c2\Design01.cydsn/c_hash.c ****     mrbc_dup( &kv[0] );
 926              		.loc 1 479 0
 927 0028 04F11005 		add	r5, r4, #16
 928 002c 2A46     		mov	r2, r5
 929 002e 2146     		mov	r1, r4
 930 0030 3846     		mov	r0, r7
 931 0032 FFF7FEFF 		bl	mrbc_hash_set
 932              	.LVL120:
ARM GAS  C:\Users\164\AppData\Local\Temp\ccySM5k9.s 			page 30


 480:..\..\mruby_c2\Design01.cydsn/c_hash.c ****     mrbc_dup( &kv[1] );
 933              		.loc 1 480 0
 934 0036 2046     		mov	r0, r4
 935 0038 FFF7FEFF 		bl	mrbc_dup
 936              	.LVL121:
 481:..\..\mruby_c2\Design01.cydsn/c_hash.c ****   }
 937              		.loc 1 481 0
 938 003c 2846     		mov	r0, r5
 939 003e FFF7FEFF 		bl	mrbc_dup
 940              	.LVL122:
 941              	.L53:
 942              	.LBE100:
 943              	.LBB103:
 944              	.LBB104:
 106:..\..\mruby_c2\Design01.cydsn/c_hash.h **** }
 945              		.loc 2 106 0
 946 0042 049C     		ldr	r4, [sp, #16]
 947              	.LVL123:
 948              	.LBE104:
 949              	.LBE103:
 477:..\..\mruby_c2\Design01.cydsn/c_hash.c ****     mrb_value *kv = mrbc_hash_i_next(&ite);
 950              		.loc 1 477 0
 951 0044 B442     		cmp	r4, r6
 952 0046 ECD3     		bcc	.L54
 483:..\..\mruby_c2\Design01.cydsn/c_hash.c **** 
 953              		.loc 1 483 0
 954 0048 07B0     		add	sp, sp, #28
 955              		.cfi_def_cfa_offset 20
 956              		@ sp needed
 957 004a F0BD     		pop	{r4, r5, r6, r7, pc}
 958              		.cfi_endproc
 959              	.LFE36:
 960              		.size	c_hash_merge_self, .-c_hash_merge_self
 961              		.section	.text.c_hash_set,"ax",%progbits
 962              		.align	2
 963              		.thumb
 964              		.thumb_func
 965              		.type	c_hash_set, %function
 966              	c_hash_set:
 967              	.LFB25:
 295:..\..\mruby_c2\Design01.cydsn/c_hash.c ****   if( argc != 2 ) {
 968              		.loc 1 295 0
 969              		.cfi_startproc
 970              		@ args = 0, pretend = 0, frame = 0
 971              		@ frame_needed = 0, uses_anonymous_args = 0
 972              	.LVL124:
 296:..\..\mruby_c2\Design01.cydsn/c_hash.c ****     return;	// raise ArgumentError.
 973              		.loc 1 296 0
 974 0000 022A     		cmp	r2, #2
 975 0002 0CD1     		bne	.L59
 295:..\..\mruby_c2\Design01.cydsn/c_hash.c ****   if( argc != 2 ) {
 976              		.loc 1 295 0
 977 0004 10B5     		push	{r4, lr}
 978              		.cfi_def_cfa_offset 8
 979              		.cfi_offset 4, -8
 980              		.cfi_offset 14, -4
 981 0006 0C46     		mov	r4, r1
ARM GAS  C:\Users\164\AppData\Local\Temp\ccySM5k9.s 			page 31


 982              	.LVL125:
 302:..\..\mruby_c2\Design01.cydsn/c_hash.c ****   v1->tt = MRB_TT_EMPTY;
 983              		.loc 1 302 0
 984 0008 01F12002 		add	r2, r1, #32
 985              	.LVL126:
 986 000c 1031     		adds	r1, r1, #16
 987              	.LVL127:
 988 000e 2046     		mov	r0, r4
 989              	.LVL128:
 990 0010 FFF7FEFF 		bl	mrbc_hash_set
 991              	.LVL129:
 303:..\..\mruby_c2\Design01.cydsn/c_hash.c ****   v2->tt = MRB_TT_EMPTY;
 992              		.loc 1 303 0
 993 0014 0023     		movs	r3, #0
 994 0016 2374     		strb	r3, [r4, #16]
 304:..\..\mruby_c2\Design01.cydsn/c_hash.c **** }
 995              		.loc 1 304 0
 996 0018 84F82030 		strb	r3, [r4, #32]
 997 001c 10BD     		pop	{r4, pc}
 998              	.LVL130:
 999              	.L59:
 1000              		.cfi_def_cfa_offset 0
 1001              		.cfi_restore 4
 1002              		.cfi_restore 14
 1003 001e 7047     		bx	lr
 1004              		.cfi_endproc
 1005              	.LFE25:
 1006              		.size	c_hash_set, .-c_hash_set
 1007              		.section	.text.mrbc_hash_get,"ax",%progbits
 1008              		.align	2
 1009              		.global	mrbc_hash_get
 1010              		.thumb
 1011              		.thumb_func
 1012              		.type	mrbc_hash_get, %function
 1013              	mrbc_hash_get:
 1014              	.LFB18:
 168:..\..\mruby_c2\Design01.cydsn/c_hash.c ****   mrb_value *v = mrbc_hash_search(hash, key);
 1015              		.loc 1 168 0
 1016              		.cfi_startproc
 1017              		@ args = 0, pretend = 0, frame = 16
 1018              		@ frame_needed = 0, uses_anonymous_args = 0
 1019              	.LVL131:
 1020 0000 10B5     		push	{r4, lr}
 1021              		.cfi_def_cfa_offset 8
 1022              		.cfi_offset 4, -8
 1023              		.cfi_offset 14, -4
 1024 0002 84B0     		sub	sp, sp, #16
 1025              		.cfi_def_cfa_offset 24
 1026 0004 0446     		mov	r4, r0
 1027 0006 0846     		mov	r0, r1
 1028              	.LVL132:
 169:..\..\mruby_c2\Design01.cydsn/c_hash.c ****   return v ? *++v : mrb_nil_value();
 1029              		.loc 1 169 0
 1030 0008 1146     		mov	r1, r2
 1031              	.LVL133:
 1032 000a FFF7FEFF 		bl	mrbc_hash_search
 1033              	.LVL134:
ARM GAS  C:\Users\164\AppData\Local\Temp\ccySM5k9.s 			page 32


 170:..\..\mruby_c2\Design01.cydsn/c_hash.c **** }
 1034              		.loc 1 170 0
 1035 000e 20B1     		cbz	r0, .L61
 1036              	.LVL135:
 170:..\..\mruby_c2\Design01.cydsn/c_hash.c **** }
 1037              		.loc 1 170 0 is_stmt 0 discriminator 1
 1038 0010 1030     		adds	r0, r0, #16
 1039              	.LVL136:
 1040 0012 0FC8     		ldmia	r0, {r0, r1, r2, r3}
 1041              	.LVL137:
 1042 0014 84E80F00 		stmia	r4, {r0, r1, r2, r3}
 1043 0018 0BE0     		b	.L60
 1044              	.LVL138:
 1045              	.L61:
 1046              	.LBB105:
 1047              	.LBB106:
 1048              		.file 3 "..\\..\\mruby_c2\\Design01.cydsn\\value.h"
   1:..\..\mruby_c2\Design01.cydsn/value.h **** /*! @file
   2:..\..\mruby_c2\Design01.cydsn/value.h ****   @brief
   3:..\..\mruby_c2\Design01.cydsn/value.h ****   mruby/c value definitions
   4:..\..\mruby_c2\Design01.cydsn/value.h **** 
   5:..\..\mruby_c2\Design01.cydsn/value.h ****   <pre>
   6:..\..\mruby_c2\Design01.cydsn/value.h ****   Copyright (C) 2015-2018 Kyushu Institute of Technology.
   7:..\..\mruby_c2\Design01.cydsn/value.h ****   Copyright (C) 2015-2018 Shimane IT Open-Innovation Center.
   8:..\..\mruby_c2\Design01.cydsn/value.h **** 
   9:..\..\mruby_c2\Design01.cydsn/value.h ****   This file is distributed under BSD 3-Clause License.
  10:..\..\mruby_c2\Design01.cydsn/value.h **** 
  11:..\..\mruby_c2\Design01.cydsn/value.h **** 
  12:..\..\mruby_c2\Design01.cydsn/value.h ****   </pre>
  13:..\..\mruby_c2\Design01.cydsn/value.h **** */
  14:..\..\mruby_c2\Design01.cydsn/value.h **** 
  15:..\..\mruby_c2\Design01.cydsn/value.h **** #ifndef MRBC_SRC_VALUE_H_
  16:..\..\mruby_c2\Design01.cydsn/value.h **** #define MRBC_SRC_VALUE_H_
  17:..\..\mruby_c2\Design01.cydsn/value.h **** 
  18:..\..\mruby_c2\Design01.cydsn/value.h **** #include <stdint.h>
  19:..\..\mruby_c2\Design01.cydsn/value.h **** 
  20:..\..\mruby_c2\Design01.cydsn/value.h **** #ifdef __cplusplus
  21:..\..\mruby_c2\Design01.cydsn/value.h **** extern "C" {
  22:..\..\mruby_c2\Design01.cydsn/value.h **** #endif
  23:..\..\mruby_c2\Design01.cydsn/value.h **** 
  24:..\..\mruby_c2\Design01.cydsn/value.h **** 
  25:..\..\mruby_c2\Design01.cydsn/value.h **** // mrb types
  26:..\..\mruby_c2\Design01.cydsn/value.h **** //typedef float mrb_float;
  27:..\..\mruby_c2\Design01.cydsn/value.h **** //typedef int32_t mrb_int;
  28:..\..\mruby_c2\Design01.cydsn/value.h **** typedef int16_t mrb_sym;
  29:..\..\mruby_c2\Design01.cydsn/value.h **** 
  30:..\..\mruby_c2\Design01.cydsn/value.h **** /* aspec access ? */
  31:..\..\mruby_c2\Design01.cydsn/value.h **** #define MRB_ASPEC_REQ(a)          (((a) >> 18) & 0x1f)
  32:..\..\mruby_c2\Design01.cydsn/value.h **** #define MRB_ASPEC_OPT(a)          (((a) >> 13) & 0x1f)
  33:..\..\mruby_c2\Design01.cydsn/value.h **** #define MRB_ASPEC_REST(a)         (((a) >> 12) & 0x1)
  34:..\..\mruby_c2\Design01.cydsn/value.h **** #define MRB_ASPEC_POST(a)         (((a) >> 7) & 0x1f)
  35:..\..\mruby_c2\Design01.cydsn/value.h **** 
  36:..\..\mruby_c2\Design01.cydsn/value.h **** #define MRBC_OBJECT_HEADER \
  37:..\..\mruby_c2\Design01.cydsn/value.h ****   uint16_t ref_count; \
  38:..\..\mruby_c2\Design01.cydsn/value.h ****   mrb_vtype tt : 8  // TODO: for debug use only.
  39:..\..\mruby_c2\Design01.cydsn/value.h **** 
  40:..\..\mruby_c2\Design01.cydsn/value.h **** 
ARM GAS  C:\Users\164\AppData\Local\Temp\ccySM5k9.s 			page 33


  41:..\..\mruby_c2\Design01.cydsn/value.h **** struct VM;
  42:..\..\mruby_c2\Design01.cydsn/value.h **** struct IREP;
  43:..\..\mruby_c2\Design01.cydsn/value.h **** struct RObject;
  44:..\..\mruby_c2\Design01.cydsn/value.h **** typedef void (*mrb_func_t)(struct VM *vm, struct RObject *v, int argc);
  45:..\..\mruby_c2\Design01.cydsn/value.h **** 
  46:..\..\mruby_c2\Design01.cydsn/value.h **** 
  47:..\..\mruby_c2\Design01.cydsn/value.h **** //================================================================
  48:..\..\mruby_c2\Design01.cydsn/value.h **** /*!@brief
  49:..\..\mruby_c2\Design01.cydsn/value.h ****   define the value type.
  50:..\..\mruby_c2\Design01.cydsn/value.h **** */
  51:..\..\mruby_c2\Design01.cydsn/value.h **** typedef enum {
  52:..\..\mruby_c2\Design01.cydsn/value.h ****   /* internal use */
  53:..\..\mruby_c2\Design01.cydsn/value.h ****   MRB_TT_HANDLE = -1,
  54:..\..\mruby_c2\Design01.cydsn/value.h ****   /* primitive */
  55:..\..\mruby_c2\Design01.cydsn/value.h ****   MRB_TT_EMPTY = 0,
  56:..\..\mruby_c2\Design01.cydsn/value.h ****   MRB_TT_NIL,
  57:..\..\mruby_c2\Design01.cydsn/value.h ****   MRB_TT_FALSE,		// (note) true/false threshold. see op_jmpif
  58:..\..\mruby_c2\Design01.cydsn/value.h **** 
  59:..\..\mruby_c2\Design01.cydsn/value.h ****   MRB_TT_TRUE,
  60:..\..\mruby_c2\Design01.cydsn/value.h ****   MRB_TT_FIXNUM,
  61:..\..\mruby_c2\Design01.cydsn/value.h ****   MRB_TT_FLOAT,
  62:..\..\mruby_c2\Design01.cydsn/value.h ****   MRB_TT_SYMBOL,
  63:..\..\mruby_c2\Design01.cydsn/value.h ****   MRB_TT_CLASS,
  64:..\..\mruby_c2\Design01.cydsn/value.h **** 
  65:..\..\mruby_c2\Design01.cydsn/value.h ****   /* non-primitive */
  66:..\..\mruby_c2\Design01.cydsn/value.h ****   MRB_TT_OBJECT = 20,
  67:..\..\mruby_c2\Design01.cydsn/value.h ****   MRB_TT_PROC,
  68:..\..\mruby_c2\Design01.cydsn/value.h ****   MRB_TT_ARRAY,
  69:..\..\mruby_c2\Design01.cydsn/value.h ****   MRB_TT_STRING,
  70:..\..\mruby_c2\Design01.cydsn/value.h ****   MRB_TT_RANGE,
  71:..\..\mruby_c2\Design01.cydsn/value.h ****   MRB_TT_HASH,
  72:..\..\mruby_c2\Design01.cydsn/value.h **** 
  73:..\..\mruby_c2\Design01.cydsn/value.h **** } mrb_vtype;
  74:..\..\mruby_c2\Design01.cydsn/value.h **** 
  75:..\..\mruby_c2\Design01.cydsn/value.h **** 
  76:..\..\mruby_c2\Design01.cydsn/value.h **** //================================================================
  77:..\..\mruby_c2\Design01.cydsn/value.h **** /*!@brief
  78:..\..\mruby_c2\Design01.cydsn/value.h ****   define the error code. (BETA TEST)
  79:..\..\mruby_c2\Design01.cydsn/value.h **** */
  80:..\..\mruby_c2\Design01.cydsn/value.h **** typedef enum {
  81:..\..\mruby_c2\Design01.cydsn/value.h ****   E_NOMEMORY_ERROR = 1,
  82:..\..\mruby_c2\Design01.cydsn/value.h ****   E_RUNTIME_ERROR,
  83:..\..\mruby_c2\Design01.cydsn/value.h ****   E_TYPE_ERROR,
  84:..\..\mruby_c2\Design01.cydsn/value.h ****   E_ARGUMENT_ERROR,
  85:..\..\mruby_c2\Design01.cydsn/value.h ****   E_INDEX_ERROR,
  86:..\..\mruby_c2\Design01.cydsn/value.h ****   E_RANGE_ERROR,
  87:..\..\mruby_c2\Design01.cydsn/value.h ****   E_NAME_ERROR,
  88:..\..\mruby_c2\Design01.cydsn/value.h ****   E_NOMETHOD_ERROR,
  89:..\..\mruby_c2\Design01.cydsn/value.h ****   E_SCRIPT_ERROR,
  90:..\..\mruby_c2\Design01.cydsn/value.h ****   E_SYNTAX_ERROR,
  91:..\..\mruby_c2\Design01.cydsn/value.h ****   E_LOCALJUMP_ERROR,
  92:..\..\mruby_c2\Design01.cydsn/value.h ****   E_REGEXP_ERROR,
  93:..\..\mruby_c2\Design01.cydsn/value.h ****   E_NOTIMP_ERROR,
  94:..\..\mruby_c2\Design01.cydsn/value.h ****   E_FLOATDOMAIN_ERROR,
  95:..\..\mruby_c2\Design01.cydsn/value.h ****   E_KEY_ERROR,
  96:..\..\mruby_c2\Design01.cydsn/value.h **** } mrb_error_code;
  97:..\..\mruby_c2\Design01.cydsn/value.h **** 
ARM GAS  C:\Users\164\AppData\Local\Temp\ccySM5k9.s 			page 34


  98:..\..\mruby_c2\Design01.cydsn/value.h **** 
  99:..\..\mruby_c2\Design01.cydsn/value.h **** 
 100:..\..\mruby_c2\Design01.cydsn/value.h **** //================================================================
 101:..\..\mruby_c2\Design01.cydsn/value.h **** /*!@brief
 102:..\..\mruby_c2\Design01.cydsn/value.h ****   mruby/c value object.
 103:..\..\mruby_c2\Design01.cydsn/value.h **** */
 104:..\..\mruby_c2\Design01.cydsn/value.h **** typedef struct RObject {
 105:..\..\mruby_c2\Design01.cydsn/value.h ****   mrb_vtype tt : 8;
 106:..\..\mruby_c2\Design01.cydsn/value.h ****   union {
 107:..\..\mruby_c2\Design01.cydsn/value.h ****     int32_t i;			// MRB_TT_FIXNUM, SYMBOL
 108:..\..\mruby_c2\Design01.cydsn/value.h **** #if MRBC_USE_FLOAT
 109:..\..\mruby_c2\Design01.cydsn/value.h ****     double d;			// MRB_TT_FLOAT
 110:..\..\mruby_c2\Design01.cydsn/value.h **** #endif
 111:..\..\mruby_c2\Design01.cydsn/value.h ****     struct RClass *cls;		// MRB_TT_CLASS
 112:..\..\mruby_c2\Design01.cydsn/value.h ****     struct RObject *handle;	// handle to objects
 113:..\..\mruby_c2\Design01.cydsn/value.h ****     struct RInstance *instance;	// MRB_TT_OBJECT
 114:..\..\mruby_c2\Design01.cydsn/value.h ****     struct RProc *proc;		// MRB_TT_PROC
 115:..\..\mruby_c2\Design01.cydsn/value.h ****     struct RArray *array;	// MRB_TT_ARRAY
 116:..\..\mruby_c2\Design01.cydsn/value.h ****     struct RString *string;	// MRB_TT_STRING
 117:..\..\mruby_c2\Design01.cydsn/value.h ****     const char *str;		// C-string (only loader use.)
 118:..\..\mruby_c2\Design01.cydsn/value.h ****     struct RRange *range;	// MRB_TT_RANGE
 119:..\..\mruby_c2\Design01.cydsn/value.h ****     struct RHash *hash;		// MRB_TT_HASH
 120:..\..\mruby_c2\Design01.cydsn/value.h ****   };
 121:..\..\mruby_c2\Design01.cydsn/value.h **** } mrb_object;
 122:..\..\mruby_c2\Design01.cydsn/value.h **** typedef struct RObject mrb_value;
 123:..\..\mruby_c2\Design01.cydsn/value.h **** 
 124:..\..\mruby_c2\Design01.cydsn/value.h **** 
 125:..\..\mruby_c2\Design01.cydsn/value.h **** //================================================================
 126:..\..\mruby_c2\Design01.cydsn/value.h **** /*!@brief
 127:..\..\mruby_c2\Design01.cydsn/value.h ****   mruby/c class object.
 128:..\..\mruby_c2\Design01.cydsn/value.h **** */
 129:..\..\mruby_c2\Design01.cydsn/value.h **** typedef struct RClass {
 130:..\..\mruby_c2\Design01.cydsn/value.h ****   mrb_sym sym_id;	// class name
 131:..\..\mruby_c2\Design01.cydsn/value.h **** #ifdef MRBC_DEBUG
 132:..\..\mruby_c2\Design01.cydsn/value.h ****   const char *names;	// for debug. delete soon.
 133:..\..\mruby_c2\Design01.cydsn/value.h **** #endif
 134:..\..\mruby_c2\Design01.cydsn/value.h ****   struct RClass *super;	// mrbc_class[super]
 135:..\..\mruby_c2\Design01.cydsn/value.h ****   struct RProc *procs;	// mrbc_proc[rprocs], linked list
 136:..\..\mruby_c2\Design01.cydsn/value.h **** } mrb_class;
 137:..\..\mruby_c2\Design01.cydsn/value.h **** 
 138:..\..\mruby_c2\Design01.cydsn/value.h **** 
 139:..\..\mruby_c2\Design01.cydsn/value.h **** //================================================================
 140:..\..\mruby_c2\Design01.cydsn/value.h **** /*!@brief
 141:..\..\mruby_c2\Design01.cydsn/value.h ****   mruby/c instance object.
 142:..\..\mruby_c2\Design01.cydsn/value.h **** */
 143:..\..\mruby_c2\Design01.cydsn/value.h **** typedef struct RInstance {
 144:..\..\mruby_c2\Design01.cydsn/value.h ****   MRBC_OBJECT_HEADER;
 145:..\..\mruby_c2\Design01.cydsn/value.h **** 
 146:..\..\mruby_c2\Design01.cydsn/value.h ****   struct RClass *cls;
 147:..\..\mruby_c2\Design01.cydsn/value.h ****   struct RKeyValueHandle *ivar;
 148:..\..\mruby_c2\Design01.cydsn/value.h ****   uint8_t data[];
 149:..\..\mruby_c2\Design01.cydsn/value.h **** } mrb_instance;
 150:..\..\mruby_c2\Design01.cydsn/value.h **** 
 151:..\..\mruby_c2\Design01.cydsn/value.h **** 
 152:..\..\mruby_c2\Design01.cydsn/value.h **** //================================================================
 153:..\..\mruby_c2\Design01.cydsn/value.h **** /*!@brief
 154:..\..\mruby_c2\Design01.cydsn/value.h ****   mruby/c proc object.
ARM GAS  C:\Users\164\AppData\Local\Temp\ccySM5k9.s 			page 35


 155:..\..\mruby_c2\Design01.cydsn/value.h **** */
 156:..\..\mruby_c2\Design01.cydsn/value.h **** typedef struct RProc {
 157:..\..\mruby_c2\Design01.cydsn/value.h ****   MRBC_OBJECT_HEADER;
 158:..\..\mruby_c2\Design01.cydsn/value.h **** 
 159:..\..\mruby_c2\Design01.cydsn/value.h ****   unsigned int c_func : 1;	// 0:IREP, 1:C Func
 160:..\..\mruby_c2\Design01.cydsn/value.h ****   mrb_sym sym_id;
 161:..\..\mruby_c2\Design01.cydsn/value.h **** #ifdef MRBC_DEBUG
 162:..\..\mruby_c2\Design01.cydsn/value.h ****   const char *names;		// for debug; delete soon
 163:..\..\mruby_c2\Design01.cydsn/value.h **** #endif
 164:..\..\mruby_c2\Design01.cydsn/value.h ****   struct RProc *next;
 165:..\..\mruby_c2\Design01.cydsn/value.h ****   union {
 166:..\..\mruby_c2\Design01.cydsn/value.h ****     struct IREP *irep;
 167:..\..\mruby_c2\Design01.cydsn/value.h ****     mrb_func_t func;
 168:..\..\mruby_c2\Design01.cydsn/value.h ****   };
 169:..\..\mruby_c2\Design01.cydsn/value.h **** } mrb_proc;
 170:..\..\mruby_c2\Design01.cydsn/value.h **** 
 171:..\..\mruby_c2\Design01.cydsn/value.h **** 
 172:..\..\mruby_c2\Design01.cydsn/value.h **** 
 173:..\..\mruby_c2\Design01.cydsn/value.h **** // for C call
 174:..\..\mruby_c2\Design01.cydsn/value.h **** #define SET_INT_RETURN(n)	(mrbc_release(v), v[0].tt=MRB_TT_FIXNUM, v[0].i=(n))
 175:..\..\mruby_c2\Design01.cydsn/value.h **** #define SET_NIL_RETURN()	(mrbc_release(v), v[0].tt=MRB_TT_NIL)
 176:..\..\mruby_c2\Design01.cydsn/value.h **** #define SET_FLOAT_RETURN(n)	(mrbc_release(v), v[0].tt=MRB_TT_FLOAT, v[0].d=(n))
 177:..\..\mruby_c2\Design01.cydsn/value.h **** #define SET_FALSE_RETURN()	(mrbc_release(v), v[0].tt=MRB_TT_FALSE)
 178:..\..\mruby_c2\Design01.cydsn/value.h **** #define SET_TRUE_RETURN()	(mrbc_release(v), v[0].tt=MRB_TT_TRUE)
 179:..\..\mruby_c2\Design01.cydsn/value.h **** #define SET_RETURN(n)		(mrbc_release(v), v[0]=(n))
 180:..\..\mruby_c2\Design01.cydsn/value.h **** 
 181:..\..\mruby_c2\Design01.cydsn/value.h **** #define GET_TT_ARG(n)		(v[(n)].tt)
 182:..\..\mruby_c2\Design01.cydsn/value.h **** #define GET_INT_ARG(n)		(v[(n)].i)
 183:..\..\mruby_c2\Design01.cydsn/value.h **** #define GET_ARY_ARG(n)		(v[(n)])
 184:..\..\mruby_c2\Design01.cydsn/value.h **** #define GET_ARG(n)		(v[(n)])
 185:..\..\mruby_c2\Design01.cydsn/value.h **** #define GET_FLOAT_ARG(n)	(v[(n)].d)
 186:..\..\mruby_c2\Design01.cydsn/value.h **** #define GET_STRING_ARG(n)	(v[(n)].string->data)
 187:..\..\mruby_c2\Design01.cydsn/value.h **** 
 188:..\..\mruby_c2\Design01.cydsn/value.h **** 
 189:..\..\mruby_c2\Design01.cydsn/value.h **** 
 190:..\..\mruby_c2\Design01.cydsn/value.h **** mrb_object *mrbc_obj_alloc(struct VM *vm, mrb_vtype tt);
 191:..\..\mruby_c2\Design01.cydsn/value.h **** mrb_proc *mrbc_rproc_alloc(struct VM *vm, const char *name);
 192:..\..\mruby_c2\Design01.cydsn/value.h **** int mrbc_compare(const mrb_value *v1, const mrb_value *v2);
 193:..\..\mruby_c2\Design01.cydsn/value.h **** void mrbc_dup(mrb_value *v);
 194:..\..\mruby_c2\Design01.cydsn/value.h **** void mrbc_release(mrb_value *v);
 195:..\..\mruby_c2\Design01.cydsn/value.h **** void mrbc_dec_ref_counter(mrb_value *v);
 196:..\..\mruby_c2\Design01.cydsn/value.h **** void mrbc_clear_vm_id(mrb_value *v);
 197:..\..\mruby_c2\Design01.cydsn/value.h **** int32_t mrbc_atoi(const char *s, int base);
 198:..\..\mruby_c2\Design01.cydsn/value.h **** struct IREP *mrbc_irep_alloc(struct VM *vm);
 199:..\..\mruby_c2\Design01.cydsn/value.h **** void mrbc_irep_free(struct IREP *irep);
 200:..\..\mruby_c2\Design01.cydsn/value.h **** mrb_value mrbc_instance_new(struct VM *vm, mrb_class *cls, int size);
 201:..\..\mruby_c2\Design01.cydsn/value.h **** void mrbc_instance_delete(mrb_value *v);
 202:..\..\mruby_c2\Design01.cydsn/value.h **** void mrbc_instance_setiv(mrb_object *obj, mrb_sym sym_id, mrb_value *v);
 203:..\..\mruby_c2\Design01.cydsn/value.h **** mrb_value mrbc_instance_getiv(mrb_object *obj, mrb_sym sym_id);
 204:..\..\mruby_c2\Design01.cydsn/value.h **** 
 205:..\..\mruby_c2\Design01.cydsn/value.h **** 
 206:..\..\mruby_c2\Design01.cydsn/value.h **** 
 207:..\..\mruby_c2\Design01.cydsn/value.h **** //================================================================
 208:..\..\mruby_c2\Design01.cydsn/value.h **** /*!@brief
 209:..\..\mruby_c2\Design01.cydsn/value.h ****   Returns a fixnum in mruby/c.
 210:..\..\mruby_c2\Design01.cydsn/value.h **** 
 211:..\..\mruby_c2\Design01.cydsn/value.h ****   @param  n	int value
ARM GAS  C:\Users\164\AppData\Local\Temp\ccySM5k9.s 			page 36


 212:..\..\mruby_c2\Design01.cydsn/value.h ****   @return	mrb_value of type fixnum.
 213:..\..\mruby_c2\Design01.cydsn/value.h **** */
 214:..\..\mruby_c2\Design01.cydsn/value.h **** static inline mrb_value mrb_fixnum_value( int32_t n )
 215:..\..\mruby_c2\Design01.cydsn/value.h **** {
 216:..\..\mruby_c2\Design01.cydsn/value.h ****   mrb_value value = {.tt = MRB_TT_FIXNUM};
 217:..\..\mruby_c2\Design01.cydsn/value.h ****   value.i = n;
 218:..\..\mruby_c2\Design01.cydsn/value.h ****   return value;
 219:..\..\mruby_c2\Design01.cydsn/value.h **** }
 220:..\..\mruby_c2\Design01.cydsn/value.h **** 
 221:..\..\mruby_c2\Design01.cydsn/value.h **** 
 222:..\..\mruby_c2\Design01.cydsn/value.h **** #if MRBC_USE_FLOAT
 223:..\..\mruby_c2\Design01.cydsn/value.h **** //================================================================
 224:..\..\mruby_c2\Design01.cydsn/value.h **** /*!@brief
 225:..\..\mruby_c2\Design01.cydsn/value.h ****   Returns a float in mruby/c.
 226:..\..\mruby_c2\Design01.cydsn/value.h **** 
 227:..\..\mruby_c2\Design01.cydsn/value.h ****   @param  n	dluble value
 228:..\..\mruby_c2\Design01.cydsn/value.h ****   @return	mrb_value of type float.
 229:..\..\mruby_c2\Design01.cydsn/value.h **** */
 230:..\..\mruby_c2\Design01.cydsn/value.h **** static inline mrb_value mrb_float_value( double n )
 231:..\..\mruby_c2\Design01.cydsn/value.h **** {
 232:..\..\mruby_c2\Design01.cydsn/value.h ****   mrb_value value = {.tt = MRB_TT_FLOAT};
 233:..\..\mruby_c2\Design01.cydsn/value.h ****   value.d = n;
 234:..\..\mruby_c2\Design01.cydsn/value.h ****   return value;
 235:..\..\mruby_c2\Design01.cydsn/value.h **** }
 236:..\..\mruby_c2\Design01.cydsn/value.h **** #endif
 237:..\..\mruby_c2\Design01.cydsn/value.h **** 
 238:..\..\mruby_c2\Design01.cydsn/value.h **** 
 239:..\..\mruby_c2\Design01.cydsn/value.h **** //================================================================
 240:..\..\mruby_c2\Design01.cydsn/value.h **** /*!@brief
 241:..\..\mruby_c2\Design01.cydsn/value.h ****   Returns a nil in mruby/c.
 242:..\..\mruby_c2\Design01.cydsn/value.h **** 
 243:..\..\mruby_c2\Design01.cydsn/value.h ****   @return	mrb_value of type nil.
 244:..\..\mruby_c2\Design01.cydsn/value.h **** */
 245:..\..\mruby_c2\Design01.cydsn/value.h **** static inline mrb_value mrb_nil_value(void)
 246:..\..\mruby_c2\Design01.cydsn/value.h **** {
 247:..\..\mruby_c2\Design01.cydsn/value.h ****   mrb_value value = {.tt = MRB_TT_NIL};
 1049              		.loc 3 247 0 is_stmt 1
 1050 001a 0022     		movs	r2, #0
 1051 001c 0092     		str	r2, [sp]
 1052 001e 0192     		str	r2, [sp, #4]
 1053 0020 0292     		str	r2, [sp, #8]
 1054 0022 0392     		str	r2, [sp, #12]
 1055 0024 0122     		movs	r2, #1
 1056 0026 8DF80020 		strb	r2, [sp]
 248:..\..\mruby_c2\Design01.cydsn/value.h ****   return value;
 1057              		.loc 3 248 0
 1058 002a 9DE80F00 		ldmia	sp, {r0, r1, r2, r3}
 1059              	.LVL139:
 1060 002e 84E80F00 		stmia	r4, {r0, r1, r2, r3}
 1061              	.L60:
 1062              	.LBE106:
 1063              	.LBE105:
 171:..\..\mruby_c2\Design01.cydsn/c_hash.c **** 
 1064              		.loc 1 171 0
 1065 0032 2046     		mov	r0, r4
 1066 0034 04B0     		add	sp, sp, #16
 1067              		.cfi_def_cfa_offset 8
ARM GAS  C:\Users\164\AppData\Local\Temp\ccySM5k9.s 			page 37


 1068              		@ sp needed
 1069 0036 10BD     		pop	{r4, pc}
 1070              		.cfi_endproc
 1071              	.LFE18:
 1072              		.size	mrbc_hash_get, .-mrbc_hash_get
 1073              		.section	.text.c_hash_get,"ax",%progbits
 1074              		.align	2
 1075              		.thumb
 1076              		.thumb_func
 1077              		.type	c_hash_get, %function
 1078              	c_hash_get:
 1079              	.LFB24:
 280:..\..\mruby_c2\Design01.cydsn/c_hash.c ****   if( argc != 1 ) {
 1080              		.loc 1 280 0
 1081              		.cfi_startproc
 1082              		@ args = 0, pretend = 0, frame = 16
 1083              		@ frame_needed = 0, uses_anonymous_args = 0
 1084              	.LVL140:
 281:..\..\mruby_c2\Design01.cydsn/c_hash.c ****     return;	// raise ArgumentError.
 1085              		.loc 1 281 0
 1086 0000 012A     		cmp	r2, #1
 1087 0002 13D1     		bne	.L68
 280:..\..\mruby_c2\Design01.cydsn/c_hash.c ****   if( argc != 1 ) {
 1088              		.loc 1 280 0
 1089 0004 30B5     		push	{r4, r5, lr}
 1090              		.cfi_def_cfa_offset 12
 1091              		.cfi_offset 4, -12
 1092              		.cfi_offset 5, -8
 1093              		.cfi_offset 14, -4
 1094 0006 85B0     		sub	sp, sp, #20
 1095              		.cfi_def_cfa_offset 32
 1096 0008 0C46     		mov	r4, r1
 285:..\..\mruby_c2\Design01.cydsn/c_hash.c ****   mrbc_dup(&val);
 1097              		.loc 1 285 0
 1098 000a 01F11002 		add	r2, r1, #16
 1099              	.LVL141:
 1100 000e 6846     		mov	r0, sp
 1101              	.LVL142:
 1102 0010 FFF7FEFF 		bl	mrbc_hash_get
 1103              	.LVL143:
 286:..\..\mruby_c2\Design01.cydsn/c_hash.c ****   SET_RETURN(val);
 1104              		.loc 1 286 0
 1105 0014 6846     		mov	r0, sp
 1106 0016 FFF7FEFF 		bl	mrbc_dup
 1107              	.LVL144:
 287:..\..\mruby_c2\Design01.cydsn/c_hash.c **** }
 1108              		.loc 1 287 0
 1109 001a 2046     		mov	r0, r4
 1110 001c FFF7FEFF 		bl	mrbc_release
 1111              	.LVL145:
 1112 0020 9DE80F00 		ldmia	sp, {r0, r1, r2, r3}
 1113 0024 84E80F00 		stmia	r4, {r0, r1, r2, r3}
 288:..\..\mruby_c2\Design01.cydsn/c_hash.c **** 
 1114              		.loc 1 288 0
 1115 0028 05B0     		add	sp, sp, #20
 1116              		.cfi_def_cfa_offset 12
 1117              		@ sp needed
ARM GAS  C:\Users\164\AppData\Local\Temp\ccySM5k9.s 			page 38


 1118 002a 30BD     		pop	{r4, r5, pc}
 1119              	.LVL146:
 1120              	.L68:
 1121              		.cfi_def_cfa_offset 0
 1122              		.cfi_restore 4
 1123              		.cfi_restore 5
 1124              		.cfi_restore 14
 1125 002c 7047     		bx	lr
 1126              		.cfi_endproc
 1127              	.LFE24:
 1128              		.size	c_hash_get, .-c_hash_get
 1129 002e 00BF     		.section	.text.mrbc_hash_remove,"ax",%progbits
 1130              		.align	2
 1131              		.global	mrbc_hash_remove
 1132              		.thumb
 1133              		.thumb_func
 1134              		.type	mrbc_hash_remove, %function
 1135              	mrbc_hash_remove:
 1136              	.LFB19:
 182:..\..\mruby_c2\Design01.cydsn/c_hash.c ****   mrb_value *v = mrbc_hash_search(hash, key);
 1137              		.loc 1 182 0
 1138              		.cfi_startproc
 1139              		@ args = 0, pretend = 0, frame = 32
 1140              		@ frame_needed = 0, uses_anonymous_args = 0
 1141              	.LVL147:
 1142 0000 F0B5     		push	{r4, r5, r6, r7, lr}
 1143              		.cfi_def_cfa_offset 20
 1144              		.cfi_offset 4, -20
 1145              		.cfi_offset 5, -16
 1146              		.cfi_offset 6, -12
 1147              		.cfi_offset 7, -8
 1148              		.cfi_offset 14, -4
 1149 0002 89B0     		sub	sp, sp, #36
 1150              		.cfi_def_cfa_offset 56
 1151 0004 0546     		mov	r5, r0
 1152 0006 0F46     		mov	r7, r1
 183:..\..\mruby_c2\Design01.cydsn/c_hash.c ****   if( v == NULL ) return mrb_nil_value();
 1153              		.loc 1 183 0
 1154 0008 1146     		mov	r1, r2
 1155              	.LVL148:
 1156 000a 3846     		mov	r0, r7
 1157              	.LVL149:
 1158 000c FFF7FEFF 		bl	mrbc_hash_search
 1159              	.LVL150:
 184:..\..\mruby_c2\Design01.cydsn/c_hash.c **** 
 1160              		.loc 1 184 0
 1161 0010 60B9     		cbnz	r0, .L70
 1162              	.LBB107:
 1163              	.LBB108:
 247:..\..\mruby_c2\Design01.cydsn/value.h ****   return value;
 1164              		.loc 3 247 0
 1165 0012 0022     		movs	r2, #0
 1166 0014 0092     		str	r2, [sp]
 1167 0016 0192     		str	r2, [sp, #4]
 1168 0018 0292     		str	r2, [sp, #8]
 1169 001a 0392     		str	r2, [sp, #12]
 1170 001c 0122     		movs	r2, #1
ARM GAS  C:\Users\164\AppData\Local\Temp\ccySM5k9.s 			page 39


 1171 001e 8DF80020 		strb	r2, [sp]
 1172              		.loc 3 248 0
 1173 0022 9DE80F00 		ldmia	sp, {r0, r1, r2, r3}
 1174              	.LVL151:
 1175 0026 85E80F00 		stmia	r5, {r0, r1, r2, r3}
 1176 002a 1AE0     		b	.L69
 1177              	.LVL152:
 1178              	.L70:
 1179 002c 0646     		mov	r6, r0
 1180              	.LBE108:
 1181              	.LBE107:
 186:..\..\mruby_c2\Design01.cydsn/c_hash.c ****   mrb_value val = v[1];		// value
 1182              		.loc 1 186 0
 1183 002e FFF7FEFF 		bl	mrbc_dec_ref_counter
 1184              	.LVL153:
 187:..\..\mruby_c2\Design01.cydsn/c_hash.c **** 
 1185              		.loc 1 187 0
 1186 0032 04AC     		add	r4, sp, #16
 1187 0034 06F11003 		add	r3, r6, #16
 1188 0038 0FCB     		ldmia	r3, {r0, r1, r2, r3}
 1189 003a 84E80F00 		stmia	r4, {r0, r1, r2, r3}
 189:..\..\mruby_c2\Design01.cydsn/c_hash.c ****   h->n_stored -= 2;
 1190              		.loc 1 189 0
 1191 003e BA68     		ldr	r2, [r7, #8]
 1192              	.LVL154:
 190:..\..\mruby_c2\Design01.cydsn/c_hash.c **** 
 1193              		.loc 1 190 0
 1194 0040 D388     		ldrh	r3, [r2, #6]
 1195 0042 023B     		subs	r3, r3, #2
 1196 0044 9BB2     		uxth	r3, r3
 1197 0046 D380     		strh	r3, [r2, #6]	@ movhi
 192:..\..\mruby_c2\Design01.cydsn/c_hash.c **** 
 1198              		.loc 1 192 0
 1199 0048 9268     		ldr	r2, [r2, #8]
 1200              	.LVL155:
 1201 004a 02EB0312 		add	r2, r2, r3, lsl #4
 1202 004e 921B     		subs	r2, r2, r6
 1203 0050 06F12001 		add	r1, r6, #32
 1204 0054 3046     		mov	r0, r6
 1205 0056 FFF7FEFF 		bl	memmove
 1206              	.LVL156:
 196:..\..\mruby_c2\Design01.cydsn/c_hash.c **** }
 1207              		.loc 1 196 0
 1208 005a 94E80F00 		ldmia	r4, {r0, r1, r2, r3}
 1209 005e 85E80F00 		stmia	r5, {r0, r1, r2, r3}
 1210              	.LVL157:
 1211              	.L69:
 197:..\..\mruby_c2\Design01.cydsn/c_hash.c **** 
 1212              		.loc 1 197 0
 1213 0062 2846     		mov	r0, r5
 1214 0064 09B0     		add	sp, sp, #36
 1215              		.cfi_def_cfa_offset 20
 1216              		@ sp needed
 1217 0066 F0BD     		pop	{r4, r5, r6, r7, pc}
 1218              		.cfi_endproc
 1219              	.LFE19:
 1220              		.size	mrbc_hash_remove, .-mrbc_hash_remove
ARM GAS  C:\Users\164\AppData\Local\Temp\ccySM5k9.s 			page 40


 1221              		.section	.text.c_hash_delete,"ax",%progbits
 1222              		.align	2
 1223              		.thumb
 1224              		.thumb_func
 1225              		.type	c_hash_delete, %function
 1226              	c_hash_delete:
 1227              	.LFB28:
 332:..\..\mruby_c2\Design01.cydsn/c_hash.c ****   // TODO : now, support only delete(key) -> object
 1228              		.loc 1 332 0
 1229              		.cfi_startproc
 1230              		@ args = 0, pretend = 0, frame = 16
 1231              		@ frame_needed = 0, uses_anonymous_args = 0
 1232              	.LVL158:
 1233 0000 30B5     		push	{r4, r5, lr}
 1234              		.cfi_def_cfa_offset 12
 1235              		.cfi_offset 4, -12
 1236              		.cfi_offset 5, -8
 1237              		.cfi_offset 14, -4
 1238 0002 85B0     		sub	sp, sp, #20
 1239              		.cfi_def_cfa_offset 32
 1240 0004 0C46     		mov	r4, r1
 335:..\..\mruby_c2\Design01.cydsn/c_hash.c **** 
 1241              		.loc 1 335 0
 1242 0006 01F11002 		add	r2, r1, #16
 1243              	.LVL159:
 1244 000a 6846     		mov	r0, sp
 1245              	.LVL160:
 1246 000c FFF7FEFF 		bl	mrbc_hash_remove
 1247              	.LVL161:
 339:..\..\mruby_c2\Design01.cydsn/c_hash.c **** }
 1248              		.loc 1 339 0
 1249 0010 2046     		mov	r0, r4
 1250 0012 FFF7FEFF 		bl	mrbc_release
 1251              	.LVL162:
 1252 0016 9DE80F00 		ldmia	sp, {r0, r1, r2, r3}
 1253 001a 84E80F00 		stmia	r4, {r0, r1, r2, r3}
 340:..\..\mruby_c2\Design01.cydsn/c_hash.c **** 
 1254              		.loc 1 340 0
 1255 001e 05B0     		add	sp, sp, #20
 1256              		.cfi_def_cfa_offset 12
 1257              		@ sp needed
 1258 0020 30BD     		pop	{r4, r5, pc}
 1259              		.cfi_endproc
 1260              	.LFE28:
 1261              		.size	c_hash_delete, .-c_hash_delete
 1262 0022 00BF     		.section	.text.mrbc_hash_clear,"ax",%progbits
 1263              		.align	2
 1264              		.global	mrbc_hash_clear
 1265              		.thumb
 1266              		.thumb_func
 1267              		.type	mrbc_hash_clear, %function
 1268              	mrbc_hash_clear:
 1269              	.LFB20:
 206:..\..\mruby_c2\Design01.cydsn/c_hash.c ****   mrbc_array_clear(hash);
 1270              		.loc 1 206 0
 1271              		.cfi_startproc
 1272              		@ args = 0, pretend = 0, frame = 0
ARM GAS  C:\Users\164\AppData\Local\Temp\ccySM5k9.s 			page 41


 1273              		@ frame_needed = 0, uses_anonymous_args = 0
 1274              	.LVL163:
 1275 0000 08B5     		push	{r3, lr}
 1276              		.cfi_def_cfa_offset 8
 1277              		.cfi_offset 3, -8
 1278              		.cfi_offset 14, -4
 207:..\..\mruby_c2\Design01.cydsn/c_hash.c **** 
 1279              		.loc 1 207 0
 1280 0002 FFF7FEFF 		bl	mrbc_array_clear
 1281              	.LVL164:
 1282 0006 08BD     		pop	{r3, pc}
 1283              		.cfi_endproc
 1284              	.LFE20:
 1285              		.size	mrbc_hash_clear, .-mrbc_hash_clear
 1286              		.section	.text.c_hash_clear,"ax",%progbits
 1287              		.align	2
 1288              		.thumb
 1289              		.thumb_func
 1290              		.type	c_hash_clear, %function
 1291              	c_hash_clear:
 1292              	.LFB26:
 312:..\..\mruby_c2\Design01.cydsn/c_hash.c ****   mrbc_hash_clear(v);
 1293              		.loc 1 312 0
 1294              		.cfi_startproc
 1295              		@ args = 0, pretend = 0, frame = 0
 1296              		@ frame_needed = 0, uses_anonymous_args = 0
 1297              	.LVL165:
 1298 0000 08B5     		push	{r3, lr}
 1299              		.cfi_def_cfa_offset 8
 1300              		.cfi_offset 3, -8
 1301              		.cfi_offset 14, -4
 313:..\..\mruby_c2\Design01.cydsn/c_hash.c **** }
 1302              		.loc 1 313 0
 1303 0002 0846     		mov	r0, r1
 1304              	.LVL166:
 1305 0004 FFF7FEFF 		bl	mrbc_hash_clear
 1306              	.LVL167:
 1307 0008 08BD     		pop	{r3, pc}
 1308              		.cfi_endproc
 1309              	.LFE26:
 1310              		.size	c_hash_clear, .-c_hash_clear
 1311 000a 00BF     		.section	.text.mrbc_hash_compare,"ax",%progbits
 1312              		.align	2
 1313              		.global	mrbc_hash_compare
 1314              		.thumb
 1315              		.thumb_func
 1316              		.type	mrbc_hash_compare, %function
 1317              	mrbc_hash_compare:
 1318              	.LFB21:
 222:..\..\mruby_c2\Design01.cydsn/c_hash.c ****   if( v1->hash->n_stored != v2->hash->n_stored ) return 1;
 1319              		.loc 1 222 0
 1320              		.cfi_startproc
 1321              		@ args = 0, pretend = 0, frame = 0
 1322              		@ frame_needed = 0, uses_anonymous_args = 0
 1323              	.LVL168:
 1324 0000 F8B5     		push	{r3, r4, r5, r6, r7, lr}
 1325              		.cfi_def_cfa_offset 24
ARM GAS  C:\Users\164\AppData\Local\Temp\ccySM5k9.s 			page 42


 1326              		.cfi_offset 3, -24
 1327              		.cfi_offset 4, -20
 1328              		.cfi_offset 5, -16
 1329              		.cfi_offset 6, -12
 1330              		.cfi_offset 7, -8
 1331              		.cfi_offset 14, -4
 223:..\..\mruby_c2\Design01.cydsn/c_hash.c **** 
 1332              		.loc 1 223 0
 1333 0002 8368     		ldr	r3, [r0, #8]
 1334 0004 DC88     		ldrh	r4, [r3, #6]
 1335 0006 8A68     		ldr	r2, [r1, #8]
 1336 0008 D288     		ldrh	r2, [r2, #6]
 1337 000a 9442     		cmp	r4, r2
 1338 000c 19D1     		bne	.L83
 1339 000e 0F46     		mov	r7, r1
 1340 0010 0646     		mov	r6, r0
 225:..\..\mruby_c2\Design01.cydsn/c_hash.c ****   int i;
 1341              		.loc 1 225 0
 1342 0012 9C68     		ldr	r4, [r3, #8]
 1343              	.LVL169:
 227:..\..\mruby_c2\Design01.cydsn/c_hash.c ****     mrb_value *d2 = mrbc_hash_search(v2, d1);	// check key
 1344              		.loc 1 227 0
 1345 0014 0025     		movs	r5, #0
 1346 0016 0DE0     		b	.L81
 1347              	.LVL170:
 1348              	.L82:
 1349              	.LBB109:
 228:..\..\mruby_c2\Design01.cydsn/c_hash.c ****     if( d2 == NULL ) return 1;
 1350              		.loc 1 228 0
 1351 0018 2146     		mov	r1, r4
 1352 001a 3846     		mov	r0, r7
 1353 001c FFF7FEFF 		bl	mrbc_hash_search
 1354              	.LVL171:
 229:..\..\mruby_c2\Design01.cydsn/c_hash.c ****     if( mrbc_compare( ++d1, ++d2 ) ) return 1;	// check data
 1355              		.loc 1 229 0
 1356 0020 0146     		mov	r1, r0
 1357 0022 80B1     		cbz	r0, .L84
 1358              	.LVL172:
 230:..\..\mruby_c2\Design01.cydsn/c_hash.c ****   }
 1359              		.loc 1 230 0
 1360 0024 1031     		adds	r1, r1, #16
 1361              	.LVL173:
 1362 0026 04F11000 		add	r0, r4, #16
 1363              	.LVL174:
 1364 002a FFF7FEFF 		bl	mrbc_compare
 1365              	.LVL175:
 1366 002e 60B9     		cbnz	r0, .L85
 1367              	.LBE109:
 227:..\..\mruby_c2\Design01.cydsn/c_hash.c ****     mrb_value *d2 = mrbc_hash_search(v2, d1);	// check key
 1368              		.loc 1 227 0 discriminator 2
 1369 0030 0135     		adds	r5, r5, #1
 1370              	.LVL176:
 1371 0032 2034     		adds	r4, r4, #32
 1372              	.LVL177:
 1373              	.L81:
 1374              	.LBB110:
 1375              	.LBB111:
ARM GAS  C:\Users\164\AppData\Local\Temp\ccySM5k9.s 			page 43


  69:..\..\mruby_c2\Design01.cydsn/c_hash.h **** }
 1376              		.loc 2 69 0 discriminator 1
 1377 0034 B368     		ldr	r3, [r6, #8]
 1378 0036 DB88     		ldrh	r3, [r3, #6]
 1379              	.LVL178:
 1380              	.LBE111:
 1381              	.LBE110:
 227:..\..\mruby_c2\Design01.cydsn/c_hash.c ****     mrb_value *d2 = mrbc_hash_search(v2, d1);	// check key
 1382              		.loc 1 227 0 discriminator 1
 1383 0038 B5EB530F 		cmp	r5, r3, lsr #1
 1384 003c ECDB     		blt	.L82
 233:..\..\mruby_c2\Design01.cydsn/c_hash.c **** }
 1385              		.loc 1 233 0
 1386 003e 0020     		movs	r0, #0
 1387 0040 F8BD     		pop	{r3, r4, r5, r6, r7, pc}
 1388              	.LVL179:
 1389              	.L83:
 223:..\..\mruby_c2\Design01.cydsn/c_hash.c **** 
 1390              		.loc 1 223 0
 1391 0042 0120     		movs	r0, #1
 1392              	.LVL180:
 1393 0044 F8BD     		pop	{r3, r4, r5, r6, r7, pc}
 1394              	.LVL181:
 1395              	.L84:
 1396              	.LBB112:
 229:..\..\mruby_c2\Design01.cydsn/c_hash.c ****     if( mrbc_compare( ++d1, ++d2 ) ) return 1;	// check data
 1397              		.loc 1 229 0
 1398 0046 0120     		movs	r0, #1
 1399              	.LVL182:
 1400 0048 F8BD     		pop	{r3, r4, r5, r6, r7, pc}
 1401              	.LVL183:
 1402              	.L85:
 230:..\..\mruby_c2\Design01.cydsn/c_hash.c ****   }
 1403              		.loc 1 230 0
 1404 004a 0120     		movs	r0, #1
 1405              	.LBE112:
 234:..\..\mruby_c2\Design01.cydsn/c_hash.c **** 
 1406              		.loc 1 234 0
 1407 004c F8BD     		pop	{r3, r4, r5, r6, r7, pc}
 1408              		.cfi_endproc
 1409              	.LFE21:
 1410              		.size	mrbc_hash_compare, .-mrbc_hash_compare
 1411 004e 00BF     		.section	.text.mrbc_hash_dup,"ax",%progbits
 1412              		.align	2
 1413              		.global	mrbc_hash_dup
 1414              		.thumb
 1415              		.thumb_func
 1416              		.type	mrbc_hash_dup, %function
 1417              	mrbc_hash_dup:
 1418              	.LFB22:
 244:..\..\mruby_c2\Design01.cydsn/c_hash.c ****   mrb_value ret = mrbc_hash_new(vm, mrbc_hash_size(src));
 1419              		.loc 1 244 0
 1420              		.cfi_startproc
 1421              		@ args = 0, pretend = 0, frame = 0
 1422              		@ frame_needed = 0, uses_anonymous_args = 0
 1423              	.LVL184:
 1424 0000 70B5     		push	{r4, r5, r6, lr}
ARM GAS  C:\Users\164\AppData\Local\Temp\ccySM5k9.s 			page 44


 1425              		.cfi_def_cfa_offset 16
 1426              		.cfi_offset 4, -16
 1427              		.cfi_offset 5, -12
 1428              		.cfi_offset 6, -8
 1429              		.cfi_offset 14, -4
 1430 0002 0646     		mov	r6, r0
 1431 0004 1446     		mov	r4, r2
 1432              	.LVL185:
 1433              	.LBB113:
 1434              	.LBB114:
  69:..\..\mruby_c2\Design01.cydsn/c_hash.h **** }
 1435              		.loc 2 69 0
 1436 0006 9368     		ldr	r3, [r2, #8]
 1437 0008 DA88     		ldrh	r2, [r3, #6]
 1438              	.LVL186:
 1439              	.LBE114:
 1440              	.LBE113:
 245:..\..\mruby_c2\Design01.cydsn/c_hash.c ****   if( ret.hash == NULL ) return ret;		// ENOMEM
 1441              		.loc 1 245 0
 1442 000a 5208     		lsrs	r2, r2, #1
 1443 000c FFF7FEFF 		bl	mrbc_hash_new
 1444              	.LVL187:
 246:..\..\mruby_c2\Design01.cydsn/c_hash.c **** 
 1445              		.loc 1 246 0
 1446 0010 B568     		ldr	r5, [r6, #8]
 1447 0012 A5B1     		cbz	r5, .L87
 248:..\..\mruby_c2\Design01.cydsn/c_hash.c ****   memcpy( ret.hash->data, h->data, sizeof(mrb_value) * h->n_stored );
 1448              		.loc 1 248 0
 1449 0014 A468     		ldr	r4, [r4, #8]
 1450              	.LVL188:
 249:..\..\mruby_c2\Design01.cydsn/c_hash.c ****   ret.hash->n_stored = h->n_stored;
 1451              		.loc 1 249 0
 1452 0016 E288     		ldrh	r2, [r4, #6]
 1453 0018 1201     		lsls	r2, r2, #4
 1454 001a A168     		ldr	r1, [r4, #8]
 1455 001c A868     		ldr	r0, [r5, #8]
 1456 001e FFF7FEFF 		bl	memcpy
 1457              	.LVL189:
 250:..\..\mruby_c2\Design01.cydsn/c_hash.c **** 
 1458              		.loc 1 250 0
 1459 0022 E388     		ldrh	r3, [r4, #6]
 1460 0024 EB80     		strh	r3, [r5, #6]	@ movhi
 252:..\..\mruby_c2\Design01.cydsn/c_hash.c ****   const mrb_value *p2 = p1 + h->n_stored;
 1461              		.loc 1 252 0
 1462 0026 A068     		ldr	r0, [r4, #8]
 1463              	.LVL190:
 253:..\..\mruby_c2\Design01.cydsn/c_hash.c ****   while( p1 < p2 ) {
 1464              		.loc 1 253 0
 1465 0028 E588     		ldrh	r5, [r4, #6]
 1466 002a 00EB0515 		add	r5, r0, r5, lsl #4
 1467              	.LVL191:
 254:..\..\mruby_c2\Design01.cydsn/c_hash.c ****     mrbc_dup(p1++);
 1468              		.loc 1 254 0
 1469 002e 04E0     		b	.L89
 1470              	.LVL192:
 1471              	.L90:
 255:..\..\mruby_c2\Design01.cydsn/c_hash.c ****   }
ARM GAS  C:\Users\164\AppData\Local\Temp\ccySM5k9.s 			page 45


 1472              		.loc 1 255 0
 1473 0030 00F11004 		add	r4, r0, #16
 1474              	.LVL193:
 1475 0034 FFF7FEFF 		bl	mrbc_dup
 1476              	.LVL194:
 1477 0038 2046     		mov	r0, r4
 1478              	.LVL195:
 1479              	.L89:
 254:..\..\mruby_c2\Design01.cydsn/c_hash.c ****     mrbc_dup(p1++);
 1480              		.loc 1 254 0
 1481 003a A842     		cmp	r0, r5
 1482 003c F8D3     		bcc	.L90
 1483              	.LVL196:
 1484              	.L87:
 261:..\..\mruby_c2\Design01.cydsn/c_hash.c **** 
 1485              		.loc 1 261 0
 1486 003e 3046     		mov	r0, r6
 1487 0040 70BD     		pop	{r4, r5, r6, pc}
 1488              		.cfi_endproc
 1489              	.LFE22:
 1490              		.size	mrbc_hash_dup, .-mrbc_hash_dup
 1491 0042 00BF     		.section	.text.c_hash_merge,"ax",%progbits
 1492              		.align	2
 1493              		.thumb
 1494              		.thumb_func
 1495              		.type	c_hash_merge, %function
 1496              	c_hash_merge:
 1497              	.LFB35:
 455:..\..\mruby_c2\Design01.cydsn/c_hash.c ****   mrb_value ret = mrbc_hash_dup( vm, &v[0] );
 1498              		.loc 1 455 0
 1499              		.cfi_startproc
 1500              		@ args = 0, pretend = 0, frame = 40
 1501              		@ frame_needed = 0, uses_anonymous_args = 0
 1502              	.LVL197:
 1503 0000 F0B5     		push	{r4, r5, r6, r7, lr}
 1504              		.cfi_def_cfa_offset 20
 1505              		.cfi_offset 4, -20
 1506              		.cfi_offset 5, -16
 1507              		.cfi_offset 6, -12
 1508              		.cfi_offset 7, -8
 1509              		.cfi_offset 14, -4
 1510 0002 8BB0     		sub	sp, sp, #44
 1511              		.cfi_def_cfa_offset 64
 1512 0004 0F46     		mov	r7, r1
 456:..\..\mruby_c2\Design01.cydsn/c_hash.c ****   mrb_hash_iterator ite = mrbc_hash_iterator(&v[1]);
 1513              		.loc 1 456 0
 1514 0006 0A46     		mov	r2, r1
 1515              	.LVL198:
 1516 0008 0146     		mov	r1, r0
 1517              	.LVL199:
 1518 000a 06A8     		add	r0, sp, #24
 1519              	.LVL200:
 1520 000c FFF7FEFF 		bl	mrbc_hash_dup
 1521              	.LVL201:
 1522              	.LBB115:
 1523              	.LBB116:
  94:..\..\mruby_c2\Design01.cydsn/c_hash.h ****   ite.point = v->hash->data;
ARM GAS  C:\Users\164\AppData\Local\Temp\ccySM5k9.s 			page 46


 1524              		.loc 2 94 0
 1525 0010 BA69     		ldr	r2, [r7, #24]
 1526 0012 0092     		str	r2, [sp]
  95:..\..\mruby_c2\Design01.cydsn/c_hash.h ****   ite.p_end = ite.point + v->hash->n_stored;
 1527              		.loc 2 95 0
 1528 0014 9368     		ldr	r3, [r2, #8]
 1529 0016 0193     		str	r3, [sp, #4]
  96:..\..\mruby_c2\Design01.cydsn/c_hash.h **** 
 1530              		.loc 2 96 0
 1531 0018 D688     		ldrh	r6, [r2, #6]
 1532 001a 03EB0616 		add	r6, r3, r6, lsl #4
 1533 001e 0296     		str	r6, [sp, #8]
  98:..\..\mruby_c2\Design01.cydsn/c_hash.h **** }
 1534              		.loc 2 98 0
 1535 0020 03AB     		add	r3, sp, #12
 1536 0022 9DE80700 		ldmia	sp, {r0, r1, r2}
 1537 0026 83E80700 		stmia	r3, {r0, r1, r2}
 1538 002a 0FE0     		b	.L93
 1539              	.L94:
 1540              	.LVL202:
 1541              	.LBE116:
 1542              	.LBE115:
 1543              	.LBB117:
 1544              	.LBB118:
 1545              	.LBB119:
 1546              		.loc 2 115 0
 1547 002c 04F12003 		add	r3, r4, #32
 1548 0030 0493     		str	r3, [sp, #16]
 1549              	.LVL203:
 1550              	.LBE119:
 1551              	.LBE118:
 461:..\..\mruby_c2\Design01.cydsn/c_hash.c ****     mrbc_dup( &kv[0] );
 1552              		.loc 1 461 0
 1553 0032 04F11005 		add	r5, r4, #16
 1554 0036 2A46     		mov	r2, r5
 1555 0038 2146     		mov	r1, r4
 1556 003a 06A8     		add	r0, sp, #24
 1557 003c FFF7FEFF 		bl	mrbc_hash_set
 1558              	.LVL204:
 462:..\..\mruby_c2\Design01.cydsn/c_hash.c ****     mrbc_dup( &kv[1] );
 1559              		.loc 1 462 0
 1560 0040 2046     		mov	r0, r4
 1561 0042 FFF7FEFF 		bl	mrbc_dup
 1562              	.LVL205:
 463:..\..\mruby_c2\Design01.cydsn/c_hash.c ****   }
 1563              		.loc 1 463 0
 1564 0046 2846     		mov	r0, r5
 1565 0048 FFF7FEFF 		bl	mrbc_dup
 1566              	.LVL206:
 1567              	.L93:
 1568              	.LBE117:
 1569              	.LBB120:
 1570              	.LBB121:
 106:..\..\mruby_c2\Design01.cydsn/c_hash.h **** }
 1571              		.loc 2 106 0
 1572 004c 049C     		ldr	r4, [sp, #16]
 1573              	.LVL207:
ARM GAS  C:\Users\164\AppData\Local\Temp\ccySM5k9.s 			page 47


 1574              	.LBE121:
 1575              	.LBE120:
 459:..\..\mruby_c2\Design01.cydsn/c_hash.c ****     mrb_value *kv = mrbc_hash_i_next(&ite);
 1576              		.loc 1 459 0
 1577 004e B442     		cmp	r4, r6
 1578 0050 ECD3     		bcc	.L94
 466:..\..\mruby_c2\Design01.cydsn/c_hash.c **** }
 1579              		.loc 1 466 0
 1580 0052 3846     		mov	r0, r7
 1581 0054 FFF7FEFF 		bl	mrbc_release
 1582              	.LVL208:
 1583 0058 0AAB     		add	r3, sp, #40
 1584 005a 13E90F00 		ldmdb	r3, {r0, r1, r2, r3}
 1585 005e 87E80F00 		stmia	r7, {r0, r1, r2, r3}
 467:..\..\mruby_c2\Design01.cydsn/c_hash.c **** 
 1586              		.loc 1 467 0
 1587 0062 0BB0     		add	sp, sp, #44
 1588              		.cfi_def_cfa_offset 20
 1589              		@ sp needed
 1590 0064 F0BD     		pop	{r4, r5, r6, r7, pc}
 1591              		.cfi_endproc
 1592              	.LFE35:
 1593              		.size	c_hash_merge, .-c_hash_merge
 1594 0066 00BF     		.section	.text.c_hash_dup,"ax",%progbits
 1595              		.align	2
 1596              		.thumb
 1597              		.thumb_func
 1598              		.type	c_hash_dup, %function
 1599              	c_hash_dup:
 1600              	.LFB27:
 321:..\..\mruby_c2\Design01.cydsn/c_hash.c ****   mrb_value ret = mrbc_hash_dup( vm, &v[0] );
 1601              		.loc 1 321 0
 1602              		.cfi_startproc
 1603              		@ args = 0, pretend = 0, frame = 16
 1604              		@ frame_needed = 0, uses_anonymous_args = 0
 1605              	.LVL209:
 1606 0000 30B5     		push	{r4, r5, lr}
 1607              		.cfi_def_cfa_offset 12
 1608              		.cfi_offset 4, -12
 1609              		.cfi_offset 5, -8
 1610              		.cfi_offset 14, -4
 1611 0002 85B0     		sub	sp, sp, #20
 1612              		.cfi_def_cfa_offset 32
 1613 0004 0C46     		mov	r4, r1
 322:..\..\mruby_c2\Design01.cydsn/c_hash.c **** 
 1614              		.loc 1 322 0
 1615 0006 0A46     		mov	r2, r1
 1616              	.LVL210:
 1617 0008 0146     		mov	r1, r0
 1618              	.LVL211:
 1619 000a 6846     		mov	r0, sp
 1620              	.LVL212:
 1621 000c FFF7FEFF 		bl	mrbc_hash_dup
 1622              	.LVL213:
 324:..\..\mruby_c2\Design01.cydsn/c_hash.c **** }
 1623              		.loc 1 324 0
 1624 0010 2046     		mov	r0, r4
ARM GAS  C:\Users\164\AppData\Local\Temp\ccySM5k9.s 			page 48


 1625 0012 FFF7FEFF 		bl	mrbc_release
 1626              	.LVL214:
 1627 0016 9DE80F00 		ldmia	sp, {r0, r1, r2, r3}
 1628 001a 84E80F00 		stmia	r4, {r0, r1, r2, r3}
 325:..\..\mruby_c2\Design01.cydsn/c_hash.c **** 
 1629              		.loc 1 325 0
 1630 001e 05B0     		add	sp, sp, #20
 1631              		.cfi_def_cfa_offset 12
 1632              		@ sp needed
 1633 0020 30BD     		pop	{r4, r5, pc}
 1634              		.cfi_endproc
 1635              	.LFE27:
 1636              		.size	c_hash_dup, .-c_hash_dup
 1637 0022 00BF     		.section	.text.mrbc_init_class_hash,"ax",%progbits
 1638              		.align	2
 1639              		.global	mrbc_init_class_hash
 1640              		.thumb
 1641              		.thumb_func
 1642              		.type	mrbc_init_class_hash, %function
 1643              	mrbc_init_class_hash:
 1644              	.LFB38:
 502:..\..\mruby_c2\Design01.cydsn/c_hash.c **** 
 503:..\..\mruby_c2\Design01.cydsn/c_hash.c **** 
 504:..\..\mruby_c2\Design01.cydsn/c_hash.c **** 
 505:..\..\mruby_c2\Design01.cydsn/c_hash.c **** void mrbc_init_class_hash(struct VM *vm)
 506:..\..\mruby_c2\Design01.cydsn/c_hash.c **** {
 1645              		.loc 1 506 0
 1646              		.cfi_startproc
 1647              		@ args = 0, pretend = 0, frame = 0
 1648              		@ frame_needed = 0, uses_anonymous_args = 0
 1649              	.LVL215:
 1650 0000 70B5     		push	{r4, r5, r6, lr}
 1651              		.cfi_def_cfa_offset 16
 1652              		.cfi_offset 4, -16
 1653              		.cfi_offset 5, -12
 1654              		.cfi_offset 6, -8
 1655              		.cfi_offset 14, -4
 1656 0002 0446     		mov	r4, r0
 507:..\..\mruby_c2\Design01.cydsn/c_hash.c ****   mrbc_class_hash = mrbc_define_class(vm, "Hash", mrbc_class_object);
 1657              		.loc 1 507 0
 1658 0004 3A4B     		ldr	r3, .L100
 1659 0006 1A68     		ldr	r2, [r3]
 1660 0008 3A49     		ldr	r1, .L100+4
 1661 000a FFF7FEFF 		bl	mrbc_define_class
 1662              	.LVL216:
 1663 000e 0146     		mov	r1, r0
 1664 0010 394D     		ldr	r5, .L100+8
 1665 0012 2860     		str	r0, [r5]
 508:..\..\mruby_c2\Design01.cydsn/c_hash.c **** 
 509:..\..\mruby_c2\Design01.cydsn/c_hash.c ****   mrbc_define_method(vm, mrbc_class_hash, "new",	c_hash_new);
 1666              		.loc 1 509 0
 1667 0014 394B     		ldr	r3, .L100+12
 1668 0016 3A4A     		ldr	r2, .L100+16
 1669 0018 2046     		mov	r0, r4
 1670 001a FFF7FEFF 		bl	mrbc_define_method
 1671              	.LVL217:
 510:..\..\mruby_c2\Design01.cydsn/c_hash.c ****   mrbc_define_method(vm, mrbc_class_hash, "[]",		c_hash_get);
ARM GAS  C:\Users\164\AppData\Local\Temp\ccySM5k9.s 			page 49


 1672              		.loc 1 510 0
 1673 001e 394B     		ldr	r3, .L100+20
 1674 0020 394A     		ldr	r2, .L100+24
 1675 0022 2968     		ldr	r1, [r5]
 1676 0024 2046     		mov	r0, r4
 1677 0026 FFF7FEFF 		bl	mrbc_define_method
 1678              	.LVL218:
 511:..\..\mruby_c2\Design01.cydsn/c_hash.c ****   mrbc_define_method(vm, mrbc_class_hash, "[]=",	c_hash_set);
 1679              		.loc 1 511 0
 1680 002a 384B     		ldr	r3, .L100+28
 1681 002c 384A     		ldr	r2, .L100+32
 1682 002e 2968     		ldr	r1, [r5]
 1683 0030 2046     		mov	r0, r4
 1684 0032 FFF7FEFF 		bl	mrbc_define_method
 1685              	.LVL219:
 512:..\..\mruby_c2\Design01.cydsn/c_hash.c ****   mrbc_define_method(vm, mrbc_class_hash, "clear",	c_hash_clear);
 1686              		.loc 1 512 0
 1687 0036 374B     		ldr	r3, .L100+36
 1688 0038 374A     		ldr	r2, .L100+40
 1689 003a 2968     		ldr	r1, [r5]
 1690 003c 2046     		mov	r0, r4
 1691 003e FFF7FEFF 		bl	mrbc_define_method
 1692              	.LVL220:
 513:..\..\mruby_c2\Design01.cydsn/c_hash.c ****   mrbc_define_method(vm, mrbc_class_hash, "dup",	c_hash_dup);
 1693              		.loc 1 513 0
 1694 0042 364B     		ldr	r3, .L100+44
 1695 0044 364A     		ldr	r2, .L100+48
 1696 0046 2968     		ldr	r1, [r5]
 1697 0048 2046     		mov	r0, r4
 1698 004a FFF7FEFF 		bl	mrbc_define_method
 1699              	.LVL221:
 514:..\..\mruby_c2\Design01.cydsn/c_hash.c ****   mrbc_define_method(vm, mrbc_class_hash, "delete",	c_hash_delete);
 1700              		.loc 1 514 0
 1701 004e 354B     		ldr	r3, .L100+52
 1702 0050 354A     		ldr	r2, .L100+56
 1703 0052 2968     		ldr	r1, [r5]
 1704 0054 2046     		mov	r0, r4
 1705 0056 FFF7FEFF 		bl	mrbc_define_method
 1706              	.LVL222:
 515:..\..\mruby_c2\Design01.cydsn/c_hash.c ****   mrbc_define_method(vm, mrbc_class_hash, "empty?",	c_hash_empty);
 1707              		.loc 1 515 0
 1708 005a 344B     		ldr	r3, .L100+60
 1709 005c 344A     		ldr	r2, .L100+64
 1710 005e 2968     		ldr	r1, [r5]
 1711 0060 2046     		mov	r0, r4
 1712 0062 FFF7FEFF 		bl	mrbc_define_method
 1713              	.LVL223:
 516:..\..\mruby_c2\Design01.cydsn/c_hash.c ****   mrbc_define_method(vm, mrbc_class_hash, "has_key?",	c_hash_has_key);
 1714              		.loc 1 516 0
 1715 0066 334B     		ldr	r3, .L100+68
 1716 0068 334A     		ldr	r2, .L100+72
 1717 006a 2968     		ldr	r1, [r5]
 1718 006c 2046     		mov	r0, r4
 1719 006e FFF7FEFF 		bl	mrbc_define_method
 1720              	.LVL224:
 517:..\..\mruby_c2\Design01.cydsn/c_hash.c ****   mrbc_define_method(vm, mrbc_class_hash, "has_value?",	c_hash_has_value);
 1721              		.loc 1 517 0
ARM GAS  C:\Users\164\AppData\Local\Temp\ccySM5k9.s 			page 50


 1722 0072 324B     		ldr	r3, .L100+76
 1723 0074 324A     		ldr	r2, .L100+80
 1724 0076 2968     		ldr	r1, [r5]
 1725 0078 2046     		mov	r0, r4
 1726 007a FFF7FEFF 		bl	mrbc_define_method
 1727              	.LVL225:
 518:..\..\mruby_c2\Design01.cydsn/c_hash.c ****   mrbc_define_method(vm, mrbc_class_hash, "key",	c_hash_key);
 1728              		.loc 1 518 0
 1729 007e 314B     		ldr	r3, .L100+84
 1730 0080 314A     		ldr	r2, .L100+88
 1731 0082 2968     		ldr	r1, [r5]
 1732 0084 2046     		mov	r0, r4
 1733 0086 FFF7FEFF 		bl	mrbc_define_method
 1734              	.LVL226:
 519:..\..\mruby_c2\Design01.cydsn/c_hash.c ****   mrbc_define_method(vm, mrbc_class_hash, "keys",	c_hash_keys);
 1735              		.loc 1 519 0
 1736 008a 304B     		ldr	r3, .L100+92
 1737 008c 304A     		ldr	r2, .L100+96
 1738 008e 2968     		ldr	r1, [r5]
 1739 0090 2046     		mov	r0, r4
 1740 0092 FFF7FEFF 		bl	mrbc_define_method
 1741              	.LVL227:
 520:..\..\mruby_c2\Design01.cydsn/c_hash.c ****   mrbc_define_method(vm, mrbc_class_hash, "size",	c_hash_size);
 1742              		.loc 1 520 0
 1743 0096 2F4E     		ldr	r6, .L100+100
 1744 0098 3346     		mov	r3, r6
 1745 009a 2F4A     		ldr	r2, .L100+104
 1746 009c 2968     		ldr	r1, [r5]
 1747 009e 2046     		mov	r0, r4
 1748 00a0 FFF7FEFF 		bl	mrbc_define_method
 1749              	.LVL228:
 521:..\..\mruby_c2\Design01.cydsn/c_hash.c ****   mrbc_define_method(vm, mrbc_class_hash, "length",	c_hash_size);
 1750              		.loc 1 521 0
 1751 00a4 3346     		mov	r3, r6
 1752 00a6 2D4A     		ldr	r2, .L100+108
 1753 00a8 2968     		ldr	r1, [r5]
 1754 00aa 2046     		mov	r0, r4
 1755 00ac FFF7FEFF 		bl	mrbc_define_method
 1756              	.LVL229:
 522:..\..\mruby_c2\Design01.cydsn/c_hash.c ****   mrbc_define_method(vm, mrbc_class_hash, "count",	c_hash_size);
 1757              		.loc 1 522 0
 1758 00b0 3346     		mov	r3, r6
 1759 00b2 2B4A     		ldr	r2, .L100+112
 1760 00b4 2968     		ldr	r1, [r5]
 1761 00b6 2046     		mov	r0, r4
 1762 00b8 FFF7FEFF 		bl	mrbc_define_method
 1763              	.LVL230:
 523:..\..\mruby_c2\Design01.cydsn/c_hash.c ****   mrbc_define_method(vm, mrbc_class_hash, "merge",	c_hash_merge);
 1764              		.loc 1 523 0
 1765 00bc 294B     		ldr	r3, .L100+116
 1766 00be 2A4A     		ldr	r2, .L100+120
 1767 00c0 2968     		ldr	r1, [r5]
 1768 00c2 2046     		mov	r0, r4
 1769 00c4 FFF7FEFF 		bl	mrbc_define_method
 1770              	.LVL231:
 524:..\..\mruby_c2\Design01.cydsn/c_hash.c ****   mrbc_define_method(vm, mrbc_class_hash, "merge!",	c_hash_merge_self);
 1771              		.loc 1 524 0
ARM GAS  C:\Users\164\AppData\Local\Temp\ccySM5k9.s 			page 51


 1772 00c8 284B     		ldr	r3, .L100+124
 1773 00ca 294A     		ldr	r2, .L100+128
 1774 00cc 2968     		ldr	r1, [r5]
 1775 00ce 2046     		mov	r0, r4
 1776 00d0 FFF7FEFF 		bl	mrbc_define_method
 1777              	.LVL232:
 525:..\..\mruby_c2\Design01.cydsn/c_hash.c ****   mrbc_define_method(vm, mrbc_class_hash, "to_h",	c_ineffect);
 1778              		.loc 1 525 0
 1779 00d4 274B     		ldr	r3, .L100+132
 1780 00d6 284A     		ldr	r2, .L100+136
 1781 00d8 2968     		ldr	r1, [r5]
 1782 00da 2046     		mov	r0, r4
 1783 00dc FFF7FEFF 		bl	mrbc_define_method
 1784              	.LVL233:
 526:..\..\mruby_c2\Design01.cydsn/c_hash.c ****   mrbc_define_method(vm, mrbc_class_hash, "values",	c_hash_values);
 1785              		.loc 1 526 0
 1786 00e0 264B     		ldr	r3, .L100+140
 1787 00e2 274A     		ldr	r2, .L100+144
 1788 00e4 2968     		ldr	r1, [r5]
 1789 00e6 2046     		mov	r0, r4
 1790 00e8 FFF7FEFF 		bl	mrbc_define_method
 1791              	.LVL234:
 1792 00ec 70BD     		pop	{r4, r5, r6, pc}
 1793              	.LVL235:
 1794              	.L101:
 1795 00ee 00BF     		.align	2
 1796              	.L100:
 1797 00f0 00000000 		.word	mrbc_class_object
 1798 00f4 00000000 		.word	.LC0
 1799 00f8 00000000 		.word	mrbc_class_hash
 1800 00fc 00000000 		.word	c_hash_new
 1801 0100 08000000 		.word	.LC1
 1802 0104 00000000 		.word	c_hash_get
 1803 0108 0C000000 		.word	.LC2
 1804 010c 00000000 		.word	c_hash_set
 1805 0110 10000000 		.word	.LC3
 1806 0114 00000000 		.word	c_hash_clear
 1807 0118 14000000 		.word	.LC4
 1808 011c 00000000 		.word	c_hash_dup
 1809 0120 1C000000 		.word	.LC5
 1810 0124 00000000 		.word	c_hash_delete
 1811 0128 20000000 		.word	.LC6
 1812 012c 00000000 		.word	c_hash_empty
 1813 0130 28000000 		.word	.LC7
 1814 0134 00000000 		.word	c_hash_has_key
 1815 0138 30000000 		.word	.LC8
 1816 013c 00000000 		.word	c_hash_has_value
 1817 0140 3C000000 		.word	.LC9
 1818 0144 00000000 		.word	c_hash_key
 1819 0148 48000000 		.word	.LC10
 1820 014c 00000000 		.word	c_hash_keys
 1821 0150 4C000000 		.word	.LC11
 1822 0154 00000000 		.word	c_hash_size
 1823 0158 54000000 		.word	.LC12
 1824 015c 5C000000 		.word	.LC13
 1825 0160 64000000 		.word	.LC14
 1826 0164 00000000 		.word	c_hash_merge
ARM GAS  C:\Users\164\AppData\Local\Temp\ccySM5k9.s 			page 52


 1827 0168 6C000000 		.word	.LC15
 1828 016c 00000000 		.word	c_hash_merge_self
 1829 0170 74000000 		.word	.LC16
 1830 0174 00000000 		.word	c_ineffect
 1831 0178 7C000000 		.word	.LC17
 1832 017c 00000000 		.word	c_hash_values
 1833 0180 84000000 		.word	.LC18
 1834              		.cfi_endproc
 1835              	.LFE38:
 1836              		.size	mrbc_init_class_hash, .-mrbc_init_class_hash
 1837              		.section	.rodata.str1.4,"aMS",%progbits,1
 1838              		.align	2
 1839              	.LC0:
 1840 0000 48617368 		.ascii	"Hash\000"
 1840      00
 1841 0005 000000   		.space	3
 1842              	.LC1:
 1843 0008 6E657700 		.ascii	"new\000"
 1844              	.LC2:
 1845 000c 5B5D00   		.ascii	"[]\000"
 1846 000f 00       		.space	1
 1847              	.LC3:
 1848 0010 5B5D3D00 		.ascii	"[]=\000"
 1849              	.LC4:
 1850 0014 636C6561 		.ascii	"clear\000"
 1850      7200
 1851 001a 0000     		.space	2
 1852              	.LC5:
 1853 001c 64757000 		.ascii	"dup\000"
 1854              	.LC6:
 1855 0020 64656C65 		.ascii	"delete\000"
 1855      746500
 1856 0027 00       		.space	1
 1857              	.LC7:
 1858 0028 656D7074 		.ascii	"empty?\000"
 1858      793F00
 1859 002f 00       		.space	1
 1860              	.LC8:
 1861 0030 6861735F 		.ascii	"has_key?\000"
 1861      6B65793F 
 1861      00
 1862 0039 000000   		.space	3
 1863              	.LC9:
 1864 003c 6861735F 		.ascii	"has_value?\000"
 1864      76616C75 
 1864      653F00
 1865 0047 00       		.space	1
 1866              	.LC10:
 1867 0048 6B657900 		.ascii	"key\000"
 1868              	.LC11:
 1869 004c 6B657973 		.ascii	"keys\000"
 1869      00
 1870 0051 000000   		.space	3
 1871              	.LC12:
 1872 0054 73697A65 		.ascii	"size\000"
 1872      00
 1873 0059 000000   		.space	3
ARM GAS  C:\Users\164\AppData\Local\Temp\ccySM5k9.s 			page 53


 1874              	.LC13:
 1875 005c 6C656E67 		.ascii	"length\000"
 1875      746800
 1876 0063 00       		.space	1
 1877              	.LC14:
 1878 0064 636F756E 		.ascii	"count\000"
 1878      7400
 1879 006a 0000     		.space	2
 1880              	.LC15:
 1881 006c 6D657267 		.ascii	"merge\000"
 1881      6500
 1882 0072 0000     		.space	2
 1883              	.LC16:
 1884 0074 6D657267 		.ascii	"merge!\000"
 1884      652100
 1885 007b 00       		.space	1
 1886              	.LC17:
 1887 007c 746F5F68 		.ascii	"to_h\000"
 1887      00
 1888 0081 000000   		.space	3
 1889              	.LC18:
 1890 0084 76616C75 		.ascii	"values\000"
 1890      657300
 1891              		.text
 1892              	.Letext0:
 1893              		.file 4 "c:\\program files (x86)\\cypress\\psoc creator\\4.2\\psoc creator\\import\\gnu\\arm\\5.4.
 1894              		.file 5 "c:\\program files (x86)\\cypress\\psoc creator\\4.2\\psoc creator\\import\\gnu\\arm\\5.4.
 1895              		.file 6 "..\\..\\mruby_c2\\Design01.cydsn\\vm.h"
 1896              		.file 7 "..\\..\\mruby_c2\\Design01.cydsn\\c_array.h"
 1897              		.file 8 "..\\..\\mruby_c2\\Design01.cydsn\\static.h"
 1898              		.file 9 "..\\..\\mruby_c2\\Design01.cydsn\\alloc.h"
 1899              		.file 10 "c:\\program files (x86)\\cypress\\psoc creator\\4.2\\psoc creator\\import\\gnu\\arm\\5.4
 1900              		.file 11 "..\\..\\mruby_c2\\Design01.cydsn\\class.h"