ARM GAS  C:\Users\164\AppData\Local\Temp\ccySM5k9.s 			page 1


   1              		.syntax unified
   2              		.cpu cortex-m3
   3              		.fpu softvfp
   4              		.eabi_attribute 20, 1
   5              		.eabi_attribute 21, 1
   6              		.eabi_attribute 23, 3
   7              		.eabi_attribute 24, 1
   8              		.eabi_attribute 25, 1
   9              		.eabi_attribute 26, 1
  10              		.eabi_attribute 30, 1
  11              		.eabi_attribute 34, 1
  12              		.eabi_attribute 18, 4
  13              		.thumb
  14              		.syntax unified
  15              		.file	"c_hash.c"
  16              		.text
  17              	.Ltext0:
  18              		.cfi_sections	.debug_frame
  19              		.section	.text.c_hash_values,"ax",%progbits
  20              		.align	2
  21              		.thumb
  22              		.thumb_func
  23              		.type	c_hash_values, %function
  24              	c_hash_values:
  25              	.LFB37:
  26              		.file 1 "..\\..\\mruby_c2\\Design01.cydsn\\c_hash.c"
   1:..\..\mruby_c2\Design01.cydsn/c_hash.c **** /*! @file
   2:..\..\mruby_c2\Design01.cydsn/c_hash.c ****   @brief
   3:..\..\mruby_c2\Design01.cydsn/c_hash.c ****   mruby/c Hash class
   4:..\..\mruby_c2\Design01.cydsn/c_hash.c **** 
   5:..\..\mruby_c2\Design01.cydsn/c_hash.c ****   <pre>
   6:..\..\mruby_c2\Design01.cydsn/c_hash.c ****   Copyright (C) 2015-2018 Kyushu Institute of Technology.
   7:..\..\mruby_c2\Design01.cydsn/c_hash.c ****   Copyright (C) 2015-2018 Shimane IT Open-Innovation Center.
   8:..\..\mruby_c2\Design01.cydsn/c_hash.c **** 
   9:..\..\mruby_c2\Design01.cydsn/c_hash.c ****   This file is distributed under BSD 3-Clause License.
  10:..\..\mruby_c2\Design01.cydsn/c_hash.c **** 
  11:..\..\mruby_c2\Design01.cydsn/c_hash.c ****   </pre>
  12:..\..\mruby_c2\Design01.cydsn/c_hash.c **** */
  13:..\..\mruby_c2\Design01.cydsn/c_hash.c **** 
  14:..\..\mruby_c2\Design01.cydsn/c_hash.c **** #include "vm_config.h"
  15:..\..\mruby_c2\Design01.cydsn/c_hash.c **** #include <string.h>
  16:..\..\mruby_c2\Design01.cydsn/c_hash.c **** #include <assert.h>
  17:..\..\mruby_c2\Design01.cydsn/c_hash.c **** 
  18:..\..\mruby_c2\Design01.cydsn/c_hash.c **** #include "value.h"
  19:..\..\mruby_c2\Design01.cydsn/c_hash.c **** #include "vm.h"
  20:..\..\mruby_c2\Design01.cydsn/c_hash.c **** #include "alloc.h"
  21:..\..\mruby_c2\Design01.cydsn/c_hash.c **** #include "static.h"
  22:..\..\mruby_c2\Design01.cydsn/c_hash.c **** #include "class.h"
  23:..\..\mruby_c2\Design01.cydsn/c_hash.c **** #include "c_array.h"
  24:..\..\mruby_c2\Design01.cydsn/c_hash.c **** #include "c_hash.h"
  25:..\..\mruby_c2\Design01.cydsn/c_hash.c **** 
  26:..\..\mruby_c2\Design01.cydsn/c_hash.c **** /*
  27:..\..\mruby_c2\Design01.cydsn/c_hash.c ****   function summary
  28:..\..\mruby_c2\Design01.cydsn/c_hash.c **** 
  29:..\..\mruby_c2\Design01.cydsn/c_hash.c ****  (constructor)
  30:..\..\mruby_c2\Design01.cydsn/c_hash.c ****     mrbc_hash_new
  31:..\..\mruby_c2\Design01.cydsn/c_hash.c **** 
ARM GAS  C:\Users\164\AppData\Local\Temp\ccySM5k9.s 			page 2


  32:..\..\mruby_c2\Design01.cydsn/c_hash.c ****  (destructor)
  33:..\..\mruby_c2\Design01.cydsn/c_hash.c ****     mrbc_hash_delete
  34:..\..\mruby_c2\Design01.cydsn/c_hash.c **** 
  35:..\..\mruby_c2\Design01.cydsn/c_hash.c ****  (setter)
  36:..\..\mruby_c2\Design01.cydsn/c_hash.c ****   --[name]-------------[arg]---[ret]-------
  37:..\..\mruby_c2\Design01.cydsn/c_hash.c ****     mrbc_hash_set	*K,*V	int
  38:..\..\mruby_c2\Design01.cydsn/c_hash.c **** 
  39:..\..\mruby_c2\Design01.cydsn/c_hash.c ****  (getter)
  40:..\..\mruby_c2\Design01.cydsn/c_hash.c ****   --[name]-------------[arg]---[ret]---[note]------------------------
  41:..\..\mruby_c2\Design01.cydsn/c_hash.c ****     mrbc_hash_get	*K	T	Data remains in the container
  42:..\..\mruby_c2\Design01.cydsn/c_hash.c ****     mrbc_hash_remove	*K	T	Data does not remain in the container
  43:..\..\mruby_c2\Design01.cydsn/c_hash.c ****     mrbc_hash_i_next		*T	Data remains in the container
  44:..\..\mruby_c2\Design01.cydsn/c_hash.c **** */
  45:..\..\mruby_c2\Design01.cydsn/c_hash.c **** 
  46:..\..\mruby_c2\Design01.cydsn/c_hash.c **** 
  47:..\..\mruby_c2\Design01.cydsn/c_hash.c **** 
  48:..\..\mruby_c2\Design01.cydsn/c_hash.c **** //================================================================
  49:..\..\mruby_c2\Design01.cydsn/c_hash.c **** /*! constructor
  50:..\..\mruby_c2\Design01.cydsn/c_hash.c **** 
  51:..\..\mruby_c2\Design01.cydsn/c_hash.c ****   @param  vm	pointer to VM.
  52:..\..\mruby_c2\Design01.cydsn/c_hash.c ****   @param  size	initial size
  53:..\..\mruby_c2\Design01.cydsn/c_hash.c ****   @return 	hash object
  54:..\..\mruby_c2\Design01.cydsn/c_hash.c **** */
  55:..\..\mruby_c2\Design01.cydsn/c_hash.c **** mrb_value mrbc_hash_new(struct VM *vm, int size)
  56:..\..\mruby_c2\Design01.cydsn/c_hash.c **** {
  57:..\..\mruby_c2\Design01.cydsn/c_hash.c ****   mrb_value value = {.tt = MRB_TT_HASH};
  58:..\..\mruby_c2\Design01.cydsn/c_hash.c **** 
  59:..\..\mruby_c2\Design01.cydsn/c_hash.c ****   /*
  60:..\..\mruby_c2\Design01.cydsn/c_hash.c ****     Allocate handle and data buffer.
  61:..\..\mruby_c2\Design01.cydsn/c_hash.c ****   */
  62:..\..\mruby_c2\Design01.cydsn/c_hash.c ****   mrb_hash *h = mrbc_alloc(vm, sizeof(mrb_hash));
  63:..\..\mruby_c2\Design01.cydsn/c_hash.c ****   if( !h ) return value;	// ENOMEM
  64:..\..\mruby_c2\Design01.cydsn/c_hash.c **** 
  65:..\..\mruby_c2\Design01.cydsn/c_hash.c ****   mrb_value *data = mrbc_alloc(vm, sizeof(mrb_value) * size * 2);
  66:..\..\mruby_c2\Design01.cydsn/c_hash.c ****   if( !data ) {			// ENOMEM
  67:..\..\mruby_c2\Design01.cydsn/c_hash.c ****     mrbc_raw_free( h );
  68:..\..\mruby_c2\Design01.cydsn/c_hash.c ****     return value;
  69:..\..\mruby_c2\Design01.cydsn/c_hash.c ****   }
  70:..\..\mruby_c2\Design01.cydsn/c_hash.c **** 
  71:..\..\mruby_c2\Design01.cydsn/c_hash.c ****   h->ref_count = 1;
  72:..\..\mruby_c2\Design01.cydsn/c_hash.c ****   h->tt = MRB_TT_HASH;
  73:..\..\mruby_c2\Design01.cydsn/c_hash.c ****   h->data_size = size * 2;
  74:..\..\mruby_c2\Design01.cydsn/c_hash.c ****   h->n_stored = 0;
  75:..\..\mruby_c2\Design01.cydsn/c_hash.c ****   h->data = data;
  76:..\..\mruby_c2\Design01.cydsn/c_hash.c **** 
  77:..\..\mruby_c2\Design01.cydsn/c_hash.c ****   value.hash = h;
  78:..\..\mruby_c2\Design01.cydsn/c_hash.c ****   return value;
  79:..\..\mruby_c2\Design01.cydsn/c_hash.c **** }
  80:..\..\mruby_c2\Design01.cydsn/c_hash.c **** 
  81:..\..\mruby_c2\Design01.cydsn/c_hash.c **** 
  82:..\..\mruby_c2\Design01.cydsn/c_hash.c **** //================================================================
  83:..\..\mruby_c2\Design01.cydsn/c_hash.c **** /*! destructor
  84:..\..\mruby_c2\Design01.cydsn/c_hash.c **** 
  85:..\..\mruby_c2\Design01.cydsn/c_hash.c ****   @param  hash	pointer to target value
  86:..\..\mruby_c2\Design01.cydsn/c_hash.c **** */
  87:..\..\mruby_c2\Design01.cydsn/c_hash.c **** void mrbc_hash_delete(mrb_value *hash)
  88:..\..\mruby_c2\Design01.cydsn/c_hash.c **** {
ARM GAS  C:\Users\164\AppData\Local\Temp\ccySM5k9.s 			page 3


  89:..\..\mruby_c2\Design01.cydsn/c_hash.c ****   // TODO: delete other members (for search).
  90:..\..\mruby_c2\Design01.cydsn/c_hash.c **** 
  91:..\..\mruby_c2\Design01.cydsn/c_hash.c ****   mrbc_array_delete(hash);
  92:..\..\mruby_c2\Design01.cydsn/c_hash.c **** }
  93:..\..\mruby_c2\Design01.cydsn/c_hash.c **** 
  94:..\..\mruby_c2\Design01.cydsn/c_hash.c **** 
  95:..\..\mruby_c2\Design01.cydsn/c_hash.c **** //================================================================
  96:..\..\mruby_c2\Design01.cydsn/c_hash.c **** /*! search key
  97:..\..\mruby_c2\Design01.cydsn/c_hash.c **** 
  98:..\..\mruby_c2\Design01.cydsn/c_hash.c ****   @param  hash	pointer to target hash
  99:..\..\mruby_c2\Design01.cydsn/c_hash.c ****   @param  key	pointer to key value
 100:..\..\mruby_c2\Design01.cydsn/c_hash.c ****   @return	pointer to found key or NULL(not found).
 101:..\..\mruby_c2\Design01.cydsn/c_hash.c **** */
 102:..\..\mruby_c2\Design01.cydsn/c_hash.c **** mrb_value * mrbc_hash_search(const mrb_value *hash, const mrb_value *key)
 103:..\..\mruby_c2\Design01.cydsn/c_hash.c **** {
 104:..\..\mruby_c2\Design01.cydsn/c_hash.c **** #ifndef MRBC_HASH_SEARCH_LINER
 105:..\..\mruby_c2\Design01.cydsn/c_hash.c **** #define MRBC_HASH_SEARCH_LINER
 106:..\..\mruby_c2\Design01.cydsn/c_hash.c **** #endif
 107:..\..\mruby_c2\Design01.cydsn/c_hash.c **** 
 108:..\..\mruby_c2\Design01.cydsn/c_hash.c **** #ifdef MRBC_HASH_SEARCH_LINER
 109:..\..\mruby_c2\Design01.cydsn/c_hash.c ****   mrb_value *p1 = hash->hash->data;
 110:..\..\mruby_c2\Design01.cydsn/c_hash.c ****   const mrb_value *p2 = p1 + hash->hash->n_stored;
 111:..\..\mruby_c2\Design01.cydsn/c_hash.c **** 
 112:..\..\mruby_c2\Design01.cydsn/c_hash.c ****   while( p1 < p2 ) {
 113:..\..\mruby_c2\Design01.cydsn/c_hash.c ****     if( mrbc_compare(p1, key) == 0 ) return p1;
 114:..\..\mruby_c2\Design01.cydsn/c_hash.c ****     p1 += 2;
 115:..\..\mruby_c2\Design01.cydsn/c_hash.c ****   }
 116:..\..\mruby_c2\Design01.cydsn/c_hash.c ****   return NULL;
 117:..\..\mruby_c2\Design01.cydsn/c_hash.c **** #endif
 118:..\..\mruby_c2\Design01.cydsn/c_hash.c **** 
 119:..\..\mruby_c2\Design01.cydsn/c_hash.c **** #ifdef MRBC_HASH_SEARCH_LINER_ITERATOR
 120:..\..\mruby_c2\Design01.cydsn/c_hash.c ****   mrb_hash_iterator ite = mrbc_hash_iterator(hash);
 121:..\..\mruby_c2\Design01.cydsn/c_hash.c ****   while( mrbc_hash_i_has_next(&ite) ) {
 122:..\..\mruby_c2\Design01.cydsn/c_hash.c ****     mrb_value *v = mrbc_hash_i_next(&ite);
 123:..\..\mruby_c2\Design01.cydsn/c_hash.c ****     if( mrbc_compare( v, key ) == 0 ) return v;
 124:..\..\mruby_c2\Design01.cydsn/c_hash.c ****   }
 125:..\..\mruby_c2\Design01.cydsn/c_hash.c ****   return NULL;
 126:..\..\mruby_c2\Design01.cydsn/c_hash.c **** #endif
 127:..\..\mruby_c2\Design01.cydsn/c_hash.c **** }
 128:..\..\mruby_c2\Design01.cydsn/c_hash.c **** 
 129:..\..\mruby_c2\Design01.cydsn/c_hash.c **** 
 130:..\..\mruby_c2\Design01.cydsn/c_hash.c **** //================================================================
 131:..\..\mruby_c2\Design01.cydsn/c_hash.c **** /*! setter
 132:..\..\mruby_c2\Design01.cydsn/c_hash.c **** 
 133:..\..\mruby_c2\Design01.cydsn/c_hash.c ****   @param  hash	pointer to target hash
 134:..\..\mruby_c2\Design01.cydsn/c_hash.c ****   @param  key	pointer to key value
 135:..\..\mruby_c2\Design01.cydsn/c_hash.c ****   @param  val	pointer to value
 136:..\..\mruby_c2\Design01.cydsn/c_hash.c ****   @return	mrb_error_code
 137:..\..\mruby_c2\Design01.cydsn/c_hash.c **** */
 138:..\..\mruby_c2\Design01.cydsn/c_hash.c **** int mrbc_hash_set(mrb_value *hash, mrb_value *key, mrb_value *val)
 139:..\..\mruby_c2\Design01.cydsn/c_hash.c **** {
 140:..\..\mruby_c2\Design01.cydsn/c_hash.c ****   mrb_value *v = mrbc_hash_search(hash, key);
 141:..\..\mruby_c2\Design01.cydsn/c_hash.c ****   int ret = 0;
 142:..\..\mruby_c2\Design01.cydsn/c_hash.c ****   if( v == NULL ) {
 143:..\..\mruby_c2\Design01.cydsn/c_hash.c ****     // set a new value
 144:..\..\mruby_c2\Design01.cydsn/c_hash.c ****     if( (ret = mrbc_array_push(hash, key)) != 0 ) goto RETURN;
 145:..\..\mruby_c2\Design01.cydsn/c_hash.c ****     ret = mrbc_array_push(hash, val);
ARM GAS  C:\Users\164\AppData\Local\Temp\ccySM5k9.s 			page 4


 146:..\..\mruby_c2\Design01.cydsn/c_hash.c **** 
 147:..\..\mruby_c2\Design01.cydsn/c_hash.c ****   } else {
 148:..\..\mruby_c2\Design01.cydsn/c_hash.c ****     // replace a value
 149:..\..\mruby_c2\Design01.cydsn/c_hash.c ****     mrbc_dec_ref_counter(v);
 150:..\..\mruby_c2\Design01.cydsn/c_hash.c ****     *v = *key;
 151:..\..\mruby_c2\Design01.cydsn/c_hash.c ****     mrbc_dec_ref_counter(++v);
 152:..\..\mruby_c2\Design01.cydsn/c_hash.c ****     *v = *val;
 153:..\..\mruby_c2\Design01.cydsn/c_hash.c ****   }
 154:..\..\mruby_c2\Design01.cydsn/c_hash.c **** 
 155:..\..\mruby_c2\Design01.cydsn/c_hash.c ****  RETURN:
 156:..\..\mruby_c2\Design01.cydsn/c_hash.c ****   return ret;
 157:..\..\mruby_c2\Design01.cydsn/c_hash.c **** }
 158:..\..\mruby_c2\Design01.cydsn/c_hash.c **** 
 159:..\..\mruby_c2\Design01.cydsn/c_hash.c **** 
 160:..\..\mruby_c2\Design01.cydsn/c_hash.c **** //================================================================
 161:..\..\mruby_c2\Design01.cydsn/c_hash.c **** /*! getter
 162:..\..\mruby_c2\Design01.cydsn/c_hash.c **** 
 163:..\..\mruby_c2\Design01.cydsn/c_hash.c ****   @param  hash	pointer to target hash
 164:..\..\mruby_c2\Design01.cydsn/c_hash.c ****   @param  key	pointer to key value
 165:..\..\mruby_c2\Design01.cydsn/c_hash.c ****   @return	mrb_value data at key position or Nil.
 166:..\..\mruby_c2\Design01.cydsn/c_hash.c **** */
 167:..\..\mruby_c2\Design01.cydsn/c_hash.c **** mrb_value mrbc_hash_get(mrb_value *hash, mrb_value *key)
 168:..\..\mruby_c2\Design01.cydsn/c_hash.c **** {
 169:..\..\mruby_c2\Design01.cydsn/c_hash.c ****   mrb_value *v = mrbc_hash_search(hash, key);
 170:..\..\mruby_c2\Design01.cydsn/c_hash.c ****   return v ? *++v : mrb_nil_value();
 171:..\..\mruby_c2\Design01.cydsn/c_hash.c **** }
 172:..\..\mruby_c2\Design01.cydsn/c_hash.c **** 
 173:..\..\mruby_c2\Design01.cydsn/c_hash.c **** 
 174:..\..\mruby_c2\Design01.cydsn/c_hash.c **** //================================================================
 175:..\..\mruby_c2\Design01.cydsn/c_hash.c **** /*! remove a data
 176:..\..\mruby_c2\Design01.cydsn/c_hash.c **** 
 177:..\..\mruby_c2\Design01.cydsn/c_hash.c ****   @param  hash	pointer to target hash
 178:..\..\mruby_c2\Design01.cydsn/c_hash.c ****   @param  key	pointer to key value
 179:..\..\mruby_c2\Design01.cydsn/c_hash.c ****   @return	removed data or Nil
 180:..\..\mruby_c2\Design01.cydsn/c_hash.c **** */
 181:..\..\mruby_c2\Design01.cydsn/c_hash.c **** mrb_value mrbc_hash_remove(mrb_value *hash, mrb_value *key)
 182:..\..\mruby_c2\Design01.cydsn/c_hash.c **** {
 183:..\..\mruby_c2\Design01.cydsn/c_hash.c ****   mrb_value *v = mrbc_hash_search(hash, key);
 184:..\..\mruby_c2\Design01.cydsn/c_hash.c ****   if( v == NULL ) return mrb_nil_value();
 185:..\..\mruby_c2\Design01.cydsn/c_hash.c **** 
 186:..\..\mruby_c2\Design01.cydsn/c_hash.c ****   mrbc_dec_ref_counter(v);	// key
 187:..\..\mruby_c2\Design01.cydsn/c_hash.c ****   mrb_value val = v[1];		// value
 188:..\..\mruby_c2\Design01.cydsn/c_hash.c **** 
 189:..\..\mruby_c2\Design01.cydsn/c_hash.c ****   mrb_hash *h = hash->hash;
 190:..\..\mruby_c2\Design01.cydsn/c_hash.c ****   h->n_stored -= 2;
 191:..\..\mruby_c2\Design01.cydsn/c_hash.c **** 
 192:..\..\mruby_c2\Design01.cydsn/c_hash.c ****   memmove(v, v+2, (char*)(h->data + h->n_stored) - (char*)v);
 193:..\..\mruby_c2\Design01.cydsn/c_hash.c **** 
 194:..\..\mruby_c2\Design01.cydsn/c_hash.c ****   // TODO: re-index hash table if need.
 195:..\..\mruby_c2\Design01.cydsn/c_hash.c **** 
 196:..\..\mruby_c2\Design01.cydsn/c_hash.c ****   return val;
 197:..\..\mruby_c2\Design01.cydsn/c_hash.c **** }
 198:..\..\mruby_c2\Design01.cydsn/c_hash.c **** 
 199:..\..\mruby_c2\Design01.cydsn/c_hash.c **** 
 200:..\..\mruby_c2\Design01.cydsn/c_hash.c **** //================================================================
 201:..\..\mruby_c2\Design01.cydsn/c_hash.c **** /*! clear all
 202:..\..\mruby_c2\Design01.cydsn/c_hash.c **** 
ARM GAS  C:\Users\164\AppData\Local\Temp\ccySM5k9.s 			page 5


 203:..\..\mruby_c2\Design01.cydsn/c_hash.c ****   @param  hash	pointer to target hash
 204:..\..\mruby_c2\Design01.cydsn/c_hash.c **** */
 205:..\..\mruby_c2\Design01.cydsn/c_hash.c **** void mrbc_hash_clear(mrb_value *hash)
 206:..\..\mruby_c2\Design01.cydsn/c_hash.c **** {
 207:..\..\mruby_c2\Design01.cydsn/c_hash.c ****   mrbc_array_clear(hash);
 208:..\..\mruby_c2\Design01.cydsn/c_hash.c **** 
 209:..\..\mruby_c2\Design01.cydsn/c_hash.c ****   // TODO: re-index hash table if need.
 210:..\..\mruby_c2\Design01.cydsn/c_hash.c **** }
 211:..\..\mruby_c2\Design01.cydsn/c_hash.c **** 
 212:..\..\mruby_c2\Design01.cydsn/c_hash.c **** 
 213:..\..\mruby_c2\Design01.cydsn/c_hash.c **** //================================================================
 214:..\..\mruby_c2\Design01.cydsn/c_hash.c **** /*! compare
 215:..\..\mruby_c2\Design01.cydsn/c_hash.c **** 
 216:..\..\mruby_c2\Design01.cydsn/c_hash.c ****   @param  v1	Pointer to mrb_value
 217:..\..\mruby_c2\Design01.cydsn/c_hash.c ****   @param  v2	Pointer to another mrb_value
 218:..\..\mruby_c2\Design01.cydsn/c_hash.c ****   @retval 0	v1 == v2
 219:..\..\mruby_c2\Design01.cydsn/c_hash.c ****   @retval 1	v1 != v2
 220:..\..\mruby_c2\Design01.cydsn/c_hash.c **** */
 221:..\..\mruby_c2\Design01.cydsn/c_hash.c **** int mrbc_hash_compare(const mrb_value *v1, const mrb_value *v2)
 222:..\..\mruby_c2\Design01.cydsn/c_hash.c **** {
 223:..\..\mruby_c2\Design01.cydsn/c_hash.c ****   if( v1->hash->n_stored != v2->hash->n_stored ) return 1;
 224:..\..\mruby_c2\Design01.cydsn/c_hash.c **** 
 225:..\..\mruby_c2\Design01.cydsn/c_hash.c ****   mrb_value *d1 = v1->hash->data;
 226:..\..\mruby_c2\Design01.cydsn/c_hash.c ****   int i;
 227:..\..\mruby_c2\Design01.cydsn/c_hash.c ****   for( i = 0; i < mrbc_hash_size(v1); i++, d1++ ) {
 228:..\..\mruby_c2\Design01.cydsn/c_hash.c ****     mrb_value *d2 = mrbc_hash_search(v2, d1);	// check key
 229:..\..\mruby_c2\Design01.cydsn/c_hash.c ****     if( d2 == NULL ) return 1;
 230:..\..\mruby_c2\Design01.cydsn/c_hash.c ****     if( mrbc_compare( ++d1, ++d2 ) ) return 1;	// check data
 231:..\..\mruby_c2\Design01.cydsn/c_hash.c ****   }
 232:..\..\mruby_c2\Design01.cydsn/c_hash.c **** 
 233:..\..\mruby_c2\Design01.cydsn/c_hash.c ****   return 0;
 234:..\..\mruby_c2\Design01.cydsn/c_hash.c **** }
 235:..\..\mruby_c2\Design01.cydsn/c_hash.c **** 
 236:..\..\mruby_c2\Design01.cydsn/c_hash.c **** 
 237:..\..\mruby_c2\Design01.cydsn/c_hash.c **** //================================================================
 238:..\..\mruby_c2\Design01.cydsn/c_hash.c **** /*! duplicate
 239:..\..\mruby_c2\Design01.cydsn/c_hash.c **** 
 240:..\..\mruby_c2\Design01.cydsn/c_hash.c ****   @param  vm	pointer to VM.
 241:..\..\mruby_c2\Design01.cydsn/c_hash.c ****   @param  src	pointer to target hash.
 242:..\..\mruby_c2\Design01.cydsn/c_hash.c **** */
 243:..\..\mruby_c2\Design01.cydsn/c_hash.c **** mrb_value mrbc_hash_dup( struct VM *vm, mrb_value *src )
 244:..\..\mruby_c2\Design01.cydsn/c_hash.c **** {
 245:..\..\mruby_c2\Design01.cydsn/c_hash.c ****   mrb_value ret = mrbc_hash_new(vm, mrbc_hash_size(src));
 246:..\..\mruby_c2\Design01.cydsn/c_hash.c ****   if( ret.hash == NULL ) return ret;		// ENOMEM
 247:..\..\mruby_c2\Design01.cydsn/c_hash.c **** 
 248:..\..\mruby_c2\Design01.cydsn/c_hash.c ****   mrb_hash *h = src->hash;
 249:..\..\mruby_c2\Design01.cydsn/c_hash.c ****   memcpy( ret.hash->data, h->data, sizeof(mrb_value) * h->n_stored );
 250:..\..\mruby_c2\Design01.cydsn/c_hash.c ****   ret.hash->n_stored = h->n_stored;
 251:..\..\mruby_c2\Design01.cydsn/c_hash.c **** 
 252:..\..\mruby_c2\Design01.cydsn/c_hash.c ****   mrb_value *p1 = h->data;
 253:..\..\mruby_c2\Design01.cydsn/c_hash.c ****   const mrb_value *p2 = p1 + h->n_stored;
 254:..\..\mruby_c2\Design01.cydsn/c_hash.c ****   while( p1 < p2 ) {
 255:..\..\mruby_c2\Design01.cydsn/c_hash.c ****     mrbc_dup(p1++);
 256:..\..\mruby_c2\Design01.cydsn/c_hash.c ****   }
 257:..\..\mruby_c2\Design01.cydsn/c_hash.c **** 
 258:..\..\mruby_c2\Design01.cydsn/c_hash.c ****   // TODO: dup other members.
 259:..\..\mruby_c2\Design01.cydsn/c_hash.c **** 
ARM GAS  C:\Users\164\AppData\Local\Temp\ccySM5k9.s 			page 6


 260:..\..\mruby_c2\Design01.cydsn/c_hash.c ****   return ret;
 261:..\..\mruby_c2\Design01.cydsn/c_hash.c **** }
 262:..\..\mruby_c2\Design01.cydsn/c_hash.c **** 
 263:..\..\mruby_c2\Design01.cydsn/c_hash.c **** 
 264:..\..\mruby_c2\Design01.cydsn/c_hash.c **** 
 265:..\..\mruby_c2\Design01.cydsn/c_hash.c **** 
 266:..\..\mruby_c2\Design01.cydsn/c_hash.c **** //================================================================
 267:..\..\mruby_c2\Design01.cydsn/c_hash.c **** /*! (method) new
 268:..\..\mruby_c2\Design01.cydsn/c_hash.c **** */
 269:..\..\mruby_c2\Design01.cydsn/c_hash.c **** static void c_hash_new(mrb_vm *vm, mrb_value v[], int argc)
 270:..\..\mruby_c2\Design01.cydsn/c_hash.c **** {
 271:..\..\mruby_c2\Design01.cydsn/c_hash.c ****   mrb_value ret = mrbc_hash_new(vm, 0);
 272:..\..\mruby_c2\Design01.cydsn/c_hash.c ****   SET_RETURN(ret);
 273:..\..\mruby_c2\Design01.cydsn/c_hash.c **** }
 274:..\..\mruby_c2\Design01.cydsn/c_hash.c **** 
 275:..\..\mruby_c2\Design01.cydsn/c_hash.c **** 
 276:..\..\mruby_c2\Design01.cydsn/c_hash.c **** //================================================================
 277:..\..\mruby_c2\Design01.cydsn/c_hash.c **** /*! (operator) []
 278:..\..\mruby_c2\Design01.cydsn/c_hash.c **** */
 279:..\..\mruby_c2\Design01.cydsn/c_hash.c **** static void c_hash_get(mrb_vm *vm, mrb_value v[], int argc)
 280:..\..\mruby_c2\Design01.cydsn/c_hash.c **** {
 281:..\..\mruby_c2\Design01.cydsn/c_hash.c ****   if( argc != 1 ) {
 282:..\..\mruby_c2\Design01.cydsn/c_hash.c ****     return;	// raise ArgumentError.
 283:..\..\mruby_c2\Design01.cydsn/c_hash.c ****   }
 284:..\..\mruby_c2\Design01.cydsn/c_hash.c **** 
 285:..\..\mruby_c2\Design01.cydsn/c_hash.c ****   mrb_value val = mrbc_hash_get(&v[0], &v[1]);
 286:..\..\mruby_c2\Design01.cydsn/c_hash.c ****   mrbc_dup(&val);
 287:..\..\mruby_c2\Design01.cydsn/c_hash.c ****   SET_RETURN(val);
 288:..\..\mruby_c2\Design01.cydsn/c_hash.c **** }
 289:..\..\mruby_c2\Design01.cydsn/c_hash.c **** 
 290:..\..\mruby_c2\Design01.cydsn/c_hash.c **** 
 291:..\..\mruby_c2\Design01.cydsn/c_hash.c **** //================================================================
 292:..\..\mruby_c2\Design01.cydsn/c_hash.c **** /*! (operator) []=
 293:..\..\mruby_c2\Design01.cydsn/c_hash.c **** */
 294:..\..\mruby_c2\Design01.cydsn/c_hash.c **** static void c_hash_set(mrb_vm *vm, mrb_value v[], int argc)
 295:..\..\mruby_c2\Design01.cydsn/c_hash.c **** {
 296:..\..\mruby_c2\Design01.cydsn/c_hash.c ****   if( argc != 2 ) {
 297:..\..\mruby_c2\Design01.cydsn/c_hash.c ****     return;	// raise ArgumentError.
 298:..\..\mruby_c2\Design01.cydsn/c_hash.c ****   }
 299:..\..\mruby_c2\Design01.cydsn/c_hash.c **** 
 300:..\..\mruby_c2\Design01.cydsn/c_hash.c ****   mrb_value *v1 = &GET_ARG(1);
 301:..\..\mruby_c2\Design01.cydsn/c_hash.c ****   mrb_value *v2 = &GET_ARG(2);
 302:..\..\mruby_c2\Design01.cydsn/c_hash.c ****   mrbc_hash_set(v, v1, v2);
 303:..\..\mruby_c2\Design01.cydsn/c_hash.c ****   v1->tt = MRB_TT_EMPTY;
 304:..\..\mruby_c2\Design01.cydsn/c_hash.c ****   v2->tt = MRB_TT_EMPTY;
 305:..\..\mruby_c2\Design01.cydsn/c_hash.c **** }
 306:..\..\mruby_c2\Design01.cydsn/c_hash.c **** 
 307:..\..\mruby_c2\Design01.cydsn/c_hash.c **** 
 308:..\..\mruby_c2\Design01.cydsn/c_hash.c **** //================================================================
 309:..\..\mruby_c2\Design01.cydsn/c_hash.c **** /*! (method) clear
 310:..\..\mruby_c2\Design01.cydsn/c_hash.c **** */
 311:..\..\mruby_c2\Design01.cydsn/c_hash.c **** static void c_hash_clear(mrb_vm *vm, mrb_value v[], int argc)
 312:..\..\mruby_c2\Design01.cydsn/c_hash.c **** {
 313:..\..\mruby_c2\Design01.cydsn/c_hash.c ****   mrbc_hash_clear(v);
 314:..\..\mruby_c2\Design01.cydsn/c_hash.c **** }
 315:..\..\mruby_c2\Design01.cydsn/c_hash.c **** 
 316:..\..\mruby_c2\Design01.cydsn/c_hash.c **** 
ARM GAS  C:\Users\164\AppData\Local\Temp\ccySM5k9.s 			page 7


 317:..\..\mruby_c2\Design01.cydsn/c_hash.c **** //================================================================
 318:..\..\mruby_c2\Design01.cydsn/c_hash.c **** /*! (method) dup
 319:..\..\mruby_c2\Design01.cydsn/c_hash.c **** */
 320:..\..\mruby_c2\Design01.cydsn/c_hash.c **** static void c_hash_dup(mrb_vm *vm, mrb_value v[], int argc)
 321:..\..\mruby_c2\Design01.cydsn/c_hash.c **** {
 322:..\..\mruby_c2\Design01.cydsn/c_hash.c ****   mrb_value ret = mrbc_hash_dup( vm, &v[0] );
 323:..\..\mruby_c2\Design01.cydsn/c_hash.c **** 
 324:..\..\mruby_c2\Design01.cydsn/c_hash.c ****   SET_RETURN(ret);
 325:..\..\mruby_c2\Design01.cydsn/c_hash.c **** }
 326:..\..\mruby_c2\Design01.cydsn/c_hash.c **** 
 327:..\..\mruby_c2\Design01.cydsn/c_hash.c **** 
 328:..\..\mruby_c2\Design01.cydsn/c_hash.c **** //================================================================
 329:..\..\mruby_c2\Design01.cydsn/c_hash.c **** /*! (method) delete
 330:..\..\mruby_c2\Design01.cydsn/c_hash.c **** */
 331:..\..\mruby_c2\Design01.cydsn/c_hash.c **** static void c_hash_delete(mrb_vm *vm, mrb_value v[], int argc)
 332:..\..\mruby_c2\Design01.cydsn/c_hash.c **** {
 333:..\..\mruby_c2\Design01.cydsn/c_hash.c ****   // TODO : now, support only delete(key) -> object
 334:..\..\mruby_c2\Design01.cydsn/c_hash.c **** 
 335:..\..\mruby_c2\Design01.cydsn/c_hash.c ****   mrb_value ret = mrbc_hash_remove(v, v+1);
 336:..\..\mruby_c2\Design01.cydsn/c_hash.c **** 
 337:..\..\mruby_c2\Design01.cydsn/c_hash.c ****   // TODO: re-index hash table if need.
 338:..\..\mruby_c2\Design01.cydsn/c_hash.c **** 
 339:..\..\mruby_c2\Design01.cydsn/c_hash.c ****   SET_RETURN(ret);
 340:..\..\mruby_c2\Design01.cydsn/c_hash.c **** }
 341:..\..\mruby_c2\Design01.cydsn/c_hash.c **** 
 342:..\..\mruby_c2\Design01.cydsn/c_hash.c **** 
 343:..\..\mruby_c2\Design01.cydsn/c_hash.c **** //================================================================
 344:..\..\mruby_c2\Design01.cydsn/c_hash.c **** /*! (method) empty?
 345:..\..\mruby_c2\Design01.cydsn/c_hash.c **** */
 346:..\..\mruby_c2\Design01.cydsn/c_hash.c **** static void c_hash_empty(mrb_vm *vm, mrb_value v[], int argc)
 347:..\..\mruby_c2\Design01.cydsn/c_hash.c **** {
 348:..\..\mruby_c2\Design01.cydsn/c_hash.c ****   int n = mrbc_hash_size(v);
 349:..\..\mruby_c2\Design01.cydsn/c_hash.c **** 
 350:..\..\mruby_c2\Design01.cydsn/c_hash.c ****   if( n ) {
 351:..\..\mruby_c2\Design01.cydsn/c_hash.c ****     SET_FALSE_RETURN();
 352:..\..\mruby_c2\Design01.cydsn/c_hash.c ****   } else {
 353:..\..\mruby_c2\Design01.cydsn/c_hash.c ****     SET_TRUE_RETURN();
 354:..\..\mruby_c2\Design01.cydsn/c_hash.c ****   }
 355:..\..\mruby_c2\Design01.cydsn/c_hash.c **** }
 356:..\..\mruby_c2\Design01.cydsn/c_hash.c **** 
 357:..\..\mruby_c2\Design01.cydsn/c_hash.c **** 
 358:..\..\mruby_c2\Design01.cydsn/c_hash.c **** //================================================================
 359:..\..\mruby_c2\Design01.cydsn/c_hash.c **** /*! (method) has_key?
 360:..\..\mruby_c2\Design01.cydsn/c_hash.c **** */
 361:..\..\mruby_c2\Design01.cydsn/c_hash.c **** static void c_hash_has_key(mrb_vm *vm, mrb_value v[], int argc)
 362:..\..\mruby_c2\Design01.cydsn/c_hash.c **** {
 363:..\..\mruby_c2\Design01.cydsn/c_hash.c ****   mrb_value *res = mrbc_hash_search(v, v+1);
 364:..\..\mruby_c2\Design01.cydsn/c_hash.c **** 
 365:..\..\mruby_c2\Design01.cydsn/c_hash.c ****   if( res ) {
 366:..\..\mruby_c2\Design01.cydsn/c_hash.c ****     SET_TRUE_RETURN();
 367:..\..\mruby_c2\Design01.cydsn/c_hash.c ****   } else {
 368:..\..\mruby_c2\Design01.cydsn/c_hash.c ****     SET_FALSE_RETURN();
 369:..\..\mruby_c2\Design01.cydsn/c_hash.c ****   }
 370:..\..\mruby_c2\Design01.cydsn/c_hash.c **** }
 371:..\..\mruby_c2\Design01.cydsn/c_hash.c **** 
 372:..\..\mruby_c2\Design01.cydsn/c_hash.c **** 
 373:..\..\mruby_c2\Design01.cydsn/c_hash.c **** //================================================================
ARM GAS  C:\Users\164\AppData\Local\Temp\ccySM5k9.s 			page 8


 374:..\..\mruby_c2\Design01.cydsn/c_hash.c **** /*! (method) has_value?
 375:..\..\mruby_c2\Design01.cydsn/c_hash.c **** */
 376:..\..\mruby_c2\Design01.cydsn/c_hash.c **** static void c_hash_has_value(mrb_vm *vm, mrb_value v[], int argc)
 377:..\..\mruby_c2\Design01.cydsn/c_hash.c **** {
 378:..\..\mruby_c2\Design01.cydsn/c_hash.c ****   int ret = 0;
 379:..\..\mruby_c2\Design01.cydsn/c_hash.c ****   mrb_hash_iterator ite = mrbc_hash_iterator(&v[0]);
 380:..\..\mruby_c2\Design01.cydsn/c_hash.c **** 
 381:..\..\mruby_c2\Design01.cydsn/c_hash.c ****   while( mrbc_hash_i_has_next(&ite) ) {
 382:..\..\mruby_c2\Design01.cydsn/c_hash.c ****     mrb_value *val = mrbc_hash_i_next(&ite) + 1;	// skip key, get value
 383:..\..\mruby_c2\Design01.cydsn/c_hash.c ****     if( mrbc_compare(val, &v[1]) == 0 ) {
 384:..\..\mruby_c2\Design01.cydsn/c_hash.c ****       ret = 1;
 385:..\..\mruby_c2\Design01.cydsn/c_hash.c ****       break;
 386:..\..\mruby_c2\Design01.cydsn/c_hash.c ****     }
 387:..\..\mruby_c2\Design01.cydsn/c_hash.c ****   }
 388:..\..\mruby_c2\Design01.cydsn/c_hash.c **** 
 389:..\..\mruby_c2\Design01.cydsn/c_hash.c ****   if( ret ) {
 390:..\..\mruby_c2\Design01.cydsn/c_hash.c ****     SET_TRUE_RETURN();
 391:..\..\mruby_c2\Design01.cydsn/c_hash.c ****   } else {
 392:..\..\mruby_c2\Design01.cydsn/c_hash.c ****     SET_FALSE_RETURN();
 393:..\..\mruby_c2\Design01.cydsn/c_hash.c ****   }
 394:..\..\mruby_c2\Design01.cydsn/c_hash.c **** }
 395:..\..\mruby_c2\Design01.cydsn/c_hash.c **** 
 396:..\..\mruby_c2\Design01.cydsn/c_hash.c **** 
 397:..\..\mruby_c2\Design01.cydsn/c_hash.c **** //================================================================
 398:..\..\mruby_c2\Design01.cydsn/c_hash.c **** /*! (method) key
 399:..\..\mruby_c2\Design01.cydsn/c_hash.c **** */
 400:..\..\mruby_c2\Design01.cydsn/c_hash.c **** static void c_hash_key(mrb_vm *vm, mrb_value v[], int argc)
 401:..\..\mruby_c2\Design01.cydsn/c_hash.c **** {
 402:..\..\mruby_c2\Design01.cydsn/c_hash.c ****   mrb_value *ret = NULL;
 403:..\..\mruby_c2\Design01.cydsn/c_hash.c ****   mrb_hash_iterator ite = mrbc_hash_iterator(&v[0]);
 404:..\..\mruby_c2\Design01.cydsn/c_hash.c **** 
 405:..\..\mruby_c2\Design01.cydsn/c_hash.c ****   while( mrbc_hash_i_has_next(&ite) ) {
 406:..\..\mruby_c2\Design01.cydsn/c_hash.c ****     mrb_value *kv = mrbc_hash_i_next(&ite);
 407:..\..\mruby_c2\Design01.cydsn/c_hash.c ****     if( mrbc_compare( &kv[1], &v[1]) == 0 ) {
 408:..\..\mruby_c2\Design01.cydsn/c_hash.c ****       mrbc_dup( &kv[0] );
 409:..\..\mruby_c2\Design01.cydsn/c_hash.c ****       ret = &kv[0];
 410:..\..\mruby_c2\Design01.cydsn/c_hash.c ****       break;
 411:..\..\mruby_c2\Design01.cydsn/c_hash.c ****     }
 412:..\..\mruby_c2\Design01.cydsn/c_hash.c ****   }
 413:..\..\mruby_c2\Design01.cydsn/c_hash.c **** 
 414:..\..\mruby_c2\Design01.cydsn/c_hash.c ****   if( ret ) {
 415:..\..\mruby_c2\Design01.cydsn/c_hash.c ****     SET_RETURN(*ret);
 416:..\..\mruby_c2\Design01.cydsn/c_hash.c ****   } else {
 417:..\..\mruby_c2\Design01.cydsn/c_hash.c ****     SET_NIL_RETURN();
 418:..\..\mruby_c2\Design01.cydsn/c_hash.c ****   }
 419:..\..\mruby_c2\Design01.cydsn/c_hash.c **** }
 420:..\..\mruby_c2\Design01.cydsn/c_hash.c **** 
 421:..\..\mruby_c2\Design01.cydsn/c_hash.c **** 
 422:..\..\mruby_c2\Design01.cydsn/c_hash.c **** //================================================================
 423:..\..\mruby_c2\Design01.cydsn/c_hash.c **** /*! (method) keys
 424:..\..\mruby_c2\Design01.cydsn/c_hash.c **** */
 425:..\..\mruby_c2\Design01.cydsn/c_hash.c **** static void c_hash_keys(mrb_vm *vm, mrb_value v[], int argc)
 426:..\..\mruby_c2\Design01.cydsn/c_hash.c **** {
 427:..\..\mruby_c2\Design01.cydsn/c_hash.c ****   mrb_value ret = mrbc_array_new( vm, mrbc_hash_size(v) );
 428:..\..\mruby_c2\Design01.cydsn/c_hash.c ****   mrb_hash_iterator ite = mrbc_hash_iterator(v);
 429:..\..\mruby_c2\Design01.cydsn/c_hash.c **** 
 430:..\..\mruby_c2\Design01.cydsn/c_hash.c ****   while( mrbc_hash_i_has_next(&ite) ) {
ARM GAS  C:\Users\164\AppData\Local\Temp\ccySM5k9.s 			page 9


 431:..\..\mruby_c2\Design01.cydsn/c_hash.c ****     mrb_value *key = mrbc_hash_i_next(&ite);
 432:..\..\mruby_c2\Design01.cydsn/c_hash.c ****     mrbc_array_push(&ret, key);
 433:..\..\mruby_c2\Design01.cydsn/c_hash.c ****     mrbc_dup(key);
 434:..\..\mruby_c2\Design01.cydsn/c_hash.c ****   }
 435:..\..\mruby_c2\Design01.cydsn/c_hash.c **** 
 436:..\..\mruby_c2\Design01.cydsn/c_hash.c ****   SET_RETURN(ret);
 437:..\..\mruby_c2\Design01.cydsn/c_hash.c **** }
 438:..\..\mruby_c2\Design01.cydsn/c_hash.c **** 
 439:..\..\mruby_c2\Design01.cydsn/c_hash.c **** 
 440:..\..\mruby_c2\Design01.cydsn/c_hash.c **** //================================================================
 441:..\..\mruby_c2\Design01.cydsn/c_hash.c **** /*! (method) size,length,count
 442:..\..\mruby_c2\Design01.cydsn/c_hash.c **** */
 443:..\..\mruby_c2\Design01.cydsn/c_hash.c **** static void c_hash_size(mrb_vm *vm, mrb_value v[], int argc)
 444:..\..\mruby_c2\Design01.cydsn/c_hash.c **** {
 445:..\..\mruby_c2\Design01.cydsn/c_hash.c ****   int n = mrbc_hash_size(v);
 446:..\..\mruby_c2\Design01.cydsn/c_hash.c **** 
 447:..\..\mruby_c2\Design01.cydsn/c_hash.c ****   SET_INT_RETURN(n);
 448:..\..\mruby_c2\Design01.cydsn/c_hash.c **** }
 449:..\..\mruby_c2\Design01.cydsn/c_hash.c **** 
 450:..\..\mruby_c2\Design01.cydsn/c_hash.c **** 
 451:..\..\mruby_c2\Design01.cydsn/c_hash.c **** //================================================================
 452:..\..\mruby_c2\Design01.cydsn/c_hash.c **** /*! (method) merge
 453:..\..\mruby_c2\Design01.cydsn/c_hash.c **** */
 454:..\..\mruby_c2\Design01.cydsn/c_hash.c **** static void c_hash_merge(mrb_vm *vm, mrb_value v[], int argc)
 455:..\..\mruby_c2\Design01.cydsn/c_hash.c **** {
 456:..\..\mruby_c2\Design01.cydsn/c_hash.c ****   mrb_value ret = mrbc_hash_dup( vm, &v[0] );
 457:..\..\mruby_c2\Design01.cydsn/c_hash.c ****   mrb_hash_iterator ite = mrbc_hash_iterator(&v[1]);
 458:..\..\mruby_c2\Design01.cydsn/c_hash.c **** 
 459:..\..\mruby_c2\Design01.cydsn/c_hash.c ****   while( mrbc_hash_i_has_next(&ite) ) {
 460:..\..\mruby_c2\Design01.cydsn/c_hash.c ****     mrb_value *kv = mrbc_hash_i_next(&ite);
 461:..\..\mruby_c2\Design01.cydsn/c_hash.c ****     mrbc_hash_set( &ret, &kv[0], &kv[1] );
 462:..\..\mruby_c2\Design01.cydsn/c_hash.c ****     mrbc_dup( &kv[0] );
 463:..\..\mruby_c2\Design01.cydsn/c_hash.c ****     mrbc_dup( &kv[1] );
 464:..\..\mruby_c2\Design01.cydsn/c_hash.c ****   }
 465:..\..\mruby_c2\Design01.cydsn/c_hash.c **** 
 466:..\..\mruby_c2\Design01.cydsn/c_hash.c ****   SET_RETURN(ret);
 467:..\..\mruby_c2\Design01.cydsn/c_hash.c **** }
 468:..\..\mruby_c2\Design01.cydsn/c_hash.c **** 
 469:..\..\mruby_c2\Design01.cydsn/c_hash.c **** 
 470:..\..\mruby_c2\Design01.cydsn/c_hash.c **** //================================================================
 471:..\..\mruby_c2\Design01.cydsn/c_hash.c **** /*! (method) merge!
 472:..\..\mruby_c2\Design01.cydsn/c_hash.c **** */
 473:..\..\mruby_c2\Design01.cydsn/c_hash.c **** static void c_hash_merge_self(mrb_vm *vm, mrb_value v[], int argc)
 474:..\..\mruby_c2\Design01.cydsn/c_hash.c **** {
 475:..\..\mruby_c2\Design01.cydsn/c_hash.c ****   mrb_hash_iterator ite = mrbc_hash_iterator(&v[1]);
 476:..\..\mruby_c2\Design01.cydsn/c_hash.c **** 
 477:..\..\mruby_c2\Design01.cydsn/c_hash.c ****   while( mrbc_hash_i_has_next(&ite) ) {
 478:..\..\mruby_c2\Design01.cydsn/c_hash.c ****     mrb_value *kv = mrbc_hash_i_next(&ite);
 479:..\..\mruby_c2\Design01.cydsn/c_hash.c ****     mrbc_hash_set( v, &kv[0], &kv[1] );
 480:..\..\mruby_c2\Design01.cydsn/c_hash.c ****     mrbc_dup( &kv[0] );
 481:..\..\mruby_c2\Design01.cydsn/c_hash.c ****     mrbc_dup( &kv[1] );
 482:..\..\mruby_c2\Design01.cydsn/c_hash.c ****   }
 483:..\..\mruby_c2\Design01.cydsn/c_hash.c **** }
 484:..\..\mruby_c2\Design01.cydsn/c_hash.c **** 
 485:..\..\mruby_c2\Design01.cydsn/c_hash.c **** 
 486:..\..\mruby_c2\Design01.cydsn/c_hash.c **** //================================================================
 487:..\..\mruby_c2\Design01.cydsn/c_hash.c **** /*! (method) values
ARM GAS  C:\Users\164\AppData\Local\Temp\ccySM5k9.s 			page 10


 488:..\..\mruby_c2\Design01.cydsn/c_hash.c **** */
 489:..\..\mruby_c2\Design01.cydsn/c_hash.c **** static void c_hash_values(mrb_vm *vm, mrb_value v[], int argc)
 490:..\..\mruby_c2\Design01.cydsn/c_hash.c **** {
  27              		.loc 1 490 0
  28              		.cfi_startproc
  29              		@ args = 0, pretend = 0, frame = 40
  30              		@ frame_needed = 0, uses_anonymous_args = 0
  31              	.LVL0:
  32 0000 70B5     		push	{r4, r5, r6, lr}
  33              		.cfi_def_cfa_offset 16
  34              		.cfi_offset 4, -16
  35              		.cfi_offset 5, -12
  36              		.cfi_offset 6, -8
  37              		.cfi_offset 14, -4
  38 0002 8AB0     		sub	sp, sp, #40
  39              		.cfi_def_cfa_offset 56
  40 0004 0E46     		mov	r6, r1
  41              	.LVL1:
  42              	.LBB61:
  43              	.LBB62:
  44              		.file 2 "..\\..\\mruby_c2\\Design01.cydsn\\c_hash.h"
   1:..\..\mruby_c2\Design01.cydsn/c_hash.h **** /*! @file
   2:..\..\mruby_c2\Design01.cydsn/c_hash.h ****   @brief
   3:..\..\mruby_c2\Design01.cydsn/c_hash.h ****   mruby/c Hash class
   4:..\..\mruby_c2\Design01.cydsn/c_hash.h **** 
   5:..\..\mruby_c2\Design01.cydsn/c_hash.h ****   <pre>
   6:..\..\mruby_c2\Design01.cydsn/c_hash.h ****   Copyright (C) 2015-2018 Kyushu Institute of Technology.
   7:..\..\mruby_c2\Design01.cydsn/c_hash.h ****   Copyright (C) 2015-2018 Shimane IT Open-Innovation Center.
   8:..\..\mruby_c2\Design01.cydsn/c_hash.h **** 
   9:..\..\mruby_c2\Design01.cydsn/c_hash.h ****   This file is distributed under BSD 3-Clause License.
  10:..\..\mruby_c2\Design01.cydsn/c_hash.h **** 
  11:..\..\mruby_c2\Design01.cydsn/c_hash.h ****   </pre>
  12:..\..\mruby_c2\Design01.cydsn/c_hash.h **** */
  13:..\..\mruby_c2\Design01.cydsn/c_hash.h **** 
  14:..\..\mruby_c2\Design01.cydsn/c_hash.h **** #ifndef MRBC_SRC_C_HASH_H_
  15:..\..\mruby_c2\Design01.cydsn/c_hash.h **** #define MRBC_SRC_C_HASH_H_
  16:..\..\mruby_c2\Design01.cydsn/c_hash.h **** 
  17:..\..\mruby_c2\Design01.cydsn/c_hash.h **** #include "value.h"
  18:..\..\mruby_c2\Design01.cydsn/c_hash.h **** #include "c_array.h"
  19:..\..\mruby_c2\Design01.cydsn/c_hash.h **** 
  20:..\..\mruby_c2\Design01.cydsn/c_hash.h **** #ifdef __cplusplus
  21:..\..\mruby_c2\Design01.cydsn/c_hash.h **** extern "C" {
  22:..\..\mruby_c2\Design01.cydsn/c_hash.h **** #endif
  23:..\..\mruby_c2\Design01.cydsn/c_hash.h **** 
  24:..\..\mruby_c2\Design01.cydsn/c_hash.h **** //================================================================
  25:..\..\mruby_c2\Design01.cydsn/c_hash.h **** /*!@brief
  26:..\..\mruby_c2\Design01.cydsn/c_hash.h ****   Define Hash handle.
  27:..\..\mruby_c2\Design01.cydsn/c_hash.h **** */
  28:..\..\mruby_c2\Design01.cydsn/c_hash.h **** typedef struct RHash {
  29:..\..\mruby_c2\Design01.cydsn/c_hash.h ****   // (NOTE)
  30:..\..\mruby_c2\Design01.cydsn/c_hash.h ****   //  Needs to be same members and order as RArray.
  31:..\..\mruby_c2\Design01.cydsn/c_hash.h ****   MRBC_OBJECT_HEADER;
  32:..\..\mruby_c2\Design01.cydsn/c_hash.h **** 
  33:..\..\mruby_c2\Design01.cydsn/c_hash.h ****   uint16_t data_size;	//!< data buffer size.
  34:..\..\mruby_c2\Design01.cydsn/c_hash.h ****   uint16_t n_stored;	//!< # of stored.
  35:..\..\mruby_c2\Design01.cydsn/c_hash.h ****   mrb_value *data;	//!< pointer to allocated memory.
  36:..\..\mruby_c2\Design01.cydsn/c_hash.h **** 
ARM GAS  C:\Users\164\AppData\Local\Temp\ccySM5k9.s 			page 11


  37:..\..\mruby_c2\Design01.cydsn/c_hash.h ****   // TODO: and other member for search.
  38:..\..\mruby_c2\Design01.cydsn/c_hash.h **** 
  39:..\..\mruby_c2\Design01.cydsn/c_hash.h **** } mrb_hash;
  40:..\..\mruby_c2\Design01.cydsn/c_hash.h **** 
  41:..\..\mruby_c2\Design01.cydsn/c_hash.h **** 
  42:..\..\mruby_c2\Design01.cydsn/c_hash.h **** //================================================================
  43:..\..\mruby_c2\Design01.cydsn/c_hash.h **** /*!@brief
  44:..\..\mruby_c2\Design01.cydsn/c_hash.h ****   Define Hash iterator.
  45:..\..\mruby_c2\Design01.cydsn/c_hash.h **** */
  46:..\..\mruby_c2\Design01.cydsn/c_hash.h **** typedef struct RHashIterator {
  47:..\..\mruby_c2\Design01.cydsn/c_hash.h ****   mrb_hash *target;
  48:..\..\mruby_c2\Design01.cydsn/c_hash.h ****   mrb_value *point;
  49:..\..\mruby_c2\Design01.cydsn/c_hash.h ****   mrb_value *p_end;
  50:..\..\mruby_c2\Design01.cydsn/c_hash.h **** } mrb_hash_iterator;
  51:..\..\mruby_c2\Design01.cydsn/c_hash.h **** 
  52:..\..\mruby_c2\Design01.cydsn/c_hash.h **** 
  53:..\..\mruby_c2\Design01.cydsn/c_hash.h **** mrb_value mrbc_hash_new(struct VM *vm, int size);
  54:..\..\mruby_c2\Design01.cydsn/c_hash.h **** void mrbc_hash_delete(mrb_value *hash);
  55:..\..\mruby_c2\Design01.cydsn/c_hash.h **** mrb_value *mrbc_hash_search(const mrb_value *hash, const mrb_value *key);
  56:..\..\mruby_c2\Design01.cydsn/c_hash.h **** int mrbc_hash_set(mrb_value *hash, mrb_value *key, mrb_value *val);
  57:..\..\mruby_c2\Design01.cydsn/c_hash.h **** mrb_value mrbc_hash_get(mrb_value *hash, mrb_value *key);
  58:..\..\mruby_c2\Design01.cydsn/c_hash.h **** mrb_value mrbc_hash_remove(mrb_value *hash, mrb_value *key);
  59:..\..\mruby_c2\Design01.cydsn/c_hash.h **** void mrbc_hash_clear(mrb_value *hash);
  60:..\..\mruby_c2\Design01.cydsn/c_hash.h **** int mrbc_hash_compare(const mrb_value *v1, const mrb_value *v2);
  61:..\..\mruby_c2\Design01.cydsn/c_hash.h **** mrb_value mrbc_hash_dup(struct VM *vm, mrb_value *src);
  62:..\..\mruby_c2\Design01.cydsn/c_hash.h **** void mrbc_init_class_hash(struct VM *vm);
  63:..\..\mruby_c2\Design01.cydsn/c_hash.h **** 
  64:..\..\mruby_c2\Design01.cydsn/c_hash.h **** 
  65:..\..\mruby_c2\Design01.cydsn/c_hash.h **** //================================================================
  66:..\..\mruby_c2\Design01.cydsn/c_hash.h **** /*! get size
  67:..\..\mruby_c2\Design01.cydsn/c_hash.h **** */
  68:..\..\mruby_c2\Design01.cydsn/c_hash.h **** inline static int mrbc_hash_size(const mrb_value *hash) {
  69:..\..\mruby_c2\Design01.cydsn/c_hash.h ****   return hash->hash->n_stored / 2;
  45              		.loc 2 69 0
  46 0006 8B68     		ldr	r3, [r1, #8]
  47 0008 DA88     		ldrh	r2, [r3, #6]
  48              	.LVL2:
  49              	.LBE62:
  50              	.LBE61:
 491:..\..\mruby_c2\Design01.cydsn/c_hash.c ****   mrb_value ret = mrbc_array_new( vm, mrbc_hash_size(v) );
  51              		.loc 1 491 0
  52 000a 5208     		lsrs	r2, r2, #1
  53 000c 0146     		mov	r1, r0
  54              	.LVL3:
  55 000e 06A8     		add	r0, sp, #24
  56              	.LVL4:
  57 0010 FFF7FEFF 		bl	mrbc_array_new
  58              	.LVL5:
  59              	.LBB63:
  60              	.LBB64:
  70:..\..\mruby_c2\Design01.cydsn/c_hash.h **** }
  71:..\..\mruby_c2\Design01.cydsn/c_hash.h **** 
  72:..\..\mruby_c2\Design01.cydsn/c_hash.h **** //================================================================
  73:..\..\mruby_c2\Design01.cydsn/c_hash.h **** /*! clear vm_id
  74:..\..\mruby_c2\Design01.cydsn/c_hash.h **** */
  75:..\..\mruby_c2\Design01.cydsn/c_hash.h **** inline static void mrbc_hash_clear_vm_id(mrb_value *hash) {
  76:..\..\mruby_c2\Design01.cydsn/c_hash.h ****   mrbc_array_clear_vm_id(hash);
ARM GAS  C:\Users\164\AppData\Local\Temp\ccySM5k9.s 			page 12


  77:..\..\mruby_c2\Design01.cydsn/c_hash.h **** }
  78:..\..\mruby_c2\Design01.cydsn/c_hash.h **** 
  79:..\..\mruby_c2\Design01.cydsn/c_hash.h **** //================================================================
  80:..\..\mruby_c2\Design01.cydsn/c_hash.h **** /*! resize buffer
  81:..\..\mruby_c2\Design01.cydsn/c_hash.h **** */
  82:..\..\mruby_c2\Design01.cydsn/c_hash.h **** inline static int mrbc_hash_resize(mrb_value *hash, int size)
  83:..\..\mruby_c2\Design01.cydsn/c_hash.h **** {
  84:..\..\mruby_c2\Design01.cydsn/c_hash.h ****   return mrbc_array_resize(hash, size * 2);
  85:..\..\mruby_c2\Design01.cydsn/c_hash.h **** }
  86:..\..\mruby_c2\Design01.cydsn/c_hash.h **** 
  87:..\..\mruby_c2\Design01.cydsn/c_hash.h **** 
  88:..\..\mruby_c2\Design01.cydsn/c_hash.h **** //================================================================
  89:..\..\mruby_c2\Design01.cydsn/c_hash.h **** /*! iterator constructor
  90:..\..\mruby_c2\Design01.cydsn/c_hash.h **** */
  91:..\..\mruby_c2\Design01.cydsn/c_hash.h **** inline static mrb_hash_iterator mrbc_hash_iterator( mrb_value *v )
  92:..\..\mruby_c2\Design01.cydsn/c_hash.h **** {
  93:..\..\mruby_c2\Design01.cydsn/c_hash.h ****   mrb_hash_iterator ite;
  94:..\..\mruby_c2\Design01.cydsn/c_hash.h ****   ite.target = v->hash;
  61              		.loc 2 94 0
  62 0014 B268     		ldr	r2, [r6, #8]
  63 0016 0092     		str	r2, [sp]
  95:..\..\mruby_c2\Design01.cydsn/c_hash.h ****   ite.point = v->hash->data;
  64              		.loc 2 95 0
  65 0018 9368     		ldr	r3, [r2, #8]
  66 001a 0193     		str	r3, [sp, #4]
  96:..\..\mruby_c2\Design01.cydsn/c_hash.h ****   ite.p_end = ite.point + v->hash->n_stored;
  67              		.loc 2 96 0
  68 001c D588     		ldrh	r5, [r2, #6]
  69 001e 03EB0515 		add	r5, r3, r5, lsl #4
  70 0022 0295     		str	r5, [sp, #8]
  97:..\..\mruby_c2\Design01.cydsn/c_hash.h **** 
  98:..\..\mruby_c2\Design01.cydsn/c_hash.h ****   return ite;
  71              		.loc 2 98 0
  72 0024 03AB     		add	r3, sp, #12
  73 0026 9DE80700 		ldmia	sp, {r0, r1, r2}
  74 002a 83E80700 		stmia	r3, {r0, r1, r2}
  75 002e 0BE0     		b	.L2
  76              	.L3:
  77              	.LVL6:
  78              	.LBE64:
  79              	.LBE63:
  80              	.LBB65:
  81              	.LBB66:
  82              	.LBB67:
  99:..\..\mruby_c2\Design01.cydsn/c_hash.h **** }
 100:..\..\mruby_c2\Design01.cydsn/c_hash.h **** 
 101:..\..\mruby_c2\Design01.cydsn/c_hash.h **** //================================================================
 102:..\..\mruby_c2\Design01.cydsn/c_hash.h **** /*! iterator has_next?
 103:..\..\mruby_c2\Design01.cydsn/c_hash.h **** */
 104:..\..\mruby_c2\Design01.cydsn/c_hash.h **** inline static int mrbc_hash_i_has_next( mrb_hash_iterator *ite )
 105:..\..\mruby_c2\Design01.cydsn/c_hash.h **** {
 106:..\..\mruby_c2\Design01.cydsn/c_hash.h ****   return ite->point < ite->p_end;
 107:..\..\mruby_c2\Design01.cydsn/c_hash.h **** }
 108:..\..\mruby_c2\Design01.cydsn/c_hash.h **** 
 109:..\..\mruby_c2\Design01.cydsn/c_hash.h **** //================================================================
 110:..\..\mruby_c2\Design01.cydsn/c_hash.h **** /*! iterator getter
 111:..\..\mruby_c2\Design01.cydsn/c_hash.h **** */
ARM GAS  C:\Users\164\AppData\Local\Temp\ccySM5k9.s 			page 13


 112:..\..\mruby_c2\Design01.cydsn/c_hash.h **** inline static mrb_value *mrbc_hash_i_next( mrb_hash_iterator *ite )
 113:..\..\mruby_c2\Design01.cydsn/c_hash.h **** {
 114:..\..\mruby_c2\Design01.cydsn/c_hash.h ****   mrb_value *ret = ite->point;
 115:..\..\mruby_c2\Design01.cydsn/c_hash.h ****   ite->point += 2;
  83              		.loc 2 115 0
  84 0030 00F12003 		add	r3, r0, #32
  85 0034 0493     		str	r3, [sp, #16]
  86              	.LVL7:
  87              	.LBE67:
  88              	.LBE66:
 492:..\..\mruby_c2\Design01.cydsn/c_hash.c ****   mrb_hash_iterator ite = mrbc_hash_iterator(v);
 493:..\..\mruby_c2\Design01.cydsn/c_hash.c **** 
 494:..\..\mruby_c2\Design01.cydsn/c_hash.c ****   while( mrbc_hash_i_has_next(&ite) ) {
 495:..\..\mruby_c2\Design01.cydsn/c_hash.c ****     mrb_value *val = mrbc_hash_i_next(&ite) + 1;
  89              		.loc 1 495 0
  90 0036 00F11004 		add	r4, r0, #16
  91              	.LVL8:
 496:..\..\mruby_c2\Design01.cydsn/c_hash.c ****     mrbc_array_push(&ret, val);
  92              		.loc 1 496 0
  93 003a 2146     		mov	r1, r4
  94 003c 06A8     		add	r0, sp, #24
  95 003e FFF7FEFF 		bl	mrbc_array_push
  96              	.LVL9:
 497:..\..\mruby_c2\Design01.cydsn/c_hash.c ****     mrbc_dup(val);
  97              		.loc 1 497 0
  98 0042 2046     		mov	r0, r4
  99 0044 FFF7FEFF 		bl	mrbc_dup
 100              	.LVL10:
 101              	.L2:
 102              	.LBE65:
 103              	.LBB68:
 104              	.LBB69:
 106:..\..\mruby_c2\Design01.cydsn/c_hash.h **** }
 105              		.loc 2 106 0
 106 0048 0498     		ldr	r0, [sp, #16]
 107              	.LVL11:
 108              	.LBE69:
 109              	.LBE68:
 494:..\..\mruby_c2\Design01.cydsn/c_hash.c ****     mrb_value *val = mrbc_hash_i_next(&ite) + 1;
 110              		.loc 1 494 0
 111 004a A842     		cmp	r0, r5
 112 004c F0D3     		bcc	.L3
 498:..\..\mruby_c2\Design01.cydsn/c_hash.c ****   }
 499:..\..\mruby_c2\Design01.cydsn/c_hash.c **** 
 500:..\..\mruby_c2\Design01.cydsn/c_hash.c ****   SET_RETURN(ret);
 113              		.loc 1 500 0
 114 004e 3046     		mov	r0, r6
 115 0050 FFF7FEFF 		bl	mrbc_release
 116              	.LVL12:
 117 0054 0AAB     		add	r3, sp, #40
 118 0056 13E90F00 		ldmdb	r3, {r0, r1, r2, r3}
 119 005a 86E80F00 		stmia	r6, {r0, r1, r2, r3}
 501:..\..\mruby_c2\Design01.cydsn/c_hash.c **** }
 120              		.loc 1 501 0
 121 005e 0AB0     		add	sp, sp, #40
 122              		.cfi_def_cfa_offset 16
 123              		@ sp needed
ARM GAS  C:\Users\164\AppData\Local\Temp\ccySM5k9.s 			page 14


 124 0060 70BD     		pop	{r4, r5, r6, pc}
 125              		.cfi_endproc
 126              	.LFE37:
 127              		.size	c_hash_values, .-c_hash_values
 128 0062 00BF     		.section	.text.c_hash_size,"ax",%progbits
 129              		.align	2
 130              		.thumb
 131              		.thumb_func
 132              		.type	c_hash_size, %function
 133              	c_hash_size:
 134              	.LFB34:
 444:..\..\mruby_c2\Design01.cydsn/c_hash.c ****   int n = mrbc_hash_size(v);
 135              		.loc 1 444 0
 136              		.cfi_startproc
 137              		@ args = 0, pretend = 0, frame = 0
 138              		@ frame_needed = 0, uses_anonymous_args = 0
 139              	.LVL13:
 140 0000 38B5     		push	{r3, r4, r5, lr}
 141              		.cfi_def_cfa_offset 16
 142              		.cfi_offset 3, -16
 143              		.cfi_offset 4, -12
 144              		.cfi_offset 5, -8
 145              		.cfi_offset 14, -4
 146 0002 0C46     		mov	r4, r1
 147              	.LVL14:
 148              	.LBB70:
 149              	.LBB71:
  69:..\..\mruby_c2\Design01.cydsn/c_hash.h **** }
 150              		.loc 2 69 0
 151 0004 8B68     		ldr	r3, [r1, #8]
 152 0006 DD88     		ldrh	r5, [r3, #6]
 153 0008 6D08     		lsrs	r5, r5, #1
 154              	.LVL15:
 155              	.LBE71:
 156              	.LBE70:
 447:..\..\mruby_c2\Design01.cydsn/c_hash.c **** }
 157              		.loc 1 447 0
 158 000a 0846     		mov	r0, r1
 159              	.LVL16:
 160 000c FFF7FEFF 		bl	mrbc_release
 161              	.LVL17:
 162 0010 0423     		movs	r3, #4
 163 0012 2370     		strb	r3, [r4]
 164 0014 A560     		str	r5, [r4, #8]
 165 0016 38BD     		pop	{r3, r4, r5, pc}
 166              		.cfi_endproc
 167              	.LFE34:
 168              		.size	c_hash_size, .-c_hash_size
 169              		.section	.text.c_hash_keys,"ax",%progbits
 170              		.align	2
 171              		.thumb
 172              		.thumb_func
 173              		.type	c_hash_keys, %function
 174              	c_hash_keys:
 175              	.LFB33:
 426:..\..\mruby_c2\Design01.cydsn/c_hash.c ****   mrb_value ret = mrbc_array_new( vm, mrbc_hash_size(v) );
 176              		.loc 1 426 0
ARM GAS  C:\Users\164\AppData\Local\Temp\ccySM5k9.s 			page 15


 177              		.cfi_startproc
 178              		@ args = 0, pretend = 0, frame = 40
 179              		@ frame_needed = 0, uses_anonymous_args = 0
 180              	.LVL18:
 181 0000 70B5     		push	{r4, r5, r6, lr}
 182              		.cfi_def_cfa_offset 16
 183              		.cfi_offset 4, -16
 184              		.cfi_offset 5, -12
 185              		.cfi_offset 6, -8
 186              		.cfi_offset 14, -4
 187 0002 8AB0     		sub	sp, sp, #40
 188              		.cfi_def_cfa_offset 56
 189 0004 0E46     		mov	r6, r1
 190              	.LVL19:
 191              	.LBB72:
 192              	.LBB73:
  69:..\..\mruby_c2\Design01.cydsn/c_hash.h **** }
 193              		.loc 2 69 0
 194 0006 8B68     		ldr	r3, [r1, #8]
 195 0008 DA88     		ldrh	r2, [r3, #6]
 196              	.LVL20:
 197              	.LBE73:
 198              	.LBE72:
 427:..\..\mruby_c2\Design01.cydsn/c_hash.c ****   mrb_hash_iterator ite = mrbc_hash_iterator(v);
 199              		.loc 1 427 0
 200 000a 5208     		lsrs	r2, r2, #1
 201 000c 0146     		mov	r1, r0
 202              	.LVL21:
 203 000e 06A8     		add	r0, sp, #24
 204              	.LVL22:
 205 0010 FFF7FEFF 		bl	mrbc_array_new
 206              	.LVL23:
 207              	.LBB74:
 208              	.LBB75:
  94:..\..\mruby_c2\Design01.cydsn/c_hash.h ****   ite.point = v->hash->data;
 209              		.loc 2 94 0
 210 0014 B268     		ldr	r2, [r6, #8]
 211 0016 0092     		str	r2, [sp]
  95:..\..\mruby_c2\Design01.cydsn/c_hash.h ****   ite.p_end = ite.point + v->hash->n_stored;
 212              		.loc 2 95 0
 213 0018 9368     		ldr	r3, [r2, #8]
 214 001a 0193     		str	r3, [sp, #4]
  96:..\..\mruby_c2\Design01.cydsn/c_hash.h **** 
 215              		.loc 2 96 0
 216 001c D588     		ldrh	r5, [r2, #6]
 217 001e 03EB0515 		add	r5, r3, r5, lsl #4
 218 0022 0295     		str	r5, [sp, #8]
  98:..\..\mruby_c2\Design01.cydsn/c_hash.h **** }
 219              		.loc 2 98 0
 220 0024 03AB     		add	r3, sp, #12
 221 0026 9DE80700 		ldmia	sp, {r0, r1, r2}
 222 002a 83E80700 		stmia	r3, {r0, r1, r2}
 223 002e 09E0     		b	.L8
 224              	.L9:
 225              	.LVL24:
 226              	.LBE75:
 227              	.LBE74:
ARM GAS  C:\Users\164\AppData\Local\Temp\ccySM5k9.s 			page 16


 228              	.LBB76:
 229              	.LBB77:
 230              	.LBB78:
 231              		.loc 2 115 0
 232 0030 04F12003 		add	r3, r4, #32
 233 0034 0493     		str	r3, [sp, #16]
 234              	.LVL25:
 235              	.LBE78:
 236              	.LBE77:
 432:..\..\mruby_c2\Design01.cydsn/c_hash.c ****     mrbc_dup(key);
 237              		.loc 1 432 0
 238 0036 2146     		mov	r1, r4
 239 0038 06A8     		add	r0, sp, #24
 240 003a FFF7FEFF 		bl	mrbc_array_push
 241              	.LVL26:
 433:..\..\mruby_c2\Design01.cydsn/c_hash.c ****   }
 242              		.loc 1 433 0
 243 003e 2046     		mov	r0, r4
 244 0040 FFF7FEFF 		bl	mrbc_dup
 245              	.LVL27:
 246              	.L8:
 247              	.LBE76:
 248              	.LBB79:
 249              	.LBB80:
 106:..\..\mruby_c2\Design01.cydsn/c_hash.h **** }
 250              		.loc 2 106 0
 251 0044 049C     		ldr	r4, [sp, #16]
 252              	.LVL28:
 253              	.LBE80:
 254              	.LBE79:
 430:..\..\mruby_c2\Design01.cydsn/c_hash.c ****     mrb_value *key = mrbc_hash_i_next(&ite);
 255              		.loc 1 430 0
 256 0046 AC42     		cmp	r4, r5
 257 0048 F2D3     		bcc	.L9
 436:..\..\mruby_c2\Design01.cydsn/c_hash.c **** }
 258              		.loc 1 436 0
 259 004a 3046     		mov	r0, r6
 260 004c FFF7FEFF 		bl	mrbc_release
 261              	.LVL29:
 262 0050 0AAB     		add	r3, sp, #40
 263 0052 13E90F00 		ldmdb	r3, {r0, r1, r2, r3}
 264 0056 86E80F00 		stmia	r6, {r0, r1, r2, r3}
 437:..\..\mruby_c2\Design01.cydsn/c_hash.c **** 
 265              		.loc 1 437 0
 266 005a 0AB0     		add	sp, sp, #40
 267              		.cfi_def_cfa_offset 16
 268              		@ sp needed
 269 005c 70BD     		pop	{r4, r5, r6, pc}
 270              		.cfi_endproc
 271              	.LFE33:
 272              		.size	c_hash_keys, .-c_hash_keys
 273 005e 00BF     		.section	.text.c_hash_key,"ax",%progbits
 274              		.align	2
 275              		.thumb
 276              		.thumb_func
 277              		.type	c_hash_key, %function
 278              	c_hash_key:
ARM GAS  C:\Users\164\AppData\Local\Temp\ccySM5k9.s 			page 17


 279              	.LFB32:
 401:..\..\mruby_c2\Design01.cydsn/c_hash.c ****   mrb_value *ret = NULL;
 280              		.loc 1 401 0
 281              		.cfi_startproc
 282              		@ args = 0, pretend = 0, frame = 24
 283              		@ frame_needed = 0, uses_anonymous_args = 0
 284              	.LVL30:
 285 0000 70B5     		push	{r4, r5, r6, lr}
 286              		.cfi_def_cfa_offset 16
 287              		.cfi_offset 4, -16
 288              		.cfi_offset 5, -12
 289              		.cfi_offset 6, -8
 290              		.cfi_offset 14, -4
 291 0002 86B0     		sub	sp, sp, #24
 292              		.cfi_def_cfa_offset 40
 293 0004 0D46     		mov	r5, r1
 294              	.LVL31:
 295              	.LBB81:
 296              	.LBB82:
  94:..\..\mruby_c2\Design01.cydsn/c_hash.h ****   ite.point = v->hash->data;
 297              		.loc 2 94 0
 298 0006 8A68     		ldr	r2, [r1, #8]
 299              	.LVL32:
 300 0008 0092     		str	r2, [sp]
  95:..\..\mruby_c2\Design01.cydsn/c_hash.h ****   ite.p_end = ite.point + v->hash->n_stored;
 301              		.loc 2 95 0
 302 000a 9368     		ldr	r3, [r2, #8]
 303 000c 0193     		str	r3, [sp, #4]
  96:..\..\mruby_c2\Design01.cydsn/c_hash.h **** 
 304              		.loc 2 96 0
 305 000e D688     		ldrh	r6, [r2, #6]
 306 0010 03EB0616 		add	r6, r3, r6, lsl #4
 307 0014 0296     		str	r6, [sp, #8]
  98:..\..\mruby_c2\Design01.cydsn/c_hash.h **** }
 308              		.loc 2 98 0
 309 0016 9DE80700 		ldmia	sp, {r0, r1, r2}
 310              	.LVL33:
 311 001a 06AB     		add	r3, sp, #24
 312 001c 03E90700 		stmdb	r3, {r0, r1, r2}
 313 0020 0DE0     		b	.L12
 314              	.L14:
 315              	.LVL34:
 316              	.LBE82:
 317              	.LBE81:
 318              	.LBB83:
 319              	.LBB84:
 320              	.LBB85:
 321              		.loc 2 115 0
 322 0022 04F12003 		add	r3, r4, #32
 323 0026 0493     		str	r3, [sp, #16]
 324              	.LVL35:
 325              	.LBE85:
 326              	.LBE84:
 407:..\..\mruby_c2\Design01.cydsn/c_hash.c ****       mrbc_dup( &kv[0] );
 327              		.loc 1 407 0
 328 0028 05F11001 		add	r1, r5, #16
 329 002c 04F11000 		add	r0, r4, #16
ARM GAS  C:\Users\164\AppData\Local\Temp\ccySM5k9.s 			page 18


 330 0030 FFF7FEFF 		bl	mrbc_compare
 331              	.LVL36:
 332 0034 18B9     		cbnz	r0, .L12
 408:..\..\mruby_c2\Design01.cydsn/c_hash.c ****       ret = &kv[0];
 333              		.loc 1 408 0
 334 0036 2046     		mov	r0, r4
 335 0038 FFF7FEFF 		bl	mrbc_dup
 336              	.LVL37:
 410:..\..\mruby_c2\Design01.cydsn/c_hash.c ****     }
 337              		.loc 1 410 0
 338 003c 03E0     		b	.L13
 339              	.LVL38:
 340              	.L12:
 341              	.LBE83:
 342              	.LBB86:
 343              	.LBB87:
 106:..\..\mruby_c2\Design01.cydsn/c_hash.h **** }
 344              		.loc 2 106 0
 345 003e 049C     		ldr	r4, [sp, #16]
 346              	.LVL39:
 347              	.LBE87:
 348              	.LBE86:
 405:..\..\mruby_c2\Design01.cydsn/c_hash.c ****     mrb_value *kv = mrbc_hash_i_next(&ite);
 349              		.loc 1 405 0
 350 0040 B442     		cmp	r4, r6
 351 0042 EED3     		bcc	.L14
 402:..\..\mruby_c2\Design01.cydsn/c_hash.c ****   mrb_hash_iterator ite = mrbc_hash_iterator(&v[0]);
 352              		.loc 1 402 0
 353 0044 0024     		movs	r4, #0
 354              	.LVL40:
 355              	.L13:
 414:..\..\mruby_c2\Design01.cydsn/c_hash.c ****     SET_RETURN(*ret);
 356              		.loc 1 414 0
 357 0046 3CB1     		cbz	r4, .L15
 415:..\..\mruby_c2\Design01.cydsn/c_hash.c ****   } else {
 358              		.loc 1 415 0
 359 0048 2846     		mov	r0, r5
 360 004a FFF7FEFF 		bl	mrbc_release
 361              	.LVL41:
 362 004e 94E80F00 		ldmia	r4, {r0, r1, r2, r3}
 363 0052 85E80F00 		stmia	r5, {r0, r1, r2, r3}
 364 0056 04E0     		b	.L11
 365              	.L15:
 417:..\..\mruby_c2\Design01.cydsn/c_hash.c ****   }
 366              		.loc 1 417 0
 367 0058 2846     		mov	r0, r5
 368 005a FFF7FEFF 		bl	mrbc_release
 369              	.LVL42:
 370 005e 0123     		movs	r3, #1
 371 0060 2B70     		strb	r3, [r5]
 372              	.L11:
 419:..\..\mruby_c2\Design01.cydsn/c_hash.c **** 
 373              		.loc 1 419 0
 374 0062 06B0     		add	sp, sp, #24
 375              		.cfi_def_cfa_offset 16
 376              		@ sp needed
 377 0064 70BD     		pop	{r4, r5, r6, pc}
ARM GAS  C:\Users\164\AppData\Local\Temp\ccySM5k9.s 			page 19


 378              		.cfi_endproc
 379              	.LFE32:
 380              		.size	c_hash_key, .-c_hash_key
 381 0066 00BF     		.section	.text.c_hash_has_value,"ax",%progbits
 382              		.align	2
 383              		.thumb
 384              		.thumb_func
 385              		.type	c_hash_has_value, %function
 386              	c_hash_has_value:
 387              	.LFB31:
 377:..\..\mruby_c2\Design01.cydsn/c_hash.c ****   int ret = 0;
 388              		.loc 1 377 0
 389              		.cfi_startproc
 390              		@ args = 0, pretend = 0, frame = 24
 391              		@ frame_needed = 0, uses_anonymous_args = 0
 392              	.LVL43:
 393 0000 30B5     		push	{r4, r5, lr}
 394              		.cfi_def_cfa_offset 12
 395              		.cfi_offset 4, -12
 396              		.cfi_offset 5, -8
 397              		.cfi_offset 14, -4
 398 0002 87B0     		sub	sp, sp, #28
 399              		.cfi_def_cfa_offset 40
 400 0004 0D46     		mov	r5, r1
 401              	.LVL44:
 402              	.LBB88:
 403              	.LBB89:
  94:..\..\mruby_c2\Design01.cydsn/c_hash.h ****   ite.point = v->hash->data;
 404              		.loc 2 94 0
 405 0006 8A68     		ldr	r2, [r1, #8]
 406              	.LVL45:
 407 0008 0092     		str	r2, [sp]
  95:..\..\mruby_c2\Design01.cydsn/c_hash.h ****   ite.p_end = ite.point + v->hash->n_stored;
 408              		.loc 2 95 0
 409 000a 9368     		ldr	r3, [r2, #8]
 410 000c 0193     		str	r3, [sp, #4]
  96:..\..\mruby_c2\Design01.cydsn/c_hash.h **** 
 411              		.loc 2 96 0
 412 000e D488     		ldrh	r4, [r2, #6]
 413 0010 03EB0414 		add	r4, r3, r4, lsl #4
 414 0014 0294     		str	r4, [sp, #8]
  98:..\..\mruby_c2\Design01.cydsn/c_hash.h **** }
 415              		.loc 2 98 0
 416 0016 9DE80700 		ldmia	sp, {r0, r1, r2}
 417              	.LVL46:
 418 001a 06AB     		add	r3, sp, #24
 419 001c 03E90700 		stmdb	r3, {r0, r1, r2}
 420 0020 08E0     		b	.L19
 421              	.L21:
 422              	.LVL47:
 423              	.LBE89:
 424              	.LBE88:
 425              	.LBB90:
 426              	.LBB91:
 427              	.LBB92:
 428              		.loc 2 115 0
 429 0022 00F12003 		add	r3, r0, #32
ARM GAS  C:\Users\164\AppData\Local\Temp\ccySM5k9.s 			page 20


 430 0026 0493     		str	r3, [sp, #16]
 431              	.LVL48:
 432              	.LBE92:
 433              	.LBE91:
 383:..\..\mruby_c2\Design01.cydsn/c_hash.c ****       ret = 1;
 434              		.loc 1 383 0
 435 0028 05F11001 		add	r1, r5, #16
 436 002c 1030     		adds	r0, r0, #16
 437              	.LVL49:
 438 002e FFF7FEFF 		bl	mrbc_compare
 439              	.LVL50:
 440 0032 20B1     		cbz	r0, .L24
 441              	.LVL51:
 442              	.L19:
 443              	.LBE90:
 444              	.LBB93:
 445              	.LBB94:
 106:..\..\mruby_c2\Design01.cydsn/c_hash.h **** }
 446              		.loc 2 106 0
 447 0034 0498     		ldr	r0, [sp, #16]
 448              	.LVL52:
 449              	.LBE94:
 450              	.LBE93:
 381:..\..\mruby_c2\Design01.cydsn/c_hash.c ****     mrb_value *val = mrbc_hash_i_next(&ite) + 1;	// skip key, get value
 451              		.loc 1 381 0
 452 0036 A042     		cmp	r0, r4
 453 0038 F3D3     		bcc	.L21
 378:..\..\mruby_c2\Design01.cydsn/c_hash.c ****   mrb_hash_iterator ite = mrbc_hash_iterator(&v[0]);
 454              		.loc 1 378 0
 455 003a 0023     		movs	r3, #0
 456 003c 00E0     		b	.L20
 457              	.LVL53:
 458              	.L24:
 459              	.LBB95:
 384:..\..\mruby_c2\Design01.cydsn/c_hash.c ****       break;
 460              		.loc 1 384 0
 461 003e 0123     		movs	r3, #1
 462              	.LVL54:
 463              	.L20:
 464              	.LBE95:
 389:..\..\mruby_c2\Design01.cydsn/c_hash.c ****     SET_TRUE_RETURN();
 465              		.loc 1 389 0
 466 0040 2BB1     		cbz	r3, .L22
 390:..\..\mruby_c2\Design01.cydsn/c_hash.c ****   } else {
 467              		.loc 1 390 0
 468 0042 2846     		mov	r0, r5
 469 0044 FFF7FEFF 		bl	mrbc_release
 470              	.LVL55:
 471 0048 0323     		movs	r3, #3
 472 004a 2B70     		strb	r3, [r5]
 473 004c 04E0     		b	.L18
 474              	.LVL56:
 475              	.L22:
 392:..\..\mruby_c2\Design01.cydsn/c_hash.c ****   }
 476              		.loc 1 392 0
 477 004e 2846     		mov	r0, r5
 478 0050 FFF7FEFF 		bl	mrbc_release
ARM GAS  C:\Users\164\AppData\Local\Temp\ccySM5k9.s 			page 21


 479              	.LVL57:
 480 0054 0223     		movs	r3, #2
 481 0056 2B70     		strb	r3, [r5]
 482              	.L18:
 394:..\..\mruby_c2\Design01.cydsn/c_hash.c **** 
 483              		.loc 1 394 0
 484 0058 07B0     		add	sp, sp, #28
 485              		.cfi_def_cfa_offset 12
 486              		@ sp needed
 487 005a 30BD     		pop	{r4, r5, pc}
 488              		.cfi_endproc
 489              	.LFE31:
 490              		.size	c_hash_has_value, .-c_hash_has_value
 491              		.section	.text.c_hash_empty,"ax",%progbits
 492              		.align	2
 493              		.thumb
 494              		.thumb_func
 495              		.type	c_hash_empty, %function
 496              	c_hash_empty:
 497              	.LFB29:
 347:..\..\mruby_c2\Design01.cydsn/c_hash.c ****   int n = mrbc_hash_size(v);
 498              		.loc 1 347 0
 499              		.cfi_startproc
 500              		@ args = 0, pretend = 0, frame = 0
 501              		@ frame_needed = 0, uses_anonymous_args = 0
 502              	.LVL58:
 503 0000 10B5     		push	{r4, lr}
 504              		.cfi_def_cfa_offset 8
 505              		.cfi_offset 4, -8
 506              		.cfi_offset 14, -4
 507 0002 0C46     		mov	r4, r1
 508              	.LVL59:
 509              	.LBB96:
 510              	.LBB97:
  69:..\..\mruby_c2\Design01.cydsn/c_hash.h **** }
 511              		.loc 2 69 0
 512 0004 8B68     		ldr	r3, [r1, #8]
 513 0006 DB88     		ldrh	r3, [r3, #6]
 514              	.LVL60:
 515              	.LBE97:
 516              	.LBE96:
 350:..\..\mruby_c2\Design01.cydsn/c_hash.c ****     SET_FALSE_RETURN();
 517              		.loc 1 350 0
 518 0008 5B08     		lsrs	r3, r3, #1
 519 000a 05D0     		beq	.L27
 351:..\..\mruby_c2\Design01.cydsn/c_hash.c ****   } else {
 520              		.loc 1 351 0
 521 000c 0846     		mov	r0, r1
 522              	.LVL61:
 523 000e FFF7FEFF 		bl	mrbc_release
 524              	.LVL62:
 525 0012 0223     		movs	r3, #2
 526 0014 2370     		strb	r3, [r4]
 527 0016 10BD     		pop	{r4, pc}
 528              	.LVL63:
 529              	.L27:
 353:..\..\mruby_c2\Design01.cydsn/c_hash.c ****   }
ARM GAS  C:\Users\164\AppData\Local\Temp\ccySM5k9.s 			page 22


 530              		.loc 1 353 0
 531 0018 0846     		mov	r0, r1
 532              	.LVL64:
 533 001a FFF7FEFF 		bl	mrbc_release
 534              	.LVL65:
 535 001e 0323     		movs	r3, #3
 536 0020 2370     		strb	r3, [r4]
 537 0022 10BD     		pop	{r4, pc}
 538              		.cfi_endproc
 539              	.LFE29:
 540              		.size	c_hash_empty, .-c_hash_empty
 541              		.section	.text.mrbc_hash_new,"ax",%progbits
 542              		.align	2
 543              		.global	mrbc_hash_new
 544              		.thumb
 545              		.thumb_func
 546              		.type	mrbc_hash_new, %function
 547              	mrbc_hash_new:
 548              	.LFB14:
  56:..\..\mruby_c2\Design01.cydsn/c_hash.c ****   mrb_value value = {.tt = MRB_TT_HASH};
 549              		.loc 1 56 0
 550              		.cfi_startproc
 551              		@ args = 0, pretend = 0, frame = 0
 552              		@ frame_needed = 0, uses_anonymous_args = 0
 553              	.LVL66:
 554 0000 F8B5     		push	{r3, r4, r5, r6, r7, lr}
 555              		.cfi_def_cfa_offset 24
 556              		.cfi_offset 3, -24
 557              		.cfi_offset 4, -20
 558              		.cfi_offset 5, -16
 559              		.cfi_offset 6, -12
 560              		.cfi_offset 7, -8
 561              		.cfi_offset 14, -4
 562 0002 0446     		mov	r4, r0
 563 0004 0F46     		mov	r7, r1
 564 0006 1646     		mov	r6, r2
  57:..\..\mruby_c2\Design01.cydsn/c_hash.c **** 
 565              		.loc 1 57 0
 566 0008 0023     		movs	r3, #0
 567 000a 0360     		str	r3, [r0]
 568 000c 4360     		str	r3, [r0, #4]
 569 000e 8360     		str	r3, [r0, #8]
 570 0010 C360     		str	r3, [r0, #12]
 571 0012 1923     		movs	r3, #25
 572 0014 0370     		strb	r3, [r0]
  62:..\..\mruby_c2\Design01.cydsn/c_hash.c ****   if( !h ) return value;	// ENOMEM
 573              		.loc 1 62 0
 574 0016 0C21     		movs	r1, #12
 575              	.LVL67:
 576 0018 3846     		mov	r0, r7
 577              	.LVL68:
 578 001a FFF7FEFF 		bl	mrbc_alloc
 579              	.LVL69:
  63:..\..\mruby_c2\Design01.cydsn/c_hash.c **** 
 580              		.loc 1 63 0
 581 001e 98B1     		cbz	r0, .L30
 582 0020 0546     		mov	r5, r0
ARM GAS  C:\Users\164\AppData\Local\Temp\ccySM5k9.s 			page 23


  65:..\..\mruby_c2\Design01.cydsn/c_hash.c ****   if( !data ) {			// ENOMEM
 583              		.loc 1 65 0
 584 0022 7101     		lsls	r1, r6, #5
 585 0024 3846     		mov	r0, r7
 586              	.LVL70:
 587 0026 FFF7FEFF 		bl	mrbc_alloc
 588              	.LVL71:
  66:..\..\mruby_c2\Design01.cydsn/c_hash.c ****     mrbc_raw_free( h );
 589              		.loc 1 66 0
 590 002a 18B9     		cbnz	r0, .L32
  67:..\..\mruby_c2\Design01.cydsn/c_hash.c ****     return value;
 591              		.loc 1 67 0
 592 002c 2846     		mov	r0, r5
 593              	.LVL72:
 594 002e FFF7FEFF 		bl	mrbc_raw_free
 595              	.LVL73:
  68:..\..\mruby_c2\Design01.cydsn/c_hash.c ****   }
 596              		.loc 1 68 0
 597 0032 09E0     		b	.L30
 598              	.LVL74:
 599              	.L32:
  71:..\..\mruby_c2\Design01.cydsn/c_hash.c ****   h->tt = MRB_TT_HASH;
 600              		.loc 1 71 0
 601 0034 0122     		movs	r2, #1
 602 0036 2A80     		strh	r2, [r5]	@ movhi
  72:..\..\mruby_c2\Design01.cydsn/c_hash.c ****   h->data_size = size * 2;
 603              		.loc 1 72 0
 604 0038 1922     		movs	r2, #25
 605 003a AA70     		strb	r2, [r5, #2]
  73:..\..\mruby_c2\Design01.cydsn/c_hash.c ****   h->n_stored = 0;
 606              		.loc 1 73 0
 607 003c 7600     		lsls	r6, r6, #1
 608              	.LVL75:
 609 003e AE80     		strh	r6, [r5, #4]	@ movhi
  74:..\..\mruby_c2\Design01.cydsn/c_hash.c ****   h->data = data;
 610              		.loc 1 74 0
 611 0040 0022     		movs	r2, #0
 612 0042 EA80     		strh	r2, [r5, #6]	@ movhi
  75:..\..\mruby_c2\Design01.cydsn/c_hash.c **** 
 613              		.loc 1 75 0
 614 0044 A860     		str	r0, [r5, #8]
  77:..\..\mruby_c2\Design01.cydsn/c_hash.c ****   return value;
 615              		.loc 1 77 0
 616 0046 A560     		str	r5, [r4, #8]
 617              	.LVL76:
 618              	.L30:
  79:..\..\mruby_c2\Design01.cydsn/c_hash.c **** 
 619              		.loc 1 79 0
 620 0048 2046     		mov	r0, r4
 621 004a F8BD     		pop	{r3, r4, r5, r6, r7, pc}
 622              		.cfi_endproc
 623              	.LFE14:
 624              		.size	mrbc_hash_new, .-mrbc_hash_new
 625              		.section	.text.c_hash_new,"ax",%progbits
 626              		.align	2
 627              		.thumb
 628              		.thumb_func
ARM GAS  C:\Users\164\AppData\Local\Temp\ccySM5k9.s 			page 24


 629              		.type	c_hash_new, %function
 630              	c_hash_new:
 631              	.LFB23:
 270:..\..\mruby_c2\Design01.cydsn/c_hash.c ****   mrb_value ret = mrbc_hash_new(vm, 0);
 632              		.loc 1 270 0
 633              		.cfi_startproc
 634              		@ args = 0, pretend = 0, frame = 16
 635              		@ frame_needed = 0, uses_anonymous_args = 0
 636              	.LVL77:
 637 0000 30B5     		push	{r4, r5, lr}
 638              		.cfi_def_cfa_offset 12
 639              		.cfi_offset 4, -12
 640              		.cfi_offset 5, -8
 641              		.cfi_offset 14, -4
 642 0002 85B0     		sub	sp, sp, #20
 643              		.cfi_def_cfa_offset 32
 644 0004 0C46     		mov	r4, r1
 271:..\..\mruby_c2\Design01.cydsn/c_hash.c ****   SET_RETURN(ret);
 645              		.loc 1 271 0
 646 0006 0022     		movs	r2, #0
 647              	.LVL78:
 648 0008 0146     		mov	r1, r0
 649              	.LVL79:
 650 000a 6846     		mov	r0, sp
 651              	.LVL80:
 652 000c FFF7FEFF 		bl	mrbc_hash_new
 653              	.LVL81:
 272:..\..\mruby_c2\Design01.cydsn/c_hash.c **** }
 654              		.loc 1 272 0
 655 0010 2046     		mov	r0, r4
 656 0012 FFF7FEFF 		bl	mrbc_release
 657              	.LVL82:
 658 0016 9DE80F00 		ldmia	sp, {r0, r1, r2, r3}
 659 001a 84E80F00 		stmia	r4, {r0, r1, r2, r3}
 273:..\..\mruby_c2\Design01.cydsn/c_hash.c **** 
 660              		.loc 1 273 0
 661 001e 05B0     		add	sp, sp, #20
 662              		.cfi_def_cfa_offset 12
 663              		@ sp needed
 664 0020 30BD     		pop	{r4, r5, pc}
 665              		.cfi_endproc
 666              	.LFE23:
 667              		.size	c_hash_new, .-c_hash_new
 668 0022 00BF     		.section	.text.mrbc_hash_delete,"ax",%progbits
 669              		.align	2
 670              		.global	mrbc_hash_delete
 671              		.thumb
 672              		.thumb_func
 673              		.type	mrbc_hash_delete, %function
 674              	mrbc_hash_delete:
 675              	.LFB15:
  88:..\..\mruby_c2\Design01.cydsn/c_hash.c ****   // TODO: delete other members (for search).
 676              		.loc 1 88 0
 677              		.cfi_startproc
 678              		@ args = 0, pretend = 0, frame = 0
 679              		@ frame_needed = 0, uses_anonymous_args = 0
 680              	.LVL83:
ARM GAS  C:\Users\164\AppData\Local\Temp\ccySM5k9.s 			page 25


 681 0000 08B5     		push	{r3, lr}
 682              		.cfi_def_cfa_offset 8
 683              		.cfi_offset 3, -8
 684              		.cfi_offset 14, -4
  91:..\..\mruby_c2\Design01.cydsn/c_hash.c **** }
 685              		.loc 1 91 0
 686 0002 FFF7FEFF 		bl	mrbc_array_delete
 687              	.LVL84:
 688 0006 08BD     		pop	{r3, pc}
 689              		.cfi_endproc
 690              	.LFE15:
 691              		.size	mrbc_hash_delete, .-mrbc_hash_delete
 692              		.section	.text.mrbc_hash_search,"ax",%progbits
 693              		.align	2
 694              		.global	mrbc_hash_search
 695              		.thumb
 696              		.thumb_func
 697              		.type	mrbc_hash_search, %function
 698              	mrbc_hash_search:
 699              	.LFB16:
 103:..\..\mruby_c2\Design01.cydsn/c_hash.c **** #ifndef MRBC_HASH_SEARCH_LINER
 700              		.loc 1 103 0
 701              		.cfi_startproc
 702              		@ args = 0, pretend = 0, frame = 0
 703              		@ frame_needed = 0, uses_anonymous_args = 0
 704              	.LVL85:
 705 0000 70B5     		push	{r4, r5, r6, lr}
 706              		.cfi_def_cfa_offset 16
 707              		.cfi_offset 4, -16
 708              		.cfi_offset 5, -12
 709              		.cfi_offset 6, -8
 710              		.cfi_offset 14, -4
 711 0002 0E46     		mov	r6, r1
 109:..\..\mruby_c2\Design01.cydsn/c_hash.c ****   const mrb_value *p2 = p1 + hash->hash->n_stored;
 712              		.loc 1 109 0
 713 0004 8368     		ldr	r3, [r0, #8]
 714 0006 9C68     		ldr	r4, [r3, #8]
 715              	.LVL86:
 110:..\..\mruby_c2\Design01.cydsn/c_hash.c **** 
 716              		.loc 1 110 0
 717 0008 DD88     		ldrh	r5, [r3, #6]
 718 000a 04EB0515 		add	r5, r4, r5, lsl #4
 719              	.LVL87:
 112:..\..\mruby_c2\Design01.cydsn/c_hash.c ****     if( mrbc_compare(p1, key) == 0 ) return p1;
 720              		.loc 1 112 0
 721 000e 05E0     		b	.L39
 722              	.LVL88:
 723              	.L41:
 113:..\..\mruby_c2\Design01.cydsn/c_hash.c ****     p1 += 2;
 724              		.loc 1 113 0
 725 0010 3146     		mov	r1, r6
 726 0012 2046     		mov	r0, r4
 727 0014 FFF7FEFF 		bl	mrbc_compare
 728              	.LVL89:
 729 0018 20B1     		cbz	r0, .L42
 114:..\..\mruby_c2\Design01.cydsn/c_hash.c ****   }
 730              		.loc 1 114 0
ARM GAS  C:\Users\164\AppData\Local\Temp\ccySM5k9.s 			page 26


 731 001a 2034     		adds	r4, r4, #32
 732              	.LVL90:
 733              	.L39:
 112:..\..\mruby_c2\Design01.cydsn/c_hash.c ****     if( mrbc_compare(p1, key) == 0 ) return p1;
 734              		.loc 1 112 0
 735 001c AC42     		cmp	r4, r5
 736 001e F7D3     		bcc	.L41
 116:..\..\mruby_c2\Design01.cydsn/c_hash.c **** #endif
 737              		.loc 1 116 0
 738 0020 0020     		movs	r0, #0
 739 0022 70BD     		pop	{r4, r5, r6, pc}
 740              	.LVL91:
 741              	.L42:
 113:..\..\mruby_c2\Design01.cydsn/c_hash.c ****     p1 += 2;
 742              		.loc 1 113 0
 743 0024 2046     		mov	r0, r4
 127:..\..\mruby_c2\Design01.cydsn/c_hash.c **** 
 744              		.loc 1 127 0
 745 0026 70BD     		pop	{r4, r5, r6, pc}
 746              		.cfi_endproc
 747              	.LFE16:
 748              		.size	mrbc_hash_search, .-mrbc_hash_search
 749              		.section	.text.c_hash_has_key,"ax",%progbits
 750              		.align	2
 751              		.thumb
 752              		.thumb_func
 753              		.type	c_hash_has_key, %function
 754              	c_hash_has_key:
 755              	.LFB30:
 362:..\..\mruby_c2\Design01.cydsn/c_hash.c ****   mrb_value *res = mrbc_hash_search(v, v+1);
 756              		.loc 1 362 0
 757              		.cfi_startproc
 758              		@ args = 0, pretend = 0, frame = 0
 759              		@ frame_needed = 0, uses_anonymous_args = 0
 760              	.LVL92:
 761 0000 10B5     		push	{r4, lr}
 762              		.cfi_def_cfa_offset 8
 763              		.cfi_offset 4, -8
 764              		.cfi_offset 14, -4
 765 0002 0C46     		mov	r4, r1
 363:..\..\mruby_c2\Design01.cydsn/c_hash.c **** 
 766              		.loc 1 363 0
 767 0004 1031     		adds	r1, r1, #16
 768              	.LVL93:
 769 0006 2046     		mov	r0, r4
 770              	.LVL94:
 771 0008 FFF7FEFF 		bl	mrbc_hash_search
 772              	.LVL95:
 365:..\..\mruby_c2\Design01.cydsn/c_hash.c ****     SET_TRUE_RETURN();
 773              		.loc 1 365 0
 774 000c 28B1     		cbz	r0, .L45
 366:..\..\mruby_c2\Design01.cydsn/c_hash.c ****   } else {
 775              		.loc 1 366 0
 776 000e 2046     		mov	r0, r4
 777              	.LVL96:
 778 0010 FFF7FEFF 		bl	mrbc_release
 779              	.LVL97:
ARM GAS  C:\Users\164\AppData\Local\Temp\ccySM5k9.s 			page 27


 780 0014 0323     		movs	r3, #3
 781 0016 2370     		strb	r3, [r4]
 782 0018 10BD     		pop	{r4, pc}
 783              	.LVL98:
 784              	.L45:
 368:..\..\mruby_c2\Design01.cydsn/c_hash.c ****   }
 785              		.loc 1 368 0
 786 001a 2046     		mov	r0, r4
 787              	.LVL99:
 788 001c FFF7FEFF 		bl	mrbc_release
 789              	.LVL100:
 790 0020 0223     		movs	r3, #2
 791 0022 2370     		strb	r3, [r4]
 792 0024 10BD     		pop	{r4, pc}
 793              		.cfi_endproc
 794              	.LFE30:
 795              		.size	c_hash_has_key, .-c_hash_has_key
 796 0026 00BF     		.section	.text.mrbc_hash_set,"ax",%progbits
 797              		.align	2
 798              		.global	mrbc_hash_set
 799              		.thumb
 800              		.thumb_func
 801              		.type	mrbc_hash_set, %function
 802              	mrbc_hash_set:
 803              	.LFB17:
 139:..\..\mruby_c2\Design01.cydsn/c_hash.c ****   mrb_value *v = mrbc_hash_search(hash, key);
 804              		.loc 1 139 0
 805              		.cfi_startproc
 806              		@ args = 0, pretend = 0, frame = 0
 807              		@ frame_needed = 0, uses_anonymous_args = 0
 808              	.LVL101:
 809 0000 F8B5     		push	{r3, r4, r5, r6, r7, lr}
 810              		.cfi_def_cfa_offset 24
 811              		.cfi_offset 3, -24
 812              		.cfi_offset 4, -20
 813              		.cfi_offset 5, -16
 814              		.cfi_offset 6, -12
 815              		.cfi_offset 7, -8
 816              		.cfi_offset 14, -4
 817 0002 0746     		mov	r7, r0
 818 0004 0D46     		mov	r5, r1
 819 0006 1646     		mov	r6, r2
 140:..\..\mruby_c2\Design01.cydsn/c_hash.c ****   int ret = 0;
 820              		.loc 1 140 0
 821 0008 FFF7FEFF 		bl	mrbc_hash_search
 822              	.LVL102:
 142:..\..\mruby_c2\Design01.cydsn/c_hash.c ****     // set a new value
 823              		.loc 1 142 0
 824 000c 58B9     		cbnz	r0, .L49
 144:..\..\mruby_c2\Design01.cydsn/c_hash.c ****     ret = mrbc_array_push(hash, val);
 825              		.loc 1 144 0
 826 000e 2946     		mov	r1, r5
 827 0010 3846     		mov	r0, r7
 828              	.LVL103:
 829 0012 FFF7FEFF 		bl	mrbc_array_push
 830              	.LVL104:
 831 0016 0346     		mov	r3, r0
ARM GAS  C:\Users\164\AppData\Local\Temp\ccySM5k9.s 			page 28


 832 0018 A8B9     		cbnz	r0, .L50
 145:..\..\mruby_c2\Design01.cydsn/c_hash.c **** 
 833              		.loc 1 145 0
 834 001a 3146     		mov	r1, r6
 835 001c 3846     		mov	r0, r7
 836              	.LVL105:
 837 001e FFF7FEFF 		bl	mrbc_array_push
 838              	.LVL106:
 839 0022 0346     		mov	r3, r0
 840              	.LVL107:
 841 0024 0FE0     		b	.L50
 842              	.LVL108:
 843              	.L49:
 844 0026 0446     		mov	r4, r0
 149:..\..\mruby_c2\Design01.cydsn/c_hash.c ****     *v = *key;
 845              		.loc 1 149 0
 846 0028 FFF7FEFF 		bl	mrbc_dec_ref_counter
 847              	.LVL109:
 150:..\..\mruby_c2\Design01.cydsn/c_hash.c ****     mrbc_dec_ref_counter(++v);
 848              		.loc 1 150 0
 849 002c 95E80F00 		ldmia	r5, {r0, r1, r2, r3}
 850 0030 84E80F00 		stmia	r4, {r0, r1, r2, r3}
 851              	.LVL110:
 151:..\..\mruby_c2\Design01.cydsn/c_hash.c ****     *v = *val;
 852              		.loc 1 151 0
 853 0034 1034     		adds	r4, r4, #16
 854              	.LVL111:
 855 0036 2046     		mov	r0, r4
 856 0038 FFF7FEFF 		bl	mrbc_dec_ref_counter
 857              	.LVL112:
 152:..\..\mruby_c2\Design01.cydsn/c_hash.c ****   }
 858              		.loc 1 152 0
 859 003c 96E80F00 		ldmia	r6, {r0, r1, r2, r3}
 860 0040 84E80F00 		stmia	r4, {r0, r1, r2, r3}
 141:..\..\mruby_c2\Design01.cydsn/c_hash.c ****   if( v == NULL ) {
 861              		.loc 1 141 0
 862 0044 0023     		movs	r3, #0
 863              	.LVL113:
 864              	.L50:
 157:..\..\mruby_c2\Design01.cydsn/c_hash.c **** 
 865              		.loc 1 157 0
 866 0046 1846     		mov	r0, r3
 867 0048 F8BD     		pop	{r3, r4, r5, r6, r7, pc}
 868              		.cfi_endproc
 869              	.LFE17:
 870              		.size	mrbc_hash_set, .-mrbc_hash_set
 871 004a 00BF     		.section	.text.c_hash_merge_self,"ax",%progbits
 872              		.align	2
 873              		.thumb
 874              		.thumb_func
 875              		.type	c_hash_merge_self, %function
 876              	c_hash_merge_self:
 877              	.LFB36:
 474:..\..\mruby_c2\Design01.cydsn/c_hash.c ****   mrb_hash_iterator ite = mrbc_hash_iterator(&v[1]);
 878              		.loc 1 474 0
 879              		.cfi_startproc
 880              		@ args = 0, pretend = 0, frame = 24
ARM GAS  C:\Users\164\AppData\Local\Temp\ccySM5k9.s 			page 29


 881              		@ frame_needed = 0, uses_anonymous_args = 0
 882              	.LVL114:
 883 0000 F0B5     		push	{r4, r5, r6, r7, lr}
 884              		.cfi_def_cfa_offset 20
 885              		.cfi_offset 4, -20
 886              		.cfi_offset 5, -16
 887              		.cfi_offset 6, -12
 888              		.cfi_offset 7, -8
 889              		.cfi_offset 14, -4
 890 0002 87B0     		sub	sp, sp, #28
 891              		.cfi_def_cfa_offset 48
 892 0004 0F46     		mov	r7, r1
 893              	.LVL115:
 894              	.LBB98:
 895              	.LBB99:
  94:..\..\mruby_c2\Design01.cydsn/c_hash.h ****   ite.point = v->hash->data;
 896              		.loc 2 94 0
 897 0006 8A69     		ldr	r2, [r1, #24]
 898              	.LVL116:
 899 0008 0092     		str	r2, [sp]
  95:..\..\mruby_c2\Design01.cydsn/c_hash.h ****   ite.p_end = ite.point + v->hash->n_stored;
 900              		.loc 2 95 0
 901 000a 9368     		ldr	r3, [r2, #8]
 902 000c 0193     		str	r3, [sp, #4]
  96:..\..\mruby_c2\Design01.cydsn/c_hash.h **** 
 903              		.loc 2 96 0
 904 000e D688     		ldrh	r6, [r2, #6]
 905 0010 03EB0616 		add	r6, r3, r6, lsl #4
 906 0014 0296     		str	r6, [sp, #8]
  98:..\..\mruby_c2\Design01.cydsn/c_hash.h **** }
 907              		.loc 2 98 0
 908 0016 9DE80700 		ldmia	sp, {r0, r1, r2}
 909              	.LVL117:
 910 001a 06AB     		add	r3, sp, #24
 911 001c 03E90700 		stmdb	r3, {r0, r1, r2}
 912 0020 0FE0     		b	.L53
 913              	.L54:
 914              	.LVL118:
 915              	.LBE99:
 916              	.LBE98:
 917              	.LBB100:
 918              	.LBB101:
 919              	.LBB102:
 920              		.loc 2 115 0
 921 0022 04F12003 		add	r3, r4, #32
 922 0026 0493     		str	r3, [sp, #16]
 923              	.LVL119:
 924              	.LBE102:
 925              	.LBE101:
 479:..\..\mruby_c2\Design01.cydsn/c_hash.c ****     mrbc_dup( &kv[0] );
 926              		.loc 1 479 0
 927 0028 04F11005 		add	r5, r4, #16
 928 002c 2A46     		mov	r2, r5
 929 002e 2146     		mov	r1, r4
 930 0030 3846     		mov	r0, r7
 931 0032 FFF7FEFF 		bl	mrbc_hash_set
 932              	.LVL120:
ARM GAS  C:\Users\164\AppData\Local\Temp\ccySM5k9.s 			page 30


 480:..\..\mruby_c2\Design01.cydsn/c_hash.c ****     mrbc_dup( &kv[1] );
 933              		.loc 1 480 0
 934 0036 2046     		mov	r0, r4
 935 0038 FFF7FEFF 		bl	mrbc_dup
 936              	.LVL121:
 481:..\..\mruby_c2\Design01.cydsn/c_hash.c ****   }
 937              		.loc 1 481 0
 938 003c 2846     		mov	r0, r5
 939 003e FFF7FEFF 		bl	mrbc_dup
 940              	.LVL122:
 941              	.L53:
 942              	.LBE100:
 943              	.LBB103:
 944              	.LBB104:
 106:..\..\mruby_c2\Design01.cydsn/c_hash.h **** }
 945              		.loc 2 106 0
 946 0042 049C     		ldr	r4, [sp, #16]
 947              	.LVL123:
 948              	.LBE104:
 949              	.LBE103:
 477:..\..\mruby_c2\Design01.cydsn/c_hash.c ****     mrb_value *kv = mrbc_hash_i_next(&ite);
 950              		.loc 1 477 0
 951 0044 B442     		cmp	r4, r6
 952 0046 ECD3     		bcc	.L54
 483:..\..\mruby_c2\Design01.cydsn/c_hash.c **** 
 953              		.loc 1 483 0
 954 0048 07B0     		add	sp, sp, #28
 955              		.cfi_def_cfa_offset 20
 956              		@ sp needed
 957 004a F0BD     		pop	{r4, r5, r6, r7, pc}
 958              		.cfi_endproc
 959              	.LFE36:
 960              		.size	c_hash_merge_self, .-c_hash_merge_self
 961              		.section	.text.c_hash_set,"ax",%progbits
 962              		.align	2
 963              		.thumb
 964              		.thumb_func
 965              		.type	c_hash_set, %function
 966              	c_hash_set:
 967              	.LFB25:
 295:..\..\mruby_c2\Design01.cydsn/c_hash.c ****   if( argc != 2 ) {
 968              		.loc 1 295 0
 969              		.cfi_startproc
 970              		@ args = 0, pretend = 0, frame = 0
 971              		@ frame_needed = 0, uses_anonymous_args = 0
 972              	.LVL124:
 296:..\..\mruby_c2\Design01.cydsn/c_hash.c ****     return;	// raise ArgumentError.
 973              		.loc 1 296 0
 974 0000 022A     		cmp	r2, #2
 975 0002 0CD1     		bne	.L59
 295:..\..\mruby_c2\Design01.cydsn/c_hash.c ****   if( argc != 2 ) {
 976              		.loc 1 295 0
 977 0004 10B5     		push	{r4, lr}
 978              		.cfi_def_cfa_offset 8
 979              		.cfi_offset 4, -8
 980              		.cfi_offset 14, -4
 981 0006 0C46     		mov	r4, r1
ARM GAS  C:\Users\164\AppData\Local\Temp\ccySM5k9.s 			page 31


 982              	.LVL125:
 302:..\..\mruby_c2\Design01.cydsn/c_hash.c ****   v1->tt = MRB_TT_EMPTY;
 983              		.loc 1 302 0
 984 0008 01F12002 		add	r2, r1, #32
 985              	.LVL126:
 986 000c 1031     		adds	r1, r1, #16
 987              	.LVL127:
 988 000e 2046     		mov	r0, r4
 989              	.LVL128:
 990 0010 FFF7FEFF 		bl	mrbc_hash_set
 991              	.LVL129:
 303:..\..\mruby_c2\Design01.cydsn/c_hash.c ****   v2->tt = MRB_TT_EMPTY;
 992              		.loc 1 303 0
 993 0014 0023     		movs	r3, #0
 994 0016 2374     		strb	r3, [r4, #16]
 304:..\..\mruby_c2\Design01.cydsn/c_hash.c **** }
 995              		.loc 1 304 0
 996 0018 84F82030 		strb	r3, [r4, #32]
 997 001c 10BD     		pop	{r4, pc}
 998              	.LVL130:
 999              	.L59:
 1000              		.cfi_def_cfa_offset 0
 1001              		.cfi_restore 4
 1002              		.cfi_restore 14
 1003 001e 7047     		bx	lr
 1004              		.cfi_endproc
 1005              	.LFE25:
 1006              		.size	c_hash_set, .-c_hash_set
 1007              		.section	.text.mrbc_hash_get,"ax",%progbits
 1008              		.align	2
 1009              		.global	mrbc_hash_get
 1010              		.thumb
 1011              		.thumb_func
 1012              		.type	mrbc_hash_get, %function
 1013              	mrbc_hash_get:
 1014              	.LFB18:
 168:..\..\mruby_c2\Design01.cydsn/c_hash.c ****   mrb_value *v = mrbc_hash_search(hash, key);
 1015              		.loc 1 168 0
 1016              		.cfi_startproc
 1017              		@ args = 0, pretend = 0, frame = 16
 1018              		@ frame_needed = 0, uses_anonymous_args = 0
 1019              	.LVL131:
 1020 0000 10B5     		push	{r4, lr}
 1021              		.cfi_def_cfa_offset 8
 1022              		.cfi_offset 4, -8
 1023              		.cfi_offset 14, -4
 1024 0002 84B0     		sub	sp, sp, #16
 1025              		.cfi_def_cfa_offset 24
 1026 0004 0446     		mov	r4, r0
 1027 0006 0846     		mov	r0, r1
 1028              	.LVL132:
 169:..\..\mruby_c2\Design01.cydsn/c_hash.c ****   return v ? *++v : mrb_nil_value();
 1029              		.loc 1 169 0
 1030 0008 1146     		mov	r1, r2
 1031              	.LVL133:
 1032 000a FFF7FEFF 		bl	mrbc_hash_search
 1033              	.LVL134:
ARM GAS  C:\Users\164\AppData\Local\Temp\ccySM5k9.s 			page 32


 170:..\..\mruby_c2\Design01.cydsn/c_hash.c **** }
 1034              		.loc 1 170 0
 1035 000e 20B1     		cbz	r0, .L61
 1036              	.LVL135:
 170:..\..\mruby_c2\Design01.cydsn/c_hash.c **** }
 1037              		.loc 1 170 0 is_stmt 0 discriminator 1
 1038 0010 1030     		adds	r0, r0, #16
 1039              	.LVL136:
 1040 0012 0FC8     		ldmia	r0, {r0, r1, r2, r3}
 1041              	.LVL137:
 1042 0014 84E80F00 		stmia	r4, {r0, r1, r2, r3}
 1043 0018 0BE0     		b	.L60
 1044              	.LVL138:
 1045              	.L61:
 1046              	.LBB105:
 1047              	.LBB106:
 1048              		.file 3 "..\\..\\mruby_c2\\Design01.cydsn\\value.h"
   1:..\..\mruby_c2\Design01.cydsn/value.h **** /*! @file
   2:..\..\mruby_c2\Design01.cydsn/value.h ****   @brief
   3:..\..\mruby_c2\Design01.cydsn/value.h ****   mruby/c value definitions
   4:..\..\mruby_c2\Design01.cydsn/value.h **** 
   5:..\..\mruby_c2\Design01.cydsn/value.h ****   <pre>
   6:..\..\mruby_c2\Design01.cydsn/value.h ****   Copyright (C) 2015-2018 Kyushu Institute of Technology.
   7:..\..\mruby_c2\Design01.cydsn/value.h ****   Copyright (C) 2015-2018 Shimane IT Open-Innovation Center.
   8:..\..\mruby_c2\Design01.cydsn/value.h **** 
   9:..\..\mruby_c2\Design01.cydsn/value.h ****   This file is distributed under BSD 3-Clause License.
  10:..\..\mruby_c2\Design01.cydsn/value.h **** 
  11:..\..\mruby_c2\Design01.cydsn/value.h **** 
  12:..\..\mruby_c2\Design01.cydsn/value.h ****   </pre>
  13:..\..\mruby_c2\Design01.cydsn/value.h **** */
  14:..\..\mruby_c2\Design01.cydsn/value.h **** 
  15:..\..\mruby_c2\Design01.cydsn/value.h **** #ifndef MRBC_SRC_VALUE_H_
  16:..\..\mruby_c2\Design01.cydsn/value.h **** #define MRBC_SRC_VALUE_H_
  17:..\..\mruby_c2\Design01.cydsn/value.h **** 
  18:..\..\mruby_c2\Design01.cydsn/value.h **** #include <stdint.h>
  19:..\..\mruby_c2\Design01.cydsn/value.h **** 
  20:..\..\mruby_c2\Design01.cydsn/value.h **** #ifdef __cplusplus
  21:..\..\mruby_c2\Design01.cydsn/value.h **** extern "C" {
  22:..\..\mruby_c2\Design01.cydsn/value.h **** #endif
  23:..\..\mruby_c2\Design01.cydsn/value.h **** 
  24:..\..\mruby_c2\Design01.cydsn/value.h **** 
  25:..\..\mruby_c2\Design01.cydsn/value.h **** // mrb types
  26:..\..\mruby_c2\Design01.cydsn/value.h **** //typedef float mrb_float;
  27:..\..\mruby_c2\Design01.cydsn/value.h **** //typedef int32_t mrb_int;
  28:..\..\mruby_c2\Design01.cydsn/value.h **** typedef int16_t mrb_sym;
  29:..\..\mruby_c2\Design01.cydsn/value.h **** 
  30:..\..\mruby_c2\Design01.cydsn/value.h **** /* aspec access ? */
  31:..\..\mruby_c2\Design01.cydsn/value.h **** #define MRB_ASPEC_REQ(a)          (((a) >> 18) & 0x1f)
  32:..\..\mruby_c2\Design01.cydsn/value.h **** #define MRB_ASPEC_OPT(a)          (((a) >> 13) & 0x1f)
  33:..\..\mruby_c2\Design01.cydsn/value.h **** #define MRB_ASPEC_REST(a)         (((a) >> 12) & 0x1)
  34:..\..\mruby_c2\Design01.cydsn/value.h **** #define MRB_ASPEC_POST(a)         (((a) >> 7) & 0x1f)
  35:..\..\mruby_c2\Design01.cydsn/value.h **** 
  36:..\..\mruby_c2\Design01.cydsn/value.h **** #define MRBC_OBJECT_HEADER \
  37:..\..\mruby_c2\Design01.cydsn/value.h ****   uint16_t ref_count; \
  38:..\..\mruby_c2\Design01.cydsn/value.h ****   mrb_vtype tt : 8  // TODO: for debug use only.
  39:..\..\mruby_c2\Design01.cydsn/value.h **** 
  40:..\..\mruby_c2\Design01.cydsn/value.h **** 
ARM GAS  C:\Users\164\AppData\Local\Temp\ccySM5k9.s 			page 33


  41:..\..\mruby_c2\Design01.cydsn/value.h **** struct VM;
  42:..\..\mruby_c2\Design01.cydsn/value.h **** struct IREP;
  43:..\..\mruby_c2\Design01.cydsn/value.h **** struct RObject;
  44:..\..\mruby_c2\Design01.cydsn/value.h **** typedef void (*mrb_func_t)(struct VM *vm, struct RObject *v, int argc);
  45:..\..\mruby_c2\Design01.cydsn/value.h **** 
  46:..\..\mruby_c2\Design01.cydsn/value.h **** 
  47:..\..\mruby_c2\Design01.cydsn/value.h **** //================================================================
  48:..\..\mruby_c2\Design01.cydsn/value.h **** /*!@brief
  49:..\..\mruby_c2\Design01.cydsn/value.h ****   define the value type.
  50:..\..\mruby_c2\Design01.cydsn/value.h **** */
  51:..\..\mruby_c2\Design01.cydsn/value.h **** typedef enum {
  52:..\..\mruby_c2\Design01.cydsn/value.h ****   /* internal use */
  53:..\..\mruby_c2\Design01.cydsn/value.h ****   MRB_TT_HANDLE = -1,
  54:..\..\mruby_c2\Design01.cydsn/value.h ****   /* primitive */
  55:..\..\mruby_c2\Design01.cydsn/value.h ****   MRB_TT_EMPTY = 0,
  56:..\..\mruby_c2\Design01.cydsn/value.h ****   MRB_TT_NIL,
  57:..\..\mruby_c2\Design01.cydsn/value.h ****   MRB_TT_FALSE,		// (note) true/false threshold. see op_jmpif
  58:..\..\mruby_c2\Design01.cydsn/value.h **** 
  59:..\..\mruby_c2\Design01.cydsn/value.h ****   MRB_TT_TRUE,
  60:..\..\mruby_c2\Design01.cydsn/value.h ****   MRB_TT_FIXNUM,
  61:..\..\mruby_c2\Design01.cydsn/value.h ****   MRB_TT_FLOAT,
  62:..\..\mruby_c2\Design01.cydsn/value.h ****   MRB_TT_SYMBOL,
  63:..\..\mruby_c2\Design01.cydsn/value.h ****   MRB_TT_CLASS,
  64:..\..\mruby_c2\Design01.cydsn/value.h **** 
  65:..\..\mruby_c2\Design01.cydsn/value.h ****   /* non-primitive */
  66:..\..\mruby_c2\Design01.cydsn/value.h ****   MRB_TT_OBJECT = 20,
  67:..\..\mruby_c2\Design01.cydsn/value.h ****   MRB_TT_PROC,
  68:..\..\mruby_c2\Design01.cydsn/value.h ****   MRB_TT_ARRAY,
  69:..\..\mruby_c2\Design01.cydsn/value.h ****   MRB_TT_STRING,
  70:..\..\mruby_c2\Design01.cydsn/value.h ****   MRB_TT_RANGE,
  71:..\..\mruby_c2\Design01.cydsn/value.h ****   MRB_TT_HASH,
  72:..\..\mruby_c2\Design01.cydsn/value.h **** 
  73:..\..\mruby_c2\Design01.cydsn/value.h **** } mrb_vtype;
  74:..\..\mruby_c2\Design01.cydsn/value.h **** 
  75:..\..\mruby_c2\Design01.cydsn/value.h **** 
  76:..\..\mruby_c2\Design01.cydsn/value.h **** //================================================================
  77:..\..\mruby_c2\Design01.cydsn/value.h **** /*!@brief
  78:..\..\mruby_c2\Design01.cydsn/value.h ****   define the error code. (BETA TEST)
  79:..\..\mruby_c2\Design01.cydsn/value.h **** */
  80:..\..\mruby_c2\Design01.cydsn/value.h **** typedef enum {
  81:..\..\mruby_c2\Design01.cydsn/value.h ****   E_NOMEMORY_ERROR = 1,
  82:..\..\mruby_c2\Design01.cydsn/value.h ****   E_RUNTIME_ERROR,
  83:..\..\mruby_c2\Design01.cydsn/value.h ****   E_TYPE_ERROR,
  84:..\..\mruby_c2\Design01.cydsn/value.h ****   E_ARGUMENT_ERROR,
  85:..\..\mruby_c2\Design01.cydsn/value.h ****   E_INDEX_ERROR,
  86:..\..\mruby_c2\Design01.cydsn/value.h ****   E_RANGE_ERROR,
  87:..\..\mruby_c2\Design01.cydsn/value.h ****   E_NAME_ERROR,
  88:..\..\mruby_c2\Design01.cydsn/value.h ****   E_NOMETHOD_ERROR,
  89:..\..\mruby_c2\Design01.cydsn/value.h ****   E_SCRIPT_ERROR,
  90:..\..\mruby_c2\Design01.cydsn/value.h ****   E_SYNTAX_ERROR,
  91:..\..\mruby_c2\Design01.cydsn/value.h ****   E_LOCALJUMP_ERROR,
  92:..\..\mruby_c2\Design01.cydsn/value.h ****   E_REGEXP_ERROR,
  93:..\..\mruby_c2\Design01.cydsn/value.h ****   E_NOTIMP_ERROR,
  94:..\..\mruby_c2\Design01.cydsn/value.h ****   E_FLOATDOMAIN_ERROR,
  95:..\..\mruby_c2\Design01.cydsn/value.h ****   E_KEY_ERROR,
  96:..\..\mruby_c2\Design01.cydsn/value.h **** } mrb_error_code;
  97:..\..\mruby_c2\Design01.cydsn/value.h **** 
ARM GAS  C:\Users\164\AppData\Local\Temp\ccySM5k9.s 			page 34


  98:..\..\mruby_c2\Design01.cydsn/value.h **** 
  99:..\..\mruby_c2\Design01.cydsn/value.h **** 
 100:..\..\mruby_c2\Design01.cydsn/value.h **** //================================================================
 101:..\..\mruby_c2\Design01.cydsn/value.h **** /*!@brief
 102:..\..\mruby_c2\Design01.cydsn/value.h ****   mruby/c value object.
 103:..\..\mruby_c2\Design01.cydsn/value.h **** */
 104:..\..\mruby_c2\Design01.cydsn/value.h **** typedef struct RObject {
 105:..\..\mruby_c2\Design01.cydsn/value.h ****   mrb_vtype tt : 8;
 106:..\..\mruby_c2\Design01.cydsn/value.h ****   union {
 107:..\..\mruby_c2\Design01.cydsn/value.h ****     int32_t i;			// MRB_TT_FIXNUM, SYMBOL
 108:..\..\mruby_c2\Design01.cydsn/value.h **** #if MRBC_USE_FLOAT
 109:..\..\mruby_c2\Design01.cydsn/value.h ****     double d;			// MRB_TT_FLOAT
 110:..\..\mruby_c2\Design01.cydsn/value.h **** #endif
 111:..\..\mruby_c2\Design01.cydsn/value.h ****     struct RClass *cls;		// MRB_TT_CLASS
 112:..\..\mruby_c2\Design01.cydsn/value.h ****     struct RObject *handle;	// handle to objects
 113:..\..\mruby_c2\Design01.cydsn/value.h ****     struct RInstance *instance;	// MRB_TT_OBJECT
 114:..\..\mruby_c2\Design01.cydsn/value.h ****     struct RProc *proc;		// MRB_TT_PROC
 115:..\..\mruby_c2\Design01.cydsn/value.h ****     struct RArray *array;	// MRB_TT_ARRAY
 116:..\..\mruby_c2\Design01.cydsn/value.h ****     struct RString *string;	// MRB_TT_STRING
 117:..\..\mruby_c2\Design01.cydsn/value.h ****     const char *str;		// C-string (only loader use.)
 118:..\..\mruby_c2\Design01.cydsn/value.h ****     struct RRange *range;	// MRB_TT_RANGE
 119:..\..\mruby_c2\Design01.cydsn/value.h ****     struct RHash *hash;		// MRB_TT_HASH
 120:..\..\mruby_c2\Design01.cydsn/value.h ****   };
 121:..\..\mruby_c2\Design01.cydsn/value.h **** } mrb_object;
 122:..\..\mruby_c2\Design01.cydsn/value.h **** typedef struct RObject mrb_value;
 123:..\..\mruby_c2\Design01.cydsn/value.h **** 
 124:..\..\mruby_c2\Design01.cydsn/value.h **** 
 125:..\..\mruby_c2\Design01.cydsn/value.h **** //================================================================
 126:..\..\mruby_c2\Design01.cydsn/value.h **** /*!@brief
 127:..\..\mruby_c2\Design01.cydsn/value.h ****   mruby/c class object.
 128:..\..\mruby_c2\Design01.cydsn/value.h **** */
 129:..\..\mruby_c2\Design01.cydsn/value.h **** typedef struct RClass {
 130:..\..\mruby_c2\Design01.cydsn/value.h ****   mrb_sym sym_id;	// class name
 131:..\..\mruby_c2\Design01.cydsn/value.h **** #ifdef MRBC_DEBUG
 132:..\..\mruby_c2\Design01.cydsn/value.h ****   const char *names;	// for debug. delete soon.
 133:..\..\mruby_c2\Design01.cydsn/value.h **** #endif
 134:..\..\mruby_c2\Design01.cydsn/value.h ****   struct RClass *super;	// mrbc_class[super]
 135:..\..\mruby_c2\Design01.cydsn/value.h ****   struct RProc *procs;	// mrbc_proc[rprocs], linked list
 136:..\..\mruby_c2\Design01.cydsn/value.h **** } mrb_class;
 137:..\..\mruby_c2\Design01.cydsn/value.h **** 
 138:..\..\mruby_c2\Design01.cydsn/value.h **** 
 139:..\..\mruby_c2\Design01.cydsn/value.h **** //================================================================
 140:..\..\mruby_c2\Design01.cydsn/value.h **** /*!@brief
 141:..\..\mruby_c2\Design01.cydsn/value.h ****   mruby/c instance object.
 142:..\..\mruby_c2\Design01.cydsn/value.h **** */
 143:..\..\mruby_c2\Design01.cydsn/value.h **** typedef struct RInstance {
 144:..\..\mruby_c2\Design01.cydsn/value.h ****   MRBC_OBJECT_HEADER;
 145:..\..\mruby_c2\Design01.cydsn/value.h **** 
 146:..\..\mruby_c2\Design01.cydsn/value.h ****   struct RClass *cls;
 147:..\..\mruby_c2\Design01.cydsn/value.h ****   struct RKeyValueHandle *ivar;
 148:..\..\mruby_c2\Design01.cydsn/value.h ****   uint8_t data[];
 149:..\..\mruby_c2\Design01.cydsn/value.h **** } mrb_instance;
 150:..\..\mruby_c2\Design01.cydsn/value.h **** 
 151:..\..\mruby_c2\Design01.cydsn/value.h **** 
 152:..\..\mruby_c2\Design01.cydsn/value.h **** //================================================================
 153:..\..\mruby_c2\Design01.cydsn/value.h **** /*!@brief
 154:..\..\mruby_c2\Design01.cydsn/value.h ****   mruby/c proc object.
ARM GAS  C:\Users\164\AppData\Local\Temp\ccySM5k9.s 			page 35


 155:..\..\mruby_c2\Design01.cydsn/value.h **** */
 156:..\..\mruby_c2\Design01.cydsn/value.h **** typedef struct RProc {
 157:..\..\mruby_c2\Design01.cydsn/value.h ****   MRBC_OBJECT_HEADER;
 158:..\..\mruby_c2\Design01.cydsn/value.h **** 
 159:..\..\mruby_c2\Design01.cydsn/value.h ****   unsigned int c_func : 1;	// 0:IREP, 1:C Func
 160:..\..\mruby_c2\Design01.cydsn/value.h ****   mrb_sym sym_id;
 161:..\..\mruby_c2\Design01.cydsn/value.h **** #ifdef MRBC_DEBUG
 162:..\..\mruby_c2\Design01.cydsn/value.h ****   const char *names;		// for debug; delete soon
 163:..\..\mruby_c2\Design01.cydsn/value.h **** #endif
 164:..\..\mruby_c2\Design01.cydsn/value.h ****   struct RProc *next;
 165:..\..\mruby_c2\Design01.cydsn/value.h ****   union {
 166:..\..\mruby_c2\Design01.cydsn/value.h ****     struct IREP *irep;
 167:..\..\mruby_c2\Design01.cydsn/value.h ****     mrb_func_t func;
 168:..\..\mruby_c2\Design01.cydsn/value.h ****   };
 169:..\..\mruby_c2\Design01.cydsn/value.h **** } mrb_proc;
 170:..\..\mruby_c2\Design01.cydsn/value.h **** 
 171:..\..\mruby_c2\Design01.cydsn/value.h **** 
 172:..\..\mruby_c2\Design01.cydsn/value.h **** 
 173:..\..\mruby_c2\Design01.cydsn/value.h **** // for C call
 174:..\..\mruby_c2\Design01.cydsn/value.h **** #define SET_INT_RETURN(n)	(mrbc_release(v), v[0].tt=MRB_TT_FIXNUM, v[0].i=(n))
 175:..\..\mruby_c2\Design01.cydsn/value.h **** #define SET_NIL_RETURN()	(mrbc_release(v), v[0].tt=MRB_TT_NIL)
 176:..\..\mruby_c2\Design01.cydsn/value.h **** #define SET_FLOAT_RETURN(n)	(mrbc_release(v), v[0].tt=MRB_TT_FLOAT, v[0].d=(n))
 177:..\..\mruby_c2\Design01.cydsn/value.h **** #define SET_FALSE_RETURN()	(mrbc_release(v), v[0].tt=MRB_TT_FALSE)
 178:..\..\mruby_c2\Design01.cydsn/value.h **** #define SET_TRUE_RETURN()	(mrbc_release(v), v[0].tt=MRB_TT_TRUE)
 179:..\..\mruby_c2\Design01.cydsn/value.h **** #define SET_RETURN(n)		(mrbc_release(v), v[0]=(n))
 180:..\..\mruby_c2\Design01.cydsn/value.h **** 
 181:..\..\mruby_c2\Design01.cydsn/value.h **** #define GET_TT_ARG(n)		(v[(n)].tt)
 182:..\..\mruby_c2\Design01.cydsn/value.h **** #define GET_INT_ARG(n)		(v[(n)].i)
 183:..\..\mruby_c2\Design01.cydsn/value.h **** #define GET_ARY_ARG(n)		(v[(n)])
 184:..\..\mruby_c2\Design01.cydsn/value.h **** #define GET_ARG(n)		(v[(n)])
 185:..\..\mruby_c2\Design01.cydsn/value.h **** #define GET_FLOAT_ARG(n)	(v[(n)].d)
 186:..\..\mruby_c2\Design01.cydsn/value.h **** #define GET_STRING_ARG(n)	(v[(n)].string->data)
 187:..\..\mruby_c2\Design01.cydsn/value.h **** 
 188:..\..\mruby_c2\Design01.cydsn/value.h **** 
 189:..\..\mruby_c2\Design01.cydsn/value.h **** 
 190:..\..\mruby_c2\Design01.cydsn/value.h **** mrb_object *mrbc_obj_alloc(struct VM *vm, mrb_vtype tt);
 191:..\..\mruby_c2\Design01.cydsn/value.h **** mrb_proc *mrbc_rproc_alloc(struct VM *vm, const char *name);
 192:..\..\mruby_c2\Design01.cydsn/value.h **** int mrbc_compare(const mrb_value *v1, const mrb_value *v2);
 193:..\..\mruby_c2\Design01.cydsn/value.h **** void mrbc_dup(mrb_value *v);
 194:..\..\mruby_c2\Design01.cydsn/value.h **** void mrbc_release(mrb_value *v);
 195:..\..\mruby_c2\Design01.cydsn/value.h **** void mrbc_dec_ref_counter(mrb_value *v);
 196:..\..\mruby_c2\Design01.cydsn/value.h **** void mrbc_clear_vm_id(mrb_value *v);
 197:..\..\mruby_c2\Design01.cydsn/value.h **** int32_t mrbc_atoi(const char *s, int base);
 198:..\..\mruby_c2\Design01.cydsn/value.h **** struct IREP *mrbc_irep_alloc(struct VM *vm);
 199:..\..\mruby_c2\Design01.cydsn/value.h **** void mrbc_irep_free(struct IREP *irep);
 200:..\..\mruby_c2\Design01.cydsn/value.h **** mrb_value mrbc_instance_new(struct VM *vm, mrb_class *cls, int size);
 201:..\..\mruby_c2\Design01.cydsn/value.h **** void mrbc_instance_delete(mrb_value *v);
 202:..\..\mruby_c2\Design01.cydsn/value.h **** void mrbc_instance_setiv(mrb_object *obj, mrb_sym sym_id, mrb_value *v);
 203:..\..\mruby_c2\Design01.cydsn/value.h **** mrb_value mrbc_instance_getiv(mrb_object *obj, mrb_sym sym_id);
 204:..\..\mruby_c2\Design01.cydsn/value.h **** 
 205:..\..\mruby_c2\Design01.cydsn/value.h **** 
 206:..\..\mruby_c2\Design01.cydsn/value.h **** 
 207:..\..\mruby_c2\Design01.cydsn/value.h **** //================================================================
 208:..\..\mruby_c2\Design01.cydsn/value.h **** /*!@brief
 209:..\..\mruby_c2\Design01.cydsn/value.h ****   Returns a fixnum in mruby/c.
 210:..\..\mruby_c2\Design01.cydsn/value.h **** 
 211:..\..\mruby_c2\Design01.cydsn/value.h ****   @param  n	int value
ARM GAS  C:\Users\164\AppData\Local\Temp\ccySM5k9.s 			page 36


 212:..\..\mruby_c2\Design01.cydsn/value.h ****   @return	mrb_value of type fixnum.
 213:..\..\mruby_c2\Design01.cydsn/value.h **** */
 214:..\..\mruby_c2\Design01.cydsn/value.h **** static inline mrb_value mrb_fixnum_value( int32_t n )
 215:..\..\mruby_c2\Design01.cydsn/value.h **** {
 216:..\..\mruby_c2\Design01.cydsn/value.h ****   mrb_value value = {.tt = MRB_TT_FIXNUM};
 217:..\..\mruby_c2\Design01.cydsn/value.h ****   value.i = n;
 218:..\..\mruby_c2\Design01.cydsn/value.h ****   return value;
 219:..\..\mruby_c2\Design01.cydsn/value.h **** }
 220:..\..\mruby_c2\Design01.cydsn/value.h **** 
 221:..\..\mruby_c2\Design01.cydsn/value.h **** 
 222:..\..\mruby_c2\Design01.cydsn/value.h **** #if MRBC_USE_FLOAT
 223:..\..\mruby_c2\Design01.cydsn/value.h **** //================================================================
 224:..\..\mruby_c2\Design01.cydsn/value.h **** /*!@brief
 225:..\..\mruby_c2\Design01.cydsn/value.h ****   Returns a float in mruby/c.
 226:..\..\mruby_c2\Design01.cydsn/value.h **** 
 227:..\..\mruby_c2\Design01.cydsn/value.h ****   @param  n	dluble value
 228:..\..\mruby_c2\Design01.cydsn/value.h ****   @return	mrb_value of type float.
 229:..\..\mruby_c2\Design01.cydsn/value.h **** */
 230:..\..\mruby_c2\Design01.cydsn/value.h **** static inline mrb_value mrb_float_value( double n )
 231:..\..\mruby_c2\Design01.cydsn/value.h **** {
 232:..\..\mruby_c2\Design01.cydsn/value.h ****   mrb_value value = {.tt = MRB_TT_FLOAT};
 233:..\..\mruby_c2\Design01.cydsn/value.h ****   value.d = n;
 234:..\..\mruby_c2\Design01.cydsn/value.h ****   return value;
 235:..\..\mruby_c2\Design01.cydsn/value.h **** }
 236:..\..\mruby_c2\Design01.cydsn/value.h **** #endif
 237:..\..\mruby_c2\Design01.cydsn/value.h **** 
 238:..\..\mruby_c2\Design01.cydsn/value.h **** 
 239:..\..\mruby_c2\Design01.cydsn/value.h **** //================================================================
 240:..\..\mruby_c2\Design01.cydsn/value.h **** /*!@brief
 241:..\..\mruby_c2\Design01.cydsn/value.h ****   Returns a nil in mruby/c.
 242:..\..\mruby_c2\Design01.cydsn/value.h **** 
 243:..\..\mruby_c2\Design01.cydsn/value.h ****   @return	mrb_value of type nil.
 244:..\..\mruby_c2\Design01.cydsn/value.h **** */
 245:..\..\mruby_c2\Design01.cydsn/value.h **** static inline mrb_value mrb_nil_value(void)
 246:..\..\mruby_c2\Design01.cydsn/value.h **** {
 247:..\..\mruby_c2\Design01.cydsn/value.h ****   mrb_value value = {.tt = MRB_TT_NIL};
 1049              		.loc 3 247 0 is_stmt 1
 1050 001a 0022     		movs	r2, #0
 1051 001c 0092     		str	r2, [sp]
 1052 001e 0192     		str	r2, [sp, #4]
 1053 0020 0292     		str	r2, [sp, #8]
 1054 0022 0392     		str	r2, [sp, #12]
 1055 0024 0122     		movs	r2, #1
 1056 0026 8DF80020 		strb	r2, [sp]
 248:..\..\mruby_c2\Design01.cydsn/value.h ****   return value;
 1057              		.loc 3 248 0
 1058 002a 9DE80F00 		ldmia	sp, {r0, r1, r2, r3}
 1059              	.LVL139:
 1060 002e 84E80F00 		stmia	r4, {r0, r1, r2, r3}
 1061              	.L60:
 1062              	.LBE106:
 1063              	.LBE105:
 171:..\..\mruby_c2\Design01.cydsn/c_hash.c **** 
 1064              		.loc 1 171 0
 1065 0032 2046     		mov	r0, r4
 1066 0034 04B0     		add	sp, sp, #16
 1067              		.cfi_def_cfa_offset 8
ARM GAS  C:\Users\164\AppData\Local\Temp\ccySM5k9.s 			page 37


 1068              		@ sp needed
 1069 0036 10BD     		pop	{r4, pc}
 1070              		.cfi_endproc
 1071              	.LFE18:
 1072              		.size	mrbc_hash_get, .-mrbc_hash_get
 1073              		.section	.text.c_hash_get,"ax",%progbits
 1074              		.align	2
 1075              		.thumb
 1076              		.thumb_func
 1077              		.type	c_hash_get, %function
 1078              	c_hash_get:
 1079              	.LFB24:
 280:..\..\mruby_c2\Design01.cydsn/c_hash.c ****   if( argc != 1 ) {
 1080              		.loc 1 280 0
 1081              		.cfi_startproc
 1082              		@ args = 0, pretend = 0, frame = 16
 1083              		@ frame_needed = 0, uses_anonymous_args = 0
 1084              	.LVL140:
 281:..\..\mruby_c2\Design01.cydsn/c_hash.c ****     return;	// raise ArgumentError.
 1085              		.loc 1 281 0
 1086 0000 012A     		cmp	r2, #1
 1087 0002 13D1     		bne	.L68
 280:..\..\mruby_c2\Design01.cydsn/c_hash.c ****   if( argc != 1 ) {
 1088              		.loc 1 280 0
 1089 0004 30B5     		push	{r4, r5, lr}
 1090              		.cfi_def_cfa_offset 12
 1091              		.cfi_offset 4, -12
 1092              		.cfi_offset 5, -8
 1093              		.cfi_offset 14, -4
 1094 0006 85B0     		sub	sp, sp, #20
 1095              		.cfi_def_cfa_offset 32
 1096 0008 0C46     		mov	r4, r1
 285:..\..\mruby_c2\Design01.cydsn/c_hash.c ****   mrbc_dup(&val);
 1097              		.loc 1 285 0
 1098 000a 01F11002 		add	r2, r1, #16
 1099              	.LVL141:
 1100 000e 6846     		mov	r0, sp
 1101              	.LVL142:
 1102 0010 FFF7FEFF 		bl	mrbc_hash_get
 1103              	.LVL143:
 286:..\..\mruby_c2\Design01.cydsn/c_hash.c ****   SET_RETURN(val);
 1104              		.loc 1 286 0
 1105 0014 6846     		mov	r0, sp
 1106 0016 FFF7FEFF 		bl	mrbc_dup
 1107              	.LVL144:
 287:..\..\mruby_c2\Design01.cydsn/c_hash.c **** }
 1108              		.loc 1 287 0
 1109 001a 2046     		mov	r0, r4
 1110 001c FFF7FEFF 		bl	mrbc_release
 1111              	.LVL145:
 1112 0020 9DE80F00 		ldmia	sp, {r0, r1, r2, r3}
 1113 0024 84E80F00 		stmia	r4, {r0, r1, r2, r3}
 288:..\..\mruby_c2\Design01.cydsn/c_hash.c **** 
 1114              		.loc 1 288 0
 1115 0028 05B0     		add	sp, sp, #20
 1116              		.cfi_def_cfa_offset 12
 1117              		@ sp needed
ARM GAS  C:\Users\164\AppData\Local\Temp\ccySM5k9.s 			page 38


 1118 002a 30BD     		pop	{r4, r5, pc}
 1119              	.LVL146:
 1120              	.L68:
 1121              		.cfi_def_cfa_offset 0
 1122              		.cfi_restore 4
 1123              		.cfi_restore 5
 1124              		.cfi_restore 14
 1125 002c 7047     		bx	lr
 1126              		.cfi_endproc
 1127              	.LFE24:
 1128              		.size	c_hash_get, .-c_hash_get
 1129 002e 00BF     		.section	.text.mrbc_hash_remove,"ax",%progbits
 1130              		.align	2
 1131              		.global	mrbc_hash_remove
 1132              		.thumb
 1133              		.thumb_func
 1134              		.type	mrbc_hash_remove, %function
 1135              	mrbc_hash_remove:
 1136              	.LFB19:
 182:..\..\mruby_c2\Design01.cydsn/c_hash.c ****   mrb_value *v = mrbc_hash_search(hash, key);
 1137              		.loc 1 182 0
 1138              		.cfi_startproc
 1139              		@ args = 0, pretend = 0, frame = 32
 1140              		@ frame_needed = 0, uses_anonymous_args = 0
 1141              	.LVL147:
 1142 0000 F0B5     		push	{r4, r5, r6, r7, lr}
 1143              		.cfi_def_cfa_offset 20
 1144              		.cfi_offset 4, -20
 1145              		.cfi_offset 5, -16
 1146              		.cfi_offset 6, -12
 1147              		.cfi_offset 7, -8
 1148              		.cfi_offset 14, -4
 1149 0002 89B0     		sub	sp, sp, #36
 1150              		.cfi_def_cfa_offset 56
 1151 0004 0546     		mov	r5, r0
 1152 0006 0F46     		mov	r7, r1
 183:..\..\mruby_c2\Design01.cydsn/c_hash.c ****   if( v == NULL ) return mrb_nil_value();
 1153              		.loc 1 183 0
 1154 0008 1146     		mov	r1, r2
 1155              	.LVL148:
 1156 000a 3846     		mov	r0, r7
 1157              	.LVL149:
 1158 000c FFF7FEFF 		bl	mrbc_hash_search
 1159              	.LVL150:
 184:..\..\mruby_c2\Design01.cydsn/c_hash.c **** 
 1160              		.loc 1 184 0
 1161 0010 60B9     		cbnz	r0, .L70
 1162              	.LBB107:
 1163              	.LBB108:
 247:..\..\mruby_c2\Design01.cydsn/value.h ****   return value;
 1164              		.loc 3 247 0
 1165 0012 0022     		movs	r2, #0
 1166 0014 0092     		str	r2, [sp]
 1167 0016 0192     		str	r2, [sp, #4]
 1168 0018 0292     		str	r2, [sp, #8]
 1169 001a 0392     		str	r2, [sp, #12]
 1170 001c 0122     		movs	r2, #1
ARM GAS  C:\Users\164\AppData\Local\Temp\ccySM5k9.s 			page 39


 1171 001e 8DF80020 		strb	r2, [sp]
 1172              		.loc 3 248 0
 1173 0022 9DE80F00 		ldmia	sp, {r0, r1, r2, r3}
 1174              	.LVL151:
 1175 0026 85E80F00 		stmia	r5, {r0, r1, r2, r3}
 1176 002a 1AE0     		b	.L69
 1177              	.LVL152:
 1178              	.L70:
 1179 002c 0646     		mov	r6, r0
 1180              	.LBE108:
 1181              	.LBE107:
 186:..\..\mruby_c2\Design01.cydsn/c_hash.c ****   mrb_value val = v[1];		// value
 1182              		.loc 1 186 0
 1183 002e FFF7FEFF 		bl	mrbc_dec_ref_counter
 1184              	.LVL153:
 187:..\..\mruby_c2\Design01.cydsn/c_hash.c **** 
 1185              		.loc 1 187 0
 1186 0032 04AC     		add	r4, sp, #16
 1187 0034 06F11003 		add	r3, r6, #16
 1188 0038 0FCB     		ldmia	r3, {r0, r1, r2, r3}
 1189 003a 84E80F00 		stmia	r4, {r0, r1, r2, r3}
 189:..\..\mruby_c2\Design01.cydsn/c_hash.c ****   h->n_stored -= 2;
 1190              		.loc 1 189 0
 1191 003e BA68     		ldr	r2, [r7, #8]
 1192              	.LVL154:
 190:..\..\mruby_c2\Design01.cydsn/c_hash.c **** 
 1193              		.loc 1 190 0
 1194 0040 D388     		ldrh	r3, [r2, #6]
 1195 0042 023B     		subs	r3, r3, #2
 1196 0044 9BB2     		uxth	r3, r3
 1197 0046 D380     		strh	r3, [r2, #6]	@ movhi
 192:..\..\mruby_c2\Design01.cydsn/c_hash.c **** 
 1198              		.loc 1 192 0
 1199 0048 9268     		ldr	r2, [r2, #8]
 1200              	.LVL155:
 1201 004a 02EB0312 		add	r2, r2, r3, lsl #4
 1202 004e 921B     		subs	r2, r2, r6
 1203 0050 06F12001 		add	r1, r6, #32
 1204 0054 3046     		mov	r0, r6
 1205 0056 FFF7FEFF 		bl	memmove
 1206              	.LVL156:
 196:..\..\mruby_c2\Design01.cydsn/c_hash.c **** }
 1207              		.loc 1 196 0
 1208 005a 94E80F00 		ldmia	r4, {r0, r1, r2, r3}
 1209 005e 85E80F00 		stmia	r5, {r0, r1, r2, r3}
 1210              	.LVL157:
 1211              	.L69:
 197:..\..\mruby_c2\Design01.cydsn/c_hash.c **** 
 1212              		.loc 1 197 0
 1213 0062 2846     		mov	r0, r5
 1214 0064 09B0     		add	sp, sp, #36
 1215              		.cfi_def_cfa_offset 20
 1216              		@ sp needed
 1217 0066 F0BD     		pop	{r4, r5, r6, r7, pc}
 1218              		.cfi_endproc
 1219              	.LFE19:
 1220              		.size	mrbc_hash_remove, .-mrbc_hash_remove
ARM GAS  C:\Users\164\AppData\Local\Temp\ccySM5k9.s 			page 40


 1221              		.section	.text.c_hash_delete,"ax",%progbits
 1222              		.align	2
 1223              		.thumb
 1224              		.thumb_func
 1225              		.type	c_hash_delete, %function
 1226              	c_hash_delete:
 1227              	.LFB28:
 332:..\..\mruby_c2\Design01.cydsn/c_hash.c ****   // TODO : now, support only delete(key) -> object
 1228              		.loc 1 332 0
 1229              		.cfi_startproc
 1230              		@ args = 0, pretend = 0, frame = 16
 1231              		@ frame_needed = 0, uses_anonymous_args = 0
 1232              	.LVL158:
 1233 0000 30B5     		push	{r4, r5, lr}
 1234              		.cfi_def_cfa_offset 12
 1235              		.cfi_offset 4, -12
 1236              		.cfi_offset 5, -8
 1237              		.cfi_offset 14, -4
 1238 0002 85B0     		sub	sp, sp, #20
 1239              		.cfi_def_cfa_offset 32
 1240 0004 0C46     		mov	r4, r1
 335:..\..\mruby_c2\Design01.cydsn/c_hash.c **** 
 1241              		.loc 1 335 0
 1242 0006 01F11002 		add	r2, r1, #16
 1243              	.LVL159:
 1244 000a 6846     		mov	r0, sp
 1245              	.LVL160:
 1246 000c FFF7FEFF 		bl	mrbc_hash_remove
 1247              	.LVL161:
 339:..\..\mruby_c2\Design01.cydsn/c_hash.c **** }
 1248              		.loc 1 339 0
 1249 0010 2046     		mov	r0, r4
 1250 0012 FFF7FEFF 		bl	mrbc_release
 1251              	.LVL162:
 1252 0016 9DE80F00 		ldmia	sp, {r0, r1, r2, r3}
 1253 001a 84E80F00 		stmia	r4, {r0, r1, r2, r3}
 340:..\..\mruby_c2\Design01.cydsn/c_hash.c **** 
 1254              		.loc 1 340 0
 1255 001e 05B0     		add	sp, sp, #20
 1256              		.cfi_def_cfa_offset 12
 1257              		@ sp needed
 1258 0020 30BD     		pop	{r4, r5, pc}
 1259              		.cfi_endproc
 1260              	.LFE28:
 1261              		.size	c_hash_delete, .-c_hash_delete
 1262 0022 00BF     		.section	.text.mrbc_hash_clear,"ax",%progbits
 1263              		.align	2
 1264              		.global	mrbc_hash_clear
 1265              		.thumb
 1266              		.thumb_func
 1267              		.type	mrbc_hash_clear, %function
 1268              	mrbc_hash_clear:
 1269              	.LFB20:
 206:..\..\mruby_c2\Design01.cydsn/c_hash.c ****   mrbc_array_clear(hash);
 1270              		.loc 1 206 0
 1271              		.cfi_startproc
 1272              		@ args = 0, pretend = 0, frame = 0
ARM GAS  C:\Users\164\AppData\Local\Temp\ccySM5k9.s 			page 41


 1273              		@ frame_needed = 0, uses_anonymous_args = 0
 1274              	.LVL163:
 1275 0000 08B5     		push	{r3, lr}
 1276              		.cfi_def_cfa_offset 8
 1277              		.cfi_offset 3, -8
 1278              		.cfi_offset 14, -4
 207:..\..\mruby_c2\Design01.cydsn/c_hash.c **** 
 1279              		.loc 1 207 0
 1280 0002 FFF7FEFF 		bl	mrbc_array_clear
 1281              	.LVL164:
 1282 0006 08BD     		pop	{r3, pc}
 1283              		.cfi_endproc
 1284              	.LFE20:
 1285              		.size	mrbc_hash_clear, .-mrbc_hash_clear
 1286              		.section	.text.c_hash_clear,"ax",%progbits
 1287              		.align	2
 1288              		.thumb
 1289              		.thumb_func
 1290              		.type	c_hash_clear, %function
 1291              	c_hash_clear:
 1292              	.LFB26:
 312:..\..\mruby_c2\Design01.cydsn/c_hash.c ****   mrbc_hash_clear(v);
 1293              		.loc 1 312 0
 1294              		.cfi_startproc
 1295              		@ args = 0, pretend = 0, frame = 0
 1296              		@ frame_needed = 0, uses_anonymous_args = 0
 1297              	.LVL165:
 1298 0000 08B5     		push	{r3, lr}
 1299              		.cfi_def_cfa_offset 8
 1300              		.cfi_offset 3, -8
 1301              		.cfi_offset 14, -4
 313:..\..\mruby_c2\Design01.cydsn/c_hash.c **** }
 1302              		.loc 1 313 0
 1303 0002 0846     		mov	r0, r1
 1304              	.LVL166:
 1305 0004 FFF7FEFF 		bl	mrbc_hash_clear
 1306              	.LVL167:
 1307 0008 08BD     		pop	{r3, pc}
 1308              		.cfi_endproc
 1309              	.LFE26:
 1310              		.size	c_hash_clear, .-c_hash_clear
 1311 000a 00BF     		.section	.text.mrbc_hash_compare,"ax",%progbits
 1312              		.align	2
 1313              		.global	mrbc_hash_compare
 1314              		.thumb
 1315              		.thumb_func
 1316              		.type	mrbc_hash_compare, %function
 1317              	mrbc_hash_compare:
 1318              	.LFB21:
 222:..\..\mruby_c2\Design01.cydsn/c_hash.c ****   if( v1->hash->n_stored != v2->hash->n_stored ) return 1;
 1319              		.loc 1 222 0
 1320              		.cfi_startproc
 1321              		@ args = 0, pretend = 0, frame = 0
 1322              		@ frame_needed = 0, uses_anonymous_args = 0
 1323              	.LVL168:
 1324 0000 F8B5     		push	{r3, r4, r5, r6, r7, lr}
 1325              		.cfi_def_cfa_offset 24
ARM GAS  C:\Users\164\AppData\Local\Temp\ccySM5k9.s 			page 42


 1326              		.cfi_offset 3, -24
 1327              		.cfi_offset 4, -20
 1328              		.cfi_offset 5, -16
 1329              		.cfi_offset 6, -12
 1330              		.cfi_offset 7, -8
 1331              		.cfi_offset 14, -4
 223:..\..\mruby_c2\Design01.cydsn/c_hash.c **** 
 1332              		.loc 1 223 0
 1333 0002 8368     		ldr	r3, [r0, #8]
 1334 0004 DC88     		ldrh	r4, [r3, #6]
 1335 0006 8A68     		ldr	r2, [r1, #8]
 1336 0008 D288     		ldrh	r2, [r2, #6]
 1337 000a 9442     		cmp	r4, r2
 1338 000c 19D1     		bne	.L83
 1339 000e 0F46     		mov	r7, r1
 1340 0010 0646     		mov	r6, r0
 225:..\..\mruby_c2\Design01.cydsn/c_hash.c ****   int i;
 1341              		.loc 1 225 0
 1342 0012 9C68     		ldr	r4, [r3, #8]
 1343              	.LVL169:
 227:..\..\mruby_c2\Design01.cydsn/c_hash.c ****     mrb_value *d2 = mrbc_hash_search(v2, d1);	// check key
 1344              		.loc 1 227 0
 1345 0014 0025     		movs	r5, #0
 1346 0016 0DE0     		b	.L81
 1347              	.LVL170:
 1348              	.L82:
 1349              	.LBB109:
 228:..\..\mruby_c2\Design01.cydsn/c_hash.c ****     if( d2 == NULL ) return 1;
 1350              		.loc 1 228 0
 1351 0018 2146     		mov	r1, r4
 1352 001a 3846     		mov	r0, r7
 1353 001c FFF7FEFF 		bl	mrbc_hash_search
 1354              	.LVL171:
 229:..\..\mruby_c2\Design01.cydsn/c_hash.c ****     if( mrbc_compare( ++d1, ++d2 ) ) return 1;	// check data
 1355              		.loc 1 229 0
 1356 0020 0146     		mov	r1, r0
 1357 0022 80B1     		cbz	r0, .L84
 1358              	.LVL172:
 230:..\..\mruby_c2\Design01.cydsn/c_hash.c ****   }
 1359              		.loc 1 230 0
 1360 0024 1031     		adds	r1, r1, #16
 1361              	.LVL173:
 1362 0026 04F11000 		add	r0, r4, #16
 1363              	.LVL174:
 1364 002a FFF7FEFF 		bl	mrbc_compare
 1365              	.LVL175:
 1366 002e 60B9     		cbnz	r0, .L85
 1367              	.LBE109:
 227:..\..\mruby_c2\Design01.cydsn/c_hash.c ****     mrb_value *d2 = mrbc_hash_search(v2, d1);	// check key
 1368              		.loc 1 227 0 discriminator 2
 1369 0030 0135     		adds	r5, r5, #1
 1370              	.LVL176:
 1371 0032 2034     		adds	r4, r4, #32
 1372              	.LVL177:
 1373              	.L81:
 1374              	.LBB110:
 1375              	.LBB111:
ARM GAS  C:\Users\164\AppData\Local\Temp\ccySM5k9.s 			page 43


  69:..\..\mruby_c2\Design01.cydsn/c_hash.h **** }
 1376              		.loc 2 69 0 discriminator 1
 1377 0034 B368     		ldr	r3, [r6, #8]
 1378 0036 DB88     		ldrh	r3, [r3, #6]
 1379              	.LVL178:
 1380              	.LBE111:
 1381              	.LBE110:
 227:..\..\mruby_c2\Design01.cydsn/c_hash.c ****     mrb_value *d2 = mrbc_hash_search(v2, d1);	// check key
 1382              		.loc 1 227 0 discriminator 1
 1383 0038 B5EB530F 		cmp	r5, r3, lsr #1
 1384 003c ECDB     		blt	.L82
 233:..\..\mruby_c2\Design01.cydsn/c_hash.c **** }
 1385              		.loc 1 233 0
 1386 003e 0020     		movs	r0, #0
 1387 0040 F8BD     		pop	{r3, r4, r5, r6, r7, pc}
 1388              	.LVL179:
 1389              	.L83:
 223:..\..\mruby_c2\Design01.cydsn/c_hash.c **** 
 1390              		.loc 1 223 0
 1391 0042 0120     		movs	r0, #1
 1392              	.LVL180:
 1393 0044 F8BD     		pop	{r3, r4, r5, r6, r7, pc}
 1394              	.LVL181:
 1395              	.L84:
 1396              	.LBB112:
 229:..\..\mruby_c2\Design01.cydsn/c_hash.c ****     if( mrbc_compare( ++d1, ++d2 ) ) return 1;	// check data
 1397              		.loc 1 229 0
 1398 0046 0120     		movs	r0, #1
 1399              	.LVL182:
 1400 0048 F8BD     		pop	{r3, r4, r5, r6, r7, pc}
 1401              	.LVL183:
 1402              	.L85:
 230:..\..\mruby_c2\Design01.cydsn/c_hash.c ****   }
 1403              		.loc 1 230 0
 1404 004a 0120     		movs	r0, #1
 1405              	.LBE112:
 234:..\..\mruby_c2\Design01.cydsn/c_hash.c **** 
 1406              		.loc 1 234 0
 1407 004c F8BD     		pop	{r3, r4, r5, r6, r7, pc}
 1408              		.cfi_endproc
 1409              	.LFE21:
 1410              		.size	mrbc_hash_compare, .-mrbc_hash_compare
 1411 004e 00BF     		.section	.text.mrbc_hash_dup,"ax",%progbits
 1412              		.align	2
 1413              		.global	mrbc_hash_dup
 1414              		.thumb
 1415              		.thumb_func
 1416              		.type	mrbc_hash_dup, %function
 1417              	mrbc_hash_dup:
 1418              	.LFB22:
 244:..\..\mruby_c2\Design01.cydsn/c_hash.c ****   mrb_value ret = mrbc_hash_new(vm, mrbc_hash_size(src));
 1419              		.loc 1 244 0
 1420              		.cfi_startproc
 1421              		@ args = 0, pretend = 0, frame = 0
 1422              		@ frame_needed = 0, uses_anonymous_args = 0
 1423              	.LVL184:
 1424 0000 70B5     		push	{r4, r5, r6, lr}
ARM GAS  C:\Users\164\AppData\Local\Temp\ccySM5k9.s 			page 44


 1425              		.cfi_def_cfa_offset 16
 1426              		.cfi_offset 4, -16
 1427              		.cfi_offset 5, -12
 1428              		.cfi_offset 6, -8
 1429              		.cfi_offset 14, -4
 1430 0002 0646     		mov	r6, r0
 1431 0004 1446     		mov	r4, r2
 1432              	.LVL185:
 1433              	.LBB113:
 1434              	.LBB114:
  69:..\..\mruby_c2\Design01.cydsn/c_hash.h **** }
 1435              		.loc 2 69 0
 1436 0006 9368     		ldr	r3, [r2, #8]
 1437 0008 DA88     		ldrh	r2, [r3, #6]
 1438              	.LVL186:
 1439              	.LBE114:
 1440              	.LBE113:
 245:..\..\mruby_c2\Design01.cydsn/c_hash.c ****   if( ret.hash == NULL ) return ret;		// ENOMEM
 1441              		.loc 1 245 0
 1442 000a 5208     		lsrs	r2, r2, #1
 1443 000c FFF7FEFF 		bl	mrbc_hash_new
 1444              	.LVL187:
 246:..\..\mruby_c2\Design01.cydsn/c_hash.c **** 
 1445              		.loc 1 246 0
 1446 0010 B568     		ldr	r5, [r6, #8]
 1447 0012 A5B1     		cbz	r5, .L87
 248:..\..\mruby_c2\Design01.cydsn/c_hash.c ****   memcpy( ret.hash->data, h->data, sizeof(mrb_value) * h->n_stored );
 1448              		.loc 1 248 0
 1449 0014 A468     		ldr	r4, [r4, #8]
 1450              	.LVL188:
 249:..\..\mruby_c2\Design01.cydsn/c_hash.c ****   ret.hash->n_stored = h->n_stored;
 1451              		.loc 1 249 0
 1452 0016 E288     		ldrh	r2, [r4, #6]
 1453 0018 1201     		lsls	r2, r2, #4
 1454 001a A168     		ldr	r1, [r4, #8]
 1455 001c A868     		ldr	r0, [r5, #8]
 1456 001e FFF7FEFF 		bl	memcpy
 1457              	.LVL189:
 250:..\..\mruby_c2\Design01.cydsn/c_hash.c **** 
 1458              		.loc 1 250 0
 1459 0022 E388     		ldrh	r3, [r4, #6]
 1460 0024 EB80     		strh	r3, [r5, #6]	@ movhi
 252:..\..\mruby_c2\Design01.cydsn/c_hash.c ****   const mrb_value *p2 = p1 + h->n_stored;
 1461              		.loc 1 252 0
 1462 0026 A068     		ldr	r0, [r4, #8]
 1463              	.LVL190:
 253:..\..\mruby_c2\Design01.cydsn/c_hash.c ****   while( p1 < p2 ) {
 1464              		.loc 1 253 0
 1465 0028 E588     		ldrh	r5, [r4, #6]
 1466 002a 00EB0515 		add	r5, r0, r5, lsl #4
 1467              	.LVL191:
 254:..\..\mruby_c2\Design01.cydsn/c_hash.c ****     mrbc_dup(p1++);
 1468              		.loc 1 254 0
 1469 002e 04E0     		b	.L89
 1470              	.LVL192:
 1471              	.L90:
 255:..\..\mruby_c2\Design01.cydsn/c_hash.c ****   }
ARM GAS  C:\Users\164\AppData\Local\Temp\ccySM5k9.s 			page 45


 1472              		.loc 1 255 0
 1473 0030 00F11004 		add	r4, r0, #16
 1474              	.LVL193:
 1475 0034 FFF7FEFF 		bl	mrbc_dup
 1476              	.LVL194:
 1477 0038 2046     		mov	r0, r4
 1478              	.LVL195:
 1479              	.L89:
 254:..\..\mruby_c2\Design01.cydsn/c_hash.c ****     mrbc_dup(p1++);
 1480              		.loc 1 254 0
 1481 003a A842     		cmp	r0, r5
 1482 003c F8D3     		bcc	.L90
 1483              	.LVL196:
 1484              	.L87:
 261:..\..\mruby_c2\Design01.cydsn/c_hash.c **** 
 1485              		.loc 1 261 0
 1486 003e 3046     		mov	r0, r6
 1487 0040 70BD     		pop	{r4, r5, r6, pc}
 1488              		.cfi_endproc
 1489              	.LFE22:
 1490              		.size	mrbc_hash_dup, .-mrbc_hash_dup
 1491 0042 00BF     		.section	.text.c_hash_merge,"ax",%progbits
 1492              		.align	2
 1493              		.thumb
 1494              		.thumb_func
 1495              		.type	c_hash_merge, %function
 1496              	c_hash_merge:
 1497              	.LFB35:
 455:..\..\mruby_c2\Design01.cydsn/c_hash.c ****   mrb_value ret = mrbc_hash_dup( vm, &v[0] );
 1498              		.loc 1 455 0
 1499              		.cfi_startproc
 1500              		@ args = 0, pretend = 0, frame = 40
 1501              		@ frame_needed = 0, uses_anonymous_args = 0
 1502              	.LVL197:
 1503 0000 F0B5     		push	{r4, r5, r6, r7, lr}
 1504              		.cfi_def_cfa_offset 20
 1505              		.cfi_offset 4, -20
 1506              		.cfi_offset 5, -16
 1507              		.cfi_offset 6, -12
 1508              		.cfi_offset 7, -8
 1509              		.cfi_offset 14, -4
 1510 0002 8BB0     		sub	sp, sp, #44
 1511              		.cfi_def_cfa_offset 64
 1512 0004 0F46     		mov	r7, r1
 456:..\..\mruby_c2\Design01.cydsn/c_hash.c ****   mrb_hash_iterator ite = mrbc_hash_iterator(&v[1]);
 1513              		.loc 1 456 0
 1514 0006 0A46     		mov	r2, r1
 1515              	.LVL198:
 1516 0008 0146     		mov	r1, r0
 1517              	.LVL199:
 1518 000a 06A8     		add	r0, sp, #24
 1519              	.LVL200:
 1520 000c FFF7FEFF 		bl	mrbc_hash_dup
 1521              	.LVL201:
 1522              	.LBB115:
 1523              	.LBB116:
  94:..\..\mruby_c2\Design01.cydsn/c_hash.h ****   ite.point = v->hash->data;
ARM GAS  C:\Users\164\AppData\Local\Temp\ccySM5k9.s 			page 46


 1524              		.loc 2 94 0
 1525 0010 BA69     		ldr	r2, [r7, #24]
 1526 0012 0092     		str	r2, [sp]
  95:..\..\mruby_c2\Design01.cydsn/c_hash.h ****   ite.p_end = ite.point + v->hash->n_stored;
 1527              		.loc 2 95 0
 1528 0014 9368     		ldr	r3, [r2, #8]
 1529 0016 0193     		str	r3, [sp, #4]
  96:..\..\mruby_c2\Design01.cydsn/c_hash.h **** 
 1530              		.loc 2 96 0
 1531 0018 D688     		ldrh	r6, [r2, #6]
 1532 001a 03EB0616 		add	r6, r3, r6, lsl #4
 1533 001e 0296     		str	r6, [sp, #8]
  98:..\..\mruby_c2\Design01.cydsn/c_hash.h **** }
 1534              		.loc 2 98 0
 1535 0020 03AB     		add	r3, sp, #12
 1536 0022 9DE80700 		ldmia	sp, {r0, r1, r2}
 1537 0026 83E80700 		stmia	r3, {r0, r1, r2}
 1538 002a 0FE0     		b	.L93
 1539              	.L94:
 1540              	.LVL202:
 1541              	.LBE116:
 1542              	.LBE115:
 1543              	.LBB117:
 1544              	.LBB118:
 1545              	.LBB119:
 1546              		.loc 2 115 0
 1547 002c 04F12003 		add	r3, r4, #32
 1548 0030 0493     		str	r3, [sp, #16]
 1549              	.LVL203:
 1550              	.LBE119:
 1551              	.LBE118:
 461:..\..\mruby_c2\Design01.cydsn/c_hash.c ****     mrbc_dup( &kv[0] );
 1552              		.loc 1 461 0
 1553 0032 04F11005 		add	r5, r4, #16
 1554 0036 2A46     		mov	r2, r5
 1555 0038 2146     		mov	r1, r4
 1556 003a 06A8     		add	r0, sp, #24
 1557 003c FFF7FEFF 		bl	mrbc_hash_set
 1558              	.LVL204:
 462:..\..\mruby_c2\Design01.cydsn/c_hash.c ****     mrbc_dup( &kv[1] );
 1559              		.loc 1 462 0
 1560 0040 2046     		mov	r0, r4
 1561 0042 FFF7FEFF 		bl	mrbc_dup
 1562              	.LVL205:
 463:..\..\mruby_c2\Design01.cydsn/c_hash.c ****   }
 1563              		.loc 1 463 0
 1564 0046 2846     		mov	r0, r5
 1565 0048 FFF7FEFF 		bl	mrbc_dup
 1566              	.LVL206:
 1567              	.L93:
 1568              	.LBE117:
 1569              	.LBB120:
 1570              	.LBB121:
 106:..\..\mruby_c2\Design01.cydsn/c_hash.h **** }
 1571              		.loc 2 106 0
 1572 004c 049C     		ldr	r4, [sp, #16]
 1573              	.LVL207:
ARM GAS  C:\Users\164\AppData\Local\Temp\ccySM5k9.s 			page 47


 1574              	.LBE121:
 1575              	.LBE120:
 459:..\..\mruby_c2\Design01.cydsn/c_hash.c ****     mrb_value *kv = mrbc_hash_i_next(&ite);
 1576              		.loc 1 459 0
 1577 004e B442     		cmp	r4, r6
 1578 0050 ECD3     		bcc	.L94
 466:..\..\mruby_c2\Design01.cydsn/c_hash.c **** }
 1579              		.loc 1 466 0
 1580 0052 3846     		mov	r0, r7
 1581 0054 FFF7FEFF 		bl	mrbc_release
 1582              	.LVL208:
 1583 0058 0AAB     		add	r3, sp, #40
 1584 005a 13E90F00 		ldmdb	r3, {r0, r1, r2, r3}
 1585 005e 87E80F00 		stmia	r7, {r0, r1, r2, r3}
 467:..\..\mruby_c2\Design01.cydsn/c_hash.c **** 
 1586              		.loc 1 467 0
 1587 0062 0BB0     		add	sp, sp, #44
 1588              		.cfi_def_cfa_offset 20
 1589              		@ sp needed
 1590 0064 F0BD     		pop	{r4, r5, r6, r7, pc}
 1591              		.cfi_endproc
 1592              	.LFE35:
 1593              		.size	c_hash_merge, .-c_hash_merge
 1594 0066 00BF     		.section	.text.c_hash_dup,"ax",%progbits
 1595              		.align	2
 1596              		.thumb
 1597              		.thumb_func
 1598              		.type	c_hash_dup, %function
 1599              	c_hash_dup:
 1600              	.LFB27:
 321:..\..\mruby_c2\Design01.cydsn/c_hash.c ****   mrb_value ret = mrbc_hash_dup( vm, &v[0] );
 1601              		.loc 1 321 0
 1602              		.cfi_startproc
 1603              		@ args = 0, pretend = 0, frame = 16
 1604              		@ frame_needed = 0, uses_anonymous_args = 0
 1605              	.LVL209:
 1606 0000 30B5     		push	{r4, r5, lr}
 1607              		.cfi_def_cfa_offset 12
 1608              		.cfi_offset 4, -12
 1609              		.cfi_offset 5, -8
 1610              		.cfi_offset 14, -4
 1611 0002 85B0     		sub	sp, sp, #20
 1612              		.cfi_def_cfa_offset 32
 1613 0004 0C46     		mov	r4, r1
 322:..\..\mruby_c2\Design01.cydsn/c_hash.c **** 
 1614              		.loc 1 322 0
 1615 0006 0A46     		mov	r2, r1
 1616              	.LVL210:
 1617 0008 0146     		mov	r1, r0
 1618              	.LVL211:
 1619 000a 6846     		mov	r0, sp
 1620              	.LVL212:
 1621 000c FFF7FEFF 		bl	mrbc_hash_dup
 1622              	.LVL213:
 324:..\..\mruby_c2\Design01.cydsn/c_hash.c **** }
 1623              		.loc 1 324 0
 1624 0010 2046     		mov	r0, r4
ARM GAS  C:\Users\164\AppData\Local\Temp\ccySM5k9.s 			page 48


 1625 0012 FFF7FEFF 		bl	mrbc_release
 1626              	.LVL214:
 1627 0016 9DE80F00 		ldmia	sp, {r0, r1, r2, r3}
 1628 001a 84E80F00 		stmia	r4, {r0, r1, r2, r3}
 325:..\..\mruby_c2\Design01.cydsn/c_hash.c **** 
 1629              		.loc 1 325 0
 1630 001e 05B0     		add	sp, sp, #20
 1631              		.cfi_def_cfa_offset 12
 1632              		@ sp needed
 1633 0020 30BD     		pop	{r4, r5, pc}
 1634              		.cfi_endproc
 1635              	.LFE27:
 1636              		.size	c_hash_dup, .-c_hash_dup
 1637 0022 00BF     		.section	.text.mrbc_init_class_hash,"ax",%progbits
 1638              		.align	2
 1639              		.global	mrbc_init_class_hash
 1640              		.thumb
 1641              		.thumb_func
 1642              		.type	mrbc_init_class_hash, %function
 1643              	mrbc_init_class_hash:
 1644              	.LFB38:
 502:..\..\mruby_c2\Design01.cydsn/c_hash.c **** 
 503:..\..\mruby_c2\Design01.cydsn/c_hash.c **** 
 504:..\..\mruby_c2\Design01.cydsn/c_hash.c **** 
 505:..\..\mruby_c2\Design01.cydsn/c_hash.c **** void mrbc_init_class_hash(struct VM *vm)
 506:..\..\mruby_c2\Design01.cydsn/c_hash.c **** {
 1645              		.loc 1 506 0
 1646              		.cfi_startproc
 1647              		@ args = 0, pretend = 0, frame = 0
 1648              		@ frame_needed = 0, uses_anonymous_args = 0
 1649              	.LVL215:
 1650 0000 70B5     		push	{r4, r5, r6, lr}
 1651              		.cfi_def_cfa_offset 16
 1652              		.cfi_offset 4, -16
 1653              		.cfi_offset 5, -12
 1654              		.cfi_offset 6, -8
 1655              		.cfi_offset 14, -4
 1656 0002 0446     		mov	r4, r0
 507:..\..\mruby_c2\Design01.cydsn/c_hash.c ****   mrbc_class_hash = mrbc_define_class(vm, "Hash", mrbc_class_object);
 1657              		.loc 1 507 0
 1658 0004 3A4B     		ldr	r3, .L100
 1659 0006 1A68     		ldr	r2, [r3]
 1660 0008 3A49     		ldr	r1, .L100+4
 1661 000a FFF7FEFF 		bl	mrbc_define_class
 1662              	.LVL216:
 1663 000e 0146     		mov	r1, r0
 1664 0010 394D     		ldr	r5, .L100+8
 1665 0012 2860     		str	r0, [r5]
 508:..\..\mruby_c2\Design01.cydsn/c_hash.c **** 
 509:..\..\mruby_c2\Design01.cydsn/c_hash.c ****   mrbc_define_method(vm, mrbc_class_hash, "new",	c_hash_new);
 1666              		.loc 1 509 0
 1667 0014 394B     		ldr	r3, .L100+12
 1668 0016 3A4A     		ldr	r2, .L100+16
 1669 0018 2046     		mov	r0, r4
 1670 001a FFF7FEFF 		bl	mrbc_define_method
 1671              	.LVL217:
 510:..\..\mruby_c2\Design01.cydsn/c_hash.c ****   mrbc_define_method(vm, mrbc_class_hash, "[]",		c_hash_get);
ARM GAS  C:\Users\164\AppData\Local\Temp\ccySM5k9.s 			page 49


 1672              		.loc 1 510 0
 1673 001e 394B     		ldr	r3, .L100+20
 1674 0020 394A     		ldr	r2, .L100+24
 1675 0022 2968     		ldr	r1, [r5]
 1676 0024 2046     		mov	r0, r4
 1677 0026 FFF7FEFF 		bl	mrbc_define_method
 1678              	.LVL218:
 511:..\..\mruby_c2\Design01.cydsn/c_hash.c ****   mrbc_define_method(vm, mrbc_class_hash, "[]=",	c_hash_set);
 1679              		.loc 1 511 0
 1680 002a 384B     		ldr	r3, .L100+28
 1681 002c 384A     		ldr	r2, .L100+32
 1682 002e 2968     		ldr	r1, [r5]
 1683 0030 2046     		mov	r0, r4
 1684 0032 FFF7FEFF 		bl	mrbc_define_method
 1685              	.LVL219:
 512:..\..\mruby_c2\Design01.cydsn/c_hash.c ****   mrbc_define_method(vm, mrbc_class_hash, "clear",	c_hash_clear);
 1686              		.loc 1 512 0
 1687 0036 374B     		ldr	r3, .L100+36
 1688 0038 374A     		ldr	r2, .L100+40
 1689 003a 2968     		ldr	r1, [r5]
 1690 003c 2046     		mov	r0, r4
 1691 003e FFF7FEFF 		bl	mrbc_define_method
 1692              	.LVL220:
 513:..\..\mruby_c2\Design01.cydsn/c_hash.c ****   mrbc_define_method(vm, mrbc_class_hash, "dup",	c_hash_dup);
 1693              		.loc 1 513 0
 1694 0042 364B     		ldr	r3, .L100+44
 1695 0044 364A     		ldr	r2, .L100+48
 1696 0046 2968     		ldr	r1, [r5]
 1697 0048 2046     		mov	r0, r4
 1698 004a FFF7FEFF 		bl	mrbc_define_method
 1699              	.LVL221:
 514:..\..\mruby_c2\Design01.cydsn/c_hash.c ****   mrbc_define_method(vm, mrbc_class_hash, "delete",	c_hash_delete);
 1700              		.loc 1 514 0
 1701 004e 354B     		ldr	r3, .L100+52
 1702 0050 354A     		ldr	r2, .L100+56
 1703 0052 2968     		ldr	r1, [r5]
 1704 0054 2046     		mov	r0, r4
 1705 0056 FFF7FEFF 		bl	mrbc_define_method
 1706              	.LVL222:
 515:..\..\mruby_c2\Design01.cydsn/c_hash.c ****   mrbc_define_method(vm, mrbc_class_hash, "empty?",	c_hash_empty);
 1707              		.loc 1 515 0
 1708 005a 344B     		ldr	r3, .L100+60
 1709 005c 344A     		ldr	r2, .L100+64
 1710 005e 2968     		ldr	r1, [r5]
 1711 0060 2046     		mov	r0, r4
 1712 0062 FFF7FEFF 		bl	mrbc_define_method
 1713              	.LVL223:
 516:..\..\mruby_c2\Design01.cydsn/c_hash.c ****   mrbc_define_method(vm, mrbc_class_hash, "has_key?",	c_hash_has_key);
 1714              		.loc 1 516 0
 1715 0066 334B     		ldr	r3, .L100+68
 1716 0068 334A     		ldr	r2, .L100+72
 1717 006a 2968     		ldr	r1, [r5]
 1718 006c 2046     		mov	r0, r4
 1719 006e FFF7FEFF 		bl	mrbc_define_method
 1720              	.LVL224:
 517:..\..\mruby_c2\Design01.cydsn/c_hash.c ****   mrbc_define_method(vm, mrbc_class_hash, "has_value?",	c_hash_has_value);
 1721              		.loc 1 517 0
ARM GAS  C:\Users\164\AppData\Local\Temp\ccySM5k9.s 			page 50


 1722 0072 324B     		ldr	r3, .L100+76
 1723 0074 324A     		ldr	r2, .L100+80
 1724 0076 2968     		ldr	r1, [r5]
 1725 0078 2046     		mov	r0, r4
 1726 007a FFF7FEFF 		bl	mrbc_define_method
 1727              	.LVL225:
 518:..\..\mruby_c2\Design01.cydsn/c_hash.c ****   mrbc_define_method(vm, mrbc_class_hash, "key",	c_hash_key);
 1728              		.loc 1 518 0
 1729 007e 314B     		ldr	r3, .L100+84
 1730 0080 314A     		ldr	r2, .L100+88
 1731 0082 2968     		ldr	r1, [r5]
 1732 0084 2046     		mov	r0, r4
 1733 0086 FFF7FEFF 		bl	mrbc_define_method
 1734              	.LVL226:
 519:..\..\mruby_c2\Design01.cydsn/c_hash.c ****   mrbc_define_method(vm, mrbc_class_hash, "keys",	c_hash_keys);
 1735              		.loc 1 519 0
 1736 008a 304B     		ldr	r3, .L100+92
 1737 008c 304A     		ldr	r2, .L100+96
 1738 008e 2968     		ldr	r1, [r5]
 1739 0090 2046     		mov	r0, r4
 1740 0092 FFF7FEFF 		bl	mrbc_define_method
 1741              	.LVL227:
 520:..\..\mruby_c2\Design01.cydsn/c_hash.c ****   mrbc_define_method(vm, mrbc_class_hash, "size",	c_hash_size);
 1742              		.loc 1 520 0
 1743 0096 2F4E     		ldr	r6, .L100+100
 1744 0098 3346     		mov	r3, r6
 1745 009a 2F4A     		ldr	r2, .L100+104
 1746 009c 2968     		ldr	r1, [r5]
 1747 009e 2046     		mov	r0, r4
 1748 00a0 FFF7FEFF 		bl	mrbc_define_method
 1749              	.LVL228:
 521:..\..\mruby_c2\Design01.cydsn/c_hash.c ****   mrbc_define_method(vm, mrbc_class_hash, "length",	c_hash_size);
 1750              		.loc 1 521 0
 1751 00a4 3346     		mov	r3, r6
 1752 00a6 2D4A     		ldr	r2, .L100+108
 1753 00a8 2968     		ldr	r1, [r5]
 1754 00aa 2046     		mov	r0, r4
 1755 00ac FFF7FEFF 		bl	mrbc_define_method
 1756              	.LVL229:
 522:..\..\mruby_c2\Design01.cydsn/c_hash.c ****   mrbc_define_method(vm, mrbc_class_hash, "count",	c_hash_size);
 1757              		.loc 1 522 0
 1758 00b0 3346     		mov	r3, r6
 1759 00b2 2B4A     		ldr	r2, .L100+112
 1760 00b4 2968     		ldr	r1, [r5]
 1761 00b6 2046     		mov	r0, r4
 1762 00b8 FFF7FEFF 		bl	mrbc_define_method
 1763              	.LVL230:
 523:..\..\mruby_c2\Design01.cydsn/c_hash.c ****   mrbc_define_method(vm, mrbc_class_hash, "merge",	c_hash_merge);
 1764              		.loc 1 523 0
 1765 00bc 294B     		ldr	r3, .L100+116
 1766 00be 2A4A     		ldr	r2, .L100+120
 1767 00c0 2968     		ldr	r1, [r5]
 1768 00c2 2046     		mov	r0, r4
 1769 00c4 FFF7FEFF 		bl	mrbc_define_method
 1770              	.LVL231:
 524:..\..\mruby_c2\Design01.cydsn/c_hash.c ****   mrbc_define_method(vm, mrbc_class_hash, "merge!",	c_hash_merge_self);
 1771              		.loc 1 524 0
ARM GAS  C:\Users\164\AppData\Local\Temp\ccySM5k9.s 			page 51


 1772 00c8 284B     		ldr	r3, .L100+124
 1773 00ca 294A     		ldr	r2, .L100+128
 1774 00cc 2968     		ldr	r1, [r5]
 1775 00ce 2046     		mov	r0, r4
 1776 00d0 FFF7FEFF 		bl	mrbc_define_method
 1777              	.LVL232:
 525:..\..\mruby_c2\Design01.cydsn/c_hash.c ****   mrbc_define_method(vm, mrbc_class_hash, "to_h",	c_ineffect);
 1778              		.loc 1 525 0
 1779 00d4 274B     		ldr	r3, .L100+132
 1780 00d6 284A     		ldr	r2, .L100+136
 1781 00d8 2968     		ldr	r1, [r5]
 1782 00da 2046     		mov	r0, r4
 1783 00dc FFF7FEFF 		bl	mrbc_define_method
 1784              	.LVL233:
 526:..\..\mruby_c2\Design01.cydsn/c_hash.c ****   mrbc_define_method(vm, mrbc_class_hash, "values",	c_hash_values);
 1785              		.loc 1 526 0
 1786 00e0 264B     		ldr	r3, .L100+140
 1787 00e2 274A     		ldr	r2, .L100+144
 1788 00e4 2968     		ldr	r1, [r5]
 1789 00e6 2046     		mov	r0, r4
 1790 00e8 FFF7FEFF 		bl	mrbc_define_method
 1791              	.LVL234:
 1792 00ec 70BD     		pop	{r4, r5, r6, pc}
 1793              	.LVL235:
 1794              	.L101:
 1795 00ee 00BF     		.align	2
 1796              	.L100:
 1797 00f0 00000000 		.word	mrbc_class_object
 1798 00f4 00000000 		.word	.LC0
 1799 00f8 00000000 		.word	mrbc_class_hash
 1800 00fc 00000000 		.word	c_hash_new
 1801 0100 08000000 		.word	.LC1
 1802 0104 00000000 		.word	c_hash_get
 1803 0108 0C000000 		.word	.LC2
 1804 010c 00000000 		.word	c_hash_set
 1805 0110 10000000 		.word	.LC3
 1806 0114 00000000 		.word	c_hash_clear
 1807 0118 14000000 		.word	.LC4
 1808 011c 00000000 		.word	c_hash_dup
 1809 0120 1C000000 		.word	.LC5
 1810 0124 00000000 		.word	c_hash_delete
 1811 0128 20000000 		.word	.LC6
 1812 012c 00000000 		.word	c_hash_empty
 1813 0130 28000000 		.word	.LC7
 1814 0134 00000000 		.word	c_hash_has_key
 1815 0138 30000000 		.word	.LC8
 1816 013c 00000000 		.word	c_hash_has_value
 1817 0140 3C000000 		.word	.LC9
 1818 0144 00000000 		.word	c_hash_key
 1819 0148 48000000 		.word	.LC10
 1820 014c 00000000 		.word	c_hash_keys
 1821 0150 4C000000 		.word	.LC11
 1822 0154 00000000 		.word	c_hash_size
 1823 0158 54000000 		.word	.LC12
 1824 015c 5C000000 		.word	.LC13
 1825 0160 64000000 		.word	.LC14
 1826 0164 00000000 		.word	c_hash_merge
ARM GAS  C:\Users\164\AppData\Local\Temp\ccySM5k9.s 			page 52


 1827 0168 6C000000 		.word	.LC15
 1828 016c 00000000 		.word	c_hash_merge_self
 1829 0170 74000000 		.word	.LC16
 1830 0174 00000000 		.word	c_ineffect
 1831 0178 7C000000 		.word	.LC17
 1832 017c 00000000 		.word	c_hash_values
 1833 0180 84000000 		.word	.LC18
 1834              		.cfi_endproc
 1835              	.LFE38:
 1836              		.size	mrbc_init_class_hash, .-mrbc_init_class_hash
 1837              		.section	.rodata.str1.4,"aMS",%progbits,1
 1838              		.align	2
 1839              	.LC0:
 1840 0000 48617368 		.ascii	"Hash\000"
 1840      00
 1841 0005 000000   		.space	3
 1842              	.LC1:
 1843 0008 6E657700 		.ascii	"new\000"
 1844              	.LC2:
 1845 000c 5B5D00   		.ascii	"[]\000"
 1846 000f 00       		.space	1
 1847              	.LC3:
 1848 0010 5B5D3D00 		.ascii	"[]=\000"
 1849              	.LC4:
 1850 0014 636C6561 		.ascii	"clear\000"
 1850      7200
 1851 001a 0000     		.space	2
 1852              	.LC5:
 1853 001c 64757000 		.ascii	"dup\000"
 1854              	.LC6:
 1855 0020 64656C65 		.ascii	"delete\000"
 1855      746500
 1856 0027 00       		.space	1
 1857              	.LC7:
 1858 0028 656D7074 		.ascii	"empty?\000"
 1858      793F00
 1859 002f 00       		.space	1
 1860              	.LC8:
 1861 0030 6861735F 		.ascii	"has_key?\000"
 1861      6B65793F 
 1861      00
 1862 0039 000000   		.space	3
 1863              	.LC9:
 1864 003c 6861735F 		.ascii	"has_value?\000"
 1864      76616C75 
 1864      653F00
 1865 0047 00       		.space	1
 1866              	.LC10:
 1867 0048 6B657900 		.ascii	"key\000"
 1868              	.LC11:
 1869 004c 6B657973 		.ascii	"keys\000"
 1869      00
 1870 0051 000000   		.space	3
 1871              	.LC12:
 1872 0054 73697A65 		.ascii	"size\000"
 1872      00
 1873 0059 000000   		.space	3
ARM GAS  C:\Users\164\AppData\Local\Temp\ccySM5k9.s 			page 53


 1874              	.LC13:
 1875 005c 6C656E67 		.ascii	"length\000"
 1875      746800
 1876 0063 00       		.space	1
 1877              	.LC14:
 1878 0064 636F756E 		.ascii	"count\000"
 1878      7400
 1879 006a 0000     		.space	2
 1880              	.LC15:
 1881 006c 6D657267 		.ascii	"merge\000"
 1881      6500
 1882 0072 0000     		.space	2
 1883              	.LC16:
 1884 0074 6D657267 		.ascii	"merge!\000"
 1884      652100
 1885 007b 00       		.space	1
 1886              	.LC17:
 1887 007c 746F5F68 		.ascii	"to_h\000"
 1887      00
 1888 0081 000000   		.space	3
 1889              	.LC18:
 1890 0084 76616C75 		.ascii	"values\000"
 1890      657300
 1891              		.text
 1892              	.Letext0:
 1893              		.file 4 "c:\\program files (x86)\\cypress\\psoc creator\\4.2\\psoc creator\\import\\gnu\\arm\\5.4.
 1894              		.file 5 "c:\\program files (x86)\\cypress\\psoc creator\\4.2\\psoc creator\\import\\gnu\\arm\\5.4.
 1895              		.file 6 "..\\..\\mruby_c2\\Design01.cydsn\\vm.h"
 1896              		.file 7 "..\\..\\mruby_c2\\Design01.cydsn\\c_array.h"
 1897              		.file 8 "..\\..\\mruby_c2\\Design01.cydsn\\static.h"
 1898              		.file 9 "..\\..\\mruby_c2\\Design01.cydsn\\alloc.h"
 1899              		.file 10 "c:\\program files (x86)\\cypress\\psoc creator\\4.2\\psoc creator\\import\\gnu\\arm\\5.4
 1900              		.file 11 "..\\..\\mruby_c2\\Design01.cydsn\\class.h"
 1901              		.section	.debug_info,"",%progbits
 1902              	.Ldebug_info0:
 1903 0000 581C0000 		.4byte	0x1c58
 1904 0004 0400     		.2byte	0x4
 1905 0006 00000000 		.4byte	.Ldebug_abbrev0
 1906 000a 04       		.byte	0x4
 1907 000b 01       		.uleb128 0x1
 1908 000c 00020000 		.4byte	.LASF151
 1909 0010 0C       		.byte	0xc
 1910 0011 EF000000 		.4byte	.LASF152
 1911 0015 50060000 		.4byte	.LASF153
 1912 0019 30000000 		.4byte	.Ldebug_ranges0+0x30
 1913 001d 00000000 		.4byte	0
 1914 0021 00000000 		.4byte	.Ldebug_line0
 1915 0025 02       		.uleb128 0x2
 1916 0026 04       		.byte	0x4
 1917 0027 05       		.byte	0x5
 1918 0028 696E7400 		.ascii	"int\000"
 1919 002c 03       		.uleb128 0x3
 1920 002d 04       		.byte	0x4
 1921 002e 07       		.byte	0x7
 1922 002f 6F000000 		.4byte	.LASF0
 1923 0033 03       		.uleb128 0x3
 1924 0034 08       		.byte	0x8
ARM GAS  C:\Users\164\AppData\Local\Temp\ccySM5k9.s 			page 54


 1925 0035 05       		.byte	0x5
 1926 0036 24040000 		.4byte	.LASF1
 1927 003a 03       		.uleb128 0x3
 1928 003b 08       		.byte	0x8
 1929 003c 04       		.byte	0x4
 1930 003d F2040000 		.4byte	.LASF2
 1931 0041 04       		.uleb128 0x4
 1932 0042 BC040000 		.4byte	.LASF4
 1933 0046 04       		.byte	0x4
 1934 0047 1B       		.byte	0x1b
 1935 0048 4C000000 		.4byte	0x4c
 1936 004c 03       		.uleb128 0x3
 1937 004d 01       		.byte	0x1
 1938 004e 06       		.byte	0x6
 1939 004f C1060000 		.4byte	.LASF3
 1940 0053 04       		.uleb128 0x4
 1941 0054 AF050000 		.4byte	.LASF5
 1942 0058 04       		.byte	0x4
 1943 0059 1D       		.byte	0x1d
 1944 005a 5E000000 		.4byte	0x5e
 1945 005e 03       		.uleb128 0x3
 1946 005f 01       		.byte	0x1
 1947 0060 08       		.byte	0x8
 1948 0061 26060000 		.4byte	.LASF6
 1949 0065 04       		.uleb128 0x4
 1950 0066 7D040000 		.4byte	.LASF7
 1951 006a 04       		.byte	0x4
 1952 006b 29       		.byte	0x29
 1953 006c 70000000 		.4byte	0x70
 1954 0070 03       		.uleb128 0x3
 1955 0071 02       		.byte	0x2
 1956 0072 05       		.byte	0x5
 1957 0073 38050000 		.4byte	.LASF8
 1958 0077 04       		.uleb128 0x4
 1959 0078 B2010000 		.4byte	.LASF9
 1960 007c 04       		.byte	0x4
 1961 007d 2B       		.byte	0x2b
 1962 007e 82000000 		.4byte	0x82
 1963 0082 03       		.uleb128 0x3
 1964 0083 02       		.byte	0x2
 1965 0084 07       		.byte	0x7
 1966 0085 CD060000 		.4byte	.LASF10
 1967 0089 04       		.uleb128 0x4
 1968 008a 92000000 		.4byte	.LASF11
 1969 008e 04       		.byte	0x4
 1970 008f 3F       		.byte	0x3f
 1971 0090 94000000 		.4byte	0x94
 1972 0094 03       		.uleb128 0x3
 1973 0095 04       		.byte	0x4
 1974 0096 05       		.byte	0x5
 1975 0097 51050000 		.4byte	.LASF12
 1976 009b 03       		.uleb128 0x3
 1977 009c 04       		.byte	0x4
 1978 009d 07       		.byte	0x7
 1979 009e D9050000 		.4byte	.LASF13
 1980 00a2 03       		.uleb128 0x3
 1981 00a3 08       		.byte	0x8
ARM GAS  C:\Users\164\AppData\Local\Temp\ccySM5k9.s 			page 55


 1982 00a4 07       		.byte	0x7
 1983 00a5 80010000 		.4byte	.LASF14
 1984 00a9 03       		.uleb128 0x3
 1985 00aa 04       		.byte	0x4
 1986 00ab 07       		.byte	0x7
 1987 00ac D0050000 		.4byte	.LASF15
 1988 00b0 03       		.uleb128 0x3
 1989 00b1 01       		.byte	0x1
 1990 00b2 08       		.byte	0x8
 1991 00b3 77030000 		.4byte	.LASF16
 1992 00b7 05       		.uleb128 0x5
 1993 00b8 04       		.byte	0x4
 1994 00b9 BD000000 		.4byte	0xbd
 1995 00bd 06       		.uleb128 0x6
 1996 00be B0000000 		.4byte	0xb0
 1997 00c2 04       		.uleb128 0x4
 1998 00c3 29010000 		.4byte	.LASF17
 1999 00c7 05       		.byte	0x5
 2000 00c8 14       		.byte	0x14
 2001 00c9 41000000 		.4byte	0x41
 2002 00cd 04       		.uleb128 0x4
 2003 00ce E6030000 		.4byte	.LASF18
 2004 00d2 05       		.byte	0x5
 2005 00d3 18       		.byte	0x18
 2006 00d4 53000000 		.4byte	0x53
 2007 00d8 04       		.uleb128 0x4
 2008 00d9 6A010000 		.4byte	.LASF19
 2009 00dd 05       		.byte	0x5
 2010 00de 20       		.byte	0x20
 2011 00df 65000000 		.4byte	0x65
 2012 00e3 04       		.uleb128 0x4
 2013 00e4 FE040000 		.4byte	.LASF20
 2014 00e8 05       		.byte	0x5
 2015 00e9 24       		.byte	0x24
 2016 00ea 77000000 		.4byte	0x77
 2017 00ee 04       		.uleb128 0x4
 2018 00ef F5050000 		.4byte	.LASF21
 2019 00f3 05       		.byte	0x5
 2020 00f4 2C       		.byte	0x2c
 2021 00f5 89000000 		.4byte	0x89
 2022 00f9 04       		.uleb128 0x4
 2023 00fa 12050000 		.4byte	.LASF22
 2024 00fe 03       		.byte	0x3
 2025 00ff 1C       		.byte	0x1c
 2026 0100 D8000000 		.4byte	0xd8
 2027 0104 04       		.uleb128 0x4
 2028 0105 BE020000 		.4byte	.LASF23
 2029 0109 03       		.byte	0x3
 2030 010a 2C       		.byte	0x2c
 2031 010b 0F010000 		.4byte	0x10f
 2032 010f 05       		.uleb128 0x5
 2033 0110 04       		.byte	0x4
 2034 0111 15010000 		.4byte	0x115
 2035 0115 07       		.uleb128 0x7
 2036 0116 2A010000 		.4byte	0x12a
 2037 011a 08       		.uleb128 0x8
 2038 011b 2A010000 		.4byte	0x12a
ARM GAS  C:\Users\164\AppData\Local\Temp\ccySM5k9.s 			page 56


 2039 011f 08       		.uleb128 0x8
 2040 0120 DF010000 		.4byte	0x1df
 2041 0124 08       		.uleb128 0x8
 2042 0125 25000000 		.4byte	0x25
 2043 0129 00       		.byte	0
 2044 012a 05       		.uleb128 0x5
 2045 012b 04       		.byte	0x4
 2046 012c 30010000 		.4byte	0x130
 2047 0130 09       		.uleb128 0x9
 2048 0131 564D00   		.ascii	"VM\000"
 2049 0134 400E     		.2byte	0xe40
 2050 0136 06       		.byte	0x6
 2051 0137 40       		.byte	0x40
 2052 0138 DF010000 		.4byte	0x1df
 2053 013c 0A       		.uleb128 0xa
 2054 013d 9C000000 		.4byte	.LASF24
 2055 0141 06       		.byte	0x6
 2056 0142 41       		.byte	0x41
 2057 0143 DB050000 		.4byte	0x5db
 2058 0147 00       		.byte	0
 2059 0148 0A       		.uleb128 0xa
 2060 0149 BD010000 		.4byte	.LASF25
 2061 014d 06       		.byte	0x6
 2062 014e 43       		.byte	0x43
 2063 014f CD000000 		.4byte	0xcd
 2064 0153 04       		.byte	0x4
 2065 0154 0B       		.uleb128 0xb
 2066 0155 6D726200 		.ascii	"mrb\000"
 2067 0159 06       		.byte	0x6
 2068 015a 44       		.byte	0x44
 2069 015b F8050000 		.4byte	0x5f8
 2070 015f 08       		.byte	0x8
 2071 0160 0A       		.uleb128 0xa
 2072 0161 F8010000 		.4byte	.LASF26
 2073 0165 06       		.byte	0x6
 2074 0166 46       		.byte	0x46
 2075 0167 DB050000 		.4byte	0x5db
 2076 016b 0C       		.byte	0xc
 2077 016c 0B       		.uleb128 0xb
 2078 016d 706300   		.ascii	"pc\000"
 2079 0170 06       		.byte	0x6
 2080 0171 47       		.byte	0x47
 2081 0172 E3000000 		.4byte	0xe3
 2082 0176 10       		.byte	0x10
 2083 0177 0A       		.uleb128 0xa
 2084 0178 CE000000 		.4byte	.LASF27
 2085 017c 06       		.byte	0x6
 2086 017d 4A       		.byte	0x4a
 2087 017e 03060000 		.4byte	0x603
 2088 0182 18       		.byte	0x18
 2089 0183 0C       		.uleb128 0xc
 2090 0184 1C010000 		.4byte	.LASF28
 2091 0188 06       		.byte	0x6
 2092 0189 4B       		.byte	0x4b
 2093 018a E1050000 		.4byte	0x5e1
 2094 018e 5806     		.2byte	0x658
 2095 0190 0C       		.uleb128 0xc
ARM GAS  C:\Users\164\AppData\Local\Temp\ccySM5k9.s 			page 57


 2096 0191 FB030000 		.4byte	.LASF29
 2097 0195 06       		.byte	0x6
 2098 0196 4C       		.byte	0x4c
 2099 0197 E3000000 		.4byte	0xe3
 2100 019b 5C06     		.2byte	0x65c
 2101 019d 0C       		.uleb128 0xc
 2102 019e C3010000 		.4byte	.LASF30
 2103 01a2 06       		.byte	0x6
 2104 01a3 4D       		.byte	0x4d
 2105 01a4 13060000 		.4byte	0x613
 2106 01a8 6006     		.2byte	0x660
 2107 01aa 0C       		.uleb128 0xc
 2108 01ab EE030000 		.4byte	.LASF31
 2109 01af 06       		.byte	0x6
 2110 01b0 4F       		.byte	0x4f
 2111 01b1 E7050000 		.4byte	0x5e7
 2112 01b5 300E     		.2byte	0xe30
 2113 01b7 0C       		.uleb128 0xc
 2114 01b8 93060000 		.4byte	.LASF32
 2115 01bc 06       		.byte	0x6
 2116 01bd 51       		.byte	0x51
 2117 01be EE000000 		.4byte	0xee
 2118 01c2 340E     		.2byte	0xe34
 2119 01c4 0C       		.uleb128 0xc
 2120 01c5 A5060000 		.4byte	.LASF33
 2121 01c9 06       		.byte	0x6
 2122 01ca 53       		.byte	0x53
 2123 01cb 23060000 		.4byte	0x623
 2124 01cf 380E     		.2byte	0xe38
 2125 01d1 0C       		.uleb128 0xc
 2126 01d2 4F030000 		.4byte	.LASF34
 2127 01d6 06       		.byte	0x6
 2128 01d7 54       		.byte	0x54
 2129 01d8 C2000000 		.4byte	0xc2
 2130 01dc 390E     		.2byte	0xe39
 2131 01de 00       		.byte	0
 2132 01df 05       		.uleb128 0x5
 2133 01e0 04       		.byte	0x4
 2134 01e1 E5010000 		.4byte	0x1e5
 2135 01e5 0D       		.uleb128 0xd
 2136 01e6 5F050000 		.4byte	.LASF35
 2137 01ea 10       		.byte	0x10
 2138 01eb 03       		.byte	0x3
 2139 01ec 68       		.byte	0x68
 2140 01ed 06020000 		.4byte	0x206
 2141 01f1 0E       		.uleb128 0xe
 2142 01f2 747400   		.ascii	"tt\000"
 2143 01f5 03       		.byte	0x3
 2144 01f6 69       		.byte	0x69
 2145 01f7 6D020000 		.4byte	0x26d
 2146 01fb 01       		.byte	0x1
 2147 01fc 08       		.byte	0x8
 2148 01fd 00       		.byte	0
 2149 01fe 00       		.byte	0
 2150 01ff 0F       		.uleb128 0xf
 2151 0200 78020000 		.4byte	0x278
 2152 0204 08       		.byte	0x8
ARM GAS  C:\Users\164\AppData\Local\Temp\ccySM5k9.s 			page 58


 2153 0205 00       		.byte	0
 2154 0206 10       		.uleb128 0x10
 2155 0207 01       		.byte	0x1
 2156 0208 4C000000 		.4byte	0x4c
 2157 020c 03       		.byte	0x3
 2158 020d 33       		.byte	0x33
 2159 020e 6D020000 		.4byte	0x26d
 2160 0212 11       		.uleb128 0x11
 2161 0213 31070000 		.4byte	.LASF36
 2162 0217 7F       		.sleb128 -1
 2163 0218 12       		.uleb128 0x12
 2164 0219 8C040000 		.4byte	.LASF37
 2165 021d 00       		.byte	0
 2166 021e 12       		.uleb128 0x12
 2167 021f D3000000 		.4byte	.LASF38
 2168 0223 01       		.byte	0x1
 2169 0224 12       		.uleb128 0x12
 2170 0225 D7040000 		.4byte	.LASF39
 2171 0229 02       		.byte	0x2
 2172 022a 12       		.uleb128 0x12
 2173 022b C5040000 		.4byte	.LASF40
 2174 022f 03       		.byte	0x3
 2175 0230 12       		.uleb128 0x12
 2176 0231 72010000 		.4byte	.LASF41
 2177 0235 04       		.byte	0x4
 2178 0236 12       		.uleb128 0x12
 2179 0237 78070000 		.4byte	.LASF42
 2180 023b 05       		.byte	0x5
 2181 023c 12       		.uleb128 0x12
 2182 023d 0D000000 		.4byte	.LASF43
 2183 0241 06       		.byte	0x6
 2184 0242 12       		.uleb128 0x12
 2185 0243 2B050000 		.4byte	.LASF44
 2186 0247 07       		.byte	0x7
 2187 0248 12       		.uleb128 0x12
 2188 0249 E1010000 		.4byte	.LASF45
 2189 024d 14       		.byte	0x14
 2190 024e 12       		.uleb128 0x12
 2191 024f B5060000 		.4byte	.LASF46
 2192 0253 15       		.byte	0x15
 2193 0254 12       		.uleb128 0x12
 2194 0255 39030000 		.4byte	.LASF47
 2195 0259 16       		.byte	0x16
 2196 025a 12       		.uleb128 0x12
 2197 025b F8020000 		.4byte	.LASF48
 2198 025f 17       		.byte	0x17
 2199 0260 12       		.uleb128 0x12
 2200 0261 A9030000 		.4byte	.LASF49
 2201 0265 18       		.byte	0x18
 2202 0266 12       		.uleb128 0x12
 2203 0267 07060000 		.4byte	.LASF50
 2204 026b 19       		.byte	0x19
 2205 026c 00       		.byte	0
 2206 026d 04       		.uleb128 0x4
 2207 026e 88000000 		.4byte	.LASF51
 2208 0272 03       		.byte	0x3
 2209 0273 49       		.byte	0x49
ARM GAS  C:\Users\164\AppData\Local\Temp\ccySM5k9.s 			page 59


 2210 0274 06020000 		.4byte	0x206
 2211 0278 13       		.uleb128 0x13
 2212 0279 08       		.byte	0x8
 2213 027a 03       		.byte	0x3
 2214 027b 6A       		.byte	0x6a
 2215 027c F6020000 		.4byte	0x2f6
 2216 0280 14       		.uleb128 0x14
 2217 0281 6900     		.ascii	"i\000"
 2218 0283 03       		.byte	0x3
 2219 0284 6B       		.byte	0x6b
 2220 0285 EE000000 		.4byte	0xee
 2221 0289 14       		.uleb128 0x14
 2222 028a 6400     		.ascii	"d\000"
 2223 028c 03       		.byte	0x3
 2224 028d 6D       		.byte	0x6d
 2225 028e F6020000 		.4byte	0x2f6
 2226 0292 14       		.uleb128 0x14
 2227 0293 636C7300 		.ascii	"cls\000"
 2228 0297 03       		.byte	0x3
 2229 0298 6F       		.byte	0x6f
 2230 0299 2E030000 		.4byte	0x32e
 2231 029d 15       		.uleb128 0x15
 2232 029e E0060000 		.4byte	.LASF52
 2233 02a2 03       		.byte	0x3
 2234 02a3 70       		.byte	0x70
 2235 02a4 DF010000 		.4byte	0x1df
 2236 02a8 15       		.uleb128 0x15
 2237 02a9 EF010000 		.4byte	.LASF53
 2238 02ad 03       		.byte	0x3
 2239 02ae 71       		.byte	0x71
 2240 02af 7F030000 		.4byte	0x37f
 2241 02b3 15       		.uleb128 0x15
 2242 02b4 CB050000 		.4byte	.LASF54
 2243 02b8 03       		.byte	0x3
 2244 02b9 72       		.byte	0x72
 2245 02ba D9030000 		.4byte	0x3d9
 2246 02be 15       		.uleb128 0x15
 2247 02bf D1040000 		.4byte	.LASF55
 2248 02c3 03       		.byte	0x3
 2249 02c4 73       		.byte	0x73
 2250 02c5 2A040000 		.4byte	0x42a
 2251 02c9 15       		.uleb128 0x15
 2252 02ca A2030000 		.4byte	.LASF56
 2253 02ce 03       		.byte	0x3
 2254 02cf 74       		.byte	0x74
 2255 02d0 35040000 		.4byte	0x435
 2256 02d4 14       		.uleb128 0x14
 2257 02d5 73747200 		.ascii	"str\000"
 2258 02d9 03       		.byte	0x3
 2259 02da 75       		.byte	0x75
 2260 02db B7000000 		.4byte	0xb7
 2261 02df 15       		.uleb128 0x15
 2262 02e0 99040000 		.4byte	.LASF57
 2263 02e4 03       		.byte	0x3
 2264 02e5 76       		.byte	0x76
 2265 02e6 40040000 		.4byte	0x440
 2266 02ea 15       		.uleb128 0x15
ARM GAS  C:\Users\164\AppData\Local\Temp\ccySM5k9.s 			page 60


 2267 02eb 5A050000 		.4byte	.LASF58
 2268 02ef 03       		.byte	0x3
 2269 02f0 77       		.byte	0x77
 2270 02f1 91040000 		.4byte	0x491
 2271 02f5 00       		.byte	0
 2272 02f6 03       		.uleb128 0x3
 2273 02f7 08       		.byte	0x8
 2274 02f8 04       		.byte	0x4
 2275 02f9 2A070000 		.4byte	.LASF59
 2276 02fd 0D       		.uleb128 0xd
 2277 02fe 30010000 		.4byte	.LASF60
 2278 0302 0C       		.byte	0xc
 2279 0303 03       		.byte	0x3
 2280 0304 81       		.byte	0x81
 2281 0305 2E030000 		.4byte	0x32e
 2282 0309 0A       		.uleb128 0xa
 2283 030a 3B040000 		.4byte	.LASF61
 2284 030e 03       		.byte	0x3
 2285 030f 82       		.byte	0x82
 2286 0310 F9000000 		.4byte	0xf9
 2287 0314 00       		.byte	0
 2288 0315 0A       		.uleb128 0xa
 2289 0316 9C030000 		.4byte	.LASF62
 2290 031a 03       		.byte	0x3
 2291 031b 86       		.byte	0x86
 2292 031c 2E030000 		.4byte	0x32e
 2293 0320 04       		.byte	0x4
 2294 0321 0A       		.uleb128 0xa
 2295 0322 AF020000 		.4byte	.LASF63
 2296 0326 03       		.byte	0x3
 2297 0327 87       		.byte	0x87
 2298 0328 D9030000 		.4byte	0x3d9
 2299 032c 08       		.byte	0x8
 2300 032d 00       		.byte	0
 2301 032e 05       		.uleb128 0x5
 2302 032f 04       		.byte	0x4
 2303 0330 FD020000 		.4byte	0x2fd
 2304 0334 0D       		.uleb128 0xd
 2305 0335 9F040000 		.4byte	.LASF64
 2306 0339 0C       		.byte	0xc
 2307 033a 03       		.byte	0x3
 2308 033b 8F       		.byte	0x8f
 2309 033c 7F030000 		.4byte	0x37f
 2310 0340 0A       		.uleb128 0xa
 2311 0341 41000000 		.4byte	.LASF65
 2312 0345 03       		.byte	0x3
 2313 0346 90       		.byte	0x90
 2314 0347 E3000000 		.4byte	0xe3
 2315 034b 00       		.byte	0
 2316 034c 0E       		.uleb128 0xe
 2317 034d 747400   		.ascii	"tt\000"
 2318 0350 03       		.byte	0x3
 2319 0351 90       		.byte	0x90
 2320 0352 6D020000 		.4byte	0x26d
 2321 0356 01       		.byte	0x1
 2322 0357 08       		.byte	0x8
 2323 0358 00       		.byte	0
ARM GAS  C:\Users\164\AppData\Local\Temp\ccySM5k9.s 			page 61


 2324 0359 02       		.byte	0x2
 2325 035a 0B       		.uleb128 0xb
 2326 035b 636C7300 		.ascii	"cls\000"
 2327 035f 03       		.byte	0x3
 2328 0360 92       		.byte	0x92
 2329 0361 2E030000 		.4byte	0x32e
 2330 0365 04       		.byte	0x4
 2331 0366 0A       		.uleb128 0xa
 2332 0367 97030000 		.4byte	.LASF66
 2333 036b 03       		.byte	0x3
 2334 036c 93       		.byte	0x93
 2335 036d BD040000 		.4byte	0x4bd
 2336 0371 08       		.byte	0x8
 2337 0372 0A       		.uleb128 0xa
 2338 0373 B6030000 		.4byte	.LASF67
 2339 0377 03       		.byte	0x3
 2340 0378 94       		.byte	0x94
 2341 0379 C3040000 		.4byte	0x4c3
 2342 037d 0C       		.byte	0xc
 2343 037e 00       		.byte	0
 2344 037f 05       		.uleb128 0x5
 2345 0380 04       		.byte	0x4
 2346 0381 34030000 		.4byte	0x334
 2347 0385 0D       		.uleb128 0xd
 2348 0386 C3000000 		.4byte	.LASF68
 2349 038a 10       		.byte	0x10
 2350 038b 03       		.byte	0x3
 2351 038c 9C       		.byte	0x9c
 2352 038d D9030000 		.4byte	0x3d9
 2353 0391 0A       		.uleb128 0xa
 2354 0392 41000000 		.4byte	.LASF65
 2355 0396 03       		.byte	0x3
 2356 0397 9D       		.byte	0x9d
 2357 0398 E3000000 		.4byte	0xe3
 2358 039c 00       		.byte	0
 2359 039d 0E       		.uleb128 0xe
 2360 039e 747400   		.ascii	"tt\000"
 2361 03a1 03       		.byte	0x3
 2362 03a2 9D       		.byte	0x9d
 2363 03a3 6D020000 		.4byte	0x26d
 2364 03a7 01       		.byte	0x1
 2365 03a8 08       		.byte	0x8
 2366 03a9 00       		.byte	0
 2367 03aa 02       		.byte	0x2
 2368 03ab 16       		.uleb128 0x16
 2369 03ac 9E060000 		.4byte	.LASF69
 2370 03b0 03       		.byte	0x3
 2371 03b1 9F       		.byte	0x9f
 2372 03b2 2C000000 		.4byte	0x2c
 2373 03b6 04       		.byte	0x4
 2374 03b7 01       		.byte	0x1
 2375 03b8 07       		.byte	0x7
 2376 03b9 00       		.byte	0
 2377 03ba 0A       		.uleb128 0xa
 2378 03bb 3B040000 		.4byte	.LASF61
 2379 03bf 03       		.byte	0x3
 2380 03c0 A0       		.byte	0xa0
ARM GAS  C:\Users\164\AppData\Local\Temp\ccySM5k9.s 			page 62


 2381 03c1 F9000000 		.4byte	0xf9
 2382 03c5 04       		.byte	0x4
 2383 03c6 0A       		.uleb128 0xa
 2384 03c7 7C000000 		.4byte	.LASF70
 2385 03cb 03       		.byte	0x3
 2386 03cc A4       		.byte	0xa4
 2387 03cd D9030000 		.4byte	0x3d9
 2388 03d1 08       		.byte	0x8
 2389 03d2 0F       		.uleb128 0xf
 2390 03d3 D2040000 		.4byte	0x4d2
 2391 03d7 0C       		.byte	0xc
 2392 03d8 00       		.byte	0
 2393 03d9 05       		.uleb128 0x5
 2394 03da 04       		.byte	0x4
 2395 03db 85030000 		.4byte	0x385
 2396 03df 0D       		.uleb128 0xd
 2397 03e0 08070000 		.4byte	.LASF71
 2398 03e4 0C       		.byte	0xc
 2399 03e5 07       		.byte	0x7
 2400 03e6 1B       		.byte	0x1b
 2401 03e7 2A040000 		.4byte	0x42a
 2402 03eb 0A       		.uleb128 0xa
 2403 03ec 41000000 		.4byte	.LASF65
 2404 03f0 07       		.byte	0x7
 2405 03f1 1C       		.byte	0x1c
 2406 03f2 E3000000 		.4byte	0xe3
 2407 03f6 00       		.byte	0
 2408 03f7 0E       		.uleb128 0xe
 2409 03f8 747400   		.ascii	"tt\000"
 2410 03fb 07       		.byte	0x7
 2411 03fc 1C       		.byte	0x1c
 2412 03fd 6D020000 		.4byte	0x26d
 2413 0401 01       		.byte	0x1
 2414 0402 08       		.byte	0x8
 2415 0403 00       		.byte	0
 2416 0404 02       		.byte	0x2
 2417 0405 0A       		.uleb128 0xa
 2418 0406 9E020000 		.4byte	.LASF72
 2419 040a 07       		.byte	0x7
 2420 040b 1E       		.byte	0x1e
 2421 040c E3000000 		.4byte	0xe3
 2422 0410 04       		.byte	0x4
 2423 0411 0A       		.uleb128 0xa
 2424 0412 32040000 		.4byte	.LASF73
 2425 0416 07       		.byte	0x7
 2426 0417 1F       		.byte	0x1f
 2427 0418 E3000000 		.4byte	0xe3
 2428 041c 06       		.byte	0x6
 2429 041d 0A       		.uleb128 0xa
 2430 041e B6030000 		.4byte	.LASF67
 2431 0422 07       		.byte	0x7
 2432 0423 20       		.byte	0x20
 2433 0424 E1050000 		.4byte	0x5e1
 2434 0428 08       		.byte	0x8
 2435 0429 00       		.byte	0
 2436 042a 05       		.uleb128 0x5
 2437 042b 04       		.byte	0x4
ARM GAS  C:\Users\164\AppData\Local\Temp\ccySM5k9.s 			page 63


 2438 042c DF030000 		.4byte	0x3df
 2439 0430 17       		.uleb128 0x17
 2440 0431 C3050000 		.4byte	.LASF74
 2441 0435 05       		.uleb128 0x5
 2442 0436 04       		.byte	0x4
 2443 0437 30040000 		.4byte	0x430
 2444 043b 17       		.uleb128 0x17
 2445 043c 60070000 		.4byte	.LASF75
 2446 0440 05       		.uleb128 0x5
 2447 0441 04       		.byte	0x4
 2448 0442 3B040000 		.4byte	0x43b
 2449 0446 0D       		.uleb128 0xd
 2450 0447 2A000000 		.4byte	.LASF76
 2451 044b 0C       		.byte	0xc
 2452 044c 02       		.byte	0x2
 2453 044d 1C       		.byte	0x1c
 2454 044e 91040000 		.4byte	0x491
 2455 0452 0A       		.uleb128 0xa
 2456 0453 41000000 		.4byte	.LASF65
 2457 0457 02       		.byte	0x2
 2458 0458 1F       		.byte	0x1f
 2459 0459 E3000000 		.4byte	0xe3
 2460 045d 00       		.byte	0
 2461 045e 0E       		.uleb128 0xe
 2462 045f 747400   		.ascii	"tt\000"
 2463 0462 02       		.byte	0x2
 2464 0463 1F       		.byte	0x1f
 2465 0464 6D020000 		.4byte	0x26d
 2466 0468 01       		.byte	0x1
 2467 0469 08       		.byte	0x8
 2468 046a 00       		.byte	0
 2469 046b 02       		.byte	0x2
 2470 046c 0A       		.uleb128 0xa
 2471 046d 9E020000 		.4byte	.LASF72
 2472 0471 02       		.byte	0x2
 2473 0472 21       		.byte	0x21
 2474 0473 E3000000 		.4byte	0xe3
 2475 0477 04       		.byte	0x4
 2476 0478 0A       		.uleb128 0xa
 2477 0479 32040000 		.4byte	.LASF73
 2478 047d 02       		.byte	0x2
 2479 047e 22       		.byte	0x22
 2480 047f E3000000 		.4byte	0xe3
 2481 0483 06       		.byte	0x6
 2482 0484 0A       		.uleb128 0xa
 2483 0485 B6030000 		.4byte	.LASF67
 2484 0489 02       		.byte	0x2
 2485 048a 23       		.byte	0x23
 2486 048b E1050000 		.4byte	0x5e1
 2487 048f 08       		.byte	0x8
 2488 0490 00       		.byte	0
 2489 0491 05       		.uleb128 0x5
 2490 0492 04       		.byte	0x4
 2491 0493 46040000 		.4byte	0x446
 2492 0497 04       		.uleb128 0x4
 2493 0498 A7010000 		.4byte	.LASF77
 2494 049c 03       		.byte	0x3
ARM GAS  C:\Users\164\AppData\Local\Temp\ccySM5k9.s 			page 64


 2495 049d 79       		.byte	0x79
 2496 049e E5010000 		.4byte	0x1e5
 2497 04a2 04       		.uleb128 0x4
 2498 04a3 8E020000 		.4byte	.LASF78
 2499 04a7 03       		.byte	0x3
 2500 04a8 7A       		.byte	0x7a
 2501 04a9 E5010000 		.4byte	0x1e5
 2502 04ad 04       		.uleb128 0x4
 2503 04ae EB050000 		.4byte	.LASF79
 2504 04b2 03       		.byte	0x3
 2505 04b3 88       		.byte	0x88
 2506 04b4 FD020000 		.4byte	0x2fd
 2507 04b8 17       		.uleb128 0x17
 2508 04b9 A7000000 		.4byte	.LASF80
 2509 04bd 05       		.uleb128 0x5
 2510 04be 04       		.byte	0x4
 2511 04bf B8040000 		.4byte	0x4b8
 2512 04c3 18       		.uleb128 0x18
 2513 04c4 CD000000 		.4byte	0xcd
 2514 04c8 D2040000 		.4byte	0x4d2
 2515 04cc 19       		.uleb128 0x19
 2516 04cd A9000000 		.4byte	0xa9
 2517 04d1 00       		.byte	0
 2518 04d2 13       		.uleb128 0x13
 2519 04d3 04       		.byte	0x4
 2520 04d4 03       		.byte	0x3
 2521 04d5 A5       		.byte	0xa5
 2522 04d6 F1040000 		.4byte	0x4f1
 2523 04da 15       		.uleb128 0x15
 2524 04db 9C000000 		.4byte	.LASF24
 2525 04df 03       		.byte	0x3
 2526 04e0 A6       		.byte	0xa6
 2527 04e1 6A050000 		.4byte	0x56a
 2528 04e5 15       		.uleb128 0x15
 2529 04e6 C9000000 		.4byte	.LASF81
 2530 04ea 03       		.byte	0x3
 2531 04eb A7       		.byte	0xa7
 2532 04ec 04010000 		.4byte	0x104
 2533 04f0 00       		.byte	0
 2534 04f1 0D       		.uleb128 0xd
 2535 04f2 02060000 		.4byte	.LASF82
 2536 04f6 1C       		.byte	0x1c
 2537 04f7 06       		.byte	0x6
 2538 04f8 20       		.byte	0x20
 2539 04f9 6A050000 		.4byte	0x56a
 2540 04fd 0A       		.uleb128 0xa
 2541 04fe CC010000 		.4byte	.LASF83
 2542 0502 06       		.byte	0x6
 2543 0503 21       		.byte	0x21
 2544 0504 E3000000 		.4byte	0xe3
 2545 0508 00       		.byte	0
 2546 0509 0A       		.uleb128 0xa
 2547 050a 98020000 		.4byte	.LASF84
 2548 050e 06       		.byte	0x6
 2549 050f 22       		.byte	0x22
 2550 0510 E3000000 		.4byte	0xe3
 2551 0514 02       		.byte	0x2
ARM GAS  C:\Users\164\AppData\Local\Temp\ccySM5k9.s 			page 65


 2552 0515 0A       		.uleb128 0xa
 2553 0516 FD050000 		.4byte	.LASF85
 2554 051a 06       		.byte	0x6
 2555 051b 23       		.byte	0x23
 2556 051c E3000000 		.4byte	0xe3
 2557 0520 04       		.byte	0x4
 2558 0521 0A       		.uleb128 0xa
 2559 0522 90050000 		.4byte	.LASF86
 2560 0526 06       		.byte	0x6
 2561 0527 24       		.byte	0x24
 2562 0528 E3000000 		.4byte	0xe3
 2563 052c 06       		.byte	0x6
 2564 052d 0A       		.uleb128 0xa
 2565 052e BE050000 		.4byte	.LASF87
 2566 0532 06       		.byte	0x6
 2567 0533 25       		.byte	0x25
 2568 0534 E3000000 		.4byte	0xe3
 2569 0538 08       		.byte	0x8
 2570 0539 0A       		.uleb128 0xa
 2571 053a 06030000 		.4byte	.LASF88
 2572 053e 06       		.byte	0x6
 2573 053f 27       		.byte	0x27
 2574 0540 70050000 		.4byte	0x570
 2575 0544 0C       		.byte	0xc
 2576 0545 0A       		.uleb128 0xa
 2577 0546 16010000 		.4byte	.LASF89
 2578 054a 06       		.byte	0x6
 2579 054b 28       		.byte	0x28
 2580 054c 76050000 		.4byte	0x576
 2581 0550 10       		.byte	0x10
 2582 0551 0A       		.uleb128 0xa
 2583 0552 6C030000 		.4byte	.LASF90
 2584 0556 06       		.byte	0x6
 2585 0557 29       		.byte	0x29
 2586 0558 70050000 		.4byte	0x570
 2587 055c 14       		.byte	0x14
 2588 055d 0A       		.uleb128 0xa
 2589 055e B9050000 		.4byte	.LASF91
 2590 0562 06       		.byte	0x6
 2591 0563 2A       		.byte	0x2a
 2592 0564 82050000 		.4byte	0x582
 2593 0568 18       		.byte	0x18
 2594 0569 00       		.byte	0
 2595 056a 05       		.uleb128 0x5
 2596 056b 04       		.byte	0x4
 2597 056c F1040000 		.4byte	0x4f1
 2598 0570 05       		.uleb128 0x5
 2599 0571 04       		.byte	0x4
 2600 0572 CD000000 		.4byte	0xcd
 2601 0576 05       		.uleb128 0x5
 2602 0577 04       		.byte	0x4
 2603 0578 7C050000 		.4byte	0x57c
 2604 057c 05       		.uleb128 0x5
 2605 057d 04       		.byte	0x4
 2606 057e 97040000 		.4byte	0x497
 2607 0582 05       		.uleb128 0x5
 2608 0583 04       		.byte	0x4
ARM GAS  C:\Users\164\AppData\Local\Temp\ccySM5k9.s 			page 66


 2609 0584 6A050000 		.4byte	0x56a
 2610 0588 04       		.uleb128 0x4
 2611 0589 46030000 		.4byte	.LASF92
 2612 058d 06       		.byte	0x6
 2613 058e 2C       		.byte	0x2c
 2614 058f F1040000 		.4byte	0x4f1
 2615 0593 0D       		.uleb128 0xd
 2616 0594 B5020000 		.4byte	.LASF93
 2617 0598 14       		.byte	0x14
 2618 0599 06       		.byte	0x6
 2619 059a 33       		.byte	0x33
 2620 059b DB050000 		.4byte	0x5db
 2621 059f 0A       		.uleb128 0xa
 2622 05a0 F8010000 		.4byte	.LASF26
 2623 05a4 06       		.byte	0x6
 2624 05a5 34       		.byte	0x34
 2625 05a6 DB050000 		.4byte	0x5db
 2626 05aa 00       		.byte	0
 2627 05ab 0B       		.uleb128 0xb
 2628 05ac 706300   		.ascii	"pc\000"
 2629 05af 06       		.byte	0x6
 2630 05b0 35       		.byte	0x35
 2631 05b1 E3000000 		.4byte	0xe3
 2632 05b5 04       		.byte	0x4
 2633 05b6 0A       		.uleb128 0xa
 2634 05b7 1C010000 		.4byte	.LASF28
 2635 05bb 06       		.byte	0x6
 2636 05bc 36       		.byte	0x36
 2637 05bd E1050000 		.4byte	0x5e1
 2638 05c1 08       		.byte	0x8
 2639 05c2 0A       		.uleb128 0xa
 2640 05c3 EE030000 		.4byte	.LASF31
 2641 05c7 06       		.byte	0x6
 2642 05c8 37       		.byte	0x37
 2643 05c9 E7050000 		.4byte	0x5e7
 2644 05cd 0C       		.byte	0xc
 2645 05ce 0A       		.uleb128 0xa
 2646 05cf 81000000 		.4byte	.LASF94
 2647 05d3 06       		.byte	0x6
 2648 05d4 38       		.byte	0x38
 2649 05d5 CD000000 		.4byte	0xcd
 2650 05d9 10       		.byte	0x10
 2651 05da 00       		.byte	0
 2652 05db 05       		.uleb128 0x5
 2653 05dc 04       		.byte	0x4
 2654 05dd 88050000 		.4byte	0x588
 2655 05e1 05       		.uleb128 0x5
 2656 05e2 04       		.byte	0x4
 2657 05e3 A2040000 		.4byte	0x4a2
 2658 05e7 05       		.uleb128 0x5
 2659 05e8 04       		.byte	0x4
 2660 05e9 AD040000 		.4byte	0x4ad
 2661 05ed 04       		.uleb128 0x4
 2662 05ee EE060000 		.4byte	.LASF95
 2663 05f2 06       		.byte	0x6
 2664 05f3 39       		.byte	0x39
 2665 05f4 93050000 		.4byte	0x593
ARM GAS  C:\Users\164\AppData\Local\Temp\ccySM5k9.s 			page 67


 2666 05f8 05       		.uleb128 0x5
 2667 05f9 04       		.byte	0x4
 2668 05fa FE050000 		.4byte	0x5fe
 2669 05fe 06       		.uleb128 0x6
 2670 05ff CD000000 		.4byte	0xcd
 2671 0603 18       		.uleb128 0x18
 2672 0604 A2040000 		.4byte	0x4a2
 2673 0608 13060000 		.4byte	0x613
 2674 060c 1A       		.uleb128 0x1a
 2675 060d A9000000 		.4byte	0xa9
 2676 0611 63       		.byte	0x63
 2677 0612 00       		.byte	0
 2678 0613 18       		.uleb128 0x18
 2679 0614 ED050000 		.4byte	0x5ed
 2680 0618 23060000 		.4byte	0x623
 2681 061c 1A       		.uleb128 0x1a
 2682 061d A9000000 		.4byte	0xa9
 2683 0621 63       		.byte	0x63
 2684 0622 00       		.byte	0
 2685 0623 1B       		.uleb128 0x1b
 2686 0624 C2000000 		.4byte	0xc2
 2687 0628 04       		.uleb128 0x4
 2688 0629 34060000 		.4byte	.LASF96
 2689 062d 06       		.byte	0x6
 2690 062e 55       		.byte	0x55
 2691 062f 30010000 		.4byte	0x130
 2692 0633 04       		.uleb128 0x4
 2693 0634 51070000 		.4byte	.LASF97
 2694 0638 02       		.byte	0x2
 2695 0639 27       		.byte	0x27
 2696 063a 46040000 		.4byte	0x446
 2697 063e 0D       		.uleb128 0xd
 2698 063f 62040000 		.4byte	.LASF98
 2699 0643 0C       		.byte	0xc
 2700 0644 02       		.byte	0x2
 2701 0645 2E       		.byte	0x2e
 2702 0646 6F060000 		.4byte	0x66f
 2703 064a 0A       		.uleb128 0xa
 2704 064b A8020000 		.4byte	.LASF99
 2705 064f 02       		.byte	0x2
 2706 0650 2F       		.byte	0x2f
 2707 0651 6F060000 		.4byte	0x66f
 2708 0655 00       		.byte	0
 2709 0656 0A       		.uleb128 0xa
 2710 0657 24070000 		.4byte	.LASF100
 2711 065b 02       		.byte	0x2
 2712 065c 30       		.byte	0x30
 2713 065d E1050000 		.4byte	0x5e1
 2714 0661 04       		.byte	0x4
 2715 0662 0A       		.uleb128 0xa
 2716 0663 A1000000 		.4byte	.LASF101
 2717 0667 02       		.byte	0x2
 2718 0668 31       		.byte	0x31
 2719 0669 E1050000 		.4byte	0x5e1
 2720 066d 08       		.byte	0x8
 2721 066e 00       		.byte	0
 2722 066f 05       		.uleb128 0x5
ARM GAS  C:\Users\164\AppData\Local\Temp\ccySM5k9.s 			page 68


 2723 0670 04       		.byte	0x4
 2724 0671 33060000 		.4byte	0x633
 2725 0675 04       		.uleb128 0x4
 2726 0676 7E050000 		.4byte	.LASF102
 2727 067a 02       		.byte	0x2
 2728 067b 32       		.byte	0x32
 2729 067c 3E060000 		.4byte	0x63e
 2730 0680 1C       		.uleb128 0x1c
 2731 0681 13060000 		.4byte	.LASF103
 2732 0685 02       		.byte	0x2
 2733 0686 5B       		.byte	0x5b
 2734 0687 75060000 		.4byte	0x675
 2735 068b 03       		.byte	0x3
 2736 068c A5060000 		.4byte	0x6a5
 2737 0690 1D       		.uleb128 0x1d
 2738 0691 7600     		.ascii	"v\000"
 2739 0693 02       		.byte	0x2
 2740 0694 5B       		.byte	0x5b
 2741 0695 E1050000 		.4byte	0x5e1
 2742 0699 1E       		.uleb128 0x1e
 2743 069a 69746500 		.ascii	"ite\000"
 2744 069e 02       		.byte	0x2
 2745 069f 5D       		.byte	0x5d
 2746 06a0 75060000 		.4byte	0x675
 2747 06a4 00       		.byte	0
 2748 06a5 1C       		.uleb128 0x1c
 2749 06a6 42050000 		.4byte	.LASF104
 2750 06aa 02       		.byte	0x2
 2751 06ab 44       		.byte	0x44
 2752 06ac 25000000 		.4byte	0x25
 2753 06b0 03       		.byte	0x3
 2754 06b1 C1060000 		.4byte	0x6c1
 2755 06b5 1F       		.uleb128 0x1f
 2756 06b6 5A050000 		.4byte	.LASF58
 2757 06ba 02       		.byte	0x2
 2758 06bb 44       		.byte	0x44
 2759 06bc C1060000 		.4byte	0x6c1
 2760 06c0 00       		.byte	0
 2761 06c1 05       		.uleb128 0x5
 2762 06c2 04       		.byte	0x4
 2763 06c3 C7060000 		.4byte	0x6c7
 2764 06c7 06       		.uleb128 0x6
 2765 06c8 A2040000 		.4byte	0x4a2
 2766 06cc 1C       		.uleb128 0x1c
 2767 06cd 08040000 		.4byte	.LASF105
 2768 06d1 02       		.byte	0x2
 2769 06d2 70       		.byte	0x70
 2770 06d3 E1050000 		.4byte	0x5e1
 2771 06d7 03       		.byte	0x3
 2772 06d8 F3060000 		.4byte	0x6f3
 2773 06dc 1D       		.uleb128 0x1d
 2774 06dd 69746500 		.ascii	"ite\000"
 2775 06e1 02       		.byte	0x2
 2776 06e2 70       		.byte	0x70
 2777 06e3 F3060000 		.4byte	0x6f3
 2778 06e7 1E       		.uleb128 0x1e
 2779 06e8 72657400 		.ascii	"ret\000"
ARM GAS  C:\Users\164\AppData\Local\Temp\ccySM5k9.s 			page 69


 2780 06ec 02       		.byte	0x2
 2781 06ed 72       		.byte	0x72
 2782 06ee E1050000 		.4byte	0x5e1
 2783 06f2 00       		.byte	0
 2784 06f3 05       		.uleb128 0x5
 2785 06f4 04       		.byte	0x4
 2786 06f5 75060000 		.4byte	0x675
 2787 06f9 1C       		.uleb128 0x1c
 2788 06fa D7020000 		.4byte	.LASF106
 2789 06fe 02       		.byte	0x2
 2790 06ff 68       		.byte	0x68
 2791 0700 25000000 		.4byte	0x25
 2792 0704 03       		.byte	0x3
 2793 0705 15070000 		.4byte	0x715
 2794 0709 1D       		.uleb128 0x1d
 2795 070a 69746500 		.ascii	"ite\000"
 2796 070e 02       		.byte	0x2
 2797 070f 68       		.byte	0x68
 2798 0710 F3060000 		.4byte	0x6f3
 2799 0714 00       		.byte	0
 2800 0715 1C       		.uleb128 0x1c
 2801 0716 E4040000 		.4byte	.LASF107
 2802 071a 03       		.byte	0x3
 2803 071b F5       		.byte	0xf5
 2804 071c A2040000 		.4byte	0x4a2
 2805 0720 03       		.byte	0x3
 2806 0721 31070000 		.4byte	0x731
 2807 0725 20       		.uleb128 0x20
 2808 0726 5A070000 		.4byte	.LASF108
 2809 072a 03       		.byte	0x3
 2810 072b F7       		.byte	0xf7
 2811 072c A2040000 		.4byte	0x4a2
 2812 0730 00       		.byte	0
 2813 0731 21       		.uleb128 0x21
 2814 0732 BB030000 		.4byte	.LASF110
 2815 0736 01       		.byte	0x1
 2816 0737 E901     		.2byte	0x1e9
 2817 0739 00000000 		.4byte	.LFB37
 2818 073d 62000000 		.4byte	.LFE37-.LFB37
 2819 0741 01       		.uleb128 0x1
 2820 0742 9C       		.byte	0x9c
 2821 0743 A1080000 		.4byte	0x8a1
 2822 0747 22       		.uleb128 0x22
 2823 0748 766D00   		.ascii	"vm\000"
 2824 074b 01       		.byte	0x1
 2825 074c E901     		.2byte	0x1e9
 2826 074e A1080000 		.4byte	0x8a1
 2827 0752 00000000 		.4byte	.LLST0
 2828 0756 22       		.uleb128 0x22
 2829 0757 7600     		.ascii	"v\000"
 2830 0759 01       		.byte	0x1
 2831 075a E901     		.2byte	0x1e9
 2832 075c E1050000 		.4byte	0x5e1
 2833 0760 2C000000 		.4byte	.LLST1
 2834 0764 23       		.uleb128 0x23
 2835 0765 B7040000 		.4byte	.LASF109
 2836 0769 01       		.byte	0x1
ARM GAS  C:\Users\164\AppData\Local\Temp\ccySM5k9.s 			page 70


 2837 076a E901     		.2byte	0x1e9
 2838 076c 25000000 		.4byte	0x25
 2839 0770 4A000000 		.4byte	.LLST2
 2840 0774 24       		.uleb128 0x24
 2841 0775 72657400 		.ascii	"ret\000"
 2842 0779 01       		.byte	0x1
 2843 077a EB01     		.2byte	0x1eb
 2844 077c A2040000 		.4byte	0x4a2
 2845 0780 02       		.uleb128 0x2
 2846 0781 91       		.byte	0x91
 2847 0782 60       		.sleb128 -32
 2848 0783 24       		.uleb128 0x24
 2849 0784 69746500 		.ascii	"ite\000"
 2850 0788 01       		.byte	0x1
 2851 0789 EC01     		.2byte	0x1ec
 2852 078b 75060000 		.4byte	0x675
 2853 078f 02       		.uleb128 0x2
 2854 0790 91       		.byte	0x91
 2855 0791 54       		.sleb128 -44
 2856 0792 25       		.uleb128 0x25
 2857 0793 A5060000 		.4byte	0x6a5
 2858 0797 06000000 		.4byte	.LBB61
 2859 079b 04000000 		.4byte	.LBE61-.LBB61
 2860 079f 01       		.byte	0x1
 2861 07a0 EB01     		.2byte	0x1eb
 2862 07a2 B0070000 		.4byte	0x7b0
 2863 07a6 26       		.uleb128 0x26
 2864 07a7 B5060000 		.4byte	0x6b5
 2865 07ab 6B000000 		.4byte	.LLST3
 2866 07af 00       		.byte	0
 2867 07b0 25       		.uleb128 0x25
 2868 07b1 80060000 		.4byte	0x680
 2869 07b5 14000000 		.4byte	.LBB63
 2870 07b9 1C000000 		.4byte	.LBE63-.LBB63
 2871 07bd 01       		.byte	0x1
 2872 07be EC01     		.2byte	0x1ec
 2873 07c0 DE070000 		.4byte	0x7de
 2874 07c4 27       		.uleb128 0x27
 2875 07c5 90060000 		.4byte	0x690
 2876 07c9 01       		.uleb128 0x1
 2877 07ca 56       		.byte	0x56
 2878 07cb 28       		.uleb128 0x28
 2879 07cc 14000000 		.4byte	.LBB64
 2880 07d0 1C000000 		.4byte	.LBE64-.LBB64
 2881 07d4 29       		.uleb128 0x29
 2882 07d5 99060000 		.4byte	0x699
 2883 07d9 02       		.uleb128 0x2
 2884 07da 91       		.byte	0x91
 2885 07db 48       		.sleb128 -56
 2886 07dc 00       		.byte	0
 2887 07dd 00       		.byte	0
 2888 07de 2A       		.uleb128 0x2a
 2889 07df 30000000 		.4byte	.LBB65
 2890 07e3 18000000 		.4byte	.LBE65-.LBB65
 2891 07e7 57080000 		.4byte	0x857
 2892 07eb 2B       		.uleb128 0x2b
 2893 07ec 76616C00 		.ascii	"val\000"
ARM GAS  C:\Users\164\AppData\Local\Temp\ccySM5k9.s 			page 71


 2894 07f0 01       		.byte	0x1
 2895 07f1 EF01     		.2byte	0x1ef
 2896 07f3 E1050000 		.4byte	0x5e1
 2897 07f7 7E000000 		.4byte	.LLST4
 2898 07fb 25       		.uleb128 0x25
 2899 07fc CC060000 		.4byte	0x6cc
 2900 0800 30000000 		.4byte	.LBB66
 2901 0804 06000000 		.4byte	.LBE66-.LBB66
 2902 0808 01       		.byte	0x1
 2903 0809 EF01     		.2byte	0x1ef
 2904 080b 2C080000 		.4byte	0x82c
 2905 080f 26       		.uleb128 0x26
 2906 0810 DC060000 		.4byte	0x6dc
 2907 0814 91000000 		.4byte	.LLST5
 2908 0818 28       		.uleb128 0x28
 2909 0819 30000000 		.4byte	.LBB67
 2910 081d 06000000 		.4byte	.LBE67-.LBB67
 2911 0821 2C       		.uleb128 0x2c
 2912 0822 E7060000 		.4byte	0x6e7
 2913 0826 A6000000 		.4byte	.LLST6
 2914 082a 00       		.byte	0
 2915 082b 00       		.byte	0
 2916 082c 2D       		.uleb128 0x2d
 2917 082d 42000000 		.4byte	.LVL9
 2918 0831 C31B0000 		.4byte	0x1bc3
 2919 0835 46080000 		.4byte	0x846
 2920 0839 2E       		.uleb128 0x2e
 2921 083a 01       		.uleb128 0x1
 2922 083b 50       		.byte	0x50
 2923 083c 02       		.uleb128 0x2
 2924 083d 91       		.byte	0x91
 2925 083e 60       		.sleb128 -32
 2926 083f 2E       		.uleb128 0x2e
 2927 0840 01       		.uleb128 0x1
 2928 0841 51       		.byte	0x51
 2929 0842 02       		.uleb128 0x2
 2930 0843 74       		.byte	0x74
 2931 0844 00       		.sleb128 0
 2932 0845 00       		.byte	0
 2933 0846 2F       		.uleb128 0x2f
 2934 0847 48000000 		.4byte	.LVL10
 2935 084b CE1B0000 		.4byte	0x1bce
 2936 084f 2E       		.uleb128 0x2e
 2937 0850 01       		.uleb128 0x1
 2938 0851 50       		.byte	0x50
 2939 0852 02       		.uleb128 0x2
 2940 0853 74       		.byte	0x74
 2941 0854 00       		.sleb128 0
 2942 0855 00       		.byte	0
 2943 0856 00       		.byte	0
 2944 0857 25       		.uleb128 0x25
 2945 0858 F9060000 		.4byte	0x6f9
 2946 085c 48000000 		.4byte	.LBB68
 2947 0860 02000000 		.4byte	.LBE68-.LBB68
 2948 0864 01       		.byte	0x1
 2949 0865 EE01     		.2byte	0x1ee
 2950 0867 75080000 		.4byte	0x875
ARM GAS  C:\Users\164\AppData\Local\Temp\ccySM5k9.s 			page 72


 2951 086b 26       		.uleb128 0x26
 2952 086c 09070000 		.4byte	0x709
 2953 0870 B9000000 		.4byte	.LLST7
 2954 0874 00       		.byte	0
 2955 0875 2D       		.uleb128 0x2d
 2956 0876 14000000 		.4byte	.LVL5
 2957 087a D91B0000 		.4byte	0x1bd9
 2958 087e 90080000 		.4byte	0x890
 2959 0882 2E       		.uleb128 0x2e
 2960 0883 01       		.uleb128 0x1
 2961 0884 50       		.byte	0x50
 2962 0885 02       		.uleb128 0x2
 2963 0886 91       		.byte	0x91
 2964 0887 60       		.sleb128 -32
 2965 0888 2E       		.uleb128 0x2e
 2966 0889 01       		.uleb128 0x1
 2967 088a 51       		.byte	0x51
 2968 088b 03       		.uleb128 0x3
 2969 088c F3       		.byte	0xf3
 2970 088d 01       		.uleb128 0x1
 2971 088e 50       		.byte	0x50
 2972 088f 00       		.byte	0
 2973 0890 2F       		.uleb128 0x2f
 2974 0891 54000000 		.4byte	.LVL12
 2975 0895 E41B0000 		.4byte	0x1be4
 2976 0899 2E       		.uleb128 0x2e
 2977 089a 01       		.uleb128 0x1
 2978 089b 50       		.byte	0x50
 2979 089c 02       		.uleb128 0x2
 2980 089d 76       		.byte	0x76
 2981 089e 00       		.sleb128 0
 2982 089f 00       		.byte	0
 2983 08a0 00       		.byte	0
 2984 08a1 05       		.uleb128 0x5
 2985 08a2 04       		.byte	0x4
 2986 08a3 28060000 		.4byte	0x628
 2987 08a7 21       		.uleb128 0x21
 2988 08a8 EC020000 		.4byte	.LASF111
 2989 08ac 01       		.byte	0x1
 2990 08ad BB01     		.2byte	0x1bb
 2991 08af 00000000 		.4byte	.LFB34
 2992 08b3 18000000 		.4byte	.LFE34-.LFB34
 2993 08b7 01       		.uleb128 0x1
 2994 08b8 9C       		.byte	0x9c
 2995 08b9 23090000 		.4byte	0x923
 2996 08bd 22       		.uleb128 0x22
 2997 08be 766D00   		.ascii	"vm\000"
 2998 08c1 01       		.byte	0x1
 2999 08c2 BB01     		.2byte	0x1bb
 3000 08c4 A1080000 		.4byte	0x8a1
 3001 08c8 CE000000 		.4byte	.LLST8
 3002 08cc 22       		.uleb128 0x22
 3003 08cd 7600     		.ascii	"v\000"
 3004 08cf 01       		.byte	0x1
 3005 08d0 BB01     		.2byte	0x1bb
 3006 08d2 E1050000 		.4byte	0x5e1
 3007 08d6 EF000000 		.4byte	.LLST9
ARM GAS  C:\Users\164\AppData\Local\Temp\ccySM5k9.s 			page 73


 3008 08da 23       		.uleb128 0x23
 3009 08db B7040000 		.4byte	.LASF109
 3010 08df 01       		.byte	0x1
 3011 08e0 BB01     		.2byte	0x1bb
 3012 08e2 25000000 		.4byte	0x25
 3013 08e6 0D010000 		.4byte	.LLST10
 3014 08ea 30       		.uleb128 0x30
 3015 08eb 6E00     		.ascii	"n\000"
 3016 08ed 01       		.byte	0x1
 3017 08ee BD01     		.2byte	0x1bd
 3018 08f0 25000000 		.4byte	0x25
 3019 08f4 25       		.uleb128 0x25
 3020 08f5 A5060000 		.4byte	0x6a5
 3021 08f9 04000000 		.4byte	.LBB70
 3022 08fd 06000000 		.4byte	.LBE70-.LBB70
 3023 0901 01       		.byte	0x1
 3024 0902 BD01     		.2byte	0x1bd
 3025 0904 12090000 		.4byte	0x912
 3026 0908 26       		.uleb128 0x26
 3027 0909 B5060000 		.4byte	0x6b5
 3028 090d 2E010000 		.4byte	.LLST11
 3029 0911 00       		.byte	0
 3030 0912 2F       		.uleb128 0x2f
 3031 0913 10000000 		.4byte	.LVL17
 3032 0917 E41B0000 		.4byte	0x1be4
 3033 091b 2E       		.uleb128 0x2e
 3034 091c 01       		.uleb128 0x1
 3035 091d 50       		.byte	0x50
 3036 091e 02       		.uleb128 0x2
 3037 091f 74       		.byte	0x74
 3038 0920 00       		.sleb128 0
 3039 0921 00       		.byte	0
 3040 0922 00       		.byte	0
 3041 0923 21       		.uleb128 0x21
 3042 0924 B7000000 		.4byte	.LASF112
 3043 0928 01       		.byte	0x1
 3044 0929 A901     		.2byte	0x1a9
 3045 092b 00000000 		.4byte	.LFB33
 3046 092f 5E000000 		.4byte	.LFE33-.LFB33
 3047 0933 01       		.uleb128 0x1
 3048 0934 9C       		.byte	0x9c
 3049 0935 8F0A0000 		.4byte	0xa8f
 3050 0939 22       		.uleb128 0x22
 3051 093a 766D00   		.ascii	"vm\000"
 3052 093d 01       		.byte	0x1
 3053 093e A901     		.2byte	0x1a9
 3054 0940 A1080000 		.4byte	0x8a1
 3055 0944 41010000 		.4byte	.LLST12
 3056 0948 22       		.uleb128 0x22
 3057 0949 7600     		.ascii	"v\000"
 3058 094b 01       		.byte	0x1
 3059 094c A901     		.2byte	0x1a9
 3060 094e E1050000 		.4byte	0x5e1
 3061 0952 6D010000 		.4byte	.LLST13
 3062 0956 23       		.uleb128 0x23
 3063 0957 B7040000 		.4byte	.LASF109
 3064 095b 01       		.byte	0x1
ARM GAS  C:\Users\164\AppData\Local\Temp\ccySM5k9.s 			page 74


 3065 095c A901     		.2byte	0x1a9
 3066 095e 25000000 		.4byte	0x25
 3067 0962 8B010000 		.4byte	.LLST14
 3068 0966 24       		.uleb128 0x24
 3069 0967 72657400 		.ascii	"ret\000"
 3070 096b 01       		.byte	0x1
 3071 096c AB01     		.2byte	0x1ab
 3072 096e A2040000 		.4byte	0x4a2
 3073 0972 02       		.uleb128 0x2
 3074 0973 91       		.byte	0x91
 3075 0974 60       		.sleb128 -32
 3076 0975 24       		.uleb128 0x24
 3077 0976 69746500 		.ascii	"ite\000"
 3078 097a 01       		.byte	0x1
 3079 097b AC01     		.2byte	0x1ac
 3080 097d 75060000 		.4byte	0x675
 3081 0981 02       		.uleb128 0x2
 3082 0982 91       		.byte	0x91
 3083 0983 54       		.sleb128 -44
 3084 0984 25       		.uleb128 0x25
 3085 0985 A5060000 		.4byte	0x6a5
 3086 0989 06000000 		.4byte	.LBB72
 3087 098d 04000000 		.4byte	.LBE72-.LBB72
 3088 0991 01       		.byte	0x1
 3089 0992 AB01     		.2byte	0x1ab
 3090 0994 A2090000 		.4byte	0x9a2
 3091 0998 26       		.uleb128 0x26
 3092 0999 B5060000 		.4byte	0x6b5
 3093 099d AC010000 		.4byte	.LLST15
 3094 09a1 00       		.byte	0
 3095 09a2 25       		.uleb128 0x25
 3096 09a3 80060000 		.4byte	0x680
 3097 09a7 14000000 		.4byte	.LBB74
 3098 09ab 1C000000 		.4byte	.LBE74-.LBB74
 3099 09af 01       		.byte	0x1
 3100 09b0 AC01     		.2byte	0x1ac
 3101 09b2 D0090000 		.4byte	0x9d0
 3102 09b6 27       		.uleb128 0x27
 3103 09b7 90060000 		.4byte	0x690
 3104 09bb 01       		.uleb128 0x1
 3105 09bc 56       		.byte	0x56
 3106 09bd 28       		.uleb128 0x28
 3107 09be 14000000 		.4byte	.LBB75
 3108 09c2 1C000000 		.4byte	.LBE75-.LBB75
 3109 09c6 29       		.uleb128 0x29
 3110 09c7 99060000 		.4byte	0x699
 3111 09cb 02       		.uleb128 0x2
 3112 09cc 91       		.byte	0x91
 3113 09cd 48       		.sleb128 -56
 3114 09ce 00       		.byte	0
 3115 09cf 00       		.byte	0
 3116 09d0 2A       		.uleb128 0x2a
 3117 09d1 30000000 		.4byte	.LBB76
 3118 09d5 14000000 		.4byte	.LBE76-.LBB76
 3119 09d9 450A0000 		.4byte	0xa45
 3120 09dd 30       		.uleb128 0x30
 3121 09de 6B657900 		.ascii	"key\000"
ARM GAS  C:\Users\164\AppData\Local\Temp\ccySM5k9.s 			page 75


 3122 09e2 01       		.byte	0x1
 3123 09e3 AF01     		.2byte	0x1af
 3124 09e5 E1050000 		.4byte	0x5e1
 3125 09e9 25       		.uleb128 0x25
 3126 09ea CC060000 		.4byte	0x6cc
 3127 09ee 30000000 		.4byte	.LBB77
 3128 09f2 06000000 		.4byte	.LBE77-.LBB77
 3129 09f6 01       		.byte	0x1
 3130 09f7 AF01     		.2byte	0x1af
 3131 09f9 1A0A0000 		.4byte	0xa1a
 3132 09fd 26       		.uleb128 0x26
 3133 09fe DC060000 		.4byte	0x6dc
 3134 0a02 BF010000 		.4byte	.LLST16
 3135 0a06 28       		.uleb128 0x28
 3136 0a07 30000000 		.4byte	.LBB78
 3137 0a0b 06000000 		.4byte	.LBE78-.LBB78
 3138 0a0f 2C       		.uleb128 0x2c
 3139 0a10 E7060000 		.4byte	0x6e7
 3140 0a14 D4010000 		.4byte	.LLST17
 3141 0a18 00       		.byte	0
 3142 0a19 00       		.byte	0
 3143 0a1a 2D       		.uleb128 0x2d
 3144 0a1b 3E000000 		.4byte	.LVL26
 3145 0a1f C31B0000 		.4byte	0x1bc3
 3146 0a23 340A0000 		.4byte	0xa34
 3147 0a27 2E       		.uleb128 0x2e
 3148 0a28 01       		.uleb128 0x1
 3149 0a29 50       		.byte	0x50
 3150 0a2a 02       		.uleb128 0x2
 3151 0a2b 91       		.byte	0x91
 3152 0a2c 60       		.sleb128 -32
 3153 0a2d 2E       		.uleb128 0x2e
 3154 0a2e 01       		.uleb128 0x1
 3155 0a2f 51       		.byte	0x51
 3156 0a30 02       		.uleb128 0x2
 3157 0a31 74       		.byte	0x74
 3158 0a32 00       		.sleb128 0
 3159 0a33 00       		.byte	0
 3160 0a34 2F       		.uleb128 0x2f
 3161 0a35 44000000 		.4byte	.LVL27
 3162 0a39 CE1B0000 		.4byte	0x1bce
 3163 0a3d 2E       		.uleb128 0x2e
 3164 0a3e 01       		.uleb128 0x1
 3165 0a3f 50       		.byte	0x50
 3166 0a40 02       		.uleb128 0x2
 3167 0a41 74       		.byte	0x74
 3168 0a42 00       		.sleb128 0
 3169 0a43 00       		.byte	0
 3170 0a44 00       		.byte	0
 3171 0a45 25       		.uleb128 0x25
 3172 0a46 F9060000 		.4byte	0x6f9
 3173 0a4a 44000000 		.4byte	.LBB79
 3174 0a4e 02000000 		.4byte	.LBE79-.LBB79
 3175 0a52 01       		.byte	0x1
 3176 0a53 AE01     		.2byte	0x1ae
 3177 0a55 630A0000 		.4byte	0xa63
 3178 0a59 26       		.uleb128 0x26
ARM GAS  C:\Users\164\AppData\Local\Temp\ccySM5k9.s 			page 76


 3179 0a5a 09070000 		.4byte	0x709
 3180 0a5e E7010000 		.4byte	.LLST18
 3181 0a62 00       		.byte	0
 3182 0a63 2D       		.uleb128 0x2d
 3183 0a64 14000000 		.4byte	.LVL23
 3184 0a68 D91B0000 		.4byte	0x1bd9
 3185 0a6c 7E0A0000 		.4byte	0xa7e
 3186 0a70 2E       		.uleb128 0x2e
 3187 0a71 01       		.uleb128 0x1
 3188 0a72 50       		.byte	0x50
 3189 0a73 02       		.uleb128 0x2
 3190 0a74 91       		.byte	0x91
 3191 0a75 60       		.sleb128 -32
 3192 0a76 2E       		.uleb128 0x2e
 3193 0a77 01       		.uleb128 0x1
 3194 0a78 51       		.byte	0x51
 3195 0a79 03       		.uleb128 0x3
 3196 0a7a F3       		.byte	0xf3
 3197 0a7b 01       		.uleb128 0x1
 3198 0a7c 50       		.byte	0x50
 3199 0a7d 00       		.byte	0
 3200 0a7e 2F       		.uleb128 0x2f
 3201 0a7f 50000000 		.4byte	.LVL29
 3202 0a83 E41B0000 		.4byte	0x1be4
 3203 0a87 2E       		.uleb128 0x2e
 3204 0a88 01       		.uleb128 0x1
 3205 0a89 50       		.byte	0x50
 3206 0a8a 02       		.uleb128 0x2
 3207 0a8b 76       		.byte	0x76
 3208 0a8c 00       		.sleb128 0
 3209 0a8d 00       		.byte	0
 3210 0a8e 00       		.byte	0
 3211 0a8f 21       		.uleb128 0x21
 3212 0a90 5F010000 		.4byte	.LASF113
 3213 0a94 01       		.byte	0x1
 3214 0a95 9001     		.2byte	0x190
 3215 0a97 00000000 		.4byte	.LFB32
 3216 0a9b 66000000 		.4byte	.LFE32-.LFB32
 3217 0a9f 01       		.uleb128 0x1
 3218 0aa0 9C       		.byte	0x9c
 3219 0aa1 D80B0000 		.4byte	0xbd8
 3220 0aa5 22       		.uleb128 0x22
 3221 0aa6 766D00   		.ascii	"vm\000"
 3222 0aa9 01       		.byte	0x1
 3223 0aaa 9001     		.2byte	0x190
 3224 0aac A1080000 		.4byte	0x8a1
 3225 0ab0 FC010000 		.4byte	.LLST19
 3226 0ab4 22       		.uleb128 0x22
 3227 0ab5 7600     		.ascii	"v\000"
 3228 0ab7 01       		.byte	0x1
 3229 0ab8 9001     		.2byte	0x190
 3230 0aba E1050000 		.4byte	0x5e1
 3231 0abe 1D020000 		.4byte	.LLST20
 3232 0ac2 23       		.uleb128 0x23
 3233 0ac3 B7040000 		.4byte	.LASF109
 3234 0ac7 01       		.byte	0x1
 3235 0ac8 9001     		.2byte	0x190
ARM GAS  C:\Users\164\AppData\Local\Temp\ccySM5k9.s 			page 77


 3236 0aca 25000000 		.4byte	0x25
 3237 0ace 3B020000 		.4byte	.LLST21
 3238 0ad2 2B       		.uleb128 0x2b
 3239 0ad3 72657400 		.ascii	"ret\000"
 3240 0ad7 01       		.byte	0x1
 3241 0ad8 9201     		.2byte	0x192
 3242 0ada E1050000 		.4byte	0x5e1
 3243 0ade 5C020000 		.4byte	.LLST22
 3244 0ae2 24       		.uleb128 0x24
 3245 0ae3 69746500 		.ascii	"ite\000"
 3246 0ae7 01       		.byte	0x1
 3247 0ae8 9301     		.2byte	0x193
 3248 0aea 75060000 		.4byte	0x675
 3249 0aee 02       		.uleb128 0x2
 3250 0aef 91       		.byte	0x91
 3251 0af0 64       		.sleb128 -28
 3252 0af1 25       		.uleb128 0x25
 3253 0af2 80060000 		.4byte	0x680
 3254 0af6 06000000 		.4byte	.LBB81
 3255 0afa 1C000000 		.4byte	.LBE81-.LBB81
 3256 0afe 01       		.byte	0x1
 3257 0aff 9301     		.2byte	0x193
 3258 0b01 210B0000 		.4byte	0xb21
 3259 0b05 26       		.uleb128 0x26
 3260 0b06 90060000 		.4byte	0x690
 3261 0b0a 92020000 		.4byte	.LLST23
 3262 0b0e 28       		.uleb128 0x28
 3263 0b0f 06000000 		.4byte	.LBB82
 3264 0b13 1C000000 		.4byte	.LBE82-.LBB82
 3265 0b17 29       		.uleb128 0x29
 3266 0b18 99060000 		.4byte	0x699
 3267 0b1c 02       		.uleb128 0x2
 3268 0b1d 91       		.byte	0x91
 3269 0b1e 58       		.sleb128 -40
 3270 0b1f 00       		.byte	0
 3271 0b20 00       		.byte	0
 3272 0b21 2A       		.uleb128 0x2a
 3273 0b22 22000000 		.4byte	.LBB83
 3274 0b26 1C000000 		.4byte	.LBE83-.LBB83
 3275 0b2a 950B0000 		.4byte	0xb95
 3276 0b2e 30       		.uleb128 0x30
 3277 0b2f 6B7600   		.ascii	"kv\000"
 3278 0b32 01       		.byte	0x1
 3279 0b33 9601     		.2byte	0x196
 3280 0b35 E1050000 		.4byte	0x5e1
 3281 0b39 25       		.uleb128 0x25
 3282 0b3a CC060000 		.4byte	0x6cc
 3283 0b3e 22000000 		.4byte	.LBB84
 3284 0b42 06000000 		.4byte	.LBE84-.LBB84
 3285 0b46 01       		.byte	0x1
 3286 0b47 9601     		.2byte	0x196
 3287 0b49 6A0B0000 		.4byte	0xb6a
 3288 0b4d 26       		.uleb128 0x26
 3289 0b4e DC060000 		.4byte	0x6dc
 3290 0b52 B0020000 		.4byte	.LLST24
 3291 0b56 28       		.uleb128 0x28
 3292 0b57 22000000 		.4byte	.LBB85
ARM GAS  C:\Users\164\AppData\Local\Temp\ccySM5k9.s 			page 78


 3293 0b5b 06000000 		.4byte	.LBE85-.LBB85
 3294 0b5f 2C       		.uleb128 0x2c
 3295 0b60 E7060000 		.4byte	0x6e7
 3296 0b64 C5020000 		.4byte	.LLST25
 3297 0b68 00       		.byte	0
 3298 0b69 00       		.byte	0
 3299 0b6a 2D       		.uleb128 0x2d
 3300 0b6b 34000000 		.4byte	.LVL36
 3301 0b6f EF1B0000 		.4byte	0x1bef
 3302 0b73 840B0000 		.4byte	0xb84
 3303 0b77 2E       		.uleb128 0x2e
 3304 0b78 01       		.uleb128 0x1
 3305 0b79 50       		.byte	0x50
 3306 0b7a 02       		.uleb128 0x2
 3307 0b7b 74       		.byte	0x74
 3308 0b7c 10       		.sleb128 16
 3309 0b7d 2E       		.uleb128 0x2e
 3310 0b7e 01       		.uleb128 0x1
 3311 0b7f 51       		.byte	0x51
 3312 0b80 02       		.uleb128 0x2
 3313 0b81 75       		.byte	0x75
 3314 0b82 10       		.sleb128 16
 3315 0b83 00       		.byte	0
 3316 0b84 2F       		.uleb128 0x2f
 3317 0b85 3C000000 		.4byte	.LVL37
 3318 0b89 CE1B0000 		.4byte	0x1bce
 3319 0b8d 2E       		.uleb128 0x2e
 3320 0b8e 01       		.uleb128 0x1
 3321 0b8f 50       		.byte	0x50
 3322 0b90 02       		.uleb128 0x2
 3323 0b91 74       		.byte	0x74
 3324 0b92 00       		.sleb128 0
 3325 0b93 00       		.byte	0
 3326 0b94 00       		.byte	0
 3327 0b95 25       		.uleb128 0x25
 3328 0b96 F9060000 		.4byte	0x6f9
 3329 0b9a 3E000000 		.4byte	.LBB86
 3330 0b9e 02000000 		.4byte	.LBE86-.LBB86
 3331 0ba2 01       		.byte	0x1
 3332 0ba3 9501     		.2byte	0x195
 3333 0ba5 B30B0000 		.4byte	0xbb3
 3334 0ba9 26       		.uleb128 0x26
 3335 0baa 09070000 		.4byte	0x709
 3336 0bae D8020000 		.4byte	.LLST26
 3337 0bb2 00       		.byte	0
 3338 0bb3 2D       		.uleb128 0x2d
 3339 0bb4 4E000000 		.4byte	.LVL41
 3340 0bb8 E41B0000 		.4byte	0x1be4
 3341 0bbc C70B0000 		.4byte	0xbc7
 3342 0bc0 2E       		.uleb128 0x2e
 3343 0bc1 01       		.uleb128 0x1
 3344 0bc2 50       		.byte	0x50
 3345 0bc3 02       		.uleb128 0x2
 3346 0bc4 75       		.byte	0x75
 3347 0bc5 00       		.sleb128 0
 3348 0bc6 00       		.byte	0
 3349 0bc7 2F       		.uleb128 0x2f
ARM GAS  C:\Users\164\AppData\Local\Temp\ccySM5k9.s 			page 79


 3350 0bc8 5E000000 		.4byte	.LVL42
 3351 0bcc E41B0000 		.4byte	0x1be4
 3352 0bd0 2E       		.uleb128 0x2e
 3353 0bd1 01       		.uleb128 0x1
 3354 0bd2 50       		.byte	0x50
 3355 0bd3 02       		.uleb128 0x2
 3356 0bd4 75       		.byte	0x75
 3357 0bd5 00       		.sleb128 0
 3358 0bd6 00       		.byte	0
 3359 0bd7 00       		.byte	0
 3360 0bd8 21       		.uleb128 0x21
 3361 0bd9 30000000 		.4byte	.LASF114
 3362 0bdd 01       		.byte	0x1
 3363 0bde 7801     		.2byte	0x178
 3364 0be0 00000000 		.4byte	.LFB31
 3365 0be4 5C000000 		.4byte	.LFE31-.LFB31
 3366 0be8 01       		.uleb128 0x1
 3367 0be9 9C       		.byte	0x9c
 3368 0bea 110D0000 		.4byte	0xd11
 3369 0bee 22       		.uleb128 0x22
 3370 0bef 766D00   		.ascii	"vm\000"
 3371 0bf2 01       		.byte	0x1
 3372 0bf3 7801     		.2byte	0x178
 3373 0bf5 A1080000 		.4byte	0x8a1
 3374 0bf9 ED020000 		.4byte	.LLST27
 3375 0bfd 22       		.uleb128 0x22
 3376 0bfe 7600     		.ascii	"v\000"
 3377 0c00 01       		.byte	0x1
 3378 0c01 7801     		.2byte	0x178
 3379 0c03 E1050000 		.4byte	0x5e1
 3380 0c07 0E030000 		.4byte	.LLST28
 3381 0c0b 23       		.uleb128 0x23
 3382 0c0c B7040000 		.4byte	.LASF109
 3383 0c10 01       		.byte	0x1
 3384 0c11 7801     		.2byte	0x178
 3385 0c13 25000000 		.4byte	0x25
 3386 0c17 2C030000 		.4byte	.LLST29
 3387 0c1b 2B       		.uleb128 0x2b
 3388 0c1c 72657400 		.ascii	"ret\000"
 3389 0c20 01       		.byte	0x1
 3390 0c21 7A01     		.2byte	0x17a
 3391 0c23 25000000 		.4byte	0x25
 3392 0c27 4D030000 		.4byte	.LLST30
 3393 0c2b 24       		.uleb128 0x24
 3394 0c2c 69746500 		.ascii	"ite\000"
 3395 0c30 01       		.byte	0x1
 3396 0c31 7B01     		.2byte	0x17b
 3397 0c33 75060000 		.4byte	0x675
 3398 0c37 02       		.uleb128 0x2
 3399 0c38 91       		.byte	0x91
 3400 0c39 64       		.sleb128 -28
 3401 0c3a 25       		.uleb128 0x25
 3402 0c3b 80060000 		.4byte	0x680
 3403 0c3f 06000000 		.4byte	.LBB88
 3404 0c43 1C000000 		.4byte	.LBE88-.LBB88
 3405 0c47 01       		.byte	0x1
 3406 0c48 7B01     		.2byte	0x17b
ARM GAS  C:\Users\164\AppData\Local\Temp\ccySM5k9.s 			page 80


 3407 0c4a 6A0C0000 		.4byte	0xc6a
 3408 0c4e 26       		.uleb128 0x26
 3409 0c4f 90060000 		.4byte	0x690
 3410 0c53 77030000 		.4byte	.LLST31
 3411 0c57 28       		.uleb128 0x28
 3412 0c58 06000000 		.4byte	.LBB89
 3413 0c5c 1C000000 		.4byte	.LBE89-.LBB89
 3414 0c60 29       		.uleb128 0x29
 3415 0c61 99060000 		.4byte	0x699
 3416 0c65 02       		.uleb128 0x2
 3417 0c66 91       		.byte	0x91
 3418 0c67 58       		.sleb128 -40
 3419 0c68 00       		.byte	0
 3420 0c69 00       		.byte	0
 3421 0c6a 31       		.uleb128 0x31
 3422 0c6b 00000000 		.4byte	.Ldebug_ranges0+0
 3423 0c6f CE0C0000 		.4byte	0xcce
 3424 0c73 2B       		.uleb128 0x2b
 3425 0c74 76616C00 		.ascii	"val\000"
 3426 0c78 01       		.byte	0x1
 3427 0c79 7E01     		.2byte	0x17e
 3428 0c7b E1050000 		.4byte	0x5e1
 3429 0c7f 95030000 		.4byte	.LLST32
 3430 0c83 25       		.uleb128 0x25
 3431 0c84 CC060000 		.4byte	0x6cc
 3432 0c88 22000000 		.4byte	.LBB91
 3433 0c8c 06000000 		.4byte	.LBE91-.LBB91
 3434 0c90 01       		.byte	0x1
 3435 0c91 7E01     		.2byte	0x17e
 3436 0c93 B40C0000 		.4byte	0xcb4
 3437 0c97 26       		.uleb128 0x26
 3438 0c98 DC060000 		.4byte	0x6dc
 3439 0c9c D5030000 		.4byte	.LLST33
 3440 0ca0 28       		.uleb128 0x28
 3441 0ca1 22000000 		.4byte	.LBB92
 3442 0ca5 06000000 		.4byte	.LBE92-.LBB92
 3443 0ca9 2C       		.uleb128 0x2c
 3444 0caa E7060000 		.4byte	0x6e7
 3445 0cae EA030000 		.4byte	.LLST34
 3446 0cb2 00       		.byte	0
 3447 0cb3 00       		.byte	0
 3448 0cb4 2F       		.uleb128 0x2f
 3449 0cb5 32000000 		.4byte	.LVL50
 3450 0cb9 EF1B0000 		.4byte	0x1bef
 3451 0cbd 2E       		.uleb128 0x2e
 3452 0cbe 01       		.uleb128 0x1
 3453 0cbf 50       		.byte	0x50
 3454 0cc0 05       		.uleb128 0x5
 3455 0cc1 91       		.byte	0x91
 3456 0cc2 68       		.sleb128 -24
 3457 0cc3 06       		.byte	0x6
 3458 0cc4 40       		.byte	0x40
 3459 0cc5 1C       		.byte	0x1c
 3460 0cc6 2E       		.uleb128 0x2e
 3461 0cc7 01       		.uleb128 0x1
 3462 0cc8 51       		.byte	0x51
 3463 0cc9 02       		.uleb128 0x2
ARM GAS  C:\Users\164\AppData\Local\Temp\ccySM5k9.s 			page 81


 3464 0cca 75       		.byte	0x75
 3465 0ccb 10       		.sleb128 16
 3466 0ccc 00       		.byte	0
 3467 0ccd 00       		.byte	0
 3468 0cce 25       		.uleb128 0x25
 3469 0ccf F9060000 		.4byte	0x6f9
 3470 0cd3 34000000 		.4byte	.LBB93
 3471 0cd7 02000000 		.4byte	.LBE93-.LBB93
 3472 0cdb 01       		.byte	0x1
 3473 0cdc 7D01     		.2byte	0x17d
 3474 0cde EC0C0000 		.4byte	0xcec
 3475 0ce2 26       		.uleb128 0x26
 3476 0ce3 09070000 		.4byte	0x709
 3477 0ce7 FD030000 		.4byte	.LLST35
 3478 0ceb 00       		.byte	0
 3479 0cec 2D       		.uleb128 0x2d
 3480 0ced 48000000 		.4byte	.LVL55
 3481 0cf1 E41B0000 		.4byte	0x1be4
 3482 0cf5 000D0000 		.4byte	0xd00
 3483 0cf9 2E       		.uleb128 0x2e
 3484 0cfa 01       		.uleb128 0x1
 3485 0cfb 50       		.byte	0x50
 3486 0cfc 02       		.uleb128 0x2
 3487 0cfd 75       		.byte	0x75
 3488 0cfe 00       		.sleb128 0
 3489 0cff 00       		.byte	0
 3490 0d00 2F       		.uleb128 0x2f
 3491 0d01 54000000 		.4byte	.LVL57
 3492 0d05 E41B0000 		.4byte	0x1be4
 3493 0d09 2E       		.uleb128 0x2e
 3494 0d0a 01       		.uleb128 0x1
 3495 0d0b 50       		.byte	0x50
 3496 0d0c 02       		.uleb128 0x2
 3497 0d0d 75       		.byte	0x75
 3498 0d0e 00       		.sleb128 0
 3499 0d0f 00       		.byte	0
 3500 0d10 00       		.byte	0
 3501 0d11 21       		.uleb128 0x21
 3502 0d12 00000000 		.4byte	.LASF115
 3503 0d16 01       		.byte	0x1
 3504 0d17 5A01     		.2byte	0x15a
 3505 0d19 00000000 		.4byte	.LFB29
 3506 0d1d 24000000 		.4byte	.LFE29-.LFB29
 3507 0d21 01       		.uleb128 0x1
 3508 0d22 9C       		.byte	0x9c
 3509 0d23 A10D0000 		.4byte	0xda1
 3510 0d27 22       		.uleb128 0x22
 3511 0d28 766D00   		.ascii	"vm\000"
 3512 0d2b 01       		.byte	0x1
 3513 0d2c 5A01     		.2byte	0x15a
 3514 0d2e A1080000 		.4byte	0x8a1
 3515 0d32 12040000 		.4byte	.LLST36
 3516 0d36 22       		.uleb128 0x22
 3517 0d37 7600     		.ascii	"v\000"
 3518 0d39 01       		.byte	0x1
 3519 0d3a 5A01     		.2byte	0x15a
 3520 0d3c E1050000 		.4byte	0x5e1
ARM GAS  C:\Users\164\AppData\Local\Temp\ccySM5k9.s 			page 82


 3521 0d40 4C040000 		.4byte	.LLST37
 3522 0d44 23       		.uleb128 0x23
 3523 0d45 B7040000 		.4byte	.LASF109
 3524 0d49 01       		.byte	0x1
 3525 0d4a 5A01     		.2byte	0x15a
 3526 0d4c 25000000 		.4byte	0x25
 3527 0d50 80040000 		.4byte	.LLST38
 3528 0d54 30       		.uleb128 0x30
 3529 0d55 6E00     		.ascii	"n\000"
 3530 0d57 01       		.byte	0x1
 3531 0d58 5C01     		.2byte	0x15c
 3532 0d5a 25000000 		.4byte	0x25
 3533 0d5e 25       		.uleb128 0x25
 3534 0d5f A5060000 		.4byte	0x6a5
 3535 0d63 04000000 		.4byte	.LBB96
 3536 0d67 04000000 		.4byte	.LBE96-.LBB96
 3537 0d6b 01       		.byte	0x1
 3538 0d6c 5C01     		.2byte	0x15c
 3539 0d6e 7C0D0000 		.4byte	0xd7c
 3540 0d72 26       		.uleb128 0x26
 3541 0d73 B5060000 		.4byte	0x6b5
 3542 0d77 BA040000 		.4byte	.LLST39
 3543 0d7b 00       		.byte	0
 3544 0d7c 2D       		.uleb128 0x2d
 3545 0d7d 12000000 		.4byte	.LVL62
 3546 0d81 E41B0000 		.4byte	0x1be4
 3547 0d85 900D0000 		.4byte	0xd90
 3548 0d89 2E       		.uleb128 0x2e
 3549 0d8a 01       		.uleb128 0x1
 3550 0d8b 50       		.byte	0x50
 3551 0d8c 02       		.uleb128 0x2
 3552 0d8d 74       		.byte	0x74
 3553 0d8e 00       		.sleb128 0
 3554 0d8f 00       		.byte	0
 3555 0d90 2F       		.uleb128 0x2f
 3556 0d91 1E000000 		.4byte	.LVL65
 3557 0d95 E41B0000 		.4byte	0x1be4
 3558 0d99 2E       		.uleb128 0x2e
 3559 0d9a 01       		.uleb128 0x1
 3560 0d9b 50       		.byte	0x50
 3561 0d9c 02       		.uleb128 0x2
 3562 0d9d 74       		.byte	0x74
 3563 0d9e 00       		.sleb128 0
 3564 0d9f 00       		.byte	0
 3565 0da0 00       		.byte	0
 3566 0da1 32       		.uleb128 0x32
 3567 0da2 1D030000 		.4byte	.LASF118
 3568 0da6 01       		.byte	0x1
 3569 0da7 37       		.byte	0x37
 3570 0da8 A2040000 		.4byte	0x4a2
 3571 0dac 00000000 		.4byte	.LFB14
 3572 0db0 4C000000 		.4byte	.LFE14-.LFB14
 3573 0db4 01       		.uleb128 0x1
 3574 0db5 9C       		.byte	0x9c
 3575 0db6 480E0000 		.4byte	0xe48
 3576 0dba 33       		.uleb128 0x33
 3577 0dbb 766D00   		.ascii	"vm\000"
ARM GAS  C:\Users\164\AppData\Local\Temp\ccySM5k9.s 			page 83


 3578 0dbe 01       		.byte	0x1
 3579 0dbf 37       		.byte	0x37
 3580 0dc0 2A010000 		.4byte	0x12a
 3581 0dc4 CD040000 		.4byte	.LLST40
 3582 0dc8 34       		.uleb128 0x34
 3583 0dc9 87040000 		.4byte	.LASF116
 3584 0dcd 01       		.byte	0x1
 3585 0dce 37       		.byte	0x37
 3586 0dcf 25000000 		.4byte	0x25
 3587 0dd3 EB040000 		.4byte	.LLST41
 3588 0dd7 35       		.uleb128 0x35
 3589 0dd8 5A070000 		.4byte	.LASF108
 3590 0ddc 01       		.byte	0x1
 3591 0ddd 39       		.byte	0x39
 3592 0dde A2040000 		.4byte	0x4a2
 3593 0de2 17050000 		.4byte	.LLST42
 3594 0de6 36       		.uleb128 0x36
 3595 0de7 6800     		.ascii	"h\000"
 3596 0de9 01       		.byte	0x1
 3597 0dea 3E       		.byte	0x3e
 3598 0deb 6F060000 		.4byte	0x66f
 3599 0def 37050000 		.4byte	.LLST43
 3600 0df3 35       		.uleb128 0x35
 3601 0df4 B6030000 		.4byte	.LASF67
 3602 0df8 01       		.byte	0x1
 3603 0df9 41       		.byte	0x41
 3604 0dfa E1050000 		.4byte	0x5e1
 3605 0dfe 55050000 		.4byte	.LLST44
 3606 0e02 2D       		.uleb128 0x2d
 3607 0e03 1E000000 		.4byte	.LVL69
 3608 0e07 FA1B0000 		.4byte	0x1bfa
 3609 0e0b 1B0E0000 		.4byte	0xe1b
 3610 0e0f 2E       		.uleb128 0x2e
 3611 0e10 01       		.uleb128 0x1
 3612 0e11 50       		.byte	0x50
 3613 0e12 02       		.uleb128 0x2
 3614 0e13 77       		.byte	0x77
 3615 0e14 00       		.sleb128 0
 3616 0e15 2E       		.uleb128 0x2e
 3617 0e16 01       		.uleb128 0x1
 3618 0e17 51       		.byte	0x51
 3619 0e18 01       		.uleb128 0x1
 3620 0e19 3C       		.byte	0x3c
 3621 0e1a 00       		.byte	0
 3622 0e1b 2D       		.uleb128 0x2d
 3623 0e1c 2A000000 		.4byte	.LVL71
 3624 0e20 FA1B0000 		.4byte	0x1bfa
 3625 0e24 370E0000 		.4byte	0xe37
 3626 0e28 2E       		.uleb128 0x2e
 3627 0e29 01       		.uleb128 0x1
 3628 0e2a 50       		.byte	0x50
 3629 0e2b 02       		.uleb128 0x2
 3630 0e2c 77       		.byte	0x77
 3631 0e2d 00       		.sleb128 0
 3632 0e2e 2E       		.uleb128 0x2e
 3633 0e2f 01       		.uleb128 0x1
 3634 0e30 51       		.byte	0x51
ARM GAS  C:\Users\164\AppData\Local\Temp\ccySM5k9.s 			page 84


 3635 0e31 04       		.uleb128 0x4
 3636 0e32 76       		.byte	0x76
 3637 0e33 00       		.sleb128 0
 3638 0e34 35       		.byte	0x35
 3639 0e35 24       		.byte	0x24
 3640 0e36 00       		.byte	0
 3641 0e37 2F       		.uleb128 0x2f
 3642 0e38 32000000 		.4byte	.LVL73
 3643 0e3c 051C0000 		.4byte	0x1c05
 3644 0e40 2E       		.uleb128 0x2e
 3645 0e41 01       		.uleb128 0x1
 3646 0e42 50       		.byte	0x50
 3647 0e43 02       		.uleb128 0x2
 3648 0e44 75       		.byte	0x75
 3649 0e45 00       		.sleb128 0
 3650 0e46 00       		.byte	0
 3651 0e47 00       		.byte	0
 3652 0e48 21       		.uleb128 0x21
 3653 0e49 7C030000 		.4byte	.LASF117
 3654 0e4d 01       		.byte	0x1
 3655 0e4e 0D01     		.2byte	0x10d
 3656 0e50 00000000 		.4byte	.LFB23
 3657 0e54 22000000 		.4byte	.LFE23-.LFB23
 3658 0e58 01       		.uleb128 0x1
 3659 0e59 9C       		.byte	0x9c
 3660 0e5a CB0E0000 		.4byte	0xecb
 3661 0e5e 22       		.uleb128 0x22
 3662 0e5f 766D00   		.ascii	"vm\000"
 3663 0e62 01       		.byte	0x1
 3664 0e63 0D01     		.2byte	0x10d
 3665 0e65 A1080000 		.4byte	0x8a1
 3666 0e69 73050000 		.4byte	.LLST45
 3667 0e6d 22       		.uleb128 0x22
 3668 0e6e 7600     		.ascii	"v\000"
 3669 0e70 01       		.byte	0x1
 3670 0e71 0D01     		.2byte	0x10d
 3671 0e73 E1050000 		.4byte	0x5e1
 3672 0e77 9F050000 		.4byte	.LLST46
 3673 0e7b 23       		.uleb128 0x23
 3674 0e7c B7040000 		.4byte	.LASF109
 3675 0e80 01       		.byte	0x1
 3676 0e81 0D01     		.2byte	0x10d
 3677 0e83 25000000 		.4byte	0x25
 3678 0e87 BD050000 		.4byte	.LLST47
 3679 0e8b 24       		.uleb128 0x24
 3680 0e8c 72657400 		.ascii	"ret\000"
 3681 0e90 01       		.byte	0x1
 3682 0e91 0F01     		.2byte	0x10f
 3683 0e93 A2040000 		.4byte	0x4a2
 3684 0e97 02       		.uleb128 0x2
 3685 0e98 91       		.byte	0x91
 3686 0e99 60       		.sleb128 -32
 3687 0e9a 2D       		.uleb128 0x2d
 3688 0e9b 10000000 		.4byte	.LVL81
 3689 0e9f A10D0000 		.4byte	0xda1
 3690 0ea3 BA0E0000 		.4byte	0xeba
 3691 0ea7 2E       		.uleb128 0x2e
ARM GAS  C:\Users\164\AppData\Local\Temp\ccySM5k9.s 			page 85


 3692 0ea8 01       		.uleb128 0x1
 3693 0ea9 50       		.byte	0x50
 3694 0eaa 02       		.uleb128 0x2
 3695 0eab 7D       		.byte	0x7d
 3696 0eac 00       		.sleb128 0
 3697 0ead 2E       		.uleb128 0x2e
 3698 0eae 01       		.uleb128 0x1
 3699 0eaf 51       		.byte	0x51
 3700 0eb0 03       		.uleb128 0x3
 3701 0eb1 F3       		.byte	0xf3
 3702 0eb2 01       		.uleb128 0x1
 3703 0eb3 50       		.byte	0x50
 3704 0eb4 2E       		.uleb128 0x2e
 3705 0eb5 01       		.uleb128 0x1
 3706 0eb6 52       		.byte	0x52
 3707 0eb7 01       		.uleb128 0x1
 3708 0eb8 30       		.byte	0x30
 3709 0eb9 00       		.byte	0
 3710 0eba 2F       		.uleb128 0x2f
 3711 0ebb 16000000 		.4byte	.LVL82
 3712 0ebf E41B0000 		.4byte	0x1be4
 3713 0ec3 2E       		.uleb128 0x2e
 3714 0ec4 01       		.uleb128 0x1
 3715 0ec5 50       		.byte	0x50
 3716 0ec6 02       		.uleb128 0x2
 3717 0ec7 74       		.byte	0x74
 3718 0ec8 00       		.sleb128 0
 3719 0ec9 00       		.byte	0
 3720 0eca 00       		.byte	0
 3721 0ecb 37       		.uleb128 0x37
 3722 0ecc 67070000 		.4byte	.LASF128
 3723 0ed0 01       		.byte	0x1
 3724 0ed1 57       		.byte	0x57
 3725 0ed2 00000000 		.4byte	.LFB15
 3726 0ed6 08000000 		.4byte	.LFE15-.LFB15
 3727 0eda 01       		.uleb128 0x1
 3728 0edb 9C       		.byte	0x9c
 3729 0edc 010F0000 		.4byte	0xf01
 3730 0ee0 34       		.uleb128 0x34
 3731 0ee1 5A050000 		.4byte	.LASF58
 3732 0ee5 01       		.byte	0x1
 3733 0ee6 57       		.byte	0x57
 3734 0ee7 E1050000 		.4byte	0x5e1
 3735 0eeb DE050000 		.4byte	.LLST48
 3736 0eef 2F       		.uleb128 0x2f
 3737 0ef0 06000000 		.4byte	.LVL84
 3738 0ef4 101C0000 		.4byte	0x1c10
 3739 0ef8 2E       		.uleb128 0x2e
 3740 0ef9 01       		.uleb128 0x1
 3741 0efa 50       		.byte	0x50
 3742 0efb 03       		.uleb128 0x3
 3743 0efc F3       		.byte	0xf3
 3744 0efd 01       		.uleb128 0x1
 3745 0efe 50       		.byte	0x50
 3746 0eff 00       		.byte	0
 3747 0f00 00       		.byte	0
 3748 0f01 32       		.uleb128 0x32
ARM GAS  C:\Users\164\AppData\Local\Temp\ccySM5k9.s 			page 86


 3749 0f02 9E050000 		.4byte	.LASF119
 3750 0f06 01       		.byte	0x1
 3751 0f07 66       		.byte	0x66
 3752 0f08 E1050000 		.4byte	0x5e1
 3753 0f0c 00000000 		.4byte	.LFB16
 3754 0f10 28000000 		.4byte	.LFE16-.LFB16
 3755 0f14 01       		.uleb128 0x1
 3756 0f15 9C       		.byte	0x9c
 3757 0f16 670F0000 		.4byte	0xf67
 3758 0f1a 34       		.uleb128 0x34
 3759 0f1b 5A050000 		.4byte	.LASF58
 3760 0f1f 01       		.byte	0x1
 3761 0f20 66       		.byte	0x66
 3762 0f21 C1060000 		.4byte	0x6c1
 3763 0f25 FF050000 		.4byte	.LLST49
 3764 0f29 33       		.uleb128 0x33
 3765 0f2a 6B657900 		.ascii	"key\000"
 3766 0f2e 01       		.byte	0x1
 3767 0f2f 66       		.byte	0x66
 3768 0f30 C1060000 		.4byte	0x6c1
 3769 0f34 20060000 		.4byte	.LLST50
 3770 0f38 38       		.uleb128 0x38
 3771 0f39 703100   		.ascii	"p1\000"
 3772 0f3c 01       		.byte	0x1
 3773 0f3d 6D       		.byte	0x6d
 3774 0f3e E1050000 		.4byte	0x5e1
 3775 0f42 01       		.uleb128 0x1
 3776 0f43 54       		.byte	0x54
 3777 0f44 38       		.uleb128 0x38
 3778 0f45 703200   		.ascii	"p2\000"
 3779 0f48 01       		.byte	0x1
 3780 0f49 6E       		.byte	0x6e
 3781 0f4a C1060000 		.4byte	0x6c1
 3782 0f4e 01       		.uleb128 0x1
 3783 0f4f 55       		.byte	0x55
 3784 0f50 2F       		.uleb128 0x2f
 3785 0f51 18000000 		.4byte	.LVL89
 3786 0f55 EF1B0000 		.4byte	0x1bef
 3787 0f59 2E       		.uleb128 0x2e
 3788 0f5a 01       		.uleb128 0x1
 3789 0f5b 50       		.byte	0x50
 3790 0f5c 02       		.uleb128 0x2
 3791 0f5d 74       		.byte	0x74
 3792 0f5e 00       		.sleb128 0
 3793 0f5f 2E       		.uleb128 0x2e
 3794 0f60 01       		.uleb128 0x1
 3795 0f61 51       		.byte	0x51
 3796 0f62 02       		.uleb128 0x2
 3797 0f63 76       		.byte	0x76
 3798 0f64 00       		.sleb128 0
 3799 0f65 00       		.byte	0
 3800 0f66 00       		.byte	0
 3801 0f67 21       		.uleb128 0x21
 3802 0f68 C9030000 		.4byte	.LASF120
 3803 0f6c 01       		.byte	0x1
 3804 0f6d 6901     		.2byte	0x169
 3805 0f6f 00000000 		.4byte	.LFB30
ARM GAS  C:\Users\164\AppData\Local\Temp\ccySM5k9.s 			page 87


 3806 0f73 26000000 		.4byte	.LFE30-.LFB30
 3807 0f77 01       		.uleb128 0x1
 3808 0f78 9C       		.byte	0x9c
 3809 0f79 F90F0000 		.4byte	0xff9
 3810 0f7d 22       		.uleb128 0x22
 3811 0f7e 766D00   		.ascii	"vm\000"
 3812 0f81 01       		.byte	0x1
 3813 0f82 6901     		.2byte	0x169
 3814 0f84 A1080000 		.4byte	0x8a1
 3815 0f88 3E060000 		.4byte	.LLST51
 3816 0f8c 22       		.uleb128 0x22
 3817 0f8d 7600     		.ascii	"v\000"
 3818 0f8f 01       		.byte	0x1
 3819 0f90 6901     		.2byte	0x169
 3820 0f92 E1050000 		.4byte	0x5e1
 3821 0f96 5F060000 		.4byte	.LLST52
 3822 0f9a 23       		.uleb128 0x23
 3823 0f9b B7040000 		.4byte	.LASF109
 3824 0f9f 01       		.byte	0x1
 3825 0fa0 6901     		.2byte	0x169
 3826 0fa2 25000000 		.4byte	0x25
 3827 0fa6 7D060000 		.4byte	.LLST53
 3828 0faa 2B       		.uleb128 0x2b
 3829 0fab 72657300 		.ascii	"res\000"
 3830 0faf 01       		.byte	0x1
 3831 0fb0 6B01     		.2byte	0x16b
 3832 0fb2 E1050000 		.4byte	0x5e1
 3833 0fb6 9E060000 		.4byte	.LLST54
 3834 0fba 2D       		.uleb128 0x2d
 3835 0fbb 0C000000 		.4byte	.LVL95
 3836 0fbf 010F0000 		.4byte	0xf01
 3837 0fc3 D40F0000 		.4byte	0xfd4
 3838 0fc7 2E       		.uleb128 0x2e
 3839 0fc8 01       		.uleb128 0x1
 3840 0fc9 50       		.byte	0x50
 3841 0fca 02       		.uleb128 0x2
 3842 0fcb 74       		.byte	0x74
 3843 0fcc 00       		.sleb128 0
 3844 0fcd 2E       		.uleb128 0x2e
 3845 0fce 01       		.uleb128 0x1
 3846 0fcf 51       		.byte	0x51
 3847 0fd0 02       		.uleb128 0x2
 3848 0fd1 74       		.byte	0x74
 3849 0fd2 10       		.sleb128 16
 3850 0fd3 00       		.byte	0
 3851 0fd4 2D       		.uleb128 0x2d
 3852 0fd5 14000000 		.4byte	.LVL97
 3853 0fd9 E41B0000 		.4byte	0x1be4
 3854 0fdd E80F0000 		.4byte	0xfe8
 3855 0fe1 2E       		.uleb128 0x2e
 3856 0fe2 01       		.uleb128 0x1
 3857 0fe3 50       		.byte	0x50
 3858 0fe4 02       		.uleb128 0x2
 3859 0fe5 74       		.byte	0x74
 3860 0fe6 00       		.sleb128 0
 3861 0fe7 00       		.byte	0
 3862 0fe8 2F       		.uleb128 0x2f
ARM GAS  C:\Users\164\AppData\Local\Temp\ccySM5k9.s 			page 88


 3863 0fe9 20000000 		.4byte	.LVL100
 3864 0fed E41B0000 		.4byte	0x1be4
 3865 0ff1 2E       		.uleb128 0x2e
 3866 0ff2 01       		.uleb128 0x1
 3867 0ff3 50       		.byte	0x50
 3868 0ff4 02       		.uleb128 0x2
 3869 0ff5 74       		.byte	0x74
 3870 0ff6 00       		.sleb128 0
 3871 0ff7 00       		.byte	0
 3872 0ff8 00       		.byte	0
 3873 0ff9 32       		.uleb128 0x32
 3874 0ffa C9020000 		.4byte	.LASF121
 3875 0ffe 01       		.byte	0x1
 3876 0fff 8A       		.byte	0x8a
 3877 1000 25000000 		.4byte	0x25
 3878 1004 00000000 		.4byte	.LFB17
 3879 1008 4A000000 		.4byte	.LFE17-.LFB17
 3880 100c 01       		.uleb128 0x1
 3881 100d 9C       		.byte	0x9c
 3882 100e D9100000 		.4byte	0x10d9
 3883 1012 34       		.uleb128 0x34
 3884 1013 5A050000 		.4byte	.LASF58
 3885 1017 01       		.byte	0x1
 3886 1018 8A       		.byte	0x8a
 3887 1019 E1050000 		.4byte	0x5e1
 3888 101d BC060000 		.4byte	.LLST55
 3889 1021 33       		.uleb128 0x33
 3890 1022 6B657900 		.ascii	"key\000"
 3891 1026 01       		.byte	0x1
 3892 1027 8A       		.byte	0x8a
 3893 1028 E1050000 		.4byte	0x5e1
 3894 102c DA060000 		.4byte	.LLST56
 3895 1030 33       		.uleb128 0x33
 3896 1031 76616C00 		.ascii	"val\000"
 3897 1035 01       		.byte	0x1
 3898 1036 8A       		.byte	0x8a
 3899 1037 E1050000 		.4byte	0x5e1
 3900 103b F8060000 		.4byte	.LLST57
 3901 103f 36       		.uleb128 0x36
 3902 1040 7600     		.ascii	"v\000"
 3903 1042 01       		.byte	0x1
 3904 1043 8C       		.byte	0x8c
 3905 1044 E1050000 		.4byte	0x5e1
 3906 1048 16070000 		.4byte	.LLST58
 3907 104c 36       		.uleb128 0x36
 3908 104d 72657400 		.ascii	"ret\000"
 3909 1051 01       		.byte	0x1
 3910 1052 8D       		.byte	0x8d
 3911 1053 25000000 		.4byte	0x25
 3912 1057 57070000 		.4byte	.LLST59
 3913 105b 39       		.uleb128 0x39
 3914 105c 67050000 		.4byte	.LASF154
 3915 1060 01       		.byte	0x1
 3916 1061 9B       		.byte	0x9b
 3917 1062 46000000 		.4byte	.L50
 3918 1066 2D       		.uleb128 0x2d
 3919 1067 0C000000 		.4byte	.LVL102
ARM GAS  C:\Users\164\AppData\Local\Temp\ccySM5k9.s 			page 89


 3920 106b 010F0000 		.4byte	0xf01
 3921 106f 80100000 		.4byte	0x1080
 3922 1073 2E       		.uleb128 0x2e
 3923 1074 01       		.uleb128 0x1
 3924 1075 50       		.byte	0x50
 3925 1076 02       		.uleb128 0x2
 3926 1077 77       		.byte	0x77
 3927 1078 00       		.sleb128 0
 3928 1079 2E       		.uleb128 0x2e
 3929 107a 01       		.uleb128 0x1
 3930 107b 51       		.byte	0x51
 3931 107c 02       		.uleb128 0x2
 3932 107d 75       		.byte	0x75
 3933 107e 00       		.sleb128 0
 3934 107f 00       		.byte	0
 3935 1080 2D       		.uleb128 0x2d
 3936 1081 16000000 		.4byte	.LVL104
 3937 1085 C31B0000 		.4byte	0x1bc3
 3938 1089 9A100000 		.4byte	0x109a
 3939 108d 2E       		.uleb128 0x2e
 3940 108e 01       		.uleb128 0x1
 3941 108f 50       		.byte	0x50
 3942 1090 02       		.uleb128 0x2
 3943 1091 77       		.byte	0x77
 3944 1092 00       		.sleb128 0
 3945 1093 2E       		.uleb128 0x2e
 3946 1094 01       		.uleb128 0x1
 3947 1095 51       		.byte	0x51
 3948 1096 02       		.uleb128 0x2
 3949 1097 75       		.byte	0x75
 3950 1098 00       		.sleb128 0
 3951 1099 00       		.byte	0
 3952 109a 2D       		.uleb128 0x2d
 3953 109b 22000000 		.4byte	.LVL106
 3954 109f C31B0000 		.4byte	0x1bc3
 3955 10a3 B4100000 		.4byte	0x10b4
 3956 10a7 2E       		.uleb128 0x2e
 3957 10a8 01       		.uleb128 0x1
 3958 10a9 50       		.byte	0x50
 3959 10aa 02       		.uleb128 0x2
 3960 10ab 77       		.byte	0x77
 3961 10ac 00       		.sleb128 0
 3962 10ad 2E       		.uleb128 0x2e
 3963 10ae 01       		.uleb128 0x1
 3964 10af 51       		.byte	0x51
 3965 10b0 02       		.uleb128 0x2
 3966 10b1 76       		.byte	0x76
 3967 10b2 00       		.sleb128 0
 3968 10b3 00       		.byte	0
 3969 10b4 2D       		.uleb128 0x2d
 3970 10b5 2C000000 		.4byte	.LVL109
 3971 10b9 1B1C0000 		.4byte	0x1c1b
 3972 10bd C8100000 		.4byte	0x10c8
 3973 10c1 2E       		.uleb128 0x2e
 3974 10c2 01       		.uleb128 0x1
 3975 10c3 50       		.byte	0x50
 3976 10c4 02       		.uleb128 0x2
ARM GAS  C:\Users\164\AppData\Local\Temp\ccySM5k9.s 			page 90


 3977 10c5 74       		.byte	0x74
 3978 10c6 00       		.sleb128 0
 3979 10c7 00       		.byte	0
 3980 10c8 2F       		.uleb128 0x2f
 3981 10c9 3C000000 		.4byte	.LVL112
 3982 10cd 1B1C0000 		.4byte	0x1c1b
 3983 10d1 2E       		.uleb128 0x2e
 3984 10d2 01       		.uleb128 0x1
 3985 10d3 50       		.byte	0x50
 3986 10d4 02       		.uleb128 0x2
 3987 10d5 74       		.byte	0x74
 3988 10d6 00       		.sleb128 0
 3989 10d7 00       		.byte	0
 3990 10d8 00       		.byte	0
 3991 10d9 21       		.uleb128 0x21
 3992 10da 0B030000 		.4byte	.LASF122
 3993 10de 01       		.byte	0x1
 3994 10df D901     		.2byte	0x1d9
 3995 10e1 00000000 		.4byte	.LFB36
 3996 10e5 4C000000 		.4byte	.LFE36-.LFB36
 3997 10e9 01       		.uleb128 0x1
 3998 10ea 9C       		.byte	0x9c
 3999 10eb 04120000 		.4byte	0x1204
 4000 10ef 22       		.uleb128 0x22
 4001 10f0 766D00   		.ascii	"vm\000"
 4002 10f3 01       		.byte	0x1
 4003 10f4 D901     		.2byte	0x1d9
 4004 10f6 A1080000 		.4byte	0x8a1
 4005 10fa A3070000 		.4byte	.LLST60
 4006 10fe 22       		.uleb128 0x22
 4007 10ff 7600     		.ascii	"v\000"
 4008 1101 01       		.byte	0x1
 4009 1102 D901     		.2byte	0x1d9
 4010 1104 E1050000 		.4byte	0x5e1
 4011 1108 C4070000 		.4byte	.LLST61
 4012 110c 23       		.uleb128 0x23
 4013 110d B7040000 		.4byte	.LASF109
 4014 1111 01       		.byte	0x1
 4015 1112 D901     		.2byte	0x1d9
 4016 1114 25000000 		.4byte	0x25
 4017 1118 E2070000 		.4byte	.LLST62
 4018 111c 24       		.uleb128 0x24
 4019 111d 69746500 		.ascii	"ite\000"
 4020 1121 01       		.byte	0x1
 4021 1122 DB01     		.2byte	0x1db
 4022 1124 75060000 		.4byte	0x675
 4023 1128 02       		.uleb128 0x2
 4024 1129 91       		.byte	0x91
 4025 112a 5C       		.sleb128 -36
 4026 112b 25       		.uleb128 0x25
 4027 112c 80060000 		.4byte	0x680
 4028 1130 06000000 		.4byte	.LBB98
 4029 1134 1C000000 		.4byte	.LBE98-.LBB98
 4030 1138 01       		.byte	0x1
 4031 1139 DB01     		.2byte	0x1db
 4032 113b 5B110000 		.4byte	0x115b
 4033 113f 26       		.uleb128 0x26
ARM GAS  C:\Users\164\AppData\Local\Temp\ccySM5k9.s 			page 91


 4034 1140 90060000 		.4byte	0x690
 4035 1144 03080000 		.4byte	.LLST63
 4036 1148 28       		.uleb128 0x28
 4037 1149 06000000 		.4byte	.LBB99
 4038 114d 1C000000 		.4byte	.LBE99-.LBB99
 4039 1151 29       		.uleb128 0x29
 4040 1152 99060000 		.4byte	0x699
 4041 1156 02       		.uleb128 0x2
 4042 1157 91       		.byte	0x91
 4043 1158 50       		.sleb128 -48
 4044 1159 00       		.byte	0
 4045 115a 00       		.byte	0
 4046 115b 2A       		.uleb128 0x2a
 4047 115c 22000000 		.4byte	.LBB100
 4048 1160 20000000 		.4byte	.LBE100-.LBB100
 4049 1164 E9110000 		.4byte	0x11e9
 4050 1168 30       		.uleb128 0x30
 4051 1169 6B7600   		.ascii	"kv\000"
 4052 116c 01       		.byte	0x1
 4053 116d DE01     		.2byte	0x1de
 4054 116f E1050000 		.4byte	0x5e1
 4055 1173 25       		.uleb128 0x25
 4056 1174 CC060000 		.4byte	0x6cc
 4057 1178 22000000 		.4byte	.LBB101
 4058 117c 06000000 		.4byte	.LBE101-.LBB101
 4059 1180 01       		.byte	0x1
 4060 1181 DE01     		.2byte	0x1de
 4061 1183 A4110000 		.4byte	0x11a4
 4062 1187 26       		.uleb128 0x26
 4063 1188 DC060000 		.4byte	0x6dc
 4064 118c 25080000 		.4byte	.LLST64
 4065 1190 28       		.uleb128 0x28
 4066 1191 22000000 		.4byte	.LBB102
 4067 1195 06000000 		.4byte	.LBE102-.LBB102
 4068 1199 2C       		.uleb128 0x2c
 4069 119a E7060000 		.4byte	0x6e7
 4070 119e 3A080000 		.4byte	.LLST65
 4071 11a2 00       		.byte	0
 4072 11a3 00       		.byte	0
 4073 11a4 2D       		.uleb128 0x2d
 4074 11a5 36000000 		.4byte	.LVL120
 4075 11a9 F90F0000 		.4byte	0xff9
 4076 11ad C4110000 		.4byte	0x11c4
 4077 11b1 2E       		.uleb128 0x2e
 4078 11b2 01       		.uleb128 0x1
 4079 11b3 50       		.byte	0x50
 4080 11b4 02       		.uleb128 0x2
 4081 11b5 77       		.byte	0x77
 4082 11b6 00       		.sleb128 0
 4083 11b7 2E       		.uleb128 0x2e
 4084 11b8 01       		.uleb128 0x1
 4085 11b9 51       		.byte	0x51
 4086 11ba 02       		.uleb128 0x2
 4087 11bb 74       		.byte	0x74
 4088 11bc 00       		.sleb128 0
 4089 11bd 2E       		.uleb128 0x2e
 4090 11be 01       		.uleb128 0x1
ARM GAS  C:\Users\164\AppData\Local\Temp\ccySM5k9.s 			page 92


 4091 11bf 52       		.byte	0x52
 4092 11c0 02       		.uleb128 0x2
 4093 11c1 75       		.byte	0x75
 4094 11c2 00       		.sleb128 0
 4095 11c3 00       		.byte	0
 4096 11c4 2D       		.uleb128 0x2d
 4097 11c5 3C000000 		.4byte	.LVL121
 4098 11c9 CE1B0000 		.4byte	0x1bce
 4099 11cd D8110000 		.4byte	0x11d8
 4100 11d1 2E       		.uleb128 0x2e
 4101 11d2 01       		.uleb128 0x1
 4102 11d3 50       		.byte	0x50
 4103 11d4 02       		.uleb128 0x2
 4104 11d5 74       		.byte	0x74
 4105 11d6 00       		.sleb128 0
 4106 11d7 00       		.byte	0
 4107 11d8 2F       		.uleb128 0x2f
 4108 11d9 42000000 		.4byte	.LVL122
 4109 11dd CE1B0000 		.4byte	0x1bce
 4110 11e1 2E       		.uleb128 0x2e
 4111 11e2 01       		.uleb128 0x1
 4112 11e3 50       		.byte	0x50
 4113 11e4 02       		.uleb128 0x2
 4114 11e5 75       		.byte	0x75
 4115 11e6 00       		.sleb128 0
 4116 11e7 00       		.byte	0
 4117 11e8 00       		.byte	0
 4118 11e9 3A       		.uleb128 0x3a
 4119 11ea F9060000 		.4byte	0x6f9
 4120 11ee 42000000 		.4byte	.LBB103
 4121 11f2 02000000 		.4byte	.LBE103-.LBB103
 4122 11f6 01       		.byte	0x1
 4123 11f7 DD01     		.2byte	0x1dd
 4124 11f9 26       		.uleb128 0x26
 4125 11fa 09070000 		.4byte	0x709
 4126 11fe 4D080000 		.4byte	.LLST66
 4127 1202 00       		.byte	0
 4128 1203 00       		.byte	0
 4129 1204 21       		.uleb128 0x21
 4130 1205 61030000 		.4byte	.LASF123
 4131 1209 01       		.byte	0x1
 4132 120a 2601     		.2byte	0x126
 4133 120c 00000000 		.4byte	.LFB25
 4134 1210 20000000 		.4byte	.LFE25-.LFB25
 4135 1214 01       		.uleb128 0x1
 4136 1215 9C       		.byte	0x9c
 4137 1216 82120000 		.4byte	0x1282
 4138 121a 22       		.uleb128 0x22
 4139 121b 766D00   		.ascii	"vm\000"
 4140 121e 01       		.byte	0x1
 4141 121f 2601     		.2byte	0x126
 4142 1221 A1080000 		.4byte	0x8a1
 4143 1225 62080000 		.4byte	.LLST67
 4144 1229 22       		.uleb128 0x22
 4145 122a 7600     		.ascii	"v\000"
 4146 122c 01       		.byte	0x1
 4147 122d 2601     		.2byte	0x126
ARM GAS  C:\Users\164\AppData\Local\Temp\ccySM5k9.s 			page 93


 4148 122f E1050000 		.4byte	0x5e1
 4149 1233 8E080000 		.4byte	.LLST68
 4150 1237 23       		.uleb128 0x23
 4151 1238 B7040000 		.4byte	.LASF109
 4152 123c 01       		.byte	0x1
 4153 123d 2601     		.2byte	0x126
 4154 123f 25000000 		.4byte	0x25
 4155 1243 B7080000 		.4byte	.LLST69
 4156 1247 2B       		.uleb128 0x2b
 4157 1248 763100   		.ascii	"v1\000"
 4158 124b 01       		.byte	0x1
 4159 124c 2C01     		.2byte	0x12c
 4160 124e E1050000 		.4byte	0x5e1
 4161 1252 E3080000 		.4byte	.LLST70
 4162 1256 2B       		.uleb128 0x2b
 4163 1257 763200   		.ascii	"v2\000"
 4164 125a 01       		.byte	0x1
 4165 125b 2D01     		.2byte	0x12d
 4166 125d E1050000 		.4byte	0x5e1
 4167 1261 10090000 		.4byte	.LLST71
 4168 1265 2F       		.uleb128 0x2f
 4169 1266 14000000 		.4byte	.LVL129
 4170 126a F90F0000 		.4byte	0xff9
 4171 126e 2E       		.uleb128 0x2e
 4172 126f 01       		.uleb128 0x1
 4173 1270 50       		.byte	0x50
 4174 1271 02       		.uleb128 0x2
 4175 1272 74       		.byte	0x74
 4176 1273 00       		.sleb128 0
 4177 1274 2E       		.uleb128 0x2e
 4178 1275 01       		.uleb128 0x1
 4179 1276 51       		.byte	0x51
 4180 1277 02       		.uleb128 0x2
 4181 1278 74       		.byte	0x74
 4182 1279 10       		.sleb128 16
 4183 127a 2E       		.uleb128 0x2e
 4184 127b 01       		.uleb128 0x1
 4185 127c 52       		.byte	0x52
 4186 127d 02       		.uleb128 0x2
 4187 127e 74       		.byte	0x74
 4188 127f 20       		.sleb128 32
 4189 1280 00       		.byte	0
 4190 1281 00       		.byte	0
 4191 1282 32       		.uleb128 0x32
 4192 1283 A9040000 		.4byte	.LASF124
 4193 1287 01       		.byte	0x1
 4194 1288 A7       		.byte	0xa7
 4195 1289 A2040000 		.4byte	0x4a2
 4196 128d 00000000 		.4byte	.LFB18
 4197 1291 38000000 		.4byte	.LFE18-.LFB18
 4198 1295 01       		.uleb128 0x1
 4199 1296 9C       		.byte	0x9c
 4200 1297 05130000 		.4byte	0x1305
 4201 129b 34       		.uleb128 0x34
 4202 129c 5A050000 		.4byte	.LASF58
 4203 12a0 01       		.byte	0x1
 4204 12a1 A7       		.byte	0xa7
ARM GAS  C:\Users\164\AppData\Local\Temp\ccySM5k9.s 			page 94


 4205 12a2 E1050000 		.4byte	0x5e1
 4206 12a6 3D090000 		.4byte	.LLST72
 4207 12aa 33       		.uleb128 0x33
 4208 12ab 6B657900 		.ascii	"key\000"
 4209 12af 01       		.byte	0x1
 4210 12b0 A7       		.byte	0xa7
 4211 12b1 E1050000 		.4byte	0x5e1
 4212 12b5 69090000 		.4byte	.LLST73
 4213 12b9 36       		.uleb128 0x36
 4214 12ba 7600     		.ascii	"v\000"
 4215 12bc 01       		.byte	0x1
 4216 12bd A9       		.byte	0xa9
 4217 12be E1050000 		.4byte	0x5e1
 4218 12c2 8A090000 		.4byte	.LLST74
 4219 12c6 3B       		.uleb128 0x3b
 4220 12c7 15070000 		.4byte	0x715
 4221 12cb 1A000000 		.4byte	.LBB105
 4222 12cf 18000000 		.4byte	.LBE105-.LBB105
 4223 12d3 01       		.byte	0x1
 4224 12d4 AA       		.byte	0xaa
 4225 12d5 EC120000 		.4byte	0x12ec
 4226 12d9 28       		.uleb128 0x28
 4227 12da 1A000000 		.4byte	.LBB106
 4228 12de 18000000 		.4byte	.LBE106-.LBB106
 4229 12e2 29       		.uleb128 0x29
 4230 12e3 25070000 		.4byte	0x725
 4231 12e7 02       		.uleb128 0x2
 4232 12e8 91       		.byte	0x91
 4233 12e9 68       		.sleb128 -24
 4234 12ea 00       		.byte	0
 4235 12eb 00       		.byte	0
 4236 12ec 2F       		.uleb128 0x2f
 4237 12ed 0E000000 		.4byte	.LVL134
 4238 12f1 010F0000 		.4byte	0xf01
 4239 12f5 2E       		.uleb128 0x2e
 4240 12f6 01       		.uleb128 0x1
 4241 12f7 50       		.byte	0x50
 4242 12f8 03       		.uleb128 0x3
 4243 12f9 F3       		.byte	0xf3
 4244 12fa 01       		.uleb128 0x1
 4245 12fb 51       		.byte	0x51
 4246 12fc 2E       		.uleb128 0x2e
 4247 12fd 01       		.uleb128 0x1
 4248 12fe 51       		.byte	0x51
 4249 12ff 03       		.uleb128 0x3
 4250 1300 F3       		.byte	0xf3
 4251 1301 01       		.uleb128 0x1
 4252 1302 52       		.byte	0x52
 4253 1303 00       		.byte	0
 4254 1304 00       		.byte	0
 4255 1305 21       		.uleb128 0x21
 4256 1306 07050000 		.4byte	.LASF125
 4257 130a 01       		.byte	0x1
 4258 130b 1701     		.2byte	0x117
 4259 130d 00000000 		.4byte	.LFB24
 4260 1311 2E000000 		.4byte	.LFE24-.LFB24
 4261 1315 01       		.uleb128 0x1
ARM GAS  C:\Users\164\AppData\Local\Temp\ccySM5k9.s 			page 95


 4262 1316 9C       		.byte	0x9c
 4263 1317 9C130000 		.4byte	0x139c
 4264 131b 22       		.uleb128 0x22
 4265 131c 766D00   		.ascii	"vm\000"
 4266 131f 01       		.byte	0x1
 4267 1320 1701     		.2byte	0x117
 4268 1322 A1080000 		.4byte	0x8a1
 4269 1326 C0090000 		.4byte	.LLST75
 4270 132a 22       		.uleb128 0x22
 4271 132b 7600     		.ascii	"v\000"
 4272 132d 01       		.byte	0x1
 4273 132e 1701     		.2byte	0x117
 4274 1330 E1050000 		.4byte	0x5e1
 4275 1334 EC090000 		.4byte	.LLST76
 4276 1338 23       		.uleb128 0x23
 4277 1339 B7040000 		.4byte	.LASF109
 4278 133d 01       		.byte	0x1
 4279 133e 1701     		.2byte	0x117
 4280 1340 25000000 		.4byte	0x25
 4281 1344 150A0000 		.4byte	.LLST77
 4282 1348 24       		.uleb128 0x24
 4283 1349 76616C00 		.ascii	"val\000"
 4284 134d 01       		.byte	0x1
 4285 134e 1D01     		.2byte	0x11d
 4286 1350 A2040000 		.4byte	0x4a2
 4287 1354 02       		.uleb128 0x2
 4288 1355 91       		.byte	0x91
 4289 1356 60       		.sleb128 -32
 4290 1357 2D       		.uleb128 0x2d
 4291 1358 14000000 		.4byte	.LVL143
 4292 135c 82120000 		.4byte	0x1282
 4293 1360 77130000 		.4byte	0x1377
 4294 1364 2E       		.uleb128 0x2e
 4295 1365 01       		.uleb128 0x1
 4296 1366 50       		.byte	0x50
 4297 1367 02       		.uleb128 0x2
 4298 1368 7D       		.byte	0x7d
 4299 1369 00       		.sleb128 0
 4300 136a 2E       		.uleb128 0x2e
 4301 136b 01       		.uleb128 0x1
 4302 136c 51       		.byte	0x51
 4303 136d 02       		.uleb128 0x2
 4304 136e 74       		.byte	0x74
 4305 136f 00       		.sleb128 0
 4306 1370 2E       		.uleb128 0x2e
 4307 1371 01       		.uleb128 0x1
 4308 1372 52       		.byte	0x52
 4309 1373 02       		.uleb128 0x2
 4310 1374 74       		.byte	0x74
 4311 1375 10       		.sleb128 16
 4312 1376 00       		.byte	0
 4313 1377 2D       		.uleb128 0x2d
 4314 1378 1A000000 		.4byte	.LVL144
 4315 137c CE1B0000 		.4byte	0x1bce
 4316 1380 8B130000 		.4byte	0x138b
 4317 1384 2E       		.uleb128 0x2e
 4318 1385 01       		.uleb128 0x1
ARM GAS  C:\Users\164\AppData\Local\Temp\ccySM5k9.s 			page 96


 4319 1386 50       		.byte	0x50
 4320 1387 02       		.uleb128 0x2
 4321 1388 7D       		.byte	0x7d
 4322 1389 00       		.sleb128 0
 4323 138a 00       		.byte	0
 4324 138b 2F       		.uleb128 0x2f
 4325 138c 20000000 		.4byte	.LVL145
 4326 1390 E41B0000 		.4byte	0x1be4
 4327 1394 2E       		.uleb128 0x2e
 4328 1395 01       		.uleb128 0x1
 4329 1396 50       		.byte	0x50
 4330 1397 02       		.uleb128 0x2
 4331 1398 74       		.byte	0x74
 4332 1399 00       		.sleb128 0
 4333 139a 00       		.byte	0
 4334 139b 00       		.byte	0
 4335 139c 32       		.uleb128 0x32
 4336 139d DE000000 		.4byte	.LASF126
 4337 13a1 01       		.byte	0x1
 4338 13a2 B5       		.byte	0xb5
 4339 13a3 A2040000 		.4byte	0x4a2
 4340 13a7 00000000 		.4byte	.LFB19
 4341 13ab 68000000 		.4byte	.LFE19-.LFB19
 4342 13af 01       		.uleb128 0x1
 4343 13b0 9C       		.byte	0x9c
 4344 13b1 67140000 		.4byte	0x1467
 4345 13b5 34       		.uleb128 0x34
 4346 13b6 5A050000 		.4byte	.LASF58
 4347 13ba 01       		.byte	0x1
 4348 13bb B5       		.byte	0xb5
 4349 13bc E1050000 		.4byte	0x5e1
 4350 13c0 410A0000 		.4byte	.LLST78
 4351 13c4 33       		.uleb128 0x33
 4352 13c5 6B657900 		.ascii	"key\000"
 4353 13c9 01       		.byte	0x1
 4354 13ca B5       		.byte	0xb5
 4355 13cb E1050000 		.4byte	0x5e1
 4356 13cf 5F0A0000 		.4byte	.LLST79
 4357 13d3 36       		.uleb128 0x36
 4358 13d4 7600     		.ascii	"v\000"
 4359 13d6 01       		.byte	0x1
 4360 13d7 B7       		.byte	0xb7
 4361 13d8 E1050000 		.4byte	0x5e1
 4362 13dc 800A0000 		.4byte	.LLST80
 4363 13e0 38       		.uleb128 0x38
 4364 13e1 76616C00 		.ascii	"val\000"
 4365 13e5 01       		.byte	0x1
 4366 13e6 BB       		.byte	0xbb
 4367 13e7 A2040000 		.4byte	0x4a2
 4368 13eb 02       		.uleb128 0x2
 4369 13ec 91       		.byte	0x91
 4370 13ed 58       		.sleb128 -40
 4371 13ee 36       		.uleb128 0x36
 4372 13ef 6800     		.ascii	"h\000"
 4373 13f1 01       		.byte	0x1
 4374 13f2 BD       		.byte	0xbd
 4375 13f3 6F060000 		.4byte	0x66f
ARM GAS  C:\Users\164\AppData\Local\Temp\ccySM5k9.s 			page 97


 4376 13f7 A90A0000 		.4byte	.LLST81
 4377 13fb 3B       		.uleb128 0x3b
 4378 13fc 15070000 		.4byte	0x715
 4379 1400 12000000 		.4byte	.LBB107
 4380 1404 1C000000 		.4byte	.LBE107-.LBB107
 4381 1408 01       		.byte	0x1
 4382 1409 B8       		.byte	0xb8
 4383 140a 21140000 		.4byte	0x1421
 4384 140e 28       		.uleb128 0x28
 4385 140f 12000000 		.4byte	.LBB108
 4386 1413 1C000000 		.4byte	.LBE108-.LBB108
 4387 1417 29       		.uleb128 0x29
 4388 1418 25070000 		.4byte	0x725
 4389 141c 02       		.uleb128 0x2
 4390 141d 91       		.byte	0x91
 4391 141e 48       		.sleb128 -56
 4392 141f 00       		.byte	0
 4393 1420 00       		.byte	0
 4394 1421 2D       		.uleb128 0x2d
 4395 1422 10000000 		.4byte	.LVL150
 4396 1426 010F0000 		.4byte	0xf01
 4397 142a 3C140000 		.4byte	0x143c
 4398 142e 2E       		.uleb128 0x2e
 4399 142f 01       		.uleb128 0x1
 4400 1430 50       		.byte	0x50
 4401 1431 02       		.uleb128 0x2
 4402 1432 77       		.byte	0x77
 4403 1433 00       		.sleb128 0
 4404 1434 2E       		.uleb128 0x2e
 4405 1435 01       		.uleb128 0x1
 4406 1436 51       		.byte	0x51
 4407 1437 03       		.uleb128 0x3
 4408 1438 F3       		.byte	0xf3
 4409 1439 01       		.uleb128 0x1
 4410 143a 52       		.byte	0x52
 4411 143b 00       		.byte	0
 4412 143c 2D       		.uleb128 0x2d
 4413 143d 32000000 		.4byte	.LVL153
 4414 1441 1B1C0000 		.4byte	0x1c1b
 4415 1445 50140000 		.4byte	0x1450
 4416 1449 2E       		.uleb128 0x2e
 4417 144a 01       		.uleb128 0x1
 4418 144b 50       		.byte	0x50
 4419 144c 02       		.uleb128 0x2
 4420 144d 76       		.byte	0x76
 4421 144e 00       		.sleb128 0
 4422 144f 00       		.byte	0
 4423 1450 2F       		.uleb128 0x2f
 4424 1451 5A000000 		.4byte	.LVL156
 4425 1455 261C0000 		.4byte	0x1c26
 4426 1459 2E       		.uleb128 0x2e
 4427 145a 01       		.uleb128 0x1
 4428 145b 50       		.byte	0x50
 4429 145c 02       		.uleb128 0x2
 4430 145d 76       		.byte	0x76
 4431 145e 00       		.sleb128 0
 4432 145f 2E       		.uleb128 0x2e
ARM GAS  C:\Users\164\AppData\Local\Temp\ccySM5k9.s 			page 98


 4433 1460 01       		.uleb128 0x1
 4434 1461 51       		.byte	0x51
 4435 1462 02       		.uleb128 0x2
 4436 1463 76       		.byte	0x76
 4437 1464 20       		.sleb128 32
 4438 1465 00       		.byte	0
 4439 1466 00       		.byte	0
 4440 1467 21       		.uleb128 0x21
 4441 1468 2B030000 		.4byte	.LASF127
 4442 146c 01       		.byte	0x1
 4443 146d 4B01     		.2byte	0x14b
 4444 146f 00000000 		.4byte	.LFB28
 4445 1473 22000000 		.4byte	.LFE28-.LFB28
 4446 1477 01       		.uleb128 0x1
 4447 1478 9C       		.byte	0x9c
 4448 1479 EA140000 		.4byte	0x14ea
 4449 147d 22       		.uleb128 0x22
 4450 147e 766D00   		.ascii	"vm\000"
 4451 1481 01       		.byte	0x1
 4452 1482 4B01     		.2byte	0x14b
 4453 1484 A1080000 		.4byte	0x8a1
 4454 1488 BC0A0000 		.4byte	.LLST82
 4455 148c 22       		.uleb128 0x22
 4456 148d 7600     		.ascii	"v\000"
 4457 148f 01       		.byte	0x1
 4458 1490 4B01     		.2byte	0x14b
 4459 1492 E1050000 		.4byte	0x5e1
 4460 1496 DD0A0000 		.4byte	.LLST83
 4461 149a 23       		.uleb128 0x23
 4462 149b B7040000 		.4byte	.LASF109
 4463 149f 01       		.byte	0x1
 4464 14a0 4B01     		.2byte	0x14b
 4465 14a2 25000000 		.4byte	0x25
 4466 14a6 FB0A0000 		.4byte	.LLST84
 4467 14aa 24       		.uleb128 0x24
 4468 14ab 72657400 		.ascii	"ret\000"
 4469 14af 01       		.byte	0x1
 4470 14b0 4F01     		.2byte	0x14f
 4471 14b2 A2040000 		.4byte	0x4a2
 4472 14b6 02       		.uleb128 0x2
 4473 14b7 91       		.byte	0x91
 4474 14b8 60       		.sleb128 -32
 4475 14b9 2D       		.uleb128 0x2d
 4476 14ba 10000000 		.4byte	.LVL161
 4477 14be 9C130000 		.4byte	0x139c
 4478 14c2 D9140000 		.4byte	0x14d9
 4479 14c6 2E       		.uleb128 0x2e
 4480 14c7 01       		.uleb128 0x1
 4481 14c8 50       		.byte	0x50
 4482 14c9 02       		.uleb128 0x2
 4483 14ca 7D       		.byte	0x7d
 4484 14cb 00       		.sleb128 0
 4485 14cc 2E       		.uleb128 0x2e
 4486 14cd 01       		.uleb128 0x1
 4487 14ce 51       		.byte	0x51
 4488 14cf 02       		.uleb128 0x2
 4489 14d0 74       		.byte	0x74
ARM GAS  C:\Users\164\AppData\Local\Temp\ccySM5k9.s 			page 99


 4490 14d1 00       		.sleb128 0
 4491 14d2 2E       		.uleb128 0x2e
 4492 14d3 01       		.uleb128 0x1
 4493 14d4 52       		.byte	0x52
 4494 14d5 02       		.uleb128 0x2
 4495 14d6 74       		.byte	0x74
 4496 14d7 10       		.sleb128 16
 4497 14d8 00       		.byte	0
 4498 14d9 2F       		.uleb128 0x2f
 4499 14da 16000000 		.4byte	.LVL162
 4500 14de E41B0000 		.4byte	0x1be4
 4501 14e2 2E       		.uleb128 0x2e
 4502 14e3 01       		.uleb128 0x1
 4503 14e4 50       		.byte	0x50
 4504 14e5 02       		.uleb128 0x2
 4505 14e6 74       		.byte	0x74
 4506 14e7 00       		.sleb128 0
 4507 14e8 00       		.byte	0
 4508 14e9 00       		.byte	0
 4509 14ea 37       		.uleb128 0x37
 4510 14eb 87030000 		.4byte	.LASF129
 4511 14ef 01       		.byte	0x1
 4512 14f0 CD       		.byte	0xcd
 4513 14f1 00000000 		.4byte	.LFB20
 4514 14f5 08000000 		.4byte	.LFE20-.LFB20
 4515 14f9 01       		.uleb128 0x1
 4516 14fa 9C       		.byte	0x9c
 4517 14fb 20150000 		.4byte	0x1520
 4518 14ff 34       		.uleb128 0x34
 4519 1500 5A050000 		.4byte	.LASF58
 4520 1504 01       		.byte	0x1
 4521 1505 CD       		.byte	0xcd
 4522 1506 E1050000 		.4byte	0x5e1
 4523 150a 1C0B0000 		.4byte	.LLST85
 4524 150e 2F       		.uleb128 0x2f
 4525 150f 06000000 		.4byte	.LVL164
 4526 1513 311C0000 		.4byte	0x1c31
 4527 1517 2E       		.uleb128 0x2e
 4528 1518 01       		.uleb128 0x1
 4529 1519 50       		.byte	0x50
 4530 151a 03       		.uleb128 0x3
 4531 151b F3       		.byte	0xf3
 4532 151c 01       		.uleb128 0x1
 4533 151d 50       		.byte	0x50
 4534 151e 00       		.byte	0
 4535 151f 00       		.byte	0
 4536 1520 21       		.uleb128 0x21
 4537 1521 55040000 		.4byte	.LASF130
 4538 1525 01       		.byte	0x1
 4539 1526 3701     		.2byte	0x137
 4540 1528 00000000 		.4byte	.LFB26
 4541 152c 0A000000 		.4byte	.LFE26-.LFB26
 4542 1530 01       		.uleb128 0x1
 4543 1531 9C       		.byte	0x9c
 4544 1532 75150000 		.4byte	0x1575
 4545 1536 22       		.uleb128 0x22
 4546 1537 766D00   		.ascii	"vm\000"
ARM GAS  C:\Users\164\AppData\Local\Temp\ccySM5k9.s 			page 100


 4547 153a 01       		.byte	0x1
 4548 153b 3701     		.2byte	0x137
 4549 153d A1080000 		.4byte	0x8a1
 4550 1541 3D0B0000 		.4byte	.LLST86
 4551 1545 22       		.uleb128 0x22
 4552 1546 7600     		.ascii	"v\000"
 4553 1548 01       		.byte	0x1
 4554 1549 3701     		.2byte	0x137
 4555 154b E1050000 		.4byte	0x5e1
 4556 154f 5E0B0000 		.4byte	.LLST87
 4557 1553 23       		.uleb128 0x23
 4558 1554 B7040000 		.4byte	.LASF109
 4559 1558 01       		.byte	0x1
 4560 1559 3701     		.2byte	0x137
 4561 155b 25000000 		.4byte	0x25
 4562 155f 7F0B0000 		.4byte	.LLST88
 4563 1563 2F       		.uleb128 0x2f
 4564 1564 08000000 		.4byte	.LVL167
 4565 1568 EA140000 		.4byte	0x14ea
 4566 156c 2E       		.uleb128 0x2e
 4567 156d 01       		.uleb128 0x1
 4568 156e 50       		.byte	0x50
 4569 156f 03       		.uleb128 0x3
 4570 1570 F3       		.byte	0xf3
 4571 1571 01       		.uleb128 0x1
 4572 1572 51       		.byte	0x51
 4573 1573 00       		.byte	0
 4574 1574 00       		.byte	0
 4575 1575 32       		.uleb128 0x32
 4576 1576 3F070000 		.4byte	.LASF131
 4577 157a 01       		.byte	0x1
 4578 157b DD       		.byte	0xdd
 4579 157c 25000000 		.4byte	0x25
 4580 1580 00000000 		.4byte	.LFB21
 4581 1584 4E000000 		.4byte	.LFE21-.LFB21
 4582 1588 01       		.uleb128 0x1
 4583 1589 9C       		.byte	0x9c
 4584 158a 21160000 		.4byte	0x1621
 4585 158e 33       		.uleb128 0x33
 4586 158f 763100   		.ascii	"v1\000"
 4587 1592 01       		.byte	0x1
 4588 1593 DD       		.byte	0xdd
 4589 1594 C1060000 		.4byte	0x6c1
 4590 1598 A00B0000 		.4byte	.LLST89
 4591 159c 33       		.uleb128 0x33
 4592 159d 763200   		.ascii	"v2\000"
 4593 15a0 01       		.byte	0x1
 4594 15a1 DD       		.byte	0xdd
 4595 15a2 C1060000 		.4byte	0x6c1
 4596 15a6 E20B0000 		.4byte	.LLST90
 4597 15aa 36       		.uleb128 0x36
 4598 15ab 643100   		.ascii	"d1\000"
 4599 15ae 01       		.byte	0x1
 4600 15af E1       		.byte	0xe1
 4601 15b0 E1050000 		.4byte	0x5e1
 4602 15b4 160C0000 		.4byte	.LLST91
 4603 15b8 36       		.uleb128 0x36
ARM GAS  C:\Users\164\AppData\Local\Temp\ccySM5k9.s 			page 101


 4604 15b9 6900     		.ascii	"i\000"
 4605 15bb 01       		.byte	0x1
 4606 15bc E2       		.byte	0xe2
 4607 15bd 25000000 		.4byte	0x25
 4608 15c1 710C0000 		.4byte	.LLST92
 4609 15c5 31       		.uleb128 0x31
 4610 15c6 18000000 		.4byte	.Ldebug_ranges0+0x18
 4611 15ca 07160000 		.4byte	0x1607
 4612 15ce 36       		.uleb128 0x36
 4613 15cf 643200   		.ascii	"d2\000"
 4614 15d2 01       		.byte	0x1
 4615 15d3 E4       		.byte	0xe4
 4616 15d4 E1050000 		.4byte	0x5e1
 4617 15d8 9B0C0000 		.4byte	.LLST93
 4618 15dc 2D       		.uleb128 0x2d
 4619 15dd 20000000 		.4byte	.LVL171
 4620 15e1 010F0000 		.4byte	0xf01
 4621 15e5 F6150000 		.4byte	0x15f6
 4622 15e9 2E       		.uleb128 0x2e
 4623 15ea 01       		.uleb128 0x1
 4624 15eb 50       		.byte	0x50
 4625 15ec 02       		.uleb128 0x2
 4626 15ed 77       		.byte	0x77
 4627 15ee 00       		.sleb128 0
 4628 15ef 2E       		.uleb128 0x2e
 4629 15f0 01       		.uleb128 0x1
 4630 15f1 51       		.byte	0x51
 4631 15f2 02       		.uleb128 0x2
 4632 15f3 74       		.byte	0x74
 4633 15f4 00       		.sleb128 0
 4634 15f5 00       		.byte	0
 4635 15f6 2F       		.uleb128 0x2f
 4636 15f7 2E000000 		.4byte	.LVL175
 4637 15fb EF1B0000 		.4byte	0x1bef
 4638 15ff 2E       		.uleb128 0x2e
 4639 1600 01       		.uleb128 0x1
 4640 1601 50       		.byte	0x50
 4641 1602 02       		.uleb128 0x2
 4642 1603 74       		.byte	0x74
 4643 1604 10       		.sleb128 16
 4644 1605 00       		.byte	0
 4645 1606 00       		.byte	0
 4646 1607 3C       		.uleb128 0x3c
 4647 1608 A5060000 		.4byte	0x6a5
 4648 160c 34000000 		.4byte	.LBB110
 4649 1610 04000000 		.4byte	.LBE110-.LBB110
 4650 1614 01       		.byte	0x1
 4651 1615 E3       		.byte	0xe3
 4652 1616 26       		.uleb128 0x26
 4653 1617 B5060000 		.4byte	0x6b5
 4654 161b DC0C0000 		.4byte	.LLST94
 4655 161f 00       		.byte	0
 4656 1620 00       		.byte	0
 4657 1621 32       		.uleb128 0x32
 4658 1622 D8030000 		.4byte	.LASF132
 4659 1626 01       		.byte	0x1
 4660 1627 F3       		.byte	0xf3
ARM GAS  C:\Users\164\AppData\Local\Temp\ccySM5k9.s 			page 102


 4661 1628 A2040000 		.4byte	0x4a2
 4662 162c 00000000 		.4byte	.LFB22
 4663 1630 42000000 		.4byte	.LFE22-.LFB22
 4664 1634 01       		.uleb128 0x1
 4665 1635 9C       		.byte	0x9c
 4666 1636 E1160000 		.4byte	0x16e1
 4667 163a 33       		.uleb128 0x33
 4668 163b 766D00   		.ascii	"vm\000"
 4669 163e 01       		.byte	0x1
 4670 163f F3       		.byte	0xf3
 4671 1640 2A010000 		.4byte	0x12a
 4672 1644 EF0C0000 		.4byte	.LLST95
 4673 1648 33       		.uleb128 0x33
 4674 1649 73726300 		.ascii	"src\000"
 4675 164d 01       		.byte	0x1
 4676 164e F3       		.byte	0xf3
 4677 164f E1050000 		.4byte	0x5e1
 4678 1653 100D0000 		.4byte	.LLST96
 4679 1657 36       		.uleb128 0x36
 4680 1658 72657400 		.ascii	"ret\000"
 4681 165c 01       		.byte	0x1
 4682 165d F5       		.byte	0xf5
 4683 165e A2040000 		.4byte	0x4a2
 4684 1662 3C0D0000 		.4byte	.LLST97
 4685 1666 36       		.uleb128 0x36
 4686 1667 6800     		.ascii	"h\000"
 4687 1669 01       		.byte	0x1
 4688 166a F8       		.byte	0xf8
 4689 166b 6F060000 		.4byte	0x66f
 4690 166f 5C0D0000 		.4byte	.LLST98
 4691 1673 36       		.uleb128 0x36
 4692 1674 703100   		.ascii	"p1\000"
 4693 1677 01       		.byte	0x1
 4694 1678 FC       		.byte	0xfc
 4695 1679 E1050000 		.4byte	0x5e1
 4696 167d 6F0D0000 		.4byte	.LLST99
 4697 1681 36       		.uleb128 0x36
 4698 1682 703200   		.ascii	"p2\000"
 4699 1685 01       		.byte	0x1
 4700 1686 FD       		.byte	0xfd
 4701 1687 C1060000 		.4byte	0x6c1
 4702 168b 980D0000 		.4byte	.LLST100
 4703 168f 3B       		.uleb128 0x3b
 4704 1690 A5060000 		.4byte	0x6a5
 4705 1694 06000000 		.4byte	.LBB113
 4706 1698 04000000 		.4byte	.LBE113-.LBB113
 4707 169c 01       		.byte	0x1
 4708 169d F5       		.byte	0xf5
 4709 169e AC160000 		.4byte	0x16ac
 4710 16a2 26       		.uleb128 0x26
 4711 16a3 B5060000 		.4byte	0x6b5
 4712 16a7 AB0D0000 		.4byte	.LLST101
 4713 16ab 00       		.byte	0
 4714 16ac 2D       		.uleb128 0x2d
 4715 16ad 10000000 		.4byte	.LVL187
 4716 16b1 A10D0000 		.4byte	0xda1
 4717 16b5 C7160000 		.4byte	0x16c7
ARM GAS  C:\Users\164\AppData\Local\Temp\ccySM5k9.s 			page 103


 4718 16b9 2E       		.uleb128 0x2e
 4719 16ba 01       		.uleb128 0x1
 4720 16bb 50       		.byte	0x50
 4721 16bc 02       		.uleb128 0x2
 4722 16bd 76       		.byte	0x76
 4723 16be 00       		.sleb128 0
 4724 16bf 2E       		.uleb128 0x2e
 4725 16c0 01       		.uleb128 0x1
 4726 16c1 51       		.byte	0x51
 4727 16c2 03       		.uleb128 0x3
 4728 16c3 F3       		.byte	0xf3
 4729 16c4 01       		.uleb128 0x1
 4730 16c5 51       		.byte	0x51
 4731 16c6 00       		.byte	0
 4732 16c7 3D       		.uleb128 0x3d
 4733 16c8 22000000 		.4byte	.LVL189
 4734 16cc 3C1C0000 		.4byte	0x1c3c
 4735 16d0 2F       		.uleb128 0x2f
 4736 16d1 38000000 		.4byte	.LVL194
 4737 16d5 CE1B0000 		.4byte	0x1bce
 4738 16d9 2E       		.uleb128 0x2e
 4739 16da 01       		.uleb128 0x1
 4740 16db 50       		.byte	0x50
 4741 16dc 02       		.uleb128 0x2
 4742 16dd 74       		.byte	0x74
 4743 16de 70       		.sleb128 -16
 4744 16df 00       		.byte	0
 4745 16e0 00       		.byte	0
 4746 16e1 21       		.uleb128 0x21
 4747 16e2 70040000 		.4byte	.LASF133
 4748 16e6 01       		.byte	0x1
 4749 16e7 C601     		.2byte	0x1c6
 4750 16e9 00000000 		.4byte	.LFB35
 4751 16ed 66000000 		.4byte	.LFE35-.LFB35
 4752 16f1 01       		.uleb128 0x1
 4753 16f2 9C       		.byte	0x9c
 4754 16f3 50180000 		.4byte	0x1850
 4755 16f7 22       		.uleb128 0x22
 4756 16f8 766D00   		.ascii	"vm\000"
 4757 16fb 01       		.byte	0x1
 4758 16fc C601     		.2byte	0x1c6
 4759 16fe A1080000 		.4byte	0x8a1
 4760 1702 BE0D0000 		.4byte	.LLST102
 4761 1706 22       		.uleb128 0x22
 4762 1707 7600     		.ascii	"v\000"
 4763 1709 01       		.byte	0x1
 4764 170a C601     		.2byte	0x1c6
 4765 170c E1050000 		.4byte	0x5e1
 4766 1710 EA0D0000 		.4byte	.LLST103
 4767 1714 23       		.uleb128 0x23
 4768 1715 B7040000 		.4byte	.LASF109
 4769 1719 01       		.byte	0x1
 4770 171a C601     		.2byte	0x1c6
 4771 171c 25000000 		.4byte	0x25
 4772 1720 130E0000 		.4byte	.LLST104
 4773 1724 24       		.uleb128 0x24
 4774 1725 72657400 		.ascii	"ret\000"
ARM GAS  C:\Users\164\AppData\Local\Temp\ccySM5k9.s 			page 104


 4775 1729 01       		.byte	0x1
 4776 172a C801     		.2byte	0x1c8
 4777 172c A2040000 		.4byte	0x4a2
 4778 1730 02       		.uleb128 0x2
 4779 1731 91       		.byte	0x91
 4780 1732 58       		.sleb128 -40
 4781 1733 24       		.uleb128 0x24
 4782 1734 69746500 		.ascii	"ite\000"
 4783 1738 01       		.byte	0x1
 4784 1739 C901     		.2byte	0x1c9
 4785 173b 75060000 		.4byte	0x675
 4786 173f 02       		.uleb128 0x2
 4787 1740 91       		.byte	0x91
 4788 1741 4C       		.sleb128 -52
 4789 1742 25       		.uleb128 0x25
 4790 1743 80060000 		.4byte	0x680
 4791 1747 10000000 		.4byte	.LBB115
 4792 174b 1C000000 		.4byte	.LBE115-.LBB115
 4793 174f 01       		.byte	0x1
 4794 1750 C901     		.2byte	0x1c9
 4795 1752 72170000 		.4byte	0x1772
 4796 1756 27       		.uleb128 0x27
 4797 1757 90060000 		.4byte	0x690
 4798 175b 03       		.uleb128 0x3
 4799 175c 77       		.byte	0x77
 4800 175d 10       		.sleb128 16
 4801 175e 9F       		.byte	0x9f
 4802 175f 28       		.uleb128 0x28
 4803 1760 10000000 		.4byte	.LBB116
 4804 1764 1C000000 		.4byte	.LBE116-.LBB116
 4805 1768 29       		.uleb128 0x29
 4806 1769 99060000 		.4byte	0x699
 4807 176d 02       		.uleb128 0x2
 4808 176e 91       		.byte	0x91
 4809 176f 40       		.sleb128 -64
 4810 1770 00       		.byte	0
 4811 1771 00       		.byte	0
 4812 1772 2A       		.uleb128 0x2a
 4813 1773 2C000000 		.4byte	.LBB117
 4814 1777 20000000 		.4byte	.LBE117-.LBB117
 4815 177b 00180000 		.4byte	0x1800
 4816 177f 30       		.uleb128 0x30
 4817 1780 6B7600   		.ascii	"kv\000"
 4818 1783 01       		.byte	0x1
 4819 1784 CC01     		.2byte	0x1cc
 4820 1786 E1050000 		.4byte	0x5e1
 4821 178a 25       		.uleb128 0x25
 4822 178b CC060000 		.4byte	0x6cc
 4823 178f 2C000000 		.4byte	.LBB118
 4824 1793 06000000 		.4byte	.LBE118-.LBB118
 4825 1797 01       		.byte	0x1
 4826 1798 CC01     		.2byte	0x1cc
 4827 179a BB170000 		.4byte	0x17bb
 4828 179e 26       		.uleb128 0x26
 4829 179f DC060000 		.4byte	0x6dc
 4830 17a3 340E0000 		.4byte	.LLST105
 4831 17a7 28       		.uleb128 0x28
ARM GAS  C:\Users\164\AppData\Local\Temp\ccySM5k9.s 			page 105


 4832 17a8 2C000000 		.4byte	.LBB119
 4833 17ac 06000000 		.4byte	.LBE119-.LBB119
 4834 17b0 2C       		.uleb128 0x2c
 4835 17b1 E7060000 		.4byte	0x6e7
 4836 17b5 490E0000 		.4byte	.LLST106
 4837 17b9 00       		.byte	0
 4838 17ba 00       		.byte	0
 4839 17bb 2D       		.uleb128 0x2d
 4840 17bc 40000000 		.4byte	.LVL204
 4841 17c0 F90F0000 		.4byte	0xff9
 4842 17c4 DB170000 		.4byte	0x17db
 4843 17c8 2E       		.uleb128 0x2e
 4844 17c9 01       		.uleb128 0x1
 4845 17ca 50       		.byte	0x50
 4846 17cb 02       		.uleb128 0x2
 4847 17cc 91       		.byte	0x91
 4848 17cd 58       		.sleb128 -40
 4849 17ce 2E       		.uleb128 0x2e
 4850 17cf 01       		.uleb128 0x1
 4851 17d0 51       		.byte	0x51
 4852 17d1 02       		.uleb128 0x2
 4853 17d2 74       		.byte	0x74
 4854 17d3 00       		.sleb128 0
 4855 17d4 2E       		.uleb128 0x2e
 4856 17d5 01       		.uleb128 0x1
 4857 17d6 52       		.byte	0x52
 4858 17d7 02       		.uleb128 0x2
 4859 17d8 75       		.byte	0x75
 4860 17d9 00       		.sleb128 0
 4861 17da 00       		.byte	0
 4862 17db 2D       		.uleb128 0x2d
 4863 17dc 46000000 		.4byte	.LVL205
 4864 17e0 CE1B0000 		.4byte	0x1bce
 4865 17e4 EF170000 		.4byte	0x17ef
 4866 17e8 2E       		.uleb128 0x2e
 4867 17e9 01       		.uleb128 0x1
 4868 17ea 50       		.byte	0x50
 4869 17eb 02       		.uleb128 0x2
 4870 17ec 74       		.byte	0x74
 4871 17ed 00       		.sleb128 0
 4872 17ee 00       		.byte	0
 4873 17ef 2F       		.uleb128 0x2f
 4874 17f0 4C000000 		.4byte	.LVL206
 4875 17f4 CE1B0000 		.4byte	0x1bce
 4876 17f8 2E       		.uleb128 0x2e
 4877 17f9 01       		.uleb128 0x1
 4878 17fa 50       		.byte	0x50
 4879 17fb 02       		.uleb128 0x2
 4880 17fc 75       		.byte	0x75
 4881 17fd 00       		.sleb128 0
 4882 17fe 00       		.byte	0
 4883 17ff 00       		.byte	0
 4884 1800 25       		.uleb128 0x25
 4885 1801 F9060000 		.4byte	0x6f9
 4886 1805 4C000000 		.4byte	.LBB120
 4887 1809 02000000 		.4byte	.LBE120-.LBB120
 4888 180d 01       		.byte	0x1
ARM GAS  C:\Users\164\AppData\Local\Temp\ccySM5k9.s 			page 106


 4889 180e CB01     		.2byte	0x1cb
 4890 1810 1E180000 		.4byte	0x181e
 4891 1814 26       		.uleb128 0x26
 4892 1815 09070000 		.4byte	0x709
 4893 1819 5C0E0000 		.4byte	.LLST107
 4894 181d 00       		.byte	0
 4895 181e 2D       		.uleb128 0x2d
 4896 181f 10000000 		.4byte	.LVL201
 4897 1823 21160000 		.4byte	0x1621
 4898 1827 3F180000 		.4byte	0x183f
 4899 182b 2E       		.uleb128 0x2e
 4900 182c 01       		.uleb128 0x1
 4901 182d 50       		.byte	0x50
 4902 182e 02       		.uleb128 0x2
 4903 182f 91       		.byte	0x91
 4904 1830 58       		.sleb128 -40
 4905 1831 2E       		.uleb128 0x2e
 4906 1832 01       		.uleb128 0x1
 4907 1833 51       		.byte	0x51
 4908 1834 03       		.uleb128 0x3
 4909 1835 F3       		.byte	0xf3
 4910 1836 01       		.uleb128 0x1
 4911 1837 50       		.byte	0x50
 4912 1838 2E       		.uleb128 0x2e
 4913 1839 01       		.uleb128 0x1
 4914 183a 52       		.byte	0x52
 4915 183b 02       		.uleb128 0x2
 4916 183c 77       		.byte	0x77
 4917 183d 00       		.sleb128 0
 4918 183e 00       		.byte	0
 4919 183f 2F       		.uleb128 0x2f
 4920 1840 58000000 		.4byte	.LVL208
 4921 1844 E41B0000 		.4byte	0x1be4
 4922 1848 2E       		.uleb128 0x2e
 4923 1849 01       		.uleb128 0x1
 4924 184a 50       		.byte	0x50
 4925 184b 02       		.uleb128 0x2
 4926 184c 77       		.byte	0x77
 4927 184d 00       		.sleb128 0
 4928 184e 00       		.byte	0
 4929 184f 00       		.byte	0
 4930 1850 21       		.uleb128 0x21
 4931 1851 19040000 		.4byte	.LASF134
 4932 1855 01       		.byte	0x1
 4933 1856 4001     		.2byte	0x140
 4934 1858 00000000 		.4byte	.LFB27
 4935 185c 22000000 		.4byte	.LFE27-.LFB27
 4936 1860 01       		.uleb128 0x1
 4937 1861 9C       		.byte	0x9c
 4938 1862 D4180000 		.4byte	0x18d4
 4939 1866 22       		.uleb128 0x22
 4940 1867 766D00   		.ascii	"vm\000"
 4941 186a 01       		.byte	0x1
 4942 186b 4001     		.2byte	0x140
 4943 186d A1080000 		.4byte	0x8a1
 4944 1871 710E0000 		.4byte	.LLST108
 4945 1875 22       		.uleb128 0x22
ARM GAS  C:\Users\164\AppData\Local\Temp\ccySM5k9.s 			page 107


 4946 1876 7600     		.ascii	"v\000"
 4947 1878 01       		.byte	0x1
 4948 1879 4001     		.2byte	0x140
 4949 187b E1050000 		.4byte	0x5e1
 4950 187f 9D0E0000 		.4byte	.LLST109
 4951 1883 23       		.uleb128 0x23
 4952 1884 B7040000 		.4byte	.LASF109
 4953 1888 01       		.byte	0x1
 4954 1889 4001     		.2byte	0x140
 4955 188b 25000000 		.4byte	0x25
 4956 188f C60E0000 		.4byte	.LLST110
 4957 1893 24       		.uleb128 0x24
 4958 1894 72657400 		.ascii	"ret\000"
 4959 1898 01       		.byte	0x1
 4960 1899 4201     		.2byte	0x142
 4961 189b A2040000 		.4byte	0x4a2
 4962 189f 02       		.uleb128 0x2
 4963 18a0 91       		.byte	0x91
 4964 18a1 60       		.sleb128 -32
 4965 18a2 2D       		.uleb128 0x2d
 4966 18a3 10000000 		.4byte	.LVL213
 4967 18a7 21160000 		.4byte	0x1621
 4968 18ab C3180000 		.4byte	0x18c3
 4969 18af 2E       		.uleb128 0x2e
 4970 18b0 01       		.uleb128 0x1
 4971 18b1 50       		.byte	0x50
 4972 18b2 02       		.uleb128 0x2
 4973 18b3 7D       		.byte	0x7d
 4974 18b4 00       		.sleb128 0
 4975 18b5 2E       		.uleb128 0x2e
 4976 18b6 01       		.uleb128 0x1
 4977 18b7 51       		.byte	0x51
 4978 18b8 03       		.uleb128 0x3
 4979 18b9 F3       		.byte	0xf3
 4980 18ba 01       		.uleb128 0x1
 4981 18bb 50       		.byte	0x50
 4982 18bc 2E       		.uleb128 0x2e
 4983 18bd 01       		.uleb128 0x1
 4984 18be 52       		.byte	0x52
 4985 18bf 02       		.uleb128 0x2
 4986 18c0 74       		.byte	0x74
 4987 18c1 00       		.sleb128 0
 4988 18c2 00       		.byte	0
 4989 18c3 2F       		.uleb128 0x2f
 4990 18c4 16000000 		.4byte	.LVL214
 4991 18c8 E41B0000 		.4byte	0x1be4
 4992 18cc 2E       		.uleb128 0x2e
 4993 18cd 01       		.uleb128 0x1
 4994 18ce 50       		.byte	0x50
 4995 18cf 02       		.uleb128 0x2
 4996 18d0 74       		.byte	0x74
 4997 18d1 00       		.sleb128 0
 4998 18d2 00       		.byte	0
 4999 18d3 00       		.byte	0
 5000 18d4 3E       		.uleb128 0x3e
 5001 18d5 0F070000 		.4byte	.LASF135
 5002 18d9 01       		.byte	0x1
ARM GAS  C:\Users\164\AppData\Local\Temp\ccySM5k9.s 			page 108


 5003 18da F901     		.2byte	0x1f9
 5004 18dc 00000000 		.4byte	.LFB38
 5005 18e0 84010000 		.4byte	.LFE38-.LFB38
 5006 18e4 01       		.uleb128 0x1
 5007 18e5 9C       		.byte	0x9c
 5008 18e6 AD1B0000 		.4byte	0x1bad
 5009 18ea 22       		.uleb128 0x22
 5010 18eb 766D00   		.ascii	"vm\000"
 5011 18ee 01       		.byte	0x1
 5012 18ef F901     		.2byte	0x1f9
 5013 18f1 2A010000 		.4byte	0x12a
 5014 18f5 E70E0000 		.4byte	.LLST111
 5015 18f9 2D       		.uleb128 0x2d
 5016 18fa 0E000000 		.4byte	.LVL216
 5017 18fe 451C0000 		.4byte	0x1c45
 5018 1902 16190000 		.4byte	0x1916
 5019 1906 2E       		.uleb128 0x2e
 5020 1907 01       		.uleb128 0x1
 5021 1908 50       		.byte	0x50
 5022 1909 02       		.uleb128 0x2
 5023 190a 74       		.byte	0x74
 5024 190b 00       		.sleb128 0
 5025 190c 2E       		.uleb128 0x2e
 5026 190d 01       		.uleb128 0x1
 5027 190e 51       		.byte	0x51
 5028 190f 05       		.uleb128 0x5
 5029 1910 03       		.byte	0x3
 5030 1911 00000000 		.4byte	.LC0
 5031 1915 00       		.byte	0
 5032 1916 2D       		.uleb128 0x2d
 5033 1917 1E000000 		.4byte	.LVL217
 5034 191b 501C0000 		.4byte	0x1c50
 5035 191f 3C190000 		.4byte	0x193c
 5036 1923 2E       		.uleb128 0x2e
 5037 1924 01       		.uleb128 0x1
 5038 1925 50       		.byte	0x50
 5039 1926 02       		.uleb128 0x2
 5040 1927 74       		.byte	0x74
 5041 1928 00       		.sleb128 0
 5042 1929 2E       		.uleb128 0x2e
 5043 192a 01       		.uleb128 0x1
 5044 192b 52       		.byte	0x52
 5045 192c 05       		.uleb128 0x5
 5046 192d 03       		.byte	0x3
 5047 192e 08000000 		.4byte	.LC1
 5048 1932 2E       		.uleb128 0x2e
 5049 1933 01       		.uleb128 0x1
 5050 1934 53       		.byte	0x53
 5051 1935 05       		.uleb128 0x5
 5052 1936 03       		.byte	0x3
 5053 1937 00000000 		.4byte	c_hash_new
 5054 193b 00       		.byte	0
 5055 193c 2D       		.uleb128 0x2d
 5056 193d 2A000000 		.4byte	.LVL218
 5057 1941 501C0000 		.4byte	0x1c50
 5058 1945 62190000 		.4byte	0x1962
 5059 1949 2E       		.uleb128 0x2e
ARM GAS  C:\Users\164\AppData\Local\Temp\ccySM5k9.s 			page 109


 5060 194a 01       		.uleb128 0x1
 5061 194b 50       		.byte	0x50
 5062 194c 02       		.uleb128 0x2
 5063 194d 74       		.byte	0x74
 5064 194e 00       		.sleb128 0
 5065 194f 2E       		.uleb128 0x2e
 5066 1950 01       		.uleb128 0x1
 5067 1951 52       		.byte	0x52
 5068 1952 05       		.uleb128 0x5
 5069 1953 03       		.byte	0x3
 5070 1954 0C000000 		.4byte	.LC2
 5071 1958 2E       		.uleb128 0x2e
 5072 1959 01       		.uleb128 0x1
 5073 195a 53       		.byte	0x53
 5074 195b 05       		.uleb128 0x5
 5075 195c 03       		.byte	0x3
 5076 195d 00000000 		.4byte	c_hash_get
 5077 1961 00       		.byte	0
 5078 1962 2D       		.uleb128 0x2d
 5079 1963 36000000 		.4byte	.LVL219
 5080 1967 501C0000 		.4byte	0x1c50
 5081 196b 88190000 		.4byte	0x1988
 5082 196f 2E       		.uleb128 0x2e
 5083 1970 01       		.uleb128 0x1
 5084 1971 50       		.byte	0x50
 5085 1972 02       		.uleb128 0x2
 5086 1973 74       		.byte	0x74
 5087 1974 00       		.sleb128 0
 5088 1975 2E       		.uleb128 0x2e
 5089 1976 01       		.uleb128 0x1
 5090 1977 52       		.byte	0x52
 5091 1978 05       		.uleb128 0x5
 5092 1979 03       		.byte	0x3
 5093 197a 10000000 		.4byte	.LC3
 5094 197e 2E       		.uleb128 0x2e
 5095 197f 01       		.uleb128 0x1
 5096 1980 53       		.byte	0x53
 5097 1981 05       		.uleb128 0x5
 5098 1982 03       		.byte	0x3
 5099 1983 00000000 		.4byte	c_hash_set
 5100 1987 00       		.byte	0
 5101 1988 2D       		.uleb128 0x2d
 5102 1989 42000000 		.4byte	.LVL220
 5103 198d 501C0000 		.4byte	0x1c50
 5104 1991 AE190000 		.4byte	0x19ae
 5105 1995 2E       		.uleb128 0x2e
 5106 1996 01       		.uleb128 0x1
 5107 1997 50       		.byte	0x50
 5108 1998 02       		.uleb128 0x2
 5109 1999 74       		.byte	0x74
 5110 199a 00       		.sleb128 0
 5111 199b 2E       		.uleb128 0x2e
 5112 199c 01       		.uleb128 0x1
 5113 199d 52       		.byte	0x52
 5114 199e 05       		.uleb128 0x5
 5115 199f 03       		.byte	0x3
 5116 19a0 14000000 		.4byte	.LC4
ARM GAS  C:\Users\164\AppData\Local\Temp\ccySM5k9.s 			page 110


 5117 19a4 2E       		.uleb128 0x2e
 5118 19a5 01       		.uleb128 0x1
 5119 19a6 53       		.byte	0x53
 5120 19a7 05       		.uleb128 0x5
 5121 19a8 03       		.byte	0x3
 5122 19a9 00000000 		.4byte	c_hash_clear
 5123 19ad 00       		.byte	0
 5124 19ae 2D       		.uleb128 0x2d
 5125 19af 4E000000 		.4byte	.LVL221
 5126 19b3 501C0000 		.4byte	0x1c50
 5127 19b7 D4190000 		.4byte	0x19d4
 5128 19bb 2E       		.uleb128 0x2e
 5129 19bc 01       		.uleb128 0x1
 5130 19bd 50       		.byte	0x50
 5131 19be 02       		.uleb128 0x2
 5132 19bf 74       		.byte	0x74
 5133 19c0 00       		.sleb128 0
 5134 19c1 2E       		.uleb128 0x2e
 5135 19c2 01       		.uleb128 0x1
 5136 19c3 52       		.byte	0x52
 5137 19c4 05       		.uleb128 0x5
 5138 19c5 03       		.byte	0x3
 5139 19c6 1C000000 		.4byte	.LC5
 5140 19ca 2E       		.uleb128 0x2e
 5141 19cb 01       		.uleb128 0x1
 5142 19cc 53       		.byte	0x53
 5143 19cd 05       		.uleb128 0x5
 5144 19ce 03       		.byte	0x3
 5145 19cf 00000000 		.4byte	c_hash_dup
 5146 19d3 00       		.byte	0
 5147 19d4 2D       		.uleb128 0x2d
 5148 19d5 5A000000 		.4byte	.LVL222
 5149 19d9 501C0000 		.4byte	0x1c50
 5150 19dd FA190000 		.4byte	0x19fa
 5151 19e1 2E       		.uleb128 0x2e
 5152 19e2 01       		.uleb128 0x1
 5153 19e3 50       		.byte	0x50
 5154 19e4 02       		.uleb128 0x2
 5155 19e5 74       		.byte	0x74
 5156 19e6 00       		.sleb128 0
 5157 19e7 2E       		.uleb128 0x2e
 5158 19e8 01       		.uleb128 0x1
 5159 19e9 52       		.byte	0x52
 5160 19ea 05       		.uleb128 0x5
 5161 19eb 03       		.byte	0x3
 5162 19ec 20000000 		.4byte	.LC6
 5163 19f0 2E       		.uleb128 0x2e
 5164 19f1 01       		.uleb128 0x1
 5165 19f2 53       		.byte	0x53
 5166 19f3 05       		.uleb128 0x5
 5167 19f4 03       		.byte	0x3
 5168 19f5 00000000 		.4byte	c_hash_delete
 5169 19f9 00       		.byte	0
 5170 19fa 2D       		.uleb128 0x2d
 5171 19fb 66000000 		.4byte	.LVL223
 5172 19ff 501C0000 		.4byte	0x1c50
 5173 1a03 201A0000 		.4byte	0x1a20
ARM GAS  C:\Users\164\AppData\Local\Temp\ccySM5k9.s 			page 111


 5174 1a07 2E       		.uleb128 0x2e
 5175 1a08 01       		.uleb128 0x1
 5176 1a09 50       		.byte	0x50
 5177 1a0a 02       		.uleb128 0x2
 5178 1a0b 74       		.byte	0x74
 5179 1a0c 00       		.sleb128 0
 5180 1a0d 2E       		.uleb128 0x2e
 5181 1a0e 01       		.uleb128 0x1
 5182 1a0f 52       		.byte	0x52
 5183 1a10 05       		.uleb128 0x5
 5184 1a11 03       		.byte	0x3
 5185 1a12 28000000 		.4byte	.LC7
 5186 1a16 2E       		.uleb128 0x2e
 5187 1a17 01       		.uleb128 0x1
 5188 1a18 53       		.byte	0x53
 5189 1a19 05       		.uleb128 0x5
 5190 1a1a 03       		.byte	0x3
 5191 1a1b 00000000 		.4byte	c_hash_empty
 5192 1a1f 00       		.byte	0
 5193 1a20 2D       		.uleb128 0x2d
 5194 1a21 72000000 		.4byte	.LVL224
 5195 1a25 501C0000 		.4byte	0x1c50
 5196 1a29 461A0000 		.4byte	0x1a46
 5197 1a2d 2E       		.uleb128 0x2e
 5198 1a2e 01       		.uleb128 0x1
 5199 1a2f 50       		.byte	0x50
 5200 1a30 02       		.uleb128 0x2
 5201 1a31 74       		.byte	0x74
 5202 1a32 00       		.sleb128 0
 5203 1a33 2E       		.uleb128 0x2e
 5204 1a34 01       		.uleb128 0x1
 5205 1a35 52       		.byte	0x52
 5206 1a36 05       		.uleb128 0x5
 5207 1a37 03       		.byte	0x3
 5208 1a38 30000000 		.4byte	.LC8
 5209 1a3c 2E       		.uleb128 0x2e
 5210 1a3d 01       		.uleb128 0x1
 5211 1a3e 53       		.byte	0x53
 5212 1a3f 05       		.uleb128 0x5
 5213 1a40 03       		.byte	0x3
 5214 1a41 00000000 		.4byte	c_hash_has_key
 5215 1a45 00       		.byte	0
 5216 1a46 2D       		.uleb128 0x2d
 5217 1a47 7E000000 		.4byte	.LVL225
 5218 1a4b 501C0000 		.4byte	0x1c50
 5219 1a4f 6C1A0000 		.4byte	0x1a6c
 5220 1a53 2E       		.uleb128 0x2e
 5221 1a54 01       		.uleb128 0x1
 5222 1a55 50       		.byte	0x50
 5223 1a56 02       		.uleb128 0x2
 5224 1a57 74       		.byte	0x74
 5225 1a58 00       		.sleb128 0
 5226 1a59 2E       		.uleb128 0x2e
 5227 1a5a 01       		.uleb128 0x1
 5228 1a5b 52       		.byte	0x52
 5229 1a5c 05       		.uleb128 0x5
 5230 1a5d 03       		.byte	0x3
ARM GAS  C:\Users\164\AppData\Local\Temp\ccySM5k9.s 			page 112


 5231 1a5e 3C000000 		.4byte	.LC9
 5232 1a62 2E       		.uleb128 0x2e
 5233 1a63 01       		.uleb128 0x1
 5234 1a64 53       		.byte	0x53
 5235 1a65 05       		.uleb128 0x5
 5236 1a66 03       		.byte	0x3
 5237 1a67 00000000 		.4byte	c_hash_has_value
 5238 1a6b 00       		.byte	0
 5239 1a6c 2D       		.uleb128 0x2d
 5240 1a6d 8A000000 		.4byte	.LVL226
 5241 1a71 501C0000 		.4byte	0x1c50
 5242 1a75 921A0000 		.4byte	0x1a92
 5243 1a79 2E       		.uleb128 0x2e
 5244 1a7a 01       		.uleb128 0x1
 5245 1a7b 50       		.byte	0x50
 5246 1a7c 02       		.uleb128 0x2
 5247 1a7d 74       		.byte	0x74
 5248 1a7e 00       		.sleb128 0
 5249 1a7f 2E       		.uleb128 0x2e
 5250 1a80 01       		.uleb128 0x1
 5251 1a81 52       		.byte	0x52
 5252 1a82 05       		.uleb128 0x5
 5253 1a83 03       		.byte	0x3
 5254 1a84 48000000 		.4byte	.LC10
 5255 1a88 2E       		.uleb128 0x2e
 5256 1a89 01       		.uleb128 0x1
 5257 1a8a 53       		.byte	0x53
 5258 1a8b 05       		.uleb128 0x5
 5259 1a8c 03       		.byte	0x3
 5260 1a8d 00000000 		.4byte	c_hash_key
 5261 1a91 00       		.byte	0
 5262 1a92 2D       		.uleb128 0x2d
 5263 1a93 96000000 		.4byte	.LVL227
 5264 1a97 501C0000 		.4byte	0x1c50
 5265 1a9b B81A0000 		.4byte	0x1ab8
 5266 1a9f 2E       		.uleb128 0x2e
 5267 1aa0 01       		.uleb128 0x1
 5268 1aa1 50       		.byte	0x50
 5269 1aa2 02       		.uleb128 0x2
 5270 1aa3 74       		.byte	0x74
 5271 1aa4 00       		.sleb128 0
 5272 1aa5 2E       		.uleb128 0x2e
 5273 1aa6 01       		.uleb128 0x1
 5274 1aa7 52       		.byte	0x52
 5275 1aa8 05       		.uleb128 0x5
 5276 1aa9 03       		.byte	0x3
 5277 1aaa 4C000000 		.4byte	.LC11
 5278 1aae 2E       		.uleb128 0x2e
 5279 1aaf 01       		.uleb128 0x1
 5280 1ab0 53       		.byte	0x53
 5281 1ab1 05       		.uleb128 0x5
 5282 1ab2 03       		.byte	0x3
 5283 1ab3 00000000 		.4byte	c_hash_keys
 5284 1ab7 00       		.byte	0
 5285 1ab8 2D       		.uleb128 0x2d
 5286 1ab9 A4000000 		.4byte	.LVL228
 5287 1abd 501C0000 		.4byte	0x1c50
ARM GAS  C:\Users\164\AppData\Local\Temp\ccySM5k9.s 			page 113


 5288 1ac1 DB1A0000 		.4byte	0x1adb
 5289 1ac5 2E       		.uleb128 0x2e
 5290 1ac6 01       		.uleb128 0x1
 5291 1ac7 50       		.byte	0x50
 5292 1ac8 02       		.uleb128 0x2
 5293 1ac9 74       		.byte	0x74
 5294 1aca 00       		.sleb128 0
 5295 1acb 2E       		.uleb128 0x2e
 5296 1acc 01       		.uleb128 0x1
 5297 1acd 52       		.byte	0x52
 5298 1ace 05       		.uleb128 0x5
 5299 1acf 03       		.byte	0x3
 5300 1ad0 54000000 		.4byte	.LC12
 5301 1ad4 2E       		.uleb128 0x2e
 5302 1ad5 01       		.uleb128 0x1
 5303 1ad6 53       		.byte	0x53
 5304 1ad7 02       		.uleb128 0x2
 5305 1ad8 76       		.byte	0x76
 5306 1ad9 00       		.sleb128 0
 5307 1ada 00       		.byte	0
 5308 1adb 2D       		.uleb128 0x2d
 5309 1adc B0000000 		.4byte	.LVL229
 5310 1ae0 501C0000 		.4byte	0x1c50
 5311 1ae4 FE1A0000 		.4byte	0x1afe
 5312 1ae8 2E       		.uleb128 0x2e
 5313 1ae9 01       		.uleb128 0x1
 5314 1aea 50       		.byte	0x50
 5315 1aeb 02       		.uleb128 0x2
 5316 1aec 74       		.byte	0x74
 5317 1aed 00       		.sleb128 0
 5318 1aee 2E       		.uleb128 0x2e
 5319 1aef 01       		.uleb128 0x1
 5320 1af0 52       		.byte	0x52
 5321 1af1 05       		.uleb128 0x5
 5322 1af2 03       		.byte	0x3
 5323 1af3 5C000000 		.4byte	.LC13
 5324 1af7 2E       		.uleb128 0x2e
 5325 1af8 01       		.uleb128 0x1
 5326 1af9 53       		.byte	0x53
 5327 1afa 02       		.uleb128 0x2
 5328 1afb 76       		.byte	0x76
 5329 1afc 00       		.sleb128 0
 5330 1afd 00       		.byte	0
 5331 1afe 2D       		.uleb128 0x2d
 5332 1aff BC000000 		.4byte	.LVL230
 5333 1b03 501C0000 		.4byte	0x1c50
 5334 1b07 211B0000 		.4byte	0x1b21
 5335 1b0b 2E       		.uleb128 0x2e
 5336 1b0c 01       		.uleb128 0x1
 5337 1b0d 50       		.byte	0x50
 5338 1b0e 02       		.uleb128 0x2
 5339 1b0f 74       		.byte	0x74
 5340 1b10 00       		.sleb128 0
 5341 1b11 2E       		.uleb128 0x2e
 5342 1b12 01       		.uleb128 0x1
 5343 1b13 52       		.byte	0x52
 5344 1b14 05       		.uleb128 0x5
ARM GAS  C:\Users\164\AppData\Local\Temp\ccySM5k9.s 			page 114


 5345 1b15 03       		.byte	0x3
 5346 1b16 64000000 		.4byte	.LC14
 5347 1b1a 2E       		.uleb128 0x2e
 5348 1b1b 01       		.uleb128 0x1
 5349 1b1c 53       		.byte	0x53
 5350 1b1d 02       		.uleb128 0x2
 5351 1b1e 76       		.byte	0x76
 5352 1b1f 00       		.sleb128 0
 5353 1b20 00       		.byte	0
 5354 1b21 2D       		.uleb128 0x2d
 5355 1b22 C8000000 		.4byte	.LVL231
 5356 1b26 501C0000 		.4byte	0x1c50
 5357 1b2a 471B0000 		.4byte	0x1b47
 5358 1b2e 2E       		.uleb128 0x2e
 5359 1b2f 01       		.uleb128 0x1
 5360 1b30 50       		.byte	0x50
 5361 1b31 02       		.uleb128 0x2
 5362 1b32 74       		.byte	0x74
 5363 1b33 00       		.sleb128 0
 5364 1b34 2E       		.uleb128 0x2e
 5365 1b35 01       		.uleb128 0x1
 5366 1b36 52       		.byte	0x52
 5367 1b37 05       		.uleb128 0x5
 5368 1b38 03       		.byte	0x3
 5369 1b39 6C000000 		.4byte	.LC15
 5370 1b3d 2E       		.uleb128 0x2e
 5371 1b3e 01       		.uleb128 0x1
 5372 1b3f 53       		.byte	0x53
 5373 1b40 05       		.uleb128 0x5
 5374 1b41 03       		.byte	0x3
 5375 1b42 00000000 		.4byte	c_hash_merge
 5376 1b46 00       		.byte	0
 5377 1b47 2D       		.uleb128 0x2d
 5378 1b48 D4000000 		.4byte	.LVL232
 5379 1b4c 501C0000 		.4byte	0x1c50
 5380 1b50 6D1B0000 		.4byte	0x1b6d
 5381 1b54 2E       		.uleb128 0x2e
 5382 1b55 01       		.uleb128 0x1
 5383 1b56 50       		.byte	0x50
 5384 1b57 02       		.uleb128 0x2
 5385 1b58 74       		.byte	0x74
 5386 1b59 00       		.sleb128 0
 5387 1b5a 2E       		.uleb128 0x2e
 5388 1b5b 01       		.uleb128 0x1
 5389 1b5c 52       		.byte	0x52
 5390 1b5d 05       		.uleb128 0x5
 5391 1b5e 03       		.byte	0x3
 5392 1b5f 74000000 		.4byte	.LC16
 5393 1b63 2E       		.uleb128 0x2e
 5394 1b64 01       		.uleb128 0x1
 5395 1b65 53       		.byte	0x53
 5396 1b66 05       		.uleb128 0x5
 5397 1b67 03       		.byte	0x3
 5398 1b68 00000000 		.4byte	c_hash_merge_self
 5399 1b6c 00       		.byte	0
 5400 1b6d 2D       		.uleb128 0x2d
 5401 1b6e E0000000 		.4byte	.LVL233
ARM GAS  C:\Users\164\AppData\Local\Temp\ccySM5k9.s 			page 115


 5402 1b72 501C0000 		.4byte	0x1c50
 5403 1b76 8A1B0000 		.4byte	0x1b8a
 5404 1b7a 2E       		.uleb128 0x2e
 5405 1b7b 01       		.uleb128 0x1
 5406 1b7c 50       		.byte	0x50
 5407 1b7d 02       		.uleb128 0x2
 5408 1b7e 74       		.byte	0x74
 5409 1b7f 00       		.sleb128 0
 5410 1b80 2E       		.uleb128 0x2e
 5411 1b81 01       		.uleb128 0x1
 5412 1b82 52       		.byte	0x52
 5413 1b83 05       		.uleb128 0x5
 5414 1b84 03       		.byte	0x3
 5415 1b85 7C000000 		.4byte	.LC17
 5416 1b89 00       		.byte	0
 5417 1b8a 2F       		.uleb128 0x2f
 5418 1b8b EC000000 		.4byte	.LVL234
 5419 1b8f 501C0000 		.4byte	0x1c50
 5420 1b93 2E       		.uleb128 0x2e
 5421 1b94 01       		.uleb128 0x1
 5422 1b95 50       		.byte	0x50
 5423 1b96 02       		.uleb128 0x2
 5424 1b97 74       		.byte	0x74
 5425 1b98 00       		.sleb128 0
 5426 1b99 2E       		.uleb128 0x2e
 5427 1b9a 01       		.uleb128 0x1
 5428 1b9b 52       		.byte	0x52
 5429 1b9c 05       		.uleb128 0x5
 5430 1b9d 03       		.byte	0x3
 5431 1b9e 84000000 		.4byte	.LC18
 5432 1ba2 2E       		.uleb128 0x2e
 5433 1ba3 01       		.uleb128 0x1
 5434 1ba4 53       		.byte	0x53
 5435 1ba5 05       		.uleb128 0x5
 5436 1ba6 03       		.byte	0x3
 5437 1ba7 00000000 		.4byte	c_hash_values
 5438 1bab 00       		.byte	0
 5439 1bac 00       		.byte	0
 5440 1bad 3F       		.uleb128 0x3f
 5441 1bae 4B000000 		.4byte	.LASF136
 5442 1bb2 08       		.byte	0x8
 5443 1bb3 21       		.byte	0x21
 5444 1bb4 E7050000 		.4byte	0x5e7
 5445 1bb8 3F       		.uleb128 0x3f
 5446 1bb9 6E050000 		.4byte	.LASF137
 5447 1bbd 08       		.byte	0x8
 5448 1bbe 2E       		.byte	0x2e
 5449 1bbf E7050000 		.4byte	0x5e7
 5450 1bc3 40       		.uleb128 0x40
 5451 1bc4 97010000 		.4byte	.LASF138
 5452 1bc8 97010000 		.4byte	.LASF138
 5453 1bcc 07       		.byte	0x7
 5454 1bcd 2D       		.byte	0x2d
 5455 1bce 40       		.uleb128 0x40
 5456 1bcf 95050000 		.4byte	.LASF139
 5457 1bd3 95050000 		.4byte	.LASF139
 5458 1bd7 03       		.byte	0x3
ARM GAS  C:\Users\164\AppData\Local\Temp\ccySM5k9.s 			page 116


 5459 1bd8 C1       		.byte	0xc1
 5460 1bd9 40       		.uleb128 0x40
 5461 1bda 1B000000 		.4byte	.LASF140
 5462 1bde 1B000000 		.4byte	.LASF140
 5463 1be2 07       		.byte	0x7
 5464 1be3 27       		.byte	0x27
 5465 1be4 40       		.uleb128 0x40
 5466 1be5 D4010000 		.4byte	.LASF141
 5467 1be9 D4010000 		.4byte	.LASF141
 5468 1bed 03       		.byte	0x3
 5469 1bee C2       		.byte	0xc2
 5470 1bef 40       		.uleb128 0x40
 5471 1bf0 FB060000 		.4byte	.LASF142
 5472 1bf4 FB060000 		.4byte	.LASF142
 5473 1bf8 03       		.byte	0x3
 5474 1bf9 C0       		.byte	0xc0
 5475 1bfa 40       		.uleb128 0x40
 5476 1bfb 88060000 		.4byte	.LASF143
 5477 1bff 88060000 		.4byte	.LASF143
 5478 1c03 09       		.byte	0x9
 5479 1c04 1F       		.byte	0x1f
 5480 1c05 40       		.uleb128 0x40
 5481 1c06 37010000 		.4byte	.LASF144
 5482 1c0a 37010000 		.4byte	.LASF144
 5483 1c0e 09       		.byte	0x9
 5484 1c0f 1C       		.byte	0x1c
 5485 1c10 40       		.uleb128 0x40
 5486 1c11 5D000000 		.4byte	.LASF145
 5487 1c15 5D000000 		.4byte	.LASF145
 5488 1c19 07       		.byte	0x7
 5489 1c1a 28       		.byte	0x28
 5490 1c1b 40       		.uleb128 0x40
 5491 1c1c 3B060000 		.4byte	.LASF146
 5492 1c20 3B060000 		.4byte	.LASF146
 5493 1c24 03       		.byte	0x3
 5494 1c25 C3       		.byte	0xc3
 5495 1c26 40       		.uleb128 0x40
 5496 1c27 45010000 		.4byte	.LASF147
 5497 1c2b 45010000 		.4byte	.LASF147
 5498 1c2f 0A       		.byte	0xa
 5499 1c30 18       		.byte	0x18
 5500 1c31 40       		.uleb128 0x40
 5501 1c32 1A050000 		.4byte	.LASF148
 5502 1c36 1A050000 		.4byte	.LASF148
 5503 1c3a 07       		.byte	0x7
 5504 1c3b 33       		.byte	0x33
 5505 1c3c 41       		.uleb128 0x41
 5506 1c3d E7060000 		.4byte	.LASF155
 5507 1c41 E7060000 		.4byte	.LASF155
 5508 1c45 40       		.uleb128 0x40
 5509 1c46 4D010000 		.4byte	.LASF149
 5510 1c4a 4D010000 		.4byte	.LASF149
 5511 1c4e 0B       		.byte	0xb
 5512 1c4f 1E       		.byte	0x1e
 5513 1c50 40       		.uleb128 0x40
 5514 1c51 42040000 		.4byte	.LASF150
 5515 1c55 42040000 		.4byte	.LASF150
ARM GAS  C:\Users\164\AppData\Local\Temp\ccySM5k9.s 			page 117


 5516 1c59 0B       		.byte	0xb
 5517 1c5a 1F       		.byte	0x1f
 5518 1c5b 00       		.byte	0
 5519              		.section	.debug_abbrev,"",%progbits
 5520              	.Ldebug_abbrev0:
 5521 0000 01       		.uleb128 0x1
 5522 0001 11       		.uleb128 0x11
 5523 0002 01       		.byte	0x1
 5524 0003 25       		.uleb128 0x25
 5525 0004 0E       		.uleb128 0xe
 5526 0005 13       		.uleb128 0x13
 5527 0006 0B       		.uleb128 0xb
 5528 0007 03       		.uleb128 0x3
 5529 0008 0E       		.uleb128 0xe
 5530 0009 1B       		.uleb128 0x1b
 5531 000a 0E       		.uleb128 0xe
 5532 000b 55       		.uleb128 0x55
 5533 000c 17       		.uleb128 0x17
 5534 000d 11       		.uleb128 0x11
 5535 000e 01       		.uleb128 0x1
 5536 000f 10       		.uleb128 0x10
 5537 0010 17       		.uleb128 0x17
 5538 0011 00       		.byte	0
 5539 0012 00       		.byte	0
 5540 0013 02       		.uleb128 0x2
 5541 0014 24       		.uleb128 0x24
 5542 0015 00       		.byte	0
 5543 0016 0B       		.uleb128 0xb
 5544 0017 0B       		.uleb128 0xb
 5545 0018 3E       		.uleb128 0x3e
 5546 0019 0B       		.uleb128 0xb
 5547 001a 03       		.uleb128 0x3
 5548 001b 08       		.uleb128 0x8
 5549 001c 00       		.byte	0
 5550 001d 00       		.byte	0
 5551 001e 03       		.uleb128 0x3
 5552 001f 24       		.uleb128 0x24
 5553 0020 00       		.byte	0
 5554 0021 0B       		.uleb128 0xb
 5555 0022 0B       		.uleb128 0xb
 5556 0023 3E       		.uleb128 0x3e
 5557 0024 0B       		.uleb128 0xb
 5558 0025 03       		.uleb128 0x3
 5559 0026 0E       		.uleb128 0xe
 5560 0027 00       		.byte	0
 5561 0028 00       		.byte	0
 5562 0029 04       		.uleb128 0x4
 5563 002a 16       		.uleb128 0x16
 5564 002b 00       		.byte	0
 5565 002c 03       		.uleb128 0x3
 5566 002d 0E       		.uleb128 0xe
 5567 002e 3A       		.uleb128 0x3a
 5568 002f 0B       		.uleb128 0xb
 5569 0030 3B       		.uleb128 0x3b
 5570 0031 0B       		.uleb128 0xb
 5571 0032 49       		.uleb128 0x49
 5572 0033 13       		.uleb128 0x13
ARM GAS  C:\Users\164\AppData\Local\Temp\ccySM5k9.s 			page 118


 5573 0034 00       		.byte	0
 5574 0035 00       		.byte	0
 5575 0036 05       		.uleb128 0x5
 5576 0037 0F       		.uleb128 0xf
 5577 0038 00       		.byte	0
 5578 0039 0B       		.uleb128 0xb
 5579 003a 0B       		.uleb128 0xb
 5580 003b 49       		.uleb128 0x49
 5581 003c 13       		.uleb128 0x13
 5582 003d 00       		.byte	0
 5583 003e 00       		.byte	0
 5584 003f 06       		.uleb128 0x6
 5585 0040 26       		.uleb128 0x26
 5586 0041 00       		.byte	0
 5587 0042 49       		.uleb128 0x49
 5588 0043 13       		.uleb128 0x13
 5589 0044 00       		.byte	0
 5590 0045 00       		.byte	0
 5591 0046 07       		.uleb128 0x7
 5592 0047 15       		.uleb128 0x15
 5593 0048 01       		.byte	0x1
 5594 0049 27       		.uleb128 0x27
 5595 004a 19       		.uleb128 0x19
 5596 004b 01       		.uleb128 0x1
 5597 004c 13       		.uleb128 0x13
 5598 004d 00       		.byte	0
 5599 004e 00       		.byte	0
 5600 004f 08       		.uleb128 0x8
 5601 0050 05       		.uleb128 0x5
 5602 0051 00       		.byte	0
 5603 0052 49       		.uleb128 0x49
 5604 0053 13       		.uleb128 0x13
 5605 0054 00       		.byte	0
 5606 0055 00       		.byte	0
 5607 0056 09       		.uleb128 0x9
 5608 0057 13       		.uleb128 0x13
 5609 0058 01       		.byte	0x1
 5610 0059 03       		.uleb128 0x3
 5611 005a 08       		.uleb128 0x8
 5612 005b 0B       		.uleb128 0xb
 5613 005c 05       		.uleb128 0x5
 5614 005d 3A       		.uleb128 0x3a
 5615 005e 0B       		.uleb128 0xb
 5616 005f 3B       		.uleb128 0x3b
 5617 0060 0B       		.uleb128 0xb
 5618 0061 01       		.uleb128 0x1
 5619 0062 13       		.uleb128 0x13
 5620 0063 00       		.byte	0
 5621 0064 00       		.byte	0
 5622 0065 0A       		.uleb128 0xa
 5623 0066 0D       		.uleb128 0xd
 5624 0067 00       		.byte	0
 5625 0068 03       		.uleb128 0x3
 5626 0069 0E       		.uleb128 0xe
 5627 006a 3A       		.uleb128 0x3a
 5628 006b 0B       		.uleb128 0xb
 5629 006c 3B       		.uleb128 0x3b
ARM GAS  C:\Users\164\AppData\Local\Temp\ccySM5k9.s 			page 119


 5630 006d 0B       		.uleb128 0xb
 5631 006e 49       		.uleb128 0x49
 5632 006f 13       		.uleb128 0x13
 5633 0070 38       		.uleb128 0x38
 5634 0071 0B       		.uleb128 0xb
 5635 0072 00       		.byte	0
 5636 0073 00       		.byte	0
 5637 0074 0B       		.uleb128 0xb
 5638 0075 0D       		.uleb128 0xd
 5639 0076 00       		.byte	0
 5640 0077 03       		.uleb128 0x3
 5641 0078 08       		.uleb128 0x8
 5642 0079 3A       		.uleb128 0x3a
 5643 007a 0B       		.uleb128 0xb
 5644 007b 3B       		.uleb128 0x3b
 5645 007c 0B       		.uleb128 0xb
 5646 007d 49       		.uleb128 0x49
 5647 007e 13       		.uleb128 0x13
 5648 007f 38       		.uleb128 0x38
 5649 0080 0B       		.uleb128 0xb
 5650 0081 00       		.byte	0
 5651 0082 00       		.byte	0
 5652 0083 0C       		.uleb128 0xc
 5653 0084 0D       		.uleb128 0xd
 5654 0085 00       		.byte	0
 5655 0086 03       		.uleb128 0x3
 5656 0087 0E       		.uleb128 0xe
 5657 0088 3A       		.uleb128 0x3a
 5658 0089 0B       		.uleb128 0xb
 5659 008a 3B       		.uleb128 0x3b
 5660 008b 0B       		.uleb128 0xb
 5661 008c 49       		.uleb128 0x49
 5662 008d 13       		.uleb128 0x13
 5663 008e 38       		.uleb128 0x38
 5664 008f 05       		.uleb128 0x5
 5665 0090 00       		.byte	0
 5666 0091 00       		.byte	0
 5667 0092 0D       		.uleb128 0xd
 5668 0093 13       		.uleb128 0x13
 5669 0094 01       		.byte	0x1
 5670 0095 03       		.uleb128 0x3
 5671 0096 0E       		.uleb128 0xe
 5672 0097 0B       		.uleb128 0xb
 5673 0098 0B       		.uleb128 0xb
 5674 0099 3A       		.uleb128 0x3a
 5675 009a 0B       		.uleb128 0xb
 5676 009b 3B       		.uleb128 0x3b
 5677 009c 0B       		.uleb128 0xb
 5678 009d 01       		.uleb128 0x1
 5679 009e 13       		.uleb128 0x13
 5680 009f 00       		.byte	0
 5681 00a0 00       		.byte	0
 5682 00a1 0E       		.uleb128 0xe
 5683 00a2 0D       		.uleb128 0xd
 5684 00a3 00       		.byte	0
 5685 00a4 03       		.uleb128 0x3
 5686 00a5 08       		.uleb128 0x8
ARM GAS  C:\Users\164\AppData\Local\Temp\ccySM5k9.s 			page 120


 5687 00a6 3A       		.uleb128 0x3a
 5688 00a7 0B       		.uleb128 0xb
 5689 00a8 3B       		.uleb128 0x3b
 5690 00a9 0B       		.uleb128 0xb
 5691 00aa 49       		.uleb128 0x49
 5692 00ab 13       		.uleb128 0x13
 5693 00ac 0B       		.uleb128 0xb
 5694 00ad 0B       		.uleb128 0xb
 5695 00ae 0D       		.uleb128 0xd
 5696 00af 0B       		.uleb128 0xb
 5697 00b0 0C       		.uleb128 0xc
 5698 00b1 0B       		.uleb128 0xb
 5699 00b2 38       		.uleb128 0x38
 5700 00b3 0B       		.uleb128 0xb
 5701 00b4 00       		.byte	0
 5702 00b5 00       		.byte	0
 5703 00b6 0F       		.uleb128 0xf
 5704 00b7 0D       		.uleb128 0xd
 5705 00b8 00       		.byte	0
 5706 00b9 49       		.uleb128 0x49
 5707 00ba 13       		.uleb128 0x13
 5708 00bb 38       		.uleb128 0x38
 5709 00bc 0B       		.uleb128 0xb
 5710 00bd 00       		.byte	0
 5711 00be 00       		.byte	0
 5712 00bf 10       		.uleb128 0x10
 5713 00c0 04       		.uleb128 0x4
 5714 00c1 01       		.byte	0x1
 5715 00c2 0B       		.uleb128 0xb
 5716 00c3 0B       		.uleb128 0xb
 5717 00c4 49       		.uleb128 0x49
 5718 00c5 13       		.uleb128 0x13
 5719 00c6 3A       		.uleb128 0x3a
 5720 00c7 0B       		.uleb128 0xb
 5721 00c8 3B       		.uleb128 0x3b
 5722 00c9 0B       		.uleb128 0xb
 5723 00ca 01       		.uleb128 0x1
 5724 00cb 13       		.uleb128 0x13
 5725 00cc 00       		.byte	0
 5726 00cd 00       		.byte	0
 5727 00ce 11       		.uleb128 0x11
 5728 00cf 28       		.uleb128 0x28
 5729 00d0 00       		.byte	0
 5730 00d1 03       		.uleb128 0x3
 5731 00d2 0E       		.uleb128 0xe
 5732 00d3 1C       		.uleb128 0x1c
 5733 00d4 0D       		.uleb128 0xd
 5734 00d5 00       		.byte	0
 5735 00d6 00       		.byte	0
 5736 00d7 12       		.uleb128 0x12
 5737 00d8 28       		.uleb128 0x28
 5738 00d9 00       		.byte	0
 5739 00da 03       		.uleb128 0x3
 5740 00db 0E       		.uleb128 0xe
 5741 00dc 1C       		.uleb128 0x1c
 5742 00dd 0B       		.uleb128 0xb
 5743 00de 00       		.byte	0
ARM GAS  C:\Users\164\AppData\Local\Temp\ccySM5k9.s 			page 121


 5744 00df 00       		.byte	0
 5745 00e0 13       		.uleb128 0x13
 5746 00e1 17       		.uleb128 0x17
 5747 00e2 01       		.byte	0x1
 5748 00e3 0B       		.uleb128 0xb
 5749 00e4 0B       		.uleb128 0xb
 5750 00e5 3A       		.uleb128 0x3a
 5751 00e6 0B       		.uleb128 0xb
 5752 00e7 3B       		.uleb128 0x3b
 5753 00e8 0B       		.uleb128 0xb
 5754 00e9 01       		.uleb128 0x1
 5755 00ea 13       		.uleb128 0x13
 5756 00eb 00       		.byte	0
 5757 00ec 00       		.byte	0
 5758 00ed 14       		.uleb128 0x14
 5759 00ee 0D       		.uleb128 0xd
 5760 00ef 00       		.byte	0
 5761 00f0 03       		.uleb128 0x3
 5762 00f1 08       		.uleb128 0x8
 5763 00f2 3A       		.uleb128 0x3a
 5764 00f3 0B       		.uleb128 0xb
 5765 00f4 3B       		.uleb128 0x3b
 5766 00f5 0B       		.uleb128 0xb
 5767 00f6 49       		.uleb128 0x49
 5768 00f7 13       		.uleb128 0x13
 5769 00f8 00       		.byte	0
 5770 00f9 00       		.byte	0
 5771 00fa 15       		.uleb128 0x15
 5772 00fb 0D       		.uleb128 0xd
 5773 00fc 00       		.byte	0
 5774 00fd 03       		.uleb128 0x3
 5775 00fe 0E       		.uleb128 0xe
 5776 00ff 3A       		.uleb128 0x3a
 5777 0100 0B       		.uleb128 0xb
 5778 0101 3B       		.uleb128 0x3b
 5779 0102 0B       		.uleb128 0xb
 5780 0103 49       		.uleb128 0x49
 5781 0104 13       		.uleb128 0x13
 5782 0105 00       		.byte	0
 5783 0106 00       		.byte	0
 5784 0107 16       		.uleb128 0x16
 5785 0108 0D       		.uleb128 0xd
 5786 0109 00       		.byte	0
 5787 010a 03       		.uleb128 0x3
 5788 010b 0E       		.uleb128 0xe
 5789 010c 3A       		.uleb128 0x3a
 5790 010d 0B       		.uleb128 0xb
 5791 010e 3B       		.uleb128 0x3b
 5792 010f 0B       		.uleb128 0xb
 5793 0110 49       		.uleb128 0x49
 5794 0111 13       		.uleb128 0x13
 5795 0112 0B       		.uleb128 0xb
 5796 0113 0B       		.uleb128 0xb
 5797 0114 0D       		.uleb128 0xd
 5798 0115 0B       		.uleb128 0xb
 5799 0116 0C       		.uleb128 0xc
 5800 0117 0B       		.uleb128 0xb
ARM GAS  C:\Users\164\AppData\Local\Temp\ccySM5k9.s 			page 122


 5801 0118 38       		.uleb128 0x38
 5802 0119 0B       		.uleb128 0xb
 5803 011a 00       		.byte	0
 5804 011b 00       		.byte	0
 5805 011c 17       		.uleb128 0x17
 5806 011d 13       		.uleb128 0x13
 5807 011e 00       		.byte	0
 5808 011f 03       		.uleb128 0x3
 5809 0120 0E       		.uleb128 0xe
 5810 0121 3C       		.uleb128 0x3c
 5811 0122 19       		.uleb128 0x19
 5812 0123 00       		.byte	0
 5813 0124 00       		.byte	0
 5814 0125 18       		.uleb128 0x18
 5815 0126 01       		.uleb128 0x1
 5816 0127 01       		.byte	0x1
 5817 0128 49       		.uleb128 0x49
 5818 0129 13       		.uleb128 0x13
 5819 012a 01       		.uleb128 0x1
 5820 012b 13       		.uleb128 0x13
 5821 012c 00       		.byte	0
 5822 012d 00       		.byte	0
 5823 012e 19       		.uleb128 0x19
 5824 012f 21       		.uleb128 0x21
 5825 0130 00       		.byte	0
 5826 0131 49       		.uleb128 0x49
 5827 0132 13       		.uleb128 0x13
 5828 0133 00       		.byte	0
 5829 0134 00       		.byte	0
 5830 0135 1A       		.uleb128 0x1a
 5831 0136 21       		.uleb128 0x21
 5832 0137 00       		.byte	0
 5833 0138 49       		.uleb128 0x49
 5834 0139 13       		.uleb128 0x13
 5835 013a 2F       		.uleb128 0x2f
 5836 013b 0B       		.uleb128 0xb
 5837 013c 00       		.byte	0
 5838 013d 00       		.byte	0
 5839 013e 1B       		.uleb128 0x1b
 5840 013f 35       		.uleb128 0x35
 5841 0140 00       		.byte	0
 5842 0141 49       		.uleb128 0x49
 5843 0142 13       		.uleb128 0x13
 5844 0143 00       		.byte	0
 5845 0144 00       		.byte	0
 5846 0145 1C       		.uleb128 0x1c
 5847 0146 2E       		.uleb128 0x2e
 5848 0147 01       		.byte	0x1
 5849 0148 03       		.uleb128 0x3
 5850 0149 0E       		.uleb128 0xe
 5851 014a 3A       		.uleb128 0x3a
 5852 014b 0B       		.uleb128 0xb
 5853 014c 3B       		.uleb128 0x3b
 5854 014d 0B       		.uleb128 0xb
 5855 014e 27       		.uleb128 0x27
 5856 014f 19       		.uleb128 0x19
 5857 0150 49       		.uleb128 0x49
ARM GAS  C:\Users\164\AppData\Local\Temp\ccySM5k9.s 			page 123


 5858 0151 13       		.uleb128 0x13
 5859 0152 20       		.uleb128 0x20
 5860 0153 0B       		.uleb128 0xb
 5861 0154 01       		.uleb128 0x1
 5862 0155 13       		.uleb128 0x13
 5863 0156 00       		.byte	0
 5864 0157 00       		.byte	0
 5865 0158 1D       		.uleb128 0x1d
 5866 0159 05       		.uleb128 0x5
 5867 015a 00       		.byte	0
 5868 015b 03       		.uleb128 0x3
 5869 015c 08       		.uleb128 0x8
 5870 015d 3A       		.uleb128 0x3a
 5871 015e 0B       		.uleb128 0xb
 5872 015f 3B       		.uleb128 0x3b
 5873 0160 0B       		.uleb128 0xb
 5874 0161 49       		.uleb128 0x49
 5875 0162 13       		.uleb128 0x13
 5876 0163 00       		.byte	0
 5877 0164 00       		.byte	0
 5878 0165 1E       		.uleb128 0x1e
 5879 0166 34       		.uleb128 0x34
 5880 0167 00       		.byte	0
 5881 0168 03       		.uleb128 0x3
 5882 0169 08       		.uleb128 0x8
 5883 016a 3A       		.uleb128 0x3a
 5884 016b 0B       		.uleb128 0xb
 5885 016c 3B       		.uleb128 0x3b
 5886 016d 0B       		.uleb128 0xb
 5887 016e 49       		.uleb128 0x49
 5888 016f 13       		.uleb128 0x13
 5889 0170 00       		.byte	0
 5890 0171 00       		.byte	0
 5891 0172 1F       		.uleb128 0x1f
 5892 0173 05       		.uleb128 0x5
 5893 0174 00       		.byte	0
 5894 0175 03       		.uleb128 0x3
 5895 0176 0E       		.uleb128 0xe
 5896 0177 3A       		.uleb128 0x3a
 5897 0178 0B       		.uleb128 0xb
 5898 0179 3B       		.uleb128 0x3b
 5899 017a 0B       		.uleb128 0xb
 5900 017b 49       		.uleb128 0x49
 5901 017c 13       		.uleb128 0x13
 5902 017d 00       		.byte	0
 5903 017e 00       		.byte	0
 5904 017f 20       		.uleb128 0x20
 5905 0180 34       		.uleb128 0x34
 5906 0181 00       		.byte	0
 5907 0182 03       		.uleb128 0x3
 5908 0183 0E       		.uleb128 0xe
 5909 0184 3A       		.uleb128 0x3a
 5910 0185 0B       		.uleb128 0xb
 5911 0186 3B       		.uleb128 0x3b
 5912 0187 0B       		.uleb128 0xb
 5913 0188 49       		.uleb128 0x49
 5914 0189 13       		.uleb128 0x13
ARM GAS  C:\Users\164\AppData\Local\Temp\ccySM5k9.s 			page 124


 5915 018a 00       		.byte	0
 5916 018b 00       		.byte	0
 5917 018c 21       		.uleb128 0x21
 5918 018d 2E       		.uleb128 0x2e
 5919 018e 01       		.byte	0x1
 5920 018f 03       		.uleb128 0x3
 5921 0190 0E       		.uleb128 0xe
 5922 0191 3A       		.uleb128 0x3a
 5923 0192 0B       		.uleb128 0xb
 5924 0193 3B       		.uleb128 0x3b
 5925 0194 05       		.uleb128 0x5
 5926 0195 27       		.uleb128 0x27
 5927 0196 19       		.uleb128 0x19
 5928 0197 11       		.uleb128 0x11
 5929 0198 01       		.uleb128 0x1
 5930 0199 12       		.uleb128 0x12
 5931 019a 06       		.uleb128 0x6
 5932 019b 40       		.uleb128 0x40
 5933 019c 18       		.uleb128 0x18
 5934 019d 9742     		.uleb128 0x2117
 5935 019f 19       		.uleb128 0x19
 5936 01a0 01       		.uleb128 0x1
 5937 01a1 13       		.uleb128 0x13
 5938 01a2 00       		.byte	0
 5939 01a3 00       		.byte	0
 5940 01a4 22       		.uleb128 0x22
 5941 01a5 05       		.uleb128 0x5
 5942 01a6 00       		.byte	0
 5943 01a7 03       		.uleb128 0x3
 5944 01a8 08       		.uleb128 0x8
 5945 01a9 3A       		.uleb128 0x3a
 5946 01aa 0B       		.uleb128 0xb
 5947 01ab 3B       		.uleb128 0x3b
 5948 01ac 05       		.uleb128 0x5
 5949 01ad 49       		.uleb128 0x49
 5950 01ae 13       		.uleb128 0x13
 5951 01af 02       		.uleb128 0x2
 5952 01b0 17       		.uleb128 0x17
 5953 01b1 00       		.byte	0
 5954 01b2 00       		.byte	0
 5955 01b3 23       		.uleb128 0x23
 5956 01b4 05       		.uleb128 0x5
 5957 01b5 00       		.byte	0
 5958 01b6 03       		.uleb128 0x3
 5959 01b7 0E       		.uleb128 0xe
 5960 01b8 3A       		.uleb128 0x3a
 5961 01b9 0B       		.uleb128 0xb
 5962 01ba 3B       		.uleb128 0x3b
 5963 01bb 05       		.uleb128 0x5
 5964 01bc 49       		.uleb128 0x49
 5965 01bd 13       		.uleb128 0x13
 5966 01be 02       		.uleb128 0x2
 5967 01bf 17       		.uleb128 0x17
 5968 01c0 00       		.byte	0
 5969 01c1 00       		.byte	0
 5970 01c2 24       		.uleb128 0x24
 5971 01c3 34       		.uleb128 0x34
ARM GAS  C:\Users\164\AppData\Local\Temp\ccySM5k9.s 			page 125


 5972 01c4 00       		.byte	0
 5973 01c5 03       		.uleb128 0x3
 5974 01c6 08       		.uleb128 0x8
 5975 01c7 3A       		.uleb128 0x3a
 5976 01c8 0B       		.uleb128 0xb
 5977 01c9 3B       		.uleb128 0x3b
 5978 01ca 05       		.uleb128 0x5
 5979 01cb 49       		.uleb128 0x49
 5980 01cc 13       		.uleb128 0x13
 5981 01cd 02       		.uleb128 0x2
 5982 01ce 18       		.uleb128 0x18
 5983 01cf 00       		.byte	0
 5984 01d0 00       		.byte	0
 5985 01d1 25       		.uleb128 0x25
 5986 01d2 1D       		.uleb128 0x1d
 5987 01d3 01       		.byte	0x1
 5988 01d4 31       		.uleb128 0x31
 5989 01d5 13       		.uleb128 0x13
 5990 01d6 11       		.uleb128 0x11
 5991 01d7 01       		.uleb128 0x1
 5992 01d8 12       		.uleb128 0x12
 5993 01d9 06       		.uleb128 0x6
 5994 01da 58       		.uleb128 0x58
 5995 01db 0B       		.uleb128 0xb
 5996 01dc 59       		.uleb128 0x59
 5997 01dd 05       		.uleb128 0x5
 5998 01de 01       		.uleb128 0x1
 5999 01df 13       		.uleb128 0x13
 6000 01e0 00       		.byte	0
 6001 01e1 00       		.byte	0
 6002 01e2 26       		.uleb128 0x26
 6003 01e3 05       		.uleb128 0x5
 6004 01e4 00       		.byte	0
 6005 01e5 31       		.uleb128 0x31
 6006 01e6 13       		.uleb128 0x13
 6007 01e7 02       		.uleb128 0x2
 6008 01e8 17       		.uleb128 0x17
 6009 01e9 00       		.byte	0
 6010 01ea 00       		.byte	0
 6011 01eb 27       		.uleb128 0x27
 6012 01ec 05       		.uleb128 0x5
 6013 01ed 00       		.byte	0
 6014 01ee 31       		.uleb128 0x31
 6015 01ef 13       		.uleb128 0x13
 6016 01f0 02       		.uleb128 0x2
 6017 01f1 18       		.uleb128 0x18
 6018 01f2 00       		.byte	0
 6019 01f3 00       		.byte	0
 6020 01f4 28       		.uleb128 0x28
 6021 01f5 0B       		.uleb128 0xb
 6022 01f6 01       		.byte	0x1
 6023 01f7 11       		.uleb128 0x11
 6024 01f8 01       		.uleb128 0x1
 6025 01f9 12       		.uleb128 0x12
 6026 01fa 06       		.uleb128 0x6
 6027 01fb 00       		.byte	0
 6028 01fc 00       		.byte	0
ARM GAS  C:\Users\164\AppData\Local\Temp\ccySM5k9.s 			page 126


 6029 01fd 29       		.uleb128 0x29
 6030 01fe 34       		.uleb128 0x34
 6031 01ff 00       		.byte	0
 6032 0200 31       		.uleb128 0x31
 6033 0201 13       		.uleb128 0x13
 6034 0202 02       		.uleb128 0x2
 6035 0203 18       		.uleb128 0x18
 6036 0204 00       		.byte	0
 6037 0205 00       		.byte	0
 6038 0206 2A       		.uleb128 0x2a
 6039 0207 0B       		.uleb128 0xb
 6040 0208 01       		.byte	0x1
 6041 0209 11       		.uleb128 0x11
 6042 020a 01       		.uleb128 0x1
 6043 020b 12       		.uleb128 0x12
 6044 020c 06       		.uleb128 0x6
 6045 020d 01       		.uleb128 0x1
 6046 020e 13       		.uleb128 0x13
 6047 020f 00       		.byte	0
 6048 0210 00       		.byte	0
 6049 0211 2B       		.uleb128 0x2b
 6050 0212 34       		.uleb128 0x34
 6051 0213 00       		.byte	0
 6052 0214 03       		.uleb128 0x3
 6053 0215 08       		.uleb128 0x8
 6054 0216 3A       		.uleb128 0x3a
 6055 0217 0B       		.uleb128 0xb
 6056 0218 3B       		.uleb128 0x3b
 6057 0219 05       		.uleb128 0x5
 6058 021a 49       		.uleb128 0x49
 6059 021b 13       		.uleb128 0x13
 6060 021c 02       		.uleb128 0x2
 6061 021d 17       		.uleb128 0x17
 6062 021e 00       		.byte	0
 6063 021f 00       		.byte	0
 6064 0220 2C       		.uleb128 0x2c
 6065 0221 34       		.uleb128 0x34
 6066 0222 00       		.byte	0
 6067 0223 31       		.uleb128 0x31
 6068 0224 13       		.uleb128 0x13
 6069 0225 02       		.uleb128 0x2
 6070 0226 17       		.uleb128 0x17
 6071 0227 00       		.byte	0
 6072 0228 00       		.byte	0
 6073 0229 2D       		.uleb128 0x2d
 6074 022a 898201   		.uleb128 0x4109
 6075 022d 01       		.byte	0x1
 6076 022e 11       		.uleb128 0x11
 6077 022f 01       		.uleb128 0x1
 6078 0230 31       		.uleb128 0x31
 6079 0231 13       		.uleb128 0x13
 6080 0232 01       		.uleb128 0x1
 6081 0233 13       		.uleb128 0x13
 6082 0234 00       		.byte	0
 6083 0235 00       		.byte	0
 6084 0236 2E       		.uleb128 0x2e
 6085 0237 8A8201   		.uleb128 0x410a
ARM GAS  C:\Users\164\AppData\Local\Temp\ccySM5k9.s 			page 127


 6086 023a 00       		.byte	0
 6087 023b 02       		.uleb128 0x2
 6088 023c 18       		.uleb128 0x18
 6089 023d 9142     		.uleb128 0x2111
 6090 023f 18       		.uleb128 0x18
 6091 0240 00       		.byte	0
 6092 0241 00       		.byte	0
 6093 0242 2F       		.uleb128 0x2f
 6094 0243 898201   		.uleb128 0x4109
 6095 0246 01       		.byte	0x1
 6096 0247 11       		.uleb128 0x11
 6097 0248 01       		.uleb128 0x1
 6098 0249 31       		.uleb128 0x31
 6099 024a 13       		.uleb128 0x13
 6100 024b 00       		.byte	0
 6101 024c 00       		.byte	0
 6102 024d 30       		.uleb128 0x30
 6103 024e 34       		.uleb128 0x34
 6104 024f 00       		.byte	0
 6105 0250 03       		.uleb128 0x3
 6106 0251 08       		.uleb128 0x8
 6107 0252 3A       		.uleb128 0x3a
 6108 0253 0B       		.uleb128 0xb
 6109 0254 3B       		.uleb128 0x3b
 6110 0255 05       		.uleb128 0x5
 6111 0256 49       		.uleb128 0x49
 6112 0257 13       		.uleb128 0x13
 6113 0258 00       		.byte	0
 6114 0259 00       		.byte	0
 6115 025a 31       		.uleb128 0x31
 6116 025b 0B       		.uleb128 0xb
 6117 025c 01       		.byte	0x1
 6118 025d 55       		.uleb128 0x55
 6119 025e 17       		.uleb128 0x17
 6120 025f 01       		.uleb128 0x1
 6121 0260 13       		.uleb128 0x13
 6122 0261 00       		.byte	0
 6123 0262 00       		.byte	0
 6124 0263 32       		.uleb128 0x32
 6125 0264 2E       		.uleb128 0x2e
 6126 0265 01       		.byte	0x1
 6127 0266 3F       		.uleb128 0x3f
 6128 0267 19       		.uleb128 0x19
 6129 0268 03       		.uleb128 0x3
 6130 0269 0E       		.uleb128 0xe
 6131 026a 3A       		.uleb128 0x3a
 6132 026b 0B       		.uleb128 0xb
 6133 026c 3B       		.uleb128 0x3b
 6134 026d 0B       		.uleb128 0xb
 6135 026e 27       		.uleb128 0x27
 6136 026f 19       		.uleb128 0x19
 6137 0270 49       		.uleb128 0x49
 6138 0271 13       		.uleb128 0x13
 6139 0272 11       		.uleb128 0x11
 6140 0273 01       		.uleb128 0x1
 6141 0274 12       		.uleb128 0x12
 6142 0275 06       		.uleb128 0x6
ARM GAS  C:\Users\164\AppData\Local\Temp\ccySM5k9.s 			page 128


 6143 0276 40       		.uleb128 0x40
 6144 0277 18       		.uleb128 0x18
 6145 0278 9742     		.uleb128 0x2117
 6146 027a 19       		.uleb128 0x19
 6147 027b 01       		.uleb128 0x1
 6148 027c 13       		.uleb128 0x13
 6149 027d 00       		.byte	0
 6150 027e 00       		.byte	0
 6151 027f 33       		.uleb128 0x33
 6152 0280 05       		.uleb128 0x5
 6153 0281 00       		.byte	0
 6154 0282 03       		.uleb128 0x3
 6155 0283 08       		.uleb128 0x8
 6156 0284 3A       		.uleb128 0x3a
 6157 0285 0B       		.uleb128 0xb
 6158 0286 3B       		.uleb128 0x3b
 6159 0287 0B       		.uleb128 0xb
 6160 0288 49       		.uleb128 0x49
 6161 0289 13       		.uleb128 0x13
 6162 028a 02       		.uleb128 0x2
 6163 028b 17       		.uleb128 0x17
 6164 028c 00       		.byte	0
 6165 028d 00       		.byte	0
 6166 028e 34       		.uleb128 0x34
 6167 028f 05       		.uleb128 0x5
 6168 0290 00       		.byte	0
 6169 0291 03       		.uleb128 0x3
 6170 0292 0E       		.uleb128 0xe
 6171 0293 3A       		.uleb128 0x3a
 6172 0294 0B       		.uleb128 0xb
 6173 0295 3B       		.uleb128 0x3b
 6174 0296 0B       		.uleb128 0xb
 6175 0297 49       		.uleb128 0x49
 6176 0298 13       		.uleb128 0x13
 6177 0299 02       		.uleb128 0x2
 6178 029a 17       		.uleb128 0x17
 6179 029b 00       		.byte	0
 6180 029c 00       		.byte	0
 6181 029d 35       		.uleb128 0x35
 6182 029e 34       		.uleb128 0x34
 6183 029f 00       		.byte	0
 6184 02a0 03       		.uleb128 0x3
 6185 02a1 0E       		.uleb128 0xe
 6186 02a2 3A       		.uleb128 0x3a
 6187 02a3 0B       		.uleb128 0xb
 6188 02a4 3B       		.uleb128 0x3b
 6189 02a5 0B       		.uleb128 0xb
 6190 02a6 49       		.uleb128 0x49
 6191 02a7 13       		.uleb128 0x13
 6192 02a8 02       		.uleb128 0x2
 6193 02a9 17       		.uleb128 0x17
 6194 02aa 00       		.byte	0
 6195 02ab 00       		.byte	0
 6196 02ac 36       		.uleb128 0x36
 6197 02ad 34       		.uleb128 0x34
 6198 02ae 00       		.byte	0
 6199 02af 03       		.uleb128 0x3
ARM GAS  C:\Users\164\AppData\Local\Temp\ccySM5k9.s 			page 129


 6200 02b0 08       		.uleb128 0x8
 6201 02b1 3A       		.uleb128 0x3a
 6202 02b2 0B       		.uleb128 0xb
 6203 02b3 3B       		.uleb128 0x3b
 6204 02b4 0B       		.uleb128 0xb
 6205 02b5 49       		.uleb128 0x49
 6206 02b6 13       		.uleb128 0x13
 6207 02b7 02       		.uleb128 0x2
 6208 02b8 17       		.uleb128 0x17
 6209 02b9 00       		.byte	0
 6210 02ba 00       		.byte	0
 6211 02bb 37       		.uleb128 0x37
 6212 02bc 2E       		.uleb128 0x2e
 6213 02bd 01       		.byte	0x1
 6214 02be 3F       		.uleb128 0x3f
 6215 02bf 19       		.uleb128 0x19
 6216 02c0 03       		.uleb128 0x3
 6217 02c1 0E       		.uleb128 0xe
 6218 02c2 3A       		.uleb128 0x3a
 6219 02c3 0B       		.uleb128 0xb
 6220 02c4 3B       		.uleb128 0x3b
 6221 02c5 0B       		.uleb128 0xb
 6222 02c6 27       		.uleb128 0x27
 6223 02c7 19       		.uleb128 0x19
 6224 02c8 11       		.uleb128 0x11
 6225 02c9 01       		.uleb128 0x1
 6226 02ca 12       		.uleb128 0x12
 6227 02cb 06       		.uleb128 0x6
 6228 02cc 40       		.uleb128 0x40
 6229 02cd 18       		.uleb128 0x18
 6230 02ce 9742     		.uleb128 0x2117
 6231 02d0 19       		.uleb128 0x19
 6232 02d1 01       		.uleb128 0x1
 6233 02d2 13       		.uleb128 0x13
 6234 02d3 00       		.byte	0
 6235 02d4 00       		.byte	0
 6236 02d5 38       		.uleb128 0x38
 6237 02d6 34       		.uleb128 0x34
 6238 02d7 00       		.byte	0
 6239 02d8 03       		.uleb128 0x3
 6240 02d9 08       		.uleb128 0x8
 6241 02da 3A       		.uleb128 0x3a
 6242 02db 0B       		.uleb128 0xb
 6243 02dc 3B       		.uleb128 0x3b
 6244 02dd 0B       		.uleb128 0xb
 6245 02de 49       		.uleb128 0x49
 6246 02df 13       		.uleb128 0x13
 6247 02e0 02       		.uleb128 0x2
 6248 02e1 18       		.uleb128 0x18
 6249 02e2 00       		.byte	0
 6250 02e3 00       		.byte	0
 6251 02e4 39       		.uleb128 0x39
 6252 02e5 0A       		.uleb128 0xa
 6253 02e6 00       		.byte	0
 6254 02e7 03       		.uleb128 0x3
 6255 02e8 0E       		.uleb128 0xe
 6256 02e9 3A       		.uleb128 0x3a
ARM GAS  C:\Users\164\AppData\Local\Temp\ccySM5k9.s 			page 130


 6257 02ea 0B       		.uleb128 0xb
 6258 02eb 3B       		.uleb128 0x3b
 6259 02ec 0B       		.uleb128 0xb
 6260 02ed 11       		.uleb128 0x11
 6261 02ee 01       		.uleb128 0x1
 6262 02ef 00       		.byte	0
 6263 02f0 00       		.byte	0
 6264 02f1 3A       		.uleb128 0x3a
 6265 02f2 1D       		.uleb128 0x1d
 6266 02f3 01       		.byte	0x1
 6267 02f4 31       		.uleb128 0x31
 6268 02f5 13       		.uleb128 0x13
 6269 02f6 11       		.uleb128 0x11
 6270 02f7 01       		.uleb128 0x1
 6271 02f8 12       		.uleb128 0x12
 6272 02f9 06       		.uleb128 0x6
 6273 02fa 58       		.uleb128 0x58
 6274 02fb 0B       		.uleb128 0xb
 6275 02fc 59       		.uleb128 0x59
 6276 02fd 05       		.uleb128 0x5
 6277 02fe 00       		.byte	0
 6278 02ff 00       		.byte	0
 6279 0300 3B       		.uleb128 0x3b
 6280 0301 1D       		.uleb128 0x1d
 6281 0302 01       		.byte	0x1
 6282 0303 31       		.uleb128 0x31
 6283 0304 13       		.uleb128 0x13
 6284 0305 11       		.uleb128 0x11
 6285 0306 01       		.uleb128 0x1
 6286 0307 12       		.uleb128 0x12
 6287 0308 06       		.uleb128 0x6
 6288 0309 58       		.uleb128 0x58
 6289 030a 0B       		.uleb128 0xb
 6290 030b 59       		.uleb128 0x59
 6291 030c 0B       		.uleb128 0xb
 6292 030d 01       		.uleb128 0x1
 6293 030e 13       		.uleb128 0x13
 6294 030f 00       		.byte	0
 6295 0310 00       		.byte	0
 6296 0311 3C       		.uleb128 0x3c
 6297 0312 1D       		.uleb128 0x1d
 6298 0313 01       		.byte	0x1
 6299 0314 31       		.uleb128 0x31
 6300 0315 13       		.uleb128 0x13
 6301 0316 11       		.uleb128 0x11
 6302 0317 01       		.uleb128 0x1
 6303 0318 12       		.uleb128 0x12
 6304 0319 06       		.uleb128 0x6
 6305 031a 58       		.uleb128 0x58
 6306 031b 0B       		.uleb128 0xb
 6307 031c 59       		.uleb128 0x59
 6308 031d 0B       		.uleb128 0xb
 6309 031e 00       		.byte	0
 6310 031f 00       		.byte	0
 6311 0320 3D       		.uleb128 0x3d
 6312 0321 898201   		.uleb128 0x4109
 6313 0324 00       		.byte	0
ARM GAS  C:\Users\164\AppData\Local\Temp\ccySM5k9.s 			page 131


 6314 0325 11       		.uleb128 0x11
 6315 0326 01       		.uleb128 0x1
 6316 0327 31       		.uleb128 0x31
 6317 0328 13       		.uleb128 0x13
 6318 0329 00       		.byte	0
 6319 032a 00       		.byte	0
 6320 032b 3E       		.uleb128 0x3e
 6321 032c 2E       		.uleb128 0x2e
 6322 032d 01       		.byte	0x1
 6323 032e 3F       		.uleb128 0x3f
 6324 032f 19       		.uleb128 0x19
 6325 0330 03       		.uleb128 0x3
 6326 0331 0E       		.uleb128 0xe
 6327 0332 3A       		.uleb128 0x3a
 6328 0333 0B       		.uleb128 0xb
 6329 0334 3B       		.uleb128 0x3b
 6330 0335 05       		.uleb128 0x5
 6331 0336 27       		.uleb128 0x27
 6332 0337 19       		.uleb128 0x19
 6333 0338 11       		.uleb128 0x11
 6334 0339 01       		.uleb128 0x1
 6335 033a 12       		.uleb128 0x12
 6336 033b 06       		.uleb128 0x6
 6337 033c 40       		.uleb128 0x40
 6338 033d 18       		.uleb128 0x18
 6339 033e 9742     		.uleb128 0x2117
 6340 0340 19       		.uleb128 0x19
 6341 0341 01       		.uleb128 0x1
 6342 0342 13       		.uleb128 0x13
 6343 0343 00       		.byte	0
 6344 0344 00       		.byte	0
 6345 0345 3F       		.uleb128 0x3f
 6346 0346 34       		.uleb128 0x34
 6347 0347 00       		.byte	0
 6348 0348 03       		.uleb128 0x3
 6349 0349 0E       		.uleb128 0xe
 6350 034a 3A       		.uleb128 0x3a
 6351 034b 0B       		.uleb128 0xb
 6352 034c 3B       		.uleb128 0x3b
 6353 034d 0B       		.uleb128 0xb
 6354 034e 49       		.uleb128 0x49
 6355 034f 13       		.uleb128 0x13
 6356 0350 3F       		.uleb128 0x3f
 6357 0351 19       		.uleb128 0x19
 6358 0352 3C       		.uleb128 0x3c
 6359 0353 19       		.uleb128 0x19
 6360 0354 00       		.byte	0
 6361 0355 00       		.byte	0
 6362 0356 40       		.uleb128 0x40
 6363 0357 2E       		.uleb128 0x2e
 6364 0358 00       		.byte	0
 6365 0359 3F       		.uleb128 0x3f
 6366 035a 19       		.uleb128 0x19
 6367 035b 3C       		.uleb128 0x3c
 6368 035c 19       		.uleb128 0x19
 6369 035d 6E       		.uleb128 0x6e
 6370 035e 0E       		.uleb128 0xe
ARM GAS  C:\Users\164\AppData\Local\Temp\ccySM5k9.s 			page 132


 6371 035f 03       		.uleb128 0x3
 6372 0360 0E       		.uleb128 0xe
 6373 0361 3A       		.uleb128 0x3a
 6374 0362 0B       		.uleb128 0xb
 6375 0363 3B       		.uleb128 0x3b
 6376 0364 0B       		.uleb128 0xb
 6377 0365 00       		.byte	0
 6378 0366 00       		.byte	0
 6379 0367 41       		.uleb128 0x41
 6380 0368 2E       		.uleb128 0x2e
 6381 0369 00       		.byte	0
 6382 036a 3F       		.uleb128 0x3f
 6383 036b 19       		.uleb128 0x19
 6384 036c 3C       		.uleb128 0x3c
 6385 036d 19       		.uleb128 0x19
 6386 036e 6E       		.uleb128 0x6e
 6387 036f 0E       		.uleb128 0xe
 6388 0370 03       		.uleb128 0x3
 6389 0371 0E       		.uleb128 0xe
 6390 0372 00       		.byte	0
 6391 0373 00       		.byte	0
 6392 0374 00       		.byte	0
 6393              		.section	.debug_loc,"",%progbits
 6394              	.Ldebug_loc0:
 6395              	.LLST0:
 6396 0000 00000000 		.4byte	.LVL0
 6397 0004 10000000 		.4byte	.LVL4
 6398 0008 0100     		.2byte	0x1
 6399 000a 50       		.byte	0x50
 6400 000b 10000000 		.4byte	.LVL4
 6401 000f 13000000 		.4byte	.LVL5-1
 6402 0013 0100     		.2byte	0x1
 6403 0015 51       		.byte	0x51
 6404 0016 13000000 		.4byte	.LVL5-1
 6405 001a 62000000 		.4byte	.LFE37
 6406 001e 0400     		.2byte	0x4
 6407 0020 F3       		.byte	0xf3
 6408 0021 01       		.uleb128 0x1
 6409 0022 50       		.byte	0x50
 6410 0023 9F       		.byte	0x9f
 6411 0024 00000000 		.4byte	0
 6412 0028 00000000 		.4byte	0
 6413              	.LLST1:
 6414 002c 00000000 		.4byte	.LVL0
 6415 0030 0E000000 		.4byte	.LVL3
 6416 0034 0100     		.2byte	0x1
 6417 0036 51       		.byte	0x51
 6418 0037 0E000000 		.4byte	.LVL3
 6419 003b 62000000 		.4byte	.LFE37
 6420 003f 0100     		.2byte	0x1
 6421 0041 56       		.byte	0x56
 6422 0042 00000000 		.4byte	0
 6423 0046 00000000 		.4byte	0
 6424              	.LLST2:
 6425 004a 00000000 		.4byte	.LVL0
 6426 004e 0A000000 		.4byte	.LVL2
 6427 0052 0100     		.2byte	0x1
ARM GAS  C:\Users\164\AppData\Local\Temp\ccySM5k9.s 			page 133


 6428 0054 52       		.byte	0x52
 6429 0055 0A000000 		.4byte	.LVL2
 6430 0059 62000000 		.4byte	.LFE37
 6431 005d 0400     		.2byte	0x4
 6432 005f F3       		.byte	0xf3
 6433 0060 01       		.uleb128 0x1
 6434 0061 52       		.byte	0x52
 6435 0062 9F       		.byte	0x9f
 6436 0063 00000000 		.4byte	0
 6437 0067 00000000 		.4byte	0
 6438              	.LLST3:
 6439 006b 06000000 		.4byte	.LVL1
 6440 006f 0A000000 		.4byte	.LVL2
 6441 0073 0100     		.2byte	0x1
 6442 0075 51       		.byte	0x51
 6443 0076 00000000 		.4byte	0
 6444 007a 00000000 		.4byte	0
 6445              	.LLST4:
 6446 007e 3A000000 		.4byte	.LVL8
 6447 0082 48000000 		.4byte	.LVL10
 6448 0086 0100     		.2byte	0x1
 6449 0088 54       		.byte	0x54
 6450 0089 00000000 		.4byte	0
 6451 008d 00000000 		.4byte	0
 6452              	.LLST5:
 6453 0091 30000000 		.4byte	.LVL6
 6454 0095 36000000 		.4byte	.LVL7
 6455 0099 0300     		.2byte	0x3
 6456 009b 91       		.byte	0x91
 6457 009c 54       		.sleb128 -44
 6458 009d 9F       		.byte	0x9f
 6459 009e 00000000 		.4byte	0
 6460 00a2 00000000 		.4byte	0
 6461              	.LLST6:
 6462 00a6 30000000 		.4byte	.LVL6
 6463 00aa 36000000 		.4byte	.LVL7
 6464 00ae 0100     		.2byte	0x1
 6465 00b0 50       		.byte	0x50
 6466 00b1 00000000 		.4byte	0
 6467 00b5 00000000 		.4byte	0
 6468              	.LLST7:
 6469 00b9 48000000 		.4byte	.LVL10
 6470 00bd 4A000000 		.4byte	.LVL11
 6471 00c1 0300     		.2byte	0x3
 6472 00c3 91       		.byte	0x91
 6473 00c4 54       		.sleb128 -44
 6474 00c5 9F       		.byte	0x9f
 6475 00c6 00000000 		.4byte	0
 6476 00ca 00000000 		.4byte	0
 6477              	.LLST8:
 6478 00ce 00000000 		.4byte	.LVL13
 6479 00d2 0C000000 		.4byte	.LVL16
 6480 00d6 0100     		.2byte	0x1
 6481 00d8 50       		.byte	0x50
 6482 00d9 0C000000 		.4byte	.LVL16
 6483 00dd 18000000 		.4byte	.LFE34
 6484 00e1 0400     		.2byte	0x4
ARM GAS  C:\Users\164\AppData\Local\Temp\ccySM5k9.s 			page 134


 6485 00e3 F3       		.byte	0xf3
 6486 00e4 01       		.uleb128 0x1
 6487 00e5 50       		.byte	0x50
 6488 00e6 9F       		.byte	0x9f
 6489 00e7 00000000 		.4byte	0
 6490 00eb 00000000 		.4byte	0
 6491              	.LLST9:
 6492 00ef 00000000 		.4byte	.LVL13
 6493 00f3 0F000000 		.4byte	.LVL17-1
 6494 00f7 0100     		.2byte	0x1
 6495 00f9 51       		.byte	0x51
 6496 00fa 0F000000 		.4byte	.LVL17-1
 6497 00fe 18000000 		.4byte	.LFE34
 6498 0102 0100     		.2byte	0x1
 6499 0104 54       		.byte	0x54
 6500 0105 00000000 		.4byte	0
 6501 0109 00000000 		.4byte	0
 6502              	.LLST10:
 6503 010d 00000000 		.4byte	.LVL13
 6504 0111 0F000000 		.4byte	.LVL17-1
 6505 0115 0100     		.2byte	0x1
 6506 0117 52       		.byte	0x52
 6507 0118 0F000000 		.4byte	.LVL17-1
 6508 011c 18000000 		.4byte	.LFE34
 6509 0120 0400     		.2byte	0x4
 6510 0122 F3       		.byte	0xf3
 6511 0123 01       		.uleb128 0x1
 6512 0124 52       		.byte	0x52
 6513 0125 9F       		.byte	0x9f
 6514 0126 00000000 		.4byte	0
 6515 012a 00000000 		.4byte	0
 6516              	.LLST11:
 6517 012e 04000000 		.4byte	.LVL14
 6518 0132 0A000000 		.4byte	.LVL15
 6519 0136 0100     		.2byte	0x1
 6520 0138 51       		.byte	0x51
 6521 0139 00000000 		.4byte	0
 6522 013d 00000000 		.4byte	0
 6523              	.LLST12:
 6524 0141 00000000 		.4byte	.LVL18
 6525 0145 10000000 		.4byte	.LVL22
 6526 0149 0100     		.2byte	0x1
 6527 014b 50       		.byte	0x50
 6528 014c 10000000 		.4byte	.LVL22
 6529 0150 13000000 		.4byte	.LVL23-1
 6530 0154 0100     		.2byte	0x1
 6531 0156 51       		.byte	0x51
 6532 0157 13000000 		.4byte	.LVL23-1
 6533 015b 5E000000 		.4byte	.LFE33
 6534 015f 0400     		.2byte	0x4
 6535 0161 F3       		.byte	0xf3
 6536 0162 01       		.uleb128 0x1
 6537 0163 50       		.byte	0x50
 6538 0164 9F       		.byte	0x9f
 6539 0165 00000000 		.4byte	0
 6540 0169 00000000 		.4byte	0
 6541              	.LLST13:
ARM GAS  C:\Users\164\AppData\Local\Temp\ccySM5k9.s 			page 135


 6542 016d 00000000 		.4byte	.LVL18
 6543 0171 0E000000 		.4byte	.LVL21
 6544 0175 0100     		.2byte	0x1
 6545 0177 51       		.byte	0x51
 6546 0178 0E000000 		.4byte	.LVL21
 6547 017c 5E000000 		.4byte	.LFE33
 6548 0180 0100     		.2byte	0x1
 6549 0182 56       		.byte	0x56
 6550 0183 00000000 		.4byte	0
 6551 0187 00000000 		.4byte	0
 6552              	.LLST14:
 6553 018b 00000000 		.4byte	.LVL18
 6554 018f 0A000000 		.4byte	.LVL20
 6555 0193 0100     		.2byte	0x1
 6556 0195 52       		.byte	0x52
 6557 0196 0A000000 		.4byte	.LVL20
 6558 019a 5E000000 		.4byte	.LFE33
 6559 019e 0400     		.2byte	0x4
 6560 01a0 F3       		.byte	0xf3
 6561 01a1 01       		.uleb128 0x1
 6562 01a2 52       		.byte	0x52
 6563 01a3 9F       		.byte	0x9f
 6564 01a4 00000000 		.4byte	0
 6565 01a8 00000000 		.4byte	0
 6566              	.LLST15:
 6567 01ac 06000000 		.4byte	.LVL19
 6568 01b0 0A000000 		.4byte	.LVL20
 6569 01b4 0100     		.2byte	0x1
 6570 01b6 51       		.byte	0x51
 6571 01b7 00000000 		.4byte	0
 6572 01bb 00000000 		.4byte	0
 6573              	.LLST16:
 6574 01bf 30000000 		.4byte	.LVL24
 6575 01c3 36000000 		.4byte	.LVL25
 6576 01c7 0300     		.2byte	0x3
 6577 01c9 91       		.byte	0x91
 6578 01ca 54       		.sleb128 -44
 6579 01cb 9F       		.byte	0x9f
 6580 01cc 00000000 		.4byte	0
 6581 01d0 00000000 		.4byte	0
 6582              	.LLST17:
 6583 01d4 30000000 		.4byte	.LVL24
 6584 01d8 36000000 		.4byte	.LVL25
 6585 01dc 0100     		.2byte	0x1
 6586 01de 54       		.byte	0x54
 6587 01df 00000000 		.4byte	0
 6588 01e3 00000000 		.4byte	0
 6589              	.LLST18:
 6590 01e7 44000000 		.4byte	.LVL27
 6591 01eb 46000000 		.4byte	.LVL28
 6592 01ef 0300     		.2byte	0x3
 6593 01f1 91       		.byte	0x91
 6594 01f2 54       		.sleb128 -44
 6595 01f3 9F       		.byte	0x9f
 6596 01f4 00000000 		.4byte	0
 6597 01f8 00000000 		.4byte	0
 6598              	.LLST19:
ARM GAS  C:\Users\164\AppData\Local\Temp\ccySM5k9.s 			page 136


 6599 01fc 00000000 		.4byte	.LVL30
 6600 0200 1A000000 		.4byte	.LVL33
 6601 0204 0100     		.2byte	0x1
 6602 0206 50       		.byte	0x50
 6603 0207 1A000000 		.4byte	.LVL33
 6604 020b 66000000 		.4byte	.LFE32
 6605 020f 0400     		.2byte	0x4
 6606 0211 F3       		.byte	0xf3
 6607 0212 01       		.uleb128 0x1
 6608 0213 50       		.byte	0x50
 6609 0214 9F       		.byte	0x9f
 6610 0215 00000000 		.4byte	0
 6611 0219 00000000 		.4byte	0
 6612              	.LLST20:
 6613 021d 00000000 		.4byte	.LVL30
 6614 0221 1A000000 		.4byte	.LVL33
 6615 0225 0100     		.2byte	0x1
 6616 0227 51       		.byte	0x51
 6617 0228 1A000000 		.4byte	.LVL33
 6618 022c 66000000 		.4byte	.LFE32
 6619 0230 0100     		.2byte	0x1
 6620 0232 55       		.byte	0x55
 6621 0233 00000000 		.4byte	0
 6622 0237 00000000 		.4byte	0
 6623              	.LLST21:
 6624 023b 00000000 		.4byte	.LVL30
 6625 023f 08000000 		.4byte	.LVL32
 6626 0243 0100     		.2byte	0x1
 6627 0245 52       		.byte	0x52
 6628 0246 08000000 		.4byte	.LVL32
 6629 024a 66000000 		.4byte	.LFE32
 6630 024e 0400     		.2byte	0x4
 6631 0250 F3       		.byte	0xf3
 6632 0251 01       		.uleb128 0x1
 6633 0252 52       		.byte	0x52
 6634 0253 9F       		.byte	0x9f
 6635 0254 00000000 		.4byte	0
 6636 0258 00000000 		.4byte	0
 6637              	.LLST22:
 6638 025c 06000000 		.4byte	.LVL31
 6639 0260 3C000000 		.4byte	.LVL37
 6640 0264 0200     		.2byte	0x2
 6641 0266 30       		.byte	0x30
 6642 0267 9F       		.byte	0x9f
 6643 0268 3C000000 		.4byte	.LVL37
 6644 026c 3E000000 		.4byte	.LVL38
 6645 0270 0100     		.2byte	0x1
 6646 0272 54       		.byte	0x54
 6647 0273 3E000000 		.4byte	.LVL38
 6648 0277 46000000 		.4byte	.LVL40
 6649 027b 0200     		.2byte	0x2
 6650 027d 30       		.byte	0x30
 6651 027e 9F       		.byte	0x9f
 6652 027f 46000000 		.4byte	.LVL40
 6653 0283 66000000 		.4byte	.LFE32
 6654 0287 0100     		.2byte	0x1
 6655 0289 54       		.byte	0x54
ARM GAS  C:\Users\164\AppData\Local\Temp\ccySM5k9.s 			page 137


 6656 028a 00000000 		.4byte	0
 6657 028e 00000000 		.4byte	0
 6658              	.LLST23:
 6659 0292 06000000 		.4byte	.LVL31
 6660 0296 1A000000 		.4byte	.LVL33
 6661 029a 0100     		.2byte	0x1
 6662 029c 51       		.byte	0x51
 6663 029d 1A000000 		.4byte	.LVL33
 6664 02a1 66000000 		.4byte	.LFE32
 6665 02a5 0100     		.2byte	0x1
 6666 02a7 55       		.byte	0x55
 6667 02a8 00000000 		.4byte	0
 6668 02ac 00000000 		.4byte	0
 6669              	.LLST24:
 6670 02b0 22000000 		.4byte	.LVL34
 6671 02b4 28000000 		.4byte	.LVL35
 6672 02b8 0300     		.2byte	0x3
 6673 02ba 91       		.byte	0x91
 6674 02bb 64       		.sleb128 -28
 6675 02bc 9F       		.byte	0x9f
 6676 02bd 00000000 		.4byte	0
 6677 02c1 00000000 		.4byte	0
 6678              	.LLST25:
 6679 02c5 22000000 		.4byte	.LVL34
 6680 02c9 28000000 		.4byte	.LVL35
 6681 02cd 0100     		.2byte	0x1
 6682 02cf 54       		.byte	0x54
 6683 02d0 00000000 		.4byte	0
 6684 02d4 00000000 		.4byte	0
 6685              	.LLST26:
 6686 02d8 3E000000 		.4byte	.LVL38
 6687 02dc 40000000 		.4byte	.LVL39
 6688 02e0 0300     		.2byte	0x3
 6689 02e2 91       		.byte	0x91
 6690 02e3 64       		.sleb128 -28
 6691 02e4 9F       		.byte	0x9f
 6692 02e5 00000000 		.4byte	0
 6693 02e9 00000000 		.4byte	0
 6694              	.LLST27:
 6695 02ed 00000000 		.4byte	.LVL43
 6696 02f1 1A000000 		.4byte	.LVL46
 6697 02f5 0100     		.2byte	0x1
 6698 02f7 50       		.byte	0x50
 6699 02f8 1A000000 		.4byte	.LVL46
 6700 02fc 5C000000 		.4byte	.LFE31
 6701 0300 0400     		.2byte	0x4
 6702 0302 F3       		.byte	0xf3
 6703 0303 01       		.uleb128 0x1
 6704 0304 50       		.byte	0x50
 6705 0305 9F       		.byte	0x9f
 6706 0306 00000000 		.4byte	0
 6707 030a 00000000 		.4byte	0
 6708              	.LLST28:
 6709 030e 00000000 		.4byte	.LVL43
 6710 0312 1A000000 		.4byte	.LVL46
 6711 0316 0100     		.2byte	0x1
 6712 0318 51       		.byte	0x51
ARM GAS  C:\Users\164\AppData\Local\Temp\ccySM5k9.s 			page 138


 6713 0319 1A000000 		.4byte	.LVL46
 6714 031d 5C000000 		.4byte	.LFE31
 6715 0321 0100     		.2byte	0x1
 6716 0323 55       		.byte	0x55
 6717 0324 00000000 		.4byte	0
 6718 0328 00000000 		.4byte	0
 6719              	.LLST29:
 6720 032c 00000000 		.4byte	.LVL43
 6721 0330 08000000 		.4byte	.LVL45
 6722 0334 0100     		.2byte	0x1
 6723 0336 52       		.byte	0x52
 6724 0337 08000000 		.4byte	.LVL45
 6725 033b 5C000000 		.4byte	.LFE31
 6726 033f 0400     		.2byte	0x4
 6727 0341 F3       		.byte	0xf3
 6728 0342 01       		.uleb128 0x1
 6729 0343 52       		.byte	0x52
 6730 0344 9F       		.byte	0x9f
 6731 0345 00000000 		.4byte	0
 6732 0349 00000000 		.4byte	0
 6733              	.LLST30:
 6734 034d 06000000 		.4byte	.LVL44
 6735 0351 40000000 		.4byte	.LVL54
 6736 0355 0200     		.2byte	0x2
 6737 0357 30       		.byte	0x30
 6738 0358 9F       		.byte	0x9f
 6739 0359 40000000 		.4byte	.LVL54
 6740 035d 47000000 		.4byte	.LVL55-1
 6741 0361 0100     		.2byte	0x1
 6742 0363 53       		.byte	0x53
 6743 0364 4E000000 		.4byte	.LVL56
 6744 0368 53000000 		.4byte	.LVL57-1
 6745 036c 0100     		.2byte	0x1
 6746 036e 53       		.byte	0x53
 6747 036f 00000000 		.4byte	0
 6748 0373 00000000 		.4byte	0
 6749              	.LLST31:
 6750 0377 06000000 		.4byte	.LVL44
 6751 037b 1A000000 		.4byte	.LVL46
 6752 037f 0100     		.2byte	0x1
 6753 0381 51       		.byte	0x51
 6754 0382 1A000000 		.4byte	.LVL46
 6755 0386 5C000000 		.4byte	.LFE31
 6756 038a 0100     		.2byte	0x1
 6757 038c 55       		.byte	0x55
 6758 038d 00000000 		.4byte	0
 6759 0391 00000000 		.4byte	0
 6760              	.LLST32:
 6761 0395 28000000 		.4byte	.LVL48
 6762 0399 2E000000 		.4byte	.LVL49
 6763 039d 0300     		.2byte	0x3
 6764 039f 70       		.byte	0x70
 6765 03a0 10       		.sleb128 16
 6766 03a1 9F       		.byte	0x9f
 6767 03a2 2E000000 		.4byte	.LVL49
 6768 03a6 31000000 		.4byte	.LVL50-1
 6769 03aa 0100     		.2byte	0x1
ARM GAS  C:\Users\164\AppData\Local\Temp\ccySM5k9.s 			page 139


 6770 03ac 50       		.byte	0x50
 6771 03ad 31000000 		.4byte	.LVL50-1
 6772 03b1 34000000 		.4byte	.LVL51
 6773 03b5 0600     		.2byte	0x6
 6774 03b7 91       		.byte	0x91
 6775 03b8 68       		.sleb128 -24
 6776 03b9 06       		.byte	0x6
 6777 03ba 40       		.byte	0x40
 6778 03bb 1C       		.byte	0x1c
 6779 03bc 9F       		.byte	0x9f
 6780 03bd 3E000000 		.4byte	.LVL53
 6781 03c1 40000000 		.4byte	.LVL54
 6782 03c5 0600     		.2byte	0x6
 6783 03c7 91       		.byte	0x91
 6784 03c8 68       		.sleb128 -24
 6785 03c9 06       		.byte	0x6
 6786 03ca 40       		.byte	0x40
 6787 03cb 1C       		.byte	0x1c
 6788 03cc 9F       		.byte	0x9f
 6789 03cd 00000000 		.4byte	0
 6790 03d1 00000000 		.4byte	0
 6791              	.LLST33:
 6792 03d5 22000000 		.4byte	.LVL47
 6793 03d9 28000000 		.4byte	.LVL48
 6794 03dd 0300     		.2byte	0x3
 6795 03df 91       		.byte	0x91
 6796 03e0 64       		.sleb128 -28
 6797 03e1 9F       		.byte	0x9f
 6798 03e2 00000000 		.4byte	0
 6799 03e6 00000000 		.4byte	0
 6800              	.LLST34:
 6801 03ea 22000000 		.4byte	.LVL47
 6802 03ee 28000000 		.4byte	.LVL48
 6803 03f2 0100     		.2byte	0x1
 6804 03f4 50       		.byte	0x50
 6805 03f5 00000000 		.4byte	0
 6806 03f9 00000000 		.4byte	0
 6807              	.LLST35:
 6808 03fd 34000000 		.4byte	.LVL51
 6809 0401 36000000 		.4byte	.LVL52
 6810 0405 0300     		.2byte	0x3
 6811 0407 91       		.byte	0x91
 6812 0408 64       		.sleb128 -28
 6813 0409 9F       		.byte	0x9f
 6814 040a 00000000 		.4byte	0
 6815 040e 00000000 		.4byte	0
 6816              	.LLST36:
 6817 0412 00000000 		.4byte	.LVL58
 6818 0416 0E000000 		.4byte	.LVL61
 6819 041a 0100     		.2byte	0x1
 6820 041c 50       		.byte	0x50
 6821 041d 0E000000 		.4byte	.LVL61
 6822 0421 18000000 		.4byte	.LVL63
 6823 0425 0400     		.2byte	0x4
 6824 0427 F3       		.byte	0xf3
 6825 0428 01       		.uleb128 0x1
 6826 0429 50       		.byte	0x50
ARM GAS  C:\Users\164\AppData\Local\Temp\ccySM5k9.s 			page 140


 6827 042a 9F       		.byte	0x9f
 6828 042b 18000000 		.4byte	.LVL63
 6829 042f 1A000000 		.4byte	.LVL64
 6830 0433 0100     		.2byte	0x1
 6831 0435 50       		.byte	0x50
 6832 0436 1A000000 		.4byte	.LVL64
 6833 043a 24000000 		.4byte	.LFE29
 6834 043e 0400     		.2byte	0x4
 6835 0440 F3       		.byte	0xf3
 6836 0441 01       		.uleb128 0x1
 6837 0442 50       		.byte	0x50
 6838 0443 9F       		.byte	0x9f
 6839 0444 00000000 		.4byte	0
 6840 0448 00000000 		.4byte	0
 6841              	.LLST37:
 6842 044c 00000000 		.4byte	.LVL58
 6843 0450 11000000 		.4byte	.LVL62-1
 6844 0454 0100     		.2byte	0x1
 6845 0456 51       		.byte	0x51
 6846 0457 11000000 		.4byte	.LVL62-1
 6847 045b 18000000 		.4byte	.LVL63
 6848 045f 0100     		.2byte	0x1
 6849 0461 54       		.byte	0x54
 6850 0462 18000000 		.4byte	.LVL63
 6851 0466 1D000000 		.4byte	.LVL65-1
 6852 046a 0100     		.2byte	0x1
 6853 046c 51       		.byte	0x51
 6854 046d 1D000000 		.4byte	.LVL65-1
 6855 0471 24000000 		.4byte	.LFE29
 6856 0475 0100     		.2byte	0x1
 6857 0477 54       		.byte	0x54
 6858 0478 00000000 		.4byte	0
 6859 047c 00000000 		.4byte	0
 6860              	.LLST38:
 6861 0480 00000000 		.4byte	.LVL58
 6862 0484 11000000 		.4byte	.LVL62-1
 6863 0488 0100     		.2byte	0x1
 6864 048a 52       		.byte	0x52
 6865 048b 11000000 		.4byte	.LVL62-1
 6866 048f 18000000 		.4byte	.LVL63
 6867 0493 0400     		.2byte	0x4
 6868 0495 F3       		.byte	0xf3
 6869 0496 01       		.uleb128 0x1
 6870 0497 52       		.byte	0x52
 6871 0498 9F       		.byte	0x9f
 6872 0499 18000000 		.4byte	.LVL63
 6873 049d 1D000000 		.4byte	.LVL65-1
 6874 04a1 0100     		.2byte	0x1
 6875 04a3 52       		.byte	0x52
 6876 04a4 1D000000 		.4byte	.LVL65-1
 6877 04a8 24000000 		.4byte	.LFE29
 6878 04ac 0400     		.2byte	0x4
 6879 04ae F3       		.byte	0xf3
 6880 04af 01       		.uleb128 0x1
 6881 04b0 52       		.byte	0x52
 6882 04b1 9F       		.byte	0x9f
 6883 04b2 00000000 		.4byte	0
ARM GAS  C:\Users\164\AppData\Local\Temp\ccySM5k9.s 			page 141


 6884 04b6 00000000 		.4byte	0
 6885              	.LLST39:
 6886 04ba 04000000 		.4byte	.LVL59
 6887 04be 08000000 		.4byte	.LVL60
 6888 04c2 0100     		.2byte	0x1
 6889 04c4 51       		.byte	0x51
 6890 04c5 00000000 		.4byte	0
 6891 04c9 00000000 		.4byte	0
 6892              	.LLST40:
 6893 04cd 00000000 		.4byte	.LVL66
 6894 04d1 18000000 		.4byte	.LVL67
 6895 04d5 0100     		.2byte	0x1
 6896 04d7 51       		.byte	0x51
 6897 04d8 18000000 		.4byte	.LVL67
 6898 04dc 4C000000 		.4byte	.LFE14
 6899 04e0 0100     		.2byte	0x1
 6900 04e2 57       		.byte	0x57
 6901 04e3 00000000 		.4byte	0
 6902 04e7 00000000 		.4byte	0
 6903              	.LLST41:
 6904 04eb 00000000 		.4byte	.LVL66
 6905 04ef 1D000000 		.4byte	.LVL69-1
 6906 04f3 0100     		.2byte	0x1
 6907 04f5 52       		.byte	0x52
 6908 04f6 1D000000 		.4byte	.LVL69-1
 6909 04fa 3E000000 		.4byte	.LVL75
 6910 04fe 0100     		.2byte	0x1
 6911 0500 56       		.byte	0x56
 6912 0501 3E000000 		.4byte	.LVL75
 6913 0505 4C000000 		.4byte	.LFE14
 6914 0509 0400     		.2byte	0x4
 6915 050b F3       		.byte	0xf3
 6916 050c 01       		.uleb128 0x1
 6917 050d 52       		.byte	0x52
 6918 050e 9F       		.byte	0x9f
 6919 050f 00000000 		.4byte	0
 6920 0513 00000000 		.4byte	0
 6921              	.LLST42:
 6922 0517 00000000 		.4byte	.LVL66
 6923 051b 1A000000 		.4byte	.LVL68
 6924 051f 0200     		.2byte	0x2
 6925 0521 70       		.byte	0x70
 6926 0522 00       		.sleb128 0
 6927 0523 1A000000 		.4byte	.LVL68
 6928 0527 4C000000 		.4byte	.LFE14
 6929 052b 0200     		.2byte	0x2
 6930 052d 74       		.byte	0x74
 6931 052e 00       		.sleb128 0
 6932 052f 00000000 		.4byte	0
 6933 0533 00000000 		.4byte	0
 6934              	.LLST43:
 6935 0537 1E000000 		.4byte	.LVL69
 6936 053b 26000000 		.4byte	.LVL70
 6937 053f 0100     		.2byte	0x1
 6938 0541 50       		.byte	0x50
 6939 0542 26000000 		.4byte	.LVL70
 6940 0546 48000000 		.4byte	.LVL76
ARM GAS  C:\Users\164\AppData\Local\Temp\ccySM5k9.s 			page 142


 6941 054a 0100     		.2byte	0x1
 6942 054c 55       		.byte	0x55
 6943 054d 00000000 		.4byte	0
 6944 0551 00000000 		.4byte	0
 6945              	.LLST44:
 6946 0555 2A000000 		.4byte	.LVL71
 6947 0559 2E000000 		.4byte	.LVL72
 6948 055d 0100     		.2byte	0x1
 6949 055f 50       		.byte	0x50
 6950 0560 34000000 		.4byte	.LVL74
 6951 0564 48000000 		.4byte	.LVL76
 6952 0568 0100     		.2byte	0x1
 6953 056a 50       		.byte	0x50
 6954 056b 00000000 		.4byte	0
 6955 056f 00000000 		.4byte	0
 6956              	.LLST45:
 6957 0573 00000000 		.4byte	.LVL77
 6958 0577 0C000000 		.4byte	.LVL80
 6959 057b 0100     		.2byte	0x1
 6960 057d 50       		.byte	0x50
 6961 057e 0C000000 		.4byte	.LVL80
 6962 0582 0F000000 		.4byte	.LVL81-1
 6963 0586 0100     		.2byte	0x1
 6964 0588 51       		.byte	0x51
 6965 0589 0F000000 		.4byte	.LVL81-1
 6966 058d 22000000 		.4byte	.LFE23
 6967 0591 0400     		.2byte	0x4
 6968 0593 F3       		.byte	0xf3
 6969 0594 01       		.uleb128 0x1
 6970 0595 50       		.byte	0x50
 6971 0596 9F       		.byte	0x9f
 6972 0597 00000000 		.4byte	0
 6973 059b 00000000 		.4byte	0
 6974              	.LLST46:
 6975 059f 00000000 		.4byte	.LVL77
 6976 05a3 0A000000 		.4byte	.LVL79
 6977 05a7 0100     		.2byte	0x1
 6978 05a9 51       		.byte	0x51
 6979 05aa 0A000000 		.4byte	.LVL79
 6980 05ae 22000000 		.4byte	.LFE23
 6981 05b2 0100     		.2byte	0x1
 6982 05b4 54       		.byte	0x54
 6983 05b5 00000000 		.4byte	0
 6984 05b9 00000000 		.4byte	0
 6985              	.LLST47:
 6986 05bd 00000000 		.4byte	.LVL77
 6987 05c1 08000000 		.4byte	.LVL78
 6988 05c5 0100     		.2byte	0x1
 6989 05c7 52       		.byte	0x52
 6990 05c8 08000000 		.4byte	.LVL78
 6991 05cc 22000000 		.4byte	.LFE23
 6992 05d0 0400     		.2byte	0x4
 6993 05d2 F3       		.byte	0xf3
 6994 05d3 01       		.uleb128 0x1
 6995 05d4 52       		.byte	0x52
 6996 05d5 9F       		.byte	0x9f
 6997 05d6 00000000 		.4byte	0
ARM GAS  C:\Users\164\AppData\Local\Temp\ccySM5k9.s 			page 143


 6998 05da 00000000 		.4byte	0
 6999              	.LLST48:
 7000 05de 00000000 		.4byte	.LVL83
 7001 05e2 05000000 		.4byte	.LVL84-1
 7002 05e6 0100     		.2byte	0x1
 7003 05e8 50       		.byte	0x50
 7004 05e9 05000000 		.4byte	.LVL84-1
 7005 05ed 08000000 		.4byte	.LFE15
 7006 05f1 0400     		.2byte	0x4
 7007 05f3 F3       		.byte	0xf3
 7008 05f4 01       		.uleb128 0x1
 7009 05f5 50       		.byte	0x50
 7010 05f6 9F       		.byte	0x9f
 7011 05f7 00000000 		.4byte	0
 7012 05fb 00000000 		.4byte	0
 7013              	.LLST49:
 7014 05ff 00000000 		.4byte	.LVL85
 7015 0603 10000000 		.4byte	.LVL88
 7016 0607 0100     		.2byte	0x1
 7017 0609 50       		.byte	0x50
 7018 060a 10000000 		.4byte	.LVL88
 7019 060e 28000000 		.4byte	.LFE16
 7020 0612 0400     		.2byte	0x4
 7021 0614 F3       		.byte	0xf3
 7022 0615 01       		.uleb128 0x1
 7023 0616 50       		.byte	0x50
 7024 0617 9F       		.byte	0x9f
 7025 0618 00000000 		.4byte	0
 7026 061c 00000000 		.4byte	0
 7027              	.LLST50:
 7028 0620 00000000 		.4byte	.LVL85
 7029 0624 10000000 		.4byte	.LVL88
 7030 0628 0100     		.2byte	0x1
 7031 062a 51       		.byte	0x51
 7032 062b 10000000 		.4byte	.LVL88
 7033 062f 28000000 		.4byte	.LFE16
 7034 0633 0100     		.2byte	0x1
 7035 0635 56       		.byte	0x56
 7036 0636 00000000 		.4byte	0
 7037 063a 00000000 		.4byte	0
 7038              	.LLST51:
 7039 063e 00000000 		.4byte	.LVL92
 7040 0642 08000000 		.4byte	.LVL94
 7041 0646 0100     		.2byte	0x1
 7042 0648 50       		.byte	0x50
 7043 0649 08000000 		.4byte	.LVL94
 7044 064d 26000000 		.4byte	.LFE30
 7045 0651 0400     		.2byte	0x4
 7046 0653 F3       		.byte	0xf3
 7047 0654 01       		.uleb128 0x1
 7048 0655 50       		.byte	0x50
 7049 0656 9F       		.byte	0x9f
 7050 0657 00000000 		.4byte	0
 7051 065b 00000000 		.4byte	0
 7052              	.LLST52:
 7053 065f 00000000 		.4byte	.LVL92
 7054 0663 06000000 		.4byte	.LVL93
ARM GAS  C:\Users\164\AppData\Local\Temp\ccySM5k9.s 			page 144


 7055 0667 0100     		.2byte	0x1
 7056 0669 51       		.byte	0x51
 7057 066a 06000000 		.4byte	.LVL93
 7058 066e 26000000 		.4byte	.LFE30
 7059 0672 0100     		.2byte	0x1
 7060 0674 54       		.byte	0x54
 7061 0675 00000000 		.4byte	0
 7062 0679 00000000 		.4byte	0
 7063              	.LLST53:
 7064 067d 00000000 		.4byte	.LVL92
 7065 0681 0B000000 		.4byte	.LVL95-1
 7066 0685 0100     		.2byte	0x1
 7067 0687 52       		.byte	0x52
 7068 0688 0B000000 		.4byte	.LVL95-1
 7069 068c 26000000 		.4byte	.LFE30
 7070 0690 0400     		.2byte	0x4
 7071 0692 F3       		.byte	0xf3
 7072 0693 01       		.uleb128 0x1
 7073 0694 52       		.byte	0x52
 7074 0695 9F       		.byte	0x9f
 7075 0696 00000000 		.4byte	0
 7076 069a 00000000 		.4byte	0
 7077              	.LLST54:
 7078 069e 0C000000 		.4byte	.LVL95
 7079 06a2 10000000 		.4byte	.LVL96
 7080 06a6 0100     		.2byte	0x1
 7081 06a8 50       		.byte	0x50
 7082 06a9 1A000000 		.4byte	.LVL98
 7083 06ad 1C000000 		.4byte	.LVL99
 7084 06b1 0100     		.2byte	0x1
 7085 06b3 50       		.byte	0x50
 7086 06b4 00000000 		.4byte	0
 7087 06b8 00000000 		.4byte	0
 7088              	.LLST55:
 7089 06bc 00000000 		.4byte	.LVL101
 7090 06c0 0B000000 		.4byte	.LVL102-1
 7091 06c4 0100     		.2byte	0x1
 7092 06c6 50       		.byte	0x50
 7093 06c7 0B000000 		.4byte	.LVL102-1
 7094 06cb 4A000000 		.4byte	.LFE17
 7095 06cf 0100     		.2byte	0x1
 7096 06d1 57       		.byte	0x57
 7097 06d2 00000000 		.4byte	0
 7098 06d6 00000000 		.4byte	0
 7099              	.LLST56:
 7100 06da 00000000 		.4byte	.LVL101
 7101 06de 0B000000 		.4byte	.LVL102-1
 7102 06e2 0100     		.2byte	0x1
 7103 06e4 51       		.byte	0x51
 7104 06e5 0B000000 		.4byte	.LVL102-1
 7105 06e9 4A000000 		.4byte	.LFE17
 7106 06ed 0100     		.2byte	0x1
 7107 06ef 55       		.byte	0x55
 7108 06f0 00000000 		.4byte	0
 7109 06f4 00000000 		.4byte	0
 7110              	.LLST57:
 7111 06f8 00000000 		.4byte	.LVL101
ARM GAS  C:\Users\164\AppData\Local\Temp\ccySM5k9.s 			page 145


 7112 06fc 0B000000 		.4byte	.LVL102-1
 7113 0700 0100     		.2byte	0x1
 7114 0702 52       		.byte	0x52
 7115 0703 0B000000 		.4byte	.LVL102-1
 7116 0707 4A000000 		.4byte	.LFE17
 7117 070b 0100     		.2byte	0x1
 7118 070d 56       		.byte	0x56
 7119 070e 00000000 		.4byte	0
 7120 0712 00000000 		.4byte	0
 7121              	.LLST58:
 7122 0716 0C000000 		.4byte	.LVL102
 7123 071a 12000000 		.4byte	.LVL103
 7124 071e 0100     		.2byte	0x1
 7125 0720 50       		.byte	0x50
 7126 0721 26000000 		.4byte	.LVL108
 7127 0725 2B000000 		.4byte	.LVL109-1
 7128 0729 0100     		.2byte	0x1
 7129 072b 50       		.byte	0x50
 7130 072c 2B000000 		.4byte	.LVL109-1
 7131 0730 34000000 		.4byte	.LVL110
 7132 0734 0100     		.2byte	0x1
 7133 0736 54       		.byte	0x54
 7134 0737 34000000 		.4byte	.LVL110
 7135 073b 36000000 		.4byte	.LVL111
 7136 073f 0300     		.2byte	0x3
 7137 0741 74       		.byte	0x74
 7138 0742 10       		.sleb128 16
 7139 0743 9F       		.byte	0x9f
 7140 0744 36000000 		.4byte	.LVL111
 7141 0748 46000000 		.4byte	.LVL113
 7142 074c 0100     		.2byte	0x1
 7143 074e 54       		.byte	0x54
 7144 074f 00000000 		.4byte	0
 7145 0753 00000000 		.4byte	0
 7146              	.LLST59:
 7147 0757 0C000000 		.4byte	.LVL102
 7148 075b 16000000 		.4byte	.LVL104
 7149 075f 0200     		.2byte	0x2
 7150 0761 30       		.byte	0x30
 7151 0762 9F       		.byte	0x9f
 7152 0763 16000000 		.4byte	.LVL104
 7153 0767 1E000000 		.4byte	.LVL105
 7154 076b 0100     		.2byte	0x1
 7155 076d 50       		.byte	0x50
 7156 076e 1E000000 		.4byte	.LVL105
 7157 0772 21000000 		.4byte	.LVL106-1
 7158 0776 0100     		.2byte	0x1
 7159 0778 53       		.byte	0x53
 7160 0779 24000000 		.4byte	.LVL107
 7161 077d 26000000 		.4byte	.LVL108
 7162 0781 0100     		.2byte	0x1
 7163 0783 50       		.byte	0x50
 7164 0784 26000000 		.4byte	.LVL108
 7165 0788 46000000 		.4byte	.LVL113
 7166 078c 0200     		.2byte	0x2
 7167 078e 30       		.byte	0x30
 7168 078f 9F       		.byte	0x9f
ARM GAS  C:\Users\164\AppData\Local\Temp\ccySM5k9.s 			page 146


 7169 0790 46000000 		.4byte	.LVL113
 7170 0794 4A000000 		.4byte	.LFE17
 7171 0798 0100     		.2byte	0x1
 7172 079a 53       		.byte	0x53
 7173 079b 00000000 		.4byte	0
 7174 079f 00000000 		.4byte	0
 7175              	.LLST60:
 7176 07a3 00000000 		.4byte	.LVL114
 7177 07a7 1A000000 		.4byte	.LVL117
 7178 07ab 0100     		.2byte	0x1
 7179 07ad 50       		.byte	0x50
 7180 07ae 1A000000 		.4byte	.LVL117
 7181 07b2 4C000000 		.4byte	.LFE36
 7182 07b6 0400     		.2byte	0x4
 7183 07b8 F3       		.byte	0xf3
 7184 07b9 01       		.uleb128 0x1
 7185 07ba 50       		.byte	0x50
 7186 07bb 9F       		.byte	0x9f
 7187 07bc 00000000 		.4byte	0
 7188 07c0 00000000 		.4byte	0
 7189              	.LLST61:
 7190 07c4 00000000 		.4byte	.LVL114
 7191 07c8 1A000000 		.4byte	.LVL117
 7192 07cc 0100     		.2byte	0x1
 7193 07ce 51       		.byte	0x51
 7194 07cf 1A000000 		.4byte	.LVL117
 7195 07d3 4C000000 		.4byte	.LFE36
 7196 07d7 0100     		.2byte	0x1
 7197 07d9 57       		.byte	0x57
 7198 07da 00000000 		.4byte	0
 7199 07de 00000000 		.4byte	0
 7200              	.LLST62:
 7201 07e2 00000000 		.4byte	.LVL114
 7202 07e6 08000000 		.4byte	.LVL116
 7203 07ea 0100     		.2byte	0x1
 7204 07ec 52       		.byte	0x52
 7205 07ed 08000000 		.4byte	.LVL116
 7206 07f1 4C000000 		.4byte	.LFE36
 7207 07f5 0400     		.2byte	0x4
 7208 07f7 F3       		.byte	0xf3
 7209 07f8 01       		.uleb128 0x1
 7210 07f9 52       		.byte	0x52
 7211 07fa 9F       		.byte	0x9f
 7212 07fb 00000000 		.4byte	0
 7213 07ff 00000000 		.4byte	0
 7214              	.LLST63:
 7215 0803 06000000 		.4byte	.LVL115
 7216 0807 1A000000 		.4byte	.LVL117
 7217 080b 0300     		.2byte	0x3
 7218 080d 71       		.byte	0x71
 7219 080e 10       		.sleb128 16
 7220 080f 9F       		.byte	0x9f
 7221 0810 1A000000 		.4byte	.LVL117
 7222 0814 4C000000 		.4byte	.LFE36
 7223 0818 0300     		.2byte	0x3
 7224 081a 77       		.byte	0x77
 7225 081b 10       		.sleb128 16
ARM GAS  C:\Users\164\AppData\Local\Temp\ccySM5k9.s 			page 147


 7226 081c 9F       		.byte	0x9f
 7227 081d 00000000 		.4byte	0
 7228 0821 00000000 		.4byte	0
 7229              	.LLST64:
 7230 0825 22000000 		.4byte	.LVL118
 7231 0829 28000000 		.4byte	.LVL119
 7232 082d 0300     		.2byte	0x3
 7233 082f 91       		.byte	0x91
 7234 0830 5C       		.sleb128 -36
 7235 0831 9F       		.byte	0x9f
 7236 0832 00000000 		.4byte	0
 7237 0836 00000000 		.4byte	0
 7238              	.LLST65:
 7239 083a 22000000 		.4byte	.LVL118
 7240 083e 28000000 		.4byte	.LVL119
 7241 0842 0100     		.2byte	0x1
 7242 0844 54       		.byte	0x54
 7243 0845 00000000 		.4byte	0
 7244 0849 00000000 		.4byte	0
 7245              	.LLST66:
 7246 084d 42000000 		.4byte	.LVL122
 7247 0851 44000000 		.4byte	.LVL123
 7248 0855 0300     		.2byte	0x3
 7249 0857 91       		.byte	0x91
 7250 0858 5C       		.sleb128 -36
 7251 0859 9F       		.byte	0x9f
 7252 085a 00000000 		.4byte	0
 7253 085e 00000000 		.4byte	0
 7254              	.LLST67:
 7255 0862 00000000 		.4byte	.LVL124
 7256 0866 10000000 		.4byte	.LVL128
 7257 086a 0100     		.2byte	0x1
 7258 086c 50       		.byte	0x50
 7259 086d 10000000 		.4byte	.LVL128
 7260 0871 1E000000 		.4byte	.LVL130
 7261 0875 0400     		.2byte	0x4
 7262 0877 F3       		.byte	0xf3
 7263 0878 01       		.uleb128 0x1
 7264 0879 50       		.byte	0x50
 7265 087a 9F       		.byte	0x9f
 7266 087b 1E000000 		.4byte	.LVL130
 7267 087f 20000000 		.4byte	.LFE25
 7268 0883 0100     		.2byte	0x1
 7269 0885 50       		.byte	0x50
 7270 0886 00000000 		.4byte	0
 7271 088a 00000000 		.4byte	0
 7272              	.LLST68:
 7273 088e 00000000 		.4byte	.LVL124
 7274 0892 0E000000 		.4byte	.LVL127
 7275 0896 0100     		.2byte	0x1
 7276 0898 51       		.byte	0x51
 7277 0899 0E000000 		.4byte	.LVL127
 7278 089d 1E000000 		.4byte	.LVL130
 7279 08a1 0100     		.2byte	0x1
 7280 08a3 54       		.byte	0x54
 7281 08a4 1E000000 		.4byte	.LVL130
 7282 08a8 20000000 		.4byte	.LFE25
ARM GAS  C:\Users\164\AppData\Local\Temp\ccySM5k9.s 			page 148


 7283 08ac 0100     		.2byte	0x1
 7284 08ae 51       		.byte	0x51
 7285 08af 00000000 		.4byte	0
 7286 08b3 00000000 		.4byte	0
 7287              	.LLST69:
 7288 08b7 00000000 		.4byte	.LVL124
 7289 08bb 0C000000 		.4byte	.LVL126
 7290 08bf 0100     		.2byte	0x1
 7291 08c1 52       		.byte	0x52
 7292 08c2 0C000000 		.4byte	.LVL126
 7293 08c6 1E000000 		.4byte	.LVL130
 7294 08ca 0400     		.2byte	0x4
 7295 08cc F3       		.byte	0xf3
 7296 08cd 01       		.uleb128 0x1
 7297 08ce 52       		.byte	0x52
 7298 08cf 9F       		.byte	0x9f
 7299 08d0 1E000000 		.4byte	.LVL130
 7300 08d4 20000000 		.4byte	.LFE25
 7301 08d8 0100     		.2byte	0x1
 7302 08da 52       		.byte	0x52
 7303 08db 00000000 		.4byte	0
 7304 08df 00000000 		.4byte	0
 7305              	.LLST70:
 7306 08e3 08000000 		.4byte	.LVL125
 7307 08e7 0E000000 		.4byte	.LVL127
 7308 08eb 0300     		.2byte	0x3
 7309 08ed 71       		.byte	0x71
 7310 08ee 10       		.sleb128 16
 7311 08ef 9F       		.byte	0x9f
 7312 08f0 0E000000 		.4byte	.LVL127
 7313 08f4 13000000 		.4byte	.LVL129-1
 7314 08f8 0100     		.2byte	0x1
 7315 08fa 51       		.byte	0x51
 7316 08fb 13000000 		.4byte	.LVL129-1
 7317 08ff 1E000000 		.4byte	.LVL130
 7318 0903 0300     		.2byte	0x3
 7319 0905 74       		.byte	0x74
 7320 0906 10       		.sleb128 16
 7321 0907 9F       		.byte	0x9f
 7322 0908 00000000 		.4byte	0
 7323 090c 00000000 		.4byte	0
 7324              	.LLST71:
 7325 0910 08000000 		.4byte	.LVL125
 7326 0914 0C000000 		.4byte	.LVL126
 7327 0918 0300     		.2byte	0x3
 7328 091a 71       		.byte	0x71
 7329 091b 20       		.sleb128 32
 7330 091c 9F       		.byte	0x9f
 7331 091d 0C000000 		.4byte	.LVL126
 7332 0921 13000000 		.4byte	.LVL129-1
 7333 0925 0100     		.2byte	0x1
 7334 0927 52       		.byte	0x52
 7335 0928 13000000 		.4byte	.LVL129-1
 7336 092c 1E000000 		.4byte	.LVL130
 7337 0930 0300     		.2byte	0x3
 7338 0932 74       		.byte	0x74
 7339 0933 20       		.sleb128 32
ARM GAS  C:\Users\164\AppData\Local\Temp\ccySM5k9.s 			page 149


 7340 0934 9F       		.byte	0x9f
 7341 0935 00000000 		.4byte	0
 7342 0939 00000000 		.4byte	0
 7343              	.LLST72:
 7344 093d 00000000 		.4byte	.LVL131
 7345 0941 0A000000 		.4byte	.LVL133
 7346 0945 0100     		.2byte	0x1
 7347 0947 51       		.byte	0x51
 7348 0948 0A000000 		.4byte	.LVL133
 7349 094c 0D000000 		.4byte	.LVL134-1
 7350 0950 0100     		.2byte	0x1
 7351 0952 50       		.byte	0x50
 7352 0953 0D000000 		.4byte	.LVL134-1
 7353 0957 38000000 		.4byte	.LFE18
 7354 095b 0400     		.2byte	0x4
 7355 095d F3       		.byte	0xf3
 7356 095e 01       		.uleb128 0x1
 7357 095f 51       		.byte	0x51
 7358 0960 9F       		.byte	0x9f
 7359 0961 00000000 		.4byte	0
 7360 0965 00000000 		.4byte	0
 7361              	.LLST73:
 7362 0969 00000000 		.4byte	.LVL131
 7363 096d 0D000000 		.4byte	.LVL134-1
 7364 0971 0100     		.2byte	0x1
 7365 0973 52       		.byte	0x52
 7366 0974 0D000000 		.4byte	.LVL134-1
 7367 0978 38000000 		.4byte	.LFE18
 7368 097c 0400     		.2byte	0x4
 7369 097e F3       		.byte	0xf3
 7370 097f 01       		.uleb128 0x1
 7371 0980 52       		.byte	0x52
 7372 0981 9F       		.byte	0x9f
 7373 0982 00000000 		.4byte	0
 7374 0986 00000000 		.4byte	0
 7375              	.LLST74:
 7376 098a 0E000000 		.4byte	.LVL134
 7377 098e 10000000 		.4byte	.LVL135
 7378 0992 0100     		.2byte	0x1
 7379 0994 50       		.byte	0x50
 7380 0995 10000000 		.4byte	.LVL135
 7381 0999 12000000 		.4byte	.LVL136
 7382 099d 0300     		.2byte	0x3
 7383 099f 70       		.byte	0x70
 7384 09a0 10       		.sleb128 16
 7385 09a1 9F       		.byte	0x9f
 7386 09a2 12000000 		.4byte	.LVL136
 7387 09a6 14000000 		.4byte	.LVL137
 7388 09aa 0100     		.2byte	0x1
 7389 09ac 50       		.byte	0x50
 7390 09ad 1A000000 		.4byte	.LVL138
 7391 09b1 2E000000 		.4byte	.LVL139
 7392 09b5 0100     		.2byte	0x1
 7393 09b7 50       		.byte	0x50
 7394 09b8 00000000 		.4byte	0
 7395 09bc 00000000 		.4byte	0
 7396              	.LLST75:
ARM GAS  C:\Users\164\AppData\Local\Temp\ccySM5k9.s 			page 150


 7397 09c0 00000000 		.4byte	.LVL140
 7398 09c4 10000000 		.4byte	.LVL142
 7399 09c8 0100     		.2byte	0x1
 7400 09ca 50       		.byte	0x50
 7401 09cb 10000000 		.4byte	.LVL142
 7402 09cf 2C000000 		.4byte	.LVL146
 7403 09d3 0400     		.2byte	0x4
 7404 09d5 F3       		.byte	0xf3
 7405 09d6 01       		.uleb128 0x1
 7406 09d7 50       		.byte	0x50
 7407 09d8 9F       		.byte	0x9f
 7408 09d9 2C000000 		.4byte	.LVL146
 7409 09dd 2E000000 		.4byte	.LFE24
 7410 09e1 0100     		.2byte	0x1
 7411 09e3 50       		.byte	0x50
 7412 09e4 00000000 		.4byte	0
 7413 09e8 00000000 		.4byte	0
 7414              	.LLST76:
 7415 09ec 00000000 		.4byte	.LVL140
 7416 09f0 13000000 		.4byte	.LVL143-1
 7417 09f4 0100     		.2byte	0x1
 7418 09f6 51       		.byte	0x51
 7419 09f7 13000000 		.4byte	.LVL143-1
 7420 09fb 2C000000 		.4byte	.LVL146
 7421 09ff 0100     		.2byte	0x1
 7422 0a01 54       		.byte	0x54
 7423 0a02 2C000000 		.4byte	.LVL146
 7424 0a06 2E000000 		.4byte	.LFE24
 7425 0a0a 0100     		.2byte	0x1
 7426 0a0c 51       		.byte	0x51
 7427 0a0d 00000000 		.4byte	0
 7428 0a11 00000000 		.4byte	0
 7429              	.LLST77:
 7430 0a15 00000000 		.4byte	.LVL140
 7431 0a19 0E000000 		.4byte	.LVL141
 7432 0a1d 0100     		.2byte	0x1
 7433 0a1f 52       		.byte	0x52
 7434 0a20 0E000000 		.4byte	.LVL141
 7435 0a24 2C000000 		.4byte	.LVL146
 7436 0a28 0400     		.2byte	0x4
 7437 0a2a F3       		.byte	0xf3
 7438 0a2b 01       		.uleb128 0x1
 7439 0a2c 52       		.byte	0x52
 7440 0a2d 9F       		.byte	0x9f
 7441 0a2e 2C000000 		.4byte	.LVL146
 7442 0a32 2E000000 		.4byte	.LFE24
 7443 0a36 0100     		.2byte	0x1
 7444 0a38 52       		.byte	0x52
 7445 0a39 00000000 		.4byte	0
 7446 0a3d 00000000 		.4byte	0
 7447              	.LLST78:
 7448 0a41 00000000 		.4byte	.LVL147
 7449 0a45 0A000000 		.4byte	.LVL148
 7450 0a49 0100     		.2byte	0x1
 7451 0a4b 51       		.byte	0x51
 7452 0a4c 0A000000 		.4byte	.LVL148
 7453 0a50 68000000 		.4byte	.LFE19
ARM GAS  C:\Users\164\AppData\Local\Temp\ccySM5k9.s 			page 151


 7454 0a54 0100     		.2byte	0x1
 7455 0a56 57       		.byte	0x57
 7456 0a57 00000000 		.4byte	0
 7457 0a5b 00000000 		.4byte	0
 7458              	.LLST79:
 7459 0a5f 00000000 		.4byte	.LVL147
 7460 0a63 0F000000 		.4byte	.LVL150-1
 7461 0a67 0100     		.2byte	0x1
 7462 0a69 52       		.byte	0x52
 7463 0a6a 0F000000 		.4byte	.LVL150-1
 7464 0a6e 68000000 		.4byte	.LFE19
 7465 0a72 0400     		.2byte	0x4
 7466 0a74 F3       		.byte	0xf3
 7467 0a75 01       		.uleb128 0x1
 7468 0a76 52       		.byte	0x52
 7469 0a77 9F       		.byte	0x9f
 7470 0a78 00000000 		.4byte	0
 7471 0a7c 00000000 		.4byte	0
 7472              	.LLST80:
 7473 0a80 10000000 		.4byte	.LVL150
 7474 0a84 26000000 		.4byte	.LVL151
 7475 0a88 0100     		.2byte	0x1
 7476 0a8a 50       		.byte	0x50
 7477 0a8b 2C000000 		.4byte	.LVL152
 7478 0a8f 31000000 		.4byte	.LVL153-1
 7479 0a93 0100     		.2byte	0x1
 7480 0a95 50       		.byte	0x50
 7481 0a96 31000000 		.4byte	.LVL153-1
 7482 0a9a 62000000 		.4byte	.LVL157
 7483 0a9e 0100     		.2byte	0x1
 7484 0aa0 56       		.byte	0x56
 7485 0aa1 00000000 		.4byte	0
 7486 0aa5 00000000 		.4byte	0
 7487              	.LLST81:
 7488 0aa9 40000000 		.4byte	.LVL154
 7489 0aad 4A000000 		.4byte	.LVL155
 7490 0ab1 0100     		.2byte	0x1
 7491 0ab3 52       		.byte	0x52
 7492 0ab4 00000000 		.4byte	0
 7493 0ab8 00000000 		.4byte	0
 7494              	.LLST82:
 7495 0abc 00000000 		.4byte	.LVL158
 7496 0ac0 0C000000 		.4byte	.LVL160
 7497 0ac4 0100     		.2byte	0x1
 7498 0ac6 50       		.byte	0x50
 7499 0ac7 0C000000 		.4byte	.LVL160
 7500 0acb 22000000 		.4byte	.LFE28
 7501 0acf 0400     		.2byte	0x4
 7502 0ad1 F3       		.byte	0xf3
 7503 0ad2 01       		.uleb128 0x1
 7504 0ad3 50       		.byte	0x50
 7505 0ad4 9F       		.byte	0x9f
 7506 0ad5 00000000 		.4byte	0
 7507 0ad9 00000000 		.4byte	0
 7508              	.LLST83:
 7509 0add 00000000 		.4byte	.LVL158
 7510 0ae1 0F000000 		.4byte	.LVL161-1
ARM GAS  C:\Users\164\AppData\Local\Temp\ccySM5k9.s 			page 152


 7511 0ae5 0100     		.2byte	0x1
 7512 0ae7 51       		.byte	0x51
 7513 0ae8 0F000000 		.4byte	.LVL161-1
 7514 0aec 22000000 		.4byte	.LFE28
 7515 0af0 0100     		.2byte	0x1
 7516 0af2 54       		.byte	0x54
 7517 0af3 00000000 		.4byte	0
 7518 0af7 00000000 		.4byte	0
 7519              	.LLST84:
 7520 0afb 00000000 		.4byte	.LVL158
 7521 0aff 0A000000 		.4byte	.LVL159
 7522 0b03 0100     		.2byte	0x1
 7523 0b05 52       		.byte	0x52
 7524 0b06 0A000000 		.4byte	.LVL159
 7525 0b0a 22000000 		.4byte	.LFE28
 7526 0b0e 0400     		.2byte	0x4
 7527 0b10 F3       		.byte	0xf3
 7528 0b11 01       		.uleb128 0x1
 7529 0b12 52       		.byte	0x52
 7530 0b13 9F       		.byte	0x9f
 7531 0b14 00000000 		.4byte	0
 7532 0b18 00000000 		.4byte	0
 7533              	.LLST85:
 7534 0b1c 00000000 		.4byte	.LVL163
 7535 0b20 05000000 		.4byte	.LVL164-1
 7536 0b24 0100     		.2byte	0x1
 7537 0b26 50       		.byte	0x50
 7538 0b27 05000000 		.4byte	.LVL164-1
 7539 0b2b 08000000 		.4byte	.LFE20
 7540 0b2f 0400     		.2byte	0x4
 7541 0b31 F3       		.byte	0xf3
 7542 0b32 01       		.uleb128 0x1
 7543 0b33 50       		.byte	0x50
 7544 0b34 9F       		.byte	0x9f
 7545 0b35 00000000 		.4byte	0
 7546 0b39 00000000 		.4byte	0
 7547              	.LLST86:
 7548 0b3d 00000000 		.4byte	.LVL165
 7549 0b41 04000000 		.4byte	.LVL166
 7550 0b45 0100     		.2byte	0x1
 7551 0b47 50       		.byte	0x50
 7552 0b48 04000000 		.4byte	.LVL166
 7553 0b4c 0A000000 		.4byte	.LFE26
 7554 0b50 0400     		.2byte	0x4
 7555 0b52 F3       		.byte	0xf3
 7556 0b53 01       		.uleb128 0x1
 7557 0b54 50       		.byte	0x50
 7558 0b55 9F       		.byte	0x9f
 7559 0b56 00000000 		.4byte	0
 7560 0b5a 00000000 		.4byte	0
 7561              	.LLST87:
 7562 0b5e 00000000 		.4byte	.LVL165
 7563 0b62 07000000 		.4byte	.LVL167-1
 7564 0b66 0100     		.2byte	0x1
 7565 0b68 51       		.byte	0x51
 7566 0b69 07000000 		.4byte	.LVL167-1
 7567 0b6d 0A000000 		.4byte	.LFE26
ARM GAS  C:\Users\164\AppData\Local\Temp\ccySM5k9.s 			page 153


 7568 0b71 0400     		.2byte	0x4
 7569 0b73 F3       		.byte	0xf3
 7570 0b74 01       		.uleb128 0x1
 7571 0b75 51       		.byte	0x51
 7572 0b76 9F       		.byte	0x9f
 7573 0b77 00000000 		.4byte	0
 7574 0b7b 00000000 		.4byte	0
 7575              	.LLST88:
 7576 0b7f 00000000 		.4byte	.LVL165
 7577 0b83 07000000 		.4byte	.LVL167-1
 7578 0b87 0100     		.2byte	0x1
 7579 0b89 52       		.byte	0x52
 7580 0b8a 07000000 		.4byte	.LVL167-1
 7581 0b8e 0A000000 		.4byte	.LFE26
 7582 0b92 0400     		.2byte	0x4
 7583 0b94 F3       		.byte	0xf3
 7584 0b95 01       		.uleb128 0x1
 7585 0b96 52       		.byte	0x52
 7586 0b97 9F       		.byte	0x9f
 7587 0b98 00000000 		.4byte	0
 7588 0b9c 00000000 		.4byte	0
 7589              	.LLST89:
 7590 0ba0 00000000 		.4byte	.LVL168
 7591 0ba4 18000000 		.4byte	.LVL170
 7592 0ba8 0100     		.2byte	0x1
 7593 0baa 50       		.byte	0x50
 7594 0bab 18000000 		.4byte	.LVL170
 7595 0baf 42000000 		.4byte	.LVL179
 7596 0bb3 0100     		.2byte	0x1
 7597 0bb5 56       		.byte	0x56
 7598 0bb6 42000000 		.4byte	.LVL179
 7599 0bba 44000000 		.4byte	.LVL180
 7600 0bbe 0100     		.2byte	0x1
 7601 0bc0 50       		.byte	0x50
 7602 0bc1 44000000 		.4byte	.LVL180
 7603 0bc5 46000000 		.4byte	.LVL181
 7604 0bc9 0400     		.2byte	0x4
 7605 0bcb F3       		.byte	0xf3
 7606 0bcc 01       		.uleb128 0x1
 7607 0bcd 50       		.byte	0x50
 7608 0bce 9F       		.byte	0x9f
 7609 0bcf 46000000 		.4byte	.LVL181
 7610 0bd3 4E000000 		.4byte	.LFE21
 7611 0bd7 0100     		.2byte	0x1
 7612 0bd9 56       		.byte	0x56
 7613 0bda 00000000 		.4byte	0
 7614 0bde 00000000 		.4byte	0
 7615              	.LLST90:
 7616 0be2 00000000 		.4byte	.LVL168
 7617 0be6 18000000 		.4byte	.LVL170
 7618 0bea 0100     		.2byte	0x1
 7619 0bec 51       		.byte	0x51
 7620 0bed 18000000 		.4byte	.LVL170
 7621 0bf1 42000000 		.4byte	.LVL179
 7622 0bf5 0100     		.2byte	0x1
 7623 0bf7 57       		.byte	0x57
 7624 0bf8 42000000 		.4byte	.LVL179
ARM GAS  C:\Users\164\AppData\Local\Temp\ccySM5k9.s 			page 154


 7625 0bfc 46000000 		.4byte	.LVL181
 7626 0c00 0100     		.2byte	0x1
 7627 0c02 51       		.byte	0x51
 7628 0c03 46000000 		.4byte	.LVL181
 7629 0c07 4E000000 		.4byte	.LFE21
 7630 0c0b 0100     		.2byte	0x1
 7631 0c0d 57       		.byte	0x57
 7632 0c0e 00000000 		.4byte	0
 7633 0c12 00000000 		.4byte	0
 7634              	.LLST91:
 7635 0c16 14000000 		.4byte	.LVL169
 7636 0c1a 24000000 		.4byte	.LVL172
 7637 0c1e 0100     		.2byte	0x1
 7638 0c20 54       		.byte	0x54
 7639 0c21 24000000 		.4byte	.LVL172
 7640 0c25 2A000000 		.4byte	.LVL174
 7641 0c29 0300     		.2byte	0x3
 7642 0c2b 74       		.byte	0x74
 7643 0c2c 10       		.sleb128 16
 7644 0c2d 9F       		.byte	0x9f
 7645 0c2e 2A000000 		.4byte	.LVL174
 7646 0c32 2D000000 		.4byte	.LVL175-1
 7647 0c36 0100     		.2byte	0x1
 7648 0c38 50       		.byte	0x50
 7649 0c39 2D000000 		.4byte	.LVL175-1
 7650 0c3d 34000000 		.4byte	.LVL177
 7651 0c41 0300     		.2byte	0x3
 7652 0c43 74       		.byte	0x74
 7653 0c44 10       		.sleb128 16
 7654 0c45 9F       		.byte	0x9f
 7655 0c46 34000000 		.4byte	.LVL177
 7656 0c4a 42000000 		.4byte	.LVL179
 7657 0c4e 0100     		.2byte	0x1
 7658 0c50 54       		.byte	0x54
 7659 0c51 46000000 		.4byte	.LVL181
 7660 0c55 4A000000 		.4byte	.LVL183
 7661 0c59 0100     		.2byte	0x1
 7662 0c5b 54       		.byte	0x54
 7663 0c5c 4A000000 		.4byte	.LVL183
 7664 0c60 4E000000 		.4byte	.LFE21
 7665 0c64 0300     		.2byte	0x3
 7666 0c66 74       		.byte	0x74
 7667 0c67 10       		.sleb128 16
 7668 0c68 9F       		.byte	0x9f
 7669 0c69 00000000 		.4byte	0
 7670 0c6d 00000000 		.4byte	0
 7671              	.LLST92:
 7672 0c71 14000000 		.4byte	.LVL169
 7673 0c75 18000000 		.4byte	.LVL170
 7674 0c79 0200     		.2byte	0x2
 7675 0c7b 30       		.byte	0x30
 7676 0c7c 9F       		.byte	0x9f
 7677 0c7d 18000000 		.4byte	.LVL170
 7678 0c81 42000000 		.4byte	.LVL179
 7679 0c85 0100     		.2byte	0x1
 7680 0c87 55       		.byte	0x55
 7681 0c88 46000000 		.4byte	.LVL181
ARM GAS  C:\Users\164\AppData\Local\Temp\ccySM5k9.s 			page 155


 7682 0c8c 4E000000 		.4byte	.LFE21
 7683 0c90 0100     		.2byte	0x1
 7684 0c92 55       		.byte	0x55
 7685 0c93 00000000 		.4byte	0
 7686 0c97 00000000 		.4byte	0
 7687              	.LLST93:
 7688 0c9b 20000000 		.4byte	.LVL171
 7689 0c9f 24000000 		.4byte	.LVL172
 7690 0ca3 0100     		.2byte	0x1
 7691 0ca5 50       		.byte	0x50
 7692 0ca6 24000000 		.4byte	.LVL172
 7693 0caa 26000000 		.4byte	.LVL173
 7694 0cae 0300     		.2byte	0x3
 7695 0cb0 70       		.byte	0x70
 7696 0cb1 10       		.sleb128 16
 7697 0cb2 9F       		.byte	0x9f
 7698 0cb3 26000000 		.4byte	.LVL173
 7699 0cb7 2D000000 		.4byte	.LVL175-1
 7700 0cbb 0100     		.2byte	0x1
 7701 0cbd 51       		.byte	0x51
 7702 0cbe 46000000 		.4byte	.LVL181
 7703 0cc2 48000000 		.4byte	.LVL182
 7704 0cc6 0100     		.2byte	0x1
 7705 0cc8 50       		.byte	0x50
 7706 0cc9 48000000 		.4byte	.LVL182
 7707 0ccd 4A000000 		.4byte	.LVL183
 7708 0cd1 0100     		.2byte	0x1
 7709 0cd3 51       		.byte	0x51
 7710 0cd4 00000000 		.4byte	0
 7711 0cd8 00000000 		.4byte	0
 7712              	.LLST94:
 7713 0cdc 34000000 		.4byte	.LVL177
 7714 0ce0 38000000 		.4byte	.LVL178
 7715 0ce4 0100     		.2byte	0x1
 7716 0ce6 56       		.byte	0x56
 7717 0ce7 00000000 		.4byte	0
 7718 0ceb 00000000 		.4byte	0
 7719              	.LLST95:
 7720 0cef 00000000 		.4byte	.LVL184
 7721 0cf3 0F000000 		.4byte	.LVL187-1
 7722 0cf7 0100     		.2byte	0x1
 7723 0cf9 51       		.byte	0x51
 7724 0cfa 0F000000 		.4byte	.LVL187-1
 7725 0cfe 42000000 		.4byte	.LFE22
 7726 0d02 0400     		.2byte	0x4
 7727 0d04 F3       		.byte	0xf3
 7728 0d05 01       		.uleb128 0x1
 7729 0d06 51       		.byte	0x51
 7730 0d07 9F       		.byte	0x9f
 7731 0d08 00000000 		.4byte	0
 7732 0d0c 00000000 		.4byte	0
 7733              	.LLST96:
 7734 0d10 00000000 		.4byte	.LVL184
 7735 0d14 0A000000 		.4byte	.LVL186
 7736 0d18 0100     		.2byte	0x1
 7737 0d1a 52       		.byte	0x52
 7738 0d1b 0A000000 		.4byte	.LVL186
ARM GAS  C:\Users\164\AppData\Local\Temp\ccySM5k9.s 			page 156


 7739 0d1f 16000000 		.4byte	.LVL188
 7740 0d23 0100     		.2byte	0x1
 7741 0d25 54       		.byte	0x54
 7742 0d26 16000000 		.4byte	.LVL188
 7743 0d2a 42000000 		.4byte	.LFE22
 7744 0d2e 0400     		.2byte	0x4
 7745 0d30 F3       		.byte	0xf3
 7746 0d31 01       		.uleb128 0x1
 7747 0d32 52       		.byte	0x52
 7748 0d33 9F       		.byte	0x9f
 7749 0d34 00000000 		.4byte	0
 7750 0d38 00000000 		.4byte	0
 7751              	.LLST97:
 7752 0d3c 00000000 		.4byte	.LVL184
 7753 0d40 0F000000 		.4byte	.LVL187-1
 7754 0d44 0200     		.2byte	0x2
 7755 0d46 70       		.byte	0x70
 7756 0d47 00       		.sleb128 0
 7757 0d48 0F000000 		.4byte	.LVL187-1
 7758 0d4c 42000000 		.4byte	.LFE22
 7759 0d50 0200     		.2byte	0x2
 7760 0d52 76       		.byte	0x76
 7761 0d53 00       		.sleb128 0
 7762 0d54 00000000 		.4byte	0
 7763 0d58 00000000 		.4byte	0
 7764              	.LLST98:
 7765 0d5c 16000000 		.4byte	.LVL188
 7766 0d60 30000000 		.4byte	.LVL192
 7767 0d64 0100     		.2byte	0x1
 7768 0d66 54       		.byte	0x54
 7769 0d67 00000000 		.4byte	0
 7770 0d6b 00000000 		.4byte	0
 7771              	.LLST99:
 7772 0d6f 28000000 		.4byte	.LVL190
 7773 0d73 34000000 		.4byte	.LVL193
 7774 0d77 0100     		.2byte	0x1
 7775 0d79 50       		.byte	0x50
 7776 0d7a 34000000 		.4byte	.LVL193
 7777 0d7e 3A000000 		.4byte	.LVL195
 7778 0d82 0100     		.2byte	0x1
 7779 0d84 54       		.byte	0x54
 7780 0d85 3A000000 		.4byte	.LVL195
 7781 0d89 3E000000 		.4byte	.LVL196
 7782 0d8d 0100     		.2byte	0x1
 7783 0d8f 50       		.byte	0x50
 7784 0d90 00000000 		.4byte	0
 7785 0d94 00000000 		.4byte	0
 7786              	.LLST100:
 7787 0d98 2E000000 		.4byte	.LVL191
 7788 0d9c 3E000000 		.4byte	.LVL196
 7789 0da0 0100     		.2byte	0x1
 7790 0da2 55       		.byte	0x55
 7791 0da3 00000000 		.4byte	0
 7792 0da7 00000000 		.4byte	0
 7793              	.LLST101:
 7794 0dab 06000000 		.4byte	.LVL185
 7795 0daf 0A000000 		.4byte	.LVL186
ARM GAS  C:\Users\164\AppData\Local\Temp\ccySM5k9.s 			page 157


 7796 0db3 0100     		.2byte	0x1
 7797 0db5 52       		.byte	0x52
 7798 0db6 00000000 		.4byte	0
 7799 0dba 00000000 		.4byte	0
 7800              	.LLST102:
 7801 0dbe 00000000 		.4byte	.LVL197
 7802 0dc2 0C000000 		.4byte	.LVL200
 7803 0dc6 0100     		.2byte	0x1
 7804 0dc8 50       		.byte	0x50
 7805 0dc9 0C000000 		.4byte	.LVL200
 7806 0dcd 0F000000 		.4byte	.LVL201-1
 7807 0dd1 0100     		.2byte	0x1
 7808 0dd3 51       		.byte	0x51
 7809 0dd4 0F000000 		.4byte	.LVL201-1
 7810 0dd8 66000000 		.4byte	.LFE35
 7811 0ddc 0400     		.2byte	0x4
 7812 0dde F3       		.byte	0xf3
 7813 0ddf 01       		.uleb128 0x1
 7814 0de0 50       		.byte	0x50
 7815 0de1 9F       		.byte	0x9f
 7816 0de2 00000000 		.4byte	0
 7817 0de6 00000000 		.4byte	0
 7818              	.LLST103:
 7819 0dea 00000000 		.4byte	.LVL197
 7820 0dee 0A000000 		.4byte	.LVL199
 7821 0df2 0100     		.2byte	0x1
 7822 0df4 51       		.byte	0x51
 7823 0df5 0A000000 		.4byte	.LVL199
 7824 0df9 0F000000 		.4byte	.LVL201-1
 7825 0dfd 0100     		.2byte	0x1
 7826 0dff 52       		.byte	0x52
 7827 0e00 0F000000 		.4byte	.LVL201-1
 7828 0e04 66000000 		.4byte	.LFE35
 7829 0e08 0100     		.2byte	0x1
 7830 0e0a 57       		.byte	0x57
 7831 0e0b 00000000 		.4byte	0
 7832 0e0f 00000000 		.4byte	0
 7833              	.LLST104:
 7834 0e13 00000000 		.4byte	.LVL197
 7835 0e17 08000000 		.4byte	.LVL198
 7836 0e1b 0100     		.2byte	0x1
 7837 0e1d 52       		.byte	0x52
 7838 0e1e 08000000 		.4byte	.LVL198
 7839 0e22 66000000 		.4byte	.LFE35
 7840 0e26 0400     		.2byte	0x4
 7841 0e28 F3       		.byte	0xf3
 7842 0e29 01       		.uleb128 0x1
 7843 0e2a 52       		.byte	0x52
 7844 0e2b 9F       		.byte	0x9f
 7845 0e2c 00000000 		.4byte	0
 7846 0e30 00000000 		.4byte	0
 7847              	.LLST105:
 7848 0e34 2C000000 		.4byte	.LVL202
 7849 0e38 32000000 		.4byte	.LVL203
 7850 0e3c 0300     		.2byte	0x3
 7851 0e3e 91       		.byte	0x91
 7852 0e3f 4C       		.sleb128 -52
ARM GAS  C:\Users\164\AppData\Local\Temp\ccySM5k9.s 			page 158


 7853 0e40 9F       		.byte	0x9f
 7854 0e41 00000000 		.4byte	0
 7855 0e45 00000000 		.4byte	0
 7856              	.LLST106:
 7857 0e49 2C000000 		.4byte	.LVL202
 7858 0e4d 32000000 		.4byte	.LVL203
 7859 0e51 0100     		.2byte	0x1
 7860 0e53 54       		.byte	0x54
 7861 0e54 00000000 		.4byte	0
 7862 0e58 00000000 		.4byte	0
 7863              	.LLST107:
 7864 0e5c 4C000000 		.4byte	.LVL206
 7865 0e60 4E000000 		.4byte	.LVL207
 7866 0e64 0300     		.2byte	0x3
 7867 0e66 91       		.byte	0x91
 7868 0e67 4C       		.sleb128 -52
 7869 0e68 9F       		.byte	0x9f
 7870 0e69 00000000 		.4byte	0
 7871 0e6d 00000000 		.4byte	0
 7872              	.LLST108:
 7873 0e71 00000000 		.4byte	.LVL209
 7874 0e75 0C000000 		.4byte	.LVL212
 7875 0e79 0100     		.2byte	0x1
 7876 0e7b 50       		.byte	0x50
 7877 0e7c 0C000000 		.4byte	.LVL212
 7878 0e80 0F000000 		.4byte	.LVL213-1
 7879 0e84 0100     		.2byte	0x1
 7880 0e86 51       		.byte	0x51
 7881 0e87 0F000000 		.4byte	.LVL213-1
 7882 0e8b 22000000 		.4byte	.LFE27
 7883 0e8f 0400     		.2byte	0x4
 7884 0e91 F3       		.byte	0xf3
 7885 0e92 01       		.uleb128 0x1
 7886 0e93 50       		.byte	0x50
 7887 0e94 9F       		.byte	0x9f
 7888 0e95 00000000 		.4byte	0
 7889 0e99 00000000 		.4byte	0
 7890              	.LLST109:
 7891 0e9d 00000000 		.4byte	.LVL209
 7892 0ea1 0A000000 		.4byte	.LVL211
 7893 0ea5 0100     		.2byte	0x1
 7894 0ea7 51       		.byte	0x51
 7895 0ea8 0A000000 		.4byte	.LVL211
 7896 0eac 0F000000 		.4byte	.LVL213-1
 7897 0eb0 0100     		.2byte	0x1
 7898 0eb2 52       		.byte	0x52
 7899 0eb3 0F000000 		.4byte	.LVL213-1
 7900 0eb7 22000000 		.4byte	.LFE27
 7901 0ebb 0100     		.2byte	0x1
 7902 0ebd 54       		.byte	0x54
 7903 0ebe 00000000 		.4byte	0
 7904 0ec2 00000000 		.4byte	0
 7905              	.LLST110:
 7906 0ec6 00000000 		.4byte	.LVL209
 7907 0eca 08000000 		.4byte	.LVL210
 7908 0ece 0100     		.2byte	0x1
 7909 0ed0 52       		.byte	0x52
ARM GAS  C:\Users\164\AppData\Local\Temp\ccySM5k9.s 			page 159


 7910 0ed1 08000000 		.4byte	.LVL210
 7911 0ed5 22000000 		.4byte	.LFE27
 7912 0ed9 0400     		.2byte	0x4
 7913 0edb F3       		.byte	0xf3
 7914 0edc 01       		.uleb128 0x1
 7915 0edd 52       		.byte	0x52
 7916 0ede 9F       		.byte	0x9f
 7917 0edf 00000000 		.4byte	0
 7918 0ee3 00000000 		.4byte	0
 7919              	.LLST111:
 7920 0ee7 00000000 		.4byte	.LVL215
 7921 0eeb 0D000000 		.4byte	.LVL216-1
 7922 0eef 0100     		.2byte	0x1
 7923 0ef1 50       		.byte	0x50
 7924 0ef2 0D000000 		.4byte	.LVL216-1
 7925 0ef6 EE000000 		.4byte	.LVL235
 7926 0efa 0100     		.2byte	0x1
 7927 0efc 54       		.byte	0x54
 7928 0efd EE000000 		.4byte	.LVL235
 7929 0f01 84010000 		.4byte	.LFE38
 7930 0f05 0400     		.2byte	0x4
 7931 0f07 F3       		.byte	0xf3
 7932 0f08 01       		.uleb128 0x1
 7933 0f09 50       		.byte	0x50
 7934 0f0a 9F       		.byte	0x9f
 7935 0f0b 00000000 		.4byte	0
 7936 0f0f 00000000 		.4byte	0
 7937              		.section	.debug_aranges,"",%progbits
 7938 0000 DC000000 		.4byte	0xdc
 7939 0004 0200     		.2byte	0x2
 7940 0006 00000000 		.4byte	.Ldebug_info0
 7941 000a 04       		.byte	0x4
 7942 000b 00       		.byte	0
 7943 000c 0000     		.2byte	0
 7944 000e 0000     		.2byte	0
 7945 0010 00000000 		.4byte	.LFB37
 7946 0014 62000000 		.4byte	.LFE37-.LFB37
 7947 0018 00000000 		.4byte	.LFB34
 7948 001c 18000000 		.4byte	.LFE34-.LFB34
 7949 0020 00000000 		.4byte	.LFB33
 7950 0024 5E000000 		.4byte	.LFE33-.LFB33
 7951 0028 00000000 		.4byte	.LFB32
 7952 002c 66000000 		.4byte	.LFE32-.LFB32
 7953 0030 00000000 		.4byte	.LFB31
 7954 0034 5C000000 		.4byte	.LFE31-.LFB31
 7955 0038 00000000 		.4byte	.LFB29
 7956 003c 24000000 		.4byte	.LFE29-.LFB29
 7957 0040 00000000 		.4byte	.LFB14
 7958 0044 4C000000 		.4byte	.LFE14-.LFB14
 7959 0048 00000000 		.4byte	.LFB23
 7960 004c 22000000 		.4byte	.LFE23-.LFB23
 7961 0050 00000000 		.4byte	.LFB15
 7962 0054 08000000 		.4byte	.LFE15-.LFB15
 7963 0058 00000000 		.4byte	.LFB16
 7964 005c 28000000 		.4byte	.LFE16-.LFB16
 7965 0060 00000000 		.4byte	.LFB30
 7966 0064 26000000 		.4byte	.LFE30-.LFB30
ARM GAS  C:\Users\164\AppData\Local\Temp\ccySM5k9.s 			page 160


 7967 0068 00000000 		.4byte	.LFB17
 7968 006c 4A000000 		.4byte	.LFE17-.LFB17
 7969 0070 00000000 		.4byte	.LFB36
 7970 0074 4C000000 		.4byte	.LFE36-.LFB36
 7971 0078 00000000 		.4byte	.LFB25
 7972 007c 20000000 		.4byte	.LFE25-.LFB25
 7973 0080 00000000 		.4byte	.LFB18
 7974 0084 38000000 		.4byte	.LFE18-.LFB18
 7975 0088 00000000 		.4byte	.LFB24
 7976 008c 2E000000 		.4byte	.LFE24-.LFB24
 7977 0090 00000000 		.4byte	.LFB19
 7978 0094 68000000 		.4byte	.LFE19-.LFB19
 7979 0098 00000000 		.4byte	.LFB28
 7980 009c 22000000 		.4byte	.LFE28-.LFB28
 7981 00a0 00000000 		.4byte	.LFB20
 7982 00a4 08000000 		.4byte	.LFE20-.LFB20
 7983 00a8 00000000 		.4byte	.LFB26
 7984 00ac 0A000000 		.4byte	.LFE26-.LFB26
 7985 00b0 00000000 		.4byte	.LFB21
 7986 00b4 4E000000 		.4byte	.LFE21-.LFB21
 7987 00b8 00000000 		.4byte	.LFB22
 7988 00bc 42000000 		.4byte	.LFE22-.LFB22
 7989 00c0 00000000 		.4byte	.LFB35
 7990 00c4 66000000 		.4byte	.LFE35-.LFB35
 7991 00c8 00000000 		.4byte	.LFB27
 7992 00cc 22000000 		.4byte	.LFE27-.LFB27
 7993 00d0 00000000 		.4byte	.LFB38
 7994 00d4 84010000 		.4byte	.LFE38-.LFB38
 7995 00d8 00000000 		.4byte	0
 7996 00dc 00000000 		.4byte	0
 7997              		.section	.debug_ranges,"",%progbits
 7998              	.Ldebug_ranges0:
 7999 0000 22000000 		.4byte	.LBB90
 8000 0004 34000000 		.4byte	.LBE90
 8001 0008 3E000000 		.4byte	.LBB95
 8002 000c 40000000 		.4byte	.LBE95
 8003 0010 00000000 		.4byte	0
 8004 0014 00000000 		.4byte	0
 8005 0018 18000000 		.4byte	.LBB109
 8006 001c 30000000 		.4byte	.LBE109
 8007 0020 46000000 		.4byte	.LBB112
 8008 0024 4C000000 		.4byte	.LBE112
 8009 0028 00000000 		.4byte	0
 8010 002c 00000000 		.4byte	0
 8011 0030 00000000 		.4byte	.LFB37
 8012 0034 62000000 		.4byte	.LFE37
 8013 0038 00000000 		.4byte	.LFB34
 8014 003c 18000000 		.4byte	.LFE34
 8015 0040 00000000 		.4byte	.LFB33
 8016 0044 5E000000 		.4byte	.LFE33
 8017 0048 00000000 		.4byte	.LFB32
 8018 004c 66000000 		.4byte	.LFE32
 8019 0050 00000000 		.4byte	.LFB31
 8020 0054 5C000000 		.4byte	.LFE31
 8021 0058 00000000 		.4byte	.LFB29
 8022 005c 24000000 		.4byte	.LFE29
 8023 0060 00000000 		.4byte	.LFB14
ARM GAS  C:\Users\164\AppData\Local\Temp\ccySM5k9.s 			page 161


 8024 0064 4C000000 		.4byte	.LFE14
 8025 0068 00000000 		.4byte	.LFB23
 8026 006c 22000000 		.4byte	.LFE23
 8027 0070 00000000 		.4byte	.LFB15
 8028 0074 08000000 		.4byte	.LFE15
 8029 0078 00000000 		.4byte	.LFB16
 8030 007c 28000000 		.4byte	.LFE16
 8031 0080 00000000 		.4byte	.LFB30
 8032 0084 26000000 		.4byte	.LFE30
 8033 0088 00000000 		.4byte	.LFB17
 8034 008c 4A000000 		.4byte	.LFE17
 8035 0090 00000000 		.4byte	.LFB36
 8036 0094 4C000000 		.4byte	.LFE36
 8037 0098 00000000 		.4byte	.LFB25
 8038 009c 20000000 		.4byte	.LFE25
 8039 00a0 00000000 		.4byte	.LFB18
 8040 00a4 38000000 		.4byte	.LFE18
 8041 00a8 00000000 		.4byte	.LFB24
 8042 00ac 2E000000 		.4byte	.LFE24
 8043 00b0 00000000 		.4byte	.LFB19
 8044 00b4 68000000 		.4byte	.LFE19
 8045 00b8 00000000 		.4byte	.LFB28
 8046 00bc 22000000 		.4byte	.LFE28
 8047 00c0 00000000 		.4byte	.LFB20
 8048 00c4 08000000 		.4byte	.LFE20
 8049 00c8 00000000 		.4byte	.LFB26
 8050 00cc 0A000000 		.4byte	.LFE26
 8051 00d0 00000000 		.4byte	.LFB21
 8052 00d4 4E000000 		.4byte	.LFE21
 8053 00d8 00000000 		.4byte	.LFB22
 8054 00dc 42000000 		.4byte	.LFE22
 8055 00e0 00000000 		.4byte	.LFB35
 8056 00e4 66000000 		.4byte	.LFE35
 8057 00e8 00000000 		.4byte	.LFB27
 8058 00ec 22000000 		.4byte	.LFE27
 8059 00f0 00000000 		.4byte	.LFB38
 8060 00f4 84010000 		.4byte	.LFE38
 8061 00f8 00000000 		.4byte	0
 8062 00fc 00000000 		.4byte	0
 8063              		.section	.debug_line,"",%progbits
 8064              	.Ldebug_line0:
 8065 0000 4F050000 		.section	.debug_str,"MS",%progbits,1
 8065      0200FC01 
 8065      00000201 
 8065      FB0E0D00 
 8065      01010101 
 8066              	.LASF115:
 8067 0000 635F6861 		.ascii	"c_hash_empty\000"
 8067      73685F65 
 8067      6D707479 
 8067      00
 8068              	.LASF43:
 8069 000d 4D52425F 		.ascii	"MRB_TT_SYMBOL\000"
 8069      54545F53 
 8069      594D424F 
 8069      4C00
 8070              	.LASF140:
ARM GAS  C:\Users\164\AppData\Local\Temp\ccySM5k9.s 			page 162


 8071 001b 6D726263 		.ascii	"mrbc_array_new\000"
 8071      5F617272 
 8071      61795F6E 
 8071      657700
 8072              	.LASF76:
 8073 002a 52486173 		.ascii	"RHash\000"
 8073      6800
 8074              	.LASF114:
 8075 0030 635F6861 		.ascii	"c_hash_has_value\000"
 8075      73685F68 
 8075      61735F76 
 8075      616C7565 
 8075      00
 8076              	.LASF65:
 8077 0041 7265665F 		.ascii	"ref_count\000"
 8077      636F756E 
 8077      7400
 8078              	.LASF136:
 8079 004b 6D726263 		.ascii	"mrbc_class_object\000"
 8079      5F636C61 
 8079      73735F6F 
 8079      626A6563 
 8079      7400
 8080              	.LASF145:
 8081 005d 6D726263 		.ascii	"mrbc_array_delete\000"
 8081      5F617272 
 8081      61795F64 
 8081      656C6574 
 8081      6500
 8082              	.LASF0:
 8083 006f 756E7369 		.ascii	"unsigned int\000"
 8083      676E6564 
 8083      20696E74 
 8083      00
 8084              	.LASF70:
 8085 007c 6E657874 		.ascii	"next\000"
 8085      00
 8086              	.LASF94:
 8087 0081 6E5F6172 		.ascii	"n_args\000"
 8087      677300
 8088              	.LASF51:
 8089 0088 6D72625F 		.ascii	"mrb_vtype\000"
 8089      76747970 
 8089      6500
 8090              	.LASF11:
 8091 0092 5F5F696E 		.ascii	"__int32_t\000"
 8091      7433325F 
 8091      7400
 8092              	.LASF24:
 8093 009c 69726570 		.ascii	"irep\000"
 8093      00
 8094              	.LASF101:
 8095 00a1 705F656E 		.ascii	"p_end\000"
 8095      6400
 8096              	.LASF80:
 8097 00a7 524B6579 		.ascii	"RKeyValueHandle\000"
 8097      56616C75 
ARM GAS  C:\Users\164\AppData\Local\Temp\ccySM5k9.s 			page 163


 8097      6548616E 
 8097      646C6500 
 8098              	.LASF112:
 8099 00b7 635F6861 		.ascii	"c_hash_keys\000"
 8099      73685F6B 
 8099      65797300 
 8100              	.LASF68:
 8101 00c3 5250726F 		.ascii	"RProc\000"
 8101      6300
 8102              	.LASF81:
 8103 00c9 66756E63 		.ascii	"func\000"
 8103      00
 8104              	.LASF27:
 8105 00ce 72656773 		.ascii	"regs\000"
 8105      00
 8106              	.LASF38:
 8107 00d3 4D52425F 		.ascii	"MRB_TT_NIL\000"
 8107      54545F4E 
 8107      494C00
 8108              	.LASF126:
 8109 00de 6D726263 		.ascii	"mrbc_hash_remove\000"
 8109      5F686173 
 8109      685F7265 
 8109      6D6F7665 
 8109      00
 8110              	.LASF152:
 8111 00ef 2E2E5C2E 		.ascii	"..\\..\\mruby_c2\\Design01.cydsn\\c_hash.c\000"
 8111      2E5C6D72 
 8111      7562795F 
 8111      63325C44 
 8111      65736967 
 8112              	.LASF89:
 8113 0116 706F6F6C 		.ascii	"pools\000"
 8113      7300
 8114              	.LASF28:
 8115 011c 63757272 		.ascii	"current_regs\000"
 8115      656E745F 
 8115      72656773 
 8115      00
 8116              	.LASF17:
 8117 0129 696E7438 		.ascii	"int8_t\000"
 8117      5F7400
 8118              	.LASF60:
 8119 0130 52436C61 		.ascii	"RClass\000"
 8119      737300
 8120              	.LASF144:
 8121 0137 6D726263 		.ascii	"mrbc_raw_free\000"
 8121      5F726177 
 8121      5F667265 
 8121      6500
 8122              	.LASF147:
 8123 0145 6D656D6D 		.ascii	"memmove\000"
 8123      6F766500 
 8124              	.LASF149:
 8125 014d 6D726263 		.ascii	"mrbc_define_class\000"
 8125      5F646566 
 8125      696E655F 
ARM GAS  C:\Users\164\AppData\Local\Temp\ccySM5k9.s 			page 164


 8125      636C6173 
 8125      7300
 8126              	.LASF113:
 8127 015f 635F6861 		.ascii	"c_hash_key\000"
 8127      73685F6B 
 8127      657900
 8128              	.LASF19:
 8129 016a 696E7431 		.ascii	"int16_t\000"
 8129      365F7400 
 8130              	.LASF41:
 8131 0172 4D52425F 		.ascii	"MRB_TT_FIXNUM\000"
 8131      54545F46 
 8131      49584E55 
 8131      4D00
 8132              	.LASF14:
 8133 0180 6C6F6E67 		.ascii	"long long unsigned int\000"
 8133      206C6F6E 
 8133      6720756E 
 8133      7369676E 
 8133      65642069 
 8134              	.LASF138:
 8135 0197 6D726263 		.ascii	"mrbc_array_push\000"
 8135      5F617272 
 8135      61795F70 
 8135      75736800 
 8136              	.LASF77:
 8137 01a7 6D72625F 		.ascii	"mrb_object\000"
 8137      6F626A65 
 8137      637400
 8138              	.LASF9:
 8139 01b2 5F5F7569 		.ascii	"__uint16_t\000"
 8139      6E743136 
 8139      5F7400
 8140              	.LASF25:
 8141 01bd 766D5F69 		.ascii	"vm_id\000"
 8141      6400
 8142              	.LASF30:
 8143 01c3 63616C6C 		.ascii	"callinfo\000"
 8143      696E666F 
 8143      00
 8144              	.LASF83:
 8145 01cc 6E6C6F63 		.ascii	"nlocals\000"
 8145      616C7300 
 8146              	.LASF141:
 8147 01d4 6D726263 		.ascii	"mrbc_release\000"
 8147      5F72656C 
 8147      65617365 
 8147      00
 8148              	.LASF45:
 8149 01e1 4D52425F 		.ascii	"MRB_TT_OBJECT\000"
 8149      54545F4F 
 8149      424A4543 
 8149      5400
 8150              	.LASF53:
 8151 01ef 696E7374 		.ascii	"instance\000"
 8151      616E6365 
 8151      00
ARM GAS  C:\Users\164\AppData\Local\Temp\ccySM5k9.s 			page 165


 8152              	.LASF26:
 8153 01f8 70635F69 		.ascii	"pc_irep\000"
 8153      72657000 
 8154              	.LASF151:
 8155 0200 474E5520 		.ascii	"GNU C11 5.4.1 20160609 (release) [ARM/embedded-5-br"
 8155      43313120 
 8155      352E342E 
 8155      31203230 
 8155      31363036 
 8156 0233 616E6368 		.ascii	"anch revision 237715] -mcpu=cortex-m3 -mthumb -g -O"
 8156      20726576 
 8156      6973696F 
 8156      6E203233 
 8156      37373135 
 8157 0266 67202D66 		.ascii	"g -ffunction-sections -ffat-lto-objects\000"
 8157      66756E63 
 8157      74696F6E 
 8157      2D736563 
 8157      74696F6E 
 8158              	.LASF78:
 8159 028e 6D72625F 		.ascii	"mrb_value\000"
 8159      76616C75 
 8159      6500
 8160              	.LASF84:
 8161 0298 6E726567 		.ascii	"nregs\000"
 8161      7300
 8162              	.LASF72:
 8163 029e 64617461 		.ascii	"data_size\000"
 8163      5F73697A 
 8163      6500
 8164              	.LASF99:
 8165 02a8 74617267 		.ascii	"target\000"
 8165      657400
 8166              	.LASF63:
 8167 02af 70726F63 		.ascii	"procs\000"
 8167      7300
 8168              	.LASF93:
 8169 02b5 43414C4C 		.ascii	"CALLINFO\000"
 8169      494E464F 
 8169      00
 8170              	.LASF23:
 8171 02be 6D72625F 		.ascii	"mrb_func_t\000"
 8171      66756E63 
 8171      5F7400
 8172              	.LASF121:
 8173 02c9 6D726263 		.ascii	"mrbc_hash_set\000"
 8173      5F686173 
 8173      685F7365 
 8173      7400
 8174              	.LASF106:
 8175 02d7 6D726263 		.ascii	"mrbc_hash_i_has_next\000"
 8175      5F686173 
 8175      685F695F 
 8175      6861735F 
 8175      6E657874 
 8176              	.LASF111:
 8177 02ec 635F6861 		.ascii	"c_hash_size\000"
ARM GAS  C:\Users\164\AppData\Local\Temp\ccySM5k9.s 			page 166


 8177      73685F73 
 8177      697A6500 
 8178              	.LASF48:
 8179 02f8 4D52425F 		.ascii	"MRB_TT_STRING\000"
 8179      54545F53 
 8179      5452494E 
 8179      4700
 8180              	.LASF88:
 8181 0306 636F6465 		.ascii	"code\000"
 8181      00
 8182              	.LASF122:
 8183 030b 635F6861 		.ascii	"c_hash_merge_self\000"
 8183      73685F6D 
 8183      65726765 
 8183      5F73656C 
 8183      6600
 8184              	.LASF118:
 8185 031d 6D726263 		.ascii	"mrbc_hash_new\000"
 8185      5F686173 
 8185      685F6E65 
 8185      7700
 8186              	.LASF127:
 8187 032b 635F6861 		.ascii	"c_hash_delete\000"
 8187      73685F64 
 8187      656C6574 
 8187      6500
 8188              	.LASF47:
 8189 0339 4D52425F 		.ascii	"MRB_TT_ARRAY\000"
 8189      54545F41 
 8189      52524159 
 8189      00
 8190              	.LASF92:
 8191 0346 6D72625F 		.ascii	"mrb_irep\000"
 8191      69726570 
 8191      00
 8192              	.LASF34:
 8193 034f 666C6167 		.ascii	"flag_need_memfree\000"
 8193      5F6E6565 
 8193      645F6D65 
 8193      6D667265 
 8193      6500
 8194              	.LASF123:
 8195 0361 635F6861 		.ascii	"c_hash_set\000"
 8195      73685F73 
 8195      657400
 8196              	.LASF90:
 8197 036c 7074725F 		.ascii	"ptr_to_sym\000"
 8197      746F5F73 
 8197      796D00
 8198              	.LASF16:
 8199 0377 63686172 		.ascii	"char\000"
 8199      00
 8200              	.LASF117:
 8201 037c 635F6861 		.ascii	"c_hash_new\000"
 8201      73685F6E 
 8201      657700
 8202              	.LASF129:
ARM GAS  C:\Users\164\AppData\Local\Temp\ccySM5k9.s 			page 167


 8203 0387 6D726263 		.ascii	"mrbc_hash_clear\000"
 8203      5F686173 
 8203      685F636C 
 8203      65617200 
 8204              	.LASF66:
 8205 0397 69766172 		.ascii	"ivar\000"
 8205      00
 8206              	.LASF62:
 8207 039c 73757065 		.ascii	"super\000"
 8207      7200
 8208              	.LASF56:
 8209 03a2 73747269 		.ascii	"string\000"
 8209      6E6700
 8210              	.LASF49:
 8211 03a9 4D52425F 		.ascii	"MRB_TT_RANGE\000"
 8211      54545F52 
 8211      414E4745 
 8211      00
 8212              	.LASF67:
 8213 03b6 64617461 		.ascii	"data\000"
 8213      00
 8214              	.LASF110:
 8215 03bb 635F6861 		.ascii	"c_hash_values\000"
 8215      73685F76 
 8215      616C7565 
 8215      7300
 8216              	.LASF120:
 8217 03c9 635F6861 		.ascii	"c_hash_has_key\000"
 8217      73685F68 
 8217      61735F6B 
 8217      657900
 8218              	.LASF132:
 8219 03d8 6D726263 		.ascii	"mrbc_hash_dup\000"
 8219      5F686173 
 8219      685F6475 
 8219      7000
 8220              	.LASF18:
 8221 03e6 75696E74 		.ascii	"uint8_t\000"
 8221      385F7400 
 8222              	.LASF31:
 8223 03ee 74617267 		.ascii	"target_class\000"
 8223      65745F63 
 8223      6C617373 
 8223      00
 8224              	.LASF29:
 8225 03fb 63616C6C 		.ascii	"callinfo_top\000"
 8225      696E666F 
 8225      5F746F70 
 8225      00
 8226              	.LASF105:
 8227 0408 6D726263 		.ascii	"mrbc_hash_i_next\000"
 8227      5F686173 
 8227      685F695F 
 8227      6E657874 
 8227      00
 8228              	.LASF134:
 8229 0419 635F6861 		.ascii	"c_hash_dup\000"
ARM GAS  C:\Users\164\AppData\Local\Temp\ccySM5k9.s 			page 168


 8229      73685F64 
 8229      757000
 8230              	.LASF1:
 8231 0424 6C6F6E67 		.ascii	"long long int\000"
 8231      206C6F6E 
 8231      6720696E 
 8231      7400
 8232              	.LASF73:
 8233 0432 6E5F7374 		.ascii	"n_stored\000"
 8233      6F726564 
 8233      00
 8234              	.LASF61:
 8235 043b 73796D5F 		.ascii	"sym_id\000"
 8235      696400
 8236              	.LASF150:
 8237 0442 6D726263 		.ascii	"mrbc_define_method\000"
 8237      5F646566 
 8237      696E655F 
 8237      6D657468 
 8237      6F6400
 8238              	.LASF130:
 8239 0455 635F6861 		.ascii	"c_hash_clear\000"
 8239      73685F63 
 8239      6C656172 
 8239      00
 8240              	.LASF98:
 8241 0462 52486173 		.ascii	"RHashIterator\000"
 8241      68497465 
 8241      7261746F 
 8241      7200
 8242              	.LASF133:
 8243 0470 635F6861 		.ascii	"c_hash_merge\000"
 8243      73685F6D 
 8243      65726765 
 8243      00
 8244              	.LASF7:
 8245 047d 5F5F696E 		.ascii	"__int16_t\000"
 8245      7431365F 
 8245      7400
 8246              	.LASF116:
 8247 0487 73697A65 		.ascii	"size\000"
 8247      00
 8248              	.LASF37:
 8249 048c 4D52425F 		.ascii	"MRB_TT_EMPTY\000"
 8249      54545F45 
 8249      4D505459 
 8249      00
 8250              	.LASF57:
 8251 0499 72616E67 		.ascii	"range\000"
 8251      6500
 8252              	.LASF64:
 8253 049f 52496E73 		.ascii	"RInstance\000"
 8253      74616E63 
 8253      6500
 8254              	.LASF124:
 8255 04a9 6D726263 		.ascii	"mrbc_hash_get\000"
 8255      5F686173 
ARM GAS  C:\Users\164\AppData\Local\Temp\ccySM5k9.s 			page 169


 8255      685F6765 
 8255      7400
 8256              	.LASF109:
 8257 04b7 61726763 		.ascii	"argc\000"
 8257      00
 8258              	.LASF4:
 8259 04bc 5F5F696E 		.ascii	"__int8_t\000"
 8259      74385F74 
 8259      00
 8260              	.LASF40:
 8261 04c5 4D52425F 		.ascii	"MRB_TT_TRUE\000"
 8261      54545F54 
 8261      52554500 
 8262              	.LASF55:
 8263 04d1 61727261 		.ascii	"array\000"
 8263      7900
 8264              	.LASF39:
 8265 04d7 4D52425F 		.ascii	"MRB_TT_FALSE\000"
 8265      54545F46 
 8265      414C5345 
 8265      00
 8266              	.LASF107:
 8267 04e4 6D72625F 		.ascii	"mrb_nil_value\000"
 8267      6E696C5F 
 8267      76616C75 
 8267      6500
 8268              	.LASF2:
 8269 04f2 6C6F6E67 		.ascii	"long double\000"
 8269      20646F75 
 8269      626C6500 
 8270              	.LASF20:
 8271 04fe 75696E74 		.ascii	"uint16_t\000"
 8271      31365F74 
 8271      00
 8272              	.LASF125:
 8273 0507 635F6861 		.ascii	"c_hash_get\000"
 8273      73685F67 
 8273      657400
 8274              	.LASF22:
 8275 0512 6D72625F 		.ascii	"mrb_sym\000"
 8275      73796D00 
 8276              	.LASF148:
 8277 051a 6D726263 		.ascii	"mrbc_array_clear\000"
 8277      5F617272 
 8277      61795F63 
 8277      6C656172 
 8277      00
 8278              	.LASF44:
 8279 052b 4D52425F 		.ascii	"MRB_TT_CLASS\000"
 8279      54545F43 
 8279      4C415353 
 8279      00
 8280              	.LASF8:
 8281 0538 73686F72 		.ascii	"short int\000"
 8281      7420696E 
 8281      7400
 8282              	.LASF104:
ARM GAS  C:\Users\164\AppData\Local\Temp\ccySM5k9.s 			page 170


 8283 0542 6D726263 		.ascii	"mrbc_hash_size\000"
 8283      5F686173 
 8283      685F7369 
 8283      7A6500
 8284              	.LASF12:
 8285 0551 6C6F6E67 		.ascii	"long int\000"
 8285      20696E74 
 8285      00
 8286              	.LASF58:
 8287 055a 68617368 		.ascii	"hash\000"
 8287      00
 8288              	.LASF35:
 8289 055f 524F626A 		.ascii	"RObject\000"
 8289      65637400 
 8290              	.LASF154:
 8291 0567 52455455 		.ascii	"RETURN\000"
 8291      524E00
 8292              	.LASF137:
 8293 056e 6D726263 		.ascii	"mrbc_class_hash\000"
 8293      5F636C61 
 8293      73735F68 
 8293      61736800 
 8294              	.LASF102:
 8295 057e 6D72625F 		.ascii	"mrb_hash_iterator\000"
 8295      68617368 
 8295      5F697465 
 8295      7261746F 
 8295      7200
 8296              	.LASF86:
 8297 0590 696C656E 		.ascii	"ilen\000"
 8297      00
 8298              	.LASF139:
 8299 0595 6D726263 		.ascii	"mrbc_dup\000"
 8299      5F647570 
 8299      00
 8300              	.LASF119:
 8301 059e 6D726263 		.ascii	"mrbc_hash_search\000"
 8301      5F686173 
 8301      685F7365 
 8301      61726368 
 8301      00
 8302              	.LASF5:
 8303 05af 5F5F7569 		.ascii	"__uint8_t\000"
 8303      6E74385F 
 8303      7400
 8304              	.LASF91:
 8305 05b9 72657073 		.ascii	"reps\000"
 8305      00
 8306              	.LASF87:
 8307 05be 706C656E 		.ascii	"plen\000"
 8307      00
 8308              	.LASF74:
 8309 05c3 52537472 		.ascii	"RString\000"
 8309      696E6700 
 8310              	.LASF54:
 8311 05cb 70726F63 		.ascii	"proc\000"
 8311      00
ARM GAS  C:\Users\164\AppData\Local\Temp\ccySM5k9.s 			page 171


 8312              	.LASF15:
 8313 05d0 73697A65 		.ascii	"sizetype\000"
 8313      74797065 
 8313      00
 8314              	.LASF13:
 8315 05d9 6C6F6E67 		.ascii	"long unsigned int\000"
 8315      20756E73 
 8315      69676E65 
 8315      6420696E 
 8315      7400
 8316              	.LASF79:
 8317 05eb 6D72625F 		.ascii	"mrb_class\000"
 8317      636C6173 
 8317      7300
 8318              	.LASF21:
 8319 05f5 696E7433 		.ascii	"int32_t\000"
 8319      325F7400 
 8320              	.LASF85:
 8321 05fd 726C656E 		.ascii	"rlen\000"
 8321      00
 8322              	.LASF82:
 8323 0602 49524550 		.ascii	"IREP\000"
 8323      00
 8324              	.LASF50:
 8325 0607 4D52425F 		.ascii	"MRB_TT_HASH\000"
 8325      54545F48 
 8325      41534800 
 8326              	.LASF103:
 8327 0613 6D726263 		.ascii	"mrbc_hash_iterator\000"
 8327      5F686173 
 8327      685F6974 
 8327      65726174 
 8327      6F7200
 8328              	.LASF6:
 8329 0626 756E7369 		.ascii	"unsigned char\000"
 8329      676E6564 
 8329      20636861 
 8329      7200
 8330              	.LASF96:
 8331 0634 6D72625F 		.ascii	"mrb_vm\000"
 8331      766D00
 8332              	.LASF146:
 8333 063b 6D726263 		.ascii	"mrbc_dec_ref_counter\000"
 8333      5F646563 
 8333      5F726566 
 8333      5F636F75 
 8333      6E746572 
 8334              	.LASF153:
 8335 0650 433A5C55 		.ascii	"C:\\Users\\164\\Documents\\PSoC Creator\\mcmc\\Desi"
 8335      73657273 
 8335      5C313634 
 8335      5C446F63 
 8335      756D656E 
 8336 067d 676E3031 		.ascii	"gn01.cydsn\000"
 8336      2E637964 
 8336      736E00
 8337              	.LASF143:
ARM GAS  C:\Users\164\AppData\Local\Temp\ccySM5k9.s 			page 172


 8338 0688 6D726263 		.ascii	"mrbc_alloc\000"
 8338      5F616C6C 
 8338      6F6300
 8339              	.LASF32:
 8340 0693 6572726F 		.ascii	"error_code\000"
 8340      725F636F 
 8340      646500
 8341              	.LASF69:
 8342 069e 635F6675 		.ascii	"c_func\000"
 8342      6E6300
 8343              	.LASF33:
 8344 06a5 666C6167 		.ascii	"flag_preemption\000"
 8344      5F707265 
 8344      656D7074 
 8344      696F6E00 
 8345              	.LASF46:
 8346 06b5 4D52425F 		.ascii	"MRB_TT_PROC\000"
 8346      54545F50 
 8346      524F4300 
 8347              	.LASF3:
 8348 06c1 7369676E 		.ascii	"signed char\000"
 8348      65642063 
 8348      68617200 
 8349              	.LASF10:
 8350 06cd 73686F72 		.ascii	"short unsigned int\000"
 8350      7420756E 
 8350      7369676E 
 8350      65642069 
 8350      6E7400
 8351              	.LASF52:
 8352 06e0 68616E64 		.ascii	"handle\000"
 8352      6C6500
 8353              	.LASF155:
 8354 06e7 6D656D63 		.ascii	"memcpy\000"
 8354      707900
 8355              	.LASF95:
 8356 06ee 6D72625F 		.ascii	"mrb_callinfo\000"
 8356      63616C6C 
 8356      696E666F 
 8356      00
 8357              	.LASF142:
 8358 06fb 6D726263 		.ascii	"mrbc_compare\000"
 8358      5F636F6D 
 8358      70617265 
 8358      00
 8359              	.LASF71:
 8360 0708 52417272 		.ascii	"RArray\000"
 8360      617900
 8361              	.LASF135:
 8362 070f 6D726263 		.ascii	"mrbc_init_class_hash\000"
 8362      5F696E69 
 8362      745F636C 
 8362      6173735F 
 8362      68617368 
 8363              	.LASF100:
 8364 0724 706F696E 		.ascii	"point\000"
 8364      7400
ARM GAS  C:\Users\164\AppData\Local\Temp\ccySM5k9.s 			page 173


 8365              	.LASF59:
 8366 072a 646F7562 		.ascii	"double\000"
 8366      6C6500
 8367              	.LASF36:
 8368 0731 4D52425F 		.ascii	"MRB_TT_HANDLE\000"
 8368      54545F48 
 8368      414E444C 
 8368      4500
 8369              	.LASF131:
 8370 073f 6D726263 		.ascii	"mrbc_hash_compare\000"
 8370      5F686173 
 8370      685F636F 
 8370      6D706172 
 8370      6500
 8371              	.LASF97:
 8372 0751 6D72625F 		.ascii	"mrb_hash\000"
 8372      68617368 
 8372      00
 8373              	.LASF108:
 8374 075a 76616C75 		.ascii	"value\000"
 8374      6500
 8375              	.LASF75:
 8376 0760 5252616E 		.ascii	"RRange\000"
 8376      676500
 8377              	.LASF128:
 8378 0767 6D726263 		.ascii	"mrbc_hash_delete\000"
 8378      5F686173 
 8378      685F6465 
 8378      6C657465 
 8378      00
 8379              	.LASF42:
 8380 0778 4D52425F 		.ascii	"MRB_TT_FLOAT\000"
 8380      54545F46 
 8380      4C4F4154 
 8380      00
 8381              		.ident	"GCC: (GNU Tools for ARM Embedded Processors) 5.4.1 20160609 (release) [ARM/embedded-5-bran
