ARM GAS  C:\Users\164\AppData\Local\Temp\ccCxylSa.s 			page 1


   1              		.syntax unified
   2              		.cpu cortex-m3
   3              		.fpu softvfp
   4              		.eabi_attribute 20, 1
   5              		.eabi_attribute 21, 1
   6              		.eabi_attribute 23, 3
   7              		.eabi_attribute 24, 1
   8              		.eabi_attribute 25, 1
   9              		.eabi_attribute 26, 1
  10              		.eabi_attribute 30, 1
  11              		.eabi_attribute 34, 1
  12              		.eabi_attribute 18, 4
  13              		.thumb
  14              		.syntax unified
  15              		.file	"c_numeric.c"
  16              		.text
  17              	.Ltext0:
  18              		.cfi_sections	.debug_frame
  19              		.section	.text.shift,"ax",%progbits
  20              		.align	2
  21              		.thumb
  22              		.thumb_func
  23              		.type	shift, %function
  24              	shift:
  25              	.LFB88:
  26              		.file 1 "..\\..\\mruby_c2\\Design01.cydsn\\c_numeric.c"
   1:..\..\mruby_c2\Design01.cydsn/c_numeric.c **** /*! @file
   2:..\..\mruby_c2\Design01.cydsn/c_numeric.c ****   @brief
   3:..\..\mruby_c2\Design01.cydsn/c_numeric.c ****   mruby/c Fixnum and Float class
   4:..\..\mruby_c2\Design01.cydsn/c_numeric.c **** 
   5:..\..\mruby_c2\Design01.cydsn/c_numeric.c ****   <pre>
   6:..\..\mruby_c2\Design01.cydsn/c_numeric.c ****   Copyright (C) 2015-2018 Kyushu Institute of Technology.
   7:..\..\mruby_c2\Design01.cydsn/c_numeric.c ****   Copyright (C) 2015-2018 Shimane IT Open-Innovation Center.
   8:..\..\mruby_c2\Design01.cydsn/c_numeric.c **** 
   9:..\..\mruby_c2\Design01.cydsn/c_numeric.c ****   This file is distributed under BSD 3-Clause License.
  10:..\..\mruby_c2\Design01.cydsn/c_numeric.c **** 
  11:..\..\mruby_c2\Design01.cydsn/c_numeric.c ****   </pre>
  12:..\..\mruby_c2\Design01.cydsn/c_numeric.c **** */
  13:..\..\mruby_c2\Design01.cydsn/c_numeric.c **** 
  14:..\..\mruby_c2\Design01.cydsn/c_numeric.c **** 
  15:..\..\mruby_c2\Design01.cydsn/c_numeric.c **** #include "vm_config.h"
  16:..\..\mruby_c2\Design01.cydsn/c_numeric.c **** #include "opcode.h"
  17:..\..\mruby_c2\Design01.cydsn/c_numeric.c **** #include <stdio.h>
  18:..\..\mruby_c2\Design01.cydsn/c_numeric.c **** #if MRBC_USE_FLOAT
  19:..\..\mruby_c2\Design01.cydsn/c_numeric.c **** #include <math.h>
  20:..\..\mruby_c2\Design01.cydsn/c_numeric.c **** #endif
  21:..\..\mruby_c2\Design01.cydsn/c_numeric.c **** 
  22:..\..\mruby_c2\Design01.cydsn/c_numeric.c **** #include "value.h"
  23:..\..\mruby_c2\Design01.cydsn/c_numeric.c **** #include "static.h"
  24:..\..\mruby_c2\Design01.cydsn/c_numeric.c **** #include "class.h"
  25:..\..\mruby_c2\Design01.cydsn/c_numeric.c **** #include "console.h"
  26:..\..\mruby_c2\Design01.cydsn/c_numeric.c **** #include "c_numeric.h"
  27:..\..\mruby_c2\Design01.cydsn/c_numeric.c **** #include "c_string.h"
  28:..\..\mruby_c2\Design01.cydsn/c_numeric.c **** 
  29:..\..\mruby_c2\Design01.cydsn/c_numeric.c **** 
  30:..\..\mruby_c2\Design01.cydsn/c_numeric.c **** //================================================================
  31:..\..\mruby_c2\Design01.cydsn/c_numeric.c **** /*! (operator) [] bit reference
ARM GAS  C:\Users\164\AppData\Local\Temp\ccCxylSa.s 			page 2


  32:..\..\mruby_c2\Design01.cydsn/c_numeric.c ****  */
  33:..\..\mruby_c2\Design01.cydsn/c_numeric.c **** static void c_fixnum_bitref(mrb_vm *vm, mrb_value v[], int argc)
  34:..\..\mruby_c2\Design01.cydsn/c_numeric.c **** {
  35:..\..\mruby_c2\Design01.cydsn/c_numeric.c ****   if( 0 <= v[1].i && v[1].i < 32 ) {
  36:..\..\mruby_c2\Design01.cydsn/c_numeric.c ****     SET_INT_RETURN( (v[0].i & (1 << v[1].i)) ? 1 : 0 );
  37:..\..\mruby_c2\Design01.cydsn/c_numeric.c ****   } else {
  38:..\..\mruby_c2\Design01.cydsn/c_numeric.c ****     SET_INT_RETURN( 0 );
  39:..\..\mruby_c2\Design01.cydsn/c_numeric.c ****   }
  40:..\..\mruby_c2\Design01.cydsn/c_numeric.c **** }
  41:..\..\mruby_c2\Design01.cydsn/c_numeric.c **** 
  42:..\..\mruby_c2\Design01.cydsn/c_numeric.c **** 
  43:..\..\mruby_c2\Design01.cydsn/c_numeric.c **** //================================================================
  44:..\..\mruby_c2\Design01.cydsn/c_numeric.c **** /*! (operator) unary -
  45:..\..\mruby_c2\Design01.cydsn/c_numeric.c **** */
  46:..\..\mruby_c2\Design01.cydsn/c_numeric.c **** static void c_fixnum_negative(mrb_vm *vm, mrb_value v[], int argc)
  47:..\..\mruby_c2\Design01.cydsn/c_numeric.c **** {
  48:..\..\mruby_c2\Design01.cydsn/c_numeric.c ****   int32_t num = GET_INT_ARG(0);
  49:..\..\mruby_c2\Design01.cydsn/c_numeric.c ****   SET_INT_RETURN( -num );
  50:..\..\mruby_c2\Design01.cydsn/c_numeric.c **** }
  51:..\..\mruby_c2\Design01.cydsn/c_numeric.c **** 
  52:..\..\mruby_c2\Design01.cydsn/c_numeric.c **** 
  53:..\..\mruby_c2\Design01.cydsn/c_numeric.c **** //================================================================
  54:..\..\mruby_c2\Design01.cydsn/c_numeric.c **** /*! (operator) ** power
  55:..\..\mruby_c2\Design01.cydsn/c_numeric.c ****  */
  56:..\..\mruby_c2\Design01.cydsn/c_numeric.c **** static void c_fixnum_power(mrb_vm *vm, mrb_value v[], int argc)
  57:..\..\mruby_c2\Design01.cydsn/c_numeric.c **** {
  58:..\..\mruby_c2\Design01.cydsn/c_numeric.c ****   if( v[1].tt == MRB_TT_FIXNUM ) {
  59:..\..\mruby_c2\Design01.cydsn/c_numeric.c ****     int32_t x = 1;
  60:..\..\mruby_c2\Design01.cydsn/c_numeric.c ****     int i;
  61:..\..\mruby_c2\Design01.cydsn/c_numeric.c **** 
  62:..\..\mruby_c2\Design01.cydsn/c_numeric.c ****     if( v[1].i < 0 ) x = 0;
  63:..\..\mruby_c2\Design01.cydsn/c_numeric.c ****     for( i = 0; i < v[1].i; i++ ) {
  64:..\..\mruby_c2\Design01.cydsn/c_numeric.c ****       x *= v[0].i;;
  65:..\..\mruby_c2\Design01.cydsn/c_numeric.c ****     }
  66:..\..\mruby_c2\Design01.cydsn/c_numeric.c ****     SET_INT_RETURN( x );
  67:..\..\mruby_c2\Design01.cydsn/c_numeric.c ****   }
  68:..\..\mruby_c2\Design01.cydsn/c_numeric.c **** 
  69:..\..\mruby_c2\Design01.cydsn/c_numeric.c **** #if MRBC_USE_FLOAT && MRBC_USE_MATH
  70:..\..\mruby_c2\Design01.cydsn/c_numeric.c ****   else if( v[1].tt == MRB_TT_FLOAT ) {
  71:..\..\mruby_c2\Design01.cydsn/c_numeric.c ****     SET_FLOAT_RETURN( pow( v[0].i, v[1].d ) );
  72:..\..\mruby_c2\Design01.cydsn/c_numeric.c ****   }
  73:..\..\mruby_c2\Design01.cydsn/c_numeric.c **** #endif
  74:..\..\mruby_c2\Design01.cydsn/c_numeric.c **** }
  75:..\..\mruby_c2\Design01.cydsn/c_numeric.c **** 
  76:..\..\mruby_c2\Design01.cydsn/c_numeric.c **** 
  77:..\..\mruby_c2\Design01.cydsn/c_numeric.c **** //================================================================
  78:..\..\mruby_c2\Design01.cydsn/c_numeric.c **** /*! (operator) %
  79:..\..\mruby_c2\Design01.cydsn/c_numeric.c ****  */
  80:..\..\mruby_c2\Design01.cydsn/c_numeric.c **** static void c_fixnum_mod(mrb_vm *vm, mrb_value v[], int argc)
  81:..\..\mruby_c2\Design01.cydsn/c_numeric.c **** {
  82:..\..\mruby_c2\Design01.cydsn/c_numeric.c ****   int32_t num = GET_INT_ARG(1);
  83:..\..\mruby_c2\Design01.cydsn/c_numeric.c ****   SET_INT_RETURN( v->i % num );
  84:..\..\mruby_c2\Design01.cydsn/c_numeric.c **** }
  85:..\..\mruby_c2\Design01.cydsn/c_numeric.c **** 
  86:..\..\mruby_c2\Design01.cydsn/c_numeric.c **** 
  87:..\..\mruby_c2\Design01.cydsn/c_numeric.c **** //================================================================
  88:..\..\mruby_c2\Design01.cydsn/c_numeric.c **** /*! (operator) &; bit operation AND
ARM GAS  C:\Users\164\AppData\Local\Temp\ccCxylSa.s 			page 3


  89:..\..\mruby_c2\Design01.cydsn/c_numeric.c ****  */
  90:..\..\mruby_c2\Design01.cydsn/c_numeric.c **** static void c_fixnum_and(mrb_vm *vm, mrb_value v[], int argc)
  91:..\..\mruby_c2\Design01.cydsn/c_numeric.c **** {
  92:..\..\mruby_c2\Design01.cydsn/c_numeric.c ****   int32_t num = GET_INT_ARG(1);
  93:..\..\mruby_c2\Design01.cydsn/c_numeric.c ****   SET_INT_RETURN(v->i & num);
  94:..\..\mruby_c2\Design01.cydsn/c_numeric.c **** }
  95:..\..\mruby_c2\Design01.cydsn/c_numeric.c **** 
  96:..\..\mruby_c2\Design01.cydsn/c_numeric.c **** 
  97:..\..\mruby_c2\Design01.cydsn/c_numeric.c **** //================================================================
  98:..\..\mruby_c2\Design01.cydsn/c_numeric.c **** /*! (operator) |; bit operation OR
  99:..\..\mruby_c2\Design01.cydsn/c_numeric.c ****  */
 100:..\..\mruby_c2\Design01.cydsn/c_numeric.c **** static void c_fixnum_or(mrb_vm *vm, mrb_value v[], int argc)
 101:..\..\mruby_c2\Design01.cydsn/c_numeric.c **** {
 102:..\..\mruby_c2\Design01.cydsn/c_numeric.c ****   int32_t num = GET_INT_ARG(1);
 103:..\..\mruby_c2\Design01.cydsn/c_numeric.c ****   SET_INT_RETURN(v->i | num);
 104:..\..\mruby_c2\Design01.cydsn/c_numeric.c **** }
 105:..\..\mruby_c2\Design01.cydsn/c_numeric.c **** 
 106:..\..\mruby_c2\Design01.cydsn/c_numeric.c **** 
 107:..\..\mruby_c2\Design01.cydsn/c_numeric.c **** //================================================================
 108:..\..\mruby_c2\Design01.cydsn/c_numeric.c **** /*! (operator) ^; bit operation XOR
 109:..\..\mruby_c2\Design01.cydsn/c_numeric.c ****  */
 110:..\..\mruby_c2\Design01.cydsn/c_numeric.c **** static void c_fixnum_xor(mrb_vm *vm, mrb_value v[], int argc)
 111:..\..\mruby_c2\Design01.cydsn/c_numeric.c **** {
 112:..\..\mruby_c2\Design01.cydsn/c_numeric.c ****   int32_t num = GET_INT_ARG(1);
 113:..\..\mruby_c2\Design01.cydsn/c_numeric.c ****   SET_INT_RETURN( v->i ^ num );
 114:..\..\mruby_c2\Design01.cydsn/c_numeric.c **** }
 115:..\..\mruby_c2\Design01.cydsn/c_numeric.c **** 
 116:..\..\mruby_c2\Design01.cydsn/c_numeric.c **** 
 117:..\..\mruby_c2\Design01.cydsn/c_numeric.c **** //================================================================
 118:..\..\mruby_c2\Design01.cydsn/c_numeric.c **** /*! (operator) ~; bit operation NOT
 119:..\..\mruby_c2\Design01.cydsn/c_numeric.c ****  */
 120:..\..\mruby_c2\Design01.cydsn/c_numeric.c **** static void c_fixnum_not(mrb_vm *vm, mrb_value v[], int argc)
 121:..\..\mruby_c2\Design01.cydsn/c_numeric.c **** {
 122:..\..\mruby_c2\Design01.cydsn/c_numeric.c ****   int32_t num = GET_INT_ARG(0);
 123:..\..\mruby_c2\Design01.cydsn/c_numeric.c ****   SET_INT_RETURN( ~num );
 124:..\..\mruby_c2\Design01.cydsn/c_numeric.c **** }
 125:..\..\mruby_c2\Design01.cydsn/c_numeric.c **** 
 126:..\..\mruby_c2\Design01.cydsn/c_numeric.c **** 
 127:..\..\mruby_c2\Design01.cydsn/c_numeric.c **** //================================================================
 128:..\..\mruby_c2\Design01.cydsn/c_numeric.c **** /*! x-bit left shift for x
 129:..\..\mruby_c2\Design01.cydsn/c_numeric.c ****  */
 130:..\..\mruby_c2\Design01.cydsn/c_numeric.c **** static int32_t shift(int32_t x, int32_t y)
 131:..\..\mruby_c2\Design01.cydsn/c_numeric.c **** {
  27              		.loc 1 131 0
  28              		.cfi_startproc
  29              		@ args = 0, pretend = 0, frame = 0
  30              		@ frame_needed = 0, uses_anonymous_args = 0
  31              		@ link register save eliminated.
  32              	.LVL0:
 132:..\..\mruby_c2\Design01.cydsn/c_numeric.c ****   if( y >= 33 ){
  33              		.loc 1 132 0
  34 0000 2029     		cmp	r1, #32
  35 0002 09DC     		bgt	.L4
 133:..\..\mruby_c2\Design01.cydsn/c_numeric.c ****     x = 0;
 134:..\..\mruby_c2\Design01.cydsn/c_numeric.c ****   } else if( y >= 0 ){
  36              		.loc 1 134 0
  37 0004 0029     		cmp	r1, #0
ARM GAS  C:\Users\164\AppData\Local\Temp\ccCxylSa.s 			page 4


  38 0006 01DB     		blt	.L3
 135:..\..\mruby_c2\Design01.cydsn/c_numeric.c ****     x <<= y;
  39              		.loc 1 135 0
  40 0008 8840     		lsls	r0, r0, r1
  41              	.LVL1:
  42 000a 7047     		bx	lr
  43              	.L3:
 136:..\..\mruby_c2\Design01.cydsn/c_numeric.c ****   } else if( y > -33 ){
  44              		.loc 1 136 0
  45 000c 11F1200F 		cmn	r1, #32
  46 0010 04DB     		blt	.L5
 137:..\..\mruby_c2\Design01.cydsn/c_numeric.c ****     x = x >> -y;
  47              		.loc 1 137 0
  48 0012 4942     		negs	r1, r1
  49              	.LVL2:
  50 0014 0841     		asrs	r0, r0, r1
  51              	.LVL3:
  52 0016 7047     		bx	lr
  53              	.LVL4:
  54              	.L4:
 133:..\..\mruby_c2\Design01.cydsn/c_numeric.c ****   } else if( y >= 0 ){
  55              		.loc 1 133 0
  56 0018 0020     		movs	r0, #0
  57              	.LVL5:
  58 001a 7047     		bx	lr
  59              	.LVL6:
  60              	.L5:
 138:..\..\mruby_c2\Design01.cydsn/c_numeric.c ****   } else {
 139:..\..\mruby_c2\Design01.cydsn/c_numeric.c ****     x = 0;
  61              		.loc 1 139 0
  62 001c 0020     		movs	r0, #0
  63              	.LVL7:
 140:..\..\mruby_c2\Design01.cydsn/c_numeric.c ****   }
 141:..\..\mruby_c2\Design01.cydsn/c_numeric.c ****   return x;
 142:..\..\mruby_c2\Design01.cydsn/c_numeric.c **** }
  64              		.loc 1 142 0
  65 001e 7047     		bx	lr
  66              		.cfi_endproc
  67              	.LFE88:
  68              		.size	shift, .-shift
  69              		.section	.text.c_fixnum_to_s,"ax",%progbits
  70              		.align	2
  71              		.thumb
  72              		.thumb_func
  73              		.type	c_fixnum_to_s, %function
  74              	c_fixnum_to_s:
  75              	.LFB95:
 143:..\..\mruby_c2\Design01.cydsn/c_numeric.c **** 
 144:..\..\mruby_c2\Design01.cydsn/c_numeric.c **** 
 145:..\..\mruby_c2\Design01.cydsn/c_numeric.c **** //================================================================
 146:..\..\mruby_c2\Design01.cydsn/c_numeric.c **** /*! (operator) <<; bit operation LEFT_SHIFT
 147:..\..\mruby_c2\Design01.cydsn/c_numeric.c ****  */
 148:..\..\mruby_c2\Design01.cydsn/c_numeric.c **** static void c_fixnum_lshift(mrb_vm *vm, mrb_value v[], int argc)
 149:..\..\mruby_c2\Design01.cydsn/c_numeric.c **** {
 150:..\..\mruby_c2\Design01.cydsn/c_numeric.c ****   int num = GET_INT_ARG(1);
 151:..\..\mruby_c2\Design01.cydsn/c_numeric.c ****   SET_INT_RETURN( shift(v->i, num) );
 152:..\..\mruby_c2\Design01.cydsn/c_numeric.c **** }
ARM GAS  C:\Users\164\AppData\Local\Temp\ccCxylSa.s 			page 5


 153:..\..\mruby_c2\Design01.cydsn/c_numeric.c **** 
 154:..\..\mruby_c2\Design01.cydsn/c_numeric.c **** 
 155:..\..\mruby_c2\Design01.cydsn/c_numeric.c **** //================================================================
 156:..\..\mruby_c2\Design01.cydsn/c_numeric.c **** /*! (operator) >>; bit operation RIGHT_SHIFT
 157:..\..\mruby_c2\Design01.cydsn/c_numeric.c ****  */
 158:..\..\mruby_c2\Design01.cydsn/c_numeric.c **** static void c_fixnum_rshift(mrb_vm *vm, mrb_value v[], int argc)
 159:..\..\mruby_c2\Design01.cydsn/c_numeric.c **** {
 160:..\..\mruby_c2\Design01.cydsn/c_numeric.c ****   int num = GET_INT_ARG(1);
 161:..\..\mruby_c2\Design01.cydsn/c_numeric.c ****   SET_INT_RETURN( shift(v->i, -num) );
 162:..\..\mruby_c2\Design01.cydsn/c_numeric.c **** }
 163:..\..\mruby_c2\Design01.cydsn/c_numeric.c **** 
 164:..\..\mruby_c2\Design01.cydsn/c_numeric.c **** 
 165:..\..\mruby_c2\Design01.cydsn/c_numeric.c **** //================================================================
 166:..\..\mruby_c2\Design01.cydsn/c_numeric.c **** /*! (method) abs
 167:..\..\mruby_c2\Design01.cydsn/c_numeric.c **** */
 168:..\..\mruby_c2\Design01.cydsn/c_numeric.c **** static void c_fixnum_abs(mrb_vm *vm, mrb_value v[], int argc)
 169:..\..\mruby_c2\Design01.cydsn/c_numeric.c **** {
 170:..\..\mruby_c2\Design01.cydsn/c_numeric.c ****   int32_t num = GET_INT_ARG(0);
 171:..\..\mruby_c2\Design01.cydsn/c_numeric.c ****   SET_INT_RETURN( num < 0 ? -num : num );
 172:..\..\mruby_c2\Design01.cydsn/c_numeric.c **** }
 173:..\..\mruby_c2\Design01.cydsn/c_numeric.c **** 
 174:..\..\mruby_c2\Design01.cydsn/c_numeric.c **** 
 175:..\..\mruby_c2\Design01.cydsn/c_numeric.c **** #if MRBC_USE_FLOAT
 176:..\..\mruby_c2\Design01.cydsn/c_numeric.c **** //================================================================
 177:..\..\mruby_c2\Design01.cydsn/c_numeric.c **** /*! (method) to_f
 178:..\..\mruby_c2\Design01.cydsn/c_numeric.c **** */
 179:..\..\mruby_c2\Design01.cydsn/c_numeric.c **** static void c_fixnum_to_f(mrb_vm *vm, mrb_value v[], int argc)
 180:..\..\mruby_c2\Design01.cydsn/c_numeric.c **** {
 181:..\..\mruby_c2\Design01.cydsn/c_numeric.c ****   double f = GET_INT_ARG(0);
 182:..\..\mruby_c2\Design01.cydsn/c_numeric.c ****   SET_FLOAT_RETURN( f );
 183:..\..\mruby_c2\Design01.cydsn/c_numeric.c **** }
 184:..\..\mruby_c2\Design01.cydsn/c_numeric.c **** #endif
 185:..\..\mruby_c2\Design01.cydsn/c_numeric.c **** 
 186:..\..\mruby_c2\Design01.cydsn/c_numeric.c **** 
 187:..\..\mruby_c2\Design01.cydsn/c_numeric.c **** //================================================================
 188:..\..\mruby_c2\Design01.cydsn/c_numeric.c **** /*! (method) times
 189:..\..\mruby_c2\Design01.cydsn/c_numeric.c **** */
 190:..\..\mruby_c2\Design01.cydsn/c_numeric.c **** static void c_fixnum_times(mrb_vm *vm, mrb_value v[], int argc)
 191:..\..\mruby_c2\Design01.cydsn/c_numeric.c **** {
 192:..\..\mruby_c2\Design01.cydsn/c_numeric.c ****   uint32_t code[2] = {
 193:..\..\mruby_c2\Design01.cydsn/c_numeric.c ****     MKOPCODE(OP_CALL) | MKARG_A(argc),
 194:..\..\mruby_c2\Design01.cydsn/c_numeric.c ****     MKOPCODE(OP_ABORT)
 195:..\..\mruby_c2\Design01.cydsn/c_numeric.c ****   };
 196:..\..\mruby_c2\Design01.cydsn/c_numeric.c ****   mrb_irep irep = {
 197:..\..\mruby_c2\Design01.cydsn/c_numeric.c ****     0,     // nlocals
 198:..\..\mruby_c2\Design01.cydsn/c_numeric.c ****     0,     // nregs
 199:..\..\mruby_c2\Design01.cydsn/c_numeric.c ****     0,     // rlen
 200:..\..\mruby_c2\Design01.cydsn/c_numeric.c ****     2,     // ilen
 201:..\..\mruby_c2\Design01.cydsn/c_numeric.c ****     0,     // plen
 202:..\..\mruby_c2\Design01.cydsn/c_numeric.c ****     (uint8_t *)code,   // iseq
 203:..\..\mruby_c2\Design01.cydsn/c_numeric.c ****     NULL,  // pools
 204:..\..\mruby_c2\Design01.cydsn/c_numeric.c ****     NULL,  // ptr_to_sym
 205:..\..\mruby_c2\Design01.cydsn/c_numeric.c ****     NULL,  // reps
 206:..\..\mruby_c2\Design01.cydsn/c_numeric.c ****   };
 207:..\..\mruby_c2\Design01.cydsn/c_numeric.c **** 
 208:..\..\mruby_c2\Design01.cydsn/c_numeric.c ****   // count of times
 209:..\..\mruby_c2\Design01.cydsn/c_numeric.c ****   int cnt = v[0].i;
ARM GAS  C:\Users\164\AppData\Local\Temp\ccCxylSa.s 			page 6


 210:..\..\mruby_c2\Design01.cydsn/c_numeric.c **** 
 211:..\..\mruby_c2\Design01.cydsn/c_numeric.c ****   mrbc_push_callinfo(vm, 0);
 212:..\..\mruby_c2\Design01.cydsn/c_numeric.c **** 
 213:..\..\mruby_c2\Design01.cydsn/c_numeric.c ****   // adjust reg_top for reg[0]==Proc
 214:..\..\mruby_c2\Design01.cydsn/c_numeric.c ****   vm->current_regs += v - vm->regs + 1;
 215:..\..\mruby_c2\Design01.cydsn/c_numeric.c **** 
 216:..\..\mruby_c2\Design01.cydsn/c_numeric.c ****   int i;
 217:..\..\mruby_c2\Design01.cydsn/c_numeric.c ****   for( i=0 ; i<cnt ; i++ ){
 218:..\..\mruby_c2\Design01.cydsn/c_numeric.c ****     // set index
 219:..\..\mruby_c2\Design01.cydsn/c_numeric.c ****     mrbc_release( &v[2] );
 220:..\..\mruby_c2\Design01.cydsn/c_numeric.c ****     v[2].tt = MRB_TT_FIXNUM;
 221:..\..\mruby_c2\Design01.cydsn/c_numeric.c ****     v[2].i = i;
 222:..\..\mruby_c2\Design01.cydsn/c_numeric.c **** 
 223:..\..\mruby_c2\Design01.cydsn/c_numeric.c ****     // set OP_CALL irep
 224:..\..\mruby_c2\Design01.cydsn/c_numeric.c ****     vm->pc = 0;
 225:..\..\mruby_c2\Design01.cydsn/c_numeric.c ****     vm->pc_irep = &irep;
 226:..\..\mruby_c2\Design01.cydsn/c_numeric.c **** 
 227:..\..\mruby_c2\Design01.cydsn/c_numeric.c ****     // execute OP_CALL
 228:..\..\mruby_c2\Design01.cydsn/c_numeric.c ****     mrbc_vm_run(vm);
 229:..\..\mruby_c2\Design01.cydsn/c_numeric.c ****   }
 230:..\..\mruby_c2\Design01.cydsn/c_numeric.c **** 
 231:..\..\mruby_c2\Design01.cydsn/c_numeric.c ****   mrbc_pop_callinfo(vm);
 232:..\..\mruby_c2\Design01.cydsn/c_numeric.c **** }
 233:..\..\mruby_c2\Design01.cydsn/c_numeric.c **** 
 234:..\..\mruby_c2\Design01.cydsn/c_numeric.c **** 
 235:..\..\mruby_c2\Design01.cydsn/c_numeric.c **** 
 236:..\..\mruby_c2\Design01.cydsn/c_numeric.c **** #if MRBC_USE_STRING
 237:..\..\mruby_c2\Design01.cydsn/c_numeric.c **** //================================================================
 238:..\..\mruby_c2\Design01.cydsn/c_numeric.c **** /*! (method) chr
 239:..\..\mruby_c2\Design01.cydsn/c_numeric.c **** */
 240:..\..\mruby_c2\Design01.cydsn/c_numeric.c **** static void c_fixnum_chr(mrb_vm *vm, mrb_value v[], int argc)
 241:..\..\mruby_c2\Design01.cydsn/c_numeric.c **** {
 242:..\..\mruby_c2\Design01.cydsn/c_numeric.c ****   char buf[2] = { GET_INT_ARG(0) };
 243:..\..\mruby_c2\Design01.cydsn/c_numeric.c **** 
 244:..\..\mruby_c2\Design01.cydsn/c_numeric.c ****   mrb_value value = mrbc_string_new(vm, buf, 1);
 245:..\..\mruby_c2\Design01.cydsn/c_numeric.c ****   SET_RETURN(value);
 246:..\..\mruby_c2\Design01.cydsn/c_numeric.c **** }
 247:..\..\mruby_c2\Design01.cydsn/c_numeric.c **** 
 248:..\..\mruby_c2\Design01.cydsn/c_numeric.c **** 
 249:..\..\mruby_c2\Design01.cydsn/c_numeric.c **** //================================================================
 250:..\..\mruby_c2\Design01.cydsn/c_numeric.c **** /*! (method) to_s
 251:..\..\mruby_c2\Design01.cydsn/c_numeric.c **** */
 252:..\..\mruby_c2\Design01.cydsn/c_numeric.c **** static void c_fixnum_to_s(mrb_vm *vm, mrb_value v[], int argc)
 253:..\..\mruby_c2\Design01.cydsn/c_numeric.c **** {
  76              		.loc 1 253 0
  77              		.cfi_startproc
  78              		@ args = 0, pretend = 0, frame = 64
  79              		@ frame_needed = 0, uses_anonymous_args = 0
  80              	.LVL8:
  81 0000 F0B5     		push	{r4, r5, r6, r7, lr}
  82              		.cfi_def_cfa_offset 20
  83              		.cfi_offset 4, -20
  84              		.cfi_offset 5, -16
  85              		.cfi_offset 6, -12
  86              		.cfi_offset 7, -8
  87              		.cfi_offset 14, -4
  88 0002 91B0     		sub	sp, sp, #68
ARM GAS  C:\Users\164\AppData\Local\Temp\ccCxylSa.s 			page 7


  89              		.cfi_def_cfa_offset 88
  90              	.LVL9:
 254:..\..\mruby_c2\Design01.cydsn/c_numeric.c ****   int base = 10;
 255:..\..\mruby_c2\Design01.cydsn/c_numeric.c ****   if( argc ) {
  91              		.loc 1 255 0
  92 0004 22B1     		cbz	r2, .L10
 256:..\..\mruby_c2\Design01.cydsn/c_numeric.c ****     base = GET_INT_ARG(1);
  93              		.loc 1 256 0
  94 0006 8A69     		ldr	r2, [r1, #24]
  95              	.LVL10:
 257:..\..\mruby_c2\Design01.cydsn/c_numeric.c ****     if( base < 2 || base > 36 ) {
  96              		.loc 1 257 0
  97 0008 931E     		subs	r3, r2, #2
  98 000a 222B     		cmp	r3, #34
  99 000c 23D8     		bhi	.L6
 100 000e 00E0     		b	.L7
 101              	.LVL11:
 102              	.L10:
 254:..\..\mruby_c2\Design01.cydsn/c_numeric.c ****   int base = 10;
 103              		.loc 1 254 0
 104 0010 0A22     		movs	r2, #10
 105              	.LVL12:
 106              	.L7:
 107 0012 0C46     		mov	r4, r1
 108 0014 0746     		mov	r7, r0
 109              	.LVL13:
 110              	.LBB6:
 111              	.LBB7:
 112              		.file 2 "..\\..\\mruby_c2\\Design01.cydsn\\console.h"
   1:..\..\mruby_c2\Design01.cydsn/console.h **** /*! @file
   2:..\..\mruby_c2\Design01.cydsn/console.h ****   @brief
   3:..\..\mruby_c2\Design01.cydsn/console.h ****   console output module. (not yet input)
   4:..\..\mruby_c2\Design01.cydsn/console.h **** 
   5:..\..\mruby_c2\Design01.cydsn/console.h ****   <pre>
   6:..\..\mruby_c2\Design01.cydsn/console.h ****   Copyright (C) 2015-2017 Kyushu Institute of Technology.
   7:..\..\mruby_c2\Design01.cydsn/console.h ****   Copyright (C) 2015-2017 Shimane IT Open-Innovation Center.
   8:..\..\mruby_c2\Design01.cydsn/console.h **** 
   9:..\..\mruby_c2\Design01.cydsn/console.h ****   This file is distributed under BSD 3-Clause License.
  10:..\..\mruby_c2\Design01.cydsn/console.h **** 
  11:..\..\mruby_c2\Design01.cydsn/console.h ****   </pre>
  12:..\..\mruby_c2\Design01.cydsn/console.h **** */
  13:..\..\mruby_c2\Design01.cydsn/console.h **** 
  14:..\..\mruby_c2\Design01.cydsn/console.h **** #ifndef MRBC_SRC_CONSOLE_H_
  15:..\..\mruby_c2\Design01.cydsn/console.h **** #define MRBC_SRC_CONSOLE_H_
  16:..\..\mruby_c2\Design01.cydsn/console.h **** 
  17:..\..\mruby_c2\Design01.cydsn/console.h **** #include <stdint.h>
  18:..\..\mruby_c2\Design01.cydsn/console.h **** #include <stdarg.h>
  19:..\..\mruby_c2\Design01.cydsn/console.h **** #include <string.h>
  20:..\..\mruby_c2\Design01.cydsn/console.h **** #include "hal/hal.h"
  21:..\..\mruby_c2\Design01.cydsn/console.h **** 
  22:..\..\mruby_c2\Design01.cydsn/console.h **** #ifdef __cplusplus
  23:..\..\mruby_c2\Design01.cydsn/console.h **** extern "C" {
  24:..\..\mruby_c2\Design01.cydsn/console.h **** #endif
  25:..\..\mruby_c2\Design01.cydsn/console.h **** 
  26:..\..\mruby_c2\Design01.cydsn/console.h **** 
  27:..\..\mruby_c2\Design01.cydsn/console.h **** //================================================================
  28:..\..\mruby_c2\Design01.cydsn/console.h **** /*! printf tiny (mruby/c) version data container.
ARM GAS  C:\Users\164\AppData\Local\Temp\ccCxylSa.s 			page 8


  29:..\..\mruby_c2\Design01.cydsn/console.h **** */
  30:..\..\mruby_c2\Design01.cydsn/console.h **** typedef struct RPrintf {
  31:..\..\mruby_c2\Design01.cydsn/console.h ****   char *buf;		//!< output buffer.
  32:..\..\mruby_c2\Design01.cydsn/console.h ****   const char *buf_end;	//!< output buffer end point.
  33:..\..\mruby_c2\Design01.cydsn/console.h ****   char *p;		//!< output buffer write point.
  34:..\..\mruby_c2\Design01.cydsn/console.h ****   const char *fstr;	//!< format string. (e.g. "%d %03x")
  35:..\..\mruby_c2\Design01.cydsn/console.h **** 
  36:..\..\mruby_c2\Design01.cydsn/console.h ****   struct RPrintfFormat {
  37:..\..\mruby_c2\Design01.cydsn/console.h ****     char type;				//!< format char. (e.g. 'd','f','x'...)
  38:..\..\mruby_c2\Design01.cydsn/console.h ****     unsigned int flag_plus : 1;
  39:..\..\mruby_c2\Design01.cydsn/console.h ****     unsigned int flag_minus : 1;
  40:..\..\mruby_c2\Design01.cydsn/console.h ****     unsigned int flag_space : 1;
  41:..\..\mruby_c2\Design01.cydsn/console.h ****     unsigned int flag_zero : 1;
  42:..\..\mruby_c2\Design01.cydsn/console.h ****     int width;				//!< display width. (e.g. %10d as 10)
  43:..\..\mruby_c2\Design01.cydsn/console.h ****     int precision;			//!< precision (e.g. %5.2f as 2)
  44:..\..\mruby_c2\Design01.cydsn/console.h ****   } fmt;
  45:..\..\mruby_c2\Design01.cydsn/console.h **** } mrb_printf;
  46:..\..\mruby_c2\Design01.cydsn/console.h **** 
  47:..\..\mruby_c2\Design01.cydsn/console.h **** 
  48:..\..\mruby_c2\Design01.cydsn/console.h **** 
  49:..\..\mruby_c2\Design01.cydsn/console.h **** void console_printf(const char *fstr, ...);
  50:..\..\mruby_c2\Design01.cydsn/console.h **** int mrbc_printf_main(mrb_printf *pf);
  51:..\..\mruby_c2\Design01.cydsn/console.h **** int mrbc_printf_char(mrb_printf *pf, int ch);
  52:..\..\mruby_c2\Design01.cydsn/console.h **** int mrbc_printf_str(mrb_printf *pf, const char *str, int pad);
  53:..\..\mruby_c2\Design01.cydsn/console.h **** int mrbc_printf_int(mrb_printf *pf, int32_t value, int base);
  54:..\..\mruby_c2\Design01.cydsn/console.h **** int mrbc_printf_float( mrb_printf *pf, double value );
  55:..\..\mruby_c2\Design01.cydsn/console.h **** void mrbc_printf_replace_buffer(mrb_printf *pf, char *buf, int size);
  56:..\..\mruby_c2\Design01.cydsn/console.h **** 
  57:..\..\mruby_c2\Design01.cydsn/console.h **** 
  58:..\..\mruby_c2\Design01.cydsn/console.h **** //================================================================
  59:..\..\mruby_c2\Design01.cydsn/console.h **** /*! output a character
  60:..\..\mruby_c2\Design01.cydsn/console.h **** 
  61:..\..\mruby_c2\Design01.cydsn/console.h ****   @param  c	character
  62:..\..\mruby_c2\Design01.cydsn/console.h **** */
  63:..\..\mruby_c2\Design01.cydsn/console.h **** static inline void console_putchar(char c)
  64:..\..\mruby_c2\Design01.cydsn/console.h **** {
  65:..\..\mruby_c2\Design01.cydsn/console.h ****   hal_write(1, &c, 1);
  66:..\..\mruby_c2\Design01.cydsn/console.h **** }
  67:..\..\mruby_c2\Design01.cydsn/console.h **** 
  68:..\..\mruby_c2\Design01.cydsn/console.h **** 
  69:..\..\mruby_c2\Design01.cydsn/console.h **** //================================================================
  70:..\..\mruby_c2\Design01.cydsn/console.h **** /*! output string
  71:..\..\mruby_c2\Design01.cydsn/console.h **** 
  72:..\..\mruby_c2\Design01.cydsn/console.h ****   @param str	str
  73:..\..\mruby_c2\Design01.cydsn/console.h **** */
  74:..\..\mruby_c2\Design01.cydsn/console.h **** static inline void console_print(const char *str)
  75:..\..\mruby_c2\Design01.cydsn/console.h **** {
  76:..\..\mruby_c2\Design01.cydsn/console.h ****   hal_write(1, str, strlen(str));
  77:..\..\mruby_c2\Design01.cydsn/console.h **** }
  78:..\..\mruby_c2\Design01.cydsn/console.h **** 
  79:..\..\mruby_c2\Design01.cydsn/console.h **** 
  80:..\..\mruby_c2\Design01.cydsn/console.h **** //================================================================
  81:..\..\mruby_c2\Design01.cydsn/console.h **** /*! initialize data container.
  82:..\..\mruby_c2\Design01.cydsn/console.h **** 
  83:..\..\mruby_c2\Design01.cydsn/console.h ****   @param  pf	pointer to mrb_printf
  84:..\..\mruby_c2\Design01.cydsn/console.h ****   @param  buf	pointer to output buffer.
  85:..\..\mruby_c2\Design01.cydsn/console.h ****   @param  size	buffer size.
ARM GAS  C:\Users\164\AppData\Local\Temp\ccCxylSa.s 			page 9


  86:..\..\mruby_c2\Design01.cydsn/console.h ****   @param  fstr	format string.
  87:..\..\mruby_c2\Design01.cydsn/console.h **** */
  88:..\..\mruby_c2\Design01.cydsn/console.h **** static inline void mrbc_printf_init( mrb_printf *pf, char *buf, int size,
  89:..\..\mruby_c2\Design01.cydsn/console.h **** 				     const char *fstr )
  90:..\..\mruby_c2\Design01.cydsn/console.h **** {
  91:..\..\mruby_c2\Design01.cydsn/console.h ****   pf->p = pf->buf = buf;
 113              		.loc 2 91 0
 114 0016 05AE     		add	r6, sp, #20
 115              	.LVL14:
 116 0018 0996     		str	r6, [sp, #36]
 117 001a 0B96     		str	r6, [sp, #44]
  92:..\..\mruby_c2\Design01.cydsn/console.h ****   pf->buf_end = buf + size - 1;
 118              		.loc 2 92 0
 119 001c 0DF12303 		add	r3, sp, #35
 120 0020 0A93     		str	r3, [sp, #40]
  93:..\..\mruby_c2\Design01.cydsn/console.h ****   pf->fstr = fstr;
 121              		.loc 2 93 0
 122 0022 0025     		movs	r5, #0
 123 0024 0C95     		str	r5, [sp, #48]
  94:..\..\mruby_c2\Design01.cydsn/console.h ****   pf->fmt = (struct RPrintfFormat){0};
 124              		.loc 2 94 0
 125 0026 0D95     		str	r5, [sp, #52]
 126 0028 0E95     		str	r5, [sp, #56]
 127 002a 0F95     		str	r5, [sp, #60]
 128              	.LVL15:
 129              	.LBE7:
 130              	.LBE6:
 258:..\..\mruby_c2\Design01.cydsn/c_numeric.c ****       return;	// raise ? ArgumentError
 259:..\..\mruby_c2\Design01.cydsn/c_numeric.c ****     }
 260:..\..\mruby_c2\Design01.cydsn/c_numeric.c ****   }
 261:..\..\mruby_c2\Design01.cydsn/c_numeric.c **** 
 262:..\..\mruby_c2\Design01.cydsn/c_numeric.c ****   mrb_printf pf;
 263:..\..\mruby_c2\Design01.cydsn/c_numeric.c ****   char buf[16];
 264:..\..\mruby_c2\Design01.cydsn/c_numeric.c ****   mrbc_printf_init( &pf, buf, sizeof(buf), NULL );
 265:..\..\mruby_c2\Design01.cydsn/c_numeric.c ****   pf.fmt.type = 'd';
 131              		.loc 1 265 0
 132 002c 6423     		movs	r3, #100
 133 002e 8DF83430 		strb	r3, [sp, #52]
 266:..\..\mruby_c2\Design01.cydsn/c_numeric.c ****   mrbc_printf_int( &pf, v->i, base );
 134              		.loc 1 266 0
 135 0032 8968     		ldr	r1, [r1, #8]
 136              	.LVL16:
 137 0034 09A8     		add	r0, sp, #36
 138              	.LVL17:
 139 0036 FFF7FEFF 		bl	mrbc_printf_int
 140              	.LVL18:
 141              	.LBB8:
 142              	.LBB9:
  95:..\..\mruby_c2\Design01.cydsn/console.h **** }
  96:..\..\mruby_c2\Design01.cydsn/console.h **** 
  97:..\..\mruby_c2\Design01.cydsn/console.h **** 
  98:..\..\mruby_c2\Design01.cydsn/console.h **** //================================================================
  99:..\..\mruby_c2\Design01.cydsn/console.h **** /*! clear output buffer in container.
 100:..\..\mruby_c2\Design01.cydsn/console.h **** 
 101:..\..\mruby_c2\Design01.cydsn/console.h ****   @param  pf	pointer to mrb_printf
 102:..\..\mruby_c2\Design01.cydsn/console.h **** */
 103:..\..\mruby_c2\Design01.cydsn/console.h **** static inline void mrbc_printf_clear( mrb_printf *pf )
ARM GAS  C:\Users\164\AppData\Local\Temp\ccCxylSa.s 			page 10


 104:..\..\mruby_c2\Design01.cydsn/console.h **** {
 105:..\..\mruby_c2\Design01.cydsn/console.h ****   pf->p = pf->buf;
 106:..\..\mruby_c2\Design01.cydsn/console.h **** }
 107:..\..\mruby_c2\Design01.cydsn/console.h **** 
 108:..\..\mruby_c2\Design01.cydsn/console.h **** 
 109:..\..\mruby_c2\Design01.cydsn/console.h **** //================================================================
 110:..\..\mruby_c2\Design01.cydsn/console.h **** /*! terminate ('\0') output buffer.
 111:..\..\mruby_c2\Design01.cydsn/console.h **** 
 112:..\..\mruby_c2\Design01.cydsn/console.h ****   @param  pf	pointer to mrb_printf
 113:..\..\mruby_c2\Design01.cydsn/console.h **** */
 114:..\..\mruby_c2\Design01.cydsn/console.h **** static inline void mrbc_printf_end( mrb_printf *pf )
 115:..\..\mruby_c2\Design01.cydsn/console.h **** {
 116:..\..\mruby_c2\Design01.cydsn/console.h ****   *pf->p = '\0';
 143              		.loc 2 116 0
 144 003a 0B9B     		ldr	r3, [sp, #44]
 145 003c 1D70     		strb	r5, [r3]
 146              	.LVL19:
 147              	.LBE9:
 148              	.LBE8:
 267:..\..\mruby_c2\Design01.cydsn/c_numeric.c ****   mrbc_printf_end( &pf );
 268:..\..\mruby_c2\Design01.cydsn/c_numeric.c **** 
 269:..\..\mruby_c2\Design01.cydsn/c_numeric.c ****   mrb_value value = mrbc_string_new_cstr(vm, buf);
 149              		.loc 1 269 0
 150 003e 3246     		mov	r2, r6
 151 0040 3946     		mov	r1, r7
 152 0042 6846     		mov	r0, sp
 153 0044 FFF7FEFF 		bl	mrbc_string_new_cstr
 154              	.LVL20:
 270:..\..\mruby_c2\Design01.cydsn/c_numeric.c ****   SET_RETURN(value);
 155              		.loc 1 270 0
 156 0048 2046     		mov	r0, r4
 157 004a FFF7FEFF 		bl	mrbc_release
 158              	.LVL21:
 159 004e 9DE80F00 		ldmia	sp, {r0, r1, r2, r3}
 160 0052 84E80F00 		stmia	r4, {r0, r1, r2, r3}
 161              	.LVL22:
 162              	.L6:
 271:..\..\mruby_c2\Design01.cydsn/c_numeric.c **** }
 163              		.loc 1 271 0
 164 0056 11B0     		add	sp, sp, #68
 165              		.cfi_def_cfa_offset 20
 166              		@ sp needed
 167 0058 F0BD     		pop	{r4, r5, r6, r7, pc}
 168              		.cfi_endproc
 169              	.LFE95:
 170              		.size	c_fixnum_to_s, .-c_fixnum_to_s
 171              		.global	__aeabi_i2d
 172 005a 00BF     		.section	.text.c_fixnum_to_f,"ax",%progbits
 173              		.align	2
 174              		.thumb
 175              		.thumb_func
 176              		.type	c_fixnum_to_f, %function
 177              	c_fixnum_to_f:
 178              	.LFB92:
 180:..\..\mruby_c2\Design01.cydsn/c_numeric.c ****   double f = GET_INT_ARG(0);
 179              		.loc 1 180 0
 180              		.cfi_startproc
ARM GAS  C:\Users\164\AppData\Local\Temp\ccCxylSa.s 			page 11


 181              		@ args = 0, pretend = 0, frame = 0
 182              		@ frame_needed = 0, uses_anonymous_args = 0
 183              	.LVL23:
 184 0000 D0B5     		push	{r4, r6, r7, lr}
 185              		.cfi_def_cfa_offset 16
 186              		.cfi_offset 4, -16
 187              		.cfi_offset 6, -12
 188              		.cfi_offset 7, -8
 189              		.cfi_offset 14, -4
 190 0002 0C46     		mov	r4, r1
 181:..\..\mruby_c2\Design01.cydsn/c_numeric.c ****   SET_FLOAT_RETURN( f );
 191              		.loc 1 181 0
 192 0004 8868     		ldr	r0, [r1, #8]
 193              	.LVL24:
 194 0006 FFF7FEFF 		bl	__aeabi_i2d
 195              	.LVL25:
 196 000a 0646     		mov	r6, r0
 197 000c 0F46     		mov	r7, r1
 198              	.LVL26:
 182:..\..\mruby_c2\Design01.cydsn/c_numeric.c **** }
 199              		.loc 1 182 0
 200 000e 2046     		mov	r0, r4
 201 0010 FFF7FEFF 		bl	mrbc_release
 202              	.LVL27:
 203 0014 0523     		movs	r3, #5
 204 0016 2370     		strb	r3, [r4]
 205 0018 C4E90267 		strd	r6, [r4, #8]
 206 001c D0BD     		pop	{r4, r6, r7, pc}
 207              		.cfi_endproc
 208              	.LFE92:
 209              		.size	c_fixnum_to_f, .-c_fixnum_to_f
 210 001e 00BF     		.section	.text.c_fixnum_abs,"ax",%progbits
 211              		.align	2
 212              		.thumb
 213              		.thumb_func
 214              		.type	c_fixnum_abs, %function
 215              	c_fixnum_abs:
 216              	.LFB91:
 169:..\..\mruby_c2\Design01.cydsn/c_numeric.c ****   int32_t num = GET_INT_ARG(0);
 217              		.loc 1 169 0
 218              		.cfi_startproc
 219              		@ args = 0, pretend = 0, frame = 0
 220              		@ frame_needed = 0, uses_anonymous_args = 0
 221              	.LVL28:
 222 0000 38B5     		push	{r3, r4, r5, lr}
 223              		.cfi_def_cfa_offset 16
 224              		.cfi_offset 3, -16
 225              		.cfi_offset 4, -12
 226              		.cfi_offset 5, -8
 227              		.cfi_offset 14, -4
 228 0002 0C46     		mov	r4, r1
 170:..\..\mruby_c2\Design01.cydsn/c_numeric.c ****   SET_INT_RETURN( num < 0 ? -num : num );
 229              		.loc 1 170 0
 230 0004 8D68     		ldr	r5, [r1, #8]
 231              	.LVL29:
 171:..\..\mruby_c2\Design01.cydsn/c_numeric.c **** }
 232              		.loc 1 171 0
ARM GAS  C:\Users\164\AppData\Local\Temp\ccCxylSa.s 			page 12


 233 0006 0846     		mov	r0, r1
 234              	.LVL30:
 235 0008 FFF7FEFF 		bl	mrbc_release
 236              	.LVL31:
 237 000c 0423     		movs	r3, #4
 238 000e 2370     		strb	r3, [r4]
 239 0010 002D     		cmp	r5, #0
 240 0012 B8BF     		it	lt
 241 0014 6D42     		rsblt	r5, r5, #0
 242              	.LVL32:
 243 0016 A560     		str	r5, [r4, #8]
 244 0018 38BD     		pop	{r3, r4, r5, pc}
 245              		.cfi_endproc
 246              	.LFE91:
 247              		.size	c_fixnum_abs, .-c_fixnum_abs
 248 001a 00BF     		.section	.text.c_fixnum_rshift,"ax",%progbits
 249              		.align	2
 250              		.thumb
 251              		.thumb_func
 252              		.type	c_fixnum_rshift, %function
 253              	c_fixnum_rshift:
 254              	.LFB90:
 159:..\..\mruby_c2\Design01.cydsn/c_numeric.c ****   int num = GET_INT_ARG(1);
 255              		.loc 1 159 0
 256              		.cfi_startproc
 257              		@ args = 0, pretend = 0, frame = 0
 258              		@ frame_needed = 0, uses_anonymous_args = 0
 259              	.LVL33:
 260 0000 38B5     		push	{r3, r4, r5, lr}
 261              		.cfi_def_cfa_offset 16
 262              		.cfi_offset 3, -16
 263              		.cfi_offset 4, -12
 264              		.cfi_offset 5, -8
 265              		.cfi_offset 14, -4
 266 0002 0C46     		mov	r4, r1
 160:..\..\mruby_c2\Design01.cydsn/c_numeric.c ****   SET_INT_RETURN( shift(v->i, -num) );
 267              		.loc 1 160 0
 268 0004 8D69     		ldr	r5, [r1, #24]
 269              	.LVL34:
 161:..\..\mruby_c2\Design01.cydsn/c_numeric.c **** }
 270              		.loc 1 161 0
 271 0006 0846     		mov	r0, r1
 272              	.LVL35:
 273 0008 FFF7FEFF 		bl	mrbc_release
 274              	.LVL36:
 275 000c 0423     		movs	r3, #4
 276 000e 2370     		strb	r3, [r4]
 277 0010 6942     		negs	r1, r5
 278 0012 A068     		ldr	r0, [r4, #8]
 279 0014 FFF7FEFF 		bl	shift
 280              	.LVL37:
 281 0018 A060     		str	r0, [r4, #8]
 282 001a 38BD     		pop	{r3, r4, r5, pc}
 283              		.cfi_endproc
 284              	.LFE90:
 285              		.size	c_fixnum_rshift, .-c_fixnum_rshift
 286              		.section	.text.c_fixnum_lshift,"ax",%progbits
ARM GAS  C:\Users\164\AppData\Local\Temp\ccCxylSa.s 			page 13


 287              		.align	2
 288              		.thumb
 289              		.thumb_func
 290              		.type	c_fixnum_lshift, %function
 291              	c_fixnum_lshift:
 292              	.LFB89:
 149:..\..\mruby_c2\Design01.cydsn/c_numeric.c ****   int num = GET_INT_ARG(1);
 293              		.loc 1 149 0
 294              		.cfi_startproc
 295              		@ args = 0, pretend = 0, frame = 0
 296              		@ frame_needed = 0, uses_anonymous_args = 0
 297              	.LVL38:
 298 0000 38B5     		push	{r3, r4, r5, lr}
 299              		.cfi_def_cfa_offset 16
 300              		.cfi_offset 3, -16
 301              		.cfi_offset 4, -12
 302              		.cfi_offset 5, -8
 303              		.cfi_offset 14, -4
 304 0002 0C46     		mov	r4, r1
 150:..\..\mruby_c2\Design01.cydsn/c_numeric.c ****   SET_INT_RETURN( shift(v->i, num) );
 305              		.loc 1 150 0
 306 0004 8D69     		ldr	r5, [r1, #24]
 307              	.LVL39:
 151:..\..\mruby_c2\Design01.cydsn/c_numeric.c **** }
 308              		.loc 1 151 0
 309 0006 0846     		mov	r0, r1
 310              	.LVL40:
 311 0008 FFF7FEFF 		bl	mrbc_release
 312              	.LVL41:
 313 000c 0423     		movs	r3, #4
 314 000e 2370     		strb	r3, [r4]
 315 0010 2946     		mov	r1, r5
 316 0012 A068     		ldr	r0, [r4, #8]
 317 0014 FFF7FEFF 		bl	shift
 318              	.LVL42:
 319 0018 A060     		str	r0, [r4, #8]
 320 001a 38BD     		pop	{r3, r4, r5, pc}
 321              		.cfi_endproc
 322              	.LFE89:
 323              		.size	c_fixnum_lshift, .-c_fixnum_lshift
 324              		.section	.text.c_fixnum_not,"ax",%progbits
 325              		.align	2
 326              		.thumb
 327              		.thumb_func
 328              		.type	c_fixnum_not, %function
 329              	c_fixnum_not:
 330              	.LFB87:
 121:..\..\mruby_c2\Design01.cydsn/c_numeric.c ****   int32_t num = GET_INT_ARG(0);
 331              		.loc 1 121 0
 332              		.cfi_startproc
 333              		@ args = 0, pretend = 0, frame = 0
 334              		@ frame_needed = 0, uses_anonymous_args = 0
 335              	.LVL43:
 336 0000 38B5     		push	{r3, r4, r5, lr}
 337              		.cfi_def_cfa_offset 16
 338              		.cfi_offset 3, -16
 339              		.cfi_offset 4, -12
ARM GAS  C:\Users\164\AppData\Local\Temp\ccCxylSa.s 			page 14


 340              		.cfi_offset 5, -8
 341              		.cfi_offset 14, -4
 342 0002 0C46     		mov	r4, r1
 122:..\..\mruby_c2\Design01.cydsn/c_numeric.c ****   SET_INT_RETURN( ~num );
 343              		.loc 1 122 0
 344 0004 8D68     		ldr	r5, [r1, #8]
 345              	.LVL44:
 123:..\..\mruby_c2\Design01.cydsn/c_numeric.c **** }
 346              		.loc 1 123 0
 347 0006 0846     		mov	r0, r1
 348              	.LVL45:
 349 0008 FFF7FEFF 		bl	mrbc_release
 350              	.LVL46:
 351 000c 0423     		movs	r3, #4
 352 000e 2370     		strb	r3, [r4]
 353 0010 ED43     		mvns	r5, r5
 354              	.LVL47:
 355 0012 A560     		str	r5, [r4, #8]
 356 0014 38BD     		pop	{r3, r4, r5, pc}
 357              		.cfi_endproc
 358              	.LFE87:
 359              		.size	c_fixnum_not, .-c_fixnum_not
 360 0016 00BF     		.section	.text.c_fixnum_xor,"ax",%progbits
 361              		.align	2
 362              		.thumb
 363              		.thumb_func
 364              		.type	c_fixnum_xor, %function
 365              	c_fixnum_xor:
 366              	.LFB86:
 111:..\..\mruby_c2\Design01.cydsn/c_numeric.c ****   int32_t num = GET_INT_ARG(1);
 367              		.loc 1 111 0
 368              		.cfi_startproc
 369              		@ args = 0, pretend = 0, frame = 0
 370              		@ frame_needed = 0, uses_anonymous_args = 0
 371              	.LVL48:
 372 0000 38B5     		push	{r3, r4, r5, lr}
 373              		.cfi_def_cfa_offset 16
 374              		.cfi_offset 3, -16
 375              		.cfi_offset 4, -12
 376              		.cfi_offset 5, -8
 377              		.cfi_offset 14, -4
 378 0002 0C46     		mov	r4, r1
 112:..\..\mruby_c2\Design01.cydsn/c_numeric.c ****   SET_INT_RETURN( v->i ^ num );
 379              		.loc 1 112 0
 380 0004 8D69     		ldr	r5, [r1, #24]
 381              	.LVL49:
 113:..\..\mruby_c2\Design01.cydsn/c_numeric.c **** }
 382              		.loc 1 113 0
 383 0006 0846     		mov	r0, r1
 384              	.LVL50:
 385 0008 FFF7FEFF 		bl	mrbc_release
 386              	.LVL51:
 387 000c 0423     		movs	r3, #4
 388 000e 2370     		strb	r3, [r4]
 389 0010 A368     		ldr	r3, [r4, #8]
 390 0012 6B40     		eors	r3, r3, r5
 391 0014 A360     		str	r3, [r4, #8]
ARM GAS  C:\Users\164\AppData\Local\Temp\ccCxylSa.s 			page 15


 392 0016 38BD     		pop	{r3, r4, r5, pc}
 393              		.cfi_endproc
 394              	.LFE86:
 395              		.size	c_fixnum_xor, .-c_fixnum_xor
 396              		.section	.text.c_fixnum_or,"ax",%progbits
 397              		.align	2
 398              		.thumb
 399              		.thumb_func
 400              		.type	c_fixnum_or, %function
 401              	c_fixnum_or:
 402              	.LFB85:
 101:..\..\mruby_c2\Design01.cydsn/c_numeric.c ****   int32_t num = GET_INT_ARG(1);
 403              		.loc 1 101 0
 404              		.cfi_startproc
 405              		@ args = 0, pretend = 0, frame = 0
 406              		@ frame_needed = 0, uses_anonymous_args = 0
 407              	.LVL52:
 408 0000 38B5     		push	{r3, r4, r5, lr}
 409              		.cfi_def_cfa_offset 16
 410              		.cfi_offset 3, -16
 411              		.cfi_offset 4, -12
 412              		.cfi_offset 5, -8
 413              		.cfi_offset 14, -4
 414 0002 0C46     		mov	r4, r1
 102:..\..\mruby_c2\Design01.cydsn/c_numeric.c ****   SET_INT_RETURN(v->i | num);
 415              		.loc 1 102 0
 416 0004 8D69     		ldr	r5, [r1, #24]
 417              	.LVL53:
 103:..\..\mruby_c2\Design01.cydsn/c_numeric.c **** }
 418              		.loc 1 103 0
 419 0006 0846     		mov	r0, r1
 420              	.LVL54:
 421 0008 FFF7FEFF 		bl	mrbc_release
 422              	.LVL55:
 423 000c 0423     		movs	r3, #4
 424 000e 2370     		strb	r3, [r4]
 425 0010 A368     		ldr	r3, [r4, #8]
 426 0012 2B43     		orrs	r3, r3, r5
 427 0014 A360     		str	r3, [r4, #8]
 428 0016 38BD     		pop	{r3, r4, r5, pc}
 429              		.cfi_endproc
 430              	.LFE85:
 431              		.size	c_fixnum_or, .-c_fixnum_or
 432              		.section	.text.c_fixnum_and,"ax",%progbits
 433              		.align	2
 434              		.thumb
 435              		.thumb_func
 436              		.type	c_fixnum_and, %function
 437              	c_fixnum_and:
 438              	.LFB84:
  91:..\..\mruby_c2\Design01.cydsn/c_numeric.c ****   int32_t num = GET_INT_ARG(1);
 439              		.loc 1 91 0
 440              		.cfi_startproc
 441              		@ args = 0, pretend = 0, frame = 0
 442              		@ frame_needed = 0, uses_anonymous_args = 0
 443              	.LVL56:
 444 0000 38B5     		push	{r3, r4, r5, lr}
ARM GAS  C:\Users\164\AppData\Local\Temp\ccCxylSa.s 			page 16


 445              		.cfi_def_cfa_offset 16
 446              		.cfi_offset 3, -16
 447              		.cfi_offset 4, -12
 448              		.cfi_offset 5, -8
 449              		.cfi_offset 14, -4
 450 0002 0C46     		mov	r4, r1
  92:..\..\mruby_c2\Design01.cydsn/c_numeric.c ****   SET_INT_RETURN(v->i & num);
 451              		.loc 1 92 0
 452 0004 8D69     		ldr	r5, [r1, #24]
 453              	.LVL57:
  93:..\..\mruby_c2\Design01.cydsn/c_numeric.c **** }
 454              		.loc 1 93 0
 455 0006 0846     		mov	r0, r1
 456              	.LVL58:
 457 0008 FFF7FEFF 		bl	mrbc_release
 458              	.LVL59:
 459 000c 0423     		movs	r3, #4
 460 000e 2370     		strb	r3, [r4]
 461 0010 A368     		ldr	r3, [r4, #8]
 462 0012 2B40     		ands	r3, r3, r5
 463 0014 A360     		str	r3, [r4, #8]
 464 0016 38BD     		pop	{r3, r4, r5, pc}
 465              		.cfi_endproc
 466              	.LFE84:
 467              		.size	c_fixnum_and, .-c_fixnum_and
 468              		.section	.text.c_fixnum_mod,"ax",%progbits
 469              		.align	2
 470              		.thumb
 471              		.thumb_func
 472              		.type	c_fixnum_mod, %function
 473              	c_fixnum_mod:
 474              	.LFB83:
  81:..\..\mruby_c2\Design01.cydsn/c_numeric.c ****   int32_t num = GET_INT_ARG(1);
 475              		.loc 1 81 0
 476              		.cfi_startproc
 477              		@ args = 0, pretend = 0, frame = 0
 478              		@ frame_needed = 0, uses_anonymous_args = 0
 479              	.LVL60:
 480 0000 38B5     		push	{r3, r4, r5, lr}
 481              		.cfi_def_cfa_offset 16
 482              		.cfi_offset 3, -16
 483              		.cfi_offset 4, -12
 484              		.cfi_offset 5, -8
 485              		.cfi_offset 14, -4
 486 0002 0C46     		mov	r4, r1
  82:..\..\mruby_c2\Design01.cydsn/c_numeric.c ****   SET_INT_RETURN( v->i % num );
 487              		.loc 1 82 0
 488 0004 8D69     		ldr	r5, [r1, #24]
 489              	.LVL61:
  83:..\..\mruby_c2\Design01.cydsn/c_numeric.c **** }
 490              		.loc 1 83 0
 491 0006 0846     		mov	r0, r1
 492              	.LVL62:
 493 0008 FFF7FEFF 		bl	mrbc_release
 494              	.LVL63:
 495 000c 0423     		movs	r3, #4
 496 000e 2370     		strb	r3, [r4]
ARM GAS  C:\Users\164\AppData\Local\Temp\ccCxylSa.s 			page 17


 497 0010 A268     		ldr	r2, [r4, #8]
 498 0012 92FBF5F3 		sdiv	r3, r2, r5
 499 0016 05FB1323 		mls	r3, r5, r3, r2
 500 001a A360     		str	r3, [r4, #8]
 501 001c 38BD     		pop	{r3, r4, r5, pc}
 502              		.cfi_endproc
 503              	.LFE83:
 504              		.size	c_fixnum_mod, .-c_fixnum_mod
 505 001e 00BF     		.section	.text.c_fixnum_power,"ax",%progbits
 506              		.align	2
 507              		.thumb
 508              		.thumb_func
 509              		.type	c_fixnum_power, %function
 510              	c_fixnum_power:
 511              	.LFB82:
  57:..\..\mruby_c2\Design01.cydsn/c_numeric.c ****   if( v[1].tt == MRB_TT_FIXNUM ) {
 512              		.loc 1 57 0
 513              		.cfi_startproc
 514              		@ args = 0, pretend = 0, frame = 0
 515              		@ frame_needed = 0, uses_anonymous_args = 0
 516              	.LVL64:
 517 0000 38B5     		push	{r3, r4, r5, lr}
 518              		.cfi_def_cfa_offset 16
 519              		.cfi_offset 3, -16
 520              		.cfi_offset 4, -12
 521              		.cfi_offset 5, -8
 522              		.cfi_offset 14, -4
  58:..\..\mruby_c2\Design01.cydsn/c_numeric.c ****     int32_t x = 1;
 523              		.loc 1 58 0
 524 0002 91F91030 		ldrsb	r3, [r1, #16]
 525 0006 042B     		cmp	r3, #4
 526 0008 14D1     		bne	.L30
 527              	.LVL65:
 528              	.LBB10:
  62:..\..\mruby_c2\Design01.cydsn/c_numeric.c ****     for( i = 0; i < v[1].i; i++ ) {
 529              		.loc 1 62 0
 530 000a 8869     		ldr	r0, [r1, #24]
 531              	.LVL66:
 532 000c 0028     		cmp	r0, #0
 533 000e 01DB     		blt	.L35
  59:..\..\mruby_c2\Design01.cydsn/c_numeric.c ****     int i;
 534              		.loc 1 59 0
 535 0010 0124     		movs	r4, #1
 536 0012 00E0     		b	.L32
 537              	.L35:
  62:..\..\mruby_c2\Design01.cydsn/c_numeric.c ****     for( i = 0; i < v[1].i; i++ ) {
 538              		.loc 1 62 0
 539 0014 0024     		movs	r4, #0
 540              	.L32:
  59:..\..\mruby_c2\Design01.cydsn/c_numeric.c ****     int i;
 541              		.loc 1 59 0 discriminator 1
 542 0016 0023     		movs	r3, #0
 543 0018 03E0     		b	.L33
 544              	.LVL67:
 545              	.L34:
  64:..\..\mruby_c2\Design01.cydsn/c_numeric.c ****     }
 546              		.loc 1 64 0 discriminator 3
ARM GAS  C:\Users\164\AppData\Local\Temp\ccCxylSa.s 			page 18


 547 001a 8A68     		ldr	r2, [r1, #8]
 548 001c 02FB04F4 		mul	r4, r2, r4
 549              	.LVL68:
  63:..\..\mruby_c2\Design01.cydsn/c_numeric.c ****       x *= v[0].i;;
 550              		.loc 1 63 0 discriminator 3
 551 0020 0133     		adds	r3, r3, #1
 552              	.LVL69:
 553              	.L33:
  63:..\..\mruby_c2\Design01.cydsn/c_numeric.c ****       x *= v[0].i;;
 554              		.loc 1 63 0 is_stmt 0 discriminator 1
 555 0022 8342     		cmp	r3, r0
 556 0024 F9DB     		blt	.L34
 557 0026 0D46     		mov	r5, r1
  66:..\..\mruby_c2\Design01.cydsn/c_numeric.c ****   }
 558              		.loc 1 66 0 is_stmt 1
 559 0028 0846     		mov	r0, r1
 560 002a FFF7FEFF 		bl	mrbc_release
 561              	.LVL70:
 562 002e 0423     		movs	r3, #4
 563 0030 2B70     		strb	r3, [r5]
 564 0032 AC60     		str	r4, [r5, #8]
 565              	.LVL71:
 566              	.L30:
 567 0034 38BD     		pop	{r3, r4, r5, pc}
 568              	.LBE10:
 569              		.cfi_endproc
 570              	.LFE82:
 571              		.size	c_fixnum_power, .-c_fixnum_power
 572 0036 00BF     		.section	.text.c_fixnum_negative,"ax",%progbits
 573              		.align	2
 574              		.thumb
 575              		.thumb_func
 576              		.type	c_fixnum_negative, %function
 577              	c_fixnum_negative:
 578              	.LFB81:
  47:..\..\mruby_c2\Design01.cydsn/c_numeric.c ****   int32_t num = GET_INT_ARG(0);
 579              		.loc 1 47 0
 580              		.cfi_startproc
 581              		@ args = 0, pretend = 0, frame = 0
 582              		@ frame_needed = 0, uses_anonymous_args = 0
 583              	.LVL72:
 584 0000 38B5     		push	{r3, r4, r5, lr}
 585              		.cfi_def_cfa_offset 16
 586              		.cfi_offset 3, -16
 587              		.cfi_offset 4, -12
 588              		.cfi_offset 5, -8
 589              		.cfi_offset 14, -4
 590 0002 0C46     		mov	r4, r1
  48:..\..\mruby_c2\Design01.cydsn/c_numeric.c ****   SET_INT_RETURN( -num );
 591              		.loc 1 48 0
 592 0004 8D68     		ldr	r5, [r1, #8]
 593              	.LVL73:
  49:..\..\mruby_c2\Design01.cydsn/c_numeric.c **** }
 594              		.loc 1 49 0
 595 0006 0846     		mov	r0, r1
 596              	.LVL74:
 597 0008 FFF7FEFF 		bl	mrbc_release
ARM GAS  C:\Users\164\AppData\Local\Temp\ccCxylSa.s 			page 19


 598              	.LVL75:
 599 000c 0423     		movs	r3, #4
 600 000e 2370     		strb	r3, [r4]
 601 0010 6D42     		negs	r5, r5
 602              	.LVL76:
 603 0012 A560     		str	r5, [r4, #8]
 604 0014 38BD     		pop	{r3, r4, r5, pc}
 605              		.cfi_endproc
 606              	.LFE81:
 607              		.size	c_fixnum_negative, .-c_fixnum_negative
 608 0016 00BF     		.section	.text.c_fixnum_bitref,"ax",%progbits
 609              		.align	2
 610              		.thumb
 611              		.thumb_func
 612              		.type	c_fixnum_bitref, %function
 613              	c_fixnum_bitref:
 614              	.LFB80:
  34:..\..\mruby_c2\Design01.cydsn/c_numeric.c ****   if( 0 <= v[1].i && v[1].i < 32 ) {
 615              		.loc 1 34 0
 616              		.cfi_startproc
 617              		@ args = 0, pretend = 0, frame = 0
 618              		@ frame_needed = 0, uses_anonymous_args = 0
 619              	.LVL77:
 620 0000 10B5     		push	{r4, lr}
 621              		.cfi_def_cfa_offset 8
 622              		.cfi_offset 4, -8
 623              		.cfi_offset 14, -4
 624 0002 0C46     		mov	r4, r1
  35:..\..\mruby_c2\Design01.cydsn/c_numeric.c ****     SET_INT_RETURN( (v[0].i & (1 << v[1].i)) ? 1 : 0 );
 625              		.loc 1 35 0
 626 0004 8B69     		ldr	r3, [r1, #24]
 627 0006 1F2B     		cmp	r3, #31
 628 0008 0ED8     		bhi	.L40
  36:..\..\mruby_c2\Design01.cydsn/c_numeric.c ****   } else {
 629              		.loc 1 36 0
 630 000a 0846     		mov	r0, r1
 631              	.LVL78:
 632 000c FFF7FEFF 		bl	mrbc_release
 633              	.LVL79:
 634 0010 0423     		movs	r3, #4
 635 0012 2370     		strb	r3, [r4]
 636 0014 A268     		ldr	r2, [r4, #8]
 637 0016 A169     		ldr	r1, [r4, #24]
 638 0018 0123     		movs	r3, #1
 639 001a 8B40     		lsls	r3, r3, r1
 640 001c 1A42     		tst	r2, r3
 641 001e 14BF     		ite	ne
 642 0020 0123     		movne	r3, #1
 643 0022 0023     		moveq	r3, #0
 644 0024 A360     		str	r3, [r4, #8]
 645 0026 10BD     		pop	{r4, pc}
 646              	.LVL80:
 647              	.L40:
  38:..\..\mruby_c2\Design01.cydsn/c_numeric.c ****   }
 648              		.loc 1 38 0
 649 0028 0846     		mov	r0, r1
 650              	.LVL81:
ARM GAS  C:\Users\164\AppData\Local\Temp\ccCxylSa.s 			page 20


 651 002a FFF7FEFF 		bl	mrbc_release
 652              	.LVL82:
 653 002e 0423     		movs	r3, #4
 654 0030 2370     		strb	r3, [r4]
 655 0032 0023     		movs	r3, #0
 656 0034 A360     		str	r3, [r4, #8]
 657 0036 10BD     		pop	{r4, pc}
 658              		.cfi_endproc
 659              	.LFE80:
 660              		.size	c_fixnum_bitref, .-c_fixnum_bitref
 661              		.global	__aeabi_d2iz
 662              		.section	.text.c_float_to_i,"ax",%progbits
 663              		.align	2
 664              		.thumb
 665              		.thumb_func
 666              		.type	c_float_to_i, %function
 667              	c_float_to_i:
 668              	.LFB98:
 272:..\..\mruby_c2\Design01.cydsn/c_numeric.c **** #endif
 273:..\..\mruby_c2\Design01.cydsn/c_numeric.c **** 
 274:..\..\mruby_c2\Design01.cydsn/c_numeric.c **** 
 275:..\..\mruby_c2\Design01.cydsn/c_numeric.c **** 
 276:..\..\mruby_c2\Design01.cydsn/c_numeric.c **** void mrbc_init_class_fixnum(mrb_vm *vm)
 277:..\..\mruby_c2\Design01.cydsn/c_numeric.c **** {
 278:..\..\mruby_c2\Design01.cydsn/c_numeric.c ****   // Fixnum
 279:..\..\mruby_c2\Design01.cydsn/c_numeric.c ****   mrbc_class_fixnum = mrbc_define_class(vm, "Fixnum", mrbc_class_object);
 280:..\..\mruby_c2\Design01.cydsn/c_numeric.c **** 
 281:..\..\mruby_c2\Design01.cydsn/c_numeric.c ****   mrbc_define_method(vm, mrbc_class_fixnum, "[]", c_fixnum_bitref);
 282:..\..\mruby_c2\Design01.cydsn/c_numeric.c ****   mrbc_define_method(vm, mrbc_class_fixnum, "-@", c_fixnum_negative);
 283:..\..\mruby_c2\Design01.cydsn/c_numeric.c ****   mrbc_define_method(vm, mrbc_class_fixnum, "**", c_fixnum_power);
 284:..\..\mruby_c2\Design01.cydsn/c_numeric.c ****   mrbc_define_method(vm, mrbc_class_fixnum, "%", c_fixnum_mod);
 285:..\..\mruby_c2\Design01.cydsn/c_numeric.c ****   mrbc_define_method(vm, mrbc_class_fixnum, "&", c_fixnum_and);
 286:..\..\mruby_c2\Design01.cydsn/c_numeric.c ****   mrbc_define_method(vm, mrbc_class_fixnum, "|", c_fixnum_or);
 287:..\..\mruby_c2\Design01.cydsn/c_numeric.c ****   mrbc_define_method(vm, mrbc_class_fixnum, "^", c_fixnum_xor);
 288:..\..\mruby_c2\Design01.cydsn/c_numeric.c ****   mrbc_define_method(vm, mrbc_class_fixnum, "~", c_fixnum_not);
 289:..\..\mruby_c2\Design01.cydsn/c_numeric.c ****   mrbc_define_method(vm, mrbc_class_fixnum, "<<", c_fixnum_lshift);
 290:..\..\mruby_c2\Design01.cydsn/c_numeric.c ****   mrbc_define_method(vm, mrbc_class_fixnum, ">>", c_fixnum_rshift);
 291:..\..\mruby_c2\Design01.cydsn/c_numeric.c ****   mrbc_define_method(vm, mrbc_class_fixnum, "abs", c_fixnum_abs);
 292:..\..\mruby_c2\Design01.cydsn/c_numeric.c ****   mrbc_define_method(vm, mrbc_class_fixnum, "to_i", c_ineffect);
 293:..\..\mruby_c2\Design01.cydsn/c_numeric.c ****   mrbc_define_method(vm, mrbc_class_fixnum, "times", c_fixnum_times);
 294:..\..\mruby_c2\Design01.cydsn/c_numeric.c **** #if MRBC_USE_FLOAT
 295:..\..\mruby_c2\Design01.cydsn/c_numeric.c ****   mrbc_define_method(vm, mrbc_class_fixnum, "to_f", c_fixnum_to_f);
 296:..\..\mruby_c2\Design01.cydsn/c_numeric.c **** #endif
 297:..\..\mruby_c2\Design01.cydsn/c_numeric.c **** #if MRBC_USE_STRING
 298:..\..\mruby_c2\Design01.cydsn/c_numeric.c ****   mrbc_define_method(vm, mrbc_class_fixnum, "chr", c_fixnum_chr);
 299:..\..\mruby_c2\Design01.cydsn/c_numeric.c ****   mrbc_define_method(vm, mrbc_class_fixnum, "to_s", c_fixnum_to_s);
 300:..\..\mruby_c2\Design01.cydsn/c_numeric.c **** #endif
 301:..\..\mruby_c2\Design01.cydsn/c_numeric.c **** }
 302:..\..\mruby_c2\Design01.cydsn/c_numeric.c **** 
 303:..\..\mruby_c2\Design01.cydsn/c_numeric.c **** 
 304:..\..\mruby_c2\Design01.cydsn/c_numeric.c **** // Float
 305:..\..\mruby_c2\Design01.cydsn/c_numeric.c **** #if MRBC_USE_FLOAT
 306:..\..\mruby_c2\Design01.cydsn/c_numeric.c **** 
 307:..\..\mruby_c2\Design01.cydsn/c_numeric.c **** //================================================================
 308:..\..\mruby_c2\Design01.cydsn/c_numeric.c **** /*! (operator) unary -
 309:..\..\mruby_c2\Design01.cydsn/c_numeric.c **** */
 310:..\..\mruby_c2\Design01.cydsn/c_numeric.c **** static void c_float_negative(mrb_vm *vm, mrb_value v[], int argc)
ARM GAS  C:\Users\164\AppData\Local\Temp\ccCxylSa.s 			page 21


 311:..\..\mruby_c2\Design01.cydsn/c_numeric.c **** {
 312:..\..\mruby_c2\Design01.cydsn/c_numeric.c ****   double num = GET_FLOAT_ARG(0);
 313:..\..\mruby_c2\Design01.cydsn/c_numeric.c ****   SET_FLOAT_RETURN( -num );
 314:..\..\mruby_c2\Design01.cydsn/c_numeric.c **** }
 315:..\..\mruby_c2\Design01.cydsn/c_numeric.c **** 
 316:..\..\mruby_c2\Design01.cydsn/c_numeric.c **** 
 317:..\..\mruby_c2\Design01.cydsn/c_numeric.c **** #if MRBC_USE_MATH
 318:..\..\mruby_c2\Design01.cydsn/c_numeric.c **** //================================================================
 319:..\..\mruby_c2\Design01.cydsn/c_numeric.c **** /*! (operator) ** power
 320:..\..\mruby_c2\Design01.cydsn/c_numeric.c ****  */
 321:..\..\mruby_c2\Design01.cydsn/c_numeric.c **** static void c_float_power(mrb_vm *vm, mrb_value v[], int argc)
 322:..\..\mruby_c2\Design01.cydsn/c_numeric.c **** {
 323:..\..\mruby_c2\Design01.cydsn/c_numeric.c ****   double n = 0;
 324:..\..\mruby_c2\Design01.cydsn/c_numeric.c ****   switch( v[1].tt ) {
 325:..\..\mruby_c2\Design01.cydsn/c_numeric.c ****   case MRB_TT_FIXNUM:	n = v[1].i;	break;
 326:..\..\mruby_c2\Design01.cydsn/c_numeric.c ****   case MRB_TT_FLOAT:	n = v[1].d;	break;
 327:..\..\mruby_c2\Design01.cydsn/c_numeric.c ****   default:				break;
 328:..\..\mruby_c2\Design01.cydsn/c_numeric.c ****   }
 329:..\..\mruby_c2\Design01.cydsn/c_numeric.c **** 
 330:..\..\mruby_c2\Design01.cydsn/c_numeric.c ****   SET_FLOAT_RETURN( pow( v[0].d, n ));
 331:..\..\mruby_c2\Design01.cydsn/c_numeric.c **** }
 332:..\..\mruby_c2\Design01.cydsn/c_numeric.c **** #endif
 333:..\..\mruby_c2\Design01.cydsn/c_numeric.c **** 
 334:..\..\mruby_c2\Design01.cydsn/c_numeric.c **** 
 335:..\..\mruby_c2\Design01.cydsn/c_numeric.c **** //================================================================
 336:..\..\mruby_c2\Design01.cydsn/c_numeric.c **** /*! (method) to_i
 337:..\..\mruby_c2\Design01.cydsn/c_numeric.c **** */
 338:..\..\mruby_c2\Design01.cydsn/c_numeric.c **** static void c_float_to_i(mrb_vm *vm, mrb_value v[], int argc)
 339:..\..\mruby_c2\Design01.cydsn/c_numeric.c **** {
 669              		.loc 1 339 0
 670              		.cfi_startproc
 671              		@ args = 0, pretend = 0, frame = 0
 672              		@ frame_needed = 0, uses_anonymous_args = 0
 673              	.LVL83:
 674 0000 38B5     		push	{r3, r4, r5, lr}
 675              		.cfi_def_cfa_offset 16
 676              		.cfi_offset 3, -16
 677              		.cfi_offset 4, -12
 678              		.cfi_offset 5, -8
 679              		.cfi_offset 14, -4
 680 0002 0C46     		mov	r4, r1
 340:..\..\mruby_c2\Design01.cydsn/c_numeric.c ****   int32_t i = (int32_t)GET_FLOAT_ARG(0);
 681              		.loc 1 340 0
 682 0004 D1E90201 		ldrd	r0, [r1, #8]
 683              	.LVL84:
 684 0008 FFF7FEFF 		bl	__aeabi_d2iz
 685              	.LVL85:
 686 000c 0546     		mov	r5, r0
 687              	.LVL86:
 341:..\..\mruby_c2\Design01.cydsn/c_numeric.c ****   SET_INT_RETURN( i );
 688              		.loc 1 341 0
 689 000e 2046     		mov	r0, r4
 690              	.LVL87:
 691 0010 FFF7FEFF 		bl	mrbc_release
 692              	.LVL88:
 693 0014 0423     		movs	r3, #4
 694 0016 2370     		strb	r3, [r4]
ARM GAS  C:\Users\164\AppData\Local\Temp\ccCxylSa.s 			page 22


 695 0018 A560     		str	r5, [r4, #8]
 696 001a 38BD     		pop	{r3, r4, r5, pc}
 697              		.cfi_endproc
 698              	.LFE98:
 699              		.size	c_float_to_i, .-c_float_to_i
 700              		.section	.text.c_float_negative,"ax",%progbits
 701              		.align	2
 702              		.thumb
 703              		.thumb_func
 704              		.type	c_float_negative, %function
 705              	c_float_negative:
 706              	.LFB97:
 311:..\..\mruby_c2\Design01.cydsn/c_numeric.c ****   double num = GET_FLOAT_ARG(0);
 707              		.loc 1 311 0
 708              		.cfi_startproc
 709              		@ args = 0, pretend = 0, frame = 0
 710              		@ frame_needed = 0, uses_anonymous_args = 0
 711              	.LVL89:
 712 0000 70B5     		push	{r4, r5, r6, lr}
 713              		.cfi_def_cfa_offset 16
 714              		.cfi_offset 4, -16
 715              		.cfi_offset 5, -12
 716              		.cfi_offset 6, -8
 717              		.cfi_offset 14, -4
 718 0002 0C46     		mov	r4, r1
 312:..\..\mruby_c2\Design01.cydsn/c_numeric.c ****   SET_FLOAT_RETURN( -num );
 719              		.loc 1 312 0
 720 0004 8E68     		ldr	r6, [r1, #8]
 721 0006 CD68     		ldr	r5, [r1, #12]
 722              	.LVL90:
 313:..\..\mruby_c2\Design01.cydsn/c_numeric.c **** }
 723              		.loc 1 313 0
 724 0008 0846     		mov	r0, r1
 725              	.LVL91:
 726 000a FFF7FEFF 		bl	mrbc_release
 727              	.LVL92:
 728 000e 0523     		movs	r3, #5
 729 0010 2370     		strb	r3, [r4]
 730 0012 3246     		mov	r2, r6
 731 0014 05F10043 		add	r3, r5, #-2147483648
 732 0018 C4E90223 		strd	r2, [r4, #8]
 733 001c 70BD     		pop	{r4, r5, r6, pc}
 734              		.cfi_endproc
 735              	.LFE97:
 736              		.size	c_float_negative, .-c_float_negative
 737 001e 00BF     		.section	.text.c_fixnum_chr,"ax",%progbits
 738              		.align	2
 739              		.thumb
 740              		.thumb_func
 741              		.type	c_fixnum_chr, %function
 742              	c_fixnum_chr:
 743              	.LFB94:
 241:..\..\mruby_c2\Design01.cydsn/c_numeric.c ****   char buf[2] = { GET_INT_ARG(0) };
 744              		.loc 1 241 0
 745              		.cfi_startproc
 746              		@ args = 0, pretend = 0, frame = 24
 747              		@ frame_needed = 0, uses_anonymous_args = 0
ARM GAS  C:\Users\164\AppData\Local\Temp\ccCxylSa.s 			page 23


 748              	.LVL93:
 749 0000 30B5     		push	{r4, r5, lr}
 750              		.cfi_def_cfa_offset 12
 751              		.cfi_offset 4, -12
 752              		.cfi_offset 5, -8
 753              		.cfi_offset 14, -4
 754 0002 87B0     		sub	sp, sp, #28
 755              		.cfi_def_cfa_offset 40
 756 0004 0C46     		mov	r4, r1
 242:..\..\mruby_c2\Design01.cydsn/c_numeric.c **** 
 757              		.loc 1 242 0
 758 0006 0023     		movs	r3, #0
 759 0008 ADF81430 		strh	r3, [sp, #20]	@ movhi
 760 000c 8B68     		ldr	r3, [r1, #8]
 761 000e 8DF81430 		strb	r3, [sp, #20]
 244:..\..\mruby_c2\Design01.cydsn/c_numeric.c ****   SET_RETURN(value);
 762              		.loc 1 244 0
 763 0012 0123     		movs	r3, #1
 764 0014 05AA     		add	r2, sp, #20
 765              	.LVL94:
 766 0016 0146     		mov	r1, r0
 767              	.LVL95:
 768 0018 6846     		mov	r0, sp
 769              	.LVL96:
 770 001a FFF7FEFF 		bl	mrbc_string_new
 771              	.LVL97:
 245:..\..\mruby_c2\Design01.cydsn/c_numeric.c **** }
 772              		.loc 1 245 0
 773 001e 2046     		mov	r0, r4
 774 0020 FFF7FEFF 		bl	mrbc_release
 775              	.LVL98:
 776 0024 9DE80F00 		ldmia	sp, {r0, r1, r2, r3}
 777 0028 84E80F00 		stmia	r4, {r0, r1, r2, r3}
 246:..\..\mruby_c2\Design01.cydsn/c_numeric.c **** 
 778              		.loc 1 246 0
 779 002c 07B0     		add	sp, sp, #28
 780              		.cfi_def_cfa_offset 12
 781              		@ sp needed
 782 002e 30BD     		pop	{r4, r5, pc}
 783              		.cfi_endproc
 784              	.LFE94:
 785              		.size	c_fixnum_chr, .-c_fixnum_chr
 786              		.section	.text.c_fixnum_times,"ax",%progbits
 787              		.align	2
 788              		.thumb
 789              		.thumb_func
 790              		.type	c_fixnum_times, %function
 791              	c_fixnum_times:
 792              	.LFB93:
 191:..\..\mruby_c2\Design01.cydsn/c_numeric.c ****   uint32_t code[2] = {
 793              		.loc 1 191 0
 794              		.cfi_startproc
 795              		@ args = 0, pretend = 0, frame = 40
 796              		@ frame_needed = 0, uses_anonymous_args = 0
 797              	.LVL99:
 798 0000 F0B5     		push	{r4, r5, r6, r7, lr}
 799              		.cfi_def_cfa_offset 20
ARM GAS  C:\Users\164\AppData\Local\Temp\ccCxylSa.s 			page 24


 800              		.cfi_offset 4, -20
 801              		.cfi_offset 5, -16
 802              		.cfi_offset 6, -12
 803              		.cfi_offset 7, -8
 804              		.cfi_offset 14, -4
 805 0002 8BB0     		sub	sp, sp, #44
 806              		.cfi_def_cfa_offset 64
 807 0004 0546     		mov	r5, r0
 808 0006 0E46     		mov	r6, r1
 193:..\..\mruby_c2\Design01.cydsn/c_numeric.c ****     MKOPCODE(OP_ABORT)
 809              		.loc 1 193 0
 810 0008 5200     		lsls	r2, r2, #1
 811              	.LVL100:
 812 000a 02F4FF72 		and	r2, r2, #510
 813 000e 42F00C52 		orr	r2, r2, #587202560
 192:..\..\mruby_c2\Design01.cydsn/c_numeric.c ****     MKOPCODE(OP_CALL) | MKARG_A(argc),
 814              		.loc 1 192 0
 815 0012 0892     		str	r2, [sp, #32]
 816 0014 4FF0A043 		mov	r3, #1342177280
 817 0018 0993     		str	r3, [sp, #36]
 196:..\..\mruby_c2\Design01.cydsn/c_numeric.c ****     0,     // nlocals
 818              		.loc 1 196 0
 819 001a 0024     		movs	r4, #0
 820 001c ADF80440 		strh	r4, [sp, #4]	@ movhi
 821 0020 ADF80640 		strh	r4, [sp, #6]	@ movhi
 822 0024 ADF80840 		strh	r4, [sp, #8]	@ movhi
 823 0028 0223     		movs	r3, #2
 824 002a ADF80A30 		strh	r3, [sp, #10]	@ movhi
 825 002e ADF80C40 		strh	r4, [sp, #12]	@ movhi
 826 0032 08AB     		add	r3, sp, #32
 827 0034 0493     		str	r3, [sp, #16]
 828 0036 0594     		str	r4, [sp, #20]
 829 0038 0694     		str	r4, [sp, #24]
 830 003a 0794     		str	r4, [sp, #28]
 209:..\..\mruby_c2\Design01.cydsn/c_numeric.c **** 
 831              		.loc 1 209 0
 832 003c 8F68     		ldr	r7, [r1, #8]
 833              	.LVL101:
 211:..\..\mruby_c2\Design01.cydsn/c_numeric.c **** 
 834              		.loc 1 211 0
 835 003e 2146     		mov	r1, r4
 836              	.LVL102:
 837 0040 FFF7FEFF 		bl	mrbc_push_callinfo
 838              	.LVL103:
 214:..\..\mruby_c2\Design01.cydsn/c_numeric.c **** 
 839              		.loc 1 214 0
 840 0044 05F11803 		add	r3, r5, #24
 841 0048 F31A     		subs	r3, r6, r3
 842 004a 1033     		adds	r3, r3, #16
 843 004c D5F85826 		ldr	r2, [r5, #1624]
 844 0050 1344     		add	r3, r3, r2
 845 0052 C5F85836 		str	r3, [r5, #1624]
 846              	.LVL104:
 217:..\..\mruby_c2\Design01.cydsn/c_numeric.c ****     // set index
 847              		.loc 1 217 0
 848 0056 0FE0     		b	.L50
 849              	.LVL105:
ARM GAS  C:\Users\164\AppData\Local\Temp\ccCxylSa.s 			page 25


 850              	.L51:
 219:..\..\mruby_c2\Design01.cydsn/c_numeric.c ****     v[2].tt = MRB_TT_FIXNUM;
 851              		.loc 1 219 0 discriminator 3
 852 0058 06F12000 		add	r0, r6, #32
 853 005c FFF7FEFF 		bl	mrbc_release
 854              	.LVL106:
 220:..\..\mruby_c2\Design01.cydsn/c_numeric.c ****     v[2].i = i;
 855              		.loc 1 220 0 discriminator 3
 856 0060 0423     		movs	r3, #4
 857 0062 86F82030 		strb	r3, [r6, #32]
 221:..\..\mruby_c2\Design01.cydsn/c_numeric.c **** 
 858              		.loc 1 221 0 discriminator 3
 859 0066 B462     		str	r4, [r6, #40]
 224:..\..\mruby_c2\Design01.cydsn/c_numeric.c ****     vm->pc_irep = &irep;
 860              		.loc 1 224 0 discriminator 3
 861 0068 0023     		movs	r3, #0
 862 006a 2B82     		strh	r3, [r5, #16]	@ movhi
 225:..\..\mruby_c2\Design01.cydsn/c_numeric.c **** 
 863              		.loc 1 225 0 discriminator 3
 864 006c 01AB     		add	r3, sp, #4
 865 006e EB60     		str	r3, [r5, #12]
 228:..\..\mruby_c2\Design01.cydsn/c_numeric.c ****   }
 866              		.loc 1 228 0 discriminator 3
 867 0070 2846     		mov	r0, r5
 868 0072 FFF7FEFF 		bl	mrbc_vm_run
 869              	.LVL107:
 217:..\..\mruby_c2\Design01.cydsn/c_numeric.c ****     // set index
 870              		.loc 1 217 0 discriminator 3
 871 0076 0134     		adds	r4, r4, #1
 872              	.LVL108:
 873              	.L50:
 217:..\..\mruby_c2\Design01.cydsn/c_numeric.c ****     // set index
 874              		.loc 1 217 0 is_stmt 0 discriminator 1
 875 0078 BC42     		cmp	r4, r7
 876 007a EDDB     		blt	.L51
 231:..\..\mruby_c2\Design01.cydsn/c_numeric.c **** }
 877              		.loc 1 231 0 is_stmt 1
 878 007c 2846     		mov	r0, r5
 879 007e FFF7FEFF 		bl	mrbc_pop_callinfo
 880              	.LVL109:
 232:..\..\mruby_c2\Design01.cydsn/c_numeric.c **** 
 881              		.loc 1 232 0
 882 0082 0BB0     		add	sp, sp, #44
 883              		.cfi_def_cfa_offset 20
 884              		@ sp needed
 885 0084 F0BD     		pop	{r4, r5, r6, r7, pc}
 886              		.cfi_endproc
 887              	.LFE93:
 888              		.size	c_fixnum_times, .-c_fixnum_times
 889 0086 00BF     		.section	.text.c_float_to_s,"ax",%progbits
 890              		.align	2
 891              		.thumb
 892              		.thumb_func
 893              		.type	c_float_to_s, %function
 894              	c_float_to_s:
 895              	.LFB99:
 342:..\..\mruby_c2\Design01.cydsn/c_numeric.c **** }
ARM GAS  C:\Users\164\AppData\Local\Temp\ccCxylSa.s 			page 26


 343:..\..\mruby_c2\Design01.cydsn/c_numeric.c **** 
 344:..\..\mruby_c2\Design01.cydsn/c_numeric.c **** 
 345:..\..\mruby_c2\Design01.cydsn/c_numeric.c **** #if MRBC_USE_STRING
 346:..\..\mruby_c2\Design01.cydsn/c_numeric.c **** //================================================================
 347:..\..\mruby_c2\Design01.cydsn/c_numeric.c **** /*! (method) to_s
 348:..\..\mruby_c2\Design01.cydsn/c_numeric.c **** */
 349:..\..\mruby_c2\Design01.cydsn/c_numeric.c **** static void c_float_to_s(mrb_vm *vm, mrb_value v[], int argc)
 350:..\..\mruby_c2\Design01.cydsn/c_numeric.c **** {
 896              		.loc 1 350 0
 897              		.cfi_startproc
 898              		@ args = 0, pretend = 0, frame = 32
 899              		@ frame_needed = 0, uses_anonymous_args = 0
 900              	.LVL110:
 901 0000 70B5     		push	{r4, r5, r6, lr}
 902              		.cfi_def_cfa_offset 16
 903              		.cfi_offset 4, -16
 904              		.cfi_offset 5, -12
 905              		.cfi_offset 6, -8
 906              		.cfi_offset 14, -4
 907 0002 8AB0     		sub	sp, sp, #40
 908              		.cfi_def_cfa_offset 56
 909 0004 0646     		mov	r6, r0
 910 0006 0C46     		mov	r4, r1
 351:..\..\mruby_c2\Design01.cydsn/c_numeric.c ****   char buf[16];
 352:..\..\mruby_c2\Design01.cydsn/c_numeric.c **** 
 353:..\..\mruby_c2\Design01.cydsn/c_numeric.c ****   snprintf( buf, sizeof(buf), "%g", v->d );
 911              		.loc 1 353 0
 912 0008 D1E90223 		ldrd	r2, [r1, #8]
 913              	.LVL111:
 914 000c CDE90023 		strd	r2, [sp]
 915 0010 094A     		ldr	r2, .L55
 916 0012 1021     		movs	r1, #16
 917              	.LVL112:
 918 0014 06A8     		add	r0, sp, #24
 919              	.LVL113:
 920 0016 FFF7FEFF 		bl	snprintf
 921              	.LVL114:
 354:..\..\mruby_c2\Design01.cydsn/c_numeric.c ****   mrb_value value = mrbc_string_new_cstr(vm, buf);
 922              		.loc 1 354 0
 923 001a 02AD     		add	r5, sp, #8
 924 001c 06AA     		add	r2, sp, #24
 925 001e 3146     		mov	r1, r6
 926 0020 2846     		mov	r0, r5
 927 0022 FFF7FEFF 		bl	mrbc_string_new_cstr
 928              	.LVL115:
 355:..\..\mruby_c2\Design01.cydsn/c_numeric.c ****   SET_RETURN(value);
 929              		.loc 1 355 0
 930 0026 2046     		mov	r0, r4
 931 0028 FFF7FEFF 		bl	mrbc_release
 932              	.LVL116:
 933 002c 95E80F00 		ldmia	r5, {r0, r1, r2, r3}
 934 0030 84E80F00 		stmia	r4, {r0, r1, r2, r3}
 356:..\..\mruby_c2\Design01.cydsn/c_numeric.c **** }
 935              		.loc 1 356 0
 936 0034 0AB0     		add	sp, sp, #40
 937              		.cfi_def_cfa_offset 16
 938              		@ sp needed
ARM GAS  C:\Users\164\AppData\Local\Temp\ccCxylSa.s 			page 27


 939 0036 70BD     		pop	{r4, r5, r6, pc}
 940              	.LVL117:
 941              	.L56:
 942              		.align	2
 943              	.L55:
 944 0038 00000000 		.word	.LC0
 945              		.cfi_endproc
 946              	.LFE99:
 947              		.size	c_float_to_s, .-c_float_to_s
 948              		.section	.text.mrbc_init_class_fixnum,"ax",%progbits
 949              		.align	2
 950              		.global	mrbc_init_class_fixnum
 951              		.thumb
 952              		.thumb_func
 953              		.type	mrbc_init_class_fixnum, %function
 954              	mrbc_init_class_fixnum:
 955              	.LFB96:
 277:..\..\mruby_c2\Design01.cydsn/c_numeric.c ****   // Fixnum
 956              		.loc 1 277 0
 957              		.cfi_startproc
 958              		@ args = 0, pretend = 0, frame = 0
 959              		@ frame_needed = 0, uses_anonymous_args = 0
 960              	.LVL118:
 961 0000 38B5     		push	{r3, r4, r5, lr}
 962              		.cfi_def_cfa_offset 16
 963              		.cfi_offset 3, -16
 964              		.cfi_offset 4, -12
 965              		.cfi_offset 5, -8
 966              		.cfi_offset 14, -4
 967 0002 0446     		mov	r4, r0
 279:..\..\mruby_c2\Design01.cydsn/c_numeric.c **** 
 968              		.loc 1 279 0
 969 0004 334B     		ldr	r3, .L59
 970 0006 1A68     		ldr	r2, [r3]
 971 0008 3349     		ldr	r1, .L59+4
 972 000a FFF7FEFF 		bl	mrbc_define_class
 973              	.LVL119:
 974 000e 0146     		mov	r1, r0
 975 0010 324D     		ldr	r5, .L59+8
 976 0012 2860     		str	r0, [r5]
 281:..\..\mruby_c2\Design01.cydsn/c_numeric.c ****   mrbc_define_method(vm, mrbc_class_fixnum, "-@", c_fixnum_negative);
 977              		.loc 1 281 0
 978 0014 324B     		ldr	r3, .L59+12
 979 0016 334A     		ldr	r2, .L59+16
 980 0018 2046     		mov	r0, r4
 981 001a FFF7FEFF 		bl	mrbc_define_method
 982              	.LVL120:
 282:..\..\mruby_c2\Design01.cydsn/c_numeric.c ****   mrbc_define_method(vm, mrbc_class_fixnum, "**", c_fixnum_power);
 983              		.loc 1 282 0
 984 001e 324B     		ldr	r3, .L59+20
 985 0020 324A     		ldr	r2, .L59+24
 986 0022 2968     		ldr	r1, [r5]
 987 0024 2046     		mov	r0, r4
 988 0026 FFF7FEFF 		bl	mrbc_define_method
 989              	.LVL121:
 283:..\..\mruby_c2\Design01.cydsn/c_numeric.c ****   mrbc_define_method(vm, mrbc_class_fixnum, "%", c_fixnum_mod);
 990              		.loc 1 283 0
ARM GAS  C:\Users\164\AppData\Local\Temp\ccCxylSa.s 			page 28


 991 002a 314B     		ldr	r3, .L59+28
 992 002c 314A     		ldr	r2, .L59+32
 993 002e 2968     		ldr	r1, [r5]
 994 0030 2046     		mov	r0, r4
 995 0032 FFF7FEFF 		bl	mrbc_define_method
 996              	.LVL122:
 284:..\..\mruby_c2\Design01.cydsn/c_numeric.c ****   mrbc_define_method(vm, mrbc_class_fixnum, "&", c_fixnum_and);
 997              		.loc 1 284 0
 998 0036 304B     		ldr	r3, .L59+36
 999 0038 304A     		ldr	r2, .L59+40
 1000 003a 2968     		ldr	r1, [r5]
 1001 003c 2046     		mov	r0, r4
 1002 003e FFF7FEFF 		bl	mrbc_define_method
 1003              	.LVL123:
 285:..\..\mruby_c2\Design01.cydsn/c_numeric.c ****   mrbc_define_method(vm, mrbc_class_fixnum, "|", c_fixnum_or);
 1004              		.loc 1 285 0
 1005 0042 2F4B     		ldr	r3, .L59+44
 1006 0044 2F4A     		ldr	r2, .L59+48
 1007 0046 2968     		ldr	r1, [r5]
 1008 0048 2046     		mov	r0, r4
 1009 004a FFF7FEFF 		bl	mrbc_define_method
 1010              	.LVL124:
 286:..\..\mruby_c2\Design01.cydsn/c_numeric.c ****   mrbc_define_method(vm, mrbc_class_fixnum, "^", c_fixnum_xor);
 1011              		.loc 1 286 0
 1012 004e 2E4B     		ldr	r3, .L59+52
 1013 0050 2E4A     		ldr	r2, .L59+56
 1014 0052 2968     		ldr	r1, [r5]
 1015 0054 2046     		mov	r0, r4
 1016 0056 FFF7FEFF 		bl	mrbc_define_method
 1017              	.LVL125:
 287:..\..\mruby_c2\Design01.cydsn/c_numeric.c ****   mrbc_define_method(vm, mrbc_class_fixnum, "~", c_fixnum_not);
 1018              		.loc 1 287 0
 1019 005a 2D4B     		ldr	r3, .L59+60
 1020 005c 2D4A     		ldr	r2, .L59+64
 1021 005e 2968     		ldr	r1, [r5]
 1022 0060 2046     		mov	r0, r4
 1023 0062 FFF7FEFF 		bl	mrbc_define_method
 1024              	.LVL126:
 288:..\..\mruby_c2\Design01.cydsn/c_numeric.c ****   mrbc_define_method(vm, mrbc_class_fixnum, "<<", c_fixnum_lshift);
 1025              		.loc 1 288 0
 1026 0066 2C4B     		ldr	r3, .L59+68
 1027 0068 2C4A     		ldr	r2, .L59+72
 1028 006a 2968     		ldr	r1, [r5]
 1029 006c 2046     		mov	r0, r4
 1030 006e FFF7FEFF 		bl	mrbc_define_method
 1031              	.LVL127:
 289:..\..\mruby_c2\Design01.cydsn/c_numeric.c ****   mrbc_define_method(vm, mrbc_class_fixnum, ">>", c_fixnum_rshift);
 1032              		.loc 1 289 0
 1033 0072 2B4B     		ldr	r3, .L59+76
 1034 0074 2B4A     		ldr	r2, .L59+80
 1035 0076 2968     		ldr	r1, [r5]
 1036 0078 2046     		mov	r0, r4
 1037 007a FFF7FEFF 		bl	mrbc_define_method
 1038              	.LVL128:
 290:..\..\mruby_c2\Design01.cydsn/c_numeric.c ****   mrbc_define_method(vm, mrbc_class_fixnum, "abs", c_fixnum_abs);
 1039              		.loc 1 290 0
 1040 007e 2A4B     		ldr	r3, .L59+84
ARM GAS  C:\Users\164\AppData\Local\Temp\ccCxylSa.s 			page 29


 1041 0080 2A4A     		ldr	r2, .L59+88
 1042 0082 2968     		ldr	r1, [r5]
 1043 0084 2046     		mov	r0, r4
 1044 0086 FFF7FEFF 		bl	mrbc_define_method
 1045              	.LVL129:
 291:..\..\mruby_c2\Design01.cydsn/c_numeric.c ****   mrbc_define_method(vm, mrbc_class_fixnum, "to_i", c_ineffect);
 1046              		.loc 1 291 0
 1047 008a 294B     		ldr	r3, .L59+92
 1048 008c 294A     		ldr	r2, .L59+96
 1049 008e 2968     		ldr	r1, [r5]
 1050 0090 2046     		mov	r0, r4
 1051 0092 FFF7FEFF 		bl	mrbc_define_method
 1052              	.LVL130:
 292:..\..\mruby_c2\Design01.cydsn/c_numeric.c ****   mrbc_define_method(vm, mrbc_class_fixnum, "times", c_fixnum_times);
 1053              		.loc 1 292 0
 1054 0096 284B     		ldr	r3, .L59+100
 1055 0098 284A     		ldr	r2, .L59+104
 1056 009a 2968     		ldr	r1, [r5]
 1057 009c 2046     		mov	r0, r4
 1058 009e FFF7FEFF 		bl	mrbc_define_method
 1059              	.LVL131:
 293:..\..\mruby_c2\Design01.cydsn/c_numeric.c **** #if MRBC_USE_FLOAT
 1060              		.loc 1 293 0
 1061 00a2 274B     		ldr	r3, .L59+108
 1062 00a4 274A     		ldr	r2, .L59+112
 1063 00a6 2968     		ldr	r1, [r5]
 1064 00a8 2046     		mov	r0, r4
 1065 00aa FFF7FEFF 		bl	mrbc_define_method
 1066              	.LVL132:
 295:..\..\mruby_c2\Design01.cydsn/c_numeric.c **** #endif
 1067              		.loc 1 295 0
 1068 00ae 264B     		ldr	r3, .L59+116
 1069 00b0 264A     		ldr	r2, .L59+120
 1070 00b2 2968     		ldr	r1, [r5]
 1071 00b4 2046     		mov	r0, r4
 1072 00b6 FFF7FEFF 		bl	mrbc_define_method
 1073              	.LVL133:
 298:..\..\mruby_c2\Design01.cydsn/c_numeric.c ****   mrbc_define_method(vm, mrbc_class_fixnum, "to_s", c_fixnum_to_s);
 1074              		.loc 1 298 0
 1075 00ba 254B     		ldr	r3, .L59+124
 1076 00bc 254A     		ldr	r2, .L59+128
 1077 00be 2968     		ldr	r1, [r5]
 1078 00c0 2046     		mov	r0, r4
 1079 00c2 FFF7FEFF 		bl	mrbc_define_method
 1080              	.LVL134:
 299:..\..\mruby_c2\Design01.cydsn/c_numeric.c **** #endif
 1081              		.loc 1 299 0
 1082 00c6 244B     		ldr	r3, .L59+132
 1083 00c8 244A     		ldr	r2, .L59+136
 1084 00ca 2968     		ldr	r1, [r5]
 1085 00cc 2046     		mov	r0, r4
 1086 00ce FFF7FEFF 		bl	mrbc_define_method
 1087              	.LVL135:
 1088 00d2 38BD     		pop	{r3, r4, r5, pc}
 1089              	.LVL136:
 1090              	.L60:
 1091              		.align	2
ARM GAS  C:\Users\164\AppData\Local\Temp\ccCxylSa.s 			page 30


 1092              	.L59:
 1093 00d4 00000000 		.word	mrbc_class_object
 1094 00d8 04000000 		.word	.LC1
 1095 00dc 00000000 		.word	mrbc_class_fixnum
 1096 00e0 00000000 		.word	c_fixnum_bitref
 1097 00e4 0C000000 		.word	.LC2
 1098 00e8 00000000 		.word	c_fixnum_negative
 1099 00ec 10000000 		.word	.LC3
 1100 00f0 00000000 		.word	c_fixnum_power
 1101 00f4 14000000 		.word	.LC4
 1102 00f8 00000000 		.word	c_fixnum_mod
 1103 00fc 18000000 		.word	.LC5
 1104 0100 00000000 		.word	c_fixnum_and
 1105 0104 1C000000 		.word	.LC6
 1106 0108 00000000 		.word	c_fixnum_or
 1107 010c 20000000 		.word	.LC7
 1108 0110 00000000 		.word	c_fixnum_xor
 1109 0114 24000000 		.word	.LC8
 1110 0118 00000000 		.word	c_fixnum_not
 1111 011c 28000000 		.word	.LC9
 1112 0120 00000000 		.word	c_fixnum_lshift
 1113 0124 2C000000 		.word	.LC10
 1114 0128 00000000 		.word	c_fixnum_rshift
 1115 012c 30000000 		.word	.LC11
 1116 0130 00000000 		.word	c_fixnum_abs
 1117 0134 34000000 		.word	.LC12
 1118 0138 00000000 		.word	c_ineffect
 1119 013c 38000000 		.word	.LC13
 1120 0140 00000000 		.word	c_fixnum_times
 1121 0144 40000000 		.word	.LC14
 1122 0148 00000000 		.word	c_fixnum_to_f
 1123 014c 48000000 		.word	.LC15
 1124 0150 00000000 		.word	c_fixnum_chr
 1125 0154 50000000 		.word	.LC16
 1126 0158 00000000 		.word	c_fixnum_to_s
 1127 015c 54000000 		.word	.LC17
 1128              		.cfi_endproc
 1129              	.LFE96:
 1130              		.size	mrbc_init_class_fixnum, .-mrbc_init_class_fixnum
 1131              		.section	.text.mrbc_init_class_float,"ax",%progbits
 1132              		.align	2
 1133              		.global	mrbc_init_class_float
 1134              		.thumb
 1135              		.thumb_func
 1136              		.type	mrbc_init_class_float, %function
 1137              	mrbc_init_class_float:
 1138              	.LFB100:
 357:..\..\mruby_c2\Design01.cydsn/c_numeric.c **** #endif
 358:..\..\mruby_c2\Design01.cydsn/c_numeric.c **** 
 359:..\..\mruby_c2\Design01.cydsn/c_numeric.c **** 
 360:..\..\mruby_c2\Design01.cydsn/c_numeric.c **** //================================================================
 361:..\..\mruby_c2\Design01.cydsn/c_numeric.c **** /*! initialize class Float
 362:..\..\mruby_c2\Design01.cydsn/c_numeric.c **** */
 363:..\..\mruby_c2\Design01.cydsn/c_numeric.c **** void mrbc_init_class_float(mrb_vm *vm)
 364:..\..\mruby_c2\Design01.cydsn/c_numeric.c **** {
 1139              		.loc 1 364 0
 1140              		.cfi_startproc
ARM GAS  C:\Users\164\AppData\Local\Temp\ccCxylSa.s 			page 31


 1141              		@ args = 0, pretend = 0, frame = 0
 1142              		@ frame_needed = 0, uses_anonymous_args = 0
 1143              	.LVL137:
 1144 0000 38B5     		push	{r3, r4, r5, lr}
 1145              		.cfi_def_cfa_offset 16
 1146              		.cfi_offset 3, -16
 1147              		.cfi_offset 4, -12
 1148              		.cfi_offset 5, -8
 1149              		.cfi_offset 14, -4
 1150 0002 0446     		mov	r4, r0
 365:..\..\mruby_c2\Design01.cydsn/c_numeric.c ****   // Float
 366:..\..\mruby_c2\Design01.cydsn/c_numeric.c ****   mrbc_class_float = mrbc_define_class(vm, "Float", mrbc_class_object);
 1151              		.loc 1 366 0
 1152 0004 0F4B     		ldr	r3, .L63
 1153 0006 1A68     		ldr	r2, [r3]
 1154 0008 0F49     		ldr	r1, .L63+4
 1155 000a FFF7FEFF 		bl	mrbc_define_class
 1156              	.LVL138:
 1157 000e 0146     		mov	r1, r0
 1158 0010 0E4D     		ldr	r5, .L63+8
 1159 0012 2860     		str	r0, [r5]
 367:..\..\mruby_c2\Design01.cydsn/c_numeric.c **** 
 368:..\..\mruby_c2\Design01.cydsn/c_numeric.c ****   mrbc_define_method(vm, mrbc_class_float, "-@", c_float_negative);
 1160              		.loc 1 368 0
 1161 0014 0E4B     		ldr	r3, .L63+12
 1162 0016 0F4A     		ldr	r2, .L63+16
 1163 0018 2046     		mov	r0, r4
 1164 001a FFF7FEFF 		bl	mrbc_define_method
 1165              	.LVL139:
 369:..\..\mruby_c2\Design01.cydsn/c_numeric.c **** #if MRBC_USE_MATH
 370:..\..\mruby_c2\Design01.cydsn/c_numeric.c ****   mrbc_define_method(vm, mrbc_class_float, "**", c_float_power);
 371:..\..\mruby_c2\Design01.cydsn/c_numeric.c **** #endif
 372:..\..\mruby_c2\Design01.cydsn/c_numeric.c ****   mrbc_define_method(vm, mrbc_class_float, "to_i", c_float_to_i);
 1166              		.loc 1 372 0
 1167 001e 0E4B     		ldr	r3, .L63+20
 1168 0020 0E4A     		ldr	r2, .L63+24
 1169 0022 2968     		ldr	r1, [r5]
 1170 0024 2046     		mov	r0, r4
 1171 0026 FFF7FEFF 		bl	mrbc_define_method
 1172              	.LVL140:
 373:..\..\mruby_c2\Design01.cydsn/c_numeric.c ****   mrbc_define_method(vm, mrbc_class_float, "to_f", c_ineffect);
 1173              		.loc 1 373 0
 1174 002a 0D4B     		ldr	r3, .L63+28
 1175 002c 0D4A     		ldr	r2, .L63+32
 1176 002e 2968     		ldr	r1, [r5]
 1177 0030 2046     		mov	r0, r4
 1178 0032 FFF7FEFF 		bl	mrbc_define_method
 1179              	.LVL141:
 374:..\..\mruby_c2\Design01.cydsn/c_numeric.c **** #if MRBC_USE_STRING
 375:..\..\mruby_c2\Design01.cydsn/c_numeric.c ****   mrbc_define_method(vm, mrbc_class_float, "to_s", c_float_to_s);
 1180              		.loc 1 375 0
 1181 0036 0C4B     		ldr	r3, .L63+36
 1182 0038 0C4A     		ldr	r2, .L63+40
 1183 003a 2968     		ldr	r1, [r5]
 1184 003c 2046     		mov	r0, r4
 1185 003e FFF7FEFF 		bl	mrbc_define_method
 1186              	.LVL142:
ARM GAS  C:\Users\164\AppData\Local\Temp\ccCxylSa.s 			page 32


 1187 0042 38BD     		pop	{r3, r4, r5, pc}
 1188              	.LVL143:
 1189              	.L64:
 1190              		.align	2
 1191              	.L63:
 1192 0044 00000000 		.word	mrbc_class_object
 1193 0048 5C000000 		.word	.LC18
 1194 004c 00000000 		.word	mrbc_class_float
 1195 0050 00000000 		.word	c_float_negative
 1196 0054 10000000 		.word	.LC3
 1197 0058 00000000 		.word	c_float_to_i
 1198 005c 38000000 		.word	.LC13
 1199 0060 00000000 		.word	c_ineffect
 1200 0064 48000000 		.word	.LC15
 1201 0068 00000000 		.word	c_float_to_s
 1202 006c 54000000 		.word	.LC17
 1203              		.cfi_endproc
 1204              	.LFE100:
 1205              		.size	mrbc_init_class_float, .-mrbc_init_class_float
 1206              		.section	.rodata.str1.4,"aMS",%progbits,1
 1207              		.align	2
 1208              	.LC0:
 1209 0000 256700   		.ascii	"%g\000"
 1210 0003 00       		.space	1
 1211              	.LC1:
 1212 0004 4669786E 		.ascii	"Fixnum\000"
 1212      756D00
 1213 000b 00       		.space	1
 1214              	.LC2:
 1215 000c 5B5D00   		.ascii	"[]\000"
 1216 000f 00       		.space	1
 1217              	.LC3:
 1218 0010 2D4000   		.ascii	"-@\000"
 1219 0013 00       		.space	1
 1220              	.LC4:
 1221 0014 2A2A00   		.ascii	"**\000"
 1222 0017 00       		.space	1
 1223              	.LC5:
 1224 0018 2500     		.ascii	"%\000"
 1225 001a 0000     		.space	2
 1226              	.LC6:
 1227 001c 2600     		.ascii	"&\000"
 1228 001e 0000     		.space	2
 1229              	.LC7:
 1230 0020 7C00     		.ascii	"|\000"
 1231 0022 0000     		.space	2
 1232              	.LC8:
 1233 0024 5E00     		.ascii	"^\000"
 1234 0026 0000     		.space	2
 1235              	.LC9:
 1236 0028 7E00     		.ascii	"~\000"
 1237 002a 0000     		.space	2
 1238              	.LC10:
 1239 002c 3C3C00   		.ascii	"<<\000"
 1240 002f 00       		.space	1
 1241              	.LC11:
 1242 0030 3E3E00   		.ascii	">>\000"
ARM GAS  C:\Users\164\AppData\Local\Temp\ccCxylSa.s 			page 33


 1243 0033 00       		.space	1
 1244              	.LC12:
 1245 0034 61627300 		.ascii	"abs\000"
 1246              	.LC13:
 1247 0038 746F5F69 		.ascii	"to_i\000"
 1247      00
 1248 003d 000000   		.space	3
 1249              	.LC14:
 1250 0040 74696D65 		.ascii	"times\000"
 1250      7300
 1251 0046 0000     		.space	2
 1252              	.LC15:
 1253 0048 746F5F66 		.ascii	"to_f\000"
 1253      00
 1254 004d 000000   		.space	3
 1255              	.LC16:
 1256 0050 63687200 		.ascii	"chr\000"
 1257              	.LC17:
 1258 0054 746F5F73 		.ascii	"to_s\000"
 1258      00
 1259 0059 000000   		.space	3
 1260              	.LC18:
 1261 005c 466C6F61 		.ascii	"Float\000"
 1261      7400
 1262              		.text
 1263              	.Letext0:
 1264              		.file 3 "c:\\program files (x86)\\cypress\\psoc creator\\4.2\\psoc creator\\import\\gnu\\arm\\5.4.
 1265              		.file 4 "c:\\program files (x86)\\cypress\\psoc creator\\4.2\\psoc creator\\import\\gnu\\arm\\5.4.
 1266              		.file 5 "..\\..\\mruby_c2\\Design01.cydsn\\value.h"
 1267              		.file 6 "..\\..\\mruby_c2\\Design01.cydsn\\vm.h"
 1268              		.file 7 "..\\..\\mruby_c2\\Design01.cydsn\\c_string.h"
 1269              		.file 8 "..\\..\\mruby_c2\\Design01.cydsn\\static.h"
 1270              		.file 9 "Generated_Source\\PSoC5/core_cm3.h"
 1271              		.file 10 "c:\\program files (x86)\\cypress\\psoc creator\\4.2\\psoc creator\\import\\gnu\\arm\\5.4
 1272              		.file 11 "..\\..\\mruby_c2\\Design01.cydsn\\class.h"
 1273              		.file 12 "..\\..\\mruby_c2\\Design01.cydsn\\opcode.h"