ARM GAS  C:\Users\164\AppData\Local\Temp\ccbPoUtm.s 			page 1


   1              		.syntax unified
   2              		.cpu cortex-m3
   3              		.fpu softvfp
   4              		.eabi_attribute 20, 1
   5              		.eabi_attribute 21, 1
   6              		.eabi_attribute 23, 3
   7              		.eabi_attribute 24, 1
   8              		.eabi_attribute 25, 1
   9              		.eabi_attribute 26, 1
  10              		.eabi_attribute 30, 1
  11              		.eabi_attribute 34, 1
  12              		.eabi_attribute 18, 4
  13              		.thumb
  14              		.syntax unified
  15              		.file	"c_range.c"
  16              		.text
  17              	.Ltext0:
  18              		.cfi_sections	.debug_frame
  19              		.section	.text.c_range_last,"ax",%progbits
  20              		.align	2
  21              		.thumb
  22              		.thumb_func
  23              		.type	c_range_last, %function
  24              	c_range_last:
  25              	.LFB85:
  26              		.file 1 "..\\..\\mruby_c2\\Design01.cydsn\\c_range.c"
   1:..\..\mruby_c2\Design01.cydsn/c_range.c **** /*! @file
   2:..\..\mruby_c2\Design01.cydsn/c_range.c ****   @brief
   3:..\..\mruby_c2\Design01.cydsn/c_range.c ****   mruby/c Range object
   4:..\..\mruby_c2\Design01.cydsn/c_range.c **** 
   5:..\..\mruby_c2\Design01.cydsn/c_range.c ****   <pre>
   6:..\..\mruby_c2\Design01.cydsn/c_range.c ****   Copyright (C) 2015-2018 Kyushu Institute of Technology.
   7:..\..\mruby_c2\Design01.cydsn/c_range.c ****   Copyright (C) 2015-2018 Shimane IT Open-Innovation Center.
   8:..\..\mruby_c2\Design01.cydsn/c_range.c **** 
   9:..\..\mruby_c2\Design01.cydsn/c_range.c ****   This file is distributed under BSD 3-Clause License.
  10:..\..\mruby_c2\Design01.cydsn/c_range.c **** 
  11:..\..\mruby_c2\Design01.cydsn/c_range.c ****   </pre>
  12:..\..\mruby_c2\Design01.cydsn/c_range.c **** */
  13:..\..\mruby_c2\Design01.cydsn/c_range.c **** 
  14:..\..\mruby_c2\Design01.cydsn/c_range.c **** #include "vm_config.h"
  15:..\..\mruby_c2\Design01.cydsn/c_range.c **** #include "value.h"
  16:..\..\mruby_c2\Design01.cydsn/c_range.c **** #include "alloc.h"
  17:..\..\mruby_c2\Design01.cydsn/c_range.c **** #include "static.h"
  18:..\..\mruby_c2\Design01.cydsn/c_range.c **** #include "class.h"
  19:..\..\mruby_c2\Design01.cydsn/c_range.c **** #include "c_range.h"
  20:..\..\mruby_c2\Design01.cydsn/c_range.c **** #include "console.h"
  21:..\..\mruby_c2\Design01.cydsn/c_range.c **** #include "opcode.h"
  22:..\..\mruby_c2\Design01.cydsn/c_range.c **** 
  23:..\..\mruby_c2\Design01.cydsn/c_range.c **** 
  24:..\..\mruby_c2\Design01.cydsn/c_range.c **** //================================================================
  25:..\..\mruby_c2\Design01.cydsn/c_range.c **** /*! constructor
  26:..\..\mruby_c2\Design01.cydsn/c_range.c **** 
  27:..\..\mruby_c2\Design01.cydsn/c_range.c ****   @param  vm		pointer to VM.
  28:..\..\mruby_c2\Design01.cydsn/c_range.c ****   @param  first		pointer to first value.
  29:..\..\mruby_c2\Design01.cydsn/c_range.c ****   @param  last		pointer to last value.
  30:..\..\mruby_c2\Design01.cydsn/c_range.c ****   @param  flag_exclude	true: exclude the end object, otherwise include.
  31:..\..\mruby_c2\Design01.cydsn/c_range.c ****   @return		range object.
ARM GAS  C:\Users\164\AppData\Local\Temp\ccbPoUtm.s 			page 2


  32:..\..\mruby_c2\Design01.cydsn/c_range.c **** */
  33:..\..\mruby_c2\Design01.cydsn/c_range.c **** mrb_value mrbc_range_new( struct VM *vm, mrb_value *first, mrb_value *last, int flag_exclude)
  34:..\..\mruby_c2\Design01.cydsn/c_range.c **** {
  35:..\..\mruby_c2\Design01.cydsn/c_range.c ****   mrb_value value = {.tt = MRB_TT_RANGE};
  36:..\..\mruby_c2\Design01.cydsn/c_range.c **** 
  37:..\..\mruby_c2\Design01.cydsn/c_range.c ****   value.range = mrbc_alloc(vm, sizeof(mrb_range));
  38:..\..\mruby_c2\Design01.cydsn/c_range.c ****   if( !value.range ) return value;		// ENOMEM
  39:..\..\mruby_c2\Design01.cydsn/c_range.c **** 
  40:..\..\mruby_c2\Design01.cydsn/c_range.c ****   value.range->ref_count = 1;
  41:..\..\mruby_c2\Design01.cydsn/c_range.c ****   value.range->tt = MRB_TT_STRING;	// TODO: for DEBUG
  42:..\..\mruby_c2\Design01.cydsn/c_range.c ****   value.range->flag_exclude = flag_exclude;
  43:..\..\mruby_c2\Design01.cydsn/c_range.c ****   value.range->first = *first;
  44:..\..\mruby_c2\Design01.cydsn/c_range.c ****   value.range->last = *last;
  45:..\..\mruby_c2\Design01.cydsn/c_range.c **** 
  46:..\..\mruby_c2\Design01.cydsn/c_range.c ****   return value;
  47:..\..\mruby_c2\Design01.cydsn/c_range.c **** }
  48:..\..\mruby_c2\Design01.cydsn/c_range.c **** 
  49:..\..\mruby_c2\Design01.cydsn/c_range.c **** 
  50:..\..\mruby_c2\Design01.cydsn/c_range.c **** //================================================================
  51:..\..\mruby_c2\Design01.cydsn/c_range.c **** /*! destructor
  52:..\..\mruby_c2\Design01.cydsn/c_range.c **** 
  53:..\..\mruby_c2\Design01.cydsn/c_range.c ****   @param  target 	pointer to range object.
  54:..\..\mruby_c2\Design01.cydsn/c_range.c **** */
  55:..\..\mruby_c2\Design01.cydsn/c_range.c **** void mrbc_range_delete(mrb_value *v)
  56:..\..\mruby_c2\Design01.cydsn/c_range.c **** {
  57:..\..\mruby_c2\Design01.cydsn/c_range.c ****   mrbc_release( &v->range->first );
  58:..\..\mruby_c2\Design01.cydsn/c_range.c ****   mrbc_release( &v->range->last );
  59:..\..\mruby_c2\Design01.cydsn/c_range.c **** 
  60:..\..\mruby_c2\Design01.cydsn/c_range.c ****   mrbc_raw_free( v->range );
  61:..\..\mruby_c2\Design01.cydsn/c_range.c **** }
  62:..\..\mruby_c2\Design01.cydsn/c_range.c **** 
  63:..\..\mruby_c2\Design01.cydsn/c_range.c **** 
  64:..\..\mruby_c2\Design01.cydsn/c_range.c **** //================================================================
  65:..\..\mruby_c2\Design01.cydsn/c_range.c **** /*! clear vm_id
  66:..\..\mruby_c2\Design01.cydsn/c_range.c **** */
  67:..\..\mruby_c2\Design01.cydsn/c_range.c **** void mrbc_range_clear_vm_id(mrb_value *v)
  68:..\..\mruby_c2\Design01.cydsn/c_range.c **** {
  69:..\..\mruby_c2\Design01.cydsn/c_range.c ****   mrbc_set_vm_id( v->range, 0 );
  70:..\..\mruby_c2\Design01.cydsn/c_range.c ****   mrbc_clear_vm_id( &v->range->first );
  71:..\..\mruby_c2\Design01.cydsn/c_range.c ****   mrbc_clear_vm_id( &v->range->last );
  72:..\..\mruby_c2\Design01.cydsn/c_range.c **** }
  73:..\..\mruby_c2\Design01.cydsn/c_range.c **** 
  74:..\..\mruby_c2\Design01.cydsn/c_range.c **** 
  75:..\..\mruby_c2\Design01.cydsn/c_range.c **** //================================================================
  76:..\..\mruby_c2\Design01.cydsn/c_range.c **** /*! compare
  77:..\..\mruby_c2\Design01.cydsn/c_range.c **** */
  78:..\..\mruby_c2\Design01.cydsn/c_range.c **** int mrbc_range_compare(const mrb_value *v1, const mrb_value *v2)
  79:..\..\mruby_c2\Design01.cydsn/c_range.c **** {
  80:..\..\mruby_c2\Design01.cydsn/c_range.c ****   int res;
  81:..\..\mruby_c2\Design01.cydsn/c_range.c **** 
  82:..\..\mruby_c2\Design01.cydsn/c_range.c ****   res = mrbc_compare( &v1->range->first, &v2->range->first );
  83:..\..\mruby_c2\Design01.cydsn/c_range.c ****   if( res != 0 ) return res;
  84:..\..\mruby_c2\Design01.cydsn/c_range.c **** 
  85:..\..\mruby_c2\Design01.cydsn/c_range.c ****   res = mrbc_compare( &v1->range->last, &v2->range->last );
  86:..\..\mruby_c2\Design01.cydsn/c_range.c ****   if( res != 0 ) return res;
  87:..\..\mruby_c2\Design01.cydsn/c_range.c **** 
  88:..\..\mruby_c2\Design01.cydsn/c_range.c ****   return (int)v2->range->flag_exclude - (int)v1->range->flag_exclude;
ARM GAS  C:\Users\164\AppData\Local\Temp\ccbPoUtm.s 			page 3


  89:..\..\mruby_c2\Design01.cydsn/c_range.c **** }
  90:..\..\mruby_c2\Design01.cydsn/c_range.c **** 
  91:..\..\mruby_c2\Design01.cydsn/c_range.c **** 
  92:..\..\mruby_c2\Design01.cydsn/c_range.c **** 
  93:..\..\mruby_c2\Design01.cydsn/c_range.c **** //================================================================
  94:..\..\mruby_c2\Design01.cydsn/c_range.c **** /*! (method) ===
  95:..\..\mruby_c2\Design01.cydsn/c_range.c **** */
  96:..\..\mruby_c2\Design01.cydsn/c_range.c **** static void c_range_equal3(mrb_vm *vm, mrb_value v[], int argc)
  97:..\..\mruby_c2\Design01.cydsn/c_range.c **** {
  98:..\..\mruby_c2\Design01.cydsn/c_range.c ****   int result = 0;
  99:..\..\mruby_c2\Design01.cydsn/c_range.c **** 
 100:..\..\mruby_c2\Design01.cydsn/c_range.c ****   mrb_value *v_first = &v[0].range->first;
 101:..\..\mruby_c2\Design01.cydsn/c_range.c ****   mrb_value *v_last =&v[0].range->last;
 102:..\..\mruby_c2\Design01.cydsn/c_range.c ****   mrb_value *v1 = &v[1];
 103:..\..\mruby_c2\Design01.cydsn/c_range.c **** 
 104:..\..\mruby_c2\Design01.cydsn/c_range.c ****   if( v_first->tt == MRB_TT_FIXNUM && v1->tt == MRB_TT_FIXNUM ) {
 105:..\..\mruby_c2\Design01.cydsn/c_range.c ****     if( v->range->flag_exclude ) {
 106:..\..\mruby_c2\Design01.cydsn/c_range.c ****       result = (v_first->i <= v1->i) && (v1->i < v_last->i);
 107:..\..\mruby_c2\Design01.cydsn/c_range.c ****     } else {
 108:..\..\mruby_c2\Design01.cydsn/c_range.c ****       result = (v_first->i <= v1->i) && (v1->i <= v_last->i);
 109:..\..\mruby_c2\Design01.cydsn/c_range.c ****     }
 110:..\..\mruby_c2\Design01.cydsn/c_range.c ****     goto DONE;
 111:..\..\mruby_c2\Design01.cydsn/c_range.c ****   }
 112:..\..\mruby_c2\Design01.cydsn/c_range.c ****   console_printf( "Not supported\n" );
 113:..\..\mruby_c2\Design01.cydsn/c_range.c ****   return;
 114:..\..\mruby_c2\Design01.cydsn/c_range.c **** 
 115:..\..\mruby_c2\Design01.cydsn/c_range.c ****  DONE:
 116:..\..\mruby_c2\Design01.cydsn/c_range.c ****   if( result ) {
 117:..\..\mruby_c2\Design01.cydsn/c_range.c ****     SET_TRUE_RETURN();
 118:..\..\mruby_c2\Design01.cydsn/c_range.c ****   } else {
 119:..\..\mruby_c2\Design01.cydsn/c_range.c ****     SET_FALSE_RETURN();
 120:..\..\mruby_c2\Design01.cydsn/c_range.c ****   }
 121:..\..\mruby_c2\Design01.cydsn/c_range.c **** }
 122:..\..\mruby_c2\Design01.cydsn/c_range.c **** 
 123:..\..\mruby_c2\Design01.cydsn/c_range.c **** 
 124:..\..\mruby_c2\Design01.cydsn/c_range.c **** //================================================================
 125:..\..\mruby_c2\Design01.cydsn/c_range.c **** /*! (method) first
 126:..\..\mruby_c2\Design01.cydsn/c_range.c **** */
 127:..\..\mruby_c2\Design01.cydsn/c_range.c **** static void c_range_first(mrb_vm *vm, mrb_value v[], int argc)
 128:..\..\mruby_c2\Design01.cydsn/c_range.c **** {
 129:..\..\mruby_c2\Design01.cydsn/c_range.c ****   mrb_value ret = mrbc_range_first(v);
 130:..\..\mruby_c2\Design01.cydsn/c_range.c ****   SET_RETURN(ret);
 131:..\..\mruby_c2\Design01.cydsn/c_range.c **** }
 132:..\..\mruby_c2\Design01.cydsn/c_range.c **** 
 133:..\..\mruby_c2\Design01.cydsn/c_range.c **** 
 134:..\..\mruby_c2\Design01.cydsn/c_range.c **** //================================================================
 135:..\..\mruby_c2\Design01.cydsn/c_range.c **** /*! (method) last
 136:..\..\mruby_c2\Design01.cydsn/c_range.c **** */
 137:..\..\mruby_c2\Design01.cydsn/c_range.c **** static void c_range_last(mrb_vm *vm, mrb_value v[], int argc)
 138:..\..\mruby_c2\Design01.cydsn/c_range.c **** {
  27              		.loc 1 138 0
  28              		.cfi_startproc
  29              		@ args = 0, pretend = 0, frame = 16
  30              		@ frame_needed = 0, uses_anonymous_args = 0
  31              	.LVL0:
  32 0000 30B5     		push	{r4, r5, lr}
  33              		.cfi_def_cfa_offset 12
ARM GAS  C:\Users\164\AppData\Local\Temp\ccbPoUtm.s 			page 4


  34              		.cfi_offset 4, -12
  35              		.cfi_offset 5, -8
  36              		.cfi_offset 14, -4
  37 0002 85B0     		sub	sp, sp, #20
  38              		.cfi_def_cfa_offset 32
  39 0004 0D46     		mov	r5, r1
  40              	.LVL1:
  41              	.LBB6:
  42              	.LBB7:
  43              		.file 2 "..\\..\\mruby_c2\\Design01.cydsn\\c_range.h"
   1:..\..\mruby_c2\Design01.cydsn/c_range.h **** /*! @file
   2:..\..\mruby_c2\Design01.cydsn/c_range.h ****   @brief
   3:..\..\mruby_c2\Design01.cydsn/c_range.h ****   mruby/c Range object
   4:..\..\mruby_c2\Design01.cydsn/c_range.h **** 
   5:..\..\mruby_c2\Design01.cydsn/c_range.h ****   <pre>
   6:..\..\mruby_c2\Design01.cydsn/c_range.h ****   Copyright (C) 2015-2018 Kyushu Institute of Technology.
   7:..\..\mruby_c2\Design01.cydsn/c_range.h ****   Copyright (C) 2015-2018 Shimane IT Open-Innovation Center.
   8:..\..\mruby_c2\Design01.cydsn/c_range.h **** 
   9:..\..\mruby_c2\Design01.cydsn/c_range.h ****   This file is distributed under BSD 3-Clause License.
  10:..\..\mruby_c2\Design01.cydsn/c_range.h **** 
  11:..\..\mruby_c2\Design01.cydsn/c_range.h ****   </pre>
  12:..\..\mruby_c2\Design01.cydsn/c_range.h **** */
  13:..\..\mruby_c2\Design01.cydsn/c_range.h **** 
  14:..\..\mruby_c2\Design01.cydsn/c_range.h **** #ifndef MRBC_SRC_C_RANGE_H_
  15:..\..\mruby_c2\Design01.cydsn/c_range.h **** #define MRBC_SRC_C_RANGE_H_
  16:..\..\mruby_c2\Design01.cydsn/c_range.h **** 
  17:..\..\mruby_c2\Design01.cydsn/c_range.h **** #include <stdint.h>
  18:..\..\mruby_c2\Design01.cydsn/c_range.h **** #include "value.h"
  19:..\..\mruby_c2\Design01.cydsn/c_range.h **** 
  20:..\..\mruby_c2\Design01.cydsn/c_range.h **** #ifdef __cplusplus
  21:..\..\mruby_c2\Design01.cydsn/c_range.h **** extern "C" {
  22:..\..\mruby_c2\Design01.cydsn/c_range.h **** #endif
  23:..\..\mruby_c2\Design01.cydsn/c_range.h **** 
  24:..\..\mruby_c2\Design01.cydsn/c_range.h **** //================================================================
  25:..\..\mruby_c2\Design01.cydsn/c_range.h **** /*!@brief
  26:..\..\mruby_c2\Design01.cydsn/c_range.h ****   Define Range object (same the handles of other objects)
  27:..\..\mruby_c2\Design01.cydsn/c_range.h **** */
  28:..\..\mruby_c2\Design01.cydsn/c_range.h **** typedef struct RRange {
  29:..\..\mruby_c2\Design01.cydsn/c_range.h ****   MRBC_OBJECT_HEADER;
  30:..\..\mruby_c2\Design01.cydsn/c_range.h **** 
  31:..\..\mruby_c2\Design01.cydsn/c_range.h ****   uint8_t flag_exclude;	// true: exclude the end object, otherwise include.
  32:..\..\mruby_c2\Design01.cydsn/c_range.h ****   mrb_value first;
  33:..\..\mruby_c2\Design01.cydsn/c_range.h ****   mrb_value last;
  34:..\..\mruby_c2\Design01.cydsn/c_range.h **** 
  35:..\..\mruby_c2\Design01.cydsn/c_range.h **** } mrb_range;
  36:..\..\mruby_c2\Design01.cydsn/c_range.h **** 
  37:..\..\mruby_c2\Design01.cydsn/c_range.h **** 
  38:..\..\mruby_c2\Design01.cydsn/c_range.h **** struct VM;
  39:..\..\mruby_c2\Design01.cydsn/c_range.h **** 
  40:..\..\mruby_c2\Design01.cydsn/c_range.h **** mrb_value mrbc_range_new(struct VM *vm, mrb_value *first, mrb_value *last, int flag_exclude);
  41:..\..\mruby_c2\Design01.cydsn/c_range.h **** void mrbc_range_delete(mrb_value *v);
  42:..\..\mruby_c2\Design01.cydsn/c_range.h **** void mrbc_range_clear_vm_id(mrb_value *v);
  43:..\..\mruby_c2\Design01.cydsn/c_range.h **** int mrbc_range_compare(const mrb_value *v1, const mrb_value *v2);
  44:..\..\mruby_c2\Design01.cydsn/c_range.h **** void mrbc_init_class_range(mrb_vm *vm);
  45:..\..\mruby_c2\Design01.cydsn/c_range.h **** 
  46:..\..\mruby_c2\Design01.cydsn/c_range.h **** 
  47:..\..\mruby_c2\Design01.cydsn/c_range.h **** 
ARM GAS  C:\Users\164\AppData\Local\Temp\ccbPoUtm.s 			page 5


  48:..\..\mruby_c2\Design01.cydsn/c_range.h **** //================================================================
  49:..\..\mruby_c2\Design01.cydsn/c_range.h **** /*! get first value
  50:..\..\mruby_c2\Design01.cydsn/c_range.h **** */
  51:..\..\mruby_c2\Design01.cydsn/c_range.h **** static inline mrb_value mrbc_range_first(const mrb_value *v)
  52:..\..\mruby_c2\Design01.cydsn/c_range.h **** {
  53:..\..\mruby_c2\Design01.cydsn/c_range.h ****   return v->range->first;
  54:..\..\mruby_c2\Design01.cydsn/c_range.h **** }
  55:..\..\mruby_c2\Design01.cydsn/c_range.h **** 
  56:..\..\mruby_c2\Design01.cydsn/c_range.h **** //================================================================
  57:..\..\mruby_c2\Design01.cydsn/c_range.h **** /*! get last value
  58:..\..\mruby_c2\Design01.cydsn/c_range.h **** */
  59:..\..\mruby_c2\Design01.cydsn/c_range.h **** static inline mrb_value mrbc_range_last(const mrb_value *v)
  60:..\..\mruby_c2\Design01.cydsn/c_range.h **** {
  61:..\..\mruby_c2\Design01.cydsn/c_range.h ****   return v->range->last;
  44              		.loc 2 61 0
  45 0006 8B68     		ldr	r3, [r1, #8]
  46 0008 1833     		adds	r3, r3, #24
  47 000a 0FCB     		ldmia	r3, {r0, r1, r2, r3}
  48              	.LVL2:
  49 000c 8DE80F00 		stmia	sp, {r0, r1, r2, r3}
  50              	.LVL3:
  51              	.LBE7:
  52              	.LBE6:
 139:..\..\mruby_c2\Design01.cydsn/c_range.c ****   mrb_value ret = mrbc_range_last(v);
 140:..\..\mruby_c2\Design01.cydsn/c_range.c ****   SET_RETURN(ret);
  53              		.loc 1 140 0
  54 0010 2846     		mov	r0, r5
  55 0012 FFF7FEFF 		bl	mrbc_release
  56              	.LVL4:
  57 0016 9DE80F00 		ldmia	sp, {r0, r1, r2, r3}
  58 001a 85E80F00 		stmia	r5, {r0, r1, r2, r3}
 141:..\..\mruby_c2\Design01.cydsn/c_range.c **** }
  59              		.loc 1 141 0
  60 001e 05B0     		add	sp, sp, #20
  61              		.cfi_def_cfa_offset 12
  62              		@ sp needed
  63 0020 30BD     		pop	{r4, r5, pc}
  64              		.cfi_endproc
  65              	.LFE85:
  66              		.size	c_range_last, .-c_range_last
  67 0022 00BF     		.section	.text.c_range_first,"ax",%progbits
  68              		.align	2
  69              		.thumb
  70              		.thumb_func
  71              		.type	c_range_first, %function
  72              	c_range_first:
  73              	.LFB84:
 128:..\..\mruby_c2\Design01.cydsn/c_range.c ****   mrb_value ret = mrbc_range_first(v);
  74              		.loc 1 128 0
  75              		.cfi_startproc
  76              		@ args = 0, pretend = 0, frame = 16
  77              		@ frame_needed = 0, uses_anonymous_args = 0
  78              	.LVL5:
  79 0000 30B5     		push	{r4, r5, lr}
  80              		.cfi_def_cfa_offset 12
  81              		.cfi_offset 4, -12
  82              		.cfi_offset 5, -8
ARM GAS  C:\Users\164\AppData\Local\Temp\ccbPoUtm.s 			page 6


  83              		.cfi_offset 14, -4
  84 0002 85B0     		sub	sp, sp, #20
  85              		.cfi_def_cfa_offset 32
  86 0004 0D46     		mov	r5, r1
  87              	.LVL6:
  88              	.LBB8:
  89              	.LBB9:
  53:..\..\mruby_c2\Design01.cydsn/c_range.h **** }
  90              		.loc 2 53 0
  91 0006 8B68     		ldr	r3, [r1, #8]
  92 0008 0833     		adds	r3, r3, #8
  93 000a 0FCB     		ldmia	r3, {r0, r1, r2, r3}
  94              	.LVL7:
  95 000c 8DE80F00 		stmia	sp, {r0, r1, r2, r3}
  96              	.LVL8:
  97              	.LBE9:
  98              	.LBE8:
 130:..\..\mruby_c2\Design01.cydsn/c_range.c **** }
  99              		.loc 1 130 0
 100 0010 2846     		mov	r0, r5
 101 0012 FFF7FEFF 		bl	mrbc_release
 102              	.LVL9:
 103 0016 9DE80F00 		ldmia	sp, {r0, r1, r2, r3}
 104 001a 85E80F00 		stmia	r5, {r0, r1, r2, r3}
 131:..\..\mruby_c2\Design01.cydsn/c_range.c **** 
 105              		.loc 1 131 0
 106 001e 05B0     		add	sp, sp, #20
 107              		.cfi_def_cfa_offset 12
 108              		@ sp needed
 109 0020 30BD     		pop	{r4, r5, pc}
 110              		.cfi_endproc
 111              	.LFE84:
 112              		.size	c_range_first, .-c_range_first
 113 0022 00BF     		.section	.text.c_range_equal3,"ax",%progbits
 114              		.align	2
 115              		.thumb
 116              		.thumb_func
 117              		.type	c_range_equal3, %function
 118              	c_range_equal3:
 119              	.LFB83:
  97:..\..\mruby_c2\Design01.cydsn/c_range.c ****   int result = 0;
 120              		.loc 1 97 0
 121              		.cfi_startproc
 122              		@ args = 0, pretend = 0, frame = 0
 123              		@ frame_needed = 0, uses_anonymous_args = 0
 124              	.LVL10:
 125 0000 10B5     		push	{r4, lr}
 126              		.cfi_def_cfa_offset 8
 127              		.cfi_offset 4, -8
 128              		.cfi_offset 14, -4
 129              	.LVL11:
 100:..\..\mruby_c2\Design01.cydsn/c_range.c ****   mrb_value *v_last =&v[0].range->last;
 130              		.loc 1 100 0
 131 0002 8B68     		ldr	r3, [r1, #8]
 132              	.LVL12:
 104:..\..\mruby_c2\Design01.cydsn/c_range.c ****     if( v->range->flag_exclude ) {
 133              		.loc 1 104 0
ARM GAS  C:\Users\164\AppData\Local\Temp\ccbPoUtm.s 			page 7


 134 0004 93F90820 		ldrsb	r2, [r3, #8]
 135              	.LVL13:
 136 0008 042A     		cmp	r2, #4
 137 000a 18D1     		bne	.L6
 138 000c 0C46     		mov	r4, r1
 104:..\..\mruby_c2\Design01.cydsn/c_range.c ****     if( v->range->flag_exclude ) {
 139              		.loc 1 104 0 is_stmt 0 discriminator 1
 140 000e 91F91020 		ldrsb	r2, [r1, #16]
 141 0012 042A     		cmp	r2, #4
 142 0014 13D1     		bne	.L6
 105:..\..\mruby_c2\Design01.cydsn/c_range.c ****       result = (v_first->i <= v1->i) && (v1->i < v_last->i);
 143              		.loc 1 105 0 is_stmt 1
 144 0016 DA78     		ldrb	r2, [r3, #3]	@ zero_extendqisi2
 145 0018 42B1     		cbz	r2, .L7
 106:..\..\mruby_c2\Design01.cydsn/c_range.c ****     } else {
 146              		.loc 1 106 0
 147 001a 1969     		ldr	r1, [r3, #16]
 148              	.LVL14:
 149 001c A269     		ldr	r2, [r4, #24]
 150 001e 9142     		cmp	r1, r2
 151 0020 11DC     		bgt	.L11
 106:..\..\mruby_c2\Design01.cydsn/c_range.c ****     } else {
 152              		.loc 1 106 0 is_stmt 0 discriminator 1
 153 0022 1B6A     		ldr	r3, [r3, #32]
 154              	.LVL15:
 155 0024 9A42     		cmp	r2, r3
 156 0026 10DB     		blt	.L12
 106:..\..\mruby_c2\Design01.cydsn/c_range.c ****     } else {
 157              		.loc 1 106 0
 158 0028 0023     		movs	r3, #0
 159 002a 13E0     		b	.L8
 160              	.LVL16:
 161              	.L7:
 108:..\..\mruby_c2\Design01.cydsn/c_range.c ****     }
 162              		.loc 1 108 0 is_stmt 1
 163 002c 1969     		ldr	r1, [r3, #16]
 164              	.LVL17:
 165 002e A269     		ldr	r2, [r4, #24]
 166 0030 9142     		cmp	r1, r2
 167 0032 0CDC     		bgt	.L13
 108:..\..\mruby_c2\Design01.cydsn/c_range.c ****     }
 168              		.loc 1 108 0 is_stmt 0 discriminator 1
 169 0034 1B6A     		ldr	r3, [r3, #32]
 170              	.LVL18:
 171 0036 9A42     		cmp	r2, r3
 172 0038 0BDD     		ble	.L14
 108:..\..\mruby_c2\Design01.cydsn/c_range.c ****     }
 173              		.loc 1 108 0
 174 003a 0023     		movs	r3, #0
 175 003c 0AE0     		b	.L8
 176              	.LVL19:
 177              	.L6:
 112:..\..\mruby_c2\Design01.cydsn/c_range.c ****   return;
 178              		.loc 1 112 0 is_stmt 1
 179 003e 0C48     		ldr	r0, .L16
 180              	.LVL20:
 181 0040 FFF7FEFF 		bl	console_printf
ARM GAS  C:\Users\164\AppData\Local\Temp\ccbPoUtm.s 			page 8


 182              	.LVL21:
 113:..\..\mruby_c2\Design01.cydsn/c_range.c **** 
 183              		.loc 1 113 0
 184 0044 10BD     		pop	{r4, pc}
 185              	.LVL22:
 186              	.L11:
 106:..\..\mruby_c2\Design01.cydsn/c_range.c ****     } else {
 187              		.loc 1 106 0
 188 0046 0023     		movs	r3, #0
 189              	.LVL23:
 190 0048 04E0     		b	.L8
 191              	.L12:
 192 004a 0123     		movs	r3, #1
 193 004c 02E0     		b	.L8
 194              	.LVL24:
 195              	.L13:
 108:..\..\mruby_c2\Design01.cydsn/c_range.c ****     }
 196              		.loc 1 108 0
 197 004e 0023     		movs	r3, #0
 198              	.LVL25:
 199 0050 00E0     		b	.L8
 200              	.L14:
 201 0052 0123     		movs	r3, #1
 202              	.L8:
 203              	.LVL26:
 116:..\..\mruby_c2\Design01.cydsn/c_range.c ****     SET_TRUE_RETURN();
 204              		.loc 1 116 0
 205 0054 2BB1     		cbz	r3, .L10
 117:..\..\mruby_c2\Design01.cydsn/c_range.c ****   } else {
 206              		.loc 1 117 0
 207 0056 2046     		mov	r0, r4
 208              	.LVL27:
 209 0058 FFF7FEFF 		bl	mrbc_release
 210              	.LVL28:
 211 005c 0323     		movs	r3, #3
 212 005e 2370     		strb	r3, [r4]
 213 0060 10BD     		pop	{r4, pc}
 214              	.LVL29:
 215              	.L10:
 119:..\..\mruby_c2\Design01.cydsn/c_range.c ****   }
 216              		.loc 1 119 0
 217 0062 2046     		mov	r0, r4
 218              	.LVL30:
 219 0064 FFF7FEFF 		bl	mrbc_release
 220              	.LVL31:
 221 0068 0223     		movs	r3, #2
 222 006a 2370     		strb	r3, [r4]
 223 006c 10BD     		pop	{r4, pc}
 224              	.LVL32:
 225              	.L17:
 226 006e 00BF     		.align	2
 227              	.L16:
 228 0070 00000000 		.word	.LC0
 229              		.cfi_endproc
 230              	.LFE83:
 231              		.size	c_range_equal3, .-c_range_equal3
 232              		.section	.text.c_range_each,"ax",%progbits
ARM GAS  C:\Users\164\AppData\Local\Temp\ccbPoUtm.s 			page 9


 233              		.align	2
 234              		.thumb
 235              		.thumb_func
 236              		.type	c_range_each, %function
 237              	c_range_each:
 238              	.LFB86:
 142:..\..\mruby_c2\Design01.cydsn/c_range.c **** 
 143:..\..\mruby_c2\Design01.cydsn/c_range.c **** 
 144:..\..\mruby_c2\Design01.cydsn/c_range.c **** 
 145:..\..\mruby_c2\Design01.cydsn/c_range.c **** //================================================================
 146:..\..\mruby_c2\Design01.cydsn/c_range.c **** /*! (method) each
 147:..\..\mruby_c2\Design01.cydsn/c_range.c **** */
 148:..\..\mruby_c2\Design01.cydsn/c_range.c **** static void c_range_each(mrb_vm *vm, mrb_value v[], int argc)
 149:..\..\mruby_c2\Design01.cydsn/c_range.c **** {
 239              		.loc 1 149 0
 240              		.cfi_startproc
 241              		@ args = 0, pretend = 0, frame = 40
 242              		@ frame_needed = 0, uses_anonymous_args = 0
 243              	.LVL33:
 244 0000 F0B5     		push	{r4, r5, r6, r7, lr}
 245              		.cfi_def_cfa_offset 20
 246              		.cfi_offset 4, -20
 247              		.cfi_offset 5, -16
 248              		.cfi_offset 6, -12
 249              		.cfi_offset 7, -8
 250              		.cfi_offset 14, -4
 251 0002 8BB0     		sub	sp, sp, #44
 252              		.cfi_def_cfa_offset 64
 253 0004 0446     		mov	r4, r0
 254 0006 0D46     		mov	r5, r1
 150:..\..\mruby_c2\Design01.cydsn/c_range.c ****   uint32_t code[2] = {
 151:..\..\mruby_c2\Design01.cydsn/c_range.c ****     MKOPCODE(OP_CALL) | MKARG_A(argc),
 255              		.loc 1 151 0
 256 0008 5200     		lsls	r2, r2, #1
 257              	.LVL34:
 258 000a 02F4FF72 		and	r2, r2, #510
 259 000e 42F00C52 		orr	r2, r2, #587202560
 150:..\..\mruby_c2\Design01.cydsn/c_range.c ****   uint32_t code[2] = {
 260              		.loc 1 150 0
 261 0012 0892     		str	r2, [sp, #32]
 262 0014 4FF0A043 		mov	r3, #1342177280
 263 0018 0993     		str	r3, [sp, #36]
 152:..\..\mruby_c2\Design01.cydsn/c_range.c ****     MKOPCODE(OP_ABORT)
 153:..\..\mruby_c2\Design01.cydsn/c_range.c ****   };
 154:..\..\mruby_c2\Design01.cydsn/c_range.c ****   mrb_irep irep = {
 264              		.loc 1 154 0
 265 001a 0021     		movs	r1, #0
 266              	.LVL35:
 267 001c ADF80410 		strh	r1, [sp, #4]	@ movhi
 268 0020 ADF80610 		strh	r1, [sp, #6]	@ movhi
 269 0024 ADF80810 		strh	r1, [sp, #8]	@ movhi
 270 0028 0223     		movs	r3, #2
 271 002a ADF80A30 		strh	r3, [sp, #10]	@ movhi
 272 002e ADF80C10 		strh	r1, [sp, #12]	@ movhi
 273 0032 08AB     		add	r3, sp, #32
 274 0034 0493     		str	r3, [sp, #16]
 275 0036 0591     		str	r1, [sp, #20]
ARM GAS  C:\Users\164\AppData\Local\Temp\ccbPoUtm.s 			page 10


 276 0038 0691     		str	r1, [sp, #24]
 277 003a 0791     		str	r1, [sp, #28]
 155:..\..\mruby_c2\Design01.cydsn/c_range.c ****     0,     // nlocals
 156:..\..\mruby_c2\Design01.cydsn/c_range.c ****     0,     // nregs
 157:..\..\mruby_c2\Design01.cydsn/c_range.c ****     0,     // rlen
 158:..\..\mruby_c2\Design01.cydsn/c_range.c ****     2,     // ilen
 159:..\..\mruby_c2\Design01.cydsn/c_range.c ****     0,     // plen
 160:..\..\mruby_c2\Design01.cydsn/c_range.c ****     (uint8_t *)code,   // iseq
 161:..\..\mruby_c2\Design01.cydsn/c_range.c ****     NULL,  // pools
 162:..\..\mruby_c2\Design01.cydsn/c_range.c ****     NULL,  // ptr_to_sym
 163:..\..\mruby_c2\Design01.cydsn/c_range.c ****     NULL,  // reps
 164:..\..\mruby_c2\Design01.cydsn/c_range.c ****   };
 165:..\..\mruby_c2\Design01.cydsn/c_range.c **** 
 166:..\..\mruby_c2\Design01.cydsn/c_range.c ****   // get range
 167:..\..\mruby_c2\Design01.cydsn/c_range.c ****   mrb_range *range = v[0].range;
 278              		.loc 1 167 0
 279 003c AE68     		ldr	r6, [r5, #8]
 280              	.LVL36:
 168:..\..\mruby_c2\Design01.cydsn/c_range.c **** 
 169:..\..\mruby_c2\Design01.cydsn/c_range.c ****   mrbc_push_callinfo(vm, 0);
 281              		.loc 1 169 0
 282 003e FFF7FEFF 		bl	mrbc_push_callinfo
 283              	.LVL37:
 170:..\..\mruby_c2\Design01.cydsn/c_range.c **** 
 171:..\..\mruby_c2\Design01.cydsn/c_range.c ****   // adjust reg_top for reg[0]==Proc
 172:..\..\mruby_c2\Design01.cydsn/c_range.c ****   vm->current_regs += v - vm->regs + 1;
 284              		.loc 1 172 0
 285 0042 04F11803 		add	r3, r4, #24
 286 0046 EB1A     		subs	r3, r5, r3
 287 0048 1033     		adds	r3, r3, #16
 288 004a D4F85826 		ldr	r2, [r4, #1624]
 289 004e 1344     		add	r3, r3, r2
 290 0050 C4F85836 		str	r3, [r4, #1624]
 173:..\..\mruby_c2\Design01.cydsn/c_range.c **** 
 174:..\..\mruby_c2\Design01.cydsn/c_range.c ****   if( range->first.tt == MRB_TT_FIXNUM && range->last.tt == MRB_TT_FIXNUM ){
 291              		.loc 1 174 0
 292 0054 96F90830 		ldrsb	r3, [r6, #8]
 293 0058 042B     		cmp	r3, #4
 294 005a 18D1     		bne	.L19
 295              		.loc 1 174 0 is_stmt 0 discriminator 1
 296 005c 96F91830 		ldrsb	r3, [r6, #24]
 297 0060 042B     		cmp	r3, #4
 298 0062 14D1     		bne	.L19
 299              	.LBB10:
 175:..\..\mruby_c2\Design01.cydsn/c_range.c ****     int i, i_last = range->last.i;
 300              		.loc 1 175 0 is_stmt 1
 301 0064 376A     		ldr	r7, [r6, #32]
 302              	.LVL38:
 176:..\..\mruby_c2\Design01.cydsn/c_range.c ****     if( range->flag_exclude ) i_last--;
 303              		.loc 1 176 0
 304 0066 F378     		ldrb	r3, [r6, #3]	@ zero_extendqisi2
 305 0068 03B1     		cbz	r3, .L20
 306              		.loc 1 176 0 is_stmt 0 discriminator 1
 307 006a 013F     		subs	r7, r7, #1
 308              	.LVL39:
 309              	.L20:
 177:..\..\mruby_c2\Design01.cydsn/c_range.c ****     for( i=range->first.i ; i<=i_last ; i++ ){
ARM GAS  C:\Users\164\AppData\Local\Temp\ccbPoUtm.s 			page 11


 310              		.loc 1 177 0 is_stmt 1
 311 006c 3669     		ldr	r6, [r6, #16]
 312              	.LVL40:
 313 006e 0BE0     		b	.L21
 314              	.L22:
 178:..\..\mruby_c2\Design01.cydsn/c_range.c ****       v[2].tt = MRB_TT_FIXNUM;
 315              		.loc 1 178 0 discriminator 3
 316 0070 0423     		movs	r3, #4
 317 0072 85F82030 		strb	r3, [r5, #32]
 179:..\..\mruby_c2\Design01.cydsn/c_range.c ****       v[2].i = i;
 318              		.loc 1 179 0 discriminator 3
 319 0076 AE62     		str	r6, [r5, #40]
 180:..\..\mruby_c2\Design01.cydsn/c_range.c ****       // set OP_CALL irep
 181:..\..\mruby_c2\Design01.cydsn/c_range.c ****       vm->pc = 0;
 320              		.loc 1 181 0 discriminator 3
 321 0078 0023     		movs	r3, #0
 322 007a 2382     		strh	r3, [r4, #16]	@ movhi
 182:..\..\mruby_c2\Design01.cydsn/c_range.c ****       vm->pc_irep = &irep;
 323              		.loc 1 182 0 discriminator 3
 324 007c 01AB     		add	r3, sp, #4
 325 007e E360     		str	r3, [r4, #12]
 183:..\..\mruby_c2\Design01.cydsn/c_range.c ****       
 184:..\..\mruby_c2\Design01.cydsn/c_range.c ****       // execute OP_CALL
 185:..\..\mruby_c2\Design01.cydsn/c_range.c ****       mrbc_vm_run(vm);
 326              		.loc 1 185 0 discriminator 3
 327 0080 2046     		mov	r0, r4
 328 0082 FFF7FEFF 		bl	mrbc_vm_run
 329              	.LVL41:
 177:..\..\mruby_c2\Design01.cydsn/c_range.c ****       v[2].tt = MRB_TT_FIXNUM;
 330              		.loc 1 177 0 discriminator 3
 331 0086 0136     		adds	r6, r6, #1
 332              	.LVL42:
 333              	.L21:
 177:..\..\mruby_c2\Design01.cydsn/c_range.c ****       v[2].tt = MRB_TT_FIXNUM;
 334              		.loc 1 177 0 is_stmt 0 discriminator 1
 335 0088 BE42     		cmp	r6, r7
 336 008a F1DD     		ble	.L22
 337 008c 02E0     		b	.L23
 338              	.LVL43:
 339              	.L19:
 340              	.LBE10:
 186:..\..\mruby_c2\Design01.cydsn/c_range.c ****     }
 187:..\..\mruby_c2\Design01.cydsn/c_range.c ****   } else {
 188:..\..\mruby_c2\Design01.cydsn/c_range.c ****     console_printf( "Not supported\n" );
 341              		.loc 1 188 0 is_stmt 1
 342 008e 0448     		ldr	r0, .L25
 343 0090 FFF7FEFF 		bl	console_printf
 344              	.LVL44:
 345              	.L23:
 189:..\..\mruby_c2\Design01.cydsn/c_range.c ****   }
 190:..\..\mruby_c2\Design01.cydsn/c_range.c ****   
 191:..\..\mruby_c2\Design01.cydsn/c_range.c ****   mrbc_pop_callinfo(vm);
 346              		.loc 1 191 0
 347 0094 2046     		mov	r0, r4
 348 0096 FFF7FEFF 		bl	mrbc_pop_callinfo
 349              	.LVL45:
 192:..\..\mruby_c2\Design01.cydsn/c_range.c **** }
ARM GAS  C:\Users\164\AppData\Local\Temp\ccbPoUtm.s 			page 12


 350              		.loc 1 192 0
 351 009a 0BB0     		add	sp, sp, #44
 352              		.cfi_def_cfa_offset 20
 353              		@ sp needed
 354 009c F0BD     		pop	{r4, r5, r6, r7, pc}
 355              	.LVL46:
 356              	.L26:
 357 009e 00BF     		.align	2
 358              	.L25:
 359 00a0 00000000 		.word	.LC0
 360              		.cfi_endproc
 361              	.LFE86:
 362              		.size	c_range_each, .-c_range_each
 363              		.section	.text.mrbc_range_new,"ax",%progbits
 364              		.align	2
 365              		.global	mrbc_range_new
 366              		.thumb
 367              		.thumb_func
 368              		.type	mrbc_range_new, %function
 369              	mrbc_range_new:
 370              	.LFB79:
  34:..\..\mruby_c2\Design01.cydsn/c_range.c ****   mrb_value value = {.tt = MRB_TT_RANGE};
 371              		.loc 1 34 0
 372              		.cfi_startproc
 373              		@ args = 4, pretend = 0, frame = 0
 374              		@ frame_needed = 0, uses_anonymous_args = 0
 375              	.LVL47:
 376 0000 F8B5     		push	{r3, r4, r5, r6, r7, lr}
 377              		.cfi_def_cfa_offset 24
 378              		.cfi_offset 3, -24
 379              		.cfi_offset 4, -20
 380              		.cfi_offset 5, -16
 381              		.cfi_offset 6, -12
 382              		.cfi_offset 7, -8
 383              		.cfi_offset 14, -4
 384 0002 0546     		mov	r5, r0
 385 0004 0846     		mov	r0, r1
 386              	.LVL48:
 387 0006 1746     		mov	r7, r2
 388 0008 1E46     		mov	r6, r3
  35:..\..\mruby_c2\Design01.cydsn/c_range.c **** 
 389              		.loc 1 35 0
 390 000a 0023     		movs	r3, #0
 391              	.LVL49:
 392 000c 2B60     		str	r3, [r5]
 393 000e 6B60     		str	r3, [r5, #4]
 394 0010 AB60     		str	r3, [r5, #8]
 395 0012 EB60     		str	r3, [r5, #12]
 396 0014 1823     		movs	r3, #24
 397 0016 2B70     		strb	r3, [r5]
  37:..\..\mruby_c2\Design01.cydsn/c_range.c ****   if( !value.range ) return value;		// ENOMEM
 398              		.loc 1 37 0
 399 0018 2821     		movs	r1, #40
 400              	.LVL50:
 401 001a FFF7FEFF 		bl	mrbc_alloc
 402              	.LVL51:
 403 001e A860     		str	r0, [r5, #8]
ARM GAS  C:\Users\164\AppData\Local\Temp\ccbPoUtm.s 			page 13


  38:..\..\mruby_c2\Design01.cydsn/c_range.c **** 
 404              		.loc 1 38 0
 405 0020 88B1     		cbz	r0, .L27
 406 0022 0446     		mov	r4, r0
  40:..\..\mruby_c2\Design01.cydsn/c_range.c ****   value.range->tt = MRB_TT_STRING;	// TODO: for DEBUG
 407              		.loc 1 40 0
 408 0024 0123     		movs	r3, #1
 409 0026 0380     		strh	r3, [r0]	@ movhi
  41:..\..\mruby_c2\Design01.cydsn/c_range.c ****   value.range->flag_exclude = flag_exclude;
 410              		.loc 1 41 0
 411 0028 1723     		movs	r3, #23
 412 002a 8370     		strb	r3, [r0, #2]
  42:..\..\mruby_c2\Design01.cydsn/c_range.c ****   value.range->first = *first;
 413              		.loc 1 42 0
 414 002c 069B     		ldr	r3, [sp, #24]
 415 002e C370     		strb	r3, [r0, #3]
  43:..\..\mruby_c2\Design01.cydsn/c_range.c ****   value.range->last = *last;
 416              		.loc 1 43 0
 417 0030 00F1080E 		add	lr, r0, #8
 418 0034 97E80F00 		ldmia	r7, {r0, r1, r2, r3}
 419 0038 8EE80F00 		stmia	lr, {r0, r1, r2, r3}
  44:..\..\mruby_c2\Design01.cydsn/c_range.c **** 
 420              		.loc 1 44 0
 421 003c 1834     		adds	r4, r4, #24
 422 003e 96E80F00 		ldmia	r6, {r0, r1, r2, r3}
 423 0042 84E80F00 		stmia	r4, {r0, r1, r2, r3}
 424              	.L27:
  47:..\..\mruby_c2\Design01.cydsn/c_range.c **** 
 425              		.loc 1 47 0
 426 0046 2846     		mov	r0, r5
 427 0048 F8BD     		pop	{r3, r4, r5, r6, r7, pc}
 428              		.cfi_endproc
 429              	.LFE79:
 430              		.size	mrbc_range_new, .-mrbc_range_new
 431 004a 00BF     		.section	.text.mrbc_range_delete,"ax",%progbits
 432              		.align	2
 433              		.global	mrbc_range_delete
 434              		.thumb
 435              		.thumb_func
 436              		.type	mrbc_range_delete, %function
 437              	mrbc_range_delete:
 438              	.LFB80:
  56:..\..\mruby_c2\Design01.cydsn/c_range.c ****   mrbc_release( &v->range->first );
 439              		.loc 1 56 0
 440              		.cfi_startproc
 441              		@ args = 0, pretend = 0, frame = 0
 442              		@ frame_needed = 0, uses_anonymous_args = 0
 443              	.LVL52:
 444 0000 10B5     		push	{r4, lr}
 445              		.cfi_def_cfa_offset 8
 446              		.cfi_offset 4, -8
 447              		.cfi_offset 14, -4
 448 0002 0446     		mov	r4, r0
  57:..\..\mruby_c2\Design01.cydsn/c_range.c ****   mrbc_release( &v->range->last );
 449              		.loc 1 57 0
 450 0004 8068     		ldr	r0, [r0, #8]
 451              	.LVL53:
ARM GAS  C:\Users\164\AppData\Local\Temp\ccbPoUtm.s 			page 14


 452 0006 0830     		adds	r0, r0, #8
 453 0008 FFF7FEFF 		bl	mrbc_release
 454              	.LVL54:
  58:..\..\mruby_c2\Design01.cydsn/c_range.c **** 
 455              		.loc 1 58 0
 456 000c A068     		ldr	r0, [r4, #8]
 457 000e 1830     		adds	r0, r0, #24
 458 0010 FFF7FEFF 		bl	mrbc_release
 459              	.LVL55:
  60:..\..\mruby_c2\Design01.cydsn/c_range.c **** }
 460              		.loc 1 60 0
 461 0014 A068     		ldr	r0, [r4, #8]
 462 0016 FFF7FEFF 		bl	mrbc_raw_free
 463              	.LVL56:
 464 001a 10BD     		pop	{r4, pc}
 465              		.cfi_endproc
 466              	.LFE80:
 467              		.size	mrbc_range_delete, .-mrbc_range_delete
 468              		.section	.text.mrbc_range_clear_vm_id,"ax",%progbits
 469              		.align	2
 470              		.global	mrbc_range_clear_vm_id
 471              		.thumb
 472              		.thumb_func
 473              		.type	mrbc_range_clear_vm_id, %function
 474              	mrbc_range_clear_vm_id:
 475              	.LFB81:
  68:..\..\mruby_c2\Design01.cydsn/c_range.c ****   mrbc_set_vm_id( v->range, 0 );
 476              		.loc 1 68 0
 477              		.cfi_startproc
 478              		@ args = 0, pretend = 0, frame = 0
 479              		@ frame_needed = 0, uses_anonymous_args = 0
 480              	.LVL57:
 481 0000 10B5     		push	{r4, lr}
 482              		.cfi_def_cfa_offset 8
 483              		.cfi_offset 4, -8
 484              		.cfi_offset 14, -4
 485 0002 0446     		mov	r4, r0
  69:..\..\mruby_c2\Design01.cydsn/c_range.c ****   mrbc_clear_vm_id( &v->range->first );
 486              		.loc 1 69 0
 487 0004 0021     		movs	r1, #0
 488 0006 8068     		ldr	r0, [r0, #8]
 489              	.LVL58:
 490 0008 FFF7FEFF 		bl	mrbc_set_vm_id
 491              	.LVL59:
  70:..\..\mruby_c2\Design01.cydsn/c_range.c ****   mrbc_clear_vm_id( &v->range->last );
 492              		.loc 1 70 0
 493 000c A068     		ldr	r0, [r4, #8]
 494 000e 0830     		adds	r0, r0, #8
 495 0010 FFF7FEFF 		bl	mrbc_clear_vm_id
 496              	.LVL60:
  71:..\..\mruby_c2\Design01.cydsn/c_range.c **** }
 497              		.loc 1 71 0
 498 0014 A068     		ldr	r0, [r4, #8]
 499 0016 1830     		adds	r0, r0, #24
 500 0018 FFF7FEFF 		bl	mrbc_clear_vm_id
 501              	.LVL61:
 502 001c 10BD     		pop	{r4, pc}
ARM GAS  C:\Users\164\AppData\Local\Temp\ccbPoUtm.s 			page 15


 503              		.cfi_endproc
 504              	.LFE81:
 505              		.size	mrbc_range_clear_vm_id, .-mrbc_range_clear_vm_id
 506 001e 00BF     		.section	.text.mrbc_range_compare,"ax",%progbits
 507              		.align	2
 508              		.global	mrbc_range_compare
 509              		.thumb
 510              		.thumb_func
 511              		.type	mrbc_range_compare, %function
 512              	mrbc_range_compare:
 513              	.LFB82:
  79:..\..\mruby_c2\Design01.cydsn/c_range.c ****   int res;
 514              		.loc 1 79 0
 515              		.cfi_startproc
 516              		@ args = 0, pretend = 0, frame = 0
 517              		@ frame_needed = 0, uses_anonymous_args = 0
 518              	.LVL62:
 519 0000 38B5     		push	{r3, r4, r5, lr}
 520              		.cfi_def_cfa_offset 16
 521              		.cfi_offset 3, -16
 522              		.cfi_offset 4, -12
 523              		.cfi_offset 5, -8
 524              		.cfi_offset 14, -4
 525 0002 0446     		mov	r4, r0
 526 0004 0D46     		mov	r5, r1
  82:..\..\mruby_c2\Design01.cydsn/c_range.c ****   if( res != 0 ) return res;
 527              		.loc 1 82 0
 528 0006 8068     		ldr	r0, [r0, #8]
 529              	.LVL63:
 530 0008 8968     		ldr	r1, [r1, #8]
 531              	.LVL64:
 532 000a 0831     		adds	r1, r1, #8
 533 000c 0830     		adds	r0, r0, #8
 534 000e FFF7FEFF 		bl	mrbc_compare
 535              	.LVL65:
  83:..\..\mruby_c2\Design01.cydsn/c_range.c **** 
 536              		.loc 1 83 0
 537 0012 60B9     		cbnz	r0, .L36
  85:..\..\mruby_c2\Design01.cydsn/c_range.c ****   if( res != 0 ) return res;
 538              		.loc 1 85 0
 539 0014 A068     		ldr	r0, [r4, #8]
 540              	.LVL66:
 541 0016 A968     		ldr	r1, [r5, #8]
 542 0018 1831     		adds	r1, r1, #24
 543 001a 1830     		adds	r0, r0, #24
 544 001c FFF7FEFF 		bl	mrbc_compare
 545              	.LVL67:
  86:..\..\mruby_c2\Design01.cydsn/c_range.c **** 
 546              		.loc 1 86 0
 547 0020 30B9     		cbnz	r0, .L37
  88:..\..\mruby_c2\Design01.cydsn/c_range.c **** }
 548              		.loc 1 88 0
 549 0022 AB68     		ldr	r3, [r5, #8]
 550 0024 DB78     		ldrb	r3, [r3, #3]	@ zero_extendqisi2
 551 0026 A268     		ldr	r2, [r4, #8]
 552 0028 D078     		ldrb	r0, [r2, #3]	@ zero_extendqisi2
 553              	.LVL68:
ARM GAS  C:\Users\164\AppData\Local\Temp\ccbPoUtm.s 			page 16


 554 002a 181A     		subs	r0, r3, r0
 555 002c 38BD     		pop	{r3, r4, r5, pc}
 556              	.LVL69:
 557              	.L36:
 558 002e 38BD     		pop	{r3, r4, r5, pc}
 559              	.LVL70:
 560              	.L37:
  89:..\..\mruby_c2\Design01.cydsn/c_range.c **** 
 561              		.loc 1 89 0
 562 0030 38BD     		pop	{r3, r4, r5, pc}
 563              		.cfi_endproc
 564              	.LFE82:
 565              		.size	mrbc_range_compare, .-mrbc_range_compare
 566 0032 00BF     		.section	.text.mrbc_init_class_range,"ax",%progbits
 567              		.align	2
 568              		.global	mrbc_init_class_range
 569              		.thumb
 570              		.thumb_func
 571              		.type	mrbc_init_class_range, %function
 572              	mrbc_init_class_range:
 573              	.LFB87:
 193:..\..\mruby_c2\Design01.cydsn/c_range.c **** 
 194:..\..\mruby_c2\Design01.cydsn/c_range.c **** 
 195:..\..\mruby_c2\Design01.cydsn/c_range.c **** 
 196:..\..\mruby_c2\Design01.cydsn/c_range.c **** //================================================================
 197:..\..\mruby_c2\Design01.cydsn/c_range.c **** /*! initialize
 198:..\..\mruby_c2\Design01.cydsn/c_range.c **** */
 199:..\..\mruby_c2\Design01.cydsn/c_range.c **** void mrbc_init_class_range(mrb_vm *vm)
 200:..\..\mruby_c2\Design01.cydsn/c_range.c **** {
 574              		.loc 1 200 0
 575              		.cfi_startproc
 576              		@ args = 0, pretend = 0, frame = 0
 577              		@ frame_needed = 0, uses_anonymous_args = 0
 578              	.LVL71:
 579 0000 38B5     		push	{r3, r4, r5, lr}
 580              		.cfi_def_cfa_offset 16
 581              		.cfi_offset 3, -16
 582              		.cfi_offset 4, -12
 583              		.cfi_offset 5, -8
 584              		.cfi_offset 14, -4
 585 0002 0446     		mov	r4, r0
 201:..\..\mruby_c2\Design01.cydsn/c_range.c ****   mrbc_class_range = mrbc_define_class(vm, "Range", mrbc_class_object);
 586              		.loc 1 201 0
 587 0004 0F4B     		ldr	r3, .L41
 588 0006 1A68     		ldr	r2, [r3]
 589 0008 0F49     		ldr	r1, .L41+4
 590 000a FFF7FEFF 		bl	mrbc_define_class
 591              	.LVL72:
 592 000e 0146     		mov	r1, r0
 593 0010 0E4D     		ldr	r5, .L41+8
 594 0012 2860     		str	r0, [r5]
 202:..\..\mruby_c2\Design01.cydsn/c_range.c **** 
 203:..\..\mruby_c2\Design01.cydsn/c_range.c ****   mrbc_define_method(vm, mrbc_class_range, "===", c_range_equal3);
 595              		.loc 1 203 0
 596 0014 0E4B     		ldr	r3, .L41+12
 597 0016 0F4A     		ldr	r2, .L41+16
 598 0018 2046     		mov	r0, r4
ARM GAS  C:\Users\164\AppData\Local\Temp\ccbPoUtm.s 			page 17


 599 001a FFF7FEFF 		bl	mrbc_define_method
 600              	.LVL73:
 204:..\..\mruby_c2\Design01.cydsn/c_range.c ****   mrbc_define_method(vm, mrbc_class_range, "first", c_range_first);
 601              		.loc 1 204 0
 602 001e 0E4B     		ldr	r3, .L41+20
 603 0020 0E4A     		ldr	r2, .L41+24
 604 0022 2968     		ldr	r1, [r5]
 605 0024 2046     		mov	r0, r4
 606 0026 FFF7FEFF 		bl	mrbc_define_method
 607              	.LVL74:
 205:..\..\mruby_c2\Design01.cydsn/c_range.c ****   mrbc_define_method(vm, mrbc_class_range, "last", c_range_last);
 608              		.loc 1 205 0
 609 002a 0D4B     		ldr	r3, .L41+28
 610 002c 0D4A     		ldr	r2, .L41+32
 611 002e 2968     		ldr	r1, [r5]
 612 0030 2046     		mov	r0, r4
 613 0032 FFF7FEFF 		bl	mrbc_define_method
 614              	.LVL75:
 206:..\..\mruby_c2\Design01.cydsn/c_range.c ****   mrbc_define_method(vm, mrbc_class_range, "each", c_range_each);
 615              		.loc 1 206 0
 616 0036 0C4B     		ldr	r3, .L41+36
 617 0038 0C4A     		ldr	r2, .L41+40
 618 003a 2968     		ldr	r1, [r5]
 619 003c 2046     		mov	r0, r4
 620 003e FFF7FEFF 		bl	mrbc_define_method
 621              	.LVL76:
 622 0042 38BD     		pop	{r3, r4, r5, pc}
 623              	.LVL77:
 624              	.L42:
 625              		.align	2
 626              	.L41:
 627 0044 00000000 		.word	mrbc_class_object
 628 0048 10000000 		.word	.LC1
 629 004c 00000000 		.word	mrbc_class_range
 630 0050 00000000 		.word	c_range_equal3
 631 0054 18000000 		.word	.LC2
 632 0058 00000000 		.word	c_range_first
 633 005c 1C000000 		.word	.LC3
 634 0060 00000000 		.word	c_range_last
 635 0064 24000000 		.word	.LC4
 636 0068 00000000 		.word	c_range_each
 637 006c 2C000000 		.word	.LC5
 638              		.cfi_endproc
 639              	.LFE87:
 640              		.size	mrbc_init_class_range, .-mrbc_init_class_range
 641              		.section	.rodata.str1.4,"aMS",%progbits,1
 642              		.align	2
 643              	.LC0:
 644 0000 4E6F7420 		.ascii	"Not supported\012\000"
 644      73757070 
 644      6F727465 
 644      640A00
 645 000f 00       		.space	1
 646              	.LC1:
 647 0010 52616E67 		.ascii	"Range\000"
 647      6500
 648 0016 0000     		.space	2
ARM GAS  C:\Users\164\AppData\Local\Temp\ccbPoUtm.s 			page 18


 649              	.LC2:
 650 0018 3D3D3D00 		.ascii	"===\000"
 651              	.LC3:
 652 001c 66697273 		.ascii	"first\000"
 652      7400
 653 0022 0000     		.space	2
 654              	.LC4:
 655 0024 6C617374 		.ascii	"last\000"
 655      00
 656 0029 000000   		.space	3
 657              	.LC5:
 658 002c 65616368 		.ascii	"each\000"
 658      00
 659              		.text
 660              	.Letext0:
 661              		.file 3 "c:\\program files (x86)\\cypress\\psoc creator\\4.2\\psoc creator\\import\\gnu\\arm\\5.4.
 662              		.file 4 "c:\\program files (x86)\\cypress\\psoc creator\\4.2\\psoc creator\\import\\gnu\\arm\\5.4.
 663              		.file 5 "..\\..\\mruby_c2\\Design01.cydsn\\value.h"
 664              		.file 6 "..\\..\\mruby_c2\\Design01.cydsn\\vm.h"
 665              		.file 7 "..\\..\\mruby_c2\\Design01.cydsn\\static.h"
 666              		.file 8 "Generated_Source\\PSoC5/core_cm3.h"
 667              		.file 9 "..\\..\\mruby_c2\\Design01.cydsn\\console.h"
 668              		.file 10 "..\\..\\mruby_c2\\Design01.cydsn\\alloc.h"
 669              		.file 11 "..\\..\\mruby_c2\\Design01.cydsn\\class.h"
 670              		.file 12 "..\\..\\mruby_c2\\Design01.cydsn\\opcode.h"