ARM GAS  C:\Users\164\AppData\Local\Temp\cc3ssgoH.s 			page 1


   1              		.syntax unified
   2              		.cpu cortex-m3
   3              		.fpu softvfp
   4              		.eabi_attribute 20, 1
   5              		.eabi_attribute 21, 1
   6              		.eabi_attribute 23, 3
   7              		.eabi_attribute 24, 1
   8              		.eabi_attribute 25, 1
   9              		.eabi_attribute 26, 1
  10              		.eabi_attribute 30, 1
  11              		.eabi_attribute 34, 1
  12              		.eabi_attribute 18, 4
  13              		.thumb
  14              		.syntax unified
  15              		.file	"c_string.c"
  16              		.text
  17              	.Ltext0:
  18              		.cfi_sections	.debug_frame
  19              		.section	.text.is_space,"ax",%progbits
  20              		.align	2
  21              		.thumb
  22              		.thumb_func
  23              		.type	is_space, %function
  24              	is_space:
  25              	.LFB86:
  26              		.file 1 "c_string.c"
   1:c_string.c    **** /*! @file
   2:c_string.c    ****   @brief
   3:c_string.c    ****   mruby/c String object
   4:c_string.c    **** 
   5:c_string.c    ****   <pre>
   6:c_string.c    ****   Copyright (C) 2015-2018 Kyushu Institute of Technology.
   7:c_string.c    ****   Copyright (C) 2015-2018 Shimane IT Open-Innovation Center.
   8:c_string.c    **** 
   9:c_string.c    ****   This file is distributed under BSD 3-Clause License.
  10:c_string.c    **** 
  11:c_string.c    ****   </pre>
  12:c_string.c    **** */
  13:c_string.c    **** 
  14:c_string.c    **** #include "vm_config.h"
  15:c_string.c    **** #include <stdlib.h>
  16:c_string.c    **** #include <string.h>
  17:c_string.c    **** #include <limits.h>
  18:c_string.c    **** #include <assert.h>
  19:c_string.c    **** 
  20:c_string.c    **** #include "value.h"
  21:c_string.c    **** #include "vm.h"
  22:c_string.c    **** #include "alloc.h"
  23:c_string.c    **** #include "static.h"
  24:c_string.c    **** #include "class.h"
  25:c_string.c    **** #include "symbol.h"
  26:c_string.c    **** #include "c_array.h"
  27:c_string.c    **** #include "c_string.h"
  28:c_string.c    **** #include "console.h"
  29:c_string.c    **** 
  30:c_string.c    **** 
  31:c_string.c    **** #if MRBC_USE_STRING
ARM GAS  C:\Users\164\AppData\Local\Temp\cc3ssgoH.s 			page 2


  32:c_string.c    **** //================================================================
  33:c_string.c    **** /*! white space character test
  34:c_string.c    **** 
  35:c_string.c    ****   @param  ch	character code.
  36:c_string.c    ****   @return	result.
  37:c_string.c    **** */
  38:c_string.c    **** static int is_space( int ch )
  39:c_string.c    **** {
  27              		.loc 1 39 0
  28              		.cfi_startproc
  29              		@ args = 0, pretend = 0, frame = 0
  30              		@ frame_needed = 0, uses_anonymous_args = 0
  31              		@ link register save eliminated.
  32              	.LVL0:
  40:c_string.c    ****   static const char ws[] = " \t\r\n\f\v";	// '\0' on tail
  41:c_string.c    **** 
  42:c_string.c    ****   int i;
  43:c_string.c    ****   for( i = 0; i < sizeof(ws); i++ ) {
  33              		.loc 1 43 0
  34 0000 0023     		movs	r3, #0
  35 0002 04E0     		b	.L2
  36              	.LVL1:
  37              	.L4:
  44:c_string.c    ****     if( ch == ws[i] ) return 1;
  38              		.loc 1 44 0
  39 0004 054A     		ldr	r2, .L6
  40 0006 D25C     		ldrb	r2, [r2, r3]	@ zero_extendqisi2
  41 0008 8242     		cmp	r2, r0
  42 000a 04D0     		beq	.L5
  43:c_string.c    ****     if( ch == ws[i] ) return 1;
  43              		.loc 1 43 0 discriminator 2
  44 000c 0133     		adds	r3, r3, #1
  45              	.LVL2:
  46              	.L2:
  43:c_string.c    ****     if( ch == ws[i] ) return 1;
  47              		.loc 1 43 0 is_stmt 0 discriminator 1
  48 000e 062B     		cmp	r3, #6
  49 0010 F8D9     		bls	.L4
  45:c_string.c    ****   }
  46:c_string.c    ****   return 0;
  50              		.loc 1 46 0 is_stmt 1
  51 0012 0020     		movs	r0, #0
  52              	.LVL3:
  53 0014 7047     		bx	lr
  54              	.LVL4:
  55              	.L5:
  44:c_string.c    ****   }
  56              		.loc 1 44 0
  57 0016 0120     		movs	r0, #1
  58              	.LVL5:
  47:c_string.c    **** }
  59              		.loc 1 47 0
  60 0018 7047     		bx	lr
  61              	.L7:
  62 001a 00BF     		.align	2
  63              	.L6:
  64 001c 00000000 		.word	.LANCHOR0
ARM GAS  C:\Users\164\AppData\Local\Temp\cc3ssgoH.s 			page 3


  65              		.cfi_endproc
  66              	.LFE86:
  67              		.size	is_space, .-is_space
  68              		.section	.text.tr_find_character,"ax",%progbits
  69              		.align	2
  70              		.thumb
  71              		.thumb_func
  72              		.type	tr_find_character, %function
  73              	tr_find_character:
  74              	.LFB125:
  48:c_string.c    **** 
  49:c_string.c    **** 
  50:c_string.c    **** //================================================================
  51:c_string.c    **** /*! constructor
  52:c_string.c    **** 
  53:c_string.c    ****   @param  vm	pointer to VM.
  54:c_string.c    ****   @param  src	source string or NULL
  55:c_string.c    ****   @param  len	source length
  56:c_string.c    ****   @return 	string object
  57:c_string.c    **** */
  58:c_string.c    **** mrbc_value mrbc_string_new(struct VM *vm, const void *src, int len)
  59:c_string.c    **** {
  60:c_string.c    ****   mrbc_value value = {.tt = MRBC_TT_STRING};
  61:c_string.c    **** 
  62:c_string.c    ****   /*
  63:c_string.c    ****     Allocate handle and string buffer.
  64:c_string.c    ****   */
  65:c_string.c    ****   mrbc_string *h;
  66:c_string.c    ****   h = (mrbc_string *)mrbc_alloc(vm, sizeof(mrbc_string));
  67:c_string.c    ****   if( !h ) return value;		// ENOMEM
  68:c_string.c    **** 
  69:c_string.c    ****   uint8_t *str = mrbc_alloc(vm, len+1);
  70:c_string.c    ****   if( !str ) {				// ENOMEM
  71:c_string.c    ****     mrbc_raw_free( h );
  72:c_string.c    ****     return value;
  73:c_string.c    ****   }
  74:c_string.c    **** 
  75:c_string.c    ****   h->ref_count = 1;
  76:c_string.c    ****   h->tt = MRBC_TT_STRING;	// TODO: for DEBUG
  77:c_string.c    ****   h->size = len;
  78:c_string.c    ****   h->data = str;
  79:c_string.c    **** 
  80:c_string.c    ****   /*
  81:c_string.c    ****     Copy a source string.
  82:c_string.c    ****   */
  83:c_string.c    ****   if( src == NULL ) {
  84:c_string.c    ****     str[0] = '\0';
  85:c_string.c    ****   } else {
  86:c_string.c    ****     memcpy( str, src, len );
  87:c_string.c    ****     str[len] = '\0';
  88:c_string.c    ****   }
  89:c_string.c    **** 
  90:c_string.c    ****   value.string = h;
  91:c_string.c    ****   return value;
  92:c_string.c    **** }
  93:c_string.c    **** 
  94:c_string.c    **** 
ARM GAS  C:\Users\164\AppData\Local\Temp\cc3ssgoH.s 			page 4


  95:c_string.c    **** //================================================================
  96:c_string.c    **** /*! constructor by c string
  97:c_string.c    **** 
  98:c_string.c    ****   @param  vm	pointer to VM.
  99:c_string.c    ****   @param  src	source string or NULL
 100:c_string.c    ****   @return 	string object
 101:c_string.c    **** */
 102:c_string.c    **** mrbc_value mrbc_string_new_cstr(struct VM *vm, const char *src)
 103:c_string.c    **** {
 104:c_string.c    ****   return mrbc_string_new(vm, src, (src ? strlen(src) : 0));
 105:c_string.c    **** }
 106:c_string.c    **** 
 107:c_string.c    **** 
 108:c_string.c    **** //================================================================
 109:c_string.c    **** /*! constructor by allocated buffer
 110:c_string.c    **** 
 111:c_string.c    ****   @param  vm	pointer to VM.
 112:c_string.c    ****   @param  buf	pointer to allocated buffer
 113:c_string.c    ****   @param  len	length
 114:c_string.c    ****   @return 	string object
 115:c_string.c    **** */
 116:c_string.c    **** mrbc_value mrbc_string_new_alloc(struct VM *vm, void *buf, int len)
 117:c_string.c    **** {
 118:c_string.c    ****   mrbc_value value = {.tt = MRBC_TT_STRING};
 119:c_string.c    **** 
 120:c_string.c    ****   /*
 121:c_string.c    ****     Allocate handle
 122:c_string.c    ****   */
 123:c_string.c    ****   mrbc_string *h;
 124:c_string.c    ****   h = (mrbc_string *)mrbc_alloc(vm, sizeof(mrbc_string));
 125:c_string.c    ****   if( !h ) return value;		// ENOMEM
 126:c_string.c    **** 
 127:c_string.c    ****   h->ref_count = 1;
 128:c_string.c    ****   h->tt = MRBC_TT_STRING;	// TODO: for DEBUG
 129:c_string.c    ****   h->size = len;
 130:c_string.c    ****   h->data = buf;
 131:c_string.c    **** 
 132:c_string.c    ****   value.string = h;
 133:c_string.c    ****   return value;
 134:c_string.c    **** }
 135:c_string.c    **** 
 136:c_string.c    **** 
 137:c_string.c    **** //================================================================
 138:c_string.c    **** /*! destructor
 139:c_string.c    **** 
 140:c_string.c    ****   @param  str	pointer to target value
 141:c_string.c    **** */
 142:c_string.c    **** void mrbc_string_delete(mrbc_value *str)
 143:c_string.c    **** {
 144:c_string.c    ****   mrbc_raw_free(str->string->data);
 145:c_string.c    ****   mrbc_raw_free(str->string);
 146:c_string.c    **** }
 147:c_string.c    **** 
 148:c_string.c    **** 
 149:c_string.c    **** 
 150:c_string.c    **** //================================================================
 151:c_string.c    **** /*! clear vm_id
ARM GAS  C:\Users\164\AppData\Local\Temp\cc3ssgoH.s 			page 5


 152:c_string.c    **** */
 153:c_string.c    **** void mrbc_string_clear_vm_id(mrbc_value *str)
 154:c_string.c    **** {
 155:c_string.c    ****   mrbc_set_vm_id( str->string, 0 );
 156:c_string.c    ****   mrbc_set_vm_id( str->string->data, 0 );
 157:c_string.c    **** }
 158:c_string.c    **** 
 159:c_string.c    **** 
 160:c_string.c    **** //================================================================
 161:c_string.c    **** /*! duplicate string
 162:c_string.c    **** 
 163:c_string.c    ****   @param  vm	pointer to VM.
 164:c_string.c    ****   @param  s1	pointer to target value 1
 165:c_string.c    ****   @param  s2	pointer to target value 2
 166:c_string.c    ****   @return	new string as s1 + s2
 167:c_string.c    **** */
 168:c_string.c    **** mrbc_value mrbc_string_dup(struct VM *vm, mrbc_value *s1)
 169:c_string.c    **** {
 170:c_string.c    ****   mrbc_string *h1 = s1->string;
 171:c_string.c    **** 
 172:c_string.c    ****   mrbc_value value = mrbc_string_new(vm, NULL, h1->size);
 173:c_string.c    ****   if( value.string == NULL ) return value;		// ENOMEM
 174:c_string.c    **** 
 175:c_string.c    ****   memcpy( value.string->data, h1->data, h1->size + 1 );
 176:c_string.c    **** 
 177:c_string.c    ****   return value;
 178:c_string.c    **** }
 179:c_string.c    **** 
 180:c_string.c    **** 
 181:c_string.c    **** //================================================================
 182:c_string.c    **** /*! add string (s1 + s2)
 183:c_string.c    **** 
 184:c_string.c    ****   @param  vm	pointer to VM.
 185:c_string.c    ****   @param  s1	pointer to target value 1
 186:c_string.c    ****   @param  s2	pointer to target value 2
 187:c_string.c    ****   @return	new string as s1 + s2
 188:c_string.c    **** */
 189:c_string.c    **** mrbc_value mrbc_string_add(struct VM *vm, const mrbc_value *s1, const mrbc_value *s2)
 190:c_string.c    **** {
 191:c_string.c    ****   mrbc_string *h1 = s1->string;
 192:c_string.c    ****   mrbc_string *h2 = s2->string;
 193:c_string.c    **** 
 194:c_string.c    ****   mrbc_value value = mrbc_string_new(vm, NULL, h1->size + h2->size);
 195:c_string.c    ****   if( value.string == NULL ) return value;		// ENOMEM
 196:c_string.c    **** 
 197:c_string.c    ****   memcpy( value.string->data,            h1->data, h1->size );
 198:c_string.c    ****   memcpy( value.string->data + h1->size, h2->data, h2->size + 1 );
 199:c_string.c    **** 
 200:c_string.c    ****   return value;
 201:c_string.c    **** }
 202:c_string.c    **** 
 203:c_string.c    **** 
 204:c_string.c    **** //================================================================
 205:c_string.c    **** /*! append string (s1 += s2)
 206:c_string.c    **** 
 207:c_string.c    ****   @param  s1	pointer to target value 1
 208:c_string.c    ****   @param  s2	pointer to target value 2
ARM GAS  C:\Users\164\AppData\Local\Temp\cc3ssgoH.s 			page 6


 209:c_string.c    ****   @param	mrbc_error_code
 210:c_string.c    **** */
 211:c_string.c    **** int mrbc_string_append(mrbc_value *s1, const mrbc_value *s2)
 212:c_string.c    **** {
 213:c_string.c    ****   int len1 = s1->string->size;
 214:c_string.c    ****   int len2 = (s2->tt == MRBC_TT_STRING) ? s2->string->size : 1;
 215:c_string.c    **** 
 216:c_string.c    ****   uint8_t *str = mrbc_raw_realloc(s1->string->data, len1+len2+1);
 217:c_string.c    ****   if( !str ) return E_NOMEMORY_ERROR;
 218:c_string.c    **** 
 219:c_string.c    ****   if( s2->tt == MRBC_TT_STRING ) {
 220:c_string.c    ****     memcpy(str + len1, s2->string->data, len2 + 1);
 221:c_string.c    ****   } else if( s2->tt == MRBC_TT_FIXNUM ) {
 222:c_string.c    ****     str[len1] = s2->i;
 223:c_string.c    ****     str[len1+1] = '\0';
 224:c_string.c    ****   }
 225:c_string.c    **** 
 226:c_string.c    ****   s1->string->size = len1 + len2;
 227:c_string.c    ****   s1->string->data = str;
 228:c_string.c    **** 
 229:c_string.c    ****   return 0;
 230:c_string.c    **** }
 231:c_string.c    **** 
 232:c_string.c    **** 
 233:c_string.c    **** //================================================================
 234:c_string.c    **** /*! append c string (s1 += s2)
 235:c_string.c    **** 
 236:c_string.c    ****   @param  s1	pointer to target value 1
 237:c_string.c    ****   @param  s2	pointer to char (c_str)
 238:c_string.c    ****   @param	mrbc_error_code
 239:c_string.c    **** */
 240:c_string.c    **** int mrbc_string_append_cstr(mrbc_value *s1, const char *s2)
 241:c_string.c    **** {
 242:c_string.c    ****   int len1 = s1->string->size;
 243:c_string.c    ****   int len2 = strlen(s2);
 244:c_string.c    **** 
 245:c_string.c    ****   uint8_t *str = mrbc_raw_realloc(s1->string->data, len1+len2+1);
 246:c_string.c    ****   if( !str ) return E_NOMEMORY_ERROR;
 247:c_string.c    **** 
 248:c_string.c    ****   memcpy(str + len1, s2, len2 + 1);
 249:c_string.c    **** 
 250:c_string.c    ****   s1->string->size = len1 + len2;
 251:c_string.c    ****   s1->string->data = str;
 252:c_string.c    **** 
 253:c_string.c    ****   return 0;
 254:c_string.c    **** }
 255:c_string.c    **** 
 256:c_string.c    **** 
 257:c_string.c    **** //================================================================
 258:c_string.c    **** /*! locate a substring in a string
 259:c_string.c    **** 
 260:c_string.c    ****   @param  src		pointer to target string
 261:c_string.c    ****   @param  pattern	pointer to substring
 262:c_string.c    ****   @param  offset	search offset
 263:c_string.c    ****   @return		position index. or minus value if not found.
 264:c_string.c    **** */
 265:c_string.c    **** int mrbc_string_index(const mrbc_value *src, const mrbc_value *pattern, int offset)
ARM GAS  C:\Users\164\AppData\Local\Temp\cc3ssgoH.s 			page 7


 266:c_string.c    **** {
 267:c_string.c    ****   char *p1 = mrbc_string_cstr(src) + offset;
 268:c_string.c    ****   char *p2 = mrbc_string_cstr(pattern);
 269:c_string.c    ****   int try_cnt = mrbc_string_size(src) - mrbc_string_size(pattern) - offset;
 270:c_string.c    **** 
 271:c_string.c    ****   while( try_cnt >= 0 ) {
 272:c_string.c    ****     if( memcmp( p1, p2, mrbc_string_size(pattern) ) == 0 ) {
 273:c_string.c    ****       return p1 - mrbc_string_cstr(src);	// matched.
 274:c_string.c    ****     }
 275:c_string.c    ****     try_cnt--;
 276:c_string.c    ****     p1++;
 277:c_string.c    ****   }
 278:c_string.c    **** 
 279:c_string.c    ****   return -1;
 280:c_string.c    **** }
 281:c_string.c    **** 
 282:c_string.c    **** 
 283:c_string.c    **** //================================================================
 284:c_string.c    **** /*! remove the whitespace in myself
 285:c_string.c    **** 
 286:c_string.c    ****   @param  src	pointer to target value
 287:c_string.c    ****   @param  mode	1:left-side, 2:right-side, 3:each
 288:c_string.c    ****   @return	0 when not removed.
 289:c_string.c    **** */
 290:c_string.c    **** int mrbc_string_strip(mrbc_value *src, int mode)
 291:c_string.c    **** {
 292:c_string.c    ****   char *p1 = mrbc_string_cstr(src);
 293:c_string.c    ****   char *p2 = p1 + mrbc_string_size(src) - 1;
 294:c_string.c    **** 
 295:c_string.c    ****   // left-side
 296:c_string.c    ****   if( mode & 0x01 ) {
 297:c_string.c    ****     while( p1 <= p2 ) {
 298:c_string.c    ****       if( *p1 == '\0' ) break;
 299:c_string.c    ****       if( !is_space(*p1) ) break;
 300:c_string.c    ****       p1++;
 301:c_string.c    ****     }
 302:c_string.c    ****   }
 303:c_string.c    ****   // right-side
 304:c_string.c    ****   if( mode & 0x02 ) {
 305:c_string.c    ****     while( p1 <= p2 ) {
 306:c_string.c    ****       if( !is_space(*p2) ) break;
 307:c_string.c    ****       p2--;
 308:c_string.c    ****     }
 309:c_string.c    ****   }
 310:c_string.c    **** 
 311:c_string.c    ****   int new_size = p2 - p1 + 1;
 312:c_string.c    ****   if( mrbc_string_size(src) == new_size ) return 0;
 313:c_string.c    **** 
 314:c_string.c    ****   char *buf = mrbc_string_cstr(src);
 315:c_string.c    ****   if( p1 != buf ) memmove( buf, p1, new_size );
 316:c_string.c    ****   buf[new_size] = '\0';
 317:c_string.c    ****   mrbc_raw_realloc(buf, new_size+1);	// shrink suitable size.
 318:c_string.c    ****   src->string->size = new_size;
 319:c_string.c    **** 
 320:c_string.c    ****   return 1;
 321:c_string.c    **** }
 322:c_string.c    **** 
ARM GAS  C:\Users\164\AppData\Local\Temp\cc3ssgoH.s 			page 8


 323:c_string.c    **** 
 324:c_string.c    **** //================================================================
 325:c_string.c    **** /*! remove the CR,LF in myself
 326:c_string.c    **** 
 327:c_string.c    ****   @param  src	pointer to target value
 328:c_string.c    ****   @return	0 when not removed.
 329:c_string.c    **** */
 330:c_string.c    **** int mrbc_string_chomp(mrbc_value *src)
 331:c_string.c    **** {
 332:c_string.c    ****   char *p1 = mrbc_string_cstr(src);
 333:c_string.c    ****   char *p2 = p1 + mrbc_string_size(src) - 1;
 334:c_string.c    **** 
 335:c_string.c    ****   if( *p2 == '\n' ) {
 336:c_string.c    ****     p2--;
 337:c_string.c    ****   }
 338:c_string.c    ****   if( *p2 == '\r' ) {
 339:c_string.c    ****     p2--;
 340:c_string.c    ****   }
 341:c_string.c    **** 
 342:c_string.c    ****   int new_size = p2 - p1 + 1;
 343:c_string.c    ****   if( mrbc_string_size(src) == new_size ) return 0;
 344:c_string.c    **** 
 345:c_string.c    ****   char *buf = mrbc_string_cstr(src);
 346:c_string.c    ****   buf[new_size] = '\0';
 347:c_string.c    ****   src->string->size = new_size;
 348:c_string.c    **** 
 349:c_string.c    ****   return 1;
 350:c_string.c    **** }
 351:c_string.c    **** 
 352:c_string.c    **** 
 353:c_string.c    **** 
 354:c_string.c    **** //================================================================
 355:c_string.c    **** /*! (method) +
 356:c_string.c    **** */
 357:c_string.c    **** static void c_string_add(struct VM *vm, mrbc_value v[], int argc)
 358:c_string.c    **** {
 359:c_string.c    ****   if( v[1].tt != MRBC_TT_STRING ) {
 360:c_string.c    ****     console_print( "Not support STRING + Other\n" );
 361:c_string.c    ****     return;
 362:c_string.c    ****   }
 363:c_string.c    **** 
 364:c_string.c    ****   mrbc_value value = mrbc_string_add(vm, &v[0], &v[1]);
 365:c_string.c    ****   SET_RETURN(value);
 366:c_string.c    **** }
 367:c_string.c    **** 
 368:c_string.c    **** 
 369:c_string.c    **** 
 370:c_string.c    **** //================================================================
 371:c_string.c    **** /*! (method) *
 372:c_string.c    **** */
 373:c_string.c    **** static void c_string_mul(struct VM *vm, mrbc_value v[], int argc)
 374:c_string.c    **** {
 375:c_string.c    ****   if( v[1].tt != MRBC_TT_FIXNUM ) {
 376:c_string.c    ****     console_print( "TypeError\n" );	// raise?
 377:c_string.c    ****     return;
 378:c_string.c    ****   }
 379:c_string.c    **** 
ARM GAS  C:\Users\164\AppData\Local\Temp\cc3ssgoH.s 			page 9


 380:c_string.c    ****   if( v[1].i < 0 ) {
 381:c_string.c    ****     console_printf( "ArgumentError\n" );	// raise?
 382:c_string.c    ****     return;
 383:c_string.c    ****   }
 384:c_string.c    **** 
 385:c_string.c    ****   mrbc_value value = mrbc_string_new(vm, NULL,
 386:c_string.c    **** 				    mrbc_string_size(&v[0]) * v[1].i);
 387:c_string.c    ****   if( value.string == NULL ) return;		// ENOMEM
 388:c_string.c    **** 
 389:c_string.c    ****   uint8_t *p = value.string->data;
 390:c_string.c    ****   int i;
 391:c_string.c    ****   for( i = 0; i < v[1].i; i++ ) {
 392:c_string.c    ****     memcpy( p, mrbc_string_cstr(&v[0]), mrbc_string_size(&v[0]) );
 393:c_string.c    ****     p += mrbc_string_size(&v[0]);
 394:c_string.c    ****   }
 395:c_string.c    ****   *p = 0;
 396:c_string.c    **** 
 397:c_string.c    ****   SET_RETURN(value);
 398:c_string.c    **** }
 399:c_string.c    **** 
 400:c_string.c    **** 
 401:c_string.c    **** 
 402:c_string.c    **** //================================================================
 403:c_string.c    **** /*! (method) size, length
 404:c_string.c    **** */
 405:c_string.c    **** static void c_string_size(struct VM *vm, mrbc_value v[], int argc)
 406:c_string.c    **** {
 407:c_string.c    ****   mrbc_int size = mrbc_string_size(&v[0]);
 408:c_string.c    **** 
 409:c_string.c    ****   SET_INT_RETURN( size );
 410:c_string.c    **** }
 411:c_string.c    **** 
 412:c_string.c    **** 
 413:c_string.c    **** 
 414:c_string.c    **** //================================================================
 415:c_string.c    **** /*! (method) to_i
 416:c_string.c    **** */
 417:c_string.c    **** static void c_string_to_i(struct VM *vm, mrbc_value v[], int argc)
 418:c_string.c    **** {
 419:c_string.c    ****   int base = 10;
 420:c_string.c    ****   if( argc ) {
 421:c_string.c    ****     base = v[1].i;
 422:c_string.c    ****     if( base < 2 || base > 36 ) {
 423:c_string.c    ****       return;	// raise ? ArgumentError
 424:c_string.c    ****     }
 425:c_string.c    ****   }
 426:c_string.c    **** 
 427:c_string.c    ****   mrbc_int i = mrbc_atoi( mrbc_string_cstr(v), base );
 428:c_string.c    **** 
 429:c_string.c    ****   SET_INT_RETURN( i );
 430:c_string.c    **** }
 431:c_string.c    **** 
 432:c_string.c    **** 
 433:c_string.c    **** #if MRBC_USE_FLOAT
 434:c_string.c    **** //================================================================
 435:c_string.c    **** /*! (method) to_f
 436:c_string.c    **** */
ARM GAS  C:\Users\164\AppData\Local\Temp\cc3ssgoH.s 			page 10


 437:c_string.c    **** static void c_string_to_f(struct VM *vm, mrbc_value v[], int argc)
 438:c_string.c    **** {
 439:c_string.c    ****   mrbc_float d = atof(mrbc_string_cstr(v));
 440:c_string.c    **** 
 441:c_string.c    ****   SET_FLOAT_RETURN( d );
 442:c_string.c    **** }
 443:c_string.c    **** #endif
 444:c_string.c    **** 
 445:c_string.c    **** 
 446:c_string.c    **** //================================================================
 447:c_string.c    **** /*! (method) <<
 448:c_string.c    **** */
 449:c_string.c    **** static void c_string_append(struct VM *vm, mrbc_value v[], int argc)
 450:c_string.c    **** {
 451:c_string.c    ****   if( !mrbc_string_append( &v[0], &v[1] ) ) {
 452:c_string.c    ****     // raise ? ENOMEM
 453:c_string.c    ****   }
 454:c_string.c    **** }
 455:c_string.c    **** 
 456:c_string.c    **** 
 457:c_string.c    **** //================================================================
 458:c_string.c    **** /*! (method) []
 459:c_string.c    **** */
 460:c_string.c    **** static void c_string_slice(struct VM *vm, mrbc_value v[], int argc)
 461:c_string.c    **** {
 462:c_string.c    ****   mrbc_value *v1 = &v[1];
 463:c_string.c    ****   mrbc_value *v2 = &v[2];
 464:c_string.c    **** 
 465:c_string.c    ****   /*
 466:c_string.c    ****     in case of slice(nth) -> String | nil
 467:c_string.c    ****   */
 468:c_string.c    ****   if( argc == 1 && v1->tt == MRBC_TT_FIXNUM ) {
 469:c_string.c    ****     int len = v->string->size;
 470:c_string.c    ****     int idx = v1->i;
 471:c_string.c    ****     int ch = -1;
 472:c_string.c    ****     if( idx >= 0 ) {
 473:c_string.c    ****       if( idx < len ) {
 474:c_string.c    ****         ch = *(v->string->data + idx);
 475:c_string.c    ****       }
 476:c_string.c    ****     } else {
 477:c_string.c    ****       idx += len;
 478:c_string.c    ****       if( idx >= 0 ) {
 479:c_string.c    ****         ch = *(v->string->data + idx);
 480:c_string.c    ****       }
 481:c_string.c    ****     }
 482:c_string.c    ****     if( ch < 0 ) goto RETURN_NIL;
 483:c_string.c    **** 
 484:c_string.c    ****     mrbc_value value = mrbc_string_new(vm, NULL, 1);
 485:c_string.c    ****     if( !value.string ) goto RETURN_NIL;		// ENOMEM
 486:c_string.c    **** 
 487:c_string.c    ****     value.string->data[0] = ch;
 488:c_string.c    ****     value.string->data[1] = '\0';
 489:c_string.c    ****     SET_RETURN(value);
 490:c_string.c    ****     return;		// normal return
 491:c_string.c    ****   }
 492:c_string.c    **** 
 493:c_string.c    ****   /*
ARM GAS  C:\Users\164\AppData\Local\Temp\cc3ssgoH.s 			page 11


 494:c_string.c    ****     in case of slice(nth, len) -> String | nil
 495:c_string.c    ****   */
 496:c_string.c    ****   if( argc == 2 && v1->tt == MRBC_TT_FIXNUM && v2->tt == MRBC_TT_FIXNUM ) {
 497:c_string.c    ****     int len = v->string->size;
 498:c_string.c    ****     int idx = v1->i;
 499:c_string.c    ****     if( idx < 0 ) idx += len;
 500:c_string.c    ****     if( idx < 0 ) goto RETURN_NIL;
 501:c_string.c    **** 
 502:c_string.c    ****     int rlen = (v2->i < (len - idx)) ? v2->i : (len - idx);
 503:c_string.c    **** 						// min( v2->i, (len-idx) )
 504:c_string.c    ****     if( rlen < 0 ) goto RETURN_NIL;
 505:c_string.c    **** 
 506:c_string.c    ****     mrbc_value value = mrbc_string_new(vm, v->string->data + idx, rlen);
 507:c_string.c    ****     if( !value.string ) goto RETURN_NIL;		// ENOMEM
 508:c_string.c    **** 
 509:c_string.c    ****     SET_RETURN(value);
 510:c_string.c    ****     return;		// normal return
 511:c_string.c    ****   }
 512:c_string.c    **** 
 513:c_string.c    ****   /*
 514:c_string.c    ****     other case
 515:c_string.c    ****   */
 516:c_string.c    ****   console_print( "Not support such case in String#[].\n" );
 517:c_string.c    ****   return;
 518:c_string.c    **** 
 519:c_string.c    **** 
 520:c_string.c    ****  RETURN_NIL:
 521:c_string.c    ****   SET_NIL_RETURN();
 522:c_string.c    **** }
 523:c_string.c    **** 
 524:c_string.c    **** 
 525:c_string.c    **** //================================================================
 526:c_string.c    **** /*! (method) []=
 527:c_string.c    **** */
 528:c_string.c    **** static void c_string_insert(struct VM *vm, mrbc_value v[], int argc)
 529:c_string.c    **** {
 530:c_string.c    ****   int nth;
 531:c_string.c    ****   int len;
 532:c_string.c    ****   mrbc_value *val;
 533:c_string.c    **** 
 534:c_string.c    ****   /*
 535:c_string.c    ****     in case of self[nth] = val
 536:c_string.c    ****   */
 537:c_string.c    ****   if( argc == 2 &&
 538:c_string.c    ****       v[1].tt == MRBC_TT_FIXNUM &&
 539:c_string.c    ****       v[2].tt == MRBC_TT_STRING ) {
 540:c_string.c    ****     nth = v[1].i;
 541:c_string.c    ****     len = 1;
 542:c_string.c    ****     val = &v[2];
 543:c_string.c    ****   }
 544:c_string.c    ****   /*
 545:c_string.c    ****     in case of self[nth, len] = val
 546:c_string.c    ****   */
 547:c_string.c    ****   else if( argc == 3 &&
 548:c_string.c    **** 	   v[1].tt == MRBC_TT_FIXNUM &&
 549:c_string.c    **** 	   v[2].tt == MRBC_TT_FIXNUM &&
 550:c_string.c    **** 	   v[3].tt == MRBC_TT_STRING ) {
ARM GAS  C:\Users\164\AppData\Local\Temp\cc3ssgoH.s 			page 12


 551:c_string.c    ****     nth = v[1].i;
 552:c_string.c    ****     len = v[2].i;
 553:c_string.c    ****     val = &v[3];
 554:c_string.c    ****   }
 555:c_string.c    ****   /*
 556:c_string.c    ****     other cases
 557:c_string.c    ****   */
 558:c_string.c    ****   else {
 559:c_string.c    ****     console_print( "Not support\n" );
 560:c_string.c    ****     return;
 561:c_string.c    ****   }
 562:c_string.c    **** 
 563:c_string.c    ****   int len1 = v->string->size;
 564:c_string.c    ****   int len2 = val->string->size;
 565:c_string.c    ****   if( nth < 0 ) nth = len1 + nth;               // adjust to positive number.
 566:c_string.c    ****   if( len > len1 - nth ) len = len1 - nth;
 567:c_string.c    ****   if( nth < 0 || nth > len1 || len < 0) {
 568:c_string.c    ****     console_print( "IndexError\n" );  // raise?
 569:c_string.c    ****     return;
 570:c_string.c    ****   }
 571:c_string.c    **** 
 572:c_string.c    ****   uint8_t *str = mrbc_realloc(vm, mrbc_string_cstr(v), len1 + len2 - len + 1);
 573:c_string.c    ****   if( !str ) return;
 574:c_string.c    **** 
 575:c_string.c    ****   memmove( str + nth + len2, str + nth + len, len1 - nth - len + 1 );
 576:c_string.c    ****   memcpy( str + nth, mrbc_string_cstr(val), len2 );
 577:c_string.c    ****   v->string->size = len1 + len2 - len;
 578:c_string.c    **** 
 579:c_string.c    ****   v->string->data = str;
 580:c_string.c    **** }
 581:c_string.c    **** 
 582:c_string.c    **** 
 583:c_string.c    **** //================================================================
 584:c_string.c    **** /*! (method) chomp
 585:c_string.c    **** */
 586:c_string.c    **** static void c_string_chomp(struct VM *vm, mrbc_value v[], int argc)
 587:c_string.c    **** {
 588:c_string.c    ****   mrbc_value ret = mrbc_string_dup(vm, &v[0]);
 589:c_string.c    **** 
 590:c_string.c    ****   mrbc_string_chomp(&ret);
 591:c_string.c    **** 
 592:c_string.c    ****   SET_RETURN(ret);
 593:c_string.c    **** }
 594:c_string.c    **** 
 595:c_string.c    **** 
 596:c_string.c    **** //================================================================
 597:c_string.c    **** /*! (method) chomp!
 598:c_string.c    **** */
 599:c_string.c    **** static void c_string_chomp_self(struct VM *vm, mrbc_value v[], int argc)
 600:c_string.c    **** {
 601:c_string.c    ****   if( mrbc_string_chomp(&v[0]) == 0 ) {
 602:c_string.c    ****     SET_RETURN( mrbc_nil_value() );
 603:c_string.c    ****   }
 604:c_string.c    **** }
 605:c_string.c    **** 
 606:c_string.c    **** 
 607:c_string.c    **** //================================================================
ARM GAS  C:\Users\164\AppData\Local\Temp\cc3ssgoH.s 			page 13


 608:c_string.c    **** /*! (method) dup
 609:c_string.c    **** */
 610:c_string.c    **** static void c_string_dup(struct VM *vm, mrbc_value v[], int argc)
 611:c_string.c    **** {
 612:c_string.c    ****   mrbc_value ret = mrbc_string_dup(vm, &v[0]);
 613:c_string.c    **** 
 614:c_string.c    ****   SET_RETURN(ret);
 615:c_string.c    **** }
 616:c_string.c    **** 
 617:c_string.c    **** 
 618:c_string.c    **** //================================================================
 619:c_string.c    **** /*! (method) index
 620:c_string.c    **** */
 621:c_string.c    **** static void c_string_index(struct VM *vm, mrbc_value v[], int argc)
 622:c_string.c    **** {
 623:c_string.c    ****   int index;
 624:c_string.c    ****   int offset;
 625:c_string.c    **** 
 626:c_string.c    ****   if( argc == 1 ) {
 627:c_string.c    ****     offset = 0;
 628:c_string.c    **** 
 629:c_string.c    ****   } else if( argc == 2 && v[2].tt == MRBC_TT_FIXNUM ) {
 630:c_string.c    ****     offset = v[2].i;
 631:c_string.c    ****     if( offset < 0 ) offset += mrbc_string_size(&v[0]);
 632:c_string.c    ****     if( offset < 0 ) goto NIL_RETURN;
 633:c_string.c    **** 
 634:c_string.c    ****   } else {
 635:c_string.c    ****     goto NIL_RETURN;	// raise? ArgumentError
 636:c_string.c    ****   }
 637:c_string.c    **** 
 638:c_string.c    ****   index = mrbc_string_index(&v[0], &v[1], offset);
 639:c_string.c    ****   if( index < 0 ) goto NIL_RETURN;
 640:c_string.c    **** 
 641:c_string.c    ****   SET_INT_RETURN(index);
 642:c_string.c    ****   return;
 643:c_string.c    **** 
 644:c_string.c    ****  NIL_RETURN:
 645:c_string.c    ****   SET_NIL_RETURN();
 646:c_string.c    **** }
 647:c_string.c    **** 
 648:c_string.c    **** 
 649:c_string.c    **** //================================================================
 650:c_string.c    **** /*! (method) inspect
 651:c_string.c    **** */
 652:c_string.c    **** static void c_string_inspect(struct VM *vm, mrbc_value v[], int argc)
 653:c_string.c    **** {
 654:c_string.c    ****   char buf[10] = "\\x";
 655:c_string.c    ****   mrbc_value ret = mrbc_string_new_cstr(vm, "\"");
 656:c_string.c    ****   const unsigned char *s = (const unsigned char *)mrbc_string_cstr(v);
 657:c_string.c    ****   int i;
 658:c_string.c    ****   for( i = 0; i < mrbc_string_size(v); i++ ) {
 659:c_string.c    ****     if( s[i] < ' ' || 0x7f <= s[i] ) {	// tiny isprint()
 660:c_string.c    ****       buf[2] = "0123456789ABCDEF"[s[i] >> 4];
 661:c_string.c    ****       buf[3] = "0123456789ABCDEF"[s[i] & 0x0f];
 662:c_string.c    ****       mrbc_string_append_cstr(&ret, buf);
 663:c_string.c    ****     } else {
 664:c_string.c    ****       buf[3] = s[i];
ARM GAS  C:\Users\164\AppData\Local\Temp\cc3ssgoH.s 			page 14


 665:c_string.c    ****       mrbc_string_append_cstr(&ret, buf+3);
 666:c_string.c    ****     }
 667:c_string.c    ****   }
 668:c_string.c    ****   mrbc_string_append_cstr(&ret, "\"");
 669:c_string.c    **** 
 670:c_string.c    ****   SET_RETURN( ret );
 671:c_string.c    **** }
 672:c_string.c    **** 
 673:c_string.c    **** 
 674:c_string.c    **** //================================================================
 675:c_string.c    **** /*! (method) ord
 676:c_string.c    **** */
 677:c_string.c    **** static void c_string_ord(struct VM *vm, mrbc_value v[], int argc)
 678:c_string.c    **** {
 679:c_string.c    ****   int i = mrbc_string_cstr(v)[0];
 680:c_string.c    **** 
 681:c_string.c    ****   SET_INT_RETURN( i );
 682:c_string.c    **** }
 683:c_string.c    **** 
 684:c_string.c    **** 
 685:c_string.c    **** //================================================================
 686:c_string.c    **** /*! (method) split
 687:c_string.c    **** */
 688:c_string.c    **** static void c_string_split(struct VM *vm, mrbc_value v[], int argc)
 689:c_string.c    **** {
 690:c_string.c    ****   mrbc_value ret = mrbc_array_new(vm, 0);
 691:c_string.c    ****   if( mrbc_string_size(&v[0]) == 0 ) goto DONE;
 692:c_string.c    **** 
 693:c_string.c    ****   // check limit parameter.
 694:c_string.c    ****   int limit = 0;
 695:c_string.c    ****   if( argc >= 2 ) {
 696:c_string.c    ****     if( v[2].tt != MRBC_TT_FIXNUM ) {
 697:c_string.c    ****       console_print( "TypeError\n" );     // raise?
 698:c_string.c    ****       return;
 699:c_string.c    ****     }
 700:c_string.c    ****     limit = v[2].i;
 701:c_string.c    ****     if( limit == 1 ) {
 702:c_string.c    ****       mrbc_array_push( &ret, &v[0] );
 703:c_string.c    ****       mrbc_dup( &v[0] );
 704:c_string.c    ****       goto DONE;
 705:c_string.c    ****     }
 706:c_string.c    ****   }
 707:c_string.c    **** 
 708:c_string.c    ****   // check separator parameter.
 709:c_string.c    ****   mrb_value sep = (argc == 0) ? mrbc_string_new_cstr(vm, " ") : v[1];
 710:c_string.c    ****   switch( sep.tt ) {
 711:c_string.c    ****   case MRBC_TT_NIL:
 712:c_string.c    ****     sep = mrbc_string_new_cstr(vm, " ");
 713:c_string.c    ****     break;
 714:c_string.c    **** 
 715:c_string.c    ****   case MRBC_TT_STRING:
 716:c_string.c    ****     break;
 717:c_string.c    **** 
 718:c_string.c    ****   default:
 719:c_string.c    ****     console_print( "TypeError\n" );     // raise?
 720:c_string.c    ****     return;
 721:c_string.c    ****   }
ARM GAS  C:\Users\164\AppData\Local\Temp\cc3ssgoH.s 			page 15


 722:c_string.c    **** 
 723:c_string.c    ****   int flag_strip = (mrbc_string_cstr(&sep)[0] == ' ') &&
 724:c_string.c    **** 		   (mrbc_string_size(&sep) == 1);
 725:c_string.c    ****   int offset = 0;
 726:c_string.c    ****   int sep_len = mrbc_string_size(&sep);
 727:c_string.c    ****   if( sep_len == 0 ) sep_len++;
 728:c_string.c    **** 
 729:c_string.c    ****   while( 1 ) {
 730:c_string.c    ****     int pos, len;
 731:c_string.c    **** 
 732:c_string.c    ****     if( flag_strip ) {
 733:c_string.c    ****       for( ; offset < mrbc_string_size(&v[0]); offset++ ) {
 734:c_string.c    **** 	if( !is_space( mrbc_string_cstr(&v[0])[offset] )) break;
 735:c_string.c    ****       }
 736:c_string.c    ****       if( offset > mrbc_string_size(&v[0])) break;
 737:c_string.c    ****     }
 738:c_string.c    **** 
 739:c_string.c    ****     // check limit
 740:c_string.c    ****     if( limit > 0 && mrbc_array_size(&ret)+1 >= limit ) {
 741:c_string.c    ****       pos = -1;
 742:c_string.c    ****       goto SPLIT_ITEM;
 743:c_string.c    ****     }
 744:c_string.c    **** 
 745:c_string.c    ****     // split by space character.
 746:c_string.c    ****     if( flag_strip ) {
 747:c_string.c    ****       pos = offset;
 748:c_string.c    ****       for( ; pos < mrbc_string_size(&v[0]); pos++ ) {
 749:c_string.c    **** 	if( is_space( mrbc_string_cstr(&v[0])[pos] )) break;
 750:c_string.c    ****       }
 751:c_string.c    ****       len = pos - offset;
 752:c_string.c    ****       goto SPLIT_ITEM;
 753:c_string.c    ****     }
 754:c_string.c    **** 
 755:c_string.c    ****     // split by each character.
 756:c_string.c    ****     if( mrbc_string_size(&sep) == 0 ) {
 757:c_string.c    ****       pos = (offset < mrbc_string_size(&v[0])-1) ? offset : -1;
 758:c_string.c    ****       len = 1;
 759:c_string.c    ****       goto SPLIT_ITEM;
 760:c_string.c    ****     }
 761:c_string.c    **** 
 762:c_string.c    ****     // split by specified character.
 763:c_string.c    ****     pos = mrbc_string_index( &v[0], &sep, offset );
 764:c_string.c    ****     len = pos - offset;
 765:c_string.c    **** 
 766:c_string.c    **** 
 767:c_string.c    ****   SPLIT_ITEM:
 768:c_string.c    ****     if( pos < 0 ) len = mrbc_string_size(&v[0]) - offset;
 769:c_string.c    **** 
 770:c_string.c    ****     mrb_value v1 = mrbc_string_new(vm, mrbc_string_cstr(&v[0]) + offset, len);
 771:c_string.c    ****     mrbc_array_push( &ret, &v1 );
 772:c_string.c    **** 
 773:c_string.c    ****     if( pos < 0 ) break;
 774:c_string.c    ****     offset = pos + sep_len;
 775:c_string.c    ****   }
 776:c_string.c    **** 
 777:c_string.c    ****   // remove trailing empty item
 778:c_string.c    ****   if( limit == 0 ) {
ARM GAS  C:\Users\164\AppData\Local\Temp\cc3ssgoH.s 			page 16


 779:c_string.c    ****     while( 1 ) {
 780:c_string.c    ****       int idx = mrbc_array_size(&ret) - 1;
 781:c_string.c    ****       if( idx < 0 ) break;
 782:c_string.c    **** 
 783:c_string.c    ****       mrb_value v1 = mrbc_array_get( &ret, idx );
 784:c_string.c    ****       if( mrbc_string_size(&v1) != 0 ) break;
 785:c_string.c    **** 
 786:c_string.c    ****       mrbc_array_remove(&ret, idx);
 787:c_string.c    ****       mrbc_string_delete( &v1 );
 788:c_string.c    ****     }
 789:c_string.c    ****   }
 790:c_string.c    **** 
 791:c_string.c    ****   if( argc == 0 || v[1].tt == MRBC_TT_NIL ) {
 792:c_string.c    ****     mrbc_string_delete(&sep);
 793:c_string.c    ****   }
 794:c_string.c    **** 
 795:c_string.c    ****  DONE:
 796:c_string.c    ****   SET_RETURN( ret );
 797:c_string.c    **** }
 798:c_string.c    **** 
 799:c_string.c    **** 
 800:c_string.c    **** //================================================================
 801:c_string.c    **** /*! (method) sprintf
 802:c_string.c    **** */
 803:c_string.c    **** static void c_object_sprintf(struct VM *vm, mrbc_value v[], int argc)
 804:c_string.c    **** {
 805:c_string.c    ****   static const int BUF_INC_STEP = 32;	// bytes.
 806:c_string.c    **** 
 807:c_string.c    ****   mrbc_value *format = &v[1];
 808:c_string.c    ****   if( format->tt != MRBC_TT_STRING ) {
 809:c_string.c    ****     console_printf( "TypeError\n" );	// raise?
 810:c_string.c    ****     return;
 811:c_string.c    ****   }
 812:c_string.c    **** 
 813:c_string.c    ****   int buflen = BUF_INC_STEP;
 814:c_string.c    ****   char *buf = mrbc_alloc(vm, buflen);
 815:c_string.c    ****   if( !buf ) { return; }	// ENOMEM raise?
 816:c_string.c    **** 
 817:c_string.c    ****   mrbc_printf pf;
 818:c_string.c    ****   mrbc_printf_init( &pf, buf, buflen, mrbc_string_cstr(format) );
 819:c_string.c    **** 
 820:c_string.c    ****   int i = 2;
 821:c_string.c    ****   int ret;
 822:c_string.c    ****   while( 1 ) {
 823:c_string.c    ****     mrbc_printf pf_bak = pf;
 824:c_string.c    ****     ret = mrbc_printf_main( &pf );
 825:c_string.c    ****     if( ret == 0 ) break;	// normal break loop.
 826:c_string.c    ****     if( ret < 0 ) goto INCREASE_BUFFER;
 827:c_string.c    **** 
 828:c_string.c    ****     if( i > argc ) {console_print("ArgumentError\n"); break;}	// raise?
 829:c_string.c    **** 
 830:c_string.c    ****     // maybe ret == 1
 831:c_string.c    ****     switch(pf.fmt.type) {
 832:c_string.c    ****     case 'c':
 833:c_string.c    ****       if( v[i].tt == MRBC_TT_FIXNUM ) {
 834:c_string.c    **** 	ret = mrbc_printf_char( &pf, v[i].i );
 835:c_string.c    ****       }
ARM GAS  C:\Users\164\AppData\Local\Temp\cc3ssgoH.s 			page 17


 836:c_string.c    ****       break;
 837:c_string.c    **** 
 838:c_string.c    ****     case 's':
 839:c_string.c    ****       if( v[i].tt == MRBC_TT_STRING ) {
 840:c_string.c    **** 	ret = mrbc_printf_bstr( &pf, mrbc_string_cstr(&v[i]), mrbc_string_size(&v[i]),' ');
 841:c_string.c    ****       } else if( v[i].tt == MRBC_TT_SYMBOL ) {
 842:c_string.c    **** 	ret = mrbc_printf_str( &pf, mrbc_symbol_cstr( &v[i] ), ' ');
 843:c_string.c    ****       }
 844:c_string.c    ****       break;
 845:c_string.c    **** 
 846:c_string.c    ****     case 'd':
 847:c_string.c    ****     case 'i':
 848:c_string.c    ****     case 'u':
 849:c_string.c    ****       if( v[i].tt == MRBC_TT_FIXNUM ) {
 850:c_string.c    **** 	ret = mrbc_printf_int( &pf, v[i].i, 10);
 851:c_string.c    **** #if MRBC_USE_FLOAT
 852:c_string.c    ****       } else if( v[i].tt == MRBC_TT_FLOAT ) {
 853:c_string.c    **** 	ret = mrbc_printf_int( &pf, (mrbc_int)v[i].d, 10);
 854:c_string.c    **** #endif
 855:c_string.c    ****       } else if( v[i].tt == MRBC_TT_STRING ) {
 856:c_string.c    **** 	mrbc_int ival = atol(mrbc_string_cstr(&v[i]));
 857:c_string.c    **** 	ret = mrbc_printf_int( &pf, ival, 10 );
 858:c_string.c    ****       }
 859:c_string.c    ****       break;
 860:c_string.c    **** 
 861:c_string.c    ****     case 'b':
 862:c_string.c    ****     case 'B':
 863:c_string.c    ****       if( v[i].tt == MRBC_TT_FIXNUM ) {
 864:c_string.c    **** 	ret = mrbc_printf_int( &pf, v[i].i, 2);
 865:c_string.c    ****       }
 866:c_string.c    ****       break;
 867:c_string.c    **** 
 868:c_string.c    ****     case 'x':
 869:c_string.c    ****     case 'X':
 870:c_string.c    ****       if( v[i].tt == MRBC_TT_FIXNUM ) {
 871:c_string.c    **** 	ret = mrbc_printf_int( &pf, v[i].i, 16);
 872:c_string.c    ****       }
 873:c_string.c    ****       break;
 874:c_string.c    **** 
 875:c_string.c    **** #if MRBC_USE_FLOAT
 876:c_string.c    ****     case 'f':
 877:c_string.c    ****     case 'e':
 878:c_string.c    ****     case 'E':
 879:c_string.c    ****     case 'g':
 880:c_string.c    ****     case 'G':
 881:c_string.c    ****       if( v[i].tt == MRBC_TT_FLOAT ) {
 882:c_string.c    **** 	ret = mrbc_printf_float( &pf, v[i].d );
 883:c_string.c    ****       } else
 884:c_string.c    **** 	if( v[i].tt == MRBC_TT_FIXNUM ) {
 885:c_string.c    **** 	  ret = mrbc_printf_float( &pf, v[i].i );
 886:c_string.c    **** 	}
 887:c_string.c    ****       break;
 888:c_string.c    **** #endif
 889:c_string.c    **** 
 890:c_string.c    ****     default:
 891:c_string.c    ****       break;
 892:c_string.c    ****     }
ARM GAS  C:\Users\164\AppData\Local\Temp\cc3ssgoH.s 			page 18


 893:c_string.c    ****     if( ret >= 0 ) {
 894:c_string.c    ****       i++;
 895:c_string.c    ****       continue;		// normal next loop.
 896:c_string.c    ****     }
 897:c_string.c    **** 
 898:c_string.c    ****     // maybe buffer full. (ret == -1)
 899:c_string.c    ****     if( pf.fmt.width > BUF_INC_STEP ) buflen += pf.fmt.width;
 900:c_string.c    ****     pf = pf_bak;
 901:c_string.c    **** 
 902:c_string.c    ****   INCREASE_BUFFER:
 903:c_string.c    ****     buflen += BUF_INC_STEP;
 904:c_string.c    ****     buf = mrbc_realloc(vm, pf.buf, buflen);
 905:c_string.c    ****     if( !buf ) { return; }	// ENOMEM raise? TODO: leak memory.
 906:c_string.c    ****     mrbc_printf_replace_buffer(&pf, buf, buflen);
 907:c_string.c    ****   }
 908:c_string.c    ****   mrbc_printf_end( &pf );
 909:c_string.c    **** 
 910:c_string.c    ****   buflen = mrbc_printf_len( &pf );
 911:c_string.c    ****   mrbc_realloc(vm, pf.buf, buflen+1);	// shrink suitable size.
 912:c_string.c    **** 
 913:c_string.c    ****   mrbc_value value = mrbc_string_new_alloc( vm, pf.buf, buflen );
 914:c_string.c    **** 
 915:c_string.c    ****   SET_RETURN(value);
 916:c_string.c    **** }
 917:c_string.c    **** 
 918:c_string.c    **** 
 919:c_string.c    **** //================================================================
 920:c_string.c    **** /*! (method) printf
 921:c_string.c    **** */
 922:c_string.c    **** static void c_object_printf(struct VM *vm, mrbc_value v[], int argc)
 923:c_string.c    **** {
 924:c_string.c    ****   c_object_sprintf(vm, v, argc);
 925:c_string.c    ****   console_nprint( mrbc_string_cstr(v), mrbc_string_size(v) );
 926:c_string.c    ****   SET_NIL_RETURN();
 927:c_string.c    **** }
 928:c_string.c    **** 
 929:c_string.c    **** 
 930:c_string.c    **** //================================================================
 931:c_string.c    **** /*! (method) lstrip
 932:c_string.c    **** */
 933:c_string.c    **** static void c_string_lstrip(struct VM *vm, mrbc_value v[], int argc)
 934:c_string.c    **** {
 935:c_string.c    ****   mrbc_value ret = mrbc_string_dup(vm, &v[0]);
 936:c_string.c    **** 
 937:c_string.c    ****   mrbc_string_strip(&ret, 0x01);	// 1: left side only
 938:c_string.c    **** 
 939:c_string.c    ****   SET_RETURN(ret);
 940:c_string.c    **** }
 941:c_string.c    **** 
 942:c_string.c    **** 
 943:c_string.c    **** //================================================================
 944:c_string.c    **** /*! (method) lstrip!
 945:c_string.c    **** */
 946:c_string.c    **** static void c_string_lstrip_self(struct VM *vm, mrbc_value v[], int argc)
 947:c_string.c    **** {
 948:c_string.c    ****   if( mrbc_string_strip(&v[0], 0x01) == 0 ) {	// 1: left side only
 949:c_string.c    ****     SET_RETURN( mrbc_nil_value() );
ARM GAS  C:\Users\164\AppData\Local\Temp\cc3ssgoH.s 			page 19


 950:c_string.c    ****   }
 951:c_string.c    **** }
 952:c_string.c    **** 
 953:c_string.c    **** 
 954:c_string.c    **** //================================================================
 955:c_string.c    **** /*! (method) rstrip
 956:c_string.c    **** */
 957:c_string.c    **** static void c_string_rstrip(struct VM *vm, mrbc_value v[], int argc)
 958:c_string.c    **** {
 959:c_string.c    ****   mrbc_value ret = mrbc_string_dup(vm, &v[0]);
 960:c_string.c    **** 
 961:c_string.c    ****   mrbc_string_strip(&ret, 0x02);	// 2: right side only
 962:c_string.c    **** 
 963:c_string.c    ****   SET_RETURN(ret);
 964:c_string.c    **** }
 965:c_string.c    **** 
 966:c_string.c    **** 
 967:c_string.c    **** //================================================================
 968:c_string.c    **** /*! (method) rstrip!
 969:c_string.c    **** */
 970:c_string.c    **** static void c_string_rstrip_self(struct VM *vm, mrbc_value v[], int argc)
 971:c_string.c    **** {
 972:c_string.c    ****   if( mrbc_string_strip(&v[0], 0x02) == 0 ) {	// 2: right side only
 973:c_string.c    ****     SET_RETURN( mrbc_nil_value() );
 974:c_string.c    ****   }
 975:c_string.c    **** }
 976:c_string.c    **** 
 977:c_string.c    **** 
 978:c_string.c    **** //================================================================
 979:c_string.c    **** /*! (method) strip
 980:c_string.c    **** */
 981:c_string.c    **** static void c_string_strip(struct VM *vm, mrbc_value v[], int argc)
 982:c_string.c    **** {
 983:c_string.c    ****   mrbc_value ret = mrbc_string_dup(vm, &v[0]);
 984:c_string.c    **** 
 985:c_string.c    ****   mrbc_string_strip(&ret, 0x03);	// 3: left and right
 986:c_string.c    **** 
 987:c_string.c    ****   SET_RETURN(ret);
 988:c_string.c    **** }
 989:c_string.c    **** 
 990:c_string.c    **** 
 991:c_string.c    **** //================================================================
 992:c_string.c    **** /*! (method) strip!
 993:c_string.c    **** */
 994:c_string.c    **** static void c_string_strip_self(struct VM *vm, mrbc_value v[], int argc)
 995:c_string.c    **** {
 996:c_string.c    ****   if( mrbc_string_strip(&v[0], 0x03) == 0 ) {	// 3: left and right
 997:c_string.c    ****     SET_RETURN( mrbc_nil_value() );
 998:c_string.c    ****   }
 999:c_string.c    **** }
1000:c_string.c    **** 
1001:c_string.c    **** 
1002:c_string.c    **** //================================================================
1003:c_string.c    **** /*! (method) to_sym
1004:c_string.c    **** */
1005:c_string.c    **** static void c_string_to_sym(struct VM *vm, mrbc_value v[], int argc)
1006:c_string.c    **** {
ARM GAS  C:\Users\164\AppData\Local\Temp\cc3ssgoH.s 			page 20


1007:c_string.c    ****   mrbc_value ret = mrbc_symbol_new(vm, mrbc_string_cstr(&v[0]));
1008:c_string.c    **** 
1009:c_string.c    ****   SET_RETURN(ret);
1010:c_string.c    **** }
1011:c_string.c    **** 
1012:c_string.c    **** 
1013:c_string.c    **** //================================================================
1014:c_string.c    **** /*! (method) tr
1015:c_string.c    **** 
1016:c_string.c    ****   Pattern syntax
1017:c_string.c    **** 
1018:c_string.c    ****   <syntax> ::= (<pattern>)* | '^' (<pattern>)*
1019:c_string.c    ****   <pattern> ::= <in order> | <range>
1020:c_string.c    ****   <in order> ::= (<ch>)+
1021:c_string.c    ****   <range> ::= <ch> '-' <ch>
1022:c_string.c    **** */
1023:c_string.c    **** struct tr_pattern {
1024:c_string.c    ****   uint8_t type;		// 1:in-order, 2:range
1025:c_string.c    ****   uint8_t flag_reverse;
1026:c_string.c    ****   int16_t n;
1027:c_string.c    ****   struct tr_pattern *next;
1028:c_string.c    ****   char ch[];
1029:c_string.c    **** };
1030:c_string.c    **** 
1031:c_string.c    **** static void tr_free_pattern( struct tr_pattern *pat )
1032:c_string.c    **** {
1033:c_string.c    ****   while( pat ) {
1034:c_string.c    ****     struct tr_pattern *p = pat->next;
1035:c_string.c    ****     mrbc_raw_free( pat );
1036:c_string.c    ****     pat = p;
1037:c_string.c    ****   }
1038:c_string.c    **** }
1039:c_string.c    **** 
1040:c_string.c    **** static struct tr_pattern * tr_parse_pattern( struct VM *vm, const mrb_value *v_pattern, int flag_re
1041:c_string.c    **** {
1042:c_string.c    ****   const char *pattern = mrbc_string_cstr( v_pattern );
1043:c_string.c    ****   int pattern_length = mrbc_string_size( v_pattern );
1044:c_string.c    ****   int flag_reverse = 0;
1045:c_string.c    ****   struct tr_pattern *ret = NULL;
1046:c_string.c    **** 
1047:c_string.c    ****   int i = 0;
1048:c_string.c    ****   if( flag_reverse_enable && pattern_length >= 2 && pattern[i] == '^' ) {
1049:c_string.c    ****     flag_reverse = 1;
1050:c_string.c    ****     i++;
1051:c_string.c    ****   }
1052:c_string.c    **** 
1053:c_string.c    ****   struct tr_pattern *pat1;
1054:c_string.c    ****   while( i < pattern_length ) {
1055:c_string.c    ****     // is range pattern ?
1056:c_string.c    ****     if( (i+2) < pattern_length && pattern[i+1] == '-' ) {
1057:c_string.c    ****       pat1 = mrbc_alloc( vm, sizeof(struct tr_pattern) + 2 );
1058:c_string.c    ****       if( pat1 != NULL ) {
1059:c_string.c    **** 	pat1->type = 2;
1060:c_string.c    **** 	pat1->flag_reverse = flag_reverse;
1061:c_string.c    **** 	pat1->n = pattern[i+2] - pattern[i] + 1;
1062:c_string.c    **** 	pat1->next = NULL;
1063:c_string.c    **** 	pat1->ch[0] = pattern[i];
ARM GAS  C:\Users\164\AppData\Local\Temp\cc3ssgoH.s 			page 21


1064:c_string.c    **** 	pat1->ch[1] = pattern[i+2];
1065:c_string.c    ****       }
1066:c_string.c    ****       i += 3;
1067:c_string.c    **** 
1068:c_string.c    ****     } else {
1069:c_string.c    ****       // in order pattern.
1070:c_string.c    ****       int start_pos = i++;
1071:c_string.c    ****       while( i < pattern_length ) {
1072:c_string.c    **** 	if( (i+2) < pattern_length && pattern[i+1] == '-' ) break;
1073:c_string.c    **** 	i++;
1074:c_string.c    ****       }
1075:c_string.c    **** 
1076:c_string.c    ****       int len = i - start_pos;
1077:c_string.c    ****       pat1 = mrbc_alloc( vm, sizeof(struct tr_pattern) + len );
1078:c_string.c    ****       if( pat1 != NULL ) {
1079:c_string.c    **** 	pat1->type = 1;
1080:c_string.c    **** 	pat1->flag_reverse = flag_reverse;
1081:c_string.c    **** 	pat1->n = len;
1082:c_string.c    **** 	pat1->next = NULL;
1083:c_string.c    **** 	memcpy( pat1->ch, &pattern[start_pos], len );
1084:c_string.c    ****       }
1085:c_string.c    ****     }
1086:c_string.c    **** 
1087:c_string.c    ****     // connect linked list.
1088:c_string.c    ****     if( ret == NULL ) {
1089:c_string.c    ****       ret = pat1;
1090:c_string.c    ****     } else {
1091:c_string.c    ****       struct tr_pattern *p = ret;
1092:c_string.c    ****       while( p->next != NULL ) { p = p->next; }
1093:c_string.c    ****       p->next = pat1;
1094:c_string.c    ****     }
1095:c_string.c    ****   }
1096:c_string.c    **** 
1097:c_string.c    ****   return ret;
1098:c_string.c    **** }
1099:c_string.c    **** 
1100:c_string.c    **** static int tr_find_character( const struct tr_pattern *pat, int ch )
1101:c_string.c    **** {
  75              		.loc 1 1101 0
  76              		.cfi_startproc
  77              		@ args = 0, pretend = 0, frame = 0
  78              		@ frame_needed = 0, uses_anonymous_args = 0
  79              		@ link register save eliminated.
  80              	.LVL6:
  81 0000 70B4     		push	{r4, r5, r6}
  82              		.cfi_def_cfa_offset 12
  83              		.cfi_offset 4, -12
  84              		.cfi_offset 5, -8
  85              		.cfi_offset 6, -4
  86              	.LVL7:
1102:c_string.c    ****   int ret = -1;
1103:c_string.c    ****   int n_sum = 0;
1104:c_string.c    ****   int flag_reverse = pat ? pat->flag_reverse : 0;
  87              		.loc 1 1104 0
  88 0002 0246     		mov	r2, r0
  89 0004 08B1     		cbz	r0, .L18
  90              		.loc 1 1104 0 is_stmt 0 discriminator 1
ARM GAS  C:\Users\164\AppData\Local\Temp\cc3ssgoH.s 			page 22


  91 0006 4678     		ldrb	r6, [r0, #1]	@ zero_extendqisi2
  92 0008 00E0     		b	.L9
  93              	.L18:
  94              		.loc 1 1104 0
  95 000a 0026     		movs	r6, #0
  96              	.L9:
  97              	.LVL8:
1103:c_string.c    ****   int flag_reverse = pat ? pat->flag_reverse : 0;
  98              		.loc 1 1103 0 is_stmt 1 discriminator 4
  99 000c 0025     		movs	r5, #0
1102:c_string.c    ****   int ret = -1;
 100              		.loc 1 1102 0 discriminator 4
 101 000e 4FF0FF30 		mov	r0, #-1
 102              	.LVL9:
1105:c_string.c    **** 
1106:c_string.c    ****   while( pat != NULL ) {
 103              		.loc 1 1106 0 discriminator 4
 104 0012 1CE0     		b	.L10
 105              	.LVL10:
 106              	.L16:
1107:c_string.c    ****     if( pat->type == 1 ) {	// in-order
 107              		.loc 1 1107 0
 108 0014 1378     		ldrb	r3, [r2]	@ zero_extendqisi2
 109 0016 012B     		cmp	r3, #1
 110 0018 0DD1     		bne	.L22
 111 001a 06E0     		b	.L19
 112              	.LVL11:
 113              	.L14:
 114              	.LBB159:
1108:c_string.c    ****       int i;
1109:c_string.c    ****       for( i = 0; i < pat->n; i++ ) {
1110:c_string.c    **** 	if( pat->ch[i] == ch ) ret = n_sum + i;
 115              		.loc 1 1110 0
 116 001c D418     		adds	r4, r2, r3
 117 001e 247A     		ldrb	r4, [r4, #8]	@ zero_extendqisi2
 118 0020 8C42     		cmp	r4, r1
 119 0022 00D1     		bne	.L13
 120              		.loc 1 1110 0 is_stmt 0 discriminator 1
 121 0024 E818     		adds	r0, r5, r3
 122              	.LVL12:
 123              	.L13:
1109:c_string.c    **** 	if( pat->ch[i] == ch ) ret = n_sum + i;
 124              		.loc 1 1109 0 is_stmt 1 discriminator 2
 125 0026 0133     		adds	r3, r3, #1
 126              	.LVL13:
 127 0028 00E0     		b	.L11
 128              	.LVL14:
 129              	.L19:
 130              	.LBE159:
 131 002a 0023     		movs	r3, #0
 132              	.L11:
 133              	.LVL15:
 134              	.LBB160:
1109:c_string.c    **** 	if( pat->ch[i] == ch ) ret = n_sum + i;
 135              		.loc 1 1109 0 is_stmt 0 discriminator 1
 136 002c B2F90240 		ldrsh	r4, [r2, #2]
 137 0030 A342     		cmp	r3, r4
ARM GAS  C:\Users\164\AppData\Local\Temp\cc3ssgoH.s 			page 23


 138 0032 F3DB     		blt	.L14
 139 0034 07E0     		b	.L15
 140              	.LVL16:
 141              	.L22:
 142              	.LBE160:
1111:c_string.c    ****       }
1112:c_string.c    ****     } else {	// pat->type == 2  range
1113:c_string.c    ****       if( pat->ch[0] <= ch && ch <= pat->ch[1] ) ret = n_sum + ch - pat->ch[0];
 143              		.loc 1 1113 0 is_stmt 1
 144 0036 137A     		ldrb	r3, [r2, #8]	@ zero_extendqisi2
 145 0038 9942     		cmp	r1, r3
 146 003a 04DB     		blt	.L15
 147              		.loc 1 1113 0 is_stmt 0 discriminator 1
 148 003c 547A     		ldrb	r4, [r2, #9]	@ zero_extendqisi2
 149 003e A142     		cmp	r1, r4
 150 0040 01DC     		bgt	.L15
 151              		.loc 1 1113 0 discriminator 2
 152 0042 6818     		adds	r0, r5, r1
 153              	.LVL17:
 154 0044 C01A     		subs	r0, r0, r3
 155              	.LVL18:
 156              	.L15:
1114:c_string.c    ****     }
1115:c_string.c    ****     n_sum += pat->n;
 157              		.loc 1 1115 0 is_stmt 1
 158 0046 B2F90230 		ldrsh	r3, [r2, #2]
 159 004a 1D44     		add	r5, r5, r3
 160              	.LVL19:
1116:c_string.c    ****     pat = pat->next;
 161              		.loc 1 1116 0
 162 004c 5268     		ldr	r2, [r2, #4]
 163              	.LVL20:
 164              	.L10:
1106:c_string.c    ****     if( pat->type == 1 ) {	// in-order
 165              		.loc 1 1106 0
 166 004e 002A     		cmp	r2, #0
 167 0050 E0D1     		bne	.L16
1117:c_string.c    ****   }
1118:c_string.c    **** 
1119:c_string.c    ****   if( flag_reverse ) {
 168              		.loc 1 1119 0
 169 0052 36B1     		cbz	r6, .L17
1120:c_string.c    ****     return (ret < 0) ? INT_MAX : -1;
 170              		.loc 1 1120 0
 171 0054 0028     		cmp	r0, #0
 172 0056 02DA     		bge	.L21
 173 0058 6FF00040 		mvn	r0, #-2147483648
 174              	.LVL21:
 175 005c 01E0     		b	.L17
 176              	.LVL22:
 177              	.L21:
 178 005e 4FF0FF30 		mov	r0, #-1
 179              	.LVL23:
 180              	.L17:
1121:c_string.c    ****   }
1122:c_string.c    ****   return ret;
1123:c_string.c    **** }
ARM GAS  C:\Users\164\AppData\Local\Temp\cc3ssgoH.s 			page 24


 181              		.loc 1 1123 0
 182 0062 70BC     		pop	{r4, r5, r6}
 183              		.cfi_restore 6
 184              		.cfi_restore 5
 185              		.cfi_restore 4
 186              		.cfi_def_cfa_offset 0
 187              	.LVL24:
 188 0064 7047     		bx	lr
 189              		.cfi_endproc
 190              	.LFE125:
 191              		.size	tr_find_character, .-tr_find_character
 192 0066 00BF     		.section	.text.tr_get_character,"ax",%progbits
 193              		.align	2
 194              		.thumb
 195              		.thumb_func
 196              		.type	tr_get_character, %function
 197              	tr_get_character:
 198              	.LFB126:
1124:c_string.c    **** 
1125:c_string.c    **** static int tr_get_character( const struct tr_pattern *pat, int n_th )
1126:c_string.c    **** {
 199              		.loc 1 1126 0
 200              		.cfi_startproc
 201              		@ args = 0, pretend = 0, frame = 0
 202              		@ frame_needed = 0, uses_anonymous_args = 0
 203              		@ link register save eliminated.
 204              	.LVL25:
 205 0000 30B4     		push	{r4, r5}
 206              		.cfi_def_cfa_offset 8
 207              		.cfi_offset 4, -8
 208              		.cfi_offset 5, -4
 209              	.LVL26:
1127:c_string.c    ****   int n_sum = 0;
 210              		.loc 1 1127 0
 211 0002 0024     		movs	r4, #0
1128:c_string.c    ****   while( pat != NULL ) {
 212              		.loc 1 1128 0
 213 0004 1BE0     		b	.L25
 214              	.LVL27:
 215              	.L30:
1129:c_string.c    ****     if( n_th < (n_sum + pat->n) ) {
 216              		.loc 1 1129 0
 217 0006 B0F90250 		ldrsh	r5, [r0, #2]
 218 000a 6319     		adds	r3, r4, r5
 219 000c 8B42     		cmp	r3, r1
 220 000e 09DD     		ble	.L26
 221              	.LBB161:
1130:c_string.c    ****       int i = (n_th - n_sum);
 222              		.loc 1 1130 0
 223 0010 091B     		subs	r1, r1, r4
 224              	.LVL28:
1131:c_string.c    ****       return (pat->type == 1) ? pat->ch[i] :pat->ch[0] + i;
 225              		.loc 1 1131 0
 226 0012 0378     		ldrb	r3, [r0]	@ zero_extendqisi2
 227 0014 012B     		cmp	r3, #1
 228 0016 02D1     		bne	.L27
 229              		.loc 1 1131 0 is_stmt 0 discriminator 1
ARM GAS  C:\Users\164\AppData\Local\Temp\cc3ssgoH.s 			page 25


 230 0018 0144     		add	r1, r1, r0
 231              	.LVL29:
 232 001a 087A     		ldrb	r0, [r1, #8]	@ zero_extendqisi2
 233              	.LVL30:
 234 001c 13E0     		b	.L28
 235              	.LVL31:
 236              	.L27:
 237              		.loc 1 1131 0 discriminator 2
 238 001e 007A     		ldrb	r0, [r0, #8]	@ zero_extendqisi2
 239              	.LVL32:
 240 0020 0844     		add	r0, r0, r1
 241 0022 10E0     		b	.L28
 242              	.LVL33:
 243              	.L26:
 244              	.LBE161:
1132:c_string.c    ****     }
1133:c_string.c    ****     if( pat->next == NULL ) {
 245              		.loc 1 1133 0 is_stmt 1
 246 0024 4268     		ldr	r2, [r0, #4]
 247 0026 42B9     		cbnz	r2, .L31
1134:c_string.c    ****       return (pat->type == 1) ? pat->ch[pat->n - 1] : pat->ch[1];
 248              		.loc 1 1134 0
 249 0028 0378     		ldrb	r3, [r0]	@ zero_extendqisi2
 250 002a 012B     		cmp	r3, #1
 251 002c 03D1     		bne	.L29
 252              		.loc 1 1134 0 is_stmt 0 discriminator 1
 253 002e 013D     		subs	r5, r5, #1
 254 0030 2844     		add	r0, r0, r5
 255              	.LVL34:
 256 0032 007A     		ldrb	r0, [r0, #8]	@ zero_extendqisi2
 257 0034 07E0     		b	.L28
 258              	.LVL35:
 259              	.L29:
 260              		.loc 1 1134 0 discriminator 2
 261 0036 407A     		ldrb	r0, [r0, #9]	@ zero_extendqisi2
 262              	.LVL36:
 263 0038 05E0     		b	.L28
 264              	.LVL37:
 265              	.L31:
1135:c_string.c    ****     }
1136:c_string.c    ****     n_sum += pat->n;
 266              		.loc 1 1136 0 is_stmt 1
 267 003a 1C46     		mov	r4, r3
 268              	.LVL38:
1137:c_string.c    ****     pat = pat->next;
 269              		.loc 1 1137 0
 270 003c 1046     		mov	r0, r2
 271              	.LVL39:
 272              	.L25:
1128:c_string.c    ****     if( n_th < (n_sum + pat->n) ) {
 273              		.loc 1 1128 0
 274 003e 0028     		cmp	r0, #0
 275 0040 E1D1     		bne	.L30
1138:c_string.c    ****   }
1139:c_string.c    **** 
1140:c_string.c    ****   return -1;
 276              		.loc 1 1140 0
ARM GAS  C:\Users\164\AppData\Local\Temp\cc3ssgoH.s 			page 26


 277 0042 4FF0FF30 		mov	r0, #-1
 278              	.LVL40:
 279              	.L28:
1141:c_string.c    **** }
 280              		.loc 1 1141 0
 281 0046 30BC     		pop	{r4, r5}
 282              		.cfi_restore 5
 283              		.cfi_restore 4
 284              		.cfi_def_cfa_offset 0
 285              	.LVL41:
 286 0048 7047     		bx	lr
 287              		.cfi_endproc
 288              	.LFE126:
 289              		.size	tr_get_character, .-tr_get_character
 290 004a 00BF     		.section	.text.tr_free_pattern,"ax",%progbits
 291              		.align	2
 292              		.thumb
 293              		.thumb_func
 294              		.type	tr_free_pattern, %function
 295              	tr_free_pattern:
 296              	.LFB123:
1032:c_string.c    ****   while( pat ) {
 297              		.loc 1 1032 0
 298              		.cfi_startproc
 299              		@ args = 0, pretend = 0, frame = 0
 300              		@ frame_needed = 0, uses_anonymous_args = 0
 301              	.LVL42:
 302 0000 10B5     		push	{r4, lr}
 303              		.cfi_def_cfa_offset 8
 304              		.cfi_offset 4, -8
 305              		.cfi_offset 14, -4
1033:c_string.c    ****     struct tr_pattern *p = pat->next;
 306              		.loc 1 1033 0
 307 0002 03E0     		b	.L34
 308              	.L35:
 309              	.LBB162:
1034:c_string.c    ****     mrbc_raw_free( pat );
 310              		.loc 1 1034 0
 311 0004 4468     		ldr	r4, [r0, #4]
 312              	.LVL43:
1035:c_string.c    ****     pat = p;
 313              		.loc 1 1035 0
 314 0006 FFF7FEFF 		bl	mrbc_raw_free
 315              	.LVL44:
1036:c_string.c    ****   }
 316              		.loc 1 1036 0
 317 000a 2046     		mov	r0, r4
 318              	.LVL45:
 319              	.L34:
 320              	.LBE162:
1033:c_string.c    ****     struct tr_pattern *p = pat->next;
 321              		.loc 1 1033 0
 322 000c 0028     		cmp	r0, #0
 323 000e F9D1     		bne	.L35
1038:c_string.c    **** 
 324              		.loc 1 1038 0
 325 0010 10BD     		pop	{r4, pc}
ARM GAS  C:\Users\164\AppData\Local\Temp\cc3ssgoH.s 			page 27


 326              		.cfi_endproc
 327              	.LFE123:
 328              		.size	tr_free_pattern, .-tr_free_pattern
 329 0012 00BF     		.section	.text.tr_parse_pattern,"ax",%progbits
 330              		.align	2
 331              		.thumb
 332              		.thumb_func
 333              		.type	tr_parse_pattern, %function
 334              	tr_parse_pattern:
 335              	.LFB124:
1041:c_string.c    ****   const char *pattern = mrbc_string_cstr( v_pattern );
 336              		.loc 1 1041 0
 337              		.cfi_startproc
 338              		@ args = 0, pretend = 0, frame = 8
 339              		@ frame_needed = 0, uses_anonymous_args = 0
 340              	.LVL46:
 341 0000 2DE9F04F 		push	{r4, r5, r6, r7, r8, r9, r10, fp, lr}
 342              		.cfi_def_cfa_offset 36
 343              		.cfi_offset 4, -36
 344              		.cfi_offset 5, -32
 345              		.cfi_offset 6, -28
 346              		.cfi_offset 7, -24
 347              		.cfi_offset 8, -20
 348              		.cfi_offset 9, -16
 349              		.cfi_offset 10, -12
 350              		.cfi_offset 11, -8
 351              		.cfi_offset 14, -4
 352 0004 83B0     		sub	sp, sp, #12
 353              		.cfi_def_cfa_offset 48
 354 0006 0190     		str	r0, [sp, #4]
 355              	.LVL47:
 356              	.LBB163:
 357              	.LBB164:
 358              		.file 2 "c_string.h"
   1:c_string.h    **** /*! @file
   2:c_string.h    ****   @brief
   3:c_string.h    ****   mruby/c String object
   4:c_string.h    **** 
   5:c_string.h    ****   <pre>
   6:c_string.h    ****   Copyright (C) 2015-2018 Kyushu Institute of Technology.
   7:c_string.h    ****   Copyright (C) 2015-2018 Shimane IT Open-Innovation Center.
   8:c_string.h    **** 
   9:c_string.h    ****   This file is distributed under BSD 3-Clause License.
  10:c_string.h    **** 
  11:c_string.h    ****   </pre>
  12:c_string.h    **** */
  13:c_string.h    **** 
  14:c_string.h    **** #ifndef MRBC_SRC_C_STRING_H_
  15:c_string.h    **** #define MRBC_SRC_C_STRING_H_
  16:c_string.h    **** 
  17:c_string.h    **** #include <stdint.h>
  18:c_string.h    **** #include <string.h>
  19:c_string.h    **** #include "value.h"
  20:c_string.h    **** 
  21:c_string.h    **** #ifdef __cplusplus
  22:c_string.h    **** extern "C" {
  23:c_string.h    **** #endif
ARM GAS  C:\Users\164\AppData\Local\Temp\cc3ssgoH.s 			page 28


  24:c_string.h    **** 
  25:c_string.h    **** //================================================================
  26:c_string.h    **** /*!@brief
  27:c_string.h    ****   Define String handle.
  28:c_string.h    **** */
  29:c_string.h    **** typedef struct RString {
  30:c_string.h    ****   MRBC_OBJECT_HEADER;
  31:c_string.h    **** 
  32:c_string.h    ****   uint16_t size;	//!< string length.
  33:c_string.h    ****   uint8_t *data;	//!< pointer to allocated buffer.
  34:c_string.h    **** 
  35:c_string.h    **** } mrbc_string;
  36:c_string.h    **** 
  37:c_string.h    **** 
  38:c_string.h    **** mrbc_value mrbc_string_new(struct VM *vm, const void *src, int len);
  39:c_string.h    **** mrbc_value mrbc_string_new_cstr(struct VM *vm, const char *src);
  40:c_string.h    **** mrbc_value mrbc_string_new_alloc(struct VM *vm, void *buf, int len);
  41:c_string.h    **** void mrbc_string_delete(mrbc_value *str);
  42:c_string.h    **** void mrbc_string_clear_vm_id(mrbc_value *str);
  43:c_string.h    **** mrbc_value mrbc_string_dup(struct VM *vm, mrbc_value *s1);
  44:c_string.h    **** mrbc_value mrbc_string_add(struct VM *vm, const mrbc_value *s1, const mrbc_value *s2);
  45:c_string.h    **** int mrbc_string_append(mrbc_value *s1, const mrbc_value *s2);
  46:c_string.h    **** int mrbc_string_append_cstr(mrbc_value *s1, const char *s2);
  47:c_string.h    **** int mrbc_string_index(const mrbc_value *src, const mrbc_value *pattern, int offset);
  48:c_string.h    **** int mrbc_string_strip(mrbc_value *src, int mode);
  49:c_string.h    **** int mrbc_string_chomp(mrbc_value *src);
  50:c_string.h    **** void mrbc_init_class_string(struct VM *vm);
  51:c_string.h    **** 
  52:c_string.h    **** 
  53:c_string.h    **** //================================================================
  54:c_string.h    **** /*! compare
  55:c_string.h    **** */
  56:c_string.h    **** static inline int mrbc_string_compare(const mrbc_value *v1, const mrbc_value *v2)
  57:c_string.h    **** {
  58:c_string.h    ****   int len = (v1->string->size < v2->string->size) ?
  59:c_string.h    ****     v1->string->size : v2->string->size;
  60:c_string.h    **** 
  61:c_string.h    ****   int res = memcmp(v1->string->data, v2->string->data, len);
  62:c_string.h    ****   if( res != 0 ) return res;
  63:c_string.h    **** 
  64:c_string.h    ****   return v1->string->size - v2->string->size;
  65:c_string.h    **** }
  66:c_string.h    **** 
  67:c_string.h    **** //================================================================
  68:c_string.h    **** /*! get size
  69:c_string.h    **** */
  70:c_string.h    **** static inline int mrbc_string_size(const mrbc_value *str)
  71:c_string.h    **** {
  72:c_string.h    ****   return str->string->size;
  73:c_string.h    **** }
  74:c_string.h    **** 
  75:c_string.h    **** //================================================================
  76:c_string.h    **** /*! get c-language string (char *)
  77:c_string.h    **** */
  78:c_string.h    **** static inline char * mrbc_string_cstr(const mrbc_value *v)
  79:c_string.h    **** {
  80:c_string.h    ****   return (char*)v->string->data;
ARM GAS  C:\Users\164\AppData\Local\Temp\cc3ssgoH.s 			page 29


 359              		.loc 2 80 0
 360 0008 8B68     		ldr	r3, [r1, #8]
 361 000a 9E68     		ldr	r6, [r3, #8]
 362              	.LVL48:
 363              	.LBE164:
 364              	.LBE163:
 365              	.LBB165:
 366              	.LBB166:
  72:c_string.h    **** }
 367              		.loc 2 72 0
 368 000c 9D88     		ldrh	r5, [r3, #4]
 369              	.LVL49:
 370              	.LBE166:
 371              	.LBE165:
1048:c_string.c    ****     flag_reverse = 1;
 372              		.loc 1 1048 0
 373 000e 3AB1     		cbz	r2, .L50
1048:c_string.c    ****     flag_reverse = 1;
 374              		.loc 1 1048 0 is_stmt 0 discriminator 1
 375 0010 012D     		cmp	r5, #1
 376 0012 08DD     		ble	.L51
1048:c_string.c    ****     flag_reverse = 1;
 377              		.loc 1 1048 0 discriminator 2
 378 0014 3378     		ldrb	r3, [r6]	@ zero_extendqisi2
 379 0016 5E2B     		cmp	r3, #94
 380 0018 08D0     		beq	.L52
1047:c_string.c    ****   if( flag_reverse_enable && pattern_length >= 2 && pattern[i] == '^' ) {
 381              		.loc 1 1047 0 is_stmt 1
 382 001a 0027     		movs	r7, #0
1044:c_string.c    ****   struct tr_pattern *ret = NULL;
 383              		.loc 1 1044 0
 384 001c BB46     		mov	fp, r7
 385 001e 07E0     		b	.L38
 386              	.L50:
1047:c_string.c    ****   if( flag_reverse_enable && pattern_length >= 2 && pattern[i] == '^' ) {
 387              		.loc 1 1047 0
 388 0020 0027     		movs	r7, #0
1044:c_string.c    ****   struct tr_pattern *ret = NULL;
 389              		.loc 1 1044 0
 390 0022 BB46     		mov	fp, r7
 391 0024 04E0     		b	.L38
 392              	.L51:
1047:c_string.c    ****   if( flag_reverse_enable && pattern_length >= 2 && pattern[i] == '^' ) {
 393              		.loc 1 1047 0
 394 0026 0027     		movs	r7, #0
1044:c_string.c    ****   struct tr_pattern *ret = NULL;
 395              		.loc 1 1044 0
 396 0028 BB46     		mov	fp, r7
 397 002a 01E0     		b	.L38
 398              	.L52:
1050:c_string.c    ****   }
 399              		.loc 1 1050 0
 400 002c 0127     		movs	r7, #1
1049:c_string.c    ****     i++;
 401              		.loc 1 1049 0
 402 002e BB46     		mov	fp, r7
 403              	.L38:
ARM GAS  C:\Users\164\AppData\Local\Temp\cc3ssgoH.s 			page 30


1089:c_string.c    ****     } else {
 404              		.loc 1 1089 0
 405 0030 4FF0000A 		mov	r10, #0
 406 0034 4EE0     		b	.L39
 407              	.LVL50:
 408              	.L49:
1056:c_string.c    ****       pat1 = mrbc_alloc( vm, sizeof(struct tr_pattern) + 2 );
 409              		.loc 1 1056 0
 410 0036 BB1C     		adds	r3, r7, #2
 411 0038 AB42     		cmp	r3, r5
 412 003a 1BDA     		bge	.L40
1056:c_string.c    ****       pat1 = mrbc_alloc( vm, sizeof(struct tr_pattern) + 2 );
 413              		.loc 1 1056 0 is_stmt 0 discriminator 1
 414 003c 7B1C     		adds	r3, r7, #1
 415 003e F35C     		ldrb	r3, [r6, r3]	@ zero_extendqisi2
 416 0040 2D2B     		cmp	r3, #45
 417 0042 17D1     		bne	.L40
1057:c_string.c    ****       if( pat1 != NULL ) {
 418              		.loc 1 1057 0 is_stmt 1
 419 0044 0A21     		movs	r1, #10
 420 0046 0198     		ldr	r0, [sp, #4]
 421 0048 FFF7FEFF 		bl	mrbc_alloc
 422              	.LVL51:
1058:c_string.c    **** 	pat1->type = 2;
 423              		.loc 1 1058 0
 424 004c 8046     		mov	r8, r0
 425 004e 78B1     		cbz	r0, .L41
1059:c_string.c    **** 	pat1->flag_reverse = flag_reverse;
 426              		.loc 1 1059 0
 427 0050 0223     		movs	r3, #2
 428 0052 0370     		strb	r3, [r0]
1060:c_string.c    **** 	pat1->n = pattern[i+2] - pattern[i] + 1;
 429              		.loc 1 1060 0
 430 0054 80F801B0 		strb	fp, [r0, #1]
1061:c_string.c    **** 	pat1->next = NULL;
 431              		.loc 1 1061 0
 432 0058 FA18     		adds	r2, r7, r3
 433 005a B35C     		ldrb	r3, [r6, r2]	@ zero_extendqisi2
 434 005c F15D     		ldrb	r1, [r6, r7]	@ zero_extendqisi2
 435 005e 5B1A     		subs	r3, r3, r1
 436 0060 0133     		adds	r3, r3, #1
 437 0062 4380     		strh	r3, [r0, #2]	@ movhi
1062:c_string.c    **** 	pat1->ch[0] = pattern[i];
 438              		.loc 1 1062 0
 439 0064 0023     		movs	r3, #0
 440 0066 4360     		str	r3, [r0, #4]
1063:c_string.c    **** 	pat1->ch[1] = pattern[i+2];
 441              		.loc 1 1063 0
 442 0068 F35D     		ldrb	r3, [r6, r7]	@ zero_extendqisi2
 443 006a 0372     		strb	r3, [r0, #8]
1064:c_string.c    ****       }
 444              		.loc 1 1064 0
 445 006c B35C     		ldrb	r3, [r6, r2]	@ zero_extendqisi2
 446 006e 4372     		strb	r3, [r0, #9]
 447              	.L41:
1066:c_string.c    **** 
 448              		.loc 1 1066 0
ARM GAS  C:\Users\164\AppData\Local\Temp\cc3ssgoH.s 			page 31


 449 0070 FC1C     		adds	r4, r7, #3
 450              	.LVL52:
 451 0072 21E0     		b	.L42
 452              	.LVL53:
 453              	.L40:
 454              	.LBB167:
1070:c_string.c    ****       while( i < pattern_length ) {
 455              		.loc 1 1070 0
 456 0074 7C1C     		adds	r4, r7, #1
 457              	.LVL54:
1071:c_string.c    **** 	if( (i+2) < pattern_length && pattern[i+1] == '-' ) break;
 458              		.loc 1 1071 0
 459 0076 07E0     		b	.L43
 460              	.L46:
1072:c_string.c    **** 	i++;
 461              		.loc 1 1072 0
 462 0078 A31C     		adds	r3, r4, #2
 463 007a AB42     		cmp	r3, r5
 464 007c 03DA     		bge	.L44
1072:c_string.c    **** 	i++;
 465              		.loc 1 1072 0 is_stmt 0 discriminator 1
 466 007e 631C     		adds	r3, r4, #1
 467 0080 F35C     		ldrb	r3, [r6, r3]	@ zero_extendqisi2
 468 0082 2D2B     		cmp	r3, #45
 469 0084 02D0     		beq	.L45
 470              	.L44:
1073:c_string.c    ****       }
 471              		.loc 1 1073 0 is_stmt 1
 472 0086 0134     		adds	r4, r4, #1
 473              	.LVL55:
 474              	.L43:
1071:c_string.c    **** 	if( (i+2) < pattern_length && pattern[i+1] == '-' ) break;
 475              		.loc 1 1071 0
 476 0088 AC42     		cmp	r4, r5
 477 008a F5DB     		blt	.L46
 478              	.L45:
1076:c_string.c    ****       pat1 = mrbc_alloc( vm, sizeof(struct tr_pattern) + len );
 479              		.loc 1 1076 0
 480 008c C7EB0409 		rsb	r9, r7, r4
 481              	.LVL56:
1077:c_string.c    ****       if( pat1 != NULL ) {
 482              		.loc 1 1077 0
 483 0090 09F10801 		add	r1, r9, #8
 484 0094 0198     		ldr	r0, [sp, #4]
 485 0096 FFF7FEFF 		bl	mrbc_alloc
 486              	.LVL57:
1078:c_string.c    **** 	pat1->type = 1;
 487              		.loc 1 1078 0
 488 009a 8046     		mov	r8, r0
 489 009c 60B1     		cbz	r0, .L42
1079:c_string.c    **** 	pat1->flag_reverse = flag_reverse;
 490              		.loc 1 1079 0
 491 009e 0123     		movs	r3, #1
 492 00a0 0370     		strb	r3, [r0]
1080:c_string.c    **** 	pat1->n = len;
 493              		.loc 1 1080 0
 494 00a2 80F801B0 		strb	fp, [r0, #1]
ARM GAS  C:\Users\164\AppData\Local\Temp\cc3ssgoH.s 			page 32


1081:c_string.c    **** 	pat1->next = NULL;
 495              		.loc 1 1081 0
 496 00a6 A0F80290 		strh	r9, [r0, #2]	@ movhi
1082:c_string.c    **** 	memcpy( pat1->ch, &pattern[start_pos], len );
 497              		.loc 1 1082 0
 498 00aa 0023     		movs	r3, #0
 499 00ac 4360     		str	r3, [r0, #4]
1083:c_string.c    ****       }
 500              		.loc 1 1083 0
 501 00ae 4A46     		mov	r2, r9
 502 00b0 F119     		adds	r1, r6, r7
 503 00b2 0830     		adds	r0, r0, #8
 504              	.LVL58:
 505 00b4 FFF7FEFF 		bl	memcpy
 506              	.LVL59:
 507              	.L42:
 508              	.LBE167:
1088:c_string.c    ****       ret = pat1;
 509              		.loc 1 1088 0
 510 00b8 BAF1000F 		cmp	r10, #0
 511 00bc 08D0     		beq	.L53
 512 00be 5246     		mov	r2, r10
 513 00c0 00E0     		b	.L48
 514              	.LVL60:
 515              	.L54:
 516              	.LBB168:
1092:c_string.c    ****       p->next = pat1;
 517              		.loc 1 1092 0
 518 00c2 1A46     		mov	r2, r3
 519              	.LVL61:
 520              	.L48:
1092:c_string.c    ****       p->next = pat1;
 521              		.loc 1 1092 0 is_stmt 0 discriminator 1
 522 00c4 5368     		ldr	r3, [r2, #4]
 523 00c6 002B     		cmp	r3, #0
 524 00c8 FBD1     		bne	.L54
1093:c_string.c    ****     }
 525              		.loc 1 1093 0 is_stmt 1
 526 00ca C2F80480 		str	r8, [r2, #4]
 527 00ce 00E0     		b	.L47
 528              	.LVL62:
 529              	.L53:
 530              	.LBE168:
1089:c_string.c    ****     } else {
 531              		.loc 1 1089 0
 532 00d0 C246     		mov	r10, r8
 533              	.LVL63:
 534              	.L47:
 535 00d2 2746     		mov	r7, r4
 536              	.LVL64:
 537              	.L39:
1054:c_string.c    ****     // is range pattern ?
 538              		.loc 1 1054 0
 539 00d4 AF42     		cmp	r7, r5
 540 00d6 AEDB     		blt	.L49
1098:c_string.c    **** 
 541              		.loc 1 1098 0
ARM GAS  C:\Users\164\AppData\Local\Temp\cc3ssgoH.s 			page 33


 542 00d8 5046     		mov	r0, r10
 543 00da 03B0     		add	sp, sp, #12
 544              		.cfi_def_cfa_offset 36
 545              		@ sp needed
 546 00dc BDE8F08F 		pop	{r4, r5, r6, r7, r8, r9, r10, fp, pc}
 547              		.cfi_endproc
 548              	.LFE124:
 549              		.size	tr_parse_pattern, .-tr_parse_pattern
 550              		.section	.text.c_string_ord,"ax",%progbits
 551              		.align	2
 552              		.thumb
 553              		.thumb_func
 554              		.type	c_string_ord, %function
 555              	c_string_ord:
 556              	.LFB112:
 678:c_string.c    ****   int i = mrbc_string_cstr(v)[0];
 557              		.loc 1 678 0
 558              		.cfi_startproc
 559              		@ args = 0, pretend = 0, frame = 0
 560              		@ frame_needed = 0, uses_anonymous_args = 0
 561              	.LVL65:
 562 0000 38B5     		push	{r3, r4, r5, lr}
 563              		.cfi_def_cfa_offset 16
 564              		.cfi_offset 3, -16
 565              		.cfi_offset 4, -12
 566              		.cfi_offset 5, -8
 567              		.cfi_offset 14, -4
 568 0002 0C46     		mov	r4, r1
 569              	.LVL66:
 570              	.LBB169:
 571              	.LBB170:
 572              		.loc 2 80 0
 573 0004 8B68     		ldr	r3, [r1, #8]
 574 0006 9B68     		ldr	r3, [r3, #8]
 575              	.LVL67:
 576              	.LBE170:
 577              	.LBE169:
 679:c_string.c    **** 
 578              		.loc 1 679 0
 579 0008 1D78     		ldrb	r5, [r3]	@ zero_extendqisi2
 580              	.LVL68:
 581              	.LBB171:
 681:c_string.c    **** }
 582              		.loc 1 681 0
 583 000a 0846     		mov	r0, r1
 584              	.LVL69:
 585 000c FFF7FEFF 		bl	mrbc_dec_ref_counter
 586              	.LVL70:
 587 0010 0423     		movs	r3, #4
 588 0012 2370     		strb	r3, [r4]
 589 0014 A560     		str	r5, [r4, #8]
 590 0016 38BD     		pop	{r3, r4, r5, pc}
 591              	.LBE171:
 592              		.cfi_endproc
 593              	.LFE112:
 594              		.size	c_string_ord, .-c_string_ord
 595              		.section	.text.c_string_size,"ax",%progbits
ARM GAS  C:\Users\164\AppData\Local\Temp\cc3ssgoH.s 			page 34


 596              		.align	2
 597              		.thumb
 598              		.thumb_func
 599              		.type	c_string_size, %function
 600              	c_string_size:
 601              	.LFB101:
 406:c_string.c    ****   mrbc_int size = mrbc_string_size(&v[0]);
 602              		.loc 1 406 0
 603              		.cfi_startproc
 604              		@ args = 0, pretend = 0, frame = 0
 605              		@ frame_needed = 0, uses_anonymous_args = 0
 606              	.LVL71:
 607 0000 38B5     		push	{r3, r4, r5, lr}
 608              		.cfi_def_cfa_offset 16
 609              		.cfi_offset 3, -16
 610              		.cfi_offset 4, -12
 611              		.cfi_offset 5, -8
 612              		.cfi_offset 14, -4
 613 0002 0C46     		mov	r4, r1
 614              	.LVL72:
 615              	.LBB172:
 616              	.LBB173:
  72:c_string.h    **** }
 617              		.loc 2 72 0
 618 0004 8B68     		ldr	r3, [r1, #8]
 619 0006 9D88     		ldrh	r5, [r3, #4]
 620              	.LVL73:
 621              	.LBE173:
 622              	.LBE172:
 623              	.LBB174:
 409:c_string.c    **** }
 624              		.loc 1 409 0
 625 0008 0846     		mov	r0, r1
 626              	.LVL74:
 627 000a FFF7FEFF 		bl	mrbc_dec_ref_counter
 628              	.LVL75:
 629 000e 0423     		movs	r3, #4
 630 0010 2370     		strb	r3, [r4]
 631 0012 A560     		str	r5, [r4, #8]
 632 0014 38BD     		pop	{r3, r4, r5, pc}
 633              	.LBE174:
 634              		.cfi_endproc
 635              	.LFE101:
 636              		.size	c_string_size, .-c_string_size
 637 0016 00BF     		.section	.text.c_string_to_f,"ax",%progbits
 638              		.align	2
 639              		.thumb
 640              		.thumb_func
 641              		.type	c_string_to_f, %function
 642              	c_string_to_f:
 643              	.LFB103:
 438:c_string.c    ****   mrbc_float d = atof(mrbc_string_cstr(v));
 644              		.loc 1 438 0
 645              		.cfi_startproc
 646              		@ args = 0, pretend = 0, frame = 0
 647              		@ frame_needed = 0, uses_anonymous_args = 0
 648              	.LVL76:
ARM GAS  C:\Users\164\AppData\Local\Temp\cc3ssgoH.s 			page 35


 649 0000 D0B5     		push	{r4, r6, r7, lr}
 650              		.cfi_def_cfa_offset 16
 651              		.cfi_offset 4, -16
 652              		.cfi_offset 6, -12
 653              		.cfi_offset 7, -8
 654              		.cfi_offset 14, -4
 655 0002 0C46     		mov	r4, r1
 656              	.LVL77:
 657              	.LBB175:
 658              	.LBB176:
 659              		.loc 2 80 0
 660 0004 8B68     		ldr	r3, [r1, #8]
 661              	.LVL78:
 662              	.LBE176:
 663              	.LBE175:
 439:c_string.c    **** 
 664              		.loc 1 439 0
 665 0006 9868     		ldr	r0, [r3, #8]
 666              	.LVL79:
 667 0008 FFF7FEFF 		bl	atof
 668              	.LVL80:
 669 000c 0646     		mov	r6, r0
 670 000e 0F46     		mov	r7, r1
 671              	.LVL81:
 672              	.LBB177:
 441:c_string.c    **** }
 673              		.loc 1 441 0
 674 0010 2046     		mov	r0, r4
 675 0012 FFF7FEFF 		bl	mrbc_dec_ref_counter
 676              	.LVL82:
 677 0016 0523     		movs	r3, #5
 678 0018 2370     		strb	r3, [r4]
 679 001a C4E90267 		strd	r6, [r4, #8]
 680 001e D0BD     		pop	{r4, r6, r7, pc}
 681              	.LBE177:
 682              		.cfi_endproc
 683              	.LFE103:
 684              		.size	c_string_to_f, .-c_string_to_f
 685              		.section	.text.c_string_to_sym,"ax",%progbits
 686              		.align	2
 687              		.thumb
 688              		.thumb_func
 689              		.type	c_string_to_sym, %function
 690              	c_string_to_sym:
 691              	.LFB122:
1006:c_string.c    ****   mrbc_value ret = mrbc_symbol_new(vm, mrbc_string_cstr(&v[0]));
 692              		.loc 1 1006 0
 693              		.cfi_startproc
 694              		@ args = 0, pretend = 0, frame = 32
 695              		@ frame_needed = 0, uses_anonymous_args = 0
 696              	.LVL83:
 697 0000 70B5     		push	{r4, r5, r6, lr}
 698              		.cfi_def_cfa_offset 16
 699              		.cfi_offset 4, -16
 700              		.cfi_offset 5, -12
 701              		.cfi_offset 6, -8
 702              		.cfi_offset 14, -4
ARM GAS  C:\Users\164\AppData\Local\Temp\cc3ssgoH.s 			page 36


 703 0002 88B0     		sub	sp, sp, #32
 704              		.cfi_def_cfa_offset 48
 705 0004 0D46     		mov	r5, r1
 706              	.LVL84:
 707              	.LBB178:
 708              	.LBB179:
 709              		.loc 2 80 0
 710 0006 8B68     		ldr	r3, [r1, #8]
 711              	.LVL85:
 712              	.LBE179:
 713              	.LBE178:
1007:c_string.c    **** 
 714              		.loc 1 1007 0
 715 0008 04AE     		add	r6, sp, #16
 716 000a 9A68     		ldr	r2, [r3, #8]
 717              	.LVL86:
 718 000c 0146     		mov	r1, r0
 719              	.LVL87:
 720 000e 3046     		mov	r0, r6
 721              	.LVL88:
 722 0010 FFF7FEFF 		bl	mrbc_symbol_new
 723              	.LVL89:
 724              	.LBB180:
1009:c_string.c    **** }
 725              		.loc 1 1009 0
 726 0014 96E80F00 		ldmia	r6, {r0, r1, r2, r3}
 727 0018 8DE80F00 		stmia	sp, {r0, r1, r2, r3}
 728 001c 2846     		mov	r0, r5
 729 001e FFF7FEFF 		bl	mrbc_dec_ref_counter
 730              	.LVL90:
 731 0022 9DE80F00 		ldmia	sp, {r0, r1, r2, r3}
 732 0026 85E80F00 		stmia	r5, {r0, r1, r2, r3}
 733              	.LBE180:
1010:c_string.c    **** 
 734              		.loc 1 1010 0
 735 002a 08B0     		add	sp, sp, #32
 736              		.cfi_def_cfa_offset 16
 737              		@ sp needed
 738 002c 70BD     		pop	{r4, r5, r6, pc}
 739              		.cfi_endproc
 740              	.LFE122:
 741              		.size	c_string_to_sym, .-c_string_to_sym
 742 002e 00BF     		.section	.text.c_string_to_i,"ax",%progbits
 743              		.align	2
 744              		.thumb
 745              		.thumb_func
 746              		.type	c_string_to_i, %function
 747              	c_string_to_i:
 748              	.LFB102:
 418:c_string.c    ****   int base = 10;
 749              		.loc 1 418 0
 750              		.cfi_startproc
 751              		@ args = 0, pretend = 0, frame = 0
 752              		@ frame_needed = 0, uses_anonymous_args = 0
 753              	.LVL91:
 754 0000 38B5     		push	{r3, r4, r5, lr}
 755              		.cfi_def_cfa_offset 16
ARM GAS  C:\Users\164\AppData\Local\Temp\cc3ssgoH.s 			page 37


 756              		.cfi_offset 3, -16
 757              		.cfi_offset 4, -12
 758              		.cfi_offset 5, -8
 759              		.cfi_offset 14, -4
 760              	.LVL92:
 420:c_string.c    ****     base = v[1].i;
 761              		.loc 1 420 0
 762 0002 22B1     		cbz	r2, .L67
 421:c_string.c    ****     if( base < 2 || base > 36 ) {
 763              		.loc 1 421 0
 764 0004 8B69     		ldr	r3, [r1, #24]
 765              	.LVL93:
 422:c_string.c    ****       return;	// raise ? ArgumentError
 766              		.loc 1 422 0
 767 0006 9A1E     		subs	r2, r3, #2
 768              	.LVL94:
 769 0008 222A     		cmp	r2, #34
 770 000a 01D9     		bls	.L65
 771 000c 38BD     		pop	{r3, r4, r5, pc}
 772              	.LVL95:
 773              	.L67:
 419:c_string.c    ****   if( argc ) {
 774              		.loc 1 419 0
 775 000e 0A23     		movs	r3, #10
 776              	.LVL96:
 777              	.L65:
 778 0010 0C46     		mov	r4, r1
 779              	.LVL97:
 780              	.LBB181:
 781              	.LBB182:
 782              		.loc 2 80 0
 783 0012 8A68     		ldr	r2, [r1, #8]
 784              	.LVL98:
 785              	.LBE182:
 786              	.LBE181:
 427:c_string.c    **** 
 787              		.loc 1 427 0
 788 0014 1946     		mov	r1, r3
 789              	.LVL99:
 790 0016 9068     		ldr	r0, [r2, #8]
 791              	.LVL100:
 792 0018 FFF7FEFF 		bl	mrbc_atoi
 793              	.LVL101:
 794 001c 0546     		mov	r5, r0
 795              	.LVL102:
 796              	.LBB183:
 429:c_string.c    **** }
 797              		.loc 1 429 0
 798 001e 2046     		mov	r0, r4
 799              	.LVL103:
 800 0020 FFF7FEFF 		bl	mrbc_dec_ref_counter
 801              	.LVL104:
 802 0024 0423     		movs	r3, #4
 803 0026 2370     		strb	r3, [r4]
 804 0028 A560     		str	r5, [r4, #8]
 805 002a 38BD     		pop	{r3, r4, r5, pc}
 806              	.LBE183:
ARM GAS  C:\Users\164\AppData\Local\Temp\cc3ssgoH.s 			page 38


 807              		.cfi_endproc
 808              	.LFE102:
 809              		.size	c_string_to_i, .-c_string_to_i
 810              		.section	.text.c_string_start_with,"ax",%progbits
 811              		.align	2
 812              		.thumb
 813              		.thumb_func
 814              		.type	c_string_start_with, %function
 815              	c_string_start_with:
 816              	.LFB130:
1142:c_string.c    **** 
1143:c_string.c    **** static int tr_main( struct VM *vm, mrbc_value v[], int argc )
1144:c_string.c    **** {
1145:c_string.c    ****   if( !(argc == 2 && v[1].tt == MRBC_TT_STRING && v[2].tt == MRBC_TT_STRING)) {
1146:c_string.c    ****     console_print("ArgumentError\n");	// raise?
1147:c_string.c    ****     return -1;
1148:c_string.c    ****   }
1149:c_string.c    **** 
1150:c_string.c    ****   struct tr_pattern *pat = tr_parse_pattern( vm, &v[1], 1 );
1151:c_string.c    ****   if( pat == NULL ) return 0;
1152:c_string.c    **** 
1153:c_string.c    ****   struct tr_pattern *rep = tr_parse_pattern( vm, &v[2], 0 );
1154:c_string.c    **** 
1155:c_string.c    ****   int flag_changed = 0;
1156:c_string.c    ****   char *s = mrbc_string_cstr( &v[0] );
1157:c_string.c    ****   int len = mrbc_string_size( &v[0] );
1158:c_string.c    ****   int i;
1159:c_string.c    ****   for( i = 0; i < len; i++ ) {
1160:c_string.c    ****     int n = tr_find_character( pat, s[i] );
1161:c_string.c    ****     if( n < 0 ) continue;
1162:c_string.c    **** 
1163:c_string.c    ****     flag_changed = 1;
1164:c_string.c    ****     if( rep == NULL ) {
1165:c_string.c    ****       memmove( s + i, s + i + 1, len - i );
1166:c_string.c    ****       len--;
1167:c_string.c    ****       i--;
1168:c_string.c    ****     } else {
1169:c_string.c    ****       s[i] = tr_get_character( rep, n );
1170:c_string.c    ****     }
1171:c_string.c    ****   }
1172:c_string.c    **** 
1173:c_string.c    ****   tr_free_pattern( pat );
1174:c_string.c    ****   tr_free_pattern( rep );
1175:c_string.c    **** 
1176:c_string.c    ****   v[0].string->size = len;
1177:c_string.c    ****   v[0].string->data[len] = 0;
1178:c_string.c    **** 
1179:c_string.c    ****   return flag_changed;
1180:c_string.c    **** }
1181:c_string.c    **** 
1182:c_string.c    **** static void c_string_tr(struct VM *vm, mrbc_value v[], int argc)
1183:c_string.c    **** {
1184:c_string.c    ****   mrb_value ret = mrbc_string_dup( vm, &v[0] );
1185:c_string.c    ****   SET_RETURN( ret );
1186:c_string.c    ****   tr_main(vm, v, argc);
1187:c_string.c    **** }
1188:c_string.c    **** 
ARM GAS  C:\Users\164\AppData\Local\Temp\cc3ssgoH.s 			page 39


1189:c_string.c    **** 
1190:c_string.c    **** //================================================================
1191:c_string.c    **** /*! (method) tr!
1192:c_string.c    **** */
1193:c_string.c    **** static void c_string_tr_self(struct VM *vm, mrbc_value v[], int argc)
1194:c_string.c    **** {
1195:c_string.c    ****   int flag_changed = tr_main(vm, v, argc);
1196:c_string.c    **** 
1197:c_string.c    ****   if( !flag_changed ) {
1198:c_string.c    ****     SET_NIL_RETURN();
1199:c_string.c    ****   }
1200:c_string.c    **** }
1201:c_string.c    **** 
1202:c_string.c    **** 
1203:c_string.c    **** //================================================================
1204:c_string.c    **** /*! (method) start_with?
1205:c_string.c    **** */
1206:c_string.c    **** static void c_string_start_with(struct VM *vm, mrbc_value v[], int argc)
1207:c_string.c    **** {
 817              		.loc 1 1207 0
 818              		.cfi_startproc
 819              		@ args = 0, pretend = 0, frame = 0
 820              		@ frame_needed = 0, uses_anonymous_args = 0
 821              	.LVL105:
 822 0000 38B5     		push	{r3, r4, r5, lr}
 823              		.cfi_def_cfa_offset 16
 824              		.cfi_offset 3, -16
 825              		.cfi_offset 4, -12
 826              		.cfi_offset 5, -8
 827              		.cfi_offset 14, -4
1208:c_string.c    ****   if( !(argc == 1 && v[1].tt == MRBC_TT_STRING)) {
 828              		.loc 1 1208 0
 829 0002 012A     		cmp	r2, #1
 830 0004 04D1     		bne	.L70
 831 0006 0C46     		mov	r4, r1
 832              		.loc 1 1208 0 is_stmt 0 discriminator 1
 833 0008 91F91030 		ldrsb	r3, [r1, #16]
 834 000c 172B     		cmp	r3, #23
 835 000e 05D0     		beq	.L71
 836              	.L70:
 837              	.LVL106:
 838              	.LBB194:
 839              	.LBB195:
 840              		.file 3 "console.h"
   1:console.h     **** /*! @file
   2:console.h     ****   @brief
   3:console.h     ****   console output module. (not yet input)
   4:console.h     **** 
   5:console.h     ****   <pre>
   6:console.h     ****   Copyright (C) 2015-2018 Kyushu Institute of Technology.
   7:console.h     ****   Copyright (C) 2015-2018 Shimane IT Open-Innovation Center.
   8:console.h     **** 
   9:console.h     ****   This file is distributed under BSD 3-Clause License.
  10:console.h     **** 
  11:console.h     ****   </pre>
  12:console.h     **** */
  13:console.h     **** 
ARM GAS  C:\Users\164\AppData\Local\Temp\cc3ssgoH.s 			page 40


  14:console.h     **** #ifndef MRBC_SRC_CONSOLE_H_
  15:console.h     **** #define MRBC_SRC_CONSOLE_H_
  16:console.h     **** 
  17:console.h     **** #include <stdint.h>
  18:console.h     **** #include <stdarg.h>
  19:console.h     **** #include <string.h>
  20:console.h     **** #include "hal/hal.h"
  21:console.h     **** 
  22:console.h     **** #ifdef __cplusplus
  23:console.h     **** extern "C" {
  24:console.h     **** #endif
  25:console.h     **** 
  26:console.h     **** 
  27:console.h     **** //================================================================
  28:console.h     **** /*! printf tiny (mruby/c) version data container.
  29:console.h     **** */
  30:console.h     **** typedef struct RPrintf {
  31:console.h     ****   char *buf;		//!< output buffer.
  32:console.h     ****   const char *buf_end;	//!< output buffer end point.
  33:console.h     ****   char *p;		//!< output buffer write point.
  34:console.h     ****   const char *fstr;	//!< format string. (e.g. "%d %03x")
  35:console.h     **** 
  36:console.h     ****   struct RPrintfFormat {
  37:console.h     ****     char type;				//!< format char. (e.g. 'd','f','x'...)
  38:console.h     ****     unsigned int flag_plus : 1;
  39:console.h     ****     unsigned int flag_minus : 1;
  40:console.h     ****     unsigned int flag_space : 1;
  41:console.h     ****     unsigned int flag_zero : 1;
  42:console.h     ****     int width;				//!< display width. (e.g. %10d as 10)
  43:console.h     ****     int precision;			//!< precision (e.g. %5.2f as 2)
  44:console.h     ****   } fmt;
  45:console.h     **** } mrbc_printf;
  46:console.h     **** 
  47:console.h     **** 
  48:console.h     **** void console_printf(const char *fstr, ...);
  49:console.h     **** int mrbc_printf_main(mrbc_printf *pf);
  50:console.h     **** int mrbc_printf_char(mrbc_printf *pf, int ch);
  51:console.h     **** int mrbc_printf_bstr(mrbc_printf *pf, const char *str, int len, int pad);
  52:console.h     **** int mrbc_printf_int(mrbc_printf *pf, mrbc_int value, int base);
  53:console.h     **** int mrbc_printf_float(mrbc_printf *pf, double value);
  54:console.h     **** void mrbc_printf_replace_buffer(mrbc_printf *pf, char *buf, int size);
  55:console.h     **** 
  56:console.h     **** 
  57:console.h     **** //================================================================
  58:console.h     **** /*! output a character
  59:console.h     **** 
  60:console.h     ****   @param  c	character
  61:console.h     **** */
  62:console.h     **** static inline void console_putchar(char c)
  63:console.h     **** {
  64:console.h     ****   hal_write(1, &c, 1);
  65:console.h     **** }
  66:console.h     **** 
  67:console.h     **** 
  68:console.h     **** //================================================================
  69:console.h     **** /*! output string
  70:console.h     **** 
ARM GAS  C:\Users\164\AppData\Local\Temp\cc3ssgoH.s 			page 41


  71:console.h     ****   @param str	str
  72:console.h     **** */
  73:console.h     **** static inline void console_print(const char *str)
  74:console.h     **** {
  75:console.h     ****   hal_write(1, str, strlen(str));
 841              		.loc 3 75 0 is_stmt 1
 842 0010 0E22     		movs	r2, #14
 843              	.LVL107:
 844 0012 0E49     		ldr	r1, .L78
 845              	.LVL108:
 846 0014 0120     		movs	r0, #1
 847              	.LVL109:
 848 0016 FFF7FEFF 		bl	hal_write
 849              	.LVL110:
 850 001a 38BD     		pop	{r3, r4, r5, pc}
 851              	.LVL111:
 852              	.L71:
 853              	.LBE195:
 854              	.LBE194:
 855              	.LBB196:
 856              	.LBB197:
  72:c_string.h    **** }
 857              		.loc 2 72 0
 858 001c 8B68     		ldr	r3, [r1, #8]
 859 001e 9888     		ldrh	r0, [r3, #4]
 860              	.LVL112:
 861              	.LBE197:
 862              	.LBE196:
 863              	.LBB198:
 864              	.LBB199:
 865 0020 8969     		ldr	r1, [r1, #24]
 866              	.LVL113:
 867 0022 8A88     		ldrh	r2, [r1, #4]
 868              	.LVL114:
 869              	.LBE199:
 870              	.LBE198:
1209:c_string.c    ****     console_print("ArgumentError\n");	// raise?
1210:c_string.c    ****     return;
1211:c_string.c    ****   }
1212:c_string.c    **** 
1213:c_string.c    ****   int ret;
1214:c_string.c    ****   if( mrbc_string_size(&v[0]) < mrbc_string_size(&v[1]) ) {
 871              		.loc 1 1214 0
 872 0024 8242     		cmp	r2, r0
 873 0026 07DC     		bgt	.L75
1215:c_string.c    ****     ret = 0;
1216:c_string.c    ****   } else {
1217:c_string.c    ****     ret = (memcmp( mrbc_string_cstr(&v[0]), mrbc_string_cstr(&v[1]),
 874              		.loc 1 1217 0
 875 0028 8968     		ldr	r1, [r1, #8]
 876 002a 9868     		ldr	r0, [r3, #8]
 877 002c FFF7FEFF 		bl	memcmp
 878              	.LVL115:
1218:c_string.c    **** 		   mrbc_string_size(&v[1]) ) == 0);
 879              		.loc 1 1218 0
 880 0030 B0FA80F5 		clz	r5, r0
 881 0034 6D09     		lsrs	r5, r5, #5
ARM GAS  C:\Users\164\AppData\Local\Temp\cc3ssgoH.s 			page 42


 882              	.LVL116:
 883 0036 00E0     		b	.L73
 884              	.LVL117:
 885              	.L75:
1215:c_string.c    ****     ret = 0;
 886              		.loc 1 1215 0
 887 0038 0025     		movs	r5, #0
 888              	.L73:
 889              	.LVL118:
1219:c_string.c    ****   }
1220:c_string.c    **** 
1221:c_string.c    ****   SET_BOOL_RETURN(ret);
 890              		.loc 1 1221 0
 891 003a 2046     		mov	r0, r4
 892 003c FFF7FEFF 		bl	mrbc_dec_ref_counter
 893              	.LVL119:
 894 0040 0DB1     		cbz	r5, .L76
 895 0042 0323     		movs	r3, #3
 896 0044 00E0     		b	.L74
 897              	.L76:
 898 0046 0223     		movs	r3, #2
 899              	.L74:
 900              		.loc 1 1221 0 is_stmt 0 discriminator 4
 901 0048 2370     		strb	r3, [r4]
 902 004a 38BD     		pop	{r3, r4, r5, pc}
 903              	.LVL120:
 904              	.L79:
 905              		.align	2
 906              	.L78:
 907 004c 00000000 		.word	.LC0
 908              		.cfi_endproc
 909              	.LFE130:
 910              		.size	c_string_start_with, .-c_string_start_with
 911              		.section	.text.c_string_end_with,"ax",%progbits
 912              		.align	2
 913              		.thumb
 914              		.thumb_func
 915              		.type	c_string_end_with, %function
 916              	c_string_end_with:
 917              	.LFB131:
1222:c_string.c    **** }
1223:c_string.c    **** 
1224:c_string.c    **** 
1225:c_string.c    **** //================================================================
1226:c_string.c    **** /*! (method) end_with?
1227:c_string.c    **** */
1228:c_string.c    **** static void c_string_end_with(struct VM *vm, mrbc_value v[], int argc)
1229:c_string.c    **** {
 918              		.loc 1 1229 0 is_stmt 1
 919              		.cfi_startproc
 920              		@ args = 0, pretend = 0, frame = 0
 921              		@ frame_needed = 0, uses_anonymous_args = 0
 922              	.LVL121:
 923 0000 38B5     		push	{r3, r4, r5, lr}
 924              		.cfi_def_cfa_offset 16
 925              		.cfi_offset 3, -16
 926              		.cfi_offset 4, -12
ARM GAS  C:\Users\164\AppData\Local\Temp\cc3ssgoH.s 			page 43


 927              		.cfi_offset 5, -8
 928              		.cfi_offset 14, -4
1230:c_string.c    ****   if( !(argc == 1 && v[1].tt == MRBC_TT_STRING)) {
 929              		.loc 1 1230 0
 930 0002 012A     		cmp	r2, #1
 931 0004 04D1     		bne	.L81
 932 0006 0C46     		mov	r4, r1
 933              		.loc 1 1230 0 is_stmt 0 discriminator 1
 934 0008 91F91030 		ldrsb	r3, [r1, #16]
 935 000c 172B     		cmp	r3, #23
 936 000e 05D0     		beq	.L82
 937              	.L81:
 938              	.LVL122:
 939              	.LBB210:
 940              	.LBB211:
 941              		.loc 3 75 0 is_stmt 1
 942 0010 0E22     		movs	r2, #14
 943              	.LVL123:
 944 0012 0F49     		ldr	r1, .L89
 945              	.LVL124:
 946 0014 0120     		movs	r0, #1
 947              	.LVL125:
 948 0016 FFF7FEFF 		bl	hal_write
 949              	.LVL126:
 950 001a 38BD     		pop	{r3, r4, r5, pc}
 951              	.LVL127:
 952              	.L82:
 953              	.LBE211:
 954              	.LBE210:
 955              	.LBB212:
 956              	.LBB213:
  72:c_string.h    **** }
 957              		.loc 2 72 0
 958 001c 8968     		ldr	r1, [r1, #8]
 959              	.LVL128:
 960 001e 8888     		ldrh	r0, [r1, #4]
 961              	.LVL129:
 962              	.LBE213:
 963              	.LBE212:
 964              	.LBB214:
 965              	.LBB215:
 966 0020 A369     		ldr	r3, [r4, #24]
 967 0022 9A88     		ldrh	r2, [r3, #4]
 968              	.LVL130:
 969              	.LBE215:
 970              	.LBE214:
1231:c_string.c    ****     console_print("ArgumentError\n");	// raise?
1232:c_string.c    ****     return;
1233:c_string.c    ****   }
1234:c_string.c    **** 
1235:c_string.c    ****   int ret;
1236:c_string.c    ****   int offset = mrbc_string_size(&v[0]) - mrbc_string_size(&v[1]);
1237:c_string.c    ****   if( offset < 0 ) {
 971              		.loc 1 1237 0
 972 0024 801A     		subs	r0, r0, r2
 973              	.LVL131:
 974 0026 08D4     		bmi	.L86
ARM GAS  C:\Users\164\AppData\Local\Temp\cc3ssgoH.s 			page 44


 975              	.LVL132:
 976              	.LBB216:
 977              	.LBB217:
 978              		.loc 2 80 0
 979 0028 8D68     		ldr	r5, [r1, #8]
 980              	.LVL133:
 981              	.LBE217:
 982              	.LBE216:
1238:c_string.c    ****     ret = 0;
1239:c_string.c    ****   } else {
1240:c_string.c    ****     ret = (memcmp( mrbc_string_cstr(&v[0]) + offset, mrbc_string_cstr(&v[1]),
 983              		.loc 1 1240 0
 984 002a 9968     		ldr	r1, [r3, #8]
 985 002c 2844     		add	r0, r0, r5
 986              	.LVL134:
 987 002e FFF7FEFF 		bl	memcmp
 988              	.LVL135:
1241:c_string.c    **** 		   mrbc_string_size(&v[1]) ) == 0);
 989              		.loc 1 1241 0
 990 0032 B0FA80F5 		clz	r5, r0
 991 0036 6D09     		lsrs	r5, r5, #5
 992              	.LVL136:
 993 0038 00E0     		b	.L84
 994              	.LVL137:
 995              	.L86:
1238:c_string.c    ****     ret = 0;
 996              		.loc 1 1238 0
 997 003a 0025     		movs	r5, #0
 998              	.LVL138:
 999              	.L84:
1242:c_string.c    ****   }
1243:c_string.c    **** 
1244:c_string.c    ****   SET_BOOL_RETURN(ret);
 1000              		.loc 1 1244 0
 1001 003c 2046     		mov	r0, r4
 1002 003e FFF7FEFF 		bl	mrbc_dec_ref_counter
 1003              	.LVL139:
 1004 0042 0DB1     		cbz	r5, .L87
 1005 0044 0323     		movs	r3, #3
 1006 0046 00E0     		b	.L85
 1007              	.L87:
 1008 0048 0223     		movs	r3, #2
 1009              	.L85:
 1010              		.loc 1 1244 0 is_stmt 0 discriminator 4
 1011 004a 2370     		strb	r3, [r4]
 1012 004c 38BD     		pop	{r3, r4, r5, pc}
 1013              	.LVL140:
 1014              	.L90:
 1015 004e 00BF     		.align	2
 1016              	.L89:
 1017 0050 00000000 		.word	.LC0
 1018              		.cfi_endproc
 1019              	.LFE131:
 1020              		.size	c_string_end_with, .-c_string_end_with
 1021              		.section	.text.tr_main,"ax",%progbits
 1022              		.align	2
 1023              		.thumb
ARM GAS  C:\Users\164\AppData\Local\Temp\cc3ssgoH.s 			page 45


 1024              		.thumb_func
 1025              		.type	tr_main, %function
 1026              	tr_main:
 1027              	.LFB127:
1144:c_string.c    ****   if( !(argc == 2 && v[1].tt == MRBC_TT_STRING && v[2].tt == MRBC_TT_STRING)) {
 1028              		.loc 1 1144 0 is_stmt 1
 1029              		.cfi_startproc
 1030              		@ args = 0, pretend = 0, frame = 8
 1031              		@ frame_needed = 0, uses_anonymous_args = 0
 1032              	.LVL141:
 1033 0000 2DE9F04F 		push	{r4, r5, r6, r7, r8, r9, r10, fp, lr}
 1034              		.cfi_def_cfa_offset 36
 1035              		.cfi_offset 4, -36
 1036              		.cfi_offset 5, -32
 1037              		.cfi_offset 6, -28
 1038              		.cfi_offset 7, -24
 1039              		.cfi_offset 8, -20
 1040              		.cfi_offset 9, -16
 1041              		.cfi_offset 10, -12
 1042              		.cfi_offset 11, -8
 1043              		.cfi_offset 14, -4
 1044 0004 83B0     		sub	sp, sp, #12
 1045              		.cfi_def_cfa_offset 48
1145:c_string.c    ****     console_print("ArgumentError\n");	// raise?
 1046              		.loc 1 1145 0
 1047 0006 022A     		cmp	r2, #2
 1048 0008 09D1     		bne	.L92
 1049 000a 0446     		mov	r4, r0
 1050 000c 8B46     		mov	fp, r1
1145:c_string.c    ****     console_print("ArgumentError\n");	// raise?
 1051              		.loc 1 1145 0 is_stmt 0 discriminator 1
 1052 000e 91F91030 		ldrsb	r3, [r1, #16]
 1053 0012 172B     		cmp	r3, #23
 1054 0014 03D1     		bne	.L92
1145:c_string.c    ****     console_print("ArgumentError\n");	// raise?
 1055              		.loc 1 1145 0 discriminator 2
 1056 0016 91F92030 		ldrsb	r3, [r1, #32]
 1057 001a 172B     		cmp	r3, #23
 1058 001c 07D0     		beq	.L93
 1059              	.L92:
 1060              	.LVL142:
 1061              	.LBB225:
 1062              	.LBB226:
 1063              		.loc 3 75 0 is_stmt 1
 1064 001e 0E22     		movs	r2, #14
 1065              	.LVL143:
 1066 0020 2649     		ldr	r1, .L101
 1067              	.LVL144:
 1068 0022 0120     		movs	r0, #1
 1069              	.LVL145:
 1070 0024 FFF7FEFF 		bl	hal_write
 1071              	.LVL146:
 1072              	.LBE226:
 1073              	.LBE225:
1147:c_string.c    ****   }
 1074              		.loc 1 1147 0
 1075 0028 4FF0FF30 		mov	r0, #-1
ARM GAS  C:\Users\164\AppData\Local\Temp\cc3ssgoH.s 			page 46


 1076 002c 43E0     		b	.L94
 1077              	.LVL147:
 1078              	.L93:
1150:c_string.c    ****   if( pat == NULL ) return 0;
 1079              		.loc 1 1150 0
 1080 002e 0122     		movs	r2, #1
 1081              	.LVL148:
 1082 0030 1031     		adds	r1, r1, #16
 1083              	.LVL149:
 1084 0032 FFF7FEFF 		bl	tr_parse_pattern
 1085              	.LVL150:
1151:c_string.c    **** 
 1086              		.loc 1 1151 0
 1087 0036 0190     		str	r0, [sp, #4]
 1088 0038 0028     		cmp	r0, #0
 1089 003a 3BD0     		beq	.L99
1153:c_string.c    **** 
 1090              		.loc 1 1153 0
 1091 003c 0022     		movs	r2, #0
 1092 003e 0BF12001 		add	r1, fp, #32
 1093 0042 2046     		mov	r0, r4
 1094              	.LVL151:
 1095 0044 FFF7FEFF 		bl	tr_parse_pattern
 1096              	.LVL152:
 1097 0048 8046     		mov	r8, r0
 1098              	.LVL153:
 1099              	.LBB227:
 1100              	.LBB228:
 1101              		.loc 2 80 0
 1102 004a DBF80830 		ldr	r3, [fp, #8]
 1103 004e 9D68     		ldr	r5, [r3, #8]
 1104              	.LVL154:
 1105              	.LBE228:
 1106              	.LBE227:
 1107              	.LBB229:
 1108              	.LBB230:
  72:c_string.h    **** }
 1109              		.loc 2 72 0
 1110 0050 9F88     		ldrh	r7, [r3, #4]
 1111              	.LVL155:
 1112              	.LBE230:
 1113              	.LBE229:
1159:c_string.c    ****     int n = tr_find_character( pat, s[i] );
 1114              		.loc 1 1159 0
 1115 0052 0024     		movs	r4, #0
 1116              	.LVL156:
1155:c_string.c    ****   char *s = mrbc_string_cstr( &v[0] );
 1117              		.loc 1 1155 0
 1118 0054 A246     		mov	r10, r4
1159:c_string.c    ****     int n = tr_find_character( pat, s[i] );
 1119              		.loc 1 1159 0
 1120 0056 1BE0     		b	.L95
 1121              	.LVL157:
 1122              	.L98:
 1123              	.LBB231:
1160:c_string.c    ****     if( n < 0 ) continue;
 1124              		.loc 1 1160 0
ARM GAS  C:\Users\164\AppData\Local\Temp\cc3ssgoH.s 			page 47


 1125 0058 2E19     		adds	r6, r5, r4
 1126 005a 295D     		ldrb	r1, [r5, r4]	@ zero_extendqisi2
 1127 005c 0198     		ldr	r0, [sp, #4]
 1128 005e FFF7FEFF 		bl	tr_find_character
 1129              	.LVL158:
1161:c_string.c    **** 
 1130              		.loc 1 1161 0
 1131 0062 011E     		subs	r1, r0, #0
 1132 0064 13DB     		blt	.L96
 1133              	.LVL159:
1164:c_string.c    ****       memmove( s + i, s + i + 1, len - i );
 1134              		.loc 1 1164 0
 1135 0066 B8F1000F 		cmp	r8, #0
 1136 006a 0AD1     		bne	.L97
1165:c_string.c    ****       len--;
 1137              		.loc 1 1165 0
 1138 006c 611C     		adds	r1, r4, #1
 1139 006e 3A1B     		subs	r2, r7, r4
 1140 0070 2944     		add	r1, r1, r5
 1141 0072 3046     		mov	r0, r6
 1142              	.LVL160:
 1143 0074 FFF7FEFF 		bl	memmove
 1144              	.LVL161:
1166:c_string.c    ****       i--;
 1145              		.loc 1 1166 0
 1146 0078 013F     		subs	r7, r7, #1
 1147              	.LVL162:
1167:c_string.c    ****     } else {
 1148              		.loc 1 1167 0
 1149 007a 013C     		subs	r4, r4, #1
 1150              	.LVL163:
1163:c_string.c    ****     if( rep == NULL ) {
 1151              		.loc 1 1163 0
 1152 007c 4FF0010A 		mov	r10, #1
 1153 0080 05E0     		b	.L96
 1154              	.LVL164:
 1155              	.L97:
1169:c_string.c    ****     }
 1156              		.loc 1 1169 0
 1157 0082 4046     		mov	r0, r8
 1158              	.LVL165:
 1159 0084 FFF7FEFF 		bl	tr_get_character
 1160              	.LVL166:
 1161 0088 3070     		strb	r0, [r6]
1163:c_string.c    ****     if( rep == NULL ) {
 1162              		.loc 1 1163 0
 1163 008a 4FF0010A 		mov	r10, #1
 1164              	.LVL167:
 1165              	.L96:
 1166              	.LBE231:
1159:c_string.c    ****     int n = tr_find_character( pat, s[i] );
 1167              		.loc 1 1159 0 discriminator 2
 1168 008e 0134     		adds	r4, r4, #1
 1169              	.LVL168:
 1170              	.L95:
1159:c_string.c    ****     int n = tr_find_character( pat, s[i] );
 1171              		.loc 1 1159 0 is_stmt 0 discriminator 1
ARM GAS  C:\Users\164\AppData\Local\Temp\cc3ssgoH.s 			page 48


 1172 0090 A742     		cmp	r7, r4
 1173 0092 E1DC     		bgt	.L98
1173:c_string.c    ****   tr_free_pattern( rep );
 1174              		.loc 1 1173 0 is_stmt 1
 1175 0094 0198     		ldr	r0, [sp, #4]
 1176 0096 FFF7FEFF 		bl	tr_free_pattern
 1177              	.LVL169:
1174:c_string.c    **** 
 1178              		.loc 1 1174 0
 1179 009a 4046     		mov	r0, r8
 1180 009c FFF7FEFF 		bl	tr_free_pattern
 1181              	.LVL170:
1176:c_string.c    ****   v[0].string->data[len] = 0;
 1182              		.loc 1 1176 0
 1183 00a0 DBF80830 		ldr	r3, [fp, #8]
 1184 00a4 9F80     		strh	r7, [r3, #4]	@ movhi
1177:c_string.c    **** 
 1185              		.loc 1 1177 0
 1186 00a6 DBF80830 		ldr	r3, [fp, #8]
 1187 00aa 9B68     		ldr	r3, [r3, #8]
 1188 00ac 0022     		movs	r2, #0
 1189 00ae DA55     		strb	r2, [r3, r7]
1179:c_string.c    **** }
 1190              		.loc 1 1179 0
 1191 00b0 5046     		mov	r0, r10
 1192 00b2 00E0     		b	.L94
 1193              	.LVL171:
 1194              	.L99:
1151:c_string.c    **** 
 1195              		.loc 1 1151 0
 1196 00b4 0020     		movs	r0, #0
 1197              	.LVL172:
 1198              	.L94:
1180:c_string.c    **** 
 1199              		.loc 1 1180 0
 1200 00b6 03B0     		add	sp, sp, #12
 1201              		.cfi_def_cfa_offset 36
 1202              		@ sp needed
 1203 00b8 BDE8F08F 		pop	{r4, r5, r6, r7, r8, r9, r10, fp, pc}
 1204              	.L102:
 1205              		.align	2
 1206              	.L101:
 1207 00bc 00000000 		.word	.LC0
 1208              		.cfi_endproc
 1209              	.LFE127:
 1210              		.size	tr_main, .-tr_main
 1211              		.section	.text.c_string_tr_self,"ax",%progbits
 1212              		.align	2
 1213              		.thumb
 1214              		.thumb_func
 1215              		.type	c_string_tr_self, %function
 1216              	c_string_tr_self:
 1217              	.LFB129:
1194:c_string.c    ****   int flag_changed = tr_main(vm, v, argc);
 1218              		.loc 1 1194 0
 1219              		.cfi_startproc
 1220              		@ args = 0, pretend = 0, frame = 0
ARM GAS  C:\Users\164\AppData\Local\Temp\cc3ssgoH.s 			page 49


 1221              		@ frame_needed = 0, uses_anonymous_args = 0
 1222              	.LVL173:
 1223 0000 10B5     		push	{r4, lr}
 1224              		.cfi_def_cfa_offset 8
 1225              		.cfi_offset 4, -8
 1226              		.cfi_offset 14, -4
 1227 0002 0C46     		mov	r4, r1
1195:c_string.c    **** 
 1228              		.loc 1 1195 0
 1229 0004 FFF7FEFF 		bl	tr_main
 1230              	.LVL174:
1197:c_string.c    ****     SET_NIL_RETURN();
 1231              		.loc 1 1197 0
 1232 0008 20B9     		cbnz	r0, .L103
1198:c_string.c    ****   }
 1233              		.loc 1 1198 0
 1234 000a 2046     		mov	r0, r4
 1235              	.LVL175:
 1236 000c FFF7FEFF 		bl	mrbc_dec_ref_counter
 1237              	.LVL176:
 1238 0010 0123     		movs	r3, #1
 1239 0012 2370     		strb	r3, [r4]
 1240              	.L103:
 1241 0014 10BD     		pop	{r4, pc}
 1242              		.cfi_endproc
 1243              	.LFE129:
 1244              		.size	c_string_tr_self, .-c_string_tr_self
 1245 0016 00BF     		.section	.text.c_string_insert,"ax",%progbits
 1246              		.align	2
 1247              		.thumb
 1248              		.thumb_func
 1249              		.type	c_string_insert, %function
 1250              	c_string_insert:
 1251              	.LFB106:
 529:c_string.c    ****   int nth;
 1252              		.loc 1 529 0
 1253              		.cfi_startproc
 1254              		@ args = 0, pretend = 0, frame = 0
 1255              		@ frame_needed = 0, uses_anonymous_args = 0
 1256              	.LVL177:
 1257 0000 2DE9F84F 		push	{r3, r4, r5, r6, r7, r8, r9, r10, fp, lr}
 1258              		.cfi_def_cfa_offset 40
 1259              		.cfi_offset 3, -40
 1260              		.cfi_offset 4, -36
 1261              		.cfi_offset 5, -32
 1262              		.cfi_offset 6, -28
 1263              		.cfi_offset 7, -24
 1264              		.cfi_offset 8, -20
 1265              		.cfi_offset 9, -16
 1266              		.cfi_offset 10, -12
 1267              		.cfi_offset 11, -8
 1268              		.cfi_offset 14, -4
 1269 0004 0C46     		mov	r4, r1
 537:c_string.c    ****       v[1].tt == MRBC_TT_FIXNUM &&
 1270              		.loc 1 537 0
 1271 0006 022A     		cmp	r2, #2
 1272 0008 0CD1     		bne	.L107
ARM GAS  C:\Users\164\AppData\Local\Temp\cc3ssgoH.s 			page 50


 538:c_string.c    ****       v[2].tt == MRBC_TT_STRING ) {
 1273              		.loc 1 538 0 discriminator 1
 1274 000a 91F91030 		ldrsb	r3, [r1, #16]
 537:c_string.c    ****       v[1].tt == MRBC_TT_FIXNUM &&
 1275              		.loc 1 537 0 discriminator 1
 1276 000e 042B     		cmp	r3, #4
 1277 0010 08D1     		bne	.L107
 539:c_string.c    ****     nth = v[1].i;
 1278              		.loc 1 539 0
 1279 0012 91F92030 		ldrsb	r3, [r1, #32]
 538:c_string.c    ****       v[2].tt == MRBC_TT_STRING ) {
 1280              		.loc 1 538 0
 1281 0016 172B     		cmp	r3, #23
 1282 0018 04D1     		bne	.L107
 540:c_string.c    ****     len = 1;
 1283              		.loc 1 540 0
 1284 001a 8D69     		ldr	r5, [r1, #24]
 1285              	.LVL178:
 542:c_string.c    ****   }
 1286              		.loc 1 542 0
 1287 001c 01F1200A 		add	r10, r1, #32
 1288              	.LVL179:
 541:c_string.c    ****     val = &v[2];
 1289              		.loc 1 541 0
 1290 0020 0126     		movs	r6, #1
 542:c_string.c    ****   }
 1291              		.loc 1 542 0
 1292 0022 19E0     		b	.L108
 1293              	.LVL180:
 1294              	.L107:
 547:c_string.c    **** 	   v[1].tt == MRBC_TT_FIXNUM &&
 1295              		.loc 1 547 0
 1296 0024 032A     		cmp	r2, #3
 1297 0026 10D1     		bne	.L109
 548:c_string.c    **** 	   v[2].tt == MRBC_TT_FIXNUM &&
 1298              		.loc 1 548 0 discriminator 1
 1299 0028 94F91030 		ldrsb	r3, [r4, #16]
 547:c_string.c    **** 	   v[1].tt == MRBC_TT_FIXNUM &&
 1300              		.loc 1 547 0 discriminator 1
 1301 002c 042B     		cmp	r3, #4
 1302 002e 0CD1     		bne	.L109
 549:c_string.c    **** 	   v[3].tt == MRBC_TT_STRING ) {
 1303              		.loc 1 549 0
 1304 0030 94F92030 		ldrsb	r3, [r4, #32]
 548:c_string.c    **** 	   v[2].tt == MRBC_TT_FIXNUM &&
 1305              		.loc 1 548 0
 1306 0034 042B     		cmp	r3, #4
 1307 0036 08D1     		bne	.L109
 550:c_string.c    ****     nth = v[1].i;
 1308              		.loc 1 550 0
 1309 0038 94F93030 		ldrsb	r3, [r4, #48]
 549:c_string.c    **** 	   v[3].tt == MRBC_TT_STRING ) {
 1310              		.loc 1 549 0
 1311 003c 172B     		cmp	r3, #23
 1312 003e 04D1     		bne	.L109
 551:c_string.c    ****     len = v[2].i;
 1313              		.loc 1 551 0
ARM GAS  C:\Users\164\AppData\Local\Temp\cc3ssgoH.s 			page 51


 1314 0040 A569     		ldr	r5, [r4, #24]
 1315              	.LVL181:
 552:c_string.c    ****     val = &v[3];
 1316              		.loc 1 552 0
 1317 0042 A66A     		ldr	r6, [r4, #40]
 1318              	.LVL182:
 553:c_string.c    ****   }
 1319              		.loc 1 553 0
 1320 0044 04F1300A 		add	r10, r4, #48
 1321              	.LVL183:
 1322 0048 06E0     		b	.L108
 1323              	.LVL184:
 1324              	.L109:
 1325              	.LBB240:
 1326              	.LBB241:
 1327              		.loc 3 75 0
 1328 004a 0C22     		movs	r2, #12
 1329              	.LVL185:
 1330 004c 2249     		ldr	r1, .L117
 1331              	.LVL186:
 1332 004e 0120     		movs	r0, #1
 1333              	.LVL187:
 1334 0050 FFF7FEFF 		bl	hal_write
 1335              	.LVL188:
 1336 0054 BDE8F88F 		pop	{r3, r4, r5, r6, r7, r8, r9, r10, fp, pc}
 1337              	.LVL189:
 1338              	.L108:
 1339              	.LBE241:
 1340              	.LBE240:
 563:c_string.c    ****   int len2 = val->string->size;
 1341              		.loc 1 563 0
 1342 0058 A368     		ldr	r3, [r4, #8]
 1343 005a 9F88     		ldrh	r7, [r3, #4]
 1344              	.LVL190:
 564:c_string.c    ****   if( nth < 0 ) nth = len1 + nth;               // adjust to positive number.
 1345              		.loc 1 564 0
 1346 005c DAF80820 		ldr	r2, [r10, #8]
 1347              	.LVL191:
 1348 0060 B2F80490 		ldrh	r9, [r2, #4]
 1349              	.LVL192:
 565:c_string.c    ****   if( len > len1 - nth ) len = len1 - nth;
 1350              		.loc 1 565 0
 1351 0064 002D     		cmp	r5, #0
 1352 0066 00DA     		bge	.L111
 565:c_string.c    ****   if( len > len1 - nth ) len = len1 - nth;
 1353              		.loc 1 565 0 is_stmt 0 discriminator 1
 1354 0068 3D44     		add	r5, r5, r7
 1355              	.LVL193:
 1356              	.L111:
 566:c_string.c    ****   if( nth < 0 || nth > len1 || len < 0) {
 1357              		.loc 1 566 0 is_stmt 1
 1358 006a C5EB0708 		rsb	r8, r5, r7
 1359 006e 4645     		cmp	r6, r8
 1360 0070 00DD     		ble	.L112
 1361 0072 4646     		mov	r6, r8
 1362              	.LVL194:
 1363              	.L112:
ARM GAS  C:\Users\164\AppData\Local\Temp\cc3ssgoH.s 			page 52


 567:c_string.c    ****     console_print( "IndexError\n" );  // raise?
 1364              		.loc 1 567 0
 1365 0074 002D     		cmp	r5, #0
 1366 0076 03DB     		blt	.L113
 567:c_string.c    ****     console_print( "IndexError\n" );  // raise?
 1367              		.loc 1 567 0 is_stmt 0 discriminator 1
 1368 0078 BD42     		cmp	r5, r7
 1369 007a 01DC     		bgt	.L113
 567:c_string.c    ****     console_print( "IndexError\n" );  // raise?
 1370              		.loc 1 567 0 discriminator 2
 1371 007c 002E     		cmp	r6, #0
 1372 007e 06DA     		bge	.L114
 1373              	.L113:
 1374              	.LVL195:
 1375              	.LBB242:
 1376              	.LBB243:
 1377              		.loc 3 75 0 is_stmt 1
 1378 0080 0B22     		movs	r2, #11
 1379 0082 1649     		ldr	r1, .L117+4
 1380              	.LVL196:
 1381 0084 0120     		movs	r0, #1
 1382              	.LVL197:
 1383 0086 FFF7FEFF 		bl	hal_write
 1384              	.LVL198:
 1385 008a BDE8F88F 		pop	{r3, r4, r5, r6, r7, r8, r9, r10, fp, pc}
 1386              	.LVL199:
 1387              	.L114:
 1388              	.LBE243:
 1389              	.LBE242:
 572:c_string.c    ****   if( !str ) return;
 1390              		.loc 1 572 0
 1391 008e 07EB0902 		add	r2, r7, r9
 1392 0092 921B     		subs	r2, r2, r6
 1393 0094 0132     		adds	r2, r2, #1
 1394 0096 9968     		ldr	r1, [r3, #8]
 1395              	.LVL200:
 1396 0098 FFF7FEFF 		bl	mrbc_realloc
 1397              	.LVL201:
 573:c_string.c    **** 
 1398              		.loc 1 573 0
 1399 009c 8346     		mov	fp, r0
 1400 009e C0B1     		cbz	r0, .L106
 575:c_string.c    ****   memcpy( str + nth, mrbc_string_cstr(val), len2 );
 1401              		.loc 1 575 0
 1402 00a0 05EB0900 		add	r0, r5, r9
 1403              	.LVL202:
 1404 00a4 7119     		adds	r1, r6, r5
 1405 00a6 C6EB0802 		rsb	r2, r6, r8
 1406 00aa 0132     		adds	r2, r2, #1
 1407 00ac 5944     		add	r1, r1, fp
 1408 00ae 5844     		add	r0, r0, fp
 1409 00b0 FFF7FEFF 		bl	memmove
 1410              	.LVL203:
 1411              	.LBB244:
 1412              	.LBB245:
 1413              		.loc 2 80 0
 1414 00b4 DAF80830 		ldr	r3, [r10, #8]
ARM GAS  C:\Users\164\AppData\Local\Temp\cc3ssgoH.s 			page 53


 1415              	.LVL204:
 1416              	.LBE245:
 1417              	.LBE244:
 576:c_string.c    ****   v->string->size = len1 + len2 - len;
 1418              		.loc 1 576 0
 1419 00b8 4A46     		mov	r2, r9
 1420 00ba 9968     		ldr	r1, [r3, #8]
 1421 00bc 0BEB0500 		add	r0, fp, r5
 1422 00c0 FFF7FEFF 		bl	memcpy
 1423              	.LVL205:
 577:c_string.c    **** 
 1424              		.loc 1 577 0
 1425 00c4 A368     		ldr	r3, [r4, #8]
 1426 00c6 4F44     		add	r7, r7, r9
 1427              	.LVL206:
 1428 00c8 BE1B     		subs	r6, r7, r6
 1429              	.LVL207:
 1430 00ca 9E80     		strh	r6, [r3, #4]	@ movhi
 579:c_string.c    **** }
 1431              		.loc 1 579 0
 1432 00cc A368     		ldr	r3, [r4, #8]
 1433 00ce C3F808B0 		str	fp, [r3, #8]
 1434              	.L106:
 1435 00d2 BDE8F88F 		pop	{r3, r4, r5, r6, r7, r8, r9, r10, fp, pc}
 1436              	.LVL208:
 1437              	.L118:
 1438 00d6 00BF     		.align	2
 1439              	.L117:
 1440 00d8 10000000 		.word	.LC1
 1441 00dc 20000000 		.word	.LC2
 1442              		.cfi_endproc
 1443              	.LFE106:
 1444              		.size	c_string_insert, .-c_string_insert
 1445              		.section	.text.mrbc_string_new,"ax",%progbits
 1446              		.align	2
 1447              		.global	mrbc_string_new
 1448              		.thumb
 1449              		.thumb_func
 1450              		.type	mrbc_string_new, %function
 1451              	mrbc_string_new:
 1452              	.LFB87:
  59:c_string.c    ****   mrbc_value value = {.tt = MRBC_TT_STRING};
 1453              		.loc 1 59 0
 1454              		.cfi_startproc
 1455              		@ args = 0, pretend = 0, frame = 0
 1456              		@ frame_needed = 0, uses_anonymous_args = 0
 1457              	.LVL209:
 1458 0000 2DE9F041 		push	{r4, r5, r6, r7, r8, lr}
 1459              		.cfi_def_cfa_offset 24
 1460              		.cfi_offset 4, -24
 1461              		.cfi_offset 5, -20
 1462              		.cfi_offset 6, -16
 1463              		.cfi_offset 7, -12
 1464              		.cfi_offset 8, -8
 1465              		.cfi_offset 14, -4
 1466 0004 0446     		mov	r4, r0
 1467 0006 0F46     		mov	r7, r1
ARM GAS  C:\Users\164\AppData\Local\Temp\cc3ssgoH.s 			page 54


 1468 0008 9046     		mov	r8, r2
 1469 000a 1E46     		mov	r6, r3
  60:c_string.c    **** 
 1470              		.loc 1 60 0
 1471 000c 0023     		movs	r3, #0
 1472              	.LVL210:
 1473 000e 0360     		str	r3, [r0]
 1474 0010 4360     		str	r3, [r0, #4]
 1475 0012 8360     		str	r3, [r0, #8]
 1476 0014 C360     		str	r3, [r0, #12]
 1477 0016 1723     		movs	r3, #23
 1478 0018 0370     		strb	r3, [r0]
  66:c_string.c    ****   if( !h ) return value;		// ENOMEM
 1479              		.loc 1 66 0
 1480 001a 0C21     		movs	r1, #12
 1481              	.LVL211:
 1482 001c 3846     		mov	r0, r7
 1483              	.LVL212:
 1484 001e FFF7FEFF 		bl	mrbc_alloc
 1485              	.LVL213:
  67:c_string.c    **** 
 1486              		.loc 1 67 0
 1487 0022 E8B1     		cbz	r0, .L119
 1488 0024 0546     		mov	r5, r0
  69:c_string.c    ****   if( !str ) {				// ENOMEM
 1489              		.loc 1 69 0
 1490 0026 711C     		adds	r1, r6, #1
 1491 0028 3846     		mov	r0, r7
 1492              	.LVL214:
 1493 002a FFF7FEFF 		bl	mrbc_alloc
 1494              	.LVL215:
  70:c_string.c    ****     mrbc_raw_free( h );
 1495              		.loc 1 70 0
 1496 002e 0746     		mov	r7, r0
 1497              	.LVL216:
 1498 0030 18B9     		cbnz	r0, .L121
  71:c_string.c    ****     return value;
 1499              		.loc 1 71 0
 1500 0032 2846     		mov	r0, r5
 1501              	.LVL217:
 1502 0034 FFF7FEFF 		bl	mrbc_raw_free
 1503              	.LVL218:
  72:c_string.c    ****   }
 1504              		.loc 1 72 0
 1505 0038 12E0     		b	.L119
 1506              	.LVL219:
 1507              	.L121:
  75:c_string.c    ****   h->tt = MRBC_TT_STRING;	// TODO: for DEBUG
 1508              		.loc 1 75 0
 1509 003a 0123     		movs	r3, #1
 1510 003c 2B80     		strh	r3, [r5]	@ movhi
  76:c_string.c    ****   h->size = len;
 1511              		.loc 1 76 0
 1512 003e 1723     		movs	r3, #23
 1513 0040 AB70     		strb	r3, [r5, #2]
  77:c_string.c    ****   h->data = str;
 1514              		.loc 1 77 0
ARM GAS  C:\Users\164\AppData\Local\Temp\cc3ssgoH.s 			page 55


 1515 0042 AE80     		strh	r6, [r5, #4]	@ movhi
  78:c_string.c    **** 
 1516              		.loc 1 78 0
 1517 0044 A860     		str	r0, [r5, #8]
  83:c_string.c    ****     str[0] = '\0';
 1518              		.loc 1 83 0
 1519 0046 B8F1000F 		cmp	r8, #0
 1520 004a 02D1     		bne	.L122
  84:c_string.c    ****   } else {
 1521              		.loc 1 84 0
 1522 004c 0023     		movs	r3, #0
 1523 004e 0370     		strb	r3, [r0]
 1524 0050 05E0     		b	.L123
 1525              	.L122:
  86:c_string.c    ****     str[len] = '\0';
 1526              		.loc 1 86 0
 1527 0052 3246     		mov	r2, r6
 1528 0054 4146     		mov	r1, r8
 1529 0056 FFF7FEFF 		bl	memcpy
 1530              	.LVL220:
  87:c_string.c    ****   }
 1531              		.loc 1 87 0
 1532 005a 0023     		movs	r3, #0
 1533 005c BB55     		strb	r3, [r7, r6]
 1534              	.L123:
  90:c_string.c    ****   return value;
 1535              		.loc 1 90 0
 1536 005e A560     		str	r5, [r4, #8]
 1537              	.LVL221:
 1538              	.L119:
  92:c_string.c    **** 
 1539              		.loc 1 92 0
 1540 0060 2046     		mov	r0, r4
 1541 0062 BDE8F081 		pop	{r4, r5, r6, r7, r8, pc}
 1542              		.cfi_endproc
 1543              	.LFE87:
 1544              		.size	mrbc_string_new, .-mrbc_string_new
 1545 0066 00BF     		.section	.text.c_string_slice,"ax",%progbits
 1546              		.align	2
 1547              		.thumb
 1548              		.thumb_func
 1549              		.type	c_string_slice, %function
 1550              	c_string_slice:
 1551              	.LFB105:
 461:c_string.c    ****   mrbc_value *v1 = &v[1];
 1552              		.loc 1 461 0
 1553              		.cfi_startproc
 1554              		@ args = 0, pretend = 0, frame = 32
 1555              		@ frame_needed = 0, uses_anonymous_args = 0
 1556              	.LVL222:
 1557 0000 30B5     		push	{r4, r5, lr}
 1558              		.cfi_def_cfa_offset 12
 1559              		.cfi_offset 4, -12
 1560              		.cfi_offset 5, -8
 1561              		.cfi_offset 14, -4
 1562 0002 89B0     		sub	sp, sp, #36
 1563              		.cfi_def_cfa_offset 48
ARM GAS  C:\Users\164\AppData\Local\Temp\cc3ssgoH.s 			page 56


 1564 0004 0C46     		mov	r4, r1
 1565              	.LVL223:
 468:c_string.c    ****     int len = v->string->size;
 1566              		.loc 1 468 0
 1567 0006 012A     		cmp	r2, #1
 1568 0008 34D1     		bne	.L126
 468:c_string.c    ****     int len = v->string->size;
 1569              		.loc 1 468 0 is_stmt 0 discriminator 1
 1570 000a 91F91030 		ldrsb	r3, [r1, #16]
 1571 000e 042B     		cmp	r3, #4
 1572 0010 30D1     		bne	.L126
 1573              	.LBB252:
 469:c_string.c    ****     int idx = v1->i;
 1574              		.loc 1 469 0 is_stmt 1
 1575 0012 8968     		ldr	r1, [r1, #8]
 1576              	.LVL224:
 1577 0014 8A88     		ldrh	r2, [r1, #4]
 1578              	.LVL225:
 470:c_string.c    ****     int ch = -1;
 1579              		.loc 1 470 0
 1580 0016 A369     		ldr	r3, [r4, #24]
 1581              	.LVL226:
 472:c_string.c    ****       if( idx < len ) {
 1582              		.loc 1 472 0
 1583 0018 002B     		cmp	r3, #0
 1584 001a 04DB     		blt	.L127
 473:c_string.c    ****         ch = *(v->string->data + idx);
 1585              		.loc 1 473 0
 1586 001c 9A42     		cmp	r2, r3
 1587 001e 07DD     		ble	.L135
 474:c_string.c    ****       }
 1588              		.loc 1 474 0
 1589 0020 8A68     		ldr	r2, [r1, #8]
 1590              	.LVL227:
 1591 0022 D55C     		ldrb	r5, [r2, r3]	@ zero_extendqisi2
 1592              	.LVL228:
 1593 0024 09E0     		b	.L128
 1594              	.LVL229:
 1595              	.L127:
 478:c_string.c    ****         ch = *(v->string->data + idx);
 1596              		.loc 1 478 0
 1597 0026 D318     		adds	r3, r2, r3
 1598              	.LVL230:
 1599 0028 05D4     		bmi	.L136
 479:c_string.c    ****       }
 1600              		.loc 1 479 0
 1601 002a 8A68     		ldr	r2, [r1, #8]
 1602              	.LVL231:
 1603 002c D55C     		ldrb	r5, [r2, r3]	@ zero_extendqisi2
 1604              	.LVL232:
 1605 002e 04E0     		b	.L128
 1606              	.LVL233:
 1607              	.L135:
 471:c_string.c    ****     if( idx >= 0 ) {
 1608              		.loc 1 471 0
 1609 0030 4FF0FF35 		mov	r5, #-1
 1610 0034 01E0     		b	.L128
ARM GAS  C:\Users\164\AppData\Local\Temp\cc3ssgoH.s 			page 57


 1611              	.L136:
 1612 0036 4FF0FF35 		mov	r5, #-1
 1613              	.LVL234:
 1614              	.L128:
 482:c_string.c    **** 
 1615              		.loc 1 482 0
 1616 003a 002D     		cmp	r5, #0
 1617 003c 4EDB     		blt	.L131
 484:c_string.c    ****     if( !value.string ) goto RETURN_NIL;		// ENOMEM
 1618              		.loc 1 484 0
 1619 003e 0123     		movs	r3, #1
 1620              	.LVL235:
 1621 0040 0022     		movs	r2, #0
 1622 0042 0146     		mov	r1, r0
 1623              	.LVL236:
 1624 0044 6846     		mov	r0, sp
 1625              	.LVL237:
 1626 0046 FFF7FEFF 		bl	mrbc_string_new
 1627              	.LVL238:
 485:c_string.c    **** 
 1628              		.loc 1 485 0
 1629 004a 029B     		ldr	r3, [sp, #8]
 1630 004c 002B     		cmp	r3, #0
 1631 004e 45D0     		beq	.L131
 487:c_string.c    ****     value.string->data[1] = '\0';
 1632              		.loc 1 487 0
 1633 0050 9A68     		ldr	r2, [r3, #8]
 1634 0052 1570     		strb	r5, [r2]
 488:c_string.c    ****     SET_RETURN(value);
 1635              		.loc 1 488 0
 1636 0054 9B68     		ldr	r3, [r3, #8]
 1637 0056 0022     		movs	r2, #0
 1638 0058 5A70     		strb	r2, [r3, #1]
 1639              	.LBB253:
 489:c_string.c    ****     return;		// normal return
 1640              		.loc 1 489 0
 1641 005a 04AD     		add	r5, sp, #16
 1642              	.LVL239:
 1643 005c 9DE80F00 		ldmia	sp, {r0, r1, r2, r3}
 1644 0060 85E80F00 		stmia	r5, {r0, r1, r2, r3}
 1645 0064 2046     		mov	r0, r4
 1646 0066 FFF7FEFF 		bl	mrbc_dec_ref_counter
 1647              	.LVL240:
 1648 006a 95E80F00 		ldmia	r5, {r0, r1, r2, r3}
 1649 006e 84E80F00 		stmia	r4, {r0, r1, r2, r3}
 1650 0072 38E0     		b	.L125
 1651              	.LVL241:
 1652              	.L126:
 1653              	.LBE253:
 1654              	.LBE252:
 496:c_string.c    ****     int len = v->string->size;
 1655              		.loc 1 496 0
 1656 0074 022A     		cmp	r2, #2
 1657 0076 2BD1     		bne	.L132
 496:c_string.c    ****     int len = v->string->size;
 1658              		.loc 1 496 0 is_stmt 0 discriminator 1
 1659 0078 94F91030 		ldrsb	r3, [r4, #16]
ARM GAS  C:\Users\164\AppData\Local\Temp\cc3ssgoH.s 			page 58


 1660 007c 042B     		cmp	r3, #4
 1661 007e 27D1     		bne	.L132
 496:c_string.c    ****     int len = v->string->size;
 1662              		.loc 1 496 0 discriminator 2
 1663 0080 94F92030 		ldrsb	r3, [r4, #32]
 1664 0084 042B     		cmp	r3, #4
 1665 0086 23D1     		bne	.L132
 1666              	.LBB254:
 497:c_string.c    ****     int idx = v1->i;
 1667              		.loc 1 497 0 is_stmt 1
 1668 0088 A568     		ldr	r5, [r4, #8]
 1669 008a AB88     		ldrh	r3, [r5, #4]
 1670              	.LVL242:
 498:c_string.c    ****     if( idx < 0 ) idx += len;
 1671              		.loc 1 498 0
 1672 008c A269     		ldr	r2, [r4, #24]
 1673              	.LVL243:
 499:c_string.c    ****     if( idx < 0 ) goto RETURN_NIL;
 1674              		.loc 1 499 0
 1675 008e 002A     		cmp	r2, #0
 1676 0090 00DA     		bge	.L133
 499:c_string.c    ****     if( idx < 0 ) goto RETURN_NIL;
 1677              		.loc 1 499 0 is_stmt 0 discriminator 1
 1678 0092 1A44     		add	r2, r2, r3
 1679              	.LVL244:
 1680              	.L133:
 500:c_string.c    **** 
 1681              		.loc 1 500 0 is_stmt 1
 1682 0094 002A     		cmp	r2, #0
 1683 0096 21DB     		blt	.L131
 502:c_string.c    **** 						// min( v2->i, (len-idx) )
 1684              		.loc 1 502 0
 1685 0098 9B1A     		subs	r3, r3, r2
 1686              	.LVL245:
 1687 009a A16A     		ldr	r1, [r4, #40]
 1688              	.LVL246:
 1689 009c 8B42     		cmp	r3, r1
 1690 009e A8BF     		it	ge
 1691 00a0 0B46     		movge	r3, r1
 1692              	.LVL247:
 504:c_string.c    **** 
 1693              		.loc 1 504 0
 1694 00a2 002B     		cmp	r3, #0
 1695 00a4 1ADB     		blt	.L131
 506:c_string.c    ****     if( !value.string ) goto RETURN_NIL;		// ENOMEM
 1696              		.loc 1 506 0
 1697 00a6 A968     		ldr	r1, [r5, #8]
 1698 00a8 0A44     		add	r2, r2, r1
 1699              	.LVL248:
 1700 00aa 0146     		mov	r1, r0
 1701 00ac 6846     		mov	r0, sp
 1702              	.LVL249:
 1703 00ae FFF7FEFF 		bl	mrbc_string_new
 1704              	.LVL250:
 507:c_string.c    **** 
 1705              		.loc 1 507 0
 1706 00b2 029B     		ldr	r3, [sp, #8]
ARM GAS  C:\Users\164\AppData\Local\Temp\cc3ssgoH.s 			page 59


 1707 00b4 93B1     		cbz	r3, .L131
 1708              	.LBB255:
 509:c_string.c    ****     return;		// normal return
 1709              		.loc 1 509 0
 1710 00b6 04AD     		add	r5, sp, #16
 1711 00b8 9DE80F00 		ldmia	sp, {r0, r1, r2, r3}
 1712 00bc 85E80F00 		stmia	r5, {r0, r1, r2, r3}
 1713 00c0 2046     		mov	r0, r4
 1714 00c2 FFF7FEFF 		bl	mrbc_dec_ref_counter
 1715              	.LVL251:
 1716 00c6 95E80F00 		ldmia	r5, {r0, r1, r2, r3}
 1717 00ca 84E80F00 		stmia	r4, {r0, r1, r2, r3}
 1718 00ce 0AE0     		b	.L125
 1719              	.LVL252:
 1720              	.L132:
 1721              	.LBE255:
 1722              	.LBE254:
 1723              	.LBB256:
 1724              	.LBB257:
 1725              		.loc 3 75 0
 1726 00d0 2422     		movs	r2, #36
 1727              	.LVL253:
 1728 00d2 0649     		ldr	r1, .L138
 1729              	.LVL254:
 1730 00d4 0120     		movs	r0, #1
 1731              	.LVL255:
 1732 00d6 FFF7FEFF 		bl	hal_write
 1733              	.LVL256:
 1734 00da 04E0     		b	.L125
 1735              	.LVL257:
 1736              	.L131:
 1737              	.LBE257:
 1738              	.LBE256:
 521:c_string.c    **** }
 1739              		.loc 1 521 0
 1740 00dc 2046     		mov	r0, r4
 1741 00de FFF7FEFF 		bl	mrbc_dec_ref_counter
 1742              	.LVL258:
 1743 00e2 0123     		movs	r3, #1
 1744 00e4 2370     		strb	r3, [r4]
 1745              	.L125:
 522:c_string.c    **** 
 1746              		.loc 1 522 0
 1747 00e6 09B0     		add	sp, sp, #36
 1748              		.cfi_def_cfa_offset 12
 1749              		@ sp needed
 1750 00e8 30BD     		pop	{r4, r5, pc}
 1751              	.LVL259:
 1752              	.L139:
 1753 00ea 00BF     		.align	2
 1754              	.L138:
 1755 00ec 2C000000 		.word	.LC3
 1756              		.cfi_endproc
 1757              	.LFE105:
 1758              		.size	c_string_slice, .-c_string_slice
 1759              		.section	.text.c_string_mul,"ax",%progbits
 1760              		.align	2
ARM GAS  C:\Users\164\AppData\Local\Temp\cc3ssgoH.s 			page 60


 1761              		.thumb
 1762              		.thumb_func
 1763              		.type	c_string_mul, %function
 1764              	c_string_mul:
 1765              	.LFB100:
 374:c_string.c    ****   if( v[1].tt != MRBC_TT_FIXNUM ) {
 1766              		.loc 1 374 0
 1767              		.cfi_startproc
 1768              		@ args = 0, pretend = 0, frame = 32
 1769              		@ frame_needed = 0, uses_anonymous_args = 0
 1770              	.LVL260:
 1771 0000 70B5     		push	{r4, r5, r6, lr}
 1772              		.cfi_def_cfa_offset 16
 1773              		.cfi_offset 4, -16
 1774              		.cfi_offset 5, -12
 1775              		.cfi_offset 6, -8
 1776              		.cfi_offset 14, -4
 1777 0002 88B0     		sub	sp, sp, #32
 1778              		.cfi_def_cfa_offset 48
 375:c_string.c    ****     console_print( "TypeError\n" );	// raise?
 1779              		.loc 1 375 0
 1780 0004 91F91030 		ldrsb	r3, [r1, #16]
 1781 0008 042B     		cmp	r3, #4
 1782 000a 05D0     		beq	.L141
 1783              	.LVL261:
 1784              	.LBB269:
 1785              	.LBB270:
 1786              		.loc 3 75 0
 1787 000c 0A22     		movs	r2, #10
 1788              	.LVL262:
 1789 000e 1C49     		ldr	r1, .L148
 1790              	.LVL263:
 1791 0010 0120     		movs	r0, #1
 1792              	.LVL264:
 1793 0012 FFF7FEFF 		bl	hal_write
 1794              	.LVL265:
 1795 0016 30E0     		b	.L140
 1796              	.LVL266:
 1797              	.L141:
 1798 0018 0C46     		mov	r4, r1
 1799              	.LBE270:
 1800              	.LBE269:
 380:c_string.c    ****     console_printf( "ArgumentError\n" );	// raise?
 1801              		.loc 1 380 0
 1802 001a 8B69     		ldr	r3, [r1, #24]
 1803 001c 002B     		cmp	r3, #0
 1804 001e 03DA     		bge	.L143
 381:c_string.c    ****     return;
 1805              		.loc 1 381 0
 1806 0020 1848     		ldr	r0, .L148+4
 1807              	.LVL267:
 1808 0022 FFF7FEFF 		bl	console_printf
 1809              	.LVL268:
 382:c_string.c    ****   }
 1810              		.loc 1 382 0
 1811 0026 28E0     		b	.L140
 1812              	.LVL269:
ARM GAS  C:\Users\164\AppData\Local\Temp\cc3ssgoH.s 			page 61


 1813              	.L143:
 1814              	.LBB271:
 1815              	.LBB272:
  72:c_string.h    **** }
 1816              		.loc 2 72 0
 1817 0028 8A68     		ldr	r2, [r1, #8]
 1818              	.LVL270:
 1819 002a 9288     		ldrh	r2, [r2, #4]
 1820              	.LVL271:
 1821              	.LBE272:
 1822              	.LBE271:
 385:c_string.c    **** 				    mrbc_string_size(&v[0]) * v[1].i);
 1823              		.loc 1 385 0
 1824 002c 02FB03F3 		mul	r3, r2, r3
 1825 0030 0022     		movs	r2, #0
 1826 0032 0146     		mov	r1, r0
 1827              	.LVL272:
 1828 0034 04A8     		add	r0, sp, #16
 1829              	.LVL273:
 1830 0036 FFF7FEFF 		bl	mrbc_string_new
 1831              	.LVL274:
 387:c_string.c    **** 
 1832              		.loc 1 387 0
 1833 003a 069B     		ldr	r3, [sp, #24]
 1834 003c EBB1     		cbz	r3, .L140
 389:c_string.c    ****   int i;
 1835              		.loc 1 389 0
 1836 003e 9D68     		ldr	r5, [r3, #8]
 1837              	.LVL275:
 391:c_string.c    ****     memcpy( p, mrbc_string_cstr(&v[0]), mrbc_string_size(&v[0]) );
 1838              		.loc 1 391 0
 1839 0040 0026     		movs	r6, #0
 1840 0042 09E0     		b	.L144
 1841              	.LVL276:
 1842              	.L145:
 1843              	.LBB273:
 1844              	.LBB274:
 1845              		.loc 2 80 0
 1846 0044 A368     		ldr	r3, [r4, #8]
 1847              	.LVL277:
 1848              	.LBE274:
 1849              	.LBE273:
 392:c_string.c    ****     p += mrbc_string_size(&v[0]);
 1850              		.loc 1 392 0
 1851 0046 9A88     		ldrh	r2, [r3, #4]
 1852 0048 9968     		ldr	r1, [r3, #8]
 1853 004a 2846     		mov	r0, r5
 1854 004c FFF7FEFF 		bl	memcpy
 1855              	.LVL278:
 1856              	.LBB275:
 1857              	.LBB276:
  72:c_string.h    **** }
 1858              		.loc 2 72 0
 1859 0050 A368     		ldr	r3, [r4, #8]
 1860 0052 9B88     		ldrh	r3, [r3, #4]
 1861              	.LVL279:
 1862              	.LBE276:
ARM GAS  C:\Users\164\AppData\Local\Temp\cc3ssgoH.s 			page 62


 1863              	.LBE275:
 393:c_string.c    ****   }
 1864              		.loc 1 393 0
 1865 0054 1D44     		add	r5, r5, r3
 1866              	.LVL280:
 391:c_string.c    ****     memcpy( p, mrbc_string_cstr(&v[0]), mrbc_string_size(&v[0]) );
 1867              		.loc 1 391 0
 1868 0056 0136     		adds	r6, r6, #1
 1869              	.LVL281:
 1870              	.L144:
 391:c_string.c    ****     memcpy( p, mrbc_string_cstr(&v[0]), mrbc_string_size(&v[0]) );
 1871              		.loc 1 391 0 is_stmt 0 discriminator 1
 1872 0058 A369     		ldr	r3, [r4, #24]
 1873 005a 9E42     		cmp	r6, r3
 1874 005c F2DB     		blt	.L145
 395:c_string.c    **** 
 1875              		.loc 1 395 0 is_stmt 1
 1876 005e 0023     		movs	r3, #0
 1877 0060 2B70     		strb	r3, [r5]
 1878              	.LBB277:
 397:c_string.c    **** }
 1879              		.loc 1 397 0
 1880 0062 08AB     		add	r3, sp, #32
 1881 0064 13E90F00 		ldmdb	r3, {r0, r1, r2, r3}
 1882 0068 8DE80F00 		stmia	sp, {r0, r1, r2, r3}
 1883 006c 2046     		mov	r0, r4
 1884 006e FFF7FEFF 		bl	mrbc_dec_ref_counter
 1885              	.LVL282:
 1886 0072 9DE80F00 		ldmia	sp, {r0, r1, r2, r3}
 1887 0076 84E80F00 		stmia	r4, {r0, r1, r2, r3}
 1888              	.LVL283:
 1889              	.L140:
 1890              	.LBE277:
 398:c_string.c    **** 
 1891              		.loc 1 398 0
 1892 007a 08B0     		add	sp, sp, #32
 1893              		.cfi_def_cfa_offset 16
 1894              		@ sp needed
 1895 007c 70BD     		pop	{r4, r5, r6, pc}
 1896              	.L149:
 1897 007e 00BF     		.align	2
 1898              	.L148:
 1899 0080 54000000 		.word	.LC4
 1900 0084 00000000 		.word	.LC0
 1901              		.cfi_endproc
 1902              	.LFE100:
 1903              		.size	c_string_mul, .-c_string_mul
 1904              		.section	.text.mrbc_string_new_cstr,"ax",%progbits
 1905              		.align	2
 1906              		.global	mrbc_string_new_cstr
 1907              		.thumb
 1908              		.thumb_func
 1909              		.type	mrbc_string_new_cstr, %function
 1910              	mrbc_string_new_cstr:
 1911              	.LFB88:
 103:c_string.c    ****   return mrbc_string_new(vm, src, (src ? strlen(src) : 0));
 1912              		.loc 1 103 0
ARM GAS  C:\Users\164\AppData\Local\Temp\cc3ssgoH.s 			page 63


 1913              		.cfi_startproc
 1914              		@ args = 0, pretend = 0, frame = 0
 1915              		@ frame_needed = 0, uses_anonymous_args = 0
 1916              	.LVL284:
 1917 0000 70B5     		push	{r4, r5, r6, lr}
 1918              		.cfi_def_cfa_offset 16
 1919              		.cfi_offset 4, -16
 1920              		.cfi_offset 5, -12
 1921              		.cfi_offset 6, -8
 1922              		.cfi_offset 14, -4
 1923 0002 0446     		mov	r4, r0
 1924 0004 0E46     		mov	r6, r1
 104:c_string.c    **** }
 1925              		.loc 1 104 0
 1926 0006 1546     		mov	r5, r2
 1927 0008 22B1     		cbz	r2, .L152
 104:c_string.c    **** }
 1928              		.loc 1 104 0 is_stmt 0 discriminator 1
 1929 000a 1046     		mov	r0, r2
 1930              	.LVL285:
 1931 000c FFF7FEFF 		bl	strlen
 1932              	.LVL286:
 1933 0010 0346     		mov	r3, r0
 1934 0012 00E0     		b	.L151
 1935              	.LVL287:
 1936              	.L152:
 104:c_string.c    **** }
 1937              		.loc 1 104 0
 1938 0014 0023     		movs	r3, #0
 1939              	.LVL288:
 1940              	.L151:
 104:c_string.c    **** }
 1941              		.loc 1 104 0 discriminator 4
 1942 0016 2A46     		mov	r2, r5
 1943 0018 3146     		mov	r1, r6
 1944 001a 2046     		mov	r0, r4
 1945 001c FFF7FEFF 		bl	mrbc_string_new
 1946              	.LVL289:
 105:c_string.c    **** 
 1947              		.loc 1 105 0 is_stmt 1 discriminator 4
 1948 0020 2046     		mov	r0, r4
 1949 0022 70BD     		pop	{r4, r5, r6, pc}
 1950              		.cfi_endproc
 1951              	.LFE88:
 1952              		.size	mrbc_string_new_cstr, .-mrbc_string_new_cstr
 1953              		.section	.text.mrbc_string_new_alloc,"ax",%progbits
 1954              		.align	2
 1955              		.global	mrbc_string_new_alloc
 1956              		.thumb
 1957              		.thumb_func
 1958              		.type	mrbc_string_new_alloc, %function
 1959              	mrbc_string_new_alloc:
 1960              	.LFB89:
 117:c_string.c    ****   mrbc_value value = {.tt = MRBC_TT_STRING};
 1961              		.loc 1 117 0
 1962              		.cfi_startproc
 1963              		@ args = 0, pretend = 0, frame = 0
ARM GAS  C:\Users\164\AppData\Local\Temp\cc3ssgoH.s 			page 64


 1964              		@ frame_needed = 0, uses_anonymous_args = 0
 1965              	.LVL290:
 1966 0000 70B5     		push	{r4, r5, r6, lr}
 1967              		.cfi_def_cfa_offset 16
 1968              		.cfi_offset 4, -16
 1969              		.cfi_offset 5, -12
 1970              		.cfi_offset 6, -8
 1971              		.cfi_offset 14, -4
 1972 0002 0446     		mov	r4, r0
 1973 0004 0846     		mov	r0, r1
 1974              	.LVL291:
 1975 0006 1546     		mov	r5, r2
 1976 0008 1E46     		mov	r6, r3
 118:c_string.c    **** 
 1977              		.loc 1 118 0
 1978 000a 0023     		movs	r3, #0
 1979              	.LVL292:
 1980 000c 2360     		str	r3, [r4]
 1981 000e 6360     		str	r3, [r4, #4]
 1982 0010 A360     		str	r3, [r4, #8]
 1983 0012 E360     		str	r3, [r4, #12]
 1984 0014 1723     		movs	r3, #23
 1985 0016 2370     		strb	r3, [r4]
 124:c_string.c    ****   if( !h ) return value;		// ENOMEM
 1986              		.loc 1 124 0
 1987 0018 0C21     		movs	r1, #12
 1988              	.LVL293:
 1989 001a FFF7FEFF 		bl	mrbc_alloc
 1990              	.LVL294:
 125:c_string.c    **** 
 1991              		.loc 1 125 0
 1992 001e 30B1     		cbz	r0, .L154
 127:c_string.c    ****   h->tt = MRBC_TT_STRING;	// TODO: for DEBUG
 1993              		.loc 1 127 0
 1994 0020 0122     		movs	r2, #1
 1995 0022 0280     		strh	r2, [r0]	@ movhi
 128:c_string.c    ****   h->size = len;
 1996              		.loc 1 128 0
 1997 0024 1722     		movs	r2, #23
 1998 0026 8270     		strb	r2, [r0, #2]
 129:c_string.c    ****   h->data = buf;
 1999              		.loc 1 129 0
 2000 0028 8680     		strh	r6, [r0, #4]	@ movhi
 130:c_string.c    **** 
 2001              		.loc 1 130 0
 2002 002a 8560     		str	r5, [r0, #8]
 132:c_string.c    ****   return value;
 2003              		.loc 1 132 0
 2004 002c A060     		str	r0, [r4, #8]
 2005              	.L154:
 134:c_string.c    **** 
 2006              		.loc 1 134 0
 2007 002e 2046     		mov	r0, r4
 2008              	.LVL295:
 2009 0030 70BD     		pop	{r4, r5, r6, pc}
 2010              		.cfi_endproc
 2011              	.LFE89:
ARM GAS  C:\Users\164\AppData\Local\Temp\cc3ssgoH.s 			page 65


 2012              		.size	mrbc_string_new_alloc, .-mrbc_string_new_alloc
 2013              		.global	__aeabi_d2iz
 2014              		.global	__aeabi_i2d
 2015 0032 00BF     		.section	.text.c_object_sprintf,"ax",%progbits
 2016              		.align	2
 2017              		.thumb
 2018              		.thumb_func
 2019              		.type	c_object_sprintf, %function
 2020              	c_object_sprintf:
 2021              	.LFB114:
 804:c_string.c    ****   static const int BUF_INC_STEP = 32;	// bytes.
 2022              		.loc 1 804 0
 2023              		.cfi_startproc
 2024              		@ args = 0, pretend = 0, frame = 80
 2025              		@ frame_needed = 0, uses_anonymous_args = 0
 2026              	.LVL296:
 2027 0000 2DE9F047 		push	{r4, r5, r6, r7, r8, r9, r10, lr}
 2028              		.cfi_def_cfa_offset 32
 2029              		.cfi_offset 4, -32
 2030              		.cfi_offset 5, -28
 2031              		.cfi_offset 6, -24
 2032              		.cfi_offset 7, -20
 2033              		.cfi_offset 8, -16
 2034              		.cfi_offset 9, -12
 2035              		.cfi_offset 10, -8
 2036              		.cfi_offset 14, -4
 2037 0004 94B0     		sub	sp, sp, #80
 2038              		.cfi_def_cfa_offset 112
 2039              	.LVL297:
 808:c_string.c    ****     console_printf( "TypeError\n" );	// raise?
 2040              		.loc 1 808 0
 2041 0006 91F91030 		ldrsb	r3, [r1, #16]
 2042 000a 172B     		cmp	r3, #23
 2043 000c 03D0     		beq	.L158
 809:c_string.c    ****     return;
 2044              		.loc 1 809 0
 2045 000e 8B48     		ldr	r0, .L182
 2046              	.LVL298:
 2047 0010 FFF7FEFF 		bl	console_printf
 2048              	.LVL299:
 810:c_string.c    ****   }
 2049              		.loc 1 810 0
 2050 0014 0EE1     		b	.L157
 2051              	.LVL300:
 2052              	.L158:
 2053 0016 8246     		mov	r10, r0
 2054 0018 0F46     		mov	r7, r1
 2055 001a 9146     		mov	r9, r2
 2056              	.LVL301:
 814:c_string.c    ****   if( !buf ) { return; }	// ENOMEM raise?
 2057              		.loc 1 814 0
 2058 001c 2021     		movs	r1, #32
 2059              	.LVL302:
 2060 001e FFF7FEFF 		bl	mrbc_alloc
 2061              	.LVL303:
 815:c_string.c    **** 
 2062              		.loc 1 815 0
ARM GAS  C:\Users\164\AppData\Local\Temp\cc3ssgoH.s 			page 66


 2063 0022 0346     		mov	r3, r0
 2064 0024 0028     		cmp	r0, #0
 2065 0026 00F00581 		beq	.L157
 2066              	.LVL304:
 2067              	.LBB301:
 2068              	.LBB302:
 2069              		.loc 2 80 0
 2070 002a BA69     		ldr	r2, [r7, #24]
 2071 002c 9268     		ldr	r2, [r2, #8]
 2072              	.LVL305:
 2073              	.LBE302:
 2074              	.LBE301:
 2075              	.LBB303:
 2076              	.LBB304:
  76:console.h     **** }
  77:console.h     **** 
  78:console.h     **** 
  79:console.h     **** //================================================================
  80:console.h     **** /*! output string with length parameter.
  81:console.h     **** 
  82:console.h     ****   @param str	str
  83:console.h     ****   @param size	byte length.
  84:console.h     **** */
  85:console.h     **** static inline void console_nprint(const char *str, int size)
  86:console.h     **** {
  87:console.h     ****   hal_write(1, str, size);
  88:console.h     **** }
  89:console.h     **** 
  90:console.h     **** 
  91:console.h     **** //================================================================
  92:console.h     **** /*! initialize data container.
  93:console.h     **** 
  94:console.h     ****   @param  pf	pointer to mrbc_printf
  95:console.h     ****   @param  buf	pointer to output buffer.
  96:console.h     ****   @param  size	buffer size.
  97:console.h     ****   @param  fstr	format string.
  98:console.h     **** */
  99:console.h     **** static inline void mrbc_printf_init( mrbc_printf *pf, char *buf, int size,
 100:console.h     **** 				     const char *fstr )
 101:console.h     **** {
 102:console.h     ****   pf->p = pf->buf = buf;
 2077              		.loc 3 102 0
 2078 002e 0D90     		str	r0, [sp, #52]
 2079 0030 0F90     		str	r0, [sp, #60]
 103:console.h     ****   pf->buf_end = buf + size - 1;
 2080              		.loc 3 103 0
 2081 0032 1F33     		adds	r3, r3, #31
 2082 0034 0E93     		str	r3, [sp, #56]
 104:console.h     ****   pf->fstr = fstr;
 2083              		.loc 3 104 0
 2084 0036 1092     		str	r2, [sp, #64]
 105:console.h     ****   pf->fmt = (struct RPrintfFormat){0};
 2085              		.loc 3 105 0
 2086 0038 0023     		movs	r3, #0
 2087 003a 1193     		str	r3, [sp, #68]
 2088 003c 1293     		str	r3, [sp, #72]
 2089 003e 1393     		str	r3, [sp, #76]
ARM GAS  C:\Users\164\AppData\Local\Temp\cc3ssgoH.s 			page 67


 2090              	.LVL306:
 2091              	.LBE304:
 2092              	.LBE303:
 820:c_string.c    ****   int ret;
 2093              		.loc 1 820 0
 2094 0040 0226     		movs	r6, #2
 813:c_string.c    ****   char *buf = mrbc_alloc(vm, buflen);
 2095              		.loc 1 813 0
 2096 0042 4FF02008 		mov	r8, #32
 2097              	.LVL307:
 2098              	.L160:
 2099              	.LBB305:
 823:c_string.c    ****     ret = mrbc_printf_main( &pf );
 2100              		.loc 1 823 0
 2101 0046 6C46     		mov	r4, sp
 2102 0048 0DAD     		add	r5, sp, #52
 2103 004a 0FCD     		ldmia	r5!, {r0, r1, r2, r3}
 2104 004c 0FC4     		stmia	r4!, {r0, r1, r2, r3}
 2105 004e 95E80700 		ldmia	r5, {r0, r1, r2}
 2106 0052 84E80700 		stmia	r4, {r0, r1, r2}
 824:c_string.c    ****     if( ret == 0 ) break;	// normal break loop.
 2107              		.loc 1 824 0
 2108 0056 0DA8     		add	r0, sp, #52
 2109 0058 FFF7FEFF 		bl	mrbc_printf_main
 2110              	.LVL308:
 825:c_string.c    ****     if( ret < 0 ) goto INCREASE_BUFFER;
 2111              		.loc 1 825 0
 2112 005c 0246     		mov	r2, r0
 2113 005e 0028     		cmp	r0, #0
 2114 0060 00F0CC80 		beq	.L161
 826:c_string.c    **** 
 2115              		.loc 1 826 0
 2116 0064 0028     		cmp	r0, #0
 2117 0066 C0F2BB80 		blt	.L162
 828:c_string.c    **** 
 2118              		.loc 1 828 0
 2119 006a 4E45     		cmp	r6, r9
 2120 006c 05DD     		ble	.L163
 2121              	.LVL309:
 2122              	.LBB306:
 2123              	.LBB307:
  75:console.h     **** }
 2124              		.loc 3 75 0
 2125 006e 0E22     		movs	r2, #14
 2126 0070 7349     		ldr	r1, .L182+4
 2127 0072 0120     		movs	r0, #1
 2128              	.LVL310:
 2129 0074 FFF7FEFF 		bl	hal_write
 2130              	.LVL311:
 2131 0078 C0E0     		b	.L161
 2132              	.LVL312:
 2133              	.L163:
 2134              	.LBE307:
 2135              	.LBE306:
 831:c_string.c    ****     case 'c':
 2136              		.loc 1 831 0
 2137 007a 9DF84430 		ldrb	r3, [sp, #68]	@ zero_extendqisi2
ARM GAS  C:\Users\164\AppData\Local\Temp\cc3ssgoH.s 			page 68


 2138 007e 423B     		subs	r3, r3, #66
 2139 0080 362B     		cmp	r3, #54
 2140 0082 00F29D80 		bhi	.L164
 2141 0086 DFE803F0 		tbb	[pc, r3]
 2142              	.L166:
 2143 008a 6C       		.byte	(.L165-.L166)/2
 2144 008b 9B       		.byte	(.L164-.L166)/2
 2145 008c 9B       		.byte	(.L164-.L166)/2
 2146 008d 84       		.byte	(.L167-.L166)/2
 2147 008e 9B       		.byte	(.L164-.L166)/2
 2148 008f 84       		.byte	(.L167-.L166)/2
 2149 0090 9B       		.byte	(.L164-.L166)/2
 2150 0091 9B       		.byte	(.L164-.L166)/2
 2151 0092 9B       		.byte	(.L164-.L166)/2
 2152 0093 9B       		.byte	(.L164-.L166)/2
 2153 0094 9B       		.byte	(.L164-.L166)/2
 2154 0095 9B       		.byte	(.L164-.L166)/2
 2155 0096 9B       		.byte	(.L164-.L166)/2
 2156 0097 9B       		.byte	(.L164-.L166)/2
 2157 0098 9B       		.byte	(.L164-.L166)/2
 2158 0099 9B       		.byte	(.L164-.L166)/2
 2159 009a 9B       		.byte	(.L164-.L166)/2
 2160 009b 9B       		.byte	(.L164-.L166)/2
 2161 009c 9B       		.byte	(.L164-.L166)/2
 2162 009d 9B       		.byte	(.L164-.L166)/2
 2163 009e 9B       		.byte	(.L164-.L166)/2
 2164 009f 9B       		.byte	(.L164-.L166)/2
 2165 00a0 78       		.byte	(.L168-.L166)/2
 2166 00a1 9B       		.byte	(.L164-.L166)/2
 2167 00a2 9B       		.byte	(.L164-.L166)/2
 2168 00a3 9B       		.byte	(.L164-.L166)/2
 2169 00a4 9B       		.byte	(.L164-.L166)/2
 2170 00a5 9B       		.byte	(.L164-.L166)/2
 2171 00a6 9B       		.byte	(.L164-.L166)/2
 2172 00a7 9B       		.byte	(.L164-.L166)/2
 2173 00a8 9B       		.byte	(.L164-.L166)/2
 2174 00a9 9B       		.byte	(.L164-.L166)/2
 2175 00aa 6C       		.byte	(.L165-.L166)/2
 2176 00ab 1C       		.byte	(.L169-.L166)/2
 2177 00ac 46       		.byte	(.L170-.L166)/2
 2178 00ad 84       		.byte	(.L167-.L166)/2
 2179 00ae 84       		.byte	(.L167-.L166)/2
 2180 00af 84       		.byte	(.L167-.L166)/2
 2181 00b0 9B       		.byte	(.L164-.L166)/2
 2182 00b1 46       		.byte	(.L170-.L166)/2
 2183 00b2 9B       		.byte	(.L164-.L166)/2
 2184 00b3 9B       		.byte	(.L164-.L166)/2
 2185 00b4 9B       		.byte	(.L164-.L166)/2
 2186 00b5 9B       		.byte	(.L164-.L166)/2
 2187 00b6 9B       		.byte	(.L164-.L166)/2
 2188 00b7 9B       		.byte	(.L164-.L166)/2
 2189 00b8 9B       		.byte	(.L164-.L166)/2
 2190 00b9 9B       		.byte	(.L164-.L166)/2
 2191 00ba 9B       		.byte	(.L164-.L166)/2
 2192 00bb 27       		.byte	(.L171-.L166)/2
 2193 00bc 9B       		.byte	(.L164-.L166)/2
 2194 00bd 46       		.byte	(.L170-.L166)/2
ARM GAS  C:\Users\164\AppData\Local\Temp\cc3ssgoH.s 			page 69


 2195 00be 9B       		.byte	(.L164-.L166)/2
 2196 00bf 9B       		.byte	(.L164-.L166)/2
 2197 00c0 78       		.byte	(.L168-.L166)/2
 2198 00c1 00       		.p2align 1
 2199              	.L169:
 833:c_string.c    **** 	ret = mrbc_printf_char( &pf, v[i].i );
 2200              		.loc 1 833 0
 2201 00c2 3301     		lsls	r3, r6, #4
 2202 00c4 F918     		adds	r1, r7, r3
 2203 00c6 FB56     		ldrsb	r3, [r7, r3]
 2204 00c8 042B     		cmp	r3, #4
 2205 00ca 79D1     		bne	.L164
 834:c_string.c    ****       }
 2206              		.loc 1 834 0
 2207 00cc 8968     		ldr	r1, [r1, #8]
 2208 00ce 0DA8     		add	r0, sp, #52
 2209              	.LVL313:
 2210 00d0 FFF7FEFF 		bl	mrbc_printf_char
 2211              	.LVL314:
 2212 00d4 0246     		mov	r2, r0
 2213              	.LVL315:
 2214 00d6 73E0     		b	.L164
 2215              	.L171:
 839:c_string.c    **** 	ret = mrbc_printf_bstr( &pf, mrbc_string_cstr(&v[i]), mrbc_string_size(&v[i]),' ');
 2216              		.loc 1 839 0
 2217 00d8 3301     		lsls	r3, r6, #4
 2218 00da F918     		adds	r1, r7, r3
 2219 00dc FB56     		ldrsb	r3, [r7, r3]
 2220 00de 172B     		cmp	r3, #23
 2221 00e0 08D1     		bne	.L172
 2222              	.LVL316:
 2223              	.LBB308:
 2224              	.LBB309:
 2225              		.loc 2 80 0
 2226 00e2 8968     		ldr	r1, [r1, #8]
 2227              	.LVL317:
 2228              	.LBE309:
 2229              	.LBE308:
 840:c_string.c    ****       } else if( v[i].tt == MRBC_TT_SYMBOL ) {
 2230              		.loc 1 840 0
 2231 00e4 2023     		movs	r3, #32
 2232 00e6 8A88     		ldrh	r2, [r1, #4]
 2233 00e8 8968     		ldr	r1, [r1, #8]
 2234 00ea 0DA8     		add	r0, sp, #52
 2235              	.LVL318:
 2236 00ec FFF7FEFF 		bl	mrbc_printf_bstr
 2237              	.LVL319:
 2238 00f0 0246     		mov	r2, r0
 2239              	.LVL320:
 2240 00f2 65E0     		b	.L164
 2241              	.L172:
 841:c_string.c    **** 	ret = mrbc_printf_str( &pf, mrbc_symbol_cstr( &v[i] ), ' ');
 2242              		.loc 1 841 0
 2243 00f4 062B     		cmp	r3, #6
 2244 00f6 63D1     		bne	.L164
 2245              	.LVL321:
 2246              	.LBB310:
ARM GAS  C:\Users\164\AppData\Local\Temp\cc3ssgoH.s 			page 70


 2247              	.LBB311:
 2248              		.file 4 "symbol.h"
   1:symbol.h      **** /*! @file
   2:symbol.h      ****   @brief
   3:symbol.h      ****   mruby/c Symbol class
   4:symbol.h      **** 
   5:symbol.h      ****   <pre>
   6:symbol.h      ****   Copyright (C) 2015-2018 Kyushu Institute of Technology.
   7:symbol.h      ****   Copyright (C) 2015-2018 Shimane IT Open-Innovation Center.
   8:symbol.h      **** 
   9:symbol.h      ****   This file is distributed under BSD 3-Clause License.
  10:symbol.h      **** 
  11:symbol.h      ****   </pre>
  12:symbol.h      **** */
  13:symbol.h      **** 
  14:symbol.h      **** #ifndef MRBC_SRC_SYMBOL_H_
  15:symbol.h      **** #define MRBC_SRC_SYMBOL_H_
  16:symbol.h      **** 
  17:symbol.h      **** #include "value.h"
  18:symbol.h      **** 
  19:symbol.h      **** #ifdef __cplusplus
  20:symbol.h      **** extern "C" {
  21:symbol.h      **** #endif
  22:symbol.h      **** 
  23:symbol.h      **** 
  24:symbol.h      **** mrbc_value mrbc_symbol_new(struct VM *vm, const char *str);
  25:symbol.h      **** uint16_t calc_hash(const char *str);
  26:symbol.h      **** mrbc_sym str_to_symid(const char *str);
  27:symbol.h      **** const char *symid_to_str(mrbc_sym sym_id);
  28:symbol.h      **** void mrbc_init_class_symbol(struct VM *vm);
  29:symbol.h      **** 
  30:symbol.h      **** #if defined(MRBC_DEBUG)
  31:symbol.h      **** void mrbc_symbol_statistics( int *total_used );
  32:symbol.h      **** #endif
  33:symbol.h      **** 
  34:symbol.h      **** 
  35:symbol.h      **** //================================================================
  36:symbol.h      **** /*! get c-language string (char *)
  37:symbol.h      **** */
  38:symbol.h      **** static inline const char * mrbc_symbol_cstr(const mrbc_value *v)
  39:symbol.h      **** {
  40:symbol.h      ****   return symid_to_str(v->i);
 2249              		.loc 4 40 0
 2250 00f8 B1F90800 		ldrsh	r0, [r1, #8]
 2251              	.LVL322:
 2252 00fc FFF7FEFF 		bl	symid_to_str
 2253              	.LVL323:
 2254 0100 0446     		mov	r4, r0
 2255              	.LVL324:
 2256              	.LBE311:
 2257              	.LBE310:
 2258              	.LBB312:
 2259              	.LBB313:
 106:console.h     **** }
 107:console.h     **** 
 108:console.h     **** 
 109:console.h     **** //================================================================
ARM GAS  C:\Users\164\AppData\Local\Temp\cc3ssgoH.s 			page 71


 110:console.h     **** /*! clear output buffer in container.
 111:console.h     **** 
 112:console.h     ****   @param  pf	pointer to mrbc_printf
 113:console.h     **** */
 114:console.h     **** static inline void mrbc_printf_clear( mrbc_printf *pf )
 115:console.h     **** {
 116:console.h     ****   pf->p = pf->buf;
 117:console.h     **** }
 118:console.h     **** 
 119:console.h     **** 
 120:console.h     **** //================================================================
 121:console.h     **** /*! terminate ('\0') output buffer.
 122:console.h     **** 
 123:console.h     ****   @param  pf	pointer to mrbc_printf
 124:console.h     **** */
 125:console.h     **** static inline void mrbc_printf_end( mrbc_printf *pf )
 126:console.h     **** {
 127:console.h     ****   *pf->p = '\0';
 128:console.h     **** }
 129:console.h     **** 
 130:console.h     **** 
 131:console.h     **** //================================================================
 132:console.h     **** /*! return string length in buffer
 133:console.h     **** 
 134:console.h     ****   @param  pf	pointer to mrbc_printf
 135:console.h     ****   @return	length
 136:console.h     **** */
 137:console.h     **** static inline int mrbc_printf_len( mrbc_printf *pf )
 138:console.h     **** {
 139:console.h     ****   return pf->p - pf->buf;
 140:console.h     **** }
 141:console.h     **** 
 142:console.h     **** 
 143:console.h     **** //================================================================
 144:console.h     **** /*! sprintf subcontract function for char '%s'
 145:console.h     **** 
 146:console.h     ****   @param  pf	pointer to mrbc_printf.
 147:console.h     ****   @param  str	output string.
 148:console.h     ****   @param  pad	padding character.
 149:console.h     ****   @retval 0	done.
 150:console.h     ****   @retval -1	buffer full.
 151:console.h     ****   @note		not terminate ('\0') buffer tail.
 152:console.h     **** */
 153:console.h     **** static inline int mrbc_printf_str( mrbc_printf *pf, const char *str, int pad )
 154:console.h     **** {
 155:console.h     ****   return mrbc_printf_bstr( pf, str, strlen(str), pad );
 2260              		.loc 3 155 0
 2261 0102 FFF7FEFF 		bl	strlen
 2262              	.LVL325:
 2263 0106 2023     		movs	r3, #32
 2264 0108 0246     		mov	r2, r0
 2265 010a 2146     		mov	r1, r4
 2266 010c 0DA8     		add	r0, sp, #52
 2267              	.LVL326:
 2268 010e FFF7FEFF 		bl	mrbc_printf_bstr
 2269              	.LVL327:
 2270 0112 0246     		mov	r2, r0
ARM GAS  C:\Users\164\AppData\Local\Temp\cc3ssgoH.s 			page 72


 2271              	.LVL328:
 2272 0114 54E0     		b	.L164
 2273              	.LVL329:
 2274              	.L170:
 2275              	.LBE313:
 2276              	.LBE312:
 849:c_string.c    **** 	ret = mrbc_printf_int( &pf, v[i].i, 10);
 2277              		.loc 1 849 0
 2278 0116 3301     		lsls	r3, r6, #4
 2279 0118 F918     		adds	r1, r7, r3
 2280 011a FB56     		ldrsb	r3, [r7, r3]
 2281 011c 042B     		cmp	r3, #4
 2282 011e 06D1     		bne	.L173
 850:c_string.c    **** #if MRBC_USE_FLOAT
 2283              		.loc 1 850 0
 2284 0120 0A22     		movs	r2, #10
 2285 0122 8968     		ldr	r1, [r1, #8]
 2286 0124 0DA8     		add	r0, sp, #52
 2287              	.LVL330:
 2288 0126 FFF7FEFF 		bl	mrbc_printf_int
 2289              	.LVL331:
 2290 012a 0246     		mov	r2, r0
 2291              	.LVL332:
 2292 012c 48E0     		b	.L164
 2293              	.L173:
 852:c_string.c    **** 	ret = mrbc_printf_int( &pf, (mrbc_int)v[i].d, 10);
 2294              		.loc 1 852 0
 2295 012e 052B     		cmp	r3, #5
 2296 0130 0AD1     		bne	.L174
 853:c_string.c    **** #endif
 2297              		.loc 1 853 0
 2298 0132 D1E90201 		ldrd	r0, [r1, #8]
 2299              	.LVL333:
 2300 0136 FFF7FEFF 		bl	__aeabi_d2iz
 2301              	.LVL334:
 2302 013a 0A22     		movs	r2, #10
 2303 013c 0146     		mov	r1, r0
 2304 013e 0DA8     		add	r0, sp, #52
 2305 0140 FFF7FEFF 		bl	mrbc_printf_int
 2306              	.LVL335:
 2307 0144 0246     		mov	r2, r0
 2308              	.LVL336:
 2309 0146 3BE0     		b	.L164
 2310              	.L174:
 855:c_string.c    **** 	mrbc_int ival = atol(mrbc_string_cstr(&v[i]));
 2311              		.loc 1 855 0
 2312 0148 172B     		cmp	r3, #23
 2313 014a 39D1     		bne	.L164
 2314              	.LVL337:
 2315              	.LBB314:
 2316              	.LBB315:
 2317              	.LBB316:
 2318              		.loc 2 80 0
 2319 014c 8B68     		ldr	r3, [r1, #8]
 2320              	.LVL338:
 2321              	.LBE316:
 2322              	.LBE315:
ARM GAS  C:\Users\164\AppData\Local\Temp\cc3ssgoH.s 			page 73


 856:c_string.c    **** 	ret = mrbc_printf_int( &pf, ival, 10 );
 2323              		.loc 1 856 0
 2324 014e 9868     		ldr	r0, [r3, #8]
 2325              	.LVL339:
 2326 0150 FFF7FEFF 		bl	atol
 2327              	.LVL340:
 857:c_string.c    ****       }
 2328              		.loc 1 857 0
 2329 0154 0A22     		movs	r2, #10
 2330 0156 0146     		mov	r1, r0
 2331 0158 0DA8     		add	r0, sp, #52
 2332              	.LVL341:
 2333 015a FFF7FEFF 		bl	mrbc_printf_int
 2334              	.LVL342:
 2335 015e 0246     		mov	r2, r0
 2336              	.LVL343:
 2337 0160 2EE0     		b	.L164
 2338              	.L165:
 2339              	.LBE314:
 863:c_string.c    **** 	ret = mrbc_printf_int( &pf, v[i].i, 2);
 2340              		.loc 1 863 0
 2341 0162 3301     		lsls	r3, r6, #4
 2342 0164 F918     		adds	r1, r7, r3
 2343 0166 FB56     		ldrsb	r3, [r7, r3]
 2344 0168 042B     		cmp	r3, #4
 2345 016a 29D1     		bne	.L164
 864:c_string.c    ****       }
 2346              		.loc 1 864 0
 2347 016c 0222     		movs	r2, #2
 2348 016e 8968     		ldr	r1, [r1, #8]
 2349 0170 0DA8     		add	r0, sp, #52
 2350              	.LVL344:
 2351 0172 FFF7FEFF 		bl	mrbc_printf_int
 2352              	.LVL345:
 2353 0176 0246     		mov	r2, r0
 2354              	.LVL346:
 2355 0178 22E0     		b	.L164
 2356              	.L168:
 870:c_string.c    **** 	ret = mrbc_printf_int( &pf, v[i].i, 16);
 2357              		.loc 1 870 0
 2358 017a 3301     		lsls	r3, r6, #4
 2359 017c F918     		adds	r1, r7, r3
 2360 017e FB56     		ldrsb	r3, [r7, r3]
 2361 0180 042B     		cmp	r3, #4
 2362 0182 1DD1     		bne	.L164
 871:c_string.c    ****       }
 2363              		.loc 1 871 0
 2364 0184 1022     		movs	r2, #16
 2365 0186 8968     		ldr	r1, [r1, #8]
 2366 0188 0DA8     		add	r0, sp, #52
 2367              	.LVL347:
 2368 018a FFF7FEFF 		bl	mrbc_printf_int
 2369              	.LVL348:
 2370 018e 0246     		mov	r2, r0
 2371              	.LVL349:
 2372 0190 16E0     		b	.L164
 2373              	.L167:
ARM GAS  C:\Users\164\AppData\Local\Temp\cc3ssgoH.s 			page 74


 881:c_string.c    **** 	ret = mrbc_printf_float( &pf, v[i].d );
 2374              		.loc 1 881 0
 2375 0192 3301     		lsls	r3, r6, #4
 2376 0194 F918     		adds	r1, r7, r3
 2377 0196 FB56     		ldrsb	r3, [r7, r3]
 2378 0198 052B     		cmp	r3, #5
 2379 019a 06D1     		bne	.L175
 882:c_string.c    ****       } else
 2380              		.loc 1 882 0
 2381 019c D1E90223 		ldrd	r2, [r1, #8]
 2382 01a0 0DA8     		add	r0, sp, #52
 2383              	.LVL350:
 2384 01a2 FFF7FEFF 		bl	mrbc_printf_float
 2385              	.LVL351:
 2386 01a6 0246     		mov	r2, r0
 2387              	.LVL352:
 2388 01a8 0AE0     		b	.L164
 2389              	.L175:
 884:c_string.c    **** 	  ret = mrbc_printf_float( &pf, v[i].i );
 2390              		.loc 1 884 0
 2391 01aa 042B     		cmp	r3, #4
 2392 01ac 08D1     		bne	.L164
 885:c_string.c    **** 	}
 2393              		.loc 1 885 0
 2394 01ae 8868     		ldr	r0, [r1, #8]
 2395              	.LVL353:
 2396 01b0 FFF7FEFF 		bl	__aeabi_i2d
 2397              	.LVL354:
 2398 01b4 0246     		mov	r2, r0
 2399 01b6 0B46     		mov	r3, r1
 2400 01b8 0DA8     		add	r0, sp, #52
 2401 01ba FFF7FEFF 		bl	mrbc_printf_float
 2402              	.LVL355:
 2403 01be 0246     		mov	r2, r0
 2404              	.LVL356:
 2405              	.L164:
 893:c_string.c    ****       i++;
 2406              		.loc 1 893 0
 2407 01c0 002A     		cmp	r2, #0
 2408 01c2 01DB     		blt	.L176
 894:c_string.c    ****       continue;		// normal next loop.
 2409              		.loc 1 894 0
 2410 01c4 0136     		adds	r6, r6, #1
 2411              	.LVL357:
 2412 01c6 3EE7     		b	.L160
 2413              	.L176:
 899:c_string.c    ****     pf = pf_bak;
 2414              		.loc 1 899 0
 2415 01c8 129B     		ldr	r3, [sp, #72]
 2416 01ca 202B     		cmp	r3, #32
 2417 01cc 00DD     		ble	.L178
 899:c_string.c    ****     pf = pf_bak;
 2418              		.loc 1 899 0 is_stmt 0 discriminator 1
 2419 01ce 9844     		add	r8, r8, r3
 2420              	.LVL358:
 2421              	.L178:
 900:c_string.c    **** 
ARM GAS  C:\Users\164\AppData\Local\Temp\cc3ssgoH.s 			page 75


 2422              		.loc 1 900 0 is_stmt 1
 2423 01d0 0DAC     		add	r4, sp, #52
 2424 01d2 6D46     		mov	r5, sp
 2425 01d4 0FCD     		ldmia	r5!, {r0, r1, r2, r3}
 2426              	.LVL359:
 2427 01d6 0FC4     		stmia	r4!, {r0, r1, r2, r3}
 2428 01d8 95E80700 		ldmia	r5, {r0, r1, r2}
 2429 01dc 84E80700 		stmia	r4, {r0, r1, r2}
 2430              	.L162:
 903:c_string.c    ****     buf = mrbc_realloc(vm, pf.buf, buflen);
 2431              		.loc 1 903 0
 2432 01e0 08F12008 		add	r8, r8, #32
 2433              	.LVL360:
 904:c_string.c    ****     if( !buf ) { return; }	// ENOMEM raise? TODO: leak memory.
 2434              		.loc 1 904 0
 2435 01e4 4246     		mov	r2, r8
 2436 01e6 0D99     		ldr	r1, [sp, #52]
 2437 01e8 5046     		mov	r0, r10
 2438 01ea FFF7FEFF 		bl	mrbc_realloc
 2439              	.LVL361:
 905:c_string.c    ****     mrbc_printf_replace_buffer(&pf, buf, buflen);
 2440              		.loc 1 905 0
 2441 01ee 0146     		mov	r1, r0
 2442 01f0 00B3     		cbz	r0, .L157
 906:c_string.c    ****   }
 2443              		.loc 1 906 0
 2444 01f2 4246     		mov	r2, r8
 2445 01f4 0DA8     		add	r0, sp, #52
 2446              	.LVL362:
 2447 01f6 FFF7FEFF 		bl	mrbc_printf_replace_buffer
 2448              	.LVL363:
 2449 01fa 24E7     		b	.L160
 2450              	.L161:
 2451              	.LVL364:
 2452              	.LBE305:
 2453              	.LBB317:
 2454              	.LBB318:
 127:console.h     **** }
 2455              		.loc 3 127 0
 2456 01fc 0022     		movs	r2, #0
 2457 01fe 0F9B     		ldr	r3, [sp, #60]
 2458 0200 1A70     		strb	r2, [r3]
 2459              	.LVL365:
 2460              	.LBE318:
 2461              	.LBE317:
 2462              	.LBB319:
 2463              	.LBB320:
 139:console.h     **** }
 2464              		.loc 3 139 0
 2465 0202 0D99     		ldr	r1, [sp, #52]
 2466 0204 0F9C     		ldr	r4, [sp, #60]
 2467 0206 641A     		subs	r4, r4, r1
 2468              	.LVL366:
 2469              	.LBE320:
 2470              	.LBE319:
 911:c_string.c    **** 
 2471              		.loc 1 911 0
ARM GAS  C:\Users\164\AppData\Local\Temp\cc3ssgoH.s 			page 76


 2472 0208 621C     		adds	r2, r4, #1
 2473 020a 5046     		mov	r0, r10
 2474 020c FFF7FEFF 		bl	mrbc_realloc
 2475              	.LVL367:
 913:c_string.c    **** 
 2476              		.loc 1 913 0
 2477 0210 08AD     		add	r5, sp, #32
 2478 0212 2346     		mov	r3, r4
 2479 0214 0D9A     		ldr	r2, [sp, #52]
 2480 0216 5146     		mov	r1, r10
 2481 0218 2846     		mov	r0, r5
 2482 021a FFF7FEFF 		bl	mrbc_string_new_alloc
 2483              	.LVL368:
 2484              	.LBB321:
 915:c_string.c    **** }
 2485              		.loc 1 915 0
 2486 021e 95E80F00 		ldmia	r5, {r0, r1, r2, r3}
 2487 0222 8DE80F00 		stmia	sp, {r0, r1, r2, r3}
 2488 0226 3846     		mov	r0, r7
 2489 0228 FFF7FEFF 		bl	mrbc_dec_ref_counter
 2490              	.LVL369:
 2491 022c 9DE80F00 		ldmia	sp, {r0, r1, r2, r3}
 2492 0230 87E80F00 		stmia	r7, {r0, r1, r2, r3}
 2493              	.LVL370:
 2494              	.L157:
 2495              	.LBE321:
 916:c_string.c    **** 
 2496              		.loc 1 916 0
 2497 0234 14B0     		add	sp, sp, #80
 2498              		.cfi_def_cfa_offset 32
 2499              		@ sp needed
 2500 0236 BDE8F087 		pop	{r4, r5, r6, r7, r8, r9, r10, pc}
 2501              	.L183:
 2502 023a 00BF     		.align	2
 2503              	.L182:
 2504 023c 54000000 		.word	.LC4
 2505 0240 00000000 		.word	.LC0
 2506              		.cfi_endproc
 2507              	.LFE114:
 2508              		.size	c_object_sprintf, .-c_object_sprintf
 2509              		.section	.text.c_object_printf,"ax",%progbits
 2510              		.align	2
 2511              		.thumb
 2512              		.thumb_func
 2513              		.type	c_object_printf, %function
 2514              	c_object_printf:
 2515              	.LFB115:
 923:c_string.c    ****   c_object_sprintf(vm, v, argc);
 2516              		.loc 1 923 0
 2517              		.cfi_startproc
 2518              		@ args = 0, pretend = 0, frame = 0
 2519              		@ frame_needed = 0, uses_anonymous_args = 0
 2520              	.LVL371:
 2521 0000 10B5     		push	{r4, lr}
 2522              		.cfi_def_cfa_offset 8
 2523              		.cfi_offset 4, -8
 2524              		.cfi_offset 14, -4
ARM GAS  C:\Users\164\AppData\Local\Temp\cc3ssgoH.s 			page 77


 2525 0002 0C46     		mov	r4, r1
 924:c_string.c    ****   console_nprint( mrbc_string_cstr(v), mrbc_string_size(v) );
 2526              		.loc 1 924 0
 2527 0004 FFF7FEFF 		bl	c_object_sprintf
 2528              	.LVL372:
 2529              	.LBB322:
 2530              	.LBB323:
 2531              		.loc 2 80 0
 2532 0008 A368     		ldr	r3, [r4, #8]
 2533              	.LVL373:
 2534              	.LBE323:
 2535              	.LBE322:
 2536              	.LBB324:
 2537              	.LBB325:
  87:console.h     **** }
 2538              		.loc 3 87 0
 2539 000a 9A88     		ldrh	r2, [r3, #4]
 2540 000c 9968     		ldr	r1, [r3, #8]
 2541 000e 0120     		movs	r0, #1
 2542 0010 FFF7FEFF 		bl	hal_write
 2543              	.LVL374:
 2544              	.LBE325:
 2545              	.LBE324:
 926:c_string.c    **** }
 2546              		.loc 1 926 0
 2547 0014 2046     		mov	r0, r4
 2548 0016 FFF7FEFF 		bl	mrbc_dec_ref_counter
 2549              	.LVL375:
 2550 001a 0123     		movs	r3, #1
 2551 001c 2370     		strb	r3, [r4]
 2552 001e 10BD     		pop	{r4, pc}
 2553              		.cfi_endproc
 2554              	.LFE115:
 2555              		.size	c_object_printf, .-c_object_printf
 2556              		.section	.text.mrbc_string_delete,"ax",%progbits
 2557              		.align	2
 2558              		.global	mrbc_string_delete
 2559              		.thumb
 2560              		.thumb_func
 2561              		.type	mrbc_string_delete, %function
 2562              	mrbc_string_delete:
 2563              	.LFB90:
 143:c_string.c    ****   mrbc_raw_free(str->string->data);
 2564              		.loc 1 143 0
 2565              		.cfi_startproc
 2566              		@ args = 0, pretend = 0, frame = 0
 2567              		@ frame_needed = 0, uses_anonymous_args = 0
 2568              	.LVL376:
 2569 0000 10B5     		push	{r4, lr}
 2570              		.cfi_def_cfa_offset 8
 2571              		.cfi_offset 4, -8
 2572              		.cfi_offset 14, -4
 2573 0002 0446     		mov	r4, r0
 144:c_string.c    ****   mrbc_raw_free(str->string);
 2574              		.loc 1 144 0
 2575 0004 8368     		ldr	r3, [r0, #8]
 2576 0006 9868     		ldr	r0, [r3, #8]
ARM GAS  C:\Users\164\AppData\Local\Temp\cc3ssgoH.s 			page 78


 2577              	.LVL377:
 2578 0008 FFF7FEFF 		bl	mrbc_raw_free
 2579              	.LVL378:
 145:c_string.c    **** }
 2580              		.loc 1 145 0
 2581 000c A068     		ldr	r0, [r4, #8]
 2582 000e FFF7FEFF 		bl	mrbc_raw_free
 2583              	.LVL379:
 2584 0012 10BD     		pop	{r4, pc}
 2585              		.cfi_endproc
 2586              	.LFE90:
 2587              		.size	mrbc_string_delete, .-mrbc_string_delete
 2588              		.section	.text.mrbc_string_clear_vm_id,"ax",%progbits
 2589              		.align	2
 2590              		.global	mrbc_string_clear_vm_id
 2591              		.thumb
 2592              		.thumb_func
 2593              		.type	mrbc_string_clear_vm_id, %function
 2594              	mrbc_string_clear_vm_id:
 2595              	.LFB91:
 154:c_string.c    ****   mrbc_set_vm_id( str->string, 0 );
 2596              		.loc 1 154 0
 2597              		.cfi_startproc
 2598              		@ args = 0, pretend = 0, frame = 0
 2599              		@ frame_needed = 0, uses_anonymous_args = 0
 2600              	.LVL380:
 2601 0000 10B5     		push	{r4, lr}
 2602              		.cfi_def_cfa_offset 8
 2603              		.cfi_offset 4, -8
 2604              		.cfi_offset 14, -4
 2605 0002 0446     		mov	r4, r0
 155:c_string.c    ****   mrbc_set_vm_id( str->string->data, 0 );
 2606              		.loc 1 155 0
 2607 0004 0021     		movs	r1, #0
 2608 0006 8068     		ldr	r0, [r0, #8]
 2609              	.LVL381:
 2610 0008 FFF7FEFF 		bl	mrbc_set_vm_id
 2611              	.LVL382:
 156:c_string.c    **** }
 2612              		.loc 1 156 0
 2613 000c A368     		ldr	r3, [r4, #8]
 2614 000e 0021     		movs	r1, #0
 2615 0010 9868     		ldr	r0, [r3, #8]
 2616 0012 FFF7FEFF 		bl	mrbc_set_vm_id
 2617              	.LVL383:
 2618 0016 10BD     		pop	{r4, pc}
 2619              		.cfi_endproc
 2620              	.LFE91:
 2621              		.size	mrbc_string_clear_vm_id, .-mrbc_string_clear_vm_id
 2622              		.section	.text.mrbc_string_dup,"ax",%progbits
 2623              		.align	2
 2624              		.global	mrbc_string_dup
 2625              		.thumb
 2626              		.thumb_func
 2627              		.type	mrbc_string_dup, %function
 2628              	mrbc_string_dup:
 2629              	.LFB92:
ARM GAS  C:\Users\164\AppData\Local\Temp\cc3ssgoH.s 			page 79


 169:c_string.c    ****   mrbc_string *h1 = s1->string;
 2630              		.loc 1 169 0
 2631              		.cfi_startproc
 2632              		@ args = 0, pretend = 0, frame = 0
 2633              		@ frame_needed = 0, uses_anonymous_args = 0
 2634              	.LVL384:
 2635 0000 38B5     		push	{r3, r4, r5, lr}
 2636              		.cfi_def_cfa_offset 16
 2637              		.cfi_offset 3, -16
 2638              		.cfi_offset 4, -12
 2639              		.cfi_offset 5, -8
 2640              		.cfi_offset 14, -4
 2641 0002 0546     		mov	r5, r0
 170:c_string.c    **** 
 2642              		.loc 1 170 0
 2643 0004 9468     		ldr	r4, [r2, #8]
 2644              	.LVL385:
 172:c_string.c    ****   if( value.string == NULL ) return value;		// ENOMEM
 2645              		.loc 1 172 0
 2646 0006 A388     		ldrh	r3, [r4, #4]
 2647 0008 0022     		movs	r2, #0
 2648              	.LVL386:
 2649 000a FFF7FEFF 		bl	mrbc_string_new
 2650              	.LVL387:
 173:c_string.c    **** 
 2651              		.loc 1 173 0
 2652 000e AB68     		ldr	r3, [r5, #8]
 2653 0010 2BB1     		cbz	r3, .L190
 175:c_string.c    **** 
 2654              		.loc 1 175 0
 2655 0012 A288     		ldrh	r2, [r4, #4]
 2656 0014 0132     		adds	r2, r2, #1
 2657 0016 A168     		ldr	r1, [r4, #8]
 2658 0018 9868     		ldr	r0, [r3, #8]
 2659 001a FFF7FEFF 		bl	memcpy
 2660              	.LVL388:
 2661              	.L190:
 178:c_string.c    **** 
 2662              		.loc 1 178 0
 2663 001e 2846     		mov	r0, r5
 2664 0020 38BD     		pop	{r3, r4, r5, pc}
 2665              		.cfi_endproc
 2666              	.LFE92:
 2667              		.size	mrbc_string_dup, .-mrbc_string_dup
 2668 0022 00BF     		.section	.text.c_string_tr,"ax",%progbits
 2669              		.align	2
 2670              		.thumb
 2671              		.thumb_func
 2672              		.type	c_string_tr, %function
 2673              	c_string_tr:
 2674              	.LFB128:
1183:c_string.c    ****   mrb_value ret = mrbc_string_dup( vm, &v[0] );
 2675              		.loc 1 1183 0
 2676              		.cfi_startproc
 2677              		@ args = 0, pretend = 0, frame = 32
 2678              		@ frame_needed = 0, uses_anonymous_args = 0
 2679              	.LVL389:
ARM GAS  C:\Users\164\AppData\Local\Temp\cc3ssgoH.s 			page 80


 2680 0000 2DE9F041 		push	{r4, r5, r6, r7, r8, lr}
 2681              		.cfi_def_cfa_offset 24
 2682              		.cfi_offset 4, -24
 2683              		.cfi_offset 5, -20
 2684              		.cfi_offset 6, -16
 2685              		.cfi_offset 7, -12
 2686              		.cfi_offset 8, -8
 2687              		.cfi_offset 14, -4
 2688 0004 88B0     		sub	sp, sp, #32
 2689              		.cfi_def_cfa_offset 56
 2690 0006 0746     		mov	r7, r0
 2691 0008 0D46     		mov	r5, r1
 2692 000a 9046     		mov	r8, r2
1184:c_string.c    ****   SET_RETURN( ret );
 2693              		.loc 1 1184 0
 2694 000c 04AE     		add	r6, sp, #16
 2695 000e 0A46     		mov	r2, r1
 2696              	.LVL390:
 2697 0010 0146     		mov	r1, r0
 2698              	.LVL391:
 2699 0012 3046     		mov	r0, r6
 2700              	.LVL392:
 2701 0014 FFF7FEFF 		bl	mrbc_string_dup
 2702              	.LVL393:
 2703              	.LBB326:
1185:c_string.c    ****   tr_main(vm, v, argc);
 2704              		.loc 1 1185 0
 2705 0018 96E80F00 		ldmia	r6, {r0, r1, r2, r3}
 2706 001c 8DE80F00 		stmia	sp, {r0, r1, r2, r3}
 2707 0020 2846     		mov	r0, r5
 2708 0022 FFF7FEFF 		bl	mrbc_dec_ref_counter
 2709              	.LVL394:
 2710 0026 9DE80F00 		ldmia	sp, {r0, r1, r2, r3}
 2711 002a 85E80F00 		stmia	r5, {r0, r1, r2, r3}
 2712              	.LBE326:
1186:c_string.c    **** }
 2713              		.loc 1 1186 0
 2714 002e 4246     		mov	r2, r8
 2715 0030 2946     		mov	r1, r5
 2716 0032 3846     		mov	r0, r7
 2717 0034 FFF7FEFF 		bl	tr_main
 2718              	.LVL395:
1187:c_string.c    **** 
 2719              		.loc 1 1187 0
 2720 0038 08B0     		add	sp, sp, #32
 2721              		.cfi_def_cfa_offset 24
 2722              		@ sp needed
 2723 003a BDE8F081 		pop	{r4, r5, r6, r7, r8, pc}
 2724              		.cfi_endproc
 2725              	.LFE128:
 2726              		.size	c_string_tr, .-c_string_tr
 2727 003e 00BF     		.section	.text.c_string_dup,"ax",%progbits
 2728              		.align	2
 2729              		.thumb
 2730              		.thumb_func
 2731              		.type	c_string_dup, %function
 2732              	c_string_dup:
ARM GAS  C:\Users\164\AppData\Local\Temp\cc3ssgoH.s 			page 81


 2733              	.LFB109:
 611:c_string.c    ****   mrbc_value ret = mrbc_string_dup(vm, &v[0]);
 2734              		.loc 1 611 0
 2735              		.cfi_startproc
 2736              		@ args = 0, pretend = 0, frame = 32
 2737              		@ frame_needed = 0, uses_anonymous_args = 0
 2738              	.LVL396:
 2739 0000 70B5     		push	{r4, r5, r6, lr}
 2740              		.cfi_def_cfa_offset 16
 2741              		.cfi_offset 4, -16
 2742              		.cfi_offset 5, -12
 2743              		.cfi_offset 6, -8
 2744              		.cfi_offset 14, -4
 2745 0002 88B0     		sub	sp, sp, #32
 2746              		.cfi_def_cfa_offset 48
 2747 0004 0D46     		mov	r5, r1
 612:c_string.c    **** 
 2748              		.loc 1 612 0
 2749 0006 04AE     		add	r6, sp, #16
 2750 0008 0A46     		mov	r2, r1
 2751              	.LVL397:
 2752 000a 0146     		mov	r1, r0
 2753              	.LVL398:
 2754 000c 3046     		mov	r0, r6
 2755              	.LVL399:
 2756 000e FFF7FEFF 		bl	mrbc_string_dup
 2757              	.LVL400:
 2758              	.LBB327:
 614:c_string.c    **** }
 2759              		.loc 1 614 0
 2760 0012 96E80F00 		ldmia	r6, {r0, r1, r2, r3}
 2761 0016 8DE80F00 		stmia	sp, {r0, r1, r2, r3}
 2762 001a 2846     		mov	r0, r5
 2763 001c FFF7FEFF 		bl	mrbc_dec_ref_counter
 2764              	.LVL401:
 2765 0020 9DE80F00 		ldmia	sp, {r0, r1, r2, r3}
 2766 0024 85E80F00 		stmia	r5, {r0, r1, r2, r3}
 2767              	.LBE327:
 615:c_string.c    **** 
 2768              		.loc 1 615 0
 2769 0028 08B0     		add	sp, sp, #32
 2770              		.cfi_def_cfa_offset 16
 2771              		@ sp needed
 2772 002a 70BD     		pop	{r4, r5, r6, pc}
 2773              		.cfi_endproc
 2774              	.LFE109:
 2775              		.size	c_string_dup, .-c_string_dup
 2776              		.section	.text.mrbc_string_add,"ax",%progbits
 2777              		.align	2
 2778              		.global	mrbc_string_add
 2779              		.thumb
 2780              		.thumb_func
 2781              		.type	mrbc_string_add, %function
 2782              	mrbc_string_add:
 2783              	.LFB93:
 190:c_string.c    ****   mrbc_string *h1 = s1->string;
 2784              		.loc 1 190 0
ARM GAS  C:\Users\164\AppData\Local\Temp\cc3ssgoH.s 			page 82


 2785              		.cfi_startproc
 2786              		@ args = 0, pretend = 0, frame = 0
 2787              		@ frame_needed = 0, uses_anonymous_args = 0
 2788              	.LVL402:
 2789 0000 F8B5     		push	{r3, r4, r5, r6, r7, lr}
 2790              		.cfi_def_cfa_offset 24
 2791              		.cfi_offset 3, -24
 2792              		.cfi_offset 4, -20
 2793              		.cfi_offset 5, -16
 2794              		.cfi_offset 6, -12
 2795              		.cfi_offset 7, -8
 2796              		.cfi_offset 14, -4
 2797 0002 0746     		mov	r7, r0
 191:c_string.c    ****   mrbc_string *h2 = s2->string;
 2798              		.loc 1 191 0
 2799 0004 9468     		ldr	r4, [r2, #8]
 2800              	.LVL403:
 192:c_string.c    **** 
 2801              		.loc 1 192 0
 2802 0006 9D68     		ldr	r5, [r3, #8]
 2803              	.LVL404:
 194:c_string.c    ****   if( value.string == NULL ) return value;		// ENOMEM
 2804              		.loc 1 194 0
 2805 0008 A288     		ldrh	r2, [r4, #4]
 2806              	.LVL405:
 2807 000a AB88     		ldrh	r3, [r5, #4]
 2808              	.LVL406:
 2809 000c 1344     		add	r3, r3, r2
 2810 000e 0022     		movs	r2, #0
 2811 0010 FFF7FEFF 		bl	mrbc_string_new
 2812              	.LVL407:
 195:c_string.c    **** 
 2813              		.loc 1 195 0
 2814 0014 BE68     		ldr	r6, [r7, #8]
 2815 0016 66B1     		cbz	r6, .L197
 197:c_string.c    ****   memcpy( value.string->data + h1->size, h2->data, h2->size + 1 );
 2816              		.loc 1 197 0
 2817 0018 A288     		ldrh	r2, [r4, #4]
 2818 001a A168     		ldr	r1, [r4, #8]
 2819 001c B068     		ldr	r0, [r6, #8]
 2820 001e FFF7FEFF 		bl	memcpy
 2821              	.LVL408:
 198:c_string.c    **** 
 2822              		.loc 1 198 0
 2823 0022 B068     		ldr	r0, [r6, #8]
 2824 0024 A388     		ldrh	r3, [r4, #4]
 2825 0026 AA88     		ldrh	r2, [r5, #4]
 2826 0028 0132     		adds	r2, r2, #1
 2827 002a A968     		ldr	r1, [r5, #8]
 2828 002c 1844     		add	r0, r0, r3
 2829 002e FFF7FEFF 		bl	memcpy
 2830              	.LVL409:
 2831              	.L197:
 201:c_string.c    **** 
 2832              		.loc 1 201 0
 2833 0032 3846     		mov	r0, r7
 2834 0034 F8BD     		pop	{r3, r4, r5, r6, r7, pc}
ARM GAS  C:\Users\164\AppData\Local\Temp\cc3ssgoH.s 			page 83


 2835              		.cfi_endproc
 2836              	.LFE93:
 2837              		.size	mrbc_string_add, .-mrbc_string_add
 2838 0036 00BF     		.section	.text.c_string_add,"ax",%progbits
 2839              		.align	2
 2840              		.thumb
 2841              		.thumb_func
 2842              		.type	c_string_add, %function
 2843              	c_string_add:
 2844              	.LFB99:
 358:c_string.c    ****   if( v[1].tt != MRBC_TT_STRING ) {
 2845              		.loc 1 358 0
 2846              		.cfi_startproc
 2847              		@ args = 0, pretend = 0, frame = 32
 2848              		@ frame_needed = 0, uses_anonymous_args = 0
 2849              	.LVL410:
 2850 0000 70B5     		push	{r4, r5, r6, lr}
 2851              		.cfi_def_cfa_offset 16
 2852              		.cfi_offset 4, -16
 2853              		.cfi_offset 5, -12
 2854              		.cfi_offset 6, -8
 2855              		.cfi_offset 14, -4
 2856 0002 88B0     		sub	sp, sp, #32
 2857              		.cfi_def_cfa_offset 48
 359:c_string.c    ****     console_print( "Not support STRING + Other\n" );
 2858              		.loc 1 359 0
 2859 0004 91F91030 		ldrsb	r3, [r1, #16]
 2860 0008 172B     		cmp	r3, #23
 2861 000a 05D0     		beq	.L201
 2862              	.LVL411:
 2863              	.LBB331:
 2864              	.LBB332:
  75:console.h     **** }
 2865              		.loc 3 75 0
 2866 000c 1B22     		movs	r2, #27
 2867              	.LVL412:
 2868 000e 0D49     		ldr	r1, .L204
 2869              	.LVL413:
 2870 0010 0120     		movs	r0, #1
 2871              	.LVL414:
 2872 0012 FFF7FEFF 		bl	hal_write
 2873              	.LVL415:
 2874 0016 13E0     		b	.L200
 2875              	.LVL416:
 2876              	.L201:
 2877 0018 0C46     		mov	r4, r1
 2878              	.LBE332:
 2879              	.LBE331:
 364:c_string.c    ****   SET_RETURN(value);
 2880              		.loc 1 364 0
 2881 001a 04AE     		add	r6, sp, #16
 2882 001c 01F11003 		add	r3, r1, #16
 2883 0020 0A46     		mov	r2, r1
 2884              	.LVL417:
 2885 0022 0146     		mov	r1, r0
 2886              	.LVL418:
 2887 0024 3046     		mov	r0, r6
ARM GAS  C:\Users\164\AppData\Local\Temp\cc3ssgoH.s 			page 84


 2888              	.LVL419:
 2889 0026 FFF7FEFF 		bl	mrbc_string_add
 2890              	.LVL420:
 2891              	.LBB333:
 365:c_string.c    **** }
 2892              		.loc 1 365 0
 2893 002a 96E80F00 		ldmia	r6, {r0, r1, r2, r3}
 2894 002e 8DE80F00 		stmia	sp, {r0, r1, r2, r3}
 2895 0032 2046     		mov	r0, r4
 2896 0034 FFF7FEFF 		bl	mrbc_dec_ref_counter
 2897              	.LVL421:
 2898 0038 9DE80F00 		ldmia	sp, {r0, r1, r2, r3}
 2899 003c 84E80F00 		stmia	r4, {r0, r1, r2, r3}
 2900              	.LVL422:
 2901              	.L200:
 2902              	.LBE333:
 366:c_string.c    **** 
 2903              		.loc 1 366 0
 2904 0040 08B0     		add	sp, sp, #32
 2905              		.cfi_def_cfa_offset 16
 2906              		@ sp needed
 2907 0042 70BD     		pop	{r4, r5, r6, pc}
 2908              	.L205:
 2909              		.align	2
 2910              	.L204:
 2911 0044 60000000 		.word	.LC5
 2912              		.cfi_endproc
 2913              	.LFE99:
 2914              		.size	c_string_add, .-c_string_add
 2915              		.section	.text.mrbc_string_append,"ax",%progbits
 2916              		.align	2
 2917              		.global	mrbc_string_append
 2918              		.thumb
 2919              		.thumb_func
 2920              		.type	mrbc_string_append, %function
 2921              	mrbc_string_append:
 2922              	.LFB94:
 212:c_string.c    ****   int len1 = s1->string->size;
 2923              		.loc 1 212 0
 2924              		.cfi_startproc
 2925              		@ args = 0, pretend = 0, frame = 0
 2926              		@ frame_needed = 0, uses_anonymous_args = 0
 2927              	.LVL423:
 2928 0000 2DE9F041 		push	{r4, r5, r6, r7, r8, lr}
 2929              		.cfi_def_cfa_offset 24
 2930              		.cfi_offset 4, -24
 2931              		.cfi_offset 5, -20
 2932              		.cfi_offset 6, -16
 2933              		.cfi_offset 7, -12
 2934              		.cfi_offset 8, -8
 2935              		.cfi_offset 14, -4
 2936 0004 0546     		mov	r5, r0
 2937 0006 0E46     		mov	r6, r1
 213:c_string.c    ****   int len2 = (s2->tt == MRBC_TT_STRING) ? s2->string->size : 1;
 2938              		.loc 1 213 0
 2939 0008 8368     		ldr	r3, [r0, #8]
 2940 000a 9F88     		ldrh	r7, [r3, #4]
ARM GAS  C:\Users\164\AppData\Local\Temp\cc3ssgoH.s 			page 85


 2941              	.LVL424:
 214:c_string.c    **** 
 2942              		.loc 1 214 0
 2943 000c 91F90020 		ldrsb	r2, [r1]
 2944 0010 172A     		cmp	r2, #23
 2945 0012 02D1     		bne	.L211
 214:c_string.c    **** 
 2946              		.loc 1 214 0 is_stmt 0 discriminator 1
 2947 0014 8A68     		ldr	r2, [r1, #8]
 2948 0016 9488     		ldrh	r4, [r2, #4]
 2949 0018 00E0     		b	.L207
 2950              	.L211:
 214:c_string.c    **** 
 2951              		.loc 1 214 0
 2952 001a 0124     		movs	r4, #1
 2953              	.L207:
 2954              	.LVL425:
 216:c_string.c    ****   if( !str ) return E_NOMEMORY_ERROR;
 2955              		.loc 1 216 0 is_stmt 1 discriminator 4
 2956 001c E119     		adds	r1, r4, r7
 2957              	.LVL426:
 2958 001e 0131     		adds	r1, r1, #1
 2959 0020 9868     		ldr	r0, [r3, #8]
 2960              	.LVL427:
 2961 0022 FFF7FEFF 		bl	mrbc_raw_realloc
 2962              	.LVL428:
 217:c_string.c    **** 
 2963              		.loc 1 217 0 discriminator 4
 2964 0026 8046     		mov	r8, r0
 2965 0028 D0B1     		cbz	r0, .L212
 219:c_string.c    ****     memcpy(str + len1, s2->string->data, len2 + 1);
 2966              		.loc 1 219 0
 2967 002a 96F90030 		ldrsb	r3, [r6]
 2968 002e 172B     		cmp	r3, #23
 2969 0030 06D1     		bne	.L209
 220:c_string.c    ****   } else if( s2->tt == MRBC_TT_FIXNUM ) {
 2970              		.loc 1 220 0
 2971 0032 B368     		ldr	r3, [r6, #8]
 2972 0034 621C     		adds	r2, r4, #1
 2973 0036 9968     		ldr	r1, [r3, #8]
 2974 0038 3844     		add	r0, r0, r7
 2975              	.LVL429:
 2976 003a FFF7FEFF 		bl	memcpy
 2977              	.LVL430:
 2978 003e 06E0     		b	.L210
 2979              	.LVL431:
 2980              	.L209:
 221:c_string.c    ****     str[len1] = s2->i;
 2981              		.loc 1 221 0
 2982 0040 042B     		cmp	r3, #4
 2983 0042 04D1     		bne	.L210
 222:c_string.c    ****     str[len1+1] = '\0';
 2984              		.loc 1 222 0
 2985 0044 B368     		ldr	r3, [r6, #8]
 2986 0046 C355     		strb	r3, [r0, r7]
 223:c_string.c    ****   }
 2987              		.loc 1 223 0
ARM GAS  C:\Users\164\AppData\Local\Temp\cc3ssgoH.s 			page 86


 2988 0048 7B1C     		adds	r3, r7, #1
 2989 004a 0022     		movs	r2, #0
 2990 004c C254     		strb	r2, [r0, r3]
 2991              	.LVL432:
 2992              	.L210:
 226:c_string.c    ****   s1->string->data = str;
 2993              		.loc 1 226 0
 2994 004e AB68     		ldr	r3, [r5, #8]
 2995 0050 3C44     		add	r4, r4, r7
 2996              	.LVL433:
 2997 0052 9C80     		strh	r4, [r3, #4]	@ movhi
 227:c_string.c    **** 
 2998              		.loc 1 227 0
 2999 0054 AB68     		ldr	r3, [r5, #8]
 3000 0056 C3F80880 		str	r8, [r3, #8]
 229:c_string.c    **** }
 3001              		.loc 1 229 0
 3002 005a 0020     		movs	r0, #0
 3003 005c BDE8F081 		pop	{r4, r5, r6, r7, r8, pc}
 3004              	.LVL434:
 3005              	.L212:
 217:c_string.c    **** 
 3006              		.loc 1 217 0
 3007 0060 0120     		movs	r0, #1
 3008              	.LVL435:
 230:c_string.c    **** 
 3009              		.loc 1 230 0
 3010 0062 BDE8F081 		pop	{r4, r5, r6, r7, r8, pc}
 3011              		.cfi_endproc
 3012              	.LFE94:
 3013              		.size	mrbc_string_append, .-mrbc_string_append
 3014 0066 00BF     		.section	.text.c_string_append,"ax",%progbits
 3015              		.align	2
 3016              		.thumb
 3017              		.thumb_func
 3018              		.type	c_string_append, %function
 3019              	c_string_append:
 3020              	.LFB104:
 450:c_string.c    ****   if( !mrbc_string_append( &v[0], &v[1] ) ) {
 3021              		.loc 1 450 0
 3022              		.cfi_startproc
 3023              		@ args = 0, pretend = 0, frame = 0
 3024              		@ frame_needed = 0, uses_anonymous_args = 0
 3025              	.LVL436:
 3026 0000 08B5     		push	{r3, lr}
 3027              		.cfi_def_cfa_offset 8
 3028              		.cfi_offset 3, -8
 3029              		.cfi_offset 14, -4
 3030 0002 0846     		mov	r0, r1
 3031              	.LVL437:
 451:c_string.c    ****     // raise ? ENOMEM
 3032              		.loc 1 451 0
 3033 0004 1031     		adds	r1, r1, #16
 3034              	.LVL438:
 3035 0006 FFF7FEFF 		bl	mrbc_string_append
 3036              	.LVL439:
 3037 000a 08BD     		pop	{r3, pc}
ARM GAS  C:\Users\164\AppData\Local\Temp\cc3ssgoH.s 			page 87


 3038              		.cfi_endproc
 3039              	.LFE104:
 3040              		.size	c_string_append, .-c_string_append
 3041              		.section	.text.mrbc_string_append_cstr,"ax",%progbits
 3042              		.align	2
 3043              		.global	mrbc_string_append_cstr
 3044              		.thumb
 3045              		.thumb_func
 3046              		.type	mrbc_string_append_cstr, %function
 3047              	mrbc_string_append_cstr:
 3048              	.LFB95:
 241:c_string.c    ****   int len1 = s1->string->size;
 3049              		.loc 1 241 0
 3050              		.cfi_startproc
 3051              		@ args = 0, pretend = 0, frame = 0
 3052              		@ frame_needed = 0, uses_anonymous_args = 0
 3053              	.LVL440:
 3054 0000 2DE9F041 		push	{r4, r5, r6, r7, r8, lr}
 3055              		.cfi_def_cfa_offset 24
 3056              		.cfi_offset 4, -24
 3057              		.cfi_offset 5, -20
 3058              		.cfi_offset 6, -16
 3059              		.cfi_offset 7, -12
 3060              		.cfi_offset 8, -8
 3061              		.cfi_offset 14, -4
 3062 0004 0546     		mov	r5, r0
 3063 0006 8846     		mov	r8, r1
 242:c_string.c    ****   int len2 = strlen(s2);
 3064              		.loc 1 242 0
 3065 0008 8768     		ldr	r7, [r0, #8]
 3066 000a BE88     		ldrh	r6, [r7, #4]
 3067              	.LVL441:
 243:c_string.c    **** 
 3068              		.loc 1 243 0
 3069 000c 0846     		mov	r0, r1
 3070              	.LVL442:
 3071 000e FFF7FEFF 		bl	strlen
 3072              	.LVL443:
 3073 0012 0446     		mov	r4, r0
 3074              	.LVL444:
 245:c_string.c    ****   if( !str ) return E_NOMEMORY_ERROR;
 3075              		.loc 1 245 0
 3076 0014 3118     		adds	r1, r6, r0
 3077 0016 0131     		adds	r1, r1, #1
 3078 0018 B868     		ldr	r0, [r7, #8]
 3079              	.LVL445:
 3080 001a FFF7FEFF 		bl	mrbc_raw_realloc
 3081              	.LVL446:
 246:c_string.c    **** 
 3082              		.loc 1 246 0
 3083 001e 68B1     		cbz	r0, .L218
 3084 0020 0746     		mov	r7, r0
 248:c_string.c    **** 
 3085              		.loc 1 248 0
 3086 0022 621C     		adds	r2, r4, #1
 3087 0024 4146     		mov	r1, r8
 3088 0026 3044     		add	r0, r0, r6
ARM GAS  C:\Users\164\AppData\Local\Temp\cc3ssgoH.s 			page 88


 3089              	.LVL447:
 3090 0028 FFF7FEFF 		bl	memcpy
 3091              	.LVL448:
 250:c_string.c    ****   s1->string->data = str;
 3092              		.loc 1 250 0
 3093 002c AB68     		ldr	r3, [r5, #8]
 3094 002e 3444     		add	r4, r4, r6
 3095              	.LVL449:
 3096 0030 9C80     		strh	r4, [r3, #4]	@ movhi
 251:c_string.c    **** 
 3097              		.loc 1 251 0
 3098 0032 AB68     		ldr	r3, [r5, #8]
 3099 0034 9F60     		str	r7, [r3, #8]
 253:c_string.c    **** }
 3100              		.loc 1 253 0
 3101 0036 0020     		movs	r0, #0
 3102 0038 BDE8F081 		pop	{r4, r5, r6, r7, r8, pc}
 3103              	.LVL450:
 3104              	.L218:
 246:c_string.c    **** 
 3105              		.loc 1 246 0
 3106 003c 0120     		movs	r0, #1
 3107              	.LVL451:
 254:c_string.c    **** 
 3108              		.loc 1 254 0
 3109 003e BDE8F081 		pop	{r4, r5, r6, r7, r8, pc}
 3110              		.cfi_endproc
 3111              	.LFE95:
 3112              		.size	mrbc_string_append_cstr, .-mrbc_string_append_cstr
 3113 0042 00BF     		.section	.text.c_string_inspect,"ax",%progbits
 3114              		.align	2
 3115              		.thumb
 3116              		.thumb_func
 3117              		.type	c_string_inspect, %function
 3118              	c_string_inspect:
 3119              	.LFB111:
 653:c_string.c    ****   char buf[10] = "\\x";
 3120              		.loc 1 653 0
 3121              		.cfi_startproc
 3122              		@ args = 0, pretend = 0, frame = 48
 3123              		@ frame_needed = 0, uses_anonymous_args = 0
 3124              	.LVL452:
 3125 0000 70B5     		push	{r4, r5, r6, lr}
 3126              		.cfi_def_cfa_offset 16
 3127              		.cfi_offset 4, -16
 3128              		.cfi_offset 5, -12
 3129              		.cfi_offset 6, -8
 3130              		.cfi_offset 14, -4
 3131 0002 8CB0     		sub	sp, sp, #48
 3132              		.cfi_def_cfa_offset 64
 3133 0004 0D46     		mov	r5, r1
 654:c_string.c    ****   mrbc_value ret = mrbc_string_new_cstr(vm, "\"");
 3134              		.loc 1 654 0
 3135 0006 47F65C03 		movw	r3, #30812
 3136 000a 0993     		str	r3, [sp, #36]
 3137 000c 0024     		movs	r4, #0
 3138 000e 0A94     		str	r4, [sp, #40]
ARM GAS  C:\Users\164\AppData\Local\Temp\cc3ssgoH.s 			page 89


 3139 0010 ADF82C40 		strh	r4, [sp, #44]	@ movhi
 655:c_string.c    ****   const unsigned char *s = (const unsigned char *)mrbc_string_cstr(v);
 3140              		.loc 1 655 0
 3141 0014 1D4A     		ldr	r2, .L226
 3142              	.LVL453:
 3143 0016 0146     		mov	r1, r0
 3144              	.LVL454:
 3145 0018 04A8     		add	r0, sp, #16
 3146              	.LVL455:
 3147 001a FFF7FEFF 		bl	mrbc_string_new_cstr
 3148              	.LVL456:
 3149              	.LBB334:
 3150              	.LBB335:
 3151              		.loc 2 80 0
 3152 001e AB68     		ldr	r3, [r5, #8]
 3153 0020 9E68     		ldr	r6, [r3, #8]
 3154              	.LVL457:
 3155              	.LBE335:
 3156              	.LBE334:
 658:c_string.c    ****     if( s[i] < ' ' || 0x7f <= s[i] ) {	// tiny isprint()
 3157              		.loc 1 658 0
 3158 0022 1CE0     		b	.L221
 3159              	.LVL458:
 3160              	.L224:
 659:c_string.c    ****       buf[2] = "0123456789ABCDEF"[s[i] >> 4];
 3161              		.loc 1 659 0
 3162 0024 335D     		ldrb	r3, [r6, r4]	@ zero_extendqisi2
 3163 0026 A3F12002 		sub	r2, r3, #32
 3164 002a D2B2     		uxtb	r2, r2
 3165 002c 5E2A     		cmp	r2, #94
 3166 002e 0FD9     		bls	.L222
 660:c_string.c    ****       buf[3] = "0123456789ABCDEF"[s[i] & 0x0f];
 3167              		.loc 1 660 0
 3168 0030 1B09     		lsrs	r3, r3, #4
 3169 0032 174A     		ldr	r2, .L226+4
 3170 0034 D35C     		ldrb	r3, [r2, r3]	@ zero_extendqisi2
 3171 0036 8DF82630 		strb	r3, [sp, #38]
 661:c_string.c    ****       mrbc_string_append_cstr(&ret, buf);
 3172              		.loc 1 661 0
 3173 003a 335D     		ldrb	r3, [r6, r4]	@ zero_extendqisi2
 3174 003c 03F00F03 		and	r3, r3, #15
 3175 0040 D35C     		ldrb	r3, [r2, r3]	@ zero_extendqisi2
 3176 0042 8DF82730 		strb	r3, [sp, #39]
 662:c_string.c    ****     } else {
 3177              		.loc 1 662 0
 3178 0046 09A9     		add	r1, sp, #36
 3179 0048 04A8     		add	r0, sp, #16
 3180 004a FFF7FEFF 		bl	mrbc_string_append_cstr
 3181              	.LVL459:
 3182 004e 05E0     		b	.L223
 3183              	.L222:
 664:c_string.c    ****       mrbc_string_append_cstr(&ret, buf+3);
 3184              		.loc 1 664 0
 3185 0050 0CA9     		add	r1, sp, #48
 3186 0052 01F8093D 		strb	r3, [r1, #-9]!
 665:c_string.c    ****     }
 3187              		.loc 1 665 0
ARM GAS  C:\Users\164\AppData\Local\Temp\cc3ssgoH.s 			page 90


 3188 0056 04A8     		add	r0, sp, #16
 3189 0058 FFF7FEFF 		bl	mrbc_string_append_cstr
 3190              	.LVL460:
 3191              	.L223:
 658:c_string.c    ****     if( s[i] < ' ' || 0x7f <= s[i] ) {	// tiny isprint()
 3192              		.loc 1 658 0 discriminator 2
 3193 005c 0134     		adds	r4, r4, #1
 3194              	.LVL461:
 3195              	.L221:
 3196              	.LBB336:
 3197              	.LBB337:
  72:c_string.h    **** }
 3198              		.loc 2 72 0 discriminator 1
 3199 005e AB68     		ldr	r3, [r5, #8]
 3200 0060 9B88     		ldrh	r3, [r3, #4]
 3201              	.LVL462:
 3202              	.LBE337:
 3203              	.LBE336:
 658:c_string.c    ****     if( s[i] < ' ' || 0x7f <= s[i] ) {	// tiny isprint()
 3204              		.loc 1 658 0 discriminator 1
 3205 0062 9C42     		cmp	r4, r3
 3206 0064 DEDB     		blt	.L224
 668:c_string.c    **** 
 3207              		.loc 1 668 0
 3208 0066 04AE     		add	r6, sp, #16
 3209 0068 0849     		ldr	r1, .L226
 3210 006a 3046     		mov	r0, r6
 3211 006c FFF7FEFF 		bl	mrbc_string_append_cstr
 3212              	.LVL463:
 3213              	.LBB338:
 670:c_string.c    **** }
 3214              		.loc 1 670 0
 3215 0070 96E80F00 		ldmia	r6, {r0, r1, r2, r3}
 3216 0074 8DE80F00 		stmia	sp, {r0, r1, r2, r3}
 3217 0078 2846     		mov	r0, r5
 3218 007a FFF7FEFF 		bl	mrbc_dec_ref_counter
 3219              	.LVL464:
 3220 007e 9DE80F00 		ldmia	sp, {r0, r1, r2, r3}
 3221 0082 85E80F00 		stmia	r5, {r0, r1, r2, r3}
 3222              	.LBE338:
 671:c_string.c    **** 
 3223              		.loc 1 671 0
 3224 0086 0CB0     		add	sp, sp, #48
 3225              		.cfi_def_cfa_offset 16
 3226              		@ sp needed
 3227 0088 70BD     		pop	{r4, r5, r6, pc}
 3228              	.LVL465:
 3229              	.L227:
 3230 008a 00BF     		.align	2
 3231              	.L226:
 3232 008c 7C000000 		.word	.LC6
 3233 0090 80000000 		.word	.LC7
 3234              		.cfi_endproc
 3235              	.LFE111:
 3236              		.size	c_string_inspect, .-c_string_inspect
 3237              		.section	.text.mrbc_string_index,"ax",%progbits
 3238              		.align	2
ARM GAS  C:\Users\164\AppData\Local\Temp\cc3ssgoH.s 			page 91


 3239              		.global	mrbc_string_index
 3240              		.thumb
 3241              		.thumb_func
 3242              		.type	mrbc_string_index, %function
 3243              	mrbc_string_index:
 3244              	.LFB96:
 266:c_string.c    ****   char *p1 = mrbc_string_cstr(src) + offset;
 3245              		.loc 1 266 0
 3246              		.cfi_startproc
 3247              		@ args = 0, pretend = 0, frame = 0
 3248              		@ frame_needed = 0, uses_anonymous_args = 0
 3249              	.LVL466:
 3250 0000 2DE9F041 		push	{r4, r5, r6, r7, r8, lr}
 3251              		.cfi_def_cfa_offset 24
 3252              		.cfi_offset 4, -24
 3253              		.cfi_offset 5, -20
 3254              		.cfi_offset 6, -16
 3255              		.cfi_offset 7, -12
 3256              		.cfi_offset 8, -8
 3257              		.cfi_offset 14, -4
 3258              	.LVL467:
 3259              	.LBB339:
 3260              	.LBB340:
 3261              		.loc 2 80 0
 3262 0004 8368     		ldr	r3, [r0, #8]
 3263 0006 D3F80880 		ldr	r8, [r3, #8]
 3264              	.LVL468:
 3265              	.LBE340:
 3266              	.LBE339:
 267:c_string.c    ****   char *p2 = mrbc_string_cstr(pattern);
 3267              		.loc 1 267 0
 3268 000a 08EB0205 		add	r5, r8, r2
 3269              	.LVL469:
 3270              	.LBB341:
 3271              	.LBB342:
 3272              		.loc 2 80 0
 3273 000e 8968     		ldr	r1, [r1, #8]
 3274              	.LVL470:
 3275 0010 8F68     		ldr	r7, [r1, #8]
 3276              	.LVL471:
 3277              	.LBE342:
 3278              	.LBE341:
 3279              	.LBB343:
 3280              	.LBB344:
  72:c_string.h    **** }
 3281              		.loc 2 72 0
 3282 0012 9B88     		ldrh	r3, [r3, #4]
 3283              	.LVL472:
 3284              	.LBE344:
 3285              	.LBE343:
 3286              	.LBB345:
 3287              	.LBB346:
 3288 0014 8E88     		ldrh	r6, [r1, #4]
 3289              	.LVL473:
 3290              	.LBE346:
 3291              	.LBE345:
 269:c_string.c    **** 
ARM GAS  C:\Users\164\AppData\Local\Temp\cc3ssgoH.s 			page 92


 3292              		.loc 1 269 0
 3293 0016 9B1B     		subs	r3, r3, r6
 3294 0018 9C1A     		subs	r4, r3, r2
 3295              	.LVL474:
 271:c_string.c    ****     if( memcmp( p1, p2, mrbc_string_size(pattern) ) == 0 ) {
 3296              		.loc 1 271 0
 3297 001a 0BE0     		b	.L229
 3298              	.LVL475:
 3299              	.L232:
 272:c_string.c    ****       return p1 - mrbc_string_cstr(src);	// matched.
 3300              		.loc 1 272 0
 3301 001c 3246     		mov	r2, r6
 3302 001e 3946     		mov	r1, r7
 3303 0020 2846     		mov	r0, r5
 3304 0022 FFF7FEFF 		bl	memcmp
 3305              	.LVL476:
 3306 0026 18B9     		cbnz	r0, .L230
 273:c_string.c    ****     }
 3307              		.loc 1 273 0
 3308 0028 C8EB0500 		rsb	r0, r8, r5
 3309 002c BDE8F081 		pop	{r4, r5, r6, r7, r8, pc}
 3310              	.LVL477:
 3311              	.L230:
 275:c_string.c    ****     p1++;
 3312              		.loc 1 275 0
 3313 0030 013C     		subs	r4, r4, #1
 3314              	.LVL478:
 276:c_string.c    ****   }
 3315              		.loc 1 276 0
 3316 0032 0135     		adds	r5, r5, #1
 3317              	.LVL479:
 3318              	.L229:
 271:c_string.c    ****     if( memcmp( p1, p2, mrbc_string_size(pattern) ) == 0 ) {
 3319              		.loc 1 271 0
 3320 0034 002C     		cmp	r4, #0
 3321 0036 F1DA     		bge	.L232
 279:c_string.c    **** }
 3322              		.loc 1 279 0
 3323 0038 4FF0FF30 		mov	r0, #-1
 280:c_string.c    **** 
 3324              		.loc 1 280 0
 3325 003c BDE8F081 		pop	{r4, r5, r6, r7, r8, pc}
 3326              		.cfi_endproc
 3327              	.LFE96:
 3328              		.size	mrbc_string_index, .-mrbc_string_index
 3329              		.section	.text.c_string_include,"ax",%progbits
 3330              		.align	2
 3331              		.thumb
 3332              		.thumb_func
 3333              		.type	c_string_include, %function
 3334              	c_string_include:
 3335              	.LFB132:
1245:c_string.c    **** }
1246:c_string.c    **** 
1247:c_string.c    **** 
1248:c_string.c    **** //================================================================
1249:c_string.c    **** /*! (method) include?
ARM GAS  C:\Users\164\AppData\Local\Temp\cc3ssgoH.s 			page 93


1250:c_string.c    **** */
1251:c_string.c    **** static void c_string_include(struct VM *vm, mrbc_value v[], int argc)
1252:c_string.c    **** {
 3336              		.loc 1 1252 0
 3337              		.cfi_startproc
 3338              		@ args = 0, pretend = 0, frame = 0
 3339              		@ frame_needed = 0, uses_anonymous_args = 0
 3340              	.LVL480:
 3341 0000 38B5     		push	{r3, r4, r5, lr}
 3342              		.cfi_def_cfa_offset 16
 3343              		.cfi_offset 3, -16
 3344              		.cfi_offset 4, -12
 3345              		.cfi_offset 5, -8
 3346              		.cfi_offset 14, -4
1253:c_string.c    ****   if( !(argc == 1 && v[1].tt == MRBC_TT_STRING)) {
 3347              		.loc 1 1253 0
 3348 0002 012A     		cmp	r2, #1
 3349 0004 04D1     		bne	.L235
 3350 0006 0C46     		mov	r4, r1
 3351              		.loc 1 1253 0 is_stmt 0 discriminator 1
 3352 0008 91F91030 		ldrsb	r3, [r1, #16]
 3353 000c 172B     		cmp	r3, #23
 3354 000e 05D0     		beq	.L236
 3355              	.L235:
 3356              	.LVL481:
 3357              	.LBB349:
 3358              	.LBB350:
  75:console.h     **** }
 3359              		.loc 3 75 0 is_stmt 1
 3360 0010 0E22     		movs	r2, #14
 3361              	.LVL482:
 3362 0012 0A49     		ldr	r1, .L241
 3363              	.LVL483:
 3364 0014 0120     		movs	r0, #1
 3365              	.LVL484:
 3366 0016 FFF7FEFF 		bl	hal_write
 3367              	.LVL485:
 3368 001a 38BD     		pop	{r3, r4, r5, pc}
 3369              	.LVL486:
 3370              	.L236:
 3371              	.LBE350:
 3372              	.LBE349:
1254:c_string.c    ****     console_print("ArgumentError\n");	// raise?
1255:c_string.c    ****     return;
1256:c_string.c    ****   }
1257:c_string.c    **** 
1258:c_string.c    ****   int ret = mrbc_string_index( &v[0], &v[1], 0 );
 3373              		.loc 1 1258 0
 3374 001c 0022     		movs	r2, #0
 3375              	.LVL487:
 3376 001e 1031     		adds	r1, r1, #16
 3377              	.LVL488:
 3378 0020 2046     		mov	r0, r4
 3379              	.LVL489:
 3380 0022 FFF7FEFF 		bl	mrbc_string_index
 3381              	.LVL490:
 3382 0026 0546     		mov	r5, r0
ARM GAS  C:\Users\164\AppData\Local\Temp\cc3ssgoH.s 			page 94


 3383              	.LVL491:
1259:c_string.c    ****   SET_BOOL_RETURN(ret >= 0);
 3384              		.loc 1 1259 0
 3385 0028 2046     		mov	r0, r4
 3386              	.LVL492:
 3387 002a FFF7FEFF 		bl	mrbc_dec_ref_counter
 3388              	.LVL493:
 3389 002e 002D     		cmp	r5, #0
 3390 0030 01DB     		blt	.L239
 3391 0032 0323     		movs	r3, #3
 3392 0034 00E0     		b	.L238
 3393              	.L239:
 3394 0036 0223     		movs	r3, #2
 3395              	.L238:
 3396              		.loc 1 1259 0 is_stmt 0 discriminator 4
 3397 0038 2370     		strb	r3, [r4]
 3398 003a 38BD     		pop	{r3, r4, r5, pc}
 3399              	.LVL494:
 3400              	.L242:
 3401              		.align	2
 3402              	.L241:
 3403 003c 00000000 		.word	.LC0
 3404              		.cfi_endproc
 3405              	.LFE132:
 3406              		.size	c_string_include, .-c_string_include
 3407              		.section	.text.c_string_split,"ax",%progbits
 3408              		.align	2
 3409              		.thumb
 3410              		.thumb_func
 3411              		.type	c_string_split, %function
 3412              	c_string_split:
 3413              	.LFB113:
 689:c_string.c    ****   mrbc_value ret = mrbc_array_new(vm, 0);
 3414              		.loc 1 689 0 is_stmt 1
 3415              		.cfi_startproc
 3416              		@ args = 0, pretend = 0, frame = 72
 3417              		@ frame_needed = 0, uses_anonymous_args = 0
 3418              	.LVL495:
 3419 0000 2DE9F04F 		push	{r4, r5, r6, r7, r8, r9, r10, fp, lr}
 3420              		.cfi_def_cfa_offset 36
 3421              		.cfi_offset 4, -36
 3422              		.cfi_offset 5, -32
 3423              		.cfi_offset 6, -28
 3424              		.cfi_offset 7, -24
 3425              		.cfi_offset 8, -20
 3426              		.cfi_offset 9, -16
 3427              		.cfi_offset 10, -12
 3428              		.cfi_offset 11, -8
 3429              		.cfi_offset 14, -4
 3430 0004 93B0     		sub	sp, sp, #76
 3431              		.cfi_def_cfa_offset 112
 3432 0006 0190     		str	r0, [sp, #4]
 3433 0008 0E46     		mov	r6, r1
 3434 000a 9346     		mov	fp, r2
 690:c_string.c    ****   if( mrbc_string_size(&v[0]) == 0 ) goto DONE;
 3435              		.loc 1 690 0
 3436 000c 0022     		movs	r2, #0
ARM GAS  C:\Users\164\AppData\Local\Temp\cc3ssgoH.s 			page 95


 3437              	.LVL496:
 3438 000e 0146     		mov	r1, r0
 3439              	.LVL497:
 3440 0010 0EA8     		add	r0, sp, #56
 3441              	.LVL498:
 3442 0012 FFF7FEFF 		bl	mrbc_array_new
 3443              	.LVL499:
 3444              	.LBB388:
 3445              	.LBB389:
  72:c_string.h    **** }
 3446              		.loc 2 72 0
 3447 0016 B368     		ldr	r3, [r6, #8]
 3448 0018 9B88     		ldrh	r3, [r3, #4]
 3449              	.LVL500:
 3450              	.LBE389:
 3451              	.LBE388:
 691:c_string.c    **** 
 3452              		.loc 1 691 0
 3453 001a 002B     		cmp	r3, #0
 3454 001c 00F0D780 		beq	.L244
 3455              	.LVL501:
 695:c_string.c    ****     if( v[2].tt != MRBC_TT_FIXNUM ) {
 3456              		.loc 1 695 0
 3457 0020 BBF1010F 		cmp	fp, #1
 3458 0024 16DD     		ble	.L274
 696:c_string.c    ****       console_print( "TypeError\n" );     // raise?
 3459              		.loc 1 696 0
 3460 0026 96F92030 		ldrsb	r3, [r6, #32]
 3461 002a 042B     		cmp	r3, #4
 3462 002c 05D0     		beq	.L246
 3463              	.LVL502:
 3464              	.LBB390:
 3465              	.LBB391:
  75:console.h     **** }
 3466              		.loc 3 75 0
 3467 002e 0A22     		movs	r2, #10
 3468 0030 6F49     		ldr	r1, .L283
 3469 0032 0120     		movs	r0, #1
 3470 0034 FFF7FEFF 		bl	hal_write
 3471              	.LVL503:
 3472 0038 D6E0     		b	.L243
 3473              	.LVL504:
 3474              	.L246:
 3475              	.LBE391:
 3476              	.LBE390:
 700:c_string.c    ****     if( limit == 1 ) {
 3477              		.loc 1 700 0
 3478 003a D6F82880 		ldr	r8, [r6, #40]
 3479              	.LVL505:
 701:c_string.c    ****       mrbc_array_push( &ret, &v[0] );
 3480              		.loc 1 701 0
 3481 003e B8F1010F 		cmp	r8, #1
 3482 0042 09D1     		bne	.L245
 702:c_string.c    ****       mrbc_dup( &v[0] );
 3483              		.loc 1 702 0
 3484 0044 3146     		mov	r1, r6
 3485 0046 0EA8     		add	r0, sp, #56
ARM GAS  C:\Users\164\AppData\Local\Temp\cc3ssgoH.s 			page 96


 3486 0048 FFF7FEFF 		bl	mrbc_array_push
 3487              	.LVL506:
 703:c_string.c    ****       goto DONE;
 3488              		.loc 1 703 0
 3489 004c 3046     		mov	r0, r6
 3490 004e FFF7FEFF 		bl	mrbc_dup
 3491              	.LVL507:
 704:c_string.c    ****     }
 3492              		.loc 1 704 0
 3493 0052 BCE0     		b	.L244
 3494              	.LVL508:
 3495              	.L274:
 694:c_string.c    ****   if( argc >= 2 ) {
 3496              		.loc 1 694 0
 3497 0054 4FF00008 		mov	r8, #0
 3498              	.LVL509:
 3499              	.L245:
 709:c_string.c    ****   switch( sep.tt ) {
 3500              		.loc 1 709 0
 3501 0058 BBF1000F 		cmp	fp, #0
 3502 005c 05D1     		bne	.L248
 709:c_string.c    ****   switch( sep.tt ) {
 3503              		.loc 1 709 0 is_stmt 0 discriminator 1
 3504 005e 654A     		ldr	r2, .L283+4
 3505 0060 0199     		ldr	r1, [sp, #4]
 3506 0062 0AA8     		add	r0, sp, #40
 3507 0064 FFF7FEFF 		bl	mrbc_string_new_cstr
 3508              	.LVL510:
 3509 0068 05E0     		b	.L249
 3510              	.L248:
 709:c_string.c    ****   switch( sep.tt ) {
 3511              		.loc 1 709 0 discriminator 2
 3512 006a 0AAC     		add	r4, sp, #40
 3513 006c 06F11003 		add	r3, r6, #16
 3514 0070 0FCB     		ldmia	r3, {r0, r1, r2, r3}
 3515 0072 84E80F00 		stmia	r4, {r0, r1, r2, r3}
 3516              	.L249:
 710:c_string.c    ****   case MRBC_TT_NIL:
 3517              		.loc 1 710 0 is_stmt 1
 3518 0076 9DF92830 		ldrsb	r3, [sp, #40]
 3519 007a 012B     		cmp	r3, #1
 3520 007c 02D0     		beq	.L251
 3521 007e 172B     		cmp	r3, #23
 3522 0080 12D0     		beq	.L252
 3523 0082 0BE0     		b	.L280
 3524              	.L251:
 712:c_string.c    ****     break;
 3525              		.loc 1 712 0
 3526 0084 02AC     		add	r4, sp, #8
 3527 0086 5B4A     		ldr	r2, .L283+4
 3528 0088 0199     		ldr	r1, [sp, #4]
 3529 008a 2046     		mov	r0, r4
 3530 008c FFF7FEFF 		bl	mrbc_string_new_cstr
 3531              	.LVL511:
 3532 0090 0AAD     		add	r5, sp, #40
 3533 0092 94E80F00 		ldmia	r4, {r0, r1, r2, r3}
 3534 0096 85E80F00 		stmia	r5, {r0, r1, r2, r3}
ARM GAS  C:\Users\164\AppData\Local\Temp\cc3ssgoH.s 			page 97


 713:c_string.c    **** 
 3535              		.loc 1 713 0
 3536 009a 05E0     		b	.L252
 3537              	.L280:
 3538              	.LVL512:
 3539              	.LBB392:
 3540              	.LBB393:
  75:console.h     **** }
 3541              		.loc 3 75 0
 3542 009c 0A22     		movs	r2, #10
 3543 009e 5449     		ldr	r1, .L283
 3544 00a0 0120     		movs	r0, #1
 3545 00a2 FFF7FEFF 		bl	hal_write
 3546              	.LVL513:
 3547 00a6 9FE0     		b	.L243
 3548              	.LVL514:
 3549              	.L252:
 3550              	.LBE393:
 3551              	.LBE392:
 3552              	.LBB394:
 3553              	.LBB395:
 3554              		.loc 2 80 0
 3555 00a8 0C9B     		ldr	r3, [sp, #48]
 3556 00aa 9A68     		ldr	r2, [r3, #8]
 3557              	.LVL515:
 3558              	.LBE395:
 3559              	.LBE394:
 723:c_string.c    **** 		   (mrbc_string_size(&sep) == 1);
 3560              		.loc 1 723 0
 3561 00ac 1278     		ldrb	r2, [r2]	@ zero_extendqisi2
 3562 00ae 202A     		cmp	r2, #32
 3563 00b0 05D1     		bne	.L275
 3564              	.LVL516:
 3565              	.LBB396:
 3566              	.LBB397:
  72:c_string.h    **** }
 3567              		.loc 2 72 0
 3568 00b2 9A88     		ldrh	r2, [r3, #4]
 3569              	.LVL517:
 3570              	.LBE397:
 3571              	.LBE396:
 723:c_string.c    **** 		   (mrbc_string_size(&sep) == 1);
 3572              		.loc 1 723 0
 3573 00b4 012A     		cmp	r2, #1
 3574 00b6 05D1     		bne	.L276
 3575 00b8 4FF00109 		mov	r9, #1
 3576 00bc 04E0     		b	.L253
 3577              	.L275:
 3578 00be 4FF00009 		mov	r9, #0
 3579 00c2 01E0     		b	.L253
 3580              	.L276:
 3581 00c4 4FF00009 		mov	r9, #0
 3582              	.L253:
 3583              	.LVL518:
 3584              	.LBB398:
 3585              	.LBB399:
  72:c_string.h    **** }
ARM GAS  C:\Users\164\AppData\Local\Temp\cc3ssgoH.s 			page 98


 3586              		.loc 2 72 0 discriminator 6
 3587 00c8 B3F804A0 		ldrh	r10, [r3, #4]
 3588              	.LVL519:
 3589              	.LBE399:
 3590              	.LBE398:
 727:c_string.c    **** 
 3591              		.loc 1 727 0 discriminator 6
 3592 00cc BAF1000F 		cmp	r10, #0
 3593 00d0 01D1     		bne	.L254
 727:c_string.c    **** 
 3594              		.loc 1 727 0 is_stmt 0 discriminator 1
 3595 00d2 0AF1010A 		add	r10, r10, #1
 3596              	.LVL520:
 3597              	.L254:
 723:c_string.c    **** 		   (mrbc_string_size(&sep) == 1);
 3598              		.loc 1 723 0 is_stmt 1
 3599 00d6 0024     		movs	r4, #0
 3600              	.LVL521:
 3601              	.L268:
 3602              	.LBB400:
 732:c_string.c    ****       for( ; offset < mrbc_string_size(&v[0]); offset++ ) {
 3603              		.loc 1 732 0
 3604 00d8 B9F1000F 		cmp	r9, #0
 3605 00dc 06D1     		bne	.L255
 3606 00de 0BE0     		b	.L256
 3607              	.L258:
 3608              	.LVL522:
 3609              	.LBB401:
 3610              	.LBB402:
 3611              		.loc 2 80 0
 3612 00e0 9B68     		ldr	r3, [r3, #8]
 3613              	.LVL523:
 3614              	.LBE402:
 3615              	.LBE401:
 734:c_string.c    ****       }
 3616              		.loc 1 734 0
 3617 00e2 185D     		ldrb	r0, [r3, r4]	@ zero_extendqisi2
 3618 00e4 FFF7FEFF 		bl	is_space
 3619              	.LVL524:
 3620 00e8 20B1     		cbz	r0, .L257
 733:c_string.c    **** 	if( !is_space( mrbc_string_cstr(&v[0])[offset] )) break;
 3621              		.loc 1 733 0
 3622 00ea 0134     		adds	r4, r4, #1
 3623              	.LVL525:
 3624              	.L255:
 3625              	.LBB403:
 3626              	.LBB404:
  72:c_string.h    **** }
 3627              		.loc 2 72 0 discriminator 1
 3628 00ec B368     		ldr	r3, [r6, #8]
 3629 00ee 9D88     		ldrh	r5, [r3, #4]
 3630              	.LVL526:
 3631              	.LBE404:
 3632              	.LBE403:
 733:c_string.c    **** 	if( !is_space( mrbc_string_cstr(&v[0])[offset] )) break;
 3633              		.loc 1 733 0 discriminator 1
 3634 00f0 AC42     		cmp	r4, r5
ARM GAS  C:\Users\164\AppData\Local\Temp\cc3ssgoH.s 			page 99


 3635 00f2 F5DB     		blt	.L258
 3636              	.L257:
 736:c_string.c    ****     }
 3637              		.loc 1 736 0
 3638 00f4 AC42     		cmp	r4, r5
 3639 00f6 48DC     		bgt	.L259
 3640              	.L256:
 740:c_string.c    ****       pos = -1;
 3641              		.loc 1 740 0
 3642 00f8 B8F1000F 		cmp	r8, #0
 3643 00fc 04DD     		ble	.L260
 3644              	.LVL527:
 3645              	.LBB405:
 3646              	.LBB406:
 3647              		.file 5 "c_array.h"
   1:c_array.h     **** /*! @file
   2:c_array.h     ****   @brief
   3:c_array.h     ****   mruby/c Array class
   4:c_array.h     **** 
   5:c_array.h     ****   <pre>
   6:c_array.h     ****   Copyright (C) 2015-2018 Kyushu Institute of Technology.
   7:c_array.h     ****   Copyright (C) 2015-2018 Shimane IT Open-Innovation Center.
   8:c_array.h     **** 
   9:c_array.h     ****   This file is distributed under BSD 3-Clause License.
  10:c_array.h     **** 
  11:c_array.h     ****   </pre>
  12:c_array.h     **** */
  13:c_array.h     **** 
  14:c_array.h     **** #ifndef MRBC_SRC_C_ARRAY_H_
  15:c_array.h     **** #define MRBC_SRC_C_ARRAY_H_
  16:c_array.h     **** 
  17:c_array.h     **** #include "value.h"
  18:c_array.h     **** 
  19:c_array.h     **** #ifdef __cplusplus
  20:c_array.h     **** extern "C" {
  21:c_array.h     **** #endif
  22:c_array.h     **** 
  23:c_array.h     **** //================================================================
  24:c_array.h     **** /*!@brief
  25:c_array.h     ****   Define Array handle.
  26:c_array.h     **** */
  27:c_array.h     **** typedef struct RArray {
  28:c_array.h     ****   MRBC_OBJECT_HEADER;
  29:c_array.h     **** 
  30:c_array.h     ****   uint16_t data_size;	//!< data buffer size.
  31:c_array.h     ****   uint16_t n_stored;	//!< # of stored.
  32:c_array.h     ****   mrbc_value *data;	//!< pointer to allocated memory.
  33:c_array.h     **** 
  34:c_array.h     **** } mrbc_array;
  35:c_array.h     **** 
  36:c_array.h     **** 
  37:c_array.h     **** mrbc_value mrbc_array_new(struct VM *vm, int size);
  38:c_array.h     **** void mrbc_array_delete(mrbc_value *ary);
  39:c_array.h     **** void mrbc_array_clear_vm_id(mrbc_value *ary);
  40:c_array.h     **** int mrbc_array_resize(mrbc_value *ary, int size);
  41:c_array.h     **** int mrbc_array_set(mrbc_value *ary, int idx, mrbc_value *set_val);
  42:c_array.h     **** mrbc_value mrbc_array_get(mrbc_value *ary, int idx);
ARM GAS  C:\Users\164\AppData\Local\Temp\cc3ssgoH.s 			page 100


  43:c_array.h     **** int mrbc_array_push(mrbc_value *ary, mrbc_value *set_val);
  44:c_array.h     **** mrbc_value mrbc_array_pop(mrbc_value *ary);
  45:c_array.h     **** int mrbc_array_unshift(mrbc_value *ary, mrbc_value *set_val);
  46:c_array.h     **** mrbc_value mrbc_array_shift(mrbc_value *ary);
  47:c_array.h     **** int mrbc_array_insert(mrbc_value *ary, int idx, mrbc_value *set_val);
  48:c_array.h     **** mrbc_value mrbc_array_remove(mrbc_value *ary, int idx);
  49:c_array.h     **** void mrbc_array_clear(mrbc_value *ary);
  50:c_array.h     **** int mrbc_array_compare(const mrbc_value *v1, const mrbc_value *v2);
  51:c_array.h     **** void mrbc_array_minmax(mrbc_value *ary, mrbc_value **pp_min_value, mrbc_value **pp_max_value);
  52:c_array.h     **** void mrbc_init_class_array(struct VM *vm);
  53:c_array.h     **** 
  54:c_array.h     **** 
  55:c_array.h     **** //================================================================
  56:c_array.h     **** /*! get size
  57:c_array.h     **** */
  58:c_array.h     **** static inline int mrbc_array_size(const mrbc_value *ary)
  59:c_array.h     **** {
  60:c_array.h     ****   return ary->array->n_stored;
 3648              		.loc 5 60 0
 3649 00fe 109B     		ldr	r3, [sp, #64]
 3650 0100 DB88     		ldrh	r3, [r3, #6]
 3651              	.LVL528:
 3652              	.LBE406:
 3653              	.LBE405:
 740:c_string.c    ****       pos = -1;
 3654              		.loc 1 740 0
 3655 0102 0133     		adds	r3, r3, #1
 3656 0104 9845     		cmp	r8, r3
 3657 0106 25DD     		ble	.L277
 3658              	.L260:
 746:c_string.c    ****       pos = offset;
 3659              		.loc 1 746 0
 3660 0108 B9F1000F 		cmp	r9, #0
 3661 010c 07D1     		bne	.L278
 3662 010e 0DE0     		b	.L281
 3663              	.LVL529:
 3664              	.L265:
 3665              	.LBB407:
 3666              	.LBB408:
 3667              		.loc 2 80 0
 3668 0110 9B68     		ldr	r3, [r3, #8]
 3669              	.LVL530:
 3670              	.LBE408:
 3671              	.LBE407:
 749:c_string.c    ****       }
 3672              		.loc 1 749 0
 3673 0112 585D     		ldrb	r0, [r3, r5]	@ zero_extendqisi2
 3674 0114 FFF7FEFF 		bl	is_space
 3675              	.LVL531:
 3676 0118 30B9     		cbnz	r0, .L264
 748:c_string.c    **** 	if( is_space( mrbc_string_cstr(&v[0])[pos] )) break;
 3677              		.loc 1 748 0
 3678 011a 0135     		adds	r5, r5, #1
 3679              	.LVL532:
 3680 011c 00E0     		b	.L262
 3681              	.LVL533:
 3682              	.L278:
ARM GAS  C:\Users\164\AppData\Local\Temp\cc3ssgoH.s 			page 101


 3683 011e 2546     		mov	r5, r4
 3684              	.L262:
 3685              	.LVL534:
 3686              	.LBB409:
 3687              	.LBB410:
  72:c_string.h    **** }
 3688              		.loc 2 72 0 discriminator 1
 3689 0120 B368     		ldr	r3, [r6, #8]
 3690 0122 9A88     		ldrh	r2, [r3, #4]
 3691              	.LVL535:
 3692              	.LBE410:
 3693              	.LBE409:
 748:c_string.c    **** 	if( is_space( mrbc_string_cstr(&v[0])[pos] )) break;
 3694              		.loc 1 748 0 discriminator 1
 3695 0124 9542     		cmp	r5, r2
 3696 0126 F3DB     		blt	.L265
 3697              	.L264:
 751:c_string.c    ****       goto SPLIT_ITEM;
 3698              		.loc 1 751 0
 3699 0128 2F1B     		subs	r7, r5, r4
 3700              	.LVL536:
 752:c_string.c    ****     }
 3701              		.loc 1 752 0
 3702 012a 18E0     		b	.L261
 3703              	.LVL537:
 3704              	.L281:
 3705              	.LBB411:
 3706              	.LBB412:
  72:c_string.h    **** }
 3707              		.loc 2 72 0
 3708 012c 0C9B     		ldr	r3, [sp, #48]
 3709 012e 9B88     		ldrh	r3, [r3, #4]
 3710              	.LVL538:
 3711              	.LBE412:
 3712              	.LBE411:
 756:c_string.c    ****       pos = (offset < mrbc_string_size(&v[0])-1) ? offset : -1;
 3713              		.loc 1 756 0
 3714 0130 43B9     		cbnz	r3, .L266
 3715              	.LVL539:
 3716              	.LBB413:
 3717              	.LBB414:
  72:c_string.h    **** }
 3718              		.loc 2 72 0
 3719 0132 B368     		ldr	r3, [r6, #8]
 3720 0134 9B88     		ldrh	r3, [r3, #4]
 3721              	.LVL540:
 3722              	.LBE414:
 3723              	.LBE413:
 757:c_string.c    ****       len = 1;
 3724              		.loc 1 757 0
 3725 0136 013B     		subs	r3, r3, #1
 3726 0138 9C42     		cmp	r4, r3
 3727 013a 0EDB     		blt	.L279
 758:c_string.c    ****       goto SPLIT_ITEM;
 3728              		.loc 1 758 0
 3729 013c 0127     		movs	r7, #1
 3730              	.LVL541:
ARM GAS  C:\Users\164\AppData\Local\Temp\cc3ssgoH.s 			page 102


 757:c_string.c    ****       len = 1;
 3731              		.loc 1 757 0
 3732 013e 4FF0FF35 		mov	r5, #-1
 3733 0142 0CE0     		b	.L261
 3734              	.LVL542:
 3735              	.L266:
 763:c_string.c    ****     len = pos - offset;
 3736              		.loc 1 763 0
 3737 0144 2246     		mov	r2, r4
 3738 0146 0AA9     		add	r1, sp, #40
 3739 0148 3046     		mov	r0, r6
 3740 014a FFF7FEFF 		bl	mrbc_string_index
 3741              	.LVL543:
 3742 014e 0546     		mov	r5, r0
 3743              	.LVL544:
 764:c_string.c    **** 
 3744              		.loc 1 764 0
 3745 0150 071B     		subs	r7, r0, r4
 3746              	.LVL545:
 3747 0152 04E0     		b	.L261
 3748              	.LVL546:
 3749              	.L277:
 741:c_string.c    ****       goto SPLIT_ITEM;
 3750              		.loc 1 741 0
 3751 0154 4FF0FF35 		mov	r5, #-1
 3752 0158 01E0     		b	.L261
 3753              	.L279:
 757:c_string.c    ****       len = 1;
 3754              		.loc 1 757 0
 3755 015a 2546     		mov	r5, r4
 758:c_string.c    ****       goto SPLIT_ITEM;
 3756              		.loc 1 758 0
 3757 015c 0127     		movs	r7, #1
 3758              	.LVL547:
 3759              	.L261:
 768:c_string.c    **** 
 3760              		.loc 1 768 0
 3761 015e 002D     		cmp	r5, #0
 3762 0160 02DA     		bge	.L267
 3763              	.LVL548:
 3764              	.LBB415:
 3765              	.LBB416:
  72:c_string.h    **** }
 3766              		.loc 2 72 0
 3767 0162 B368     		ldr	r3, [r6, #8]
 3768 0164 9F88     		ldrh	r7, [r3, #4]
 3769              	.LVL549:
 3770              	.LBE416:
 3771              	.LBE415:
 768:c_string.c    **** 
 3772              		.loc 1 768 0
 3773 0166 3F1B     		subs	r7, r7, r4
 3774              	.LVL550:
 3775              	.L267:
 3776              	.LBB417:
 3777              	.LBB418:
 3778              		.loc 2 80 0
ARM GAS  C:\Users\164\AppData\Local\Temp\cc3ssgoH.s 			page 103


 3779 0168 B368     		ldr	r3, [r6, #8]
 3780 016a 9A68     		ldr	r2, [r3, #8]
 3781              	.LVL551:
 3782              	.LBE418:
 3783              	.LBE417:
 770:c_string.c    ****     mrbc_array_push( &ret, &v1 );
 3784              		.loc 1 770 0
 3785 016c 3B46     		mov	r3, r7
 3786 016e 2244     		add	r2, r2, r4
 3787 0170 0199     		ldr	r1, [sp, #4]
 3788 0172 06A8     		add	r0, sp, #24
 3789 0174 FFF7FEFF 		bl	mrbc_string_new
 3790              	.LVL552:
 771:c_string.c    **** 
 3791              		.loc 1 771 0
 3792 0178 06A9     		add	r1, sp, #24
 3793 017a 0EA8     		add	r0, sp, #56
 3794 017c FFF7FEFF 		bl	mrbc_array_push
 3795              	.LVL553:
 773:c_string.c    ****     offset = pos + sep_len;
 3796              		.loc 1 773 0
 3797 0180 002D     		cmp	r5, #0
 3798 0182 02DB     		blt	.L259
 774:c_string.c    ****   }
 3799              		.loc 1 774 0
 3800 0184 05EB0A04 		add	r4, r5, r10
 3801              	.LVL554:
 3802              	.LBE400:
 775:c_string.c    **** 
 3803              		.loc 1 775 0
 3804 0188 A6E7     		b	.L268
 3805              	.LVL555:
 3806              	.L259:
 778:c_string.c    ****     while( 1 ) {
 3807              		.loc 1 778 0
 3808 018a B8F1000F 		cmp	r8, #0
 3809 018e 14D1     		bne	.L269
 3810              	.LVL556:
 3811              	.L271:
 3812              	.LBB419:
 3813              	.LBB420:
 3814              	.LBB421:
 3815              		.loc 5 60 0
 3816 0190 109B     		ldr	r3, [sp, #64]
 3817 0192 DA88     		ldrh	r2, [r3, #6]
 3818              	.LVL557:
 3819              	.LBE421:
 3820              	.LBE420:
 781:c_string.c    **** 
 3821              		.loc 1 781 0
 3822 0194 541E     		subs	r4, r2, #1
 3823              	.LVL558:
 3824 0196 10D4     		bmi	.L269
 783:c_string.c    ****       if( mrbc_string_size(&v1) != 0 ) break;
 3825              		.loc 1 783 0
 3826 0198 2246     		mov	r2, r4
 3827 019a 0EA9     		add	r1, sp, #56
ARM GAS  C:\Users\164\AppData\Local\Temp\cc3ssgoH.s 			page 104


 3828 019c 06A8     		add	r0, sp, #24
 3829 019e FFF7FEFF 		bl	mrbc_array_get
 3830              	.LVL559:
 3831              	.LBB422:
 3832              	.LBB423:
  72:c_string.h    **** }
 3833              		.loc 2 72 0
 3834 01a2 089B     		ldr	r3, [sp, #32]
 3835 01a4 9B88     		ldrh	r3, [r3, #4]
 3836              	.LVL560:
 3837              	.LBE423:
 3838              	.LBE422:
 784:c_string.c    **** 
 3839              		.loc 1 784 0
 3840 01a6 43B9     		cbnz	r3, .L269
 786:c_string.c    ****       mrbc_string_delete( &v1 );
 3841              		.loc 1 786 0
 3842 01a8 2246     		mov	r2, r4
 3843 01aa 0EA9     		add	r1, sp, #56
 3844 01ac 02A8     		add	r0, sp, #8
 3845 01ae FFF7FEFF 		bl	mrbc_array_remove
 3846              	.LVL561:
 787:c_string.c    ****     }
 3847              		.loc 1 787 0
 3848 01b2 06A8     		add	r0, sp, #24
 3849 01b4 FFF7FEFF 		bl	mrbc_string_delete
 3850              	.LVL562:
 3851              	.LBE419:
 788:c_string.c    ****   }
 3852              		.loc 1 788 0
 3853 01b8 EAE7     		b	.L271
 3854              	.LVL563:
 3855              	.L269:
 791:c_string.c    ****     mrbc_string_delete(&sep);
 3856              		.loc 1 791 0
 3857 01ba BBF1000F 		cmp	fp, #0
 3858 01be 03D0     		beq	.L272
 791:c_string.c    ****     mrbc_string_delete(&sep);
 3859              		.loc 1 791 0 is_stmt 0 discriminator 1
 3860 01c0 96F91030 		ldrsb	r3, [r6, #16]
 3861 01c4 012B     		cmp	r3, #1
 3862 01c6 02D1     		bne	.L244
 3863              	.L272:
 792:c_string.c    ****   }
 3864              		.loc 1 792 0 is_stmt 1
 3865 01c8 0AA8     		add	r0, sp, #40
 3866 01ca FFF7FEFF 		bl	mrbc_string_delete
 3867              	.LVL564:
 3868              	.L244:
 3869              	.LBB424:
 796:c_string.c    **** }
 3870              		.loc 1 796 0
 3871 01ce 06AC     		add	r4, sp, #24
 3872 01d0 12AB     		add	r3, sp, #72
 3873 01d2 13E90F00 		ldmdb	r3, {r0, r1, r2, r3}
 3874 01d6 84E80F00 		stmia	r4, {r0, r1, r2, r3}
 3875 01da 3046     		mov	r0, r6
ARM GAS  C:\Users\164\AppData\Local\Temp\cc3ssgoH.s 			page 105


 3876 01dc FFF7FEFF 		bl	mrbc_dec_ref_counter
 3877              	.LVL565:
 3878 01e0 94E80F00 		ldmia	r4, {r0, r1, r2, r3}
 3879 01e4 86E80F00 		stmia	r6, {r0, r1, r2, r3}
 3880              	.L243:
 3881              	.LBE424:
 797:c_string.c    **** 
 3882              		.loc 1 797 0
 3883 01e8 13B0     		add	sp, sp, #76
 3884              		.cfi_def_cfa_offset 36
 3885              		@ sp needed
 3886 01ea BDE8F08F 		pop	{r4, r5, r6, r7, r8, r9, r10, fp, pc}
 3887              	.LVL566:
 3888              	.L284:
 3889 01ee 00BF     		.align	2
 3890              	.L283:
 3891 01f0 54000000 		.word	.LC4
 3892 01f4 94000000 		.word	.LC8
 3893              		.cfi_endproc
 3894              	.LFE113:
 3895              		.size	c_string_split, .-c_string_split
 3896              		.section	.text.c_string_index,"ax",%progbits
 3897              		.align	2
 3898              		.thumb
 3899              		.thumb_func
 3900              		.type	c_string_index, %function
 3901              	c_string_index:
 3902              	.LFB110:
 622:c_string.c    ****   int index;
 3903              		.loc 1 622 0
 3904              		.cfi_startproc
 3905              		@ args = 0, pretend = 0, frame = 0
 3906              		@ frame_needed = 0, uses_anonymous_args = 0
 3907              	.LVL567:
 3908 0000 38B5     		push	{r3, r4, r5, lr}
 3909              		.cfi_def_cfa_offset 16
 3910              		.cfi_offset 3, -16
 3911              		.cfi_offset 4, -12
 3912              		.cfi_offset 5, -8
 3913              		.cfi_offset 14, -4
 3914 0002 0C46     		mov	r4, r1
 626:c_string.c    ****     offset = 0;
 3915              		.loc 1 626 0
 3916 0004 012A     		cmp	r2, #1
 3917 0006 0ED0     		beq	.L290
 629:c_string.c    ****     offset = v[2].i;
 3918              		.loc 1 629 0
 3919 0008 022A     		cmp	r2, #2
 3920 000a 1BD1     		bne	.L287
 629:c_string.c    ****     offset = v[2].i;
 3921              		.loc 1 629 0 is_stmt 0 discriminator 1
 3922 000c 91F92030 		ldrsb	r3, [r1, #32]
 3923 0010 042B     		cmp	r3, #4
 3924 0012 17D1     		bne	.L287
