ARM GAS  C:\Users\164\AppData\Local\Temp\cc3ssgoH.s 			page 1


   1              		.syntax unified
   2              		.cpu cortex-m3
   3              		.fpu softvfp
   4              		.eabi_attribute 20, 1
   5              		.eabi_attribute 21, 1
   6              		.eabi_attribute 23, 3
   7              		.eabi_attribute 24, 1
   8              		.eabi_attribute 25, 1
   9              		.eabi_attribute 26, 1
  10              		.eabi_attribute 30, 1
  11              		.eabi_attribute 34, 1
  12              		.eabi_attribute 18, 4
  13              		.thumb
  14              		.syntax unified
  15              		.file	"c_string.c"
  16              		.text
  17              	.Ltext0:
  18              		.cfi_sections	.debug_frame
  19              		.section	.text.is_space,"ax",%progbits
  20              		.align	2
  21              		.thumb
  22              		.thumb_func
  23              		.type	is_space, %function
  24              	is_space:
  25              	.LFB86:
  26              		.file 1 "c_string.c"
   1:c_string.c    **** /*! @file
   2:c_string.c    ****   @brief
   3:c_string.c    ****   mruby/c String object
   4:c_string.c    **** 
   5:c_string.c    ****   <pre>
   6:c_string.c    ****   Copyright (C) 2015-2018 Kyushu Institute of Technology.
   7:c_string.c    ****   Copyright (C) 2015-2018 Shimane IT Open-Innovation Center.
   8:c_string.c    **** 
   9:c_string.c    ****   This file is distributed under BSD 3-Clause License.
  10:c_string.c    **** 
  11:c_string.c    ****   </pre>
  12:c_string.c    **** */
  13:c_string.c    **** 
  14:c_string.c    **** #include "vm_config.h"
  15:c_string.c    **** #include <stdlib.h>
  16:c_string.c    **** #include <string.h>
  17:c_string.c    **** #include <limits.h>
  18:c_string.c    **** #include <assert.h>
  19:c_string.c    **** 
  20:c_string.c    **** #include "value.h"
  21:c_string.c    **** #include "vm.h"
  22:c_string.c    **** #include "alloc.h"
  23:c_string.c    **** #include "static.h"
  24:c_string.c    **** #include "class.h"
  25:c_string.c    **** #include "symbol.h"
  26:c_string.c    **** #include "c_array.h"
  27:c_string.c    **** #include "c_string.h"
  28:c_string.c    **** #include "console.h"
  29:c_string.c    **** 
  30:c_string.c    **** 
  31:c_string.c    **** #if MRBC_USE_STRING
ARM GAS  C:\Users\164\AppData\Local\Temp\cc3ssgoH.s 			page 2


  32:c_string.c    **** //================================================================
  33:c_string.c    **** /*! white space character test
  34:c_string.c    **** 
  35:c_string.c    ****   @param  ch	character code.
  36:c_string.c    ****   @return	result.
  37:c_string.c    **** */
  38:c_string.c    **** static int is_space( int ch )
  39:c_string.c    **** {
  27              		.loc 1 39 0
  28              		.cfi_startproc
  29              		@ args = 0, pretend = 0, frame = 0
  30              		@ frame_needed = 0, uses_anonymous_args = 0
  31              		@ link register save eliminated.
  32              	.LVL0:
  40:c_string.c    ****   static const char ws[] = " \t\r\n\f\v";	// '\0' on tail
  41:c_string.c    **** 
  42:c_string.c    ****   int i;
  43:c_string.c    ****   for( i = 0; i < sizeof(ws); i++ ) {
  33              		.loc 1 43 0
  34 0000 0023     		movs	r3, #0
  35 0002 04E0     		b	.L2
  36              	.LVL1:
  37              	.L4:
  44:c_string.c    ****     if( ch == ws[i] ) return 1;
  38              		.loc 1 44 0
  39 0004 054A     		ldr	r2, .L6
  40 0006 D25C     		ldrb	r2, [r2, r3]	@ zero_extendqisi2
  41 0008 8242     		cmp	r2, r0
  42 000a 04D0     		beq	.L5
  43:c_string.c    ****     if( ch == ws[i] ) return 1;
  43              		.loc 1 43 0 discriminator 2
  44 000c 0133     		adds	r3, r3, #1
  45              	.LVL2:
  46              	.L2:
  43:c_string.c    ****     if( ch == ws[i] ) return 1;
  47              		.loc 1 43 0 is_stmt 0 discriminator 1
  48 000e 062B     		cmp	r3, #6
  49 0010 F8D9     		bls	.L4
  45:c_string.c    ****   }
  46:c_string.c    ****   return 0;
  50              		.loc 1 46 0 is_stmt 1
  51 0012 0020     		movs	r0, #0
  52              	.LVL3:
  53 0014 7047     		bx	lr
  54              	.LVL4:
  55              	.L5:
  44:c_string.c    ****   }
  56              		.loc 1 44 0
  57 0016 0120     		movs	r0, #1
  58              	.LVL5:
  47:c_string.c    **** }
  59              		.loc 1 47 0
  60 0018 7047     		bx	lr
  61              	.L7:
  62 001a 00BF     		.align	2
  63              	.L6:
  64 001c 00000000 		.word	.LANCHOR0
ARM GAS  C:\Users\164\AppData\Local\Temp\cc3ssgoH.s 			page 3


  65              		.cfi_endproc
  66              	.LFE86:
  67              		.size	is_space, .-is_space
  68              		.section	.text.tr_find_character,"ax",%progbits
  69              		.align	2
  70              		.thumb
  71              		.thumb_func
  72              		.type	tr_find_character, %function
  73              	tr_find_character:
  74              	.LFB125:
  48:c_string.c    **** 
  49:c_string.c    **** 
  50:c_string.c    **** //================================================================
  51:c_string.c    **** /*! constructor
  52:c_string.c    **** 
  53:c_string.c    ****   @param  vm	pointer to VM.
  54:c_string.c    ****   @param  src	source string or NULL
  55:c_string.c    ****   @param  len	source length
  56:c_string.c    ****   @return 	string object
  57:c_string.c    **** */
  58:c_string.c    **** mrbc_value mrbc_string_new(struct VM *vm, const void *src, int len)
  59:c_string.c    **** {
  60:c_string.c    ****   mrbc_value value = {.tt = MRBC_TT_STRING};
  61:c_string.c    **** 
  62:c_string.c    ****   /*
  63:c_string.c    ****     Allocate handle and string buffer.
  64:c_string.c    ****   */
  65:c_string.c    ****   mrbc_string *h;
  66:c_string.c    ****   h = (mrbc_string *)mrbc_alloc(vm, sizeof(mrbc_string));
  67:c_string.c    ****   if( !h ) return value;		// ENOMEM
  68:c_string.c    **** 
  69:c_string.c    ****   uint8_t *str = mrbc_alloc(vm, len+1);
  70:c_string.c    ****   if( !str ) {				// ENOMEM
  71:c_string.c    ****     mrbc_raw_free( h );
  72:c_string.c    ****     return value;
  73:c_string.c    ****   }
  74:c_string.c    **** 
  75:c_string.c    ****   h->ref_count = 1;
  76:c_string.c    ****   h->tt = MRBC_TT_STRING;	// TODO: for DEBUG
  77:c_string.c    ****   h->size = len;
  78:c_string.c    ****   h->data = str;
  79:c_string.c    **** 
  80:c_string.c    ****   /*
  81:c_string.c    ****     Copy a source string.
  82:c_string.c    ****   */
  83:c_string.c    ****   if( src == NULL ) {
  84:c_string.c    ****     str[0] = '\0';
  85:c_string.c    ****   } else {
  86:c_string.c    ****     memcpy( str, src, len );
  87:c_string.c    ****     str[len] = '\0';
  88:c_string.c    ****   }
  89:c_string.c    **** 
  90:c_string.c    ****   value.string = h;
  91:c_string.c    ****   return value;
  92:c_string.c    **** }
  93:c_string.c    **** 
  94:c_string.c    **** 
ARM GAS  C:\Users\164\AppData\Local\Temp\cc3ssgoH.s 			page 4


  95:c_string.c    **** //================================================================
  96:c_string.c    **** /*! constructor by c string
  97:c_string.c    **** 
  98:c_string.c    ****   @param  vm	pointer to VM.
  99:c_string.c    ****   @param  src	source string or NULL
 100:c_string.c    ****   @return 	string object
 101:c_string.c    **** */
 102:c_string.c    **** mrbc_value mrbc_string_new_cstr(struct VM *vm, const char *src)
 103:c_string.c    **** {
 104:c_string.c    ****   return mrbc_string_new(vm, src, (src ? strlen(src) : 0));
 105:c_string.c    **** }
 106:c_string.c    **** 
 107:c_string.c    **** 
 108:c_string.c    **** //================================================================
 109:c_string.c    **** /*! constructor by allocated buffer
 110:c_string.c    **** 
 111:c_string.c    ****   @param  vm	pointer to VM.
 112:c_string.c    ****   @param  buf	pointer to allocated buffer
 113:c_string.c    ****   @param  len	length
 114:c_string.c    ****   @return 	string object
 115:c_string.c    **** */
 116:c_string.c    **** mrbc_value mrbc_string_new_alloc(struct VM *vm, void *buf, int len)
 117:c_string.c    **** {
 118:c_string.c    ****   mrbc_value value = {.tt = MRBC_TT_STRING};
 119:c_string.c    **** 
 120:c_string.c    ****   /*
 121:c_string.c    ****     Allocate handle
 122:c_string.c    ****   */
 123:c_string.c    ****   mrbc_string *h;
 124:c_string.c    ****   h = (mrbc_string *)mrbc_alloc(vm, sizeof(mrbc_string));
 125:c_string.c    ****   if( !h ) return value;		// ENOMEM
 126:c_string.c    **** 
 127:c_string.c    ****   h->ref_count = 1;
 128:c_string.c    ****   h->tt = MRBC_TT_STRING;	// TODO: for DEBUG
 129:c_string.c    ****   h->size = len;
 130:c_string.c    ****   h->data = buf;
 131:c_string.c    **** 
 132:c_string.c    ****   value.string = h;
 133:c_string.c    ****   return value;
 134:c_string.c    **** }
 135:c_string.c    **** 
 136:c_string.c    **** 
 137:c_string.c    **** //================================================================
 138:c_string.c    **** /*! destructor
 139:c_string.c    **** 
 140:c_string.c    ****   @param  str	pointer to target value
 141:c_string.c    **** */
 142:c_string.c    **** void mrbc_string_delete(mrbc_value *str)
 143:c_string.c    **** {
 144:c_string.c    ****   mrbc_raw_free(str->string->data);
 145:c_string.c    ****   mrbc_raw_free(str->string);
 146:c_string.c    **** }
 147:c_string.c    **** 
 148:c_string.c    **** 
 149:c_string.c    **** 
 150:c_string.c    **** //================================================================
 151:c_string.c    **** /*! clear vm_id
ARM GAS  C:\Users\164\AppData\Local\Temp\cc3ssgoH.s 			page 5


 152:c_string.c    **** */
 153:c_string.c    **** void mrbc_string_clear_vm_id(mrbc_value *str)
 154:c_string.c    **** {
 155:c_string.c    ****   mrbc_set_vm_id( str->string, 0 );
 156:c_string.c    ****   mrbc_set_vm_id( str->string->data, 0 );
 157:c_string.c    **** }
 158:c_string.c    **** 
 159:c_string.c    **** 
 160:c_string.c    **** //================================================================
 161:c_string.c    **** /*! duplicate string
 162:c_string.c    **** 
 163:c_string.c    ****   @param  vm	pointer to VM.
 164:c_string.c    ****   @param  s1	pointer to target value 1
 165:c_string.c    ****   @param  s2	pointer to target value 2
 166:c_string.c    ****   @return	new string as s1 + s2
 167:c_string.c    **** */
 168:c_string.c    **** mrbc_value mrbc_string_dup(struct VM *vm, mrbc_value *s1)
 169:c_string.c    **** {
 170:c_string.c    ****   mrbc_string *h1 = s1->string;
 171:c_string.c    **** 
 172:c_string.c    ****   mrbc_value value = mrbc_string_new(vm, NULL, h1->size);
 173:c_string.c    ****   if( value.string == NULL ) return value;		// ENOMEM
 174:c_string.c    **** 
 175:c_string.c    ****   memcpy( value.string->data, h1->data, h1->size + 1 );
 176:c_string.c    **** 
 177:c_string.c    ****   return value;
 178:c_string.c    **** }
 179:c_string.c    **** 
 180:c_string.c    **** 
 181:c_string.c    **** //================================================================
 182:c_string.c    **** /*! add string (s1 + s2)
 183:c_string.c    **** 
 184:c_string.c    ****   @param  vm	pointer to VM.
 185:c_string.c    ****   @param  s1	pointer to target value 1
 186:c_string.c    ****   @param  s2	pointer to target value 2
 187:c_string.c    ****   @return	new string as s1 + s2
 188:c_string.c    **** */
 189:c_string.c    **** mrbc_value mrbc_string_add(struct VM *vm, const mrbc_value *s1, const mrbc_value *s2)
 190:c_string.c    **** {
 191:c_string.c    ****   mrbc_string *h1 = s1->string;
 192:c_string.c    ****   mrbc_string *h2 = s2->string;
 193:c_string.c    **** 
 194:c_string.c    ****   mrbc_value value = mrbc_string_new(vm, NULL, h1->size + h2->size);
 195:c_string.c    ****   if( value.string == NULL ) return value;		// ENOMEM
 196:c_string.c    **** 
 197:c_string.c    ****   memcpy( value.string->data,            h1->data, h1->size );
 198:c_string.c    ****   memcpy( value.string->data + h1->size, h2->data, h2->size + 1 );
 199:c_string.c    **** 
 200:c_string.c    ****   return value;
 201:c_string.c    **** }
 202:c_string.c    **** 
 203:c_string.c    **** 
 204:c_string.c    **** //================================================================
 205:c_string.c    **** /*! append string (s1 += s2)
 206:c_string.c    **** 
 207:c_string.c    ****   @param  s1	pointer to target value 1
 208:c_string.c    ****   @param  s2	pointer to target value 2
ARM GAS  C:\Users\164\AppData\Local\Temp\cc3ssgoH.s 			page 6


 209:c_string.c    ****   @param	mrbc_error_code
 210:c_string.c    **** */
 211:c_string.c    **** int mrbc_string_append(mrbc_value *s1, const mrbc_value *s2)
 212:c_string.c    **** {
 213:c_string.c    ****   int len1 = s1->string->size;
 214:c_string.c    ****   int len2 = (s2->tt == MRBC_TT_STRING) ? s2->string->size : 1;
 215:c_string.c    **** 
 216:c_string.c    ****   uint8_t *str = mrbc_raw_realloc(s1->string->data, len1+len2+1);
 217:c_string.c    ****   if( !str ) return E_NOMEMORY_ERROR;
 218:c_string.c    **** 
 219:c_string.c    ****   if( s2->tt == MRBC_TT_STRING ) {
 220:c_string.c    ****     memcpy(str + len1, s2->string->data, len2 + 1);
 221:c_string.c    ****   } else if( s2->tt == MRBC_TT_FIXNUM ) {
 222:c_string.c    ****     str[len1] = s2->i;
 223:c_string.c    ****     str[len1+1] = '\0';
 224:c_string.c    ****   }
 225:c_string.c    **** 
 226:c_string.c    ****   s1->string->size = len1 + len2;
 227:c_string.c    ****   s1->string->data = str;
 228:c_string.c    **** 
 229:c_string.c    ****   return 0;
 230:c_string.c    **** }
 231:c_string.c    **** 
 232:c_string.c    **** 
 233:c_string.c    **** //================================================================
 234:c_string.c    **** /*! append c string (s1 += s2)
 235:c_string.c    **** 
 236:c_string.c    ****   @param  s1	pointer to target value 1
 237:c_string.c    ****   @param  s2	pointer to char (c_str)
 238:c_string.c    ****   @param	mrbc_error_code
 239:c_string.c    **** */
 240:c_string.c    **** int mrbc_string_append_cstr(mrbc_value *s1, const char *s2)
 241:c_string.c    **** {
 242:c_string.c    ****   int len1 = s1->string->size;
 243:c_string.c    ****   int len2 = strlen(s2);
 244:c_string.c    **** 
 245:c_string.c    ****   uint8_t *str = mrbc_raw_realloc(s1->string->data, len1+len2+1);
 246:c_string.c    ****   if( !str ) return E_NOMEMORY_ERROR;
 247:c_string.c    **** 
 248:c_string.c    ****   memcpy(str + len1, s2, len2 + 1);
 249:c_string.c    **** 
 250:c_string.c    ****   s1->string->size = len1 + len2;
 251:c_string.c    ****   s1->string->data = str;
 252:c_string.c    **** 
 253:c_string.c    ****   return 0;
 254:c_string.c    **** }
 255:c_string.c    **** 
 256:c_string.c    **** 
 257:c_string.c    **** //================================================================
 258:c_string.c    **** /*! locate a substring in a string
 259:c_string.c    **** 
 260:c_string.c    ****   @param  src		pointer to target string
 261:c_string.c    ****   @param  pattern	pointer to substring
 262:c_string.c    ****   @param  offset	search offset
 263:c_string.c    ****   @return		position index. or minus value if not found.
 264:c_string.c    **** */
 265:c_string.c    **** int mrbc_string_index(const mrbc_value *src, const mrbc_value *pattern, int offset)
ARM GAS  C:\Users\164\AppData\Local\Temp\cc3ssgoH.s 			page 7


 266:c_string.c    **** {
 267:c_string.c    ****   char *p1 = mrbc_string_cstr(src) + offset;
 268:c_string.c    ****   char *p2 = mrbc_string_cstr(pattern);
 269:c_string.c    ****   int try_cnt = mrbc_string_size(src) - mrbc_string_size(pattern) - offset;
 270:c_string.c    **** 
 271:c_string.c    ****   while( try_cnt >= 0 ) {
 272:c_string.c    ****     if( memcmp( p1, p2, mrbc_string_size(pattern) ) == 0 ) {
 273:c_string.c    ****       return p1 - mrbc_string_cstr(src);	// matched.
 274:c_string.c    ****     }
 275:c_string.c    ****     try_cnt--;
 276:c_string.c    ****     p1++;
 277:c_string.c    ****   }
 278:c_string.c    **** 
 279:c_string.c    ****   return -1;
 280:c_string.c    **** }
 281:c_string.c    **** 
 282:c_string.c    **** 
 283:c_string.c    **** //================================================================
 284:c_string.c    **** /*! remove the whitespace in myself
 285:c_string.c    **** 
 286:c_string.c    ****   @param  src	pointer to target value
 287:c_string.c    ****   @param  mode	1:left-side, 2:right-side, 3:each
 288:c_string.c    ****   @return	0 when not removed.
 289:c_string.c    **** */
 290:c_string.c    **** int mrbc_string_strip(mrbc_value *src, int mode)
 291:c_string.c    **** {
 292:c_string.c    ****   char *p1 = mrbc_string_cstr(src);
 293:c_string.c    ****   char *p2 = p1 + mrbc_string_size(src) - 1;
 294:c_string.c    **** 
 295:c_string.c    ****   // left-side
 296:c_string.c    ****   if( mode & 0x01 ) {
 297:c_string.c    ****     while( p1 <= p2 ) {
 298:c_string.c    ****       if( *p1 == '\0' ) break;
 299:c_string.c    ****       if( !is_space(*p1) ) break;
 300:c_string.c    ****       p1++;
 301:c_string.c    ****     }
 302:c_string.c    ****   }
 303:c_string.c    ****   // right-side
 304:c_string.c    ****   if( mode & 0x02 ) {
 305:c_string.c    ****     while( p1 <= p2 ) {
 306:c_string.c    ****       if( !is_space(*p2) ) break;
 307:c_string.c    ****       p2--;
 308:c_string.c    ****     }
 309:c_string.c    ****   }
 310:c_string.c    **** 
 311:c_string.c    ****   int new_size = p2 - p1 + 1;
 312:c_string.c    ****   if( mrbc_string_size(src) == new_size ) return 0;
 313:c_string.c    **** 
 314:c_string.c    ****   char *buf = mrbc_string_cstr(src);
 315:c_string.c    ****   if( p1 != buf ) memmove( buf, p1, new_size );
 316:c_string.c    ****   buf[new_size] = '\0';
 317:c_string.c    ****   mrbc_raw_realloc(buf, new_size+1);	// shrink suitable size.
 318:c_string.c    ****   src->string->size = new_size;
 319:c_string.c    **** 
 320:c_string.c    ****   return 1;
 321:c_string.c    **** }
 322:c_string.c    **** 
ARM GAS  C:\Users\164\AppData\Local\Temp\cc3ssgoH.s 			page 8


 323:c_string.c    **** 
 324:c_string.c    **** //================================================================
 325:c_string.c    **** /*! remove the CR,LF in myself
 326:c_string.c    **** 
 327:c_string.c    ****   @param  src	pointer to target value
 328:c_string.c    ****   @return	0 when not removed.
 329:c_string.c    **** */
 330:c_string.c    **** int mrbc_string_chomp(mrbc_value *src)
 331:c_string.c    **** {
 332:c_string.c    ****   char *p1 = mrbc_string_cstr(src);
 333:c_string.c    ****   char *p2 = p1 + mrbc_string_size(src) - 1;
 334:c_string.c    **** 
 335:c_string.c    ****   if( *p2 == '\n' ) {
 336:c_string.c    ****     p2--;
 337:c_string.c    ****   }
 338:c_string.c    ****   if( *p2 == '\r' ) {
 339:c_string.c    ****     p2--;
 340:c_string.c    ****   }
 341:c_string.c    **** 
 342:c_string.c    ****   int new_size = p2 - p1 + 1;
 343:c_string.c    ****   if( mrbc_string_size(src) == new_size ) return 0;
 344:c_string.c    **** 
 345:c_string.c    ****   char *buf = mrbc_string_cstr(src);
 346:c_string.c    ****   buf[new_size] = '\0';
 347:c_string.c    ****   src->string->size = new_size;
 348:c_string.c    **** 
 349:c_string.c    ****   return 1;
 350:c_string.c    **** }
 351:c_string.c    **** 
 352:c_string.c    **** 
 353:c_string.c    **** 
 354:c_string.c    **** //================================================================
 355:c_string.c    **** /*! (method) +
 356:c_string.c    **** */
 357:c_string.c    **** static void c_string_add(struct VM *vm, mrbc_value v[], int argc)
 358:c_string.c    **** {
 359:c_string.c    ****   if( v[1].tt != MRBC_TT_STRING ) {
 360:c_string.c    ****     console_print( "Not support STRING + Other\n" );
 361:c_string.c    ****     return;
 362:c_string.c    ****   }
 363:c_string.c    **** 
 364:c_string.c    ****   mrbc_value value = mrbc_string_add(vm, &v[0], &v[1]);
 365:c_string.c    ****   SET_RETURN(value);
 366:c_string.c    **** }
 367:c_string.c    **** 
 368:c_string.c    **** 
 369:c_string.c    **** 
 370:c_string.c    **** //================================================================
 371:c_string.c    **** /*! (method) *
 372:c_string.c    **** */
 373:c_string.c    **** static void c_string_mul(struct VM *vm, mrbc_value v[], int argc)
 374:c_string.c    **** {
 375:c_string.c    ****   if( v[1].tt != MRBC_TT_FIXNUM ) {
 376:c_string.c    ****     console_print( "TypeError\n" );	// raise?
 377:c_string.c    ****     return;
 378:c_string.c    ****   }
 379:c_string.c    **** 
ARM GAS  C:\Users\164\AppData\Local\Temp\cc3ssgoH.s 			page 9


 380:c_string.c    ****   if( v[1].i < 0 ) {
 381:c_string.c    ****     console_printf( "ArgumentError\n" );	// raise?
 382:c_string.c    ****     return;
 383:c_string.c    ****   }
 384:c_string.c    **** 
 385:c_string.c    ****   mrbc_value value = mrbc_string_new(vm, NULL,
 386:c_string.c    **** 				    mrbc_string_size(&v[0]) * v[1].i);
 387:c_string.c    ****   if( value.string == NULL ) return;		// ENOMEM
 388:c_string.c    **** 
 389:c_string.c    ****   uint8_t *p = value.string->data;
 390:c_string.c    ****   int i;
 391:c_string.c    ****   for( i = 0; i < v[1].i; i++ ) {
 392:c_string.c    ****     memcpy( p, mrbc_string_cstr(&v[0]), mrbc_string_size(&v[0]) );
 393:c_string.c    ****     p += mrbc_string_size(&v[0]);
 394:c_string.c    ****   }
 395:c_string.c    ****   *p = 0;
 396:c_string.c    **** 
 397:c_string.c    ****   SET_RETURN(value);
 398:c_string.c    **** }
 399:c_string.c    **** 
 400:c_string.c    **** 
 401:c_string.c    **** 
 402:c_string.c    **** //================================================================
 403:c_string.c    **** /*! (method) size, length
 404:c_string.c    **** */
 405:c_string.c    **** static void c_string_size(struct VM *vm, mrbc_value v[], int argc)
 406:c_string.c    **** {
 407:c_string.c    ****   mrbc_int size = mrbc_string_size(&v[0]);
 408:c_string.c    **** 
 409:c_string.c    ****   SET_INT_RETURN( size );
 410:c_string.c    **** }
 411:c_string.c    **** 
 412:c_string.c    **** 
 413:c_string.c    **** 
 414:c_string.c    **** //================================================================
 415:c_string.c    **** /*! (method) to_i
 416:c_string.c    **** */
 417:c_string.c    **** static void c_string_to_i(struct VM *vm, mrbc_value v[], int argc)
 418:c_string.c    **** {
 419:c_string.c    ****   int base = 10;
 420:c_string.c    ****   if( argc ) {
 421:c_string.c    ****     base = v[1].i;
 422:c_string.c    ****     if( base < 2 || base > 36 ) {
 423:c_string.c    ****       return;	// raise ? ArgumentError
 424:c_string.c    ****     }
 425:c_string.c    ****   }
 426:c_string.c    **** 
 427:c_string.c    ****   mrbc_int i = mrbc_atoi( mrbc_string_cstr(v), base );
 428:c_string.c    **** 
 429:c_string.c    ****   SET_INT_RETURN( i );
 430:c_string.c    **** }
 431:c_string.c    **** 
 432:c_string.c    **** 
 433:c_string.c    **** #if MRBC_USE_FLOAT
 434:c_string.c    **** //================================================================
 435:c_string.c    **** /*! (method) to_f
 436:c_string.c    **** */
ARM GAS  C:\Users\164\AppData\Local\Temp\cc3ssgoH.s 			page 10


 437:c_string.c    **** static void c_string_to_f(struct VM *vm, mrbc_value v[], int argc)
 438:c_string.c    **** {
 439:c_string.c    ****   mrbc_float d = atof(mrbc_string_cstr(v));
 440:c_string.c    **** 
 441:c_string.c    ****   SET_FLOAT_RETURN( d );
 442:c_string.c    **** }
 443:c_string.c    **** #endif
 444:c_string.c    **** 
 445:c_string.c    **** 
 446:c_string.c    **** //================================================================
 447:c_string.c    **** /*! (method) <<
 448:c_string.c    **** */
 449:c_string.c    **** static void c_string_append(struct VM *vm, mrbc_value v[], int argc)
 450:c_string.c    **** {
 451:c_string.c    ****   if( !mrbc_string_append( &v[0], &v[1] ) ) {
 452:c_string.c    ****     // raise ? ENOMEM
 453:c_string.c    ****   }
 454:c_string.c    **** }
 455:c_string.c    **** 
 456:c_string.c    **** 
 457:c_string.c    **** //================================================================
 458:c_string.c    **** /*! (method) []
 459:c_string.c    **** */
 460:c_string.c    **** static void c_string_slice(struct VM *vm, mrbc_value v[], int argc)
 461:c_string.c    **** {
 462:c_string.c    ****   mrbc_value *v1 = &v[1];
 463:c_string.c    ****   mrbc_value *v2 = &v[2];
 464:c_string.c    **** 
 465:c_string.c    ****   /*
 466:c_string.c    ****     in case of slice(nth) -> String | nil
 467:c_string.c    ****   */
 468:c_string.c    ****   if( argc == 1 && v1->tt == MRBC_TT_FIXNUM ) {
 469:c_string.c    ****     int len = v->string->size;
 470:c_string.c    ****     int idx = v1->i;
 471:c_string.c    ****     int ch = -1;
 472:c_string.c    ****     if( idx >= 0 ) {
 473:c_string.c    ****       if( idx < len ) {
 474:c_string.c    ****         ch = *(v->string->data + idx);
 475:c_string.c    ****       }
 476:c_string.c    ****     } else {
 477:c_string.c    ****       idx += len;
 478:c_string.c    ****       if( idx >= 0 ) {
 479:c_string.c    ****         ch = *(v->string->data + idx);
 480:c_string.c    ****       }
 481:c_string.c    ****     }
 482:c_string.c    ****     if( ch < 0 ) goto RETURN_NIL;
 483:c_string.c    **** 
 484:c_string.c    ****     mrbc_value value = mrbc_string_new(vm, NULL, 1);
 485:c_string.c    ****     if( !value.string ) goto RETURN_NIL;		// ENOMEM
 486:c_string.c    **** 
 487:c_string.c    ****     value.string->data[0] = ch;
 488:c_string.c    ****     value.string->data[1] = '\0';
 489:c_string.c    ****     SET_RETURN(value);
 490:c_string.c    ****     return;		// normal return
 491:c_string.c    ****   }
 492:c_string.c    **** 
 493:c_string.c    ****   /*
ARM GAS  C:\Users\164\AppData\Local\Temp\cc3ssgoH.s 			page 11


 494:c_string.c    ****     in case of slice(nth, len) -> String | nil
 495:c_string.c    ****   */
 496:c_string.c    ****   if( argc == 2 && v1->tt == MRBC_TT_FIXNUM && v2->tt == MRBC_TT_FIXNUM ) {
 497:c_string.c    ****     int len = v->string->size;
 498:c_string.c    ****     int idx = v1->i;
 499:c_string.c    ****     if( idx < 0 ) idx += len;
 500:c_string.c    ****     if( idx < 0 ) goto RETURN_NIL;
 501:c_string.c    **** 
 502:c_string.c    ****     int rlen = (v2->i < (len - idx)) ? v2->i : (len - idx);
 503:c_string.c    **** 						// min( v2->i, (len-idx) )
 504:c_string.c    ****     if( rlen < 0 ) goto RETURN_NIL;
 505:c_string.c    **** 
 506:c_string.c    ****     mrbc_value value = mrbc_string_new(vm, v->string->data + idx, rlen);
 507:c_string.c    ****     if( !value.string ) goto RETURN_NIL;		// ENOMEM
 508:c_string.c    **** 
 509:c_string.c    ****     SET_RETURN(value);
 510:c_string.c    ****     return;		// normal return
 511:c_string.c    ****   }
 512:c_string.c    **** 
 513:c_string.c    ****   /*
 514:c_string.c    ****     other case
 515:c_string.c    ****   */
 516:c_string.c    ****   console_print( "Not support such case in String#[].\n" );
 517:c_string.c    ****   return;
 518:c_string.c    **** 
 519:c_string.c    **** 
 520:c_string.c    ****  RETURN_NIL:
 521:c_string.c    ****   SET_NIL_RETURN();
 522:c_string.c    **** }
 523:c_string.c    **** 
 524:c_string.c    **** 
 525:c_string.c    **** //================================================================
 526:c_string.c    **** /*! (method) []=
 527:c_string.c    **** */
 528:c_string.c    **** static void c_string_insert(struct VM *vm, mrbc_value v[], int argc)
 529:c_string.c    **** {
 530:c_string.c    ****   int nth;
 531:c_string.c    ****   int len;
 532:c_string.c    ****   mrbc_value *val;
 533:c_string.c    **** 
 534:c_string.c    ****   /*
 535:c_string.c    ****     in case of self[nth] = val
 536:c_string.c    ****   */
 537:c_string.c    ****   if( argc == 2 &&
 538:c_string.c    ****       v[1].tt == MRBC_TT_FIXNUM &&
 539:c_string.c    ****       v[2].tt == MRBC_TT_STRING ) {
 540:c_string.c    ****     nth = v[1].i;
 541:c_string.c    ****     len = 1;
 542:c_string.c    ****     val = &v[2];
 543:c_string.c    ****   }
 544:c_string.c    ****   /*
 545:c_string.c    ****     in case of self[nth, len] = val
 546:c_string.c    ****   */
 547:c_string.c    ****   else if( argc == 3 &&
 548:c_string.c    **** 	   v[1].tt == MRBC_TT_FIXNUM &&
 549:c_string.c    **** 	   v[2].tt == MRBC_TT_FIXNUM &&
 550:c_string.c    **** 	   v[3].tt == MRBC_TT_STRING ) {
ARM GAS  C:\Users\164\AppData\Local\Temp\cc3ssgoH.s 			page 12


 551:c_string.c    ****     nth = v[1].i;
 552:c_string.c    ****     len = v[2].i;
 553:c_string.c    ****     val = &v[3];
 554:c_string.c    ****   }
 555:c_string.c    ****   /*
 556:c_string.c    ****     other cases
 557:c_string.c    ****   */
 558:c_string.c    ****   else {
 559:c_string.c    ****     console_print( "Not support\n" );
 560:c_string.c    ****     return;
 561:c_string.c    ****   }
 562:c_string.c    **** 
 563:c_string.c    ****   int len1 = v->string->size;
 564:c_string.c    ****   int len2 = val->string->size;
 565:c_string.c    ****   if( nth < 0 ) nth = len1 + nth;               // adjust to positive number.
 566:c_string.c    ****   if( len > len1 - nth ) len = len1 - nth;
 567:c_string.c    ****   if( nth < 0 || nth > len1 || len < 0) {
 568:c_string.c    ****     console_print( "IndexError\n" );  // raise?
 569:c_string.c    ****     return;
 570:c_string.c    ****   }
 571:c_string.c    **** 
 572:c_string.c    ****   uint8_t *str = mrbc_realloc(vm, mrbc_string_cstr(v), len1 + len2 - len + 1);
 573:c_string.c    ****   if( !str ) return;
 574:c_string.c    **** 
 575:c_string.c    ****   memmove( str + nth + len2, str + nth + len, len1 - nth - len + 1 );
 576:c_string.c    ****   memcpy( str + nth, mrbc_string_cstr(val), len2 );
 577:c_string.c    ****   v->string->size = len1 + len2 - len;
 578:c_string.c    **** 
 579:c_string.c    ****   v->string->data = str;
 580:c_string.c    **** }
 581:c_string.c    **** 
 582:c_string.c    **** 
 583:c_string.c    **** //================================================================
 584:c_string.c    **** /*! (method) chomp
 585:c_string.c    **** */
 586:c_string.c    **** static void c_string_chomp(struct VM *vm, mrbc_value v[], int argc)
 587:c_string.c    **** {
 588:c_string.c    ****   mrbc_value ret = mrbc_string_dup(vm, &v[0]);
 589:c_string.c    **** 
 590:c_string.c    ****   mrbc_string_chomp(&ret);
 591:c_string.c    **** 
 592:c_string.c    ****   SET_RETURN(ret);
 593:c_string.c    **** }
 594:c_string.c    **** 
 595:c_string.c    **** 
 596:c_string.c    **** //================================================================
 597:c_string.c    **** /*! (method) chomp!
 598:c_string.c    **** */
 599:c_string.c    **** static void c_string_chomp_self(struct VM *vm, mrbc_value v[], int argc)
 600:c_string.c    **** {
 601:c_string.c    ****   if( mrbc_string_chomp(&v[0]) == 0 ) {
 602:c_string.c    ****     SET_RETURN( mrbc_nil_value() );
 603:c_string.c    ****   }
 604:c_string.c    **** }
 605:c_string.c    **** 
 606:c_string.c    **** 
 607:c_string.c    **** //================================================================
ARM GAS  C:\Users\164\AppData\Local\Temp\cc3ssgoH.s 			page 13


 608:c_string.c    **** /*! (method) dup
 609:c_string.c    **** */
 610:c_string.c    **** static void c_string_dup(struct VM *vm, mrbc_value v[], int argc)
 611:c_string.c    **** {
 612:c_string.c    ****   mrbc_value ret = mrbc_string_dup(vm, &v[0]);
 613:c_string.c    **** 
 614:c_string.c    ****   SET_RETURN(ret);
 615:c_string.c    **** }
 616:c_string.c    **** 
 617:c_string.c    **** 
 618:c_string.c    **** //================================================================
 619:c_string.c    **** /*! (method) index
 620:c_string.c    **** */
 621:c_string.c    **** static void c_string_index(struct VM *vm, mrbc_value v[], int argc)
 622:c_string.c    **** {
 623:c_string.c    ****   int index;
 624:c_string.c    ****   int offset;
 625:c_string.c    **** 
 626:c_string.c    ****   if( argc == 1 ) {
 627:c_string.c    ****     offset = 0;
 628:c_string.c    **** 
 629:c_string.c    ****   } else if( argc == 2 && v[2].tt == MRBC_TT_FIXNUM ) {
 630:c_string.c    ****     offset = v[2].i;
 631:c_string.c    ****     if( offset < 0 ) offset += mrbc_string_size(&v[0]);
 632:c_string.c    ****     if( offset < 0 ) goto NIL_RETURN;
 633:c_string.c    **** 
 634:c_string.c    ****   } else {
 635:c_string.c    ****     goto NIL_RETURN;	// raise? ArgumentError
 636:c_string.c    ****   }
 637:c_string.c    **** 
 638:c_string.c    ****   index = mrbc_string_index(&v[0], &v[1], offset);
 639:c_string.c    ****   if( index < 0 ) goto NIL_RETURN;
 640:c_string.c    **** 
 641:c_string.c    ****   SET_INT_RETURN(index);
 642:c_string.c    ****   return;
 643:c_string.c    **** 
 644:c_string.c    ****  NIL_RETURN:
 645:c_string.c    ****   SET_NIL_RETURN();
 646:c_string.c    **** }
 647:c_string.c    **** 
 648:c_string.c    **** 
 649:c_string.c    **** //================================================================
 650:c_string.c    **** /*! (method) inspect
 651:c_string.c    **** */
 652:c_string.c    **** static void c_string_inspect(struct VM *vm, mrbc_value v[], int argc)
 653:c_string.c    **** {
 654:c_string.c    ****   char buf[10] = "\\x";
 655:c_string.c    ****   mrbc_value ret = mrbc_string_new_cstr(vm, "\"");
 656:c_string.c    ****   const unsigned char *s = (const unsigned char *)mrbc_string_cstr(v);
 657:c_string.c    ****   int i;
 658:c_string.c    ****   for( i = 0; i < mrbc_string_size(v); i++ ) {
 659:c_string.c    ****     if( s[i] < ' ' || 0x7f <= s[i] ) {	// tiny isprint()
 660:c_string.c    ****       buf[2] = "0123456789ABCDEF"[s[i] >> 4];
 661:c_string.c    ****       buf[3] = "0123456789ABCDEF"[s[i] & 0x0f];
 662:c_string.c    ****       mrbc_string_append_cstr(&ret, buf);
 663:c_string.c    ****     } else {
 664:c_string.c    ****       buf[3] = s[i];
ARM GAS  C:\Users\164\AppData\Local\Temp\cc3ssgoH.s 			page 14


 665:c_string.c    ****       mrbc_string_append_cstr(&ret, buf+3);
 666:c_string.c    ****     }
 667:c_string.c    ****   }
 668:c_string.c    ****   mrbc_string_append_cstr(&ret, "\"");
 669:c_string.c    **** 
 670:c_string.c    ****   SET_RETURN( ret );
 671:c_string.c    **** }
 672:c_string.c    **** 
 673:c_string.c    **** 
 674:c_string.c    **** //================================================================
 675:c_string.c    **** /*! (method) ord
 676:c_string.c    **** */
 677:c_string.c    **** static void c_string_ord(struct VM *vm, mrbc_value v[], int argc)
 678:c_string.c    **** {
 679:c_string.c    ****   int i = mrbc_string_cstr(v)[0];
 680:c_string.c    **** 
 681:c_string.c    ****   SET_INT_RETURN( i );
 682:c_string.c    **** }
 683:c_string.c    **** 
 684:c_string.c    **** 
 685:c_string.c    **** //================================================================
 686:c_string.c    **** /*! (method) split
 687:c_string.c    **** */
 688:c_string.c    **** static void c_string_split(struct VM *vm, mrbc_value v[], int argc)
 689:c_string.c    **** {
 690:c_string.c    ****   mrbc_value ret = mrbc_array_new(vm, 0);
 691:c_string.c    ****   if( mrbc_string_size(&v[0]) == 0 ) goto DONE;
 692:c_string.c    **** 
 693:c_string.c    ****   // check limit parameter.
 694:c_string.c    ****   int limit = 0;
 695:c_string.c    ****   if( argc >= 2 ) {
 696:c_string.c    ****     if( v[2].tt != MRBC_TT_FIXNUM ) {
 697:c_string.c    ****       console_print( "TypeError\n" );     // raise?
 698:c_string.c    ****       return;
 699:c_string.c    ****     }
 700:c_string.c    ****     limit = v[2].i;
 701:c_string.c    ****     if( limit == 1 ) {
 702:c_string.c    ****       mrbc_array_push( &ret, &v[0] );
 703:c_string.c    ****       mrbc_dup( &v[0] );
 704:c_string.c    ****       goto DONE;
 705:c_string.c    ****     }
 706:c_string.c    ****   }
 707:c_string.c    **** 
 708:c_string.c    ****   // check separator parameter.
 709:c_string.c    ****   mrb_value sep = (argc == 0) ? mrbc_string_new_cstr(vm, " ") : v[1];
 710:c_string.c    ****   switch( sep.tt ) {
 711:c_string.c    ****   case MRBC_TT_NIL:
 712:c_string.c    ****     sep = mrbc_string_new_cstr(vm, " ");
 713:c_string.c    ****     break;
 714:c_string.c    **** 
 715:c_string.c    ****   case MRBC_TT_STRING:
 716:c_string.c    ****     break;
 717:c_string.c    **** 
 718:c_string.c    ****   default:
 719:c_string.c    ****     console_print( "TypeError\n" );     // raise?
 720:c_string.c    ****     return;
 721:c_string.c    ****   }
ARM GAS  C:\Users\164\AppData\Local\Temp\cc3ssgoH.s 			page 15


 722:c_string.c    **** 
 723:c_string.c    ****   int flag_strip = (mrbc_string_cstr(&sep)[0] == ' ') &&
 724:c_string.c    **** 		   (mrbc_string_size(&sep) == 1);
 725:c_string.c    ****   int offset = 0;
 726:c_string.c    ****   int sep_len = mrbc_string_size(&sep);
 727:c_string.c    ****   if( sep_len == 0 ) sep_len++;
 728:c_string.c    **** 
 729:c_string.c    ****   while( 1 ) {
 730:c_string.c    ****     int pos, len;
 731:c_string.c    **** 
 732:c_string.c    ****     if( flag_strip ) {
 733:c_string.c    ****       for( ; offset < mrbc_string_size(&v[0]); offset++ ) {
 734:c_string.c    **** 	if( !is_space( mrbc_string_cstr(&v[0])[offset] )) break;
 735:c_string.c    ****       }
 736:c_string.c    ****       if( offset > mrbc_string_size(&v[0])) break;
 737:c_string.c    ****     }
 738:c_string.c    **** 
 739:c_string.c    ****     // check limit
 740:c_string.c    ****     if( limit > 0 && mrbc_array_size(&ret)+1 >= limit ) {
 741:c_string.c    ****       pos = -1;
 742:c_string.c    ****       goto SPLIT_ITEM;
 743:c_string.c    ****     }
 744:c_string.c    **** 
 745:c_string.c    ****     // split by space character.
 746:c_string.c    ****     if( flag_strip ) {
 747:c_string.c    ****       pos = offset;
 748:c_string.c    ****       for( ; pos < mrbc_string_size(&v[0]); pos++ ) {
 749:c_string.c    **** 	if( is_space( mrbc_string_cstr(&v[0])[pos] )) break;
 750:c_string.c    ****       }
 751:c_string.c    ****       len = pos - offset;
 752:c_string.c    ****       goto SPLIT_ITEM;
 753:c_string.c    ****     }
 754:c_string.c    **** 
 755:c_string.c    ****     // split by each character.
 756:c_string.c    ****     if( mrbc_string_size(&sep) == 0 ) {
 757:c_string.c    ****       pos = (offset < mrbc_string_size(&v[0])-1) ? offset : -1;
 758:c_string.c    ****       len = 1;
 759:c_string.c    ****       goto SPLIT_ITEM;
 760:c_string.c    ****     }
 761:c_string.c    **** 
 762:c_string.c    ****     // split by specified character.
 763:c_string.c    ****     pos = mrbc_string_index( &v[0], &sep, offset );
 764:c_string.c    ****     len = pos - offset;
 765:c_string.c    **** 
 766:c_string.c    **** 
 767:c_string.c    ****   SPLIT_ITEM:
 768:c_string.c    ****     if( pos < 0 ) len = mrbc_string_size(&v[0]) - offset;
 769:c_string.c    **** 
 770:c_string.c    ****     mrb_value v1 = mrbc_string_new(vm, mrbc_string_cstr(&v[0]) + offset, len);
 771:c_string.c    ****     mrbc_array_push( &ret, &v1 );
 772:c_string.c    **** 
 773:c_string.c    ****     if( pos < 0 ) break;
 774:c_string.c    ****     offset = pos + sep_len;
 775:c_string.c    ****   }
 776:c_string.c    **** 
 777:c_string.c    ****   // remove trailing empty item
 778:c_string.c    ****   if( limit == 0 ) {
ARM GAS  C:\Users\164\AppData\Local\Temp\cc3ssgoH.s 			page 16


 779:c_string.c    ****     while( 1 ) {
 780:c_string.c    ****       int idx = mrbc_array_size(&ret) - 1;
 781:c_string.c    ****       if( idx < 0 ) break;
 782:c_string.c    **** 
 783:c_string.c    ****       mrb_value v1 = mrbc_array_get( &ret, idx );
 784:c_string.c    ****       if( mrbc_string_size(&v1) != 0 ) break;
 785:c_string.c    **** 
 786:c_string.c    ****       mrbc_array_remove(&ret, idx);
 787:c_string.c    ****       mrbc_string_delete( &v1 );
 788:c_string.c    ****     }
 789:c_string.c    ****   }
 790:c_string.c    **** 
 791:c_string.c    ****   if( argc == 0 || v[1].tt == MRBC_TT_NIL ) {
 792:c_string.c    ****     mrbc_string_delete(&sep);
 793:c_string.c    ****   }
 794:c_string.c    **** 
 795:c_string.c    ****  DONE:
 796:c_string.c    ****   SET_RETURN( ret );
 797:c_string.c    **** }
 798:c_string.c    **** 
 799:c_string.c    **** 
 800:c_string.c    **** //================================================================
 801:c_string.c    **** /*! (method) sprintf
 802:c_string.c    **** */
 803:c_string.c    **** static void c_object_sprintf(struct VM *vm, mrbc_value v[], int argc)
 804:c_string.c    **** {
 805:c_string.c    ****   static const int BUF_INC_STEP = 32;	// bytes.
 806:c_string.c    **** 
 807:c_string.c    ****   mrbc_value *format = &v[1];
 808:c_string.c    ****   if( format->tt != MRBC_TT_STRING ) {
 809:c_string.c    ****     console_printf( "TypeError\n" );	// raise?
 810:c_string.c    ****     return;
 811:c_string.c    ****   }
 812:c_string.c    **** 
 813:c_string.c    ****   int buflen = BUF_INC_STEP;
 814:c_string.c    ****   char *buf = mrbc_alloc(vm, buflen);
 815:c_string.c    ****   if( !buf ) { return; }	// ENOMEM raise?
 816:c_string.c    **** 
 817:c_string.c    ****   mrbc_printf pf;
 818:c_string.c    ****   mrbc_printf_init( &pf, buf, buflen, mrbc_string_cstr(format) );
 819:c_string.c    **** 
 820:c_string.c    ****   int i = 2;
 821:c_string.c    ****   int ret;
 822:c_string.c    ****   while( 1 ) {
 823:c_string.c    ****     mrbc_printf pf_bak = pf;
 824:c_string.c    ****     ret = mrbc_printf_main( &pf );
 825:c_string.c    ****     if( ret == 0 ) break;	// normal break loop.
 826:c_string.c    ****     if( ret < 0 ) goto INCREASE_BUFFER;
 827:c_string.c    **** 
 828:c_string.c    ****     if( i > argc ) {console_print("ArgumentError\n"); break;}	// raise?
 829:c_string.c    **** 
 830:c_string.c    ****     // maybe ret == 1
 831:c_string.c    ****     switch(pf.fmt.type) {
 832:c_string.c    ****     case 'c':
 833:c_string.c    ****       if( v[i].tt == MRBC_TT_FIXNUM ) {
 834:c_string.c    **** 	ret = mrbc_printf_char( &pf, v[i].i );
 835:c_string.c    ****       }
ARM GAS  C:\Users\164\AppData\Local\Temp\cc3ssgoH.s 			page 17


 836:c_string.c    ****       break;
 837:c_string.c    **** 
 838:c_string.c    ****     case 's':
 839:c_string.c    ****       if( v[i].tt == MRBC_TT_STRING ) {
 840:c_string.c    **** 	ret = mrbc_printf_bstr( &pf, mrbc_string_cstr(&v[i]), mrbc_string_size(&v[i]),' ');
 841:c_string.c    ****       } else if( v[i].tt == MRBC_TT_SYMBOL ) {
 842:c_string.c    **** 	ret = mrbc_printf_str( &pf, mrbc_symbol_cstr( &v[i] ), ' ');
 843:c_string.c    ****       }
 844:c_string.c    ****       break;
 845:c_string.c    **** 
 846:c_string.c    ****     case 'd':
 847:c_string.c    ****     case 'i':
 848:c_string.c    ****     case 'u':
 849:c_string.c    ****       if( v[i].tt == MRBC_TT_FIXNUM ) {
 850:c_string.c    **** 	ret = mrbc_printf_int( &pf, v[i].i, 10);
 851:c_string.c    **** #if MRBC_USE_FLOAT
 852:c_string.c    ****       } else if( v[i].tt == MRBC_TT_FLOAT ) {
 853:c_string.c    **** 	ret = mrbc_printf_int( &pf, (mrbc_int)v[i].d, 10);
 854:c_string.c    **** #endif
 855:c_string.c    ****       } else if( v[i].tt == MRBC_TT_STRING ) {
 856:c_string.c    **** 	mrbc_int ival = atol(mrbc_string_cstr(&v[i]));
 857:c_string.c    **** 	ret = mrbc_printf_int( &pf, ival, 10 );
 858:c_string.c    ****       }
 859:c_string.c    ****       break;
 860:c_string.c    **** 
 861:c_string.c    ****     case 'b':
 862:c_string.c    ****     case 'B':
 863:c_string.c    ****       if( v[i].tt == MRBC_TT_FIXNUM ) {
 864:c_string.c    **** 	ret = mrbc_printf_int( &pf, v[i].i, 2);
 865:c_string.c    ****       }
 866:c_string.c    ****       break;
 867:c_string.c    **** 
 868:c_string.c    ****     case 'x':
 869:c_string.c    ****     case 'X':
 870:c_string.c    ****       if( v[i].tt == MRBC_TT_FIXNUM ) {
 871:c_string.c    **** 	ret = mrbc_printf_int( &pf, v[i].i, 16);
 872:c_string.c    ****       }
 873:c_string.c    ****       break;
 874:c_string.c    **** 
 875:c_string.c    **** #if MRBC_USE_FLOAT
 876:c_string.c    ****     case 'f':
 877:c_string.c    ****     case 'e':
 878:c_string.c    ****     case 'E':
 879:c_string.c    ****     case 'g':
 880:c_string.c    ****     case 'G':
 881:c_string.c    ****       if( v[i].tt == MRBC_TT_FLOAT ) {
 882:c_string.c    **** 	ret = mrbc_printf_float( &pf, v[i].d );
 883:c_string.c    ****       } else
 884:c_string.c    **** 	if( v[i].tt == MRBC_TT_FIXNUM ) {
 885:c_string.c    **** 	  ret = mrbc_printf_float( &pf, v[i].i );
 886:c_string.c    **** 	}
 887:c_string.c    ****       break;
 888:c_string.c    **** #endif
 889:c_string.c    **** 
 890:c_string.c    ****     default:
 891:c_string.c    ****       break;
 892:c_string.c    ****     }
ARM GAS  C:\Users\164\AppData\Local\Temp\cc3ssgoH.s 			page 18


 893:c_string.c    ****     if( ret >= 0 ) {
 894:c_string.c    ****       i++;
 895:c_string.c    ****       continue;		// normal next loop.
 896:c_string.c    ****     }
 897:c_string.c    **** 
 898:c_string.c    ****     // maybe buffer full. (ret == -1)
 899:c_string.c    ****     if( pf.fmt.width > BUF_INC_STEP ) buflen += pf.fmt.width;
 900:c_string.c    ****     pf = pf_bak;
 901:c_string.c    **** 
 902:c_string.c    ****   INCREASE_BUFFER:
 903:c_string.c    ****     buflen += BUF_INC_STEP;
 904:c_string.c    ****     buf = mrbc_realloc(vm, pf.buf, buflen);
 905:c_string.c    ****     if( !buf ) { return; }	// ENOMEM raise? TODO: leak memory.
 906:c_string.c    ****     mrbc_printf_replace_buffer(&pf, buf, buflen);
 907:c_string.c    ****   }
 908:c_string.c    ****   mrbc_printf_end( &pf );
 909:c_string.c    **** 
 910:c_string.c    ****   buflen = mrbc_printf_len( &pf );
 911:c_string.c    ****   mrbc_realloc(vm, pf.buf, buflen+1);	// shrink suitable size.
 912:c_string.c    **** 
 913:c_string.c    ****   mrbc_value value = mrbc_string_new_alloc( vm, pf.buf, buflen );
 914:c_string.c    **** 
 915:c_string.c    ****   SET_RETURN(value);
 916:c_string.c    **** }
 917:c_string.c    **** 
 918:c_string.c    **** 
 919:c_string.c    **** //================================================================
 920:c_string.c    **** /*! (method) printf
 921:c_string.c    **** */
 922:c_string.c    **** static void c_object_printf(struct VM *vm, mrbc_value v[], int argc)
 923:c_string.c    **** {
 924:c_string.c    ****   c_object_sprintf(vm, v, argc);
 925:c_string.c    ****   console_nprint( mrbc_string_cstr(v), mrbc_string_size(v) );
 926:c_string.c    ****   SET_NIL_RETURN();
 927:c_string.c    **** }
 928:c_string.c    **** 
 929:c_string.c    **** 
 930:c_string.c    **** //================================================================
 931:c_string.c    **** /*! (method) lstrip
 932:c_string.c    **** */
 933:c_string.c    **** static void c_string_lstrip(struct VM *vm, mrbc_value v[], int argc)
 934:c_string.c    **** {
 935:c_string.c    ****   mrbc_value ret = mrbc_string_dup(vm, &v[0]);
 936:c_string.c    **** 
 937:c_string.c    ****   mrbc_string_strip(&ret, 0x01);	// 1: left side only
 938:c_string.c    **** 
 939:c_string.c    ****   SET_RETURN(ret);
 940:c_string.c    **** }
 941:c_string.c    **** 
 942:c_string.c    **** 
 943:c_string.c    **** //================================================================
 944:c_string.c    **** /*! (method) lstrip!
 945:c_string.c    **** */
 946:c_string.c    **** static void c_string_lstrip_self(struct VM *vm, mrbc_value v[], int argc)
 947:c_string.c    **** {
 948:c_string.c    ****   if( mrbc_string_strip(&v[0], 0x01) == 0 ) {	// 1: left side only
 949:c_string.c    ****     SET_RETURN( mrbc_nil_value() );
ARM GAS  C:\Users\164\AppData\Local\Temp\cc3ssgoH.s 			page 19


 950:c_string.c    ****   }
 951:c_string.c    **** }
 952:c_string.c    **** 
 953:c_string.c    **** 
 954:c_string.c    **** //================================================================
 955:c_string.c    **** /*! (method) rstrip
 956:c_string.c    **** */
 957:c_string.c    **** static void c_string_rstrip(struct VM *vm, mrbc_value v[], int argc)
 958:c_string.c    **** {
 959:c_string.c    ****   mrbc_value ret = mrbc_string_dup(vm, &v[0]);
 960:c_string.c    **** 
 961:c_string.c    ****   mrbc_string_strip(&ret, 0x02);	// 2: right side only
 962:c_string.c    **** 
 963:c_string.c    ****   SET_RETURN(ret);
 964:c_string.c    **** }
 965:c_string.c    **** 
 966:c_string.c    **** 
 967:c_string.c    **** //================================================================
 968:c_string.c    **** /*! (method) rstrip!
 969:c_string.c    **** */
 970:c_string.c    **** static void c_string_rstrip_self(struct VM *vm, mrbc_value v[], int argc)
 971:c_string.c    **** {
 972:c_string.c    ****   if( mrbc_string_strip(&v[0], 0x02) == 0 ) {	// 2: right side only
 973:c_string.c    ****     SET_RETURN( mrbc_nil_value() );
 974:c_string.c    ****   }
 975:c_string.c    **** }
 976:c_string.c    **** 
 977:c_string.c    **** 
 978:c_string.c    **** //================================================================
 979:c_string.c    **** /*! (method) strip
 980:c_string.c    **** */
 981:c_string.c    **** static void c_string_strip(struct VM *vm, mrbc_value v[], int argc)
 982:c_string.c    **** {
 983:c_string.c    ****   mrbc_value ret = mrbc_string_dup(vm, &v[0]);
 984:c_string.c    **** 
 985:c_string.c    ****   mrbc_string_strip(&ret, 0x03);	// 3: left and right
 986:c_string.c    **** 
 987:c_string.c    ****   SET_RETURN(ret);
 988:c_string.c    **** }
 989:c_string.c    **** 
 990:c_string.c    **** 
 991:c_string.c    **** //================================================================
 992:c_string.c    **** /*! (method) strip!
 993:c_string.c    **** */
 994:c_string.c    **** static void c_string_strip_self(struct VM *vm, mrbc_value v[], int argc)
 995:c_string.c    **** {
 996:c_string.c    ****   if( mrbc_string_strip(&v[0], 0x03) == 0 ) {	// 3: left and right
 997:c_string.c    ****     SET_RETURN( mrbc_nil_value() );
 998:c_string.c    ****   }
 999:c_string.c    **** }
1000:c_string.c    **** 
1001:c_string.c    **** 
1002:c_string.c    **** //================================================================
1003:c_string.c    **** /*! (method) to_sym
1004:c_string.c    **** */
1005:c_string.c    **** static void c_string_to_sym(struct VM *vm, mrbc_value v[], int argc)
1006:c_string.c    **** {
ARM GAS  C:\Users\164\AppData\Local\Temp\cc3ssgoH.s 			page 20


1007:c_string.c    ****   mrbc_value ret = mrbc_symbol_new(vm, mrbc_string_cstr(&v[0]));
1008:c_string.c    **** 
1009:c_string.c    ****   SET_RETURN(ret);
1010:c_string.c    **** }
1011:c_string.c    **** 
1012:c_string.c    **** 
1013:c_string.c    **** //================================================================
1014:c_string.c    **** /*! (method) tr
1015:c_string.c    **** 
1016:c_string.c    ****   Pattern syntax
1017:c_string.c    **** 
1018:c_string.c    ****   <syntax> ::= (<pattern>)* | '^' (<pattern>)*
1019:c_string.c    ****   <pattern> ::= <in order> | <range>
1020:c_string.c    ****   <in order> ::= (<ch>)+
1021:c_string.c    ****   <range> ::= <ch> '-' <ch>
1022:c_string.c    **** */
1023:c_string.c    **** struct tr_pattern {
1024:c_string.c    ****   uint8_t type;		// 1:in-order, 2:range
1025:c_string.c    ****   uint8_t flag_reverse;
1026:c_string.c    ****   int16_t n;
1027:c_string.c    ****   struct tr_pattern *next;
1028:c_string.c    ****   char ch[];
1029:c_string.c    **** };
1030:c_string.c    **** 
1031:c_string.c    **** static void tr_free_pattern( struct tr_pattern *pat )
1032:c_string.c    **** {
1033:c_string.c    ****   while( pat ) {
1034:c_string.c    ****     struct tr_pattern *p = pat->next;
1035:c_string.c    ****     mrbc_raw_free( pat );
1036:c_string.c    ****     pat = p;
1037:c_string.c    ****   }
1038:c_string.c    **** }
1039:c_string.c    **** 
1040:c_string.c    **** static struct tr_pattern * tr_parse_pattern( struct VM *vm, const mrb_value *v_pattern, int flag_re
1041:c_string.c    **** {
1042:c_string.c    ****   const char *pattern = mrbc_string_cstr( v_pattern );
1043:c_string.c    ****   int pattern_length = mrbc_string_size( v_pattern );
1044:c_string.c    ****   int flag_reverse = 0;
1045:c_string.c    ****   struct tr_pattern *ret = NULL;
1046:c_string.c    **** 
1047:c_string.c    ****   int i = 0;
1048:c_string.c    ****   if( flag_reverse_enable && pattern_length >= 2 && pattern[i] == '^' ) {
1049:c_string.c    ****     flag_reverse = 1;
1050:c_string.c    ****     i++;
1051:c_string.c    ****   }
1052:c_string.c    **** 
1053:c_string.c    ****   struct tr_pattern *pat1;
1054:c_string.c    ****   while( i < pattern_length ) {
1055:c_string.c    ****     // is range pattern ?
1056:c_string.c    ****     if( (i+2) < pattern_length && pattern[i+1] == '-' ) {
1057:c_string.c    ****       pat1 = mrbc_alloc( vm, sizeof(struct tr_pattern) + 2 );
1058:c_string.c    ****       if( pat1 != NULL ) {
1059:c_string.c    **** 	pat1->type = 2;
1060:c_string.c    **** 	pat1->flag_reverse = flag_reverse;
1061:c_string.c    **** 	pat1->n = pattern[i+2] - pattern[i] + 1;
1062:c_string.c    **** 	pat1->next = NULL;
1063:c_string.c    **** 	pat1->ch[0] = pattern[i];
ARM GAS  C:\Users\164\AppData\Local\Temp\cc3ssgoH.s 			page 21


1064:c_string.c    **** 	pat1->ch[1] = pattern[i+2];
1065:c_string.c    ****       }
1066:c_string.c    ****       i += 3;
1067:c_string.c    **** 
1068:c_string.c    ****     } else {
1069:c_string.c    ****       // in order pattern.
1070:c_string.c    ****       int start_pos = i++;
1071:c_string.c    ****       while( i < pattern_length ) {
1072:c_string.c    **** 	if( (i+2) < pattern_length && pattern[i+1] == '-' ) break;
1073:c_string.c    **** 	i++;
1074:c_string.c    ****       }
1075:c_string.c    **** 
1076:c_string.c    ****       int len = i - start_pos;
1077:c_string.c    ****       pat1 = mrbc_alloc( vm, sizeof(struct tr_pattern) + len );
1078:c_string.c    ****       if( pat1 != NULL ) {
1079:c_string.c    **** 	pat1->type = 1;
1080:c_string.c    **** 	pat1->flag_reverse = flag_reverse;
1081:c_string.c    **** 	pat1->n = len;
1082:c_string.c    **** 	pat1->next = NULL;
1083:c_string.c    **** 	memcpy( pat1->ch, &pattern[start_pos], len );
1084:c_string.c    ****       }
1085:c_string.c    ****     }
1086:c_string.c    **** 
1087:c_string.c    ****     // connect linked list.
1088:c_string.c    ****     if( ret == NULL ) {
1089:c_string.c    ****       ret = pat1;
1090:c_string.c    ****     } else {
1091:c_string.c    ****       struct tr_pattern *p = ret;
1092:c_string.c    ****       while( p->next != NULL ) { p = p->next; }
1093:c_string.c    ****       p->next = pat1;
1094:c_string.c    ****     }
1095:c_string.c    ****   }
1096:c_string.c    **** 
1097:c_string.c    ****   return ret;
1098:c_string.c    **** }
1099:c_string.c    **** 
1100:c_string.c    **** static int tr_find_character( const struct tr_pattern *pat, int ch )
1101:c_string.c    **** {
  75              		.loc 1 1101 0
  76              		.cfi_startproc
  77              		@ args = 0, pretend = 0, frame = 0
  78              		@ frame_needed = 0, uses_anonymous_args = 0
  79              		@ link register save eliminated.
  80              	.LVL6:
  81 0000 70B4     		push	{r4, r5, r6}
  82              		.cfi_def_cfa_offset 12
  83              		.cfi_offset 4, -12
  84              		.cfi_offset 5, -8
  85              		.cfi_offset 6, -4
  86              	.LVL7:
1102:c_string.c    ****   int ret = -1;
1103:c_string.c    ****   int n_sum = 0;
1104:c_string.c    ****   int flag_reverse = pat ? pat->flag_reverse : 0;
  87              		.loc 1 1104 0
  88 0002 0246     		mov	r2, r0
  89 0004 08B1     		cbz	r0, .L18
  90              		.loc 1 1104 0 is_stmt 0 discriminator 1
ARM GAS  C:\Users\164\AppData\Local\Temp\cc3ssgoH.s 			page 22


  91 0006 4678     		ldrb	r6, [r0, #1]	@ zero_extendqisi2
  92 0008 00E0     		b	.L9
  93              	.L18:
  94              		.loc 1 1104 0
  95 000a 0026     		movs	r6, #0
  96              	.L9:
  97              	.LVL8:
1103:c_string.c    ****   int flag_reverse = pat ? pat->flag_reverse : 0;
  98              		.loc 1 1103 0 is_stmt 1 discriminator 4
  99 000c 0025     		movs	r5, #0
1102:c_string.c    ****   int ret = -1;
 100              		.loc 1 1102 0 discriminator 4
 101 000e 4FF0FF30 		mov	r0, #-1
 102              	.LVL9:
1105:c_string.c    **** 
1106:c_string.c    ****   while( pat != NULL ) {
 103              		.loc 1 1106 0 discriminator 4
 104 0012 1CE0     		b	.L10
 105              	.LVL10:
 106              	.L16:
1107:c_string.c    ****     if( pat->type == 1 ) {	// in-order
 107              		.loc 1 1107 0
 108 0014 1378     		ldrb	r3, [r2]	@ zero_extendqisi2
 109 0016 012B     		cmp	r3, #1
 110 0018 0DD1     		bne	.L22
 111 001a 06E0     		b	.L19
 112              	.LVL11:
 113              	.L14:
 114              	.LBB159:
1108:c_string.c    ****       int i;
1109:c_string.c    ****       for( i = 0; i < pat->n; i++ ) {
1110:c_string.c    **** 	if( pat->ch[i] == ch ) ret = n_sum + i;
 115              		.loc 1 1110 0
 116 001c D418     		adds	r4, r2, r3
 117 001e 247A     		ldrb	r4, [r4, #8]	@ zero_extendqisi2
 118 0020 8C42     		cmp	r4, r1
 119 0022 00D1     		bne	.L13
 120              		.loc 1 1110 0 is_stmt 0 discriminator 1
 121 0024 E818     		adds	r0, r5, r3
 122              	.LVL12:
 123              	.L13:
1109:c_string.c    **** 	if( pat->ch[i] == ch ) ret = n_sum + i;
 124              		.loc 1 1109 0 is_stmt 1 discriminator 2
 125 0026 0133     		adds	r3, r3, #1
 126              	.LVL13:
 127 0028 00E0     		b	.L11
 128              	.LVL14:
 129              	.L19:
 130              	.LBE159:
 131 002a 0023     		movs	r3, #0
 132              	.L11:
 133              	.LVL15:
 134              	.LBB160:
1109:c_string.c    **** 	if( pat->ch[i] == ch ) ret = n_sum + i;
 135              		.loc 1 1109 0 is_stmt 0 discriminator 1
 136 002c B2F90240 		ldrsh	r4, [r2, #2]
 137 0030 A342     		cmp	r3, r4
ARM GAS  C:\Users\164\AppData\Local\Temp\cc3ssgoH.s 			page 23


 138 0032 F3DB     		blt	.L14
 139 0034 07E0     		b	.L15
 140              	.LVL16:
 141              	.L22:
 142              	.LBE160:
1111:c_string.c    ****       }
1112:c_string.c    ****     } else {	// pat->type == 2  range
1113:c_string.c    ****       if( pat->ch[0] <= ch && ch <= pat->ch[1] ) ret = n_sum + ch - pat->ch[0];
 143              		.loc 1 1113 0 is_stmt 1
 144 0036 137A     		ldrb	r3, [r2, #8]	@ zero_extendqisi2
 145 0038 9942     		cmp	r1, r3
 146 003a 04DB     		blt	.L15
 147              		.loc 1 1113 0 is_stmt 0 discriminator 1
 148 003c 547A     		ldrb	r4, [r2, #9]	@ zero_extendqisi2
 149 003e A142     		cmp	r1, r4
 150 0040 01DC     		bgt	.L15
 151              		.loc 1 1113 0 discriminator 2
 152 0042 6818     		adds	r0, r5, r1
 153              	.LVL17:
 154 0044 C01A     		subs	r0, r0, r3
 155              	.LVL18:
 156              	.L15:
1114:c_string.c    ****     }
1115:c_string.c    ****     n_sum += pat->n;
 157              		.loc 1 1115 0 is_stmt 1
 158 0046 B2F90230 		ldrsh	r3, [r2, #2]
 159 004a 1D44     		add	r5, r5, r3
 160              	.LVL19:
1116:c_string.c    ****     pat = pat->next;
 161              		.loc 1 1116 0
 162 004c 5268     		ldr	r2, [r2, #4]
 163              	.LVL20:
 164              	.L10:
1106:c_string.c    ****     if( pat->type == 1 ) {	// in-order
 165              		.loc 1 1106 0
 166 004e 002A     		cmp	r2, #0
 167 0050 E0D1     		bne	.L16
1117:c_string.c    ****   }
1118:c_string.c    **** 
1119:c_string.c    ****   if( flag_reverse ) {
 168              		.loc 1 1119 0
 169 0052 36B1     		cbz	r6, .L17
1120:c_string.c    ****     return (ret < 0) ? INT_MAX : -1;
 170              		.loc 1 1120 0
 171 0054 0028     		cmp	r0, #0
 172 0056 02DA     		bge	.L21
 173 0058 6FF00040 		mvn	r0, #-2147483648
 174              	.LVL21:
 175 005c 01E0     		b	.L17
 176              	.LVL22:
 177              	.L21:
 178 005e 4FF0FF30 		mov	r0, #-1
 179              	.LVL23:
 180              	.L17:
1121:c_string.c    ****   }
1122:c_string.c    ****   return ret;
1123:c_string.c    **** }
ARM GAS  C:\Users\164\AppData\Local\Temp\cc3ssgoH.s 			page 24


 181              		.loc 1 1123 0
 182 0062 70BC     		pop	{r4, r5, r6}
 183              		.cfi_restore 6
 184              		.cfi_restore 5
 185              		.cfi_restore 4
 186              		.cfi_def_cfa_offset 0
 187              	.LVL24:
 188 0064 7047     		bx	lr
 189              		.cfi_endproc
 190              	.LFE125:
 191              		.size	tr_find_character, .-tr_find_character
 192 0066 00BF     		.section	.text.tr_get_character,"ax",%progbits
 193              		.align	2
 194              		.thumb
 195              		.thumb_func
 196              		.type	tr_get_character, %function
 197              	tr_get_character:
 198              	.LFB126:
1124:c_string.c    **** 
1125:c_string.c    **** static int tr_get_character( const struct tr_pattern *pat, int n_th )
1126:c_string.c    **** {
 199              		.loc 1 1126 0
 200              		.cfi_startproc
 201              		@ args = 0, pretend = 0, frame = 0
 202              		@ frame_needed = 0, uses_anonymous_args = 0
 203              		@ link register save eliminated.
 204              	.LVL25:
 205 0000 30B4     		push	{r4, r5}
 206              		.cfi_def_cfa_offset 8
 207              		.cfi_offset 4, -8
 208              		.cfi_offset 5, -4
 209              	.LVL26:
1127:c_string.c    ****   int n_sum = 0;
 210              		.loc 1 1127 0
 211 0002 0024     		movs	r4, #0
1128:c_string.c    ****   while( pat != NULL ) {
 212              		.loc 1 1128 0
 213 0004 1BE0     		b	.L25
 214              	.LVL27:
 215              	.L30:
1129:c_string.c    ****     if( n_th < (n_sum + pat->n) ) {
 216              		.loc 1 1129 0
 217 0006 B0F90250 		ldrsh	r5, [r0, #2]
 218 000a 6319     		adds	r3, r4, r5
 219 000c 8B42     		cmp	r3, r1
 220 000e 09DD     		ble	.L26
 221              	.LBB161:
1130:c_string.c    ****       int i = (n_th - n_sum);
 222              		.loc 1 1130 0
 223 0010 091B     		subs	r1, r1, r4
 224              	.LVL28:
1131:c_string.c    ****       return (pat->type == 1) ? pat->ch[i] :pat->ch[0] + i;
 225              		.loc 1 1131 0
 226 0012 0378     		ldrb	r3, [r0]	@ zero_extendqisi2
 227 0014 012B     		cmp	r3, #1
 228 0016 02D1     		bne	.L27
 229              		.loc 1 1131 0 is_stmt 0 discriminator 1
ARM GAS  C:\Users\164\AppData\Local\Temp\cc3ssgoH.s 			page 25


 230 0018 0144     		add	r1, r1, r0
 231              	.LVL29:
 232 001a 087A     		ldrb	r0, [r1, #8]	@ zero_extendqisi2
 233              	.LVL30:
 234 001c 13E0     		b	.L28
 235              	.LVL31:
 236              	.L27:
 237              		.loc 1 1131 0 discriminator 2
 238 001e 007A     		ldrb	r0, [r0, #8]	@ zero_extendqisi2
 239              	.LVL32:
 240 0020 0844     		add	r0, r0, r1
 241 0022 10E0     		b	.L28
 242              	.LVL33:
 243              	.L26:
 244              	.LBE161:
1132:c_string.c    ****     }
1133:c_string.c    ****     if( pat->next == NULL ) {
 245              		.loc 1 1133 0 is_stmt 1
 246 0024 4268     		ldr	r2, [r0, #4]
 247 0026 42B9     		cbnz	r2, .L31
1134:c_string.c    ****       return (pat->type == 1) ? pat->ch[pat->n - 1] : pat->ch[1];
 248              		.loc 1 1134 0
 249 0028 0378     		ldrb	r3, [r0]	@ zero_extendqisi2
 250 002a 012B     		cmp	r3, #1
 251 002c 03D1     		bne	.L29
 252              		.loc 1 1134 0 is_stmt 0 discriminator 1
 253 002e 013D     		subs	r5, r5, #1
 254 0030 2844     		add	r0, r0, r5
 255              	.LVL34:
 256 0032 007A     		ldrb	r0, [r0, #8]	@ zero_extendqisi2
 257 0034 07E0     		b	.L28
 258              	.LVL35:
 259              	.L29:
 260              		.loc 1 1134 0 discriminator 2
 261 0036 407A     		ldrb	r0, [r0, #9]	@ zero_extendqisi2
 262              	.LVL36:
 263 0038 05E0     		b	.L28
 264              	.LVL37:
 265              	.L31:
1135:c_string.c    ****     }
1136:c_string.c    ****     n_sum += pat->n;
 266              		.loc 1 1136 0 is_stmt 1
 267 003a 1C46     		mov	r4, r3
 268              	.LVL38:
1137:c_string.c    ****     pat = pat->next;
 269              		.loc 1 1137 0
 270 003c 1046     		mov	r0, r2
 271              	.LVL39:
 272              	.L25:
1128:c_string.c    ****     if( n_th < (n_sum + pat->n) ) {
 273              		.loc 1 1128 0
 274 003e 0028     		cmp	r0, #0
 275 0040 E1D1     		bne	.L30
1138:c_string.c    ****   }
1139:c_string.c    **** 
1140:c_string.c    ****   return -1;
 276              		.loc 1 1140 0
ARM GAS  C:\Users\164\AppData\Local\Temp\cc3ssgoH.s 			page 26


 277 0042 4FF0FF30 		mov	r0, #-1
 278              	.LVL40:
 279              	.L28:
1141:c_string.c    **** }
 280              		.loc 1 1141 0
 281 0046 30BC     		pop	{r4, r5}
 282              		.cfi_restore 5
 283              		.cfi_restore 4
 284              		.cfi_def_cfa_offset 0
 285              	.LVL41:
 286 0048 7047     		bx	lr
 287              		.cfi_endproc
 288              	.LFE126:
 289              		.size	tr_get_character, .-tr_get_character
 290 004a 00BF     		.section	.text.tr_free_pattern,"ax",%progbits
 291              		.align	2
 292              		.thumb
 293              		.thumb_func
 294              		.type	tr_free_pattern, %function
 295              	tr_free_pattern:
 296              	.LFB123:
1032:c_string.c    ****   while( pat ) {
 297              		.loc 1 1032 0
 298              		.cfi_startproc
 299              		@ args = 0, pretend = 0, frame = 0
 300              		@ frame_needed = 0, uses_anonymous_args = 0
 301              	.LVL42:
 302 0000 10B5     		push	{r4, lr}
 303              		.cfi_def_cfa_offset 8
 304              		.cfi_offset 4, -8
 305              		.cfi_offset 14, -4
1033:c_string.c    ****     struct tr_pattern *p = pat->next;
 306              		.loc 1 1033 0
 307 0002 03E0     		b	.L34
 308              	.L35:
 309              	.LBB162:
1034:c_string.c    ****     mrbc_raw_free( pat );
 310              		.loc 1 1034 0
 311 0004 4468     		ldr	r4, [r0, #4]
 312              	.LVL43:
1035:c_string.c    ****     pat = p;
 313              		.loc 1 1035 0
 314 0006 FFF7FEFF 		bl	mrbc_raw_free
 315              	.LVL44:
1036:c_string.c    ****   }
 316              		.loc 1 1036 0
 317 000a 2046     		mov	r0, r4
 318              	.LVL45:
 319              	.L34:
 320              	.LBE162:
1033:c_string.c    ****     struct tr_pattern *p = pat->next;
 321              		.loc 1 1033 0
 322 000c 0028     		cmp	r0, #0
 323 000e F9D1     		bne	.L35
1038:c_string.c    **** 
 324              		.loc 1 1038 0
 325 0010 10BD     		pop	{r4, pc}
ARM GAS  C:\Users\164\AppData\Local\Temp\cc3ssgoH.s 			page 27


 326              		.cfi_endproc
 327              	.LFE123:
 328              		.size	tr_free_pattern, .-tr_free_pattern
 329 0012 00BF     		.section	.text.tr_parse_pattern,"ax",%progbits
 330              		.align	2
 331              		.thumb
 332              		.thumb_func
 333              		.type	tr_parse_pattern, %function
 334              	tr_parse_pattern:
 335              	.LFB124:
1041:c_string.c    ****   const char *pattern = mrbc_string_cstr( v_pattern );
 336              		.loc 1 1041 0
 337              		.cfi_startproc
 338              		@ args = 0, pretend = 0, frame = 8
 339              		@ frame_needed = 0, uses_anonymous_args = 0
 340              	.LVL46:
 341 0000 2DE9F04F 		push	{r4, r5, r6, r7, r8, r9, r10, fp, lr}
 342              		.cfi_def_cfa_offset 36
 343              		.cfi_offset 4, -36
 344              		.cfi_offset 5, -32
 345              		.cfi_offset 6, -28
 346              		.cfi_offset 7, -24
 347              		.cfi_offset 8, -20
 348              		.cfi_offset 9, -16
 349              		.cfi_offset 10, -12
 350              		.cfi_offset 11, -8
 351              		.cfi_offset 14, -4
 352 0004 83B0     		sub	sp, sp, #12
 353              		.cfi_def_cfa_offset 48
 354 0006 0190     		str	r0, [sp, #4]
 355              	.LVL47:
 356              	.LBB163:
 357              	.LBB164:
 358              		.file 2 "c_string.h"
   1:c_string.h    **** /*! @file
   2:c_string.h    ****   @brief
   3:c_string.h    ****   mruby/c String object
   4:c_string.h    **** 
   5:c_string.h    ****   <pre>
   6:c_string.h    ****   Copyright (C) 2015-2018 Kyushu Institute of Technology.
   7:c_string.h    ****   Copyright (C) 2015-2018 Shimane IT Open-Innovation Center.
   8:c_string.h    **** 
   9:c_string.h    ****   This file is distributed under BSD 3-Clause License.
  10:c_string.h    **** 
  11:c_string.h    ****   </pre>
  12:c_string.h    **** */
  13:c_string.h    **** 
  14:c_string.h    **** #ifndef MRBC_SRC_C_STRING_H_
  15:c_string.h    **** #define MRBC_SRC_C_STRING_H_
  16:c_string.h    **** 
  17:c_string.h    **** #include <stdint.h>
  18:c_string.h    **** #include <string.h>
  19:c_string.h    **** #include "value.h"
  20:c_string.h    **** 
  21:c_string.h    **** #ifdef __cplusplus
  22:c_string.h    **** extern "C" {
  23:c_string.h    **** #endif
ARM GAS  C:\Users\164\AppData\Local\Temp\cc3ssgoH.s 			page 28


  24:c_string.h    **** 
  25:c_string.h    **** //================================================================
  26:c_string.h    **** /*!@brief
  27:c_string.h    ****   Define String handle.
  28:c_string.h    **** */
  29:c_string.h    **** typedef struct RString {
  30:c_string.h    ****   MRBC_OBJECT_HEADER;
  31:c_string.h    **** 
  32:c_string.h    ****   uint16_t size;	//!< string length.
  33:c_string.h    ****   uint8_t *data;	//!< pointer to allocated buffer.
  34:c_string.h    **** 
  35:c_string.h    **** } mrbc_string;
  36:c_string.h    **** 
  37:c_string.h    **** 
  38:c_string.h    **** mrbc_value mrbc_string_new(struct VM *vm, const void *src, int len);
  39:c_string.h    **** mrbc_value mrbc_string_new_cstr(struct VM *vm, const char *src);
  40:c_string.h    **** mrbc_value mrbc_string_new_alloc(struct VM *vm, void *buf, int len);
  41:c_string.h    **** void mrbc_string_delete(mrbc_value *str);
  42:c_string.h    **** void mrbc_string_clear_vm_id(mrbc_value *str);
  43:c_string.h    **** mrbc_value mrbc_string_dup(struct VM *vm, mrbc_value *s1);
  44:c_string.h    **** mrbc_value mrbc_string_add(struct VM *vm, const mrbc_value *s1, const mrbc_value *s2);
  45:c_string.h    **** int mrbc_string_append(mrbc_value *s1, const mrbc_value *s2);
  46:c_string.h    **** int mrbc_string_append_cstr(mrbc_value *s1, const char *s2);
  47:c_string.h    **** int mrbc_string_index(const mrbc_value *src, const mrbc_value *pattern, int offset);
  48:c_string.h    **** int mrbc_string_strip(mrbc_value *src, int mode);
  49:c_string.h    **** int mrbc_string_chomp(mrbc_value *src);
  50:c_string.h    **** void mrbc_init_class_string(struct VM *vm);
  51:c_string.h    **** 
  52:c_string.h    **** 
  53:c_string.h    **** //================================================================
  54:c_string.h    **** /*! compare
  55:c_string.h    **** */
  56:c_string.h    **** static inline int mrbc_string_compare(const mrbc_value *v1, const mrbc_value *v2)
  57:c_string.h    **** {
  58:c_string.h    ****   int len = (v1->string->size < v2->string->size) ?
  59:c_string.h    ****     v1->string->size : v2->string->size;
  60:c_string.h    **** 
  61:c_string.h    ****   int res = memcmp(v1->string->data, v2->string->data, len);
  62:c_string.h    ****   if( res != 0 ) return res;
  63:c_string.h    **** 
  64:c_string.h    ****   return v1->string->size - v2->string->size;
  65:c_string.h    **** }
  66:c_string.h    **** 
  67:c_string.h    **** //================================================================
  68:c_string.h    **** /*! get size
  69:c_string.h    **** */
  70:c_string.h    **** static inline int mrbc_string_size(const mrbc_value *str)
  71:c_string.h    **** {
  72:c_string.h    ****   return str->string->size;
  73:c_string.h    **** }
  74:c_string.h    **** 
  75:c_string.h    **** //================================================================
  76:c_string.h    **** /*! get c-language string (char *)
  77:c_string.h    **** */
  78:c_string.h    **** static inline char * mrbc_string_cstr(const mrbc_value *v)
  79:c_string.h    **** {
  80:c_string.h    ****   return (char*)v->string->data;
ARM GAS  C:\Users\164\AppData\Local\Temp\cc3ssgoH.s 			page 29


 359              		.loc 2 80 0
 360 0008 8B68     		ldr	r3, [r1, #8]
 361 000a 9E68     		ldr	r6, [r3, #8]
 362              	.LVL48:
 363              	.LBE164:
 364              	.LBE163:
 365              	.LBB165:
 366              	.LBB166:
  72:c_string.h    **** }
 367              		.loc 2 72 0
 368 000c 9D88     		ldrh	r5, [r3, #4]
 369              	.LVL49:
 370              	.LBE166:
 371              	.LBE165:
1048:c_string.c    ****     flag_reverse = 1;
 372              		.loc 1 1048 0
 373 000e 3AB1     		cbz	r2, .L50
1048:c_string.c    ****     flag_reverse = 1;
 374              		.loc 1 1048 0 is_stmt 0 discriminator 1
 375 0010 012D     		cmp	r5, #1
 376 0012 08DD     		ble	.L51
1048:c_string.c    ****     flag_reverse = 1;
 377              		.loc 1 1048 0 discriminator 2
 378 0014 3378     		ldrb	r3, [r6]	@ zero_extendqisi2
 379 0016 5E2B     		cmp	r3, #94
 380 0018 08D0     		beq	.L52
1047:c_string.c    ****   if( flag_reverse_enable && pattern_length >= 2 && pattern[i] == '^' ) {
 381              		.loc 1 1047 0 is_stmt 1
 382 001a 0027     		movs	r7, #0
1044:c_string.c    ****   struct tr_pattern *ret = NULL;
 383              		.loc 1 1044 0
 384 001c BB46     		mov	fp, r7
 385 001e 07E0     		b	.L38
 386              	.L50:
1047:c_string.c    ****   if( flag_reverse_enable && pattern_length >= 2 && pattern[i] == '^' ) {
 387              		.loc 1 1047 0
 388 0020 0027     		movs	r7, #0
1044:c_string.c    ****   struct tr_pattern *ret = NULL;
 389              		.loc 1 1044 0
 390 0022 BB46     		mov	fp, r7
 391 0024 04E0     		b	.L38
 392              	.L51:
1047:c_string.c    ****   if( flag_reverse_enable && pattern_length >= 2 && pattern[i] == '^' ) {
 393              		.loc 1 1047 0
 394 0026 0027     		movs	r7, #0
1044:c_string.c    ****   struct tr_pattern *ret = NULL;
 395              		.loc 1 1044 0
 396 0028 BB46     		mov	fp, r7
 397 002a 01E0     		b	.L38
 398              	.L52:
1050:c_string.c    ****   }
 399              		.loc 1 1050 0
 400 002c 0127     		movs	r7, #1
1049:c_string.c    ****     i++;
 401              		.loc 1 1049 0
 402 002e BB46     		mov	fp, r7
 403              	.L38:
ARM GAS  C:\Users\164\AppData\Local\Temp\cc3ssgoH.s 			page 30


1089:c_string.c    ****     } else {
 404              		.loc 1 1089 0
 405 0030 4FF0000A 		mov	r10, #0
 406 0034 4EE0     		b	.L39
 407              	.LVL50:
 408              	.L49:
1056:c_string.c    ****       pat1 = mrbc_alloc( vm, sizeof(struct tr_pattern) + 2 );
 409              		.loc 1 1056 0
 410 0036 BB1C     		adds	r3, r7, #2
 411 0038 AB42     		cmp	r3, r5
 412 003a 1BDA     		bge	.L40
1056:c_string.c    ****       pat1 = mrbc_alloc( vm, sizeof(struct tr_pattern) + 2 );
 413              		.loc 1 1056 0 is_stmt 0 discriminator 1
 414 003c 7B1C     		adds	r3, r7, #1
 415 003e F35C     		ldrb	r3, [r6, r3]	@ zero_extendqisi2
 416 0040 2D2B     		cmp	r3, #45
 417 0042 17D1     		bne	.L40
1057:c_string.c    ****       if( pat1 != NULL ) {
 418              		.loc 1 1057 0 is_stmt 1
 419 0044 0A21     		movs	r1, #10
 420 0046 0198     		ldr	r0, [sp, #4]
 421 0048 FFF7FEFF 		bl	mrbc_alloc
 422              	.LVL51:
1058:c_string.c    **** 	pat1->type = 2;
 423              		.loc 1 1058 0
 424 004c 8046     		mov	r8, r0
 425 004e 78B1     		cbz	r0, .L41
1059:c_string.c    **** 	pat1->flag_reverse = flag_reverse;
 426              		.loc 1 1059 0
 427 0050 0223     		movs	r3, #2
 428 0052 0370     		strb	r3, [r0]
1060:c_string.c    **** 	pat1->n = pattern[i+2] - pattern[i] + 1;
 429              		.loc 1 1060 0
 430 0054 80F801B0 		strb	fp, [r0, #1]
1061:c_string.c    **** 	pat1->next = NULL;
 431              		.loc 1 1061 0
 432 0058 FA18     		adds	r2, r7, r3
 433 005a B35C     		ldrb	r3, [r6, r2]	@ zero_extendqisi2
 434 005c F15D     		ldrb	r1, [r6, r7]	@ zero_extendqisi2
 435 005e 5B1A     		subs	r3, r3, r1
 436 0060 0133     		adds	r3, r3, #1
 437 0062 4380     		strh	r3, [r0, #2]	@ movhi
1062:c_string.c    **** 	pat1->ch[0] = pattern[i];
 438              		.loc 1 1062 0
 439 0064 0023     		movs	r3, #0
 440 0066 4360     		str	r3, [r0, #4]
1063:c_string.c    **** 	pat1->ch[1] = pattern[i+2];
 441              		.loc 1 1063 0
 442 0068 F35D     		ldrb	r3, [r6, r7]	@ zero_extendqisi2
 443 006a 0372     		strb	r3, [r0, #8]
1064:c_string.c    ****       }
 444              		.loc 1 1064 0
 445 006c B35C     		ldrb	r3, [r6, r2]	@ zero_extendqisi2
 446 006e 4372     		strb	r3, [r0, #9]
 447              	.L41:
1066:c_string.c    **** 
 448              		.loc 1 1066 0
ARM GAS  C:\Users\164\AppData\Local\Temp\cc3ssgoH.s 			page 31


 449 0070 FC1C     		adds	r4, r7, #3
 450              	.LVL52:
 451 0072 21E0     		b	.L42
 452              	.LVL53:
 453              	.L40:
 454              	.LBB167:
1070:c_string.c    ****       while( i < pattern_length ) {
 455              		.loc 1 1070 0
 456 0074 7C1C     		adds	r4, r7, #1
 457              	.LVL54:
1071:c_string.c    **** 	if( (i+2) < pattern_length && pattern[i+1] == '-' ) break;
 458              		.loc 1 1071 0
 459 0076 07E0     		b	.L43
 460              	.L46:
1072:c_string.c    **** 	i++;
 461              		.loc 1 1072 0
 462 0078 A31C     		adds	r3, r4, #2
 463 007a AB42     		cmp	r3, r5
 464 007c 03DA     		bge	.L44
1072:c_string.c    **** 	i++;
 465              		.loc 1 1072 0 is_stmt 0 discriminator 1
 466 007e 631C     		adds	r3, r4, #1
 467 0080 F35C     		ldrb	r3, [r6, r3]	@ zero_extendqisi2
 468 0082 2D2B     		cmp	r3, #45
 469 0084 02D0     		beq	.L45
 470              	.L44:
1073:c_string.c    ****       }
 471              		.loc 1 1073 0 is_stmt 1
 472 0086 0134     		adds	r4, r4, #1
 473              	.LVL55:
 474              	.L43:
1071:c_string.c    **** 	if( (i+2) < pattern_length && pattern[i+1] == '-' ) break;
 475              		.loc 1 1071 0
 476 0088 AC42     		cmp	r4, r5
 477 008a F5DB     		blt	.L46
 478              	.L45:
1076:c_string.c    ****       pat1 = mrbc_alloc( vm, sizeof(struct tr_pattern) + len );
 479              		.loc 1 1076 0
 480 008c C7EB0409 		rsb	r9, r7, r4
 481              	.LVL56:
1077:c_string.c    ****       if( pat1 != NULL ) {
 482              		.loc 1 1077 0
 483 0090 09F10801 		add	r1, r9, #8
 484 0094 0198     		ldr	r0, [sp, #4]
 485 0096 FFF7FEFF 		bl	mrbc_alloc
 486              	.LVL57:
1078:c_string.c    **** 	pat1->type = 1;
 487              		.loc 1 1078 0
 488 009a 8046     		mov	r8, r0
 489 009c 60B1     		cbz	r0, .L42
1079:c_string.c    **** 	pat1->flag_reverse = flag_reverse;
 490              		.loc 1 1079 0
 491 009e 0123     		movs	r3, #1
 492 00a0 0370     		strb	r3, [r0]
1080:c_string.c    **** 	pat1->n = len;
 493              		.loc 1 1080 0
 494 00a2 80F801B0 		strb	fp, [r0, #1]
ARM GAS  C:\Users\164\AppData\Local\Temp\cc3ssgoH.s 			page 32


1081:c_string.c    **** 	pat1->next = NULL;
 495              		.loc 1 1081 0
 496 00a6 A0F80290 		strh	r9, [r0, #2]	@ movhi
1082:c_string.c    **** 	memcpy( pat1->ch, &pattern[start_pos], len );
 497              		.loc 1 1082 0
 498 00aa 0023     		movs	r3, #0
 499 00ac 4360     		str	r3, [r0, #4]
1083:c_string.c    ****       }
 500              		.loc 1 1083 0
 501 00ae 4A46     		mov	r2, r9
 502 00b0 F119     		adds	r1, r6, r7
 503 00b2 0830     		adds	r0, r0, #8
 504              	.LVL58:
 505 00b4 FFF7FEFF 		bl	memcpy
 506              	.LVL59:
 507              	.L42:
 508              	.LBE167:
1088:c_string.c    ****       ret = pat1;
 509              		.loc 1 1088 0
 510 00b8 BAF1000F 		cmp	r10, #0
 511 00bc 08D0     		beq	.L53
 512 00be 5246     		mov	r2, r10
 513 00c0 00E0     		b	.L48
 514              	.LVL60:
 515              	.L54:
 516              	.LBB168:
1092:c_string.c    ****       p->next = pat1;
 517              		.loc 1 1092 0
 518 00c2 1A46     		mov	r2, r3
 519              	.LVL61:
 520              	.L48:
1092:c_string.c    ****       p->next = pat1;
 521              		.loc 1 1092 0 is_stmt 0 discriminator 1
 522 00c4 5368     		ldr	r3, [r2, #4]
 523 00c6 002B     		cmp	r3, #0
 524 00c8 FBD1     		bne	.L54
1093:c_string.c    ****     }
 525              		.loc 1 1093 0 is_stmt 1
 526 00ca C2F80480 		str	r8, [r2, #4]
 527 00ce 00E0     		b	.L47
 528              	.LVL62:
 529              	.L53:
 530              	.LBE168:
1089:c_string.c    ****     } else {
 531              		.loc 1 1089 0
 532 00d0 C246     		mov	r10, r8
 533              	.LVL63:
 534              	.L47:
 535 00d2 2746     		mov	r7, r4
 536              	.LVL64:
 537              	.L39:
1054:c_string.c    ****     // is range pattern ?
 538              		.loc 1 1054 0
 539 00d4 AF42     		cmp	r7, r5
 540 00d6 AEDB     		blt	.L49
1098:c_string.c    **** 
 541              		.loc 1 1098 0
ARM GAS  C:\Users\164\AppData\Local\Temp\cc3ssgoH.s 			page 33


 542 00d8 5046     		mov	r0, r10
 543 00da 03B0     		add	sp, sp, #12
 544              		.cfi_def_cfa_offset 36
 545              		@ sp needed
 546 00dc BDE8F08F 		pop	{r4, r5, r6, r7, r8, r9, r10, fp, pc}
 547              		.cfi_endproc
 548              	.LFE124:
 549              		.size	tr_parse_pattern, .-tr_parse_pattern
 550              		.section	.text.c_string_ord,"ax",%progbits
 551              		.align	2
 552              		.thumb
 553              		.thumb_func
 554              		.type	c_string_ord, %function
 555              	c_string_ord:
 556              	.LFB112:
 678:c_string.c    ****   int i = mrbc_string_cstr(v)[0];
 557              		.loc 1 678 0
 558              		.cfi_startproc
 559              		@ args = 0, pretend = 0, frame = 0
 560              		@ frame_needed = 0, uses_anonymous_args = 0
 561              	.LVL65:
 562 0000 38B5     		push	{r3, r4, r5, lr}
 563              		.cfi_def_cfa_offset 16
 564              		.cfi_offset 3, -16
 565              		.cfi_offset 4, -12
 566              		.cfi_offset 5, -8
 567              		.cfi_offset 14, -4
 568 0002 0C46     		mov	r4, r1
 569              	.LVL66:
 570              	.LBB169:
 571              	.LBB170:
 572              		.loc 2 80 0
 573 0004 8B68     		ldr	r3, [r1, #8]
 574 0006 9B68     		ldr	r3, [r3, #8]
 575              	.LVL67:
 576              	.LBE170:
 577              	.LBE169:
 679:c_string.c    **** 
 578              		.loc 1 679 0
 579 0008 1D78     		ldrb	r5, [r3]	@ zero_extendqisi2
 580              	.LVL68:
 581              	.LBB171:
 681:c_string.c    **** }
 582              		.loc 1 681 0
 583 000a 0846     		mov	r0, r1
 584              	.LVL69:
 585 000c FFF7FEFF 		bl	mrbc_dec_ref_counter
 586              	.LVL70:
 587 0010 0423     		movs	r3, #4
 588 0012 2370     		strb	r3, [r4]
 589 0014 A560     		str	r5, [r4, #8]
 590 0016 38BD     		pop	{r3, r4, r5, pc}
 591              	.LBE171:
 592              		.cfi_endproc
 593              	.LFE112:
 594              		.size	c_string_ord, .-c_string_ord
 595              		.section	.text.c_string_size,"ax",%progbits
ARM GAS  C:\Users\164\AppData\Local\Temp\cc3ssgoH.s 			page 34


 596              		.align	2
 597              		.thumb
 598              		.thumb_func
 599              		.type	c_string_size, %function
 600              	c_string_size:
 601              	.LFB101:
 406:c_string.c    ****   mrbc_int size = mrbc_string_size(&v[0]);
 602              		.loc 1 406 0
 603              		.cfi_startproc
 604              		@ args = 0, pretend = 0, frame = 0
 605              		@ frame_needed = 0, uses_anonymous_args = 0
 606              	.LVL71:
 607 0000 38B5     		push	{r3, r4, r5, lr}
 608              		.cfi_def_cfa_offset 16
 609              		.cfi_offset 3, -16
 610              		.cfi_offset 4, -12
 611              		.cfi_offset 5, -8
 612              		.cfi_offset 14, -4
 613 0002 0C46     		mov	r4, r1
 614              	.LVL72:
 615              	.LBB172:
 616              	.LBB173:
  72:c_string.h    **** }
 617              		.loc 2 72 0
 618 0004 8B68     		ldr	r3, [r1, #8]
 619 0006 9D88     		ldrh	r5, [r3, #4]
 620              	.LVL73:
 621              	.LBE173:
 622              	.LBE172:
 623              	.LBB174:
 409:c_string.c    **** }
 624              		.loc 1 409 0
 625 0008 0846     		mov	r0, r1
 626              	.LVL74:
 627 000a FFF7FEFF 		bl	mrbc_dec_ref_counter
 628              	.LVL75:
 629 000e 0423     		movs	r3, #4
 630 0010 2370     		strb	r3, [r4]
 631 0012 A560     		str	r5, [r4, #8]
 632 0014 38BD     		pop	{r3, r4, r5, pc}
 633              	.LBE174:
 634              		.cfi_endproc
 635              	.LFE101:
 636              		.size	c_string_size, .-c_string_size
 637 0016 00BF     		.section	.text.c_string_to_f,"ax",%progbits
 638              		.align	2
 639              		.thumb
 640              		.thumb_func
 641              		.type	c_string_to_f, %function
 642              	c_string_to_f:
 643              	.LFB103:
 438:c_string.c    ****   mrbc_float d = atof(mrbc_string_cstr(v));
 644              		.loc 1 438 0
 645              		.cfi_startproc
 646              		@ args = 0, pretend = 0, frame = 0
 647              		@ frame_needed = 0, uses_anonymous_args = 0
 648              	.LVL76:
ARM GAS  C:\Users\164\AppData\Local\Temp\cc3ssgoH.s 			page 35


 649 0000 D0B5     		push	{r4, r6, r7, lr}
 650              		.cfi_def_cfa_offset 16
 651              		.cfi_offset 4, -16
 652              		.cfi_offset 6, -12
 653              		.cfi_offset 7, -8
 654              		.cfi_offset 14, -4
 655 0002 0C46     		mov	r4, r1
 656              	.LVL77:
 657              	.LBB175:
 658              	.LBB176:
 659              		.loc 2 80 0
 660 0004 8B68     		ldr	r3, [r1, #8]
 661              	.LVL78:
 662              	.LBE176:
 663              	.LBE175:
 439:c_string.c    **** 
 664              		.loc 1 439 0
 665 0006 9868     		ldr	r0, [r3, #8]
 666              	.LVL79:
 667 0008 FFF7FEFF 		bl	atof
 668              	.LVL80:
 669 000c 0646     		mov	r6, r0
 670 000e 0F46     		mov	r7, r1
 671              	.LVL81:
 672              	.LBB177:
 441:c_string.c    **** }
 673              		.loc 1 441 0
 674 0010 2046     		mov	r0, r4
 675 0012 FFF7FEFF 		bl	mrbc_dec_ref_counter
 676              	.LVL82:
 677 0016 0523     		movs	r3, #5
 678 0018 2370     		strb	r3, [r4]
 679 001a C4E90267 		strd	r6, [r4, #8]
 680 001e D0BD     		pop	{r4, r6, r7, pc}
 681              	.LBE177:
 682              		.cfi_endproc
 683              	.LFE103:
 684              		.size	c_string_to_f, .-c_string_to_f
 685              		.section	.text.c_string_to_sym,"ax",%progbits
 686              		.align	2
 687              		.thumb
 688              		.thumb_func
 689              		.type	c_string_to_sym, %function
 690              	c_string_to_sym:
 691              	.LFB122:
1006:c_string.c    ****   mrbc_value ret = mrbc_symbol_new(vm, mrbc_string_cstr(&v[0]));
 692              		.loc 1 1006 0
 693              		.cfi_startproc
 694              		@ args = 0, pretend = 0, frame = 32
 695              		@ frame_needed = 0, uses_anonymous_args = 0
 696              	.LVL83:
 697 0000 70B5     		push	{r4, r5, r6, lr}
 698              		.cfi_def_cfa_offset 16
 699              		.cfi_offset 4, -16
 700              		.cfi_offset 5, -12
 701              		.cfi_offset 6, -8
 702              		.cfi_offset 14, -4
ARM GAS  C:\Users\164\AppData\Local\Temp\cc3ssgoH.s 			page 36


 703 0002 88B0     		sub	sp, sp, #32
 704              		.cfi_def_cfa_offset 48
 705 0004 0D46     		mov	r5, r1
 706              	.LVL84:
 707              	.LBB178:
 708              	.LBB179:
 709              		.loc 2 80 0
 710 0006 8B68     		ldr	r3, [r1, #8]
 711              	.LVL85:
 712              	.LBE179:
 713              	.LBE178:
1007:c_string.c    **** 
 714              		.loc 1 1007 0
 715 0008 04AE     		add	r6, sp, #16
 716 000a 9A68     		ldr	r2, [r3, #8]
 717              	.LVL86:
 718 000c 0146     		mov	r1, r0
 719              	.LVL87:
 720 000e 3046     		mov	r0, r6
 721              	.LVL88:
 722 0010 FFF7FEFF 		bl	mrbc_symbol_new
 723              	.LVL89:
 724              	.LBB180:
1009:c_string.c    **** }
 725              		.loc 1 1009 0
 726 0014 96E80F00 		ldmia	r6, {r0, r1, r2, r3}
 727 0018 8DE80F00 		stmia	sp, {r0, r1, r2, r3}
 728 001c 2846     		mov	r0, r5
 729 001e FFF7FEFF 		bl	mrbc_dec_ref_counter
 730              	.LVL90:
 731 0022 9DE80F00 		ldmia	sp, {r0, r1, r2, r3}
 732 0026 85E80F00 		stmia	r5, {r0, r1, r2, r3}
 733              	.LBE180:
1010:c_string.c    **** 
 734              		.loc 1 1010 0
 735 002a 08B0     		add	sp, sp, #32
 736              		.cfi_def_cfa_offset 16
 737              		@ sp needed
 738 002c 70BD     		pop	{r4, r5, r6, pc}
 739              		.cfi_endproc
 740              	.LFE122:
 741              		.size	c_string_to_sym, .-c_string_to_sym
 742 002e 00BF     		.section	.text.c_string_to_i,"ax",%progbits
 743              		.align	2
 744              		.thumb
 745              		.thumb_func
 746              		.type	c_string_to_i, %function
 747              	c_string_to_i:
 748              	.LFB102:
 418:c_string.c    ****   int base = 10;
 749              		.loc 1 418 0
 750              		.cfi_startproc
 751              		@ args = 0, pretend = 0, frame = 0
 752              		@ frame_needed = 0, uses_anonymous_args = 0
 753              	.LVL91:
 754 0000 38B5     		push	{r3, r4, r5, lr}
 755              		.cfi_def_cfa_offset 16
ARM GAS  C:\Users\164\AppData\Local\Temp\cc3ssgoH.s 			page 37


 756              		.cfi_offset 3, -16
 757              		.cfi_offset 4, -12
 758              		.cfi_offset 5, -8
 759              		.cfi_offset 14, -4
 760              	.LVL92:
 420:c_string.c    ****     base = v[1].i;
 761              		.loc 1 420 0
 762 0002 22B1     		cbz	r2, .L67
 421:c_string.c    ****     if( base < 2 || base > 36 ) {
 763              		.loc 1 421 0
 764 0004 8B69     		ldr	r3, [r1, #24]
 765              	.LVL93:
 422:c_string.c    ****       return;	// raise ? ArgumentError
 766              		.loc 1 422 0
 767 0006 9A1E     		subs	r2, r3, #2
 768              	.LVL94:
 769 0008 222A     		cmp	r2, #34
 770 000a 01D9     		bls	.L65
 771 000c 38BD     		pop	{r3, r4, r5, pc}
 772              	.LVL95:
 773              	.L67:
 419:c_string.c    ****   if( argc ) {
 774              		.loc 1 419 0
 775 000e 0A23     		movs	r3, #10
 776              	.LVL96:
 777              	.L65:
 778 0010 0C46     		mov	r4, r1
 779              	.LVL97:
 780              	.LBB181:
 781              	.LBB182:
 782              		.loc 2 80 0
 783 0012 8A68     		ldr	r2, [r1, #8]
 784              	.LVL98:
 785              	.LBE182:
 786              	.LBE181:
 427:c_string.c    **** 
 787              		.loc 1 427 0
 788 0014 1946     		mov	r1, r3
 789              	.LVL99:
 790 0016 9068     		ldr	r0, [r2, #8]
 791              	.LVL100:
 792 0018 FFF7FEFF 		bl	mrbc_atoi
 793              	.LVL101:
 794 001c 0546     		mov	r5, r0
 795              	.LVL102:
 796              	.LBB183:
 429:c_string.c    **** }
 797              		.loc 1 429 0
 798 001e 2046     		mov	r0, r4
 799              	.LVL103:
 800 0020 FFF7FEFF 		bl	mrbc_dec_ref_counter
 801              	.LVL104:
 802 0024 0423     		movs	r3, #4
 803 0026 2370     		strb	r3, [r4]
 804 0028 A560     		str	r5, [r4, #8]
 805 002a 38BD     		pop	{r3, r4, r5, pc}
 806              	.LBE183:
ARM GAS  C:\Users\164\AppData\Local\Temp\cc3ssgoH.s 			page 38


 807              		.cfi_endproc
 808              	.LFE102:
 809              		.size	c_string_to_i, .-c_string_to_i
 810              		.section	.text.c_string_start_with,"ax",%progbits
 811              		.align	2
 812              		.thumb
 813              		.thumb_func
 814              		.type	c_string_start_with, %function
 815              	c_string_start_with:
 816              	.LFB130:
1142:c_string.c    **** 
1143:c_string.c    **** static int tr_main( struct VM *vm, mrbc_value v[], int argc )
1144:c_string.c    **** {
1145:c_string.c    ****   if( !(argc == 2 && v[1].tt == MRBC_TT_STRING && v[2].tt == MRBC_TT_STRING)) {
1146:c_string.c    ****     console_print("ArgumentError\n");	// raise?
1147:c_string.c    ****     return -1;
1148:c_string.c    ****   }
1149:c_string.c    **** 
1150:c_string.c    ****   struct tr_pattern *pat = tr_parse_pattern( vm, &v[1], 1 );
1151:c_string.c    ****   if( pat == NULL ) return 0;
1152:c_string.c    **** 
1153:c_string.c    ****   struct tr_pattern *rep = tr_parse_pattern( vm, &v[2], 0 );
1154:c_string.c    **** 
1155:c_string.c    ****   int flag_changed = 0;
1156:c_string.c    ****   char *s = mrbc_string_cstr( &v[0] );
1157:c_string.c    ****   int len = mrbc_string_size( &v[0] );
1158:c_string.c    ****   int i;
1159:c_string.c    ****   for( i = 0; i < len; i++ ) {
1160:c_string.c    ****     int n = tr_find_character( pat, s[i] );
1161:c_string.c    ****     if( n < 0 ) continue;
1162:c_string.c    **** 
1163:c_string.c    ****     flag_changed = 1;
1164:c_string.c    ****     if( rep == NULL ) {
1165:c_string.c    ****       memmove( s + i, s + i + 1, len - i );
1166:c_string.c    ****       len--;
1167:c_string.c    ****       i--;
1168:c_string.c    ****     } else {
1169:c_string.c    ****       s[i] = tr_get_character( rep, n );
1170:c_string.c    ****     }
1171:c_string.c    ****   }
1172:c_string.c    **** 
1173:c_string.c    ****   tr_free_pattern( pat );
1174:c_string.c    ****   tr_free_pattern( rep );
1175:c_string.c    **** 
1176:c_string.c    ****   v[0].string->size = len;
1177:c_string.c    ****   v[0].string->data[len] = 0;
1178:c_string.c    **** 
1179:c_string.c    ****   return flag_changed;
1180:c_string.c    **** }
1181:c_string.c    **** 
1182:c_string.c    **** static void c_string_tr(struct VM *vm, mrbc_value v[], int argc)
1183:c_string.c    **** {
1184:c_string.c    ****   mrb_value ret = mrbc_string_dup( vm, &v[0] );
1185:c_string.c    ****   SET_RETURN( ret );
1186:c_string.c    ****   tr_main(vm, v, argc);
1187:c_string.c    **** }
1188:c_string.c    **** 
ARM GAS  C:\Users\164\AppData\Local\Temp\cc3ssgoH.s 			page 39


1189:c_string.c    **** 
1190:c_string.c    **** //================================================================
1191:c_string.c    **** /*! (method) tr!
1192:c_string.c    **** */
1193:c_string.c    **** static void c_string_tr_self(struct VM *vm, mrbc_value v[], int argc)
1194:c_string.c    **** {
1195:c_string.c    ****   int flag_changed = tr_main(vm, v, argc);
1196:c_string.c    **** 
1197:c_string.c    ****   if( !flag_changed ) {
1198:c_string.c    ****     SET_NIL_RETURN();
1199:c_string.c    ****   }
1200:c_string.c    **** }
1201:c_string.c    **** 
1202:c_string.c    **** 
1203:c_string.c    **** //================================================================
1204:c_string.c    **** /*! (method) start_with?
1205:c_string.c    **** */
1206:c_string.c    **** static void c_string_start_with(struct VM *vm, mrbc_value v[], int argc)
1207:c_string.c    **** {
 817              		.loc 1 1207 0
 818              		.cfi_startproc
 819              		@ args = 0, pretend = 0, frame = 0
 820              		@ frame_needed = 0, uses_anonymous_args = 0
 821              	.LVL105:
 822 0000 38B5     		push	{r3, r4, r5, lr}
 823              		.cfi_def_cfa_offset 16
 824              		.cfi_offset 3, -16
 825              		.cfi_offset 4, -12
 826              		.cfi_offset 5, -8
 827              		.cfi_offset 14, -4
1208:c_string.c    ****   if( !(argc == 1 && v[1].tt == MRBC_TT_STRING)) {
 828              		.loc 1 1208 0
 829 0002 012A     		cmp	r2, #1
 830 0004 04D1     		bne	.L70
 831 0006 0C46     		mov	r4, r1
 832              		.loc 1 1208 0 is_stmt 0 discriminator 1
 833 0008 91F91030 		ldrsb	r3, [r1, #16]
 834 000c 172B     		cmp	r3, #23
 835 000e 05D0     		beq	.L71
 836              	.L70:
 837              	.LVL106:
 838              	.LBB194:
 839              	.LBB195:
 840              		.file 3 "console.h"
   1:console.h     **** /*! @file
   2:console.h     ****   @brief
   3:console.h     ****   console output module. (not yet input)
   4:console.h     **** 
   5:console.h     ****   <pre>
   6:console.h     ****   Copyright (C) 2015-2018 Kyushu Institute of Technology.
   7:console.h     ****   Copyright (C) 2015-2018 Shimane IT Open-Innovation Center.
   8:console.h     **** 
   9:console.h     ****   This file is distributed under BSD 3-Clause License.
  10:console.h     **** 
  11:console.h     ****   </pre>
  12:console.h     **** */
  13:console.h     **** 
ARM GAS  C:\Users\164\AppData\Local\Temp\cc3ssgoH.s 			page 40


  14:console.h     **** #ifndef MRBC_SRC_CONSOLE_H_
  15:console.h     **** #define MRBC_SRC_CONSOLE_H_
  16:console.h     **** 
  17:console.h     **** #include <stdint.h>
  18:console.h     **** #include <stdarg.h>
  19:console.h     **** #include <string.h>
  20:console.h     **** #include "hal/hal.h"
  21:console.h     **** 
  22:console.h     **** #ifdef __cplusplus
  23:console.h     **** extern "C" {
  24:console.h     **** #endif
  25:console.h     **** 
  26:console.h     **** 
  27:console.h     **** //================================================================
  28:console.h     **** /*! printf tiny (mruby/c) version data container.
  29:console.h     **** */
  30:console.h     **** typedef struct RPrintf {
  31:console.h     ****   char *buf;		//!< output buffer.
  32:console.h     ****   const char *buf_end;	//!< output buffer end point.
  33:console.h     ****   char *p;		//!< output buffer write point.
  34:console.h     ****   const char *fstr;	//!< format string. (e.g. "%d %03x")
  35:console.h     **** 
  36:console.h     ****   struct RPrintfFormat {
  37:console.h     ****     char type;				//!< format char. (e.g. 'd','f','x'...)
  38:console.h     ****     unsigned int flag_plus : 1;
  39:console.h     ****     unsigned int flag_minus : 1;
  40:console.h     ****     unsigned int flag_space : 1;
  41:console.h     ****     unsigned int flag_zero : 1;
  42:console.h     ****     int width;				//!< display width. (e.g. %10d as 10)
  43:console.h     ****     int precision;			//!< precision (e.g. %5.2f as 2)
  44:console.h     ****   } fmt;
  45:console.h     **** } mrbc_printf;
  46:console.h     **** 
  47:console.h     **** 
  48:console.h     **** void console_printf(const char *fstr, ...);
  49:console.h     **** int mrbc_printf_main(mrbc_printf *pf);
  50:console.h     **** int mrbc_printf_char(mrbc_printf *pf, int ch);
  51:console.h     **** int mrbc_printf_bstr(mrbc_printf *pf, const char *str, int len, int pad);
  52:console.h     **** int mrbc_printf_int(mrbc_printf *pf, mrbc_int value, int base);
  53:console.h     **** int mrbc_printf_float(mrbc_printf *pf, double value);
  54:console.h     **** void mrbc_printf_replace_buffer(mrbc_printf *pf, char *buf, int size);
  55:console.h     **** 
  56:console.h     **** 
  57:console.h     **** //================================================================
  58:console.h     **** /*! output a character
  59:console.h     **** 
  60:console.h     ****   @param  c	character
  61:console.h     **** */
  62:console.h     **** static inline void console_putchar(char c)
  63:console.h     **** {
  64:console.h     ****   hal_write(1, &c, 1);
  65:console.h     **** }
  66:console.h     **** 
  67:console.h     **** 
  68:console.h     **** //================================================================
  69:console.h     **** /*! output string
  70:console.h     **** 
ARM GAS  C:\Users\164\AppData\Local\Temp\cc3ssgoH.s 			page 41


  71:console.h     ****   @param str	str
  72:console.h     **** */
  73:console.h     **** static inline void console_print(const char *str)
  74:console.h     **** {
  75:console.h     ****   hal_write(1, str, strlen(str));
 841              		.loc 3 75 0 is_stmt 1
 842 0010 0E22     		movs	r2, #14
 843              	.LVL107:
 844 0012 0E49     		ldr	r1, .L78
 845              	.LVL108:
 846 0014 0120     		movs	r0, #1
 847              	.LVL109:
 848 0016 FFF7FEFF 		bl	hal_write
 849              	.LVL110:
 850 001a 38BD     		pop	{r3, r4, r5, pc}
 851              	.LVL111:
 852              	.L71:
 853              	.LBE195:
 854              	.LBE194:
 855              	.LBB196:
 856              	.LBB197:
  72:c_string.h    **** }
 857              		.loc 2 72 0
 858 001c 8B68     		ldr	r3, [r1, #8]
 859 001e 9888     		ldrh	r0, [r3, #4]
 860              	.LVL112:
 861              	.LBE197:
 862              	.LBE196:
 863              	.LBB198:
 864              	.LBB199:
 865 0020 8969     		ldr	r1, [r1, #24]
 866              	.LVL113:
 867 0022 8A88     		ldrh	r2, [r1, #4]
 868              	.LVL114:
 869              	.LBE199:
 870              	.LBE198:
1209:c_string.c    ****     console_print("ArgumentError\n");	// raise?
1210:c_string.c    ****     return;
1211:c_string.c    ****   }
1212:c_string.c    **** 
1213:c_string.c    ****   int ret;
1214:c_string.c    ****   if( mrbc_string_size(&v[0]) < mrbc_string_size(&v[1]) ) {
 871              		.loc 1 1214 0
 872 0024 8242     		cmp	r2, r0
 873 0026 07DC     		bgt	.L75
1215:c_string.c    ****     ret = 0;
1216:c_string.c    ****   } else {
1217:c_string.c    ****     ret = (memcmp( mrbc_string_cstr(&v[0]), mrbc_string_cstr(&v[1]),
 874              		.loc 1 1217 0
 875 0028 8968     		ldr	r1, [r1, #8]
 876 002a 9868     		ldr	r0, [r3, #8]
 877 002c FFF7FEFF 		bl	memcmp
 878              	.LVL115:
1218:c_string.c    **** 		   mrbc_string_size(&v[1]) ) == 0);
 879              		.loc 1 1218 0
 880 0030 B0FA80F5 		clz	r5, r0
 881 0034 6D09     		lsrs	r5, r5, #5
ARM GAS  C:\Users\164\AppData\Local\Temp\cc3ssgoH.s 			page 42


 882              	.LVL116:
 883 0036 00E0     		b	.L73
 884              	.LVL117:
 885              	.L75:
1215:c_string.c    ****     ret = 0;
 886              		.loc 1 1215 0
 887 0038 0025     		movs	r5, #0
 888              	.L73:
 889              	.LVL118:
1219:c_string.c    ****   }
1220:c_string.c    **** 
1221:c_string.c    ****   SET_BOOL_RETURN(ret);
 890              		.loc 1 1221 0
 891 003a 2046     		mov	r0, r4
 892 003c FFF7FEFF 		bl	mrbc_dec_ref_counter
 893              	.LVL119:
 894 0040 0DB1     		cbz	r5, .L76
 895 0042 0323     		movs	r3, #3
 896 0044 00E0     		b	.L74
 897              	.L76:
 898 0046 0223     		movs	r3, #2
 899              	.L74:
 900              		.loc 1 1221 0 is_stmt 0 discriminator 4
 901 0048 2370     		strb	r3, [r4]
 902 004a 38BD     		pop	{r3, r4, r5, pc}
 903              	.LVL120:
 904              	.L79:
 905              		.align	2
 906              	.L78:
 907 004c 00000000 		.word	.LC0
 908              		.cfi_endproc
 909              	.LFE130:
 910              		.size	c_string_start_with, .-c_string_start_with
 911              		.section	.text.c_string_end_with,"ax",%progbits
 912              		.align	2
 913              		.thumb
 914              		.thumb_func
 915              		.type	c_string_end_with, %function
 916              	c_string_end_with:
 917              	.LFB131:
1222:c_string.c    **** }
1223:c_string.c    **** 
1224:c_string.c    **** 
1225:c_string.c    **** //================================================================
1226:c_string.c    **** /*! (method) end_with?
1227:c_string.c    **** */
1228:c_string.c    **** static void c_string_end_with(struct VM *vm, mrbc_value v[], int argc)
1229:c_string.c    **** {
 918              		.loc 1 1229 0 is_stmt 1
 919              		.cfi_startproc
 920              		@ args = 0, pretend = 0, frame = 0
 921              		@ frame_needed = 0, uses_anonymous_args = 0
 922              	.LVL121:
 923 0000 38B5     		push	{r3, r4, r5, lr}
 924              		.cfi_def_cfa_offset 16
 925              		.cfi_offset 3, -16
 926              		.cfi_offset 4, -12
ARM GAS  C:\Users\164\AppData\Local\Temp\cc3ssgoH.s 			page 43


 927              		.cfi_offset 5, -8
 928              		.cfi_offset 14, -4
1230:c_string.c    ****   if( !(argc == 1 && v[1].tt == MRBC_TT_STRING)) {
 929              		.loc 1 1230 0
 930 0002 012A     		cmp	r2, #1
 931 0004 04D1     		bne	.L81
 932 0006 0C46     		mov	r4, r1
 933              		.loc 1 1230 0 is_stmt 0 discriminator 1
 934 0008 91F91030 		ldrsb	r3, [r1, #16]
 935 000c 172B     		cmp	r3, #23
 936 000e 05D0     		beq	.L82
 937              	.L81:
 938              	.LVL122:
 939              	.LBB210:
 940              	.LBB211:
 941              		.loc 3 75 0 is_stmt 1
 942 0010 0E22     		movs	r2, #14
 943              	.LVL123:
 944 0012 0F49     		ldr	r1, .L89
 945              	.LVL124:
 946 0014 0120     		movs	r0, #1
 947              	.LVL125:
 948 0016 FFF7FEFF 		bl	hal_write
 949              	.LVL126:
 950 001a 38BD     		pop	{r3, r4, r5, pc}
 951              	.LVL127:
 952              	.L82:
 953              	.LBE211:
 954              	.LBE210:
 955              	.LBB212:
 956              	.LBB213:
  72:c_string.h    **** }
 957              		.loc 2 72 0
 958 001c 8968     		ldr	r1, [r1, #8]
 959              	.LVL128:
 960 001e 8888     		ldrh	r0, [r1, #4]
 961              	.LVL129:
 962              	.LBE213:
 963              	.LBE212:
 964              	.LBB214:
 965              	.LBB215:
 966 0020 A369     		ldr	r3, [r4, #24]
 967 0022 9A88     		ldrh	r2, [r3, #4]
 968              	.LVL130:
 969              	.LBE215:
 970              	.LBE214:
1231:c_string.c    ****     console_print("ArgumentError\n");	// raise?
1232:c_string.c    ****     return;
1233:c_string.c    ****   }
1234:c_string.c    **** 
1235:c_string.c    ****   int ret;
1236:c_string.c    ****   int offset = mrbc_string_size(&v[0]) - mrbc_string_size(&v[1]);
1237:c_string.c    ****   if( offset < 0 ) {
 971              		.loc 1 1237 0
 972 0024 801A     		subs	r0, r0, r2
 973              	.LVL131:
 974 0026 08D4     		bmi	.L86
ARM GAS  C:\Users\164\AppData\Local\Temp\cc3ssgoH.s 			page 44


 975              	.LVL132:
 976              	.LBB216:
 977              	.LBB217:
 978              		.loc 2 80 0
 979 0028 8D68     		ldr	r5, [r1, #8]
 980              	.LVL133:
 981              	.LBE217:
 982              	.LBE216:
1238:c_string.c    ****     ret = 0;
1239:c_string.c    ****   } else {
1240:c_string.c    ****     ret = (memcmp( mrbc_string_cstr(&v[0]) + offset, mrbc_string_cstr(&v[1]),
 983              		.loc 1 1240 0
 984 002a 9968     		ldr	r1, [r3, #8]
 985 002c 2844     		add	r0, r0, r5
 986              	.LVL134:
 987 002e FFF7FEFF 		bl	memcmp
 988              	.LVL135:
1241:c_string.c    **** 		   mrbc_string_size(&v[1]) ) == 0);
 989              		.loc 1 1241 0
 990 0032 B0FA80F5 		clz	r5, r0
 991 0036 6D09     		lsrs	r5, r5, #5
 992              	.LVL136:
 993 0038 00E0     		b	.L84
 994              	.LVL137:
 995              	.L86:
1238:c_string.c    ****     ret = 0;
 996              		.loc 1 1238 0
 997 003a 0025     		movs	r5, #0
 998              	.LVL138:
 999              	.L84:
1242:c_string.c    ****   }
1243:c_string.c    **** 
1244:c_string.c    ****   SET_BOOL_RETURN(ret);
 1000              		.loc 1 1244 0
 1001 003c 2046     		mov	r0, r4
 1002 003e FFF7FEFF 		bl	mrbc_dec_ref_counter
 1003              	.LVL139:
 1004 0042 0DB1     		cbz	r5, .L87
 1005 0044 0323     		movs	r3, #3
 1006 0046 00E0     		b	.L85
 1007              	.L87:
 1008 0048 0223     		movs	r3, #2
 1009              	.L85:
 1010              		.loc 1 1244 0 is_stmt 0 discriminator 4
 1011 004a 2370     		strb	r3, [r4]
 1012 004c 38BD     		pop	{r3, r4, r5, pc}
 1013              	.LVL140:
 1014              	.L90:
 1015 004e 00BF     		.align	2
 1016              	.L89:
 1017 0050 00000000 		.word	.LC0
 1018              		.cfi_endproc
 1019              	.LFE131:
 1020              		.size	c_string_end_with, .-c_string_end_with
 1021              		.section	.text.tr_main,"ax",%progbits
 1022              		.align	2
 1023              		.thumb
ARM GAS  C:\Users\164\AppData\Local\Temp\cc3ssgoH.s 			page 45


 1024              		.thumb_func
 1025              		.type	tr_main, %function
 1026              	tr_main:
 1027              	.LFB127:
1144:c_string.c    ****   if( !(argc == 2 && v[1].tt == MRBC_TT_STRING && v[2].tt == MRBC_TT_STRING)) {
 1028              		.loc 1 1144 0 is_stmt 1
 1029              		.cfi_startproc
 1030              		@ args = 0, pretend = 0, frame = 8
 1031              		@ frame_needed = 0, uses_anonymous_args = 0
 1032              	.LVL141:
 1033 0000 2DE9F04F 		push	{r4, r5, r6, r7, r8, r9, r10, fp, lr}
 1034              		.cfi_def_cfa_offset 36
 1035              		.cfi_offset 4, -36
 1036              		.cfi_offset 5, -32
 1037              		.cfi_offset 6, -28
 1038              		.cfi_offset 7, -24
 1039              		.cfi_offset 8, -20
 1040              		.cfi_offset 9, -16
 1041              		.cfi_offset 10, -12
 1042              		.cfi_offset 11, -8
 1043              		.cfi_offset 14, -4
 1044 0004 83B0     		sub	sp, sp, #12
 1045              		.cfi_def_cfa_offset 48
1145:c_string.c    ****     console_print("ArgumentError\n");	// raise?
 1046              		.loc 1 1145 0
 1047 0006 022A     		cmp	r2, #2
 1048 0008 09D1     		bne	.L92
 1049 000a 0446     		mov	r4, r0
 1050 000c 8B46     		mov	fp, r1
1145:c_string.c    ****     console_print("ArgumentError\n");	// raise?
 1051              		.loc 1 1145 0 is_stmt 0 discriminator 1
 1052 000e 91F91030 		ldrsb	r3, [r1, #16]
 1053 0012 172B     		cmp	r3, #23
 1054 0014 03D1     		bne	.L92
1145:c_string.c    ****     console_print("ArgumentError\n");	// raise?
 1055              		.loc 1 1145 0 discriminator 2
 1056 0016 91F92030 		ldrsb	r3, [r1, #32]
 1057 001a 172B     		cmp	r3, #23
 1058 001c 07D0     		beq	.L93
 1059              	.L92:
 1060              	.LVL142:
 1061              	.LBB225:
 1062              	.LBB226:
 1063              		.loc 3 75 0 is_stmt 1
 1064 001e 0E22     		movs	r2, #14
 1065              	.LVL143:
 1066 0020 2649     		ldr	r1, .L101
 1067              	.LVL144:
 1068 0022 0120     		movs	r0, #1
 1069              	.LVL145:
 1070 0024 FFF7FEFF 		bl	hal_write
 1071              	.LVL146:
 1072              	.LBE226:
 1073              	.LBE225:
1147:c_string.c    ****   }
 1074              		.loc 1 1147 0
 1075 0028 4FF0FF30 		mov	r0, #-1
ARM GAS  C:\Users\164\AppData\Local\Temp\cc3ssgoH.s 			page 46


 1076 002c 43E0     		b	.L94
 1077              	.LVL147:
 1078              	.L93:
1150:c_string.c    ****   if( pat == NULL ) return 0;
 1079              		.loc 1 1150 0
 1080 002e 0122     		movs	r2, #1
 1081              	.LVL148:
 1082 0030 1031     		adds	r1, r1, #16
 1083              	.LVL149:
 1084 0032 FFF7FEFF 		bl	tr_parse_pattern
 1085              	.LVL150:
1151:c_string.c    **** 
 1086              		.loc 1 1151 0
 1087 0036 0190     		str	r0, [sp, #4]
 1088 0038 0028     		cmp	r0, #0
 1089 003a 3BD0     		beq	.L99
1153:c_string.c    **** 
 1090              		.loc 1 1153 0
 1091 003c 0022     		movs	r2, #0
 1092 003e 0BF12001 		add	r1, fp, #32
 1093 0042 2046     		mov	r0, r4
 1094              	.LVL151:
 1095 0044 FFF7FEFF 		bl	tr_parse_pattern
 1096              	.LVL152:
 1097 0048 8046     		mov	r8, r0
 1098              	.LVL153:
 1099              	.LBB227:
 1100              	.LBB228:
 1101              		.loc 2 80 0
 1102 004a DBF80830 		ldr	r3, [fp, #8]
 1103 004e 9D68     		ldr	r5, [r3, #8]
 1104              	.LVL154:
 1105              	.LBE228:
 1106              	.LBE227:
 1107              	.LBB229:
 1108              	.LBB230:
  72:c_string.h    **** }
 1109              		.loc 2 72 0
 1110 0050 9F88     		ldrh	r7, [r3, #4]
 1111              	.LVL155:
 1112              	.LBE230:
 1113              	.LBE229:
1159:c_string.c    ****     int n = tr_find_character( pat, s[i] );
 1114              		.loc 1 1159 0
 1115 0052 0024     		movs	r4, #0
 1116              	.LVL156:
1155:c_string.c    ****   char *s = mrbc_string_cstr( &v[0] );
 1117              		.loc 1 1155 0
 1118 0054 A246     		mov	r10, r4
1159:c_string.c    ****     int n = tr_find_character( pat, s[i] );
 1119              		.loc 1 1159 0
 1120 0056 1BE0     		b	.L95
 1121              	.LVL157:
 1122              	.L98:
 1123              	.LBB231:
1160:c_string.c    ****     if( n < 0 ) continue;
 1124              		.loc 1 1160 0
ARM GAS  C:\Users\164\AppData\Local\Temp\cc3ssgoH.s 			page 47


 1125 0058 2E19     		adds	r6, r5, r4
 1126 005a 295D     		ldrb	r1, [r5, r4]	@ zero_extendqisi2
 1127 005c 0198     		ldr	r0, [sp, #4]
 1128 005e FFF7FEFF 		bl	tr_find_character
 1129              	.LVL158:
1161:c_string.c    **** 
 1130              		.loc 1 1161 0
 1131 0062 011E     		subs	r1, r0, #0
 1132 0064 13DB     		blt	.L96
 1133              	.LVL159:
1164:c_string.c    ****       memmove( s + i, s + i + 1, len - i );
 1134              		.loc 1 1164 0
 1135 0066 B8F1000F 		cmp	r8, #0
 1136 006a 0AD1     		bne	.L97
1165:c_string.c    ****       len--;
 1137              		.loc 1 1165 0
 1138 006c 611C     		adds	r1, r4, #1
 1139 006e 3A1B     		subs	r2, r7, r4
 1140 0070 2944     		add	r1, r1, r5
 1141 0072 3046     		mov	r0, r6
 1142              	.LVL160:
 1143 0074 FFF7FEFF 		bl	memmove
 1144              	.LVL161:
1166:c_string.c    ****       i--;
 1145              		.loc 1 1166 0
 1146 0078 013F     		subs	r7, r7, #1
 1147              	.LVL162:
1167:c_string.c    ****     } else {
 1148              		.loc 1 1167 0
 1149 007a 013C     		subs	r4, r4, #1
 1150              	.LVL163:
1163:c_string.c    ****     if( rep == NULL ) {
 1151              		.loc 1 1163 0
 1152 007c 4FF0010A 		mov	r10, #1
 1153 0080 05E0     		b	.L96
 1154              	.LVL164:
 1155              	.L97:
1169:c_string.c    ****     }
 1156              		.loc 1 1169 0
 1157 0082 4046     		mov	r0, r8
 1158              	.LVL165:
 1159 0084 FFF7FEFF 		bl	tr_get_character
 1160              	.LVL166:
 1161 0088 3070     		strb	r0, [r6]
1163:c_string.c    ****     if( rep == NULL ) {
 1162              		.loc 1 1163 0
 1163 008a 4FF0010A 		mov	r10, #1
 1164              	.LVL167:
 1165              	.L96:
 1166              	.LBE231:
1159:c_string.c    ****     int n = tr_find_character( pat, s[i] );
 1167              		.loc 1 1159 0 discriminator 2
 1168 008e 0134     		adds	r4, r4, #1
 1169              	.LVL168:
 1170              	.L95:
1159:c_string.c    ****     int n = tr_find_character( pat, s[i] );
 1171              		.loc 1 1159 0 is_stmt 0 discriminator 1
ARM GAS  C:\Users\164\AppData\Local\Temp\cc3ssgoH.s 			page 48


 1172 0090 A742     		cmp	r7, r4
 1173 0092 E1DC     		bgt	.L98
1173:c_string.c    ****   tr_free_pattern( rep );
 1174              		.loc 1 1173 0 is_stmt 1
 1175 0094 0198     		ldr	r0, [sp, #4]
 1176 0096 FFF7FEFF 		bl	tr_free_pattern
 1177              	.LVL169:
1174:c_string.c    **** 
 1178              		.loc 1 1174 0
 1179 009a 4046     		mov	r0, r8
 1180 009c FFF7FEFF 		bl	tr_free_pattern
 1181              	.LVL170:
1176:c_string.c    ****   v[0].string->data[len] = 0;
 1182              		.loc 1 1176 0
 1183 00a0 DBF80830 		ldr	r3, [fp, #8]
 1184 00a4 9F80     		strh	r7, [r3, #4]	@ movhi
1177:c_string.c    **** 
 1185              		.loc 1 1177 0
 1186 00a6 DBF80830 		ldr	r3, [fp, #8]
 1187 00aa 9B68     		ldr	r3, [r3, #8]
 1188 00ac 0022     		movs	r2, #0
 1189 00ae DA55     		strb	r2, [r3, r7]
1179:c_string.c    **** }
 1190              		.loc 1 1179 0
 1191 00b0 5046     		mov	r0, r10
 1192 00b2 00E0     		b	.L94
 1193              	.LVL171:
 1194              	.L99:
1151:c_string.c    **** 
 1195              		.loc 1 1151 0
 1196 00b4 0020     		movs	r0, #0
 1197              	.LVL172:
 1198              	.L94:
1180:c_string.c    **** 
 1199              		.loc 1 1180 0
 1200 00b6 03B0     		add	sp, sp, #12
 1201              		.cfi_def_cfa_offset 36
 1202              		@ sp needed
 1203 00b8 BDE8F08F 		pop	{r4, r5, r6, r7, r8, r9, r10, fp, pc}
 1204              	.L102:
 1205              		.align	2
 1206              	.L101:
 1207 00bc 00000000 		.word	.LC0
 1208              		.cfi_endproc
 1209              	.LFE127:
 1210              		.size	tr_main, .-tr_main
 1211              		.section	.text.c_string_tr_self,"ax",%progbits
 1212              		.align	2
 1213              		.thumb
 1214              		.thumb_func
 1215              		.type	c_string_tr_self, %function
 1216              	c_string_tr_self:
 1217              	.LFB129:
1194:c_string.c    ****   int flag_changed = tr_main(vm, v, argc);
 1218              		.loc 1 1194 0
 1219              		.cfi_startproc
 1220              		@ args = 0, pretend = 0, frame = 0
ARM GAS  C:\Users\164\AppData\Local\Temp\cc3ssgoH.s 			page 49


 1221              		@ frame_needed = 0, uses_anonymous_args = 0
 1222              	.LVL173:
 1223 0000 10B5     		push	{r4, lr}
 1224              		.cfi_def_cfa_offset 8
 1225              		.cfi_offset 4, -8
 1226              		.cfi_offset 14, -4
 1227 0002 0C46     		mov	r4, r1
1195:c_string.c    **** 
 1228              		.loc 1 1195 0
 1229 0004 FFF7FEFF 		bl	tr_main
 1230              	.LVL174:
1197:c_string.c    ****     SET_NIL_RETURN();
 1231              		.loc 1 1197 0
 1232 0008 20B9     		cbnz	r0, .L103
1198:c_string.c    ****   }
 1233              		.loc 1 1198 0
 1234 000a 2046     		mov	r0, r4
 1235              	.LVL175:
 1236 000c FFF7FEFF 		bl	mrbc_dec_ref_counter
 1237              	.LVL176:
 1238 0010 0123     		movs	r3, #1
 1239 0012 2370     		strb	r3, [r4]
 1240              	.L103:
 1241 0014 10BD     		pop	{r4, pc}
 1242              		.cfi_endproc
 1243              	.LFE129:
 1244              		.size	c_string_tr_self, .-c_string_tr_self
 1245 0016 00BF     		.section	.text.c_string_insert,"ax",%progbits
 1246              		.align	2
 1247              		.thumb
 1248              		.thumb_func
 1249              		.type	c_string_insert, %function
 1250              	c_string_insert:
 1251              	.LFB106:
 529:c_string.c    ****   int nth;
 1252              		.loc 1 529 0
 1253              		.cfi_startproc
 1254              		@ args = 0, pretend = 0, frame = 0
 1255              		@ frame_needed = 0, uses_anonymous_args = 0
 1256              	.LVL177:
 1257 0000 2DE9F84F 		push	{r3, r4, r5, r6, r7, r8, r9, r10, fp, lr}
 1258              		.cfi_def_cfa_offset 40
 1259              		.cfi_offset 3, -40
 1260              		.cfi_offset 4, -36
 1261              		.cfi_offset 5, -32
 1262              		.cfi_offset 6, -28
 1263              		.cfi_offset 7, -24
 1264              		.cfi_offset 8, -20
 1265              		.cfi_offset 9, -16
 1266              		.cfi_offset 10, -12
 1267              		.cfi_offset 11, -8
 1268              		.cfi_offset 14, -4
 1269 0004 0C46     		mov	r4, r1
 537:c_string.c    ****       v[1].tt == MRBC_TT_FIXNUM &&
 1270              		.loc 1 537 0
 1271 0006 022A     		cmp	r2, #2
 1272 0008 0CD1     		bne	.L107
ARM GAS  C:\Users\164\AppData\Local\Temp\cc3ssgoH.s 			page 50


 538:c_string.c    ****       v[2].tt == MRBC_TT_STRING ) {
 1273              		.loc 1 538 0 discriminator 1
 1274 000a 91F91030 		ldrsb	r3, [r1, #16]
 537:c_string.c    ****       v[1].tt == MRBC_TT_FIXNUM &&
 1275              		.loc 1 537 0 discriminator 1
 1276 000e 042B     		cmp	r3, #4
 1277 0010 08D1     		bne	.L107
 539:c_string.c    ****     nth = v[1].i;
 1278              		.loc 1 539 0
 1279 0012 91F92030 		ldrsb	r3, [r1, #32]
 538:c_string.c    ****       v[2].tt == MRBC_TT_STRING ) {
 1280              		.loc 1 538 0
 1281 0016 172B     		cmp	r3, #23
 1282 0018 04D1     		bne	.L107
 540:c_string.c    ****     len = 1;
 1283              		.loc 1 540 0
 1284 001a 8D69     		ldr	r5, [r1, #24]
 1285              	.LVL178:
 542:c_string.c    ****   }
 1286              		.loc 1 542 0
 1287 001c 01F1200A 		add	r10, r1, #32
 1288              	.LVL179:
 541:c_string.c    ****     val = &v[2];
 1289              		.loc 1 541 0
 1290 0020 0126     		movs	r6, #1
 542:c_string.c    ****   }
 1291              		.loc 1 542 0
 1292 0022 19E0     		b	.L108
 1293              	.LVL180:
 1294              	.L107:
 547:c_string.c    **** 	   v[1].tt == MRBC_TT_FIXNUM &&
 1295              		.loc 1 547 0
 1296 0024 032A     		cmp	r2, #3
 1297 0026 10D1     		bne	.L109
 548:c_string.c    **** 	   v[2].tt == MRBC_TT_FIXNUM &&
 1298              		.loc 1 548 0 discriminator 1
 1299 0028 94F91030 		ldrsb	r3, [r4, #16]
 547:c_string.c    **** 	   v[1].tt == MRBC_TT_FIXNUM &&
 1300              		.loc 1 547 0 discriminator 1
 1301 002c 042B     		cmp	r3, #4
 1302 002e 0CD1     		bne	.L109
 549:c_string.c    **** 	   v[3].tt == MRBC_TT_STRING ) {
 1303              		.loc 1 549 0
 1304 0030 94F92030 		ldrsb	r3, [r4, #32]
 548:c_string.c    **** 	   v[2].tt == MRBC_TT_FIXNUM &&
 1305              		.loc 1 548 0
 1306 0034 042B     		cmp	r3, #4
 1307 0036 08D1     		bne	.L109
 550:c_string.c    ****     nth = v[1].i;
 1308              		.loc 1 550 0
 1309 0038 94F93030 		ldrsb	r3, [r4, #48]
 549:c_string.c    **** 	   v[3].tt == MRBC_TT_STRING ) {
 1310              		.loc 1 549 0
 1311 003c 172B     		cmp	r3, #23
 1312 003e 04D1     		bne	.L109
 551:c_string.c    ****     len = v[2].i;
 1313              		.loc 1 551 0
ARM GAS  C:\Users\164\AppData\Local\Temp\cc3ssgoH.s 			page 51


 1314 0040 A569     		ldr	r5, [r4, #24]
 1315              	.LVL181:
 552:c_string.c    ****     val = &v[3];
 1316              		.loc 1 552 0
 1317 0042 A66A     		ldr	r6, [r4, #40]
 1318              	.LVL182:
 553:c_string.c    ****   }
 1319              		.loc 1 553 0
 1320 0044 04F1300A 		add	r10, r4, #48
 1321              	.LVL183:
 1322 0048 06E0     		b	.L108
 1323              	.LVL184:
 1324              	.L109:
 1325              	.LBB240:
 1326              	.LBB241:
 1327              		.loc 3 75 0
 1328 004a 0C22     		movs	r2, #12
 1329              	.LVL185:
 1330 004c 2249     		ldr	r1, .L117
 1331              	.LVL186:
 1332 004e 0120     		movs	r0, #1
 1333              	.LVL187:
 1334 0050 FFF7FEFF 		bl	hal_write
 1335              	.LVL188:
 1336 0054 BDE8F88F 		pop	{r3, r4, r5, r6, r7, r8, r9, r10, fp, pc}
 1337              	.LVL189:
 1338              	.L108:
 1339              	.LBE241:
 1340              	.LBE240:
 563:c_string.c    ****   int len2 = val->string->size;
 1341              		.loc 1 563 0
 1342 0058 A368     		ldr	r3, [r4, #8]
 1343 005a 9F88     		ldrh	r7, [r3, #4]
 1344              	.LVL190:
 564:c_string.c    ****   if( nth < 0 ) nth = len1 + nth;               // adjust to positive number.
 1345              		.loc 1 564 0
 1346 005c DAF80820 		ldr	r2, [r10, #8]
 1347              	.LVL191:
 1348 0060 B2F80490 		ldrh	r9, [r2, #4]
 1349              	.LVL192:
 565:c_string.c    ****   if( len > len1 - nth ) len = len1 - nth;
 1350              		.loc 1 565 0
 1351 0064 002D     		cmp	r5, #0
 1352 0066 00DA     		bge	.L111
 565:c_string.c    ****   if( len > len1 - nth ) len = len1 - nth;
 1353              		.loc 1 565 0 is_stmt 0 discriminator 1
 1354 0068 3D44     		add	r5, r5, r7
 1355              	.LVL193:
 1356              	.L111:
 566:c_string.c    ****   if( nth < 0 || nth > len1 || len < 0) {
 1357              		.loc 1 566 0 is_stmt 1
 1358 006a C5EB0708 		rsb	r8, r5, r7
 1359 006e 4645     		cmp	r6, r8
 1360 0070 00DD     		ble	.L112
 1361 0072 4646     		mov	r6, r8
 1362              	.LVL194:
 1363              	.L112:
ARM GAS  C:\Users\164\AppData\Local\Temp\cc3ssgoH.s 			page 52


 567:c_string.c    ****     console_print( "IndexError\n" );  // raise?
 1364              		.loc 1 567 0
 1365 0074 002D     		cmp	r5, #0
 1366 0076 03DB     		blt	.L113
 567:c_string.c    ****     console_print( "IndexError\n" );  // raise?
 1367              		.loc 1 567 0 is_stmt 0 discriminator 1
 1368 0078 BD42     		cmp	r5, r7
 1369 007a 01DC     		bgt	.L113
 567:c_string.c    ****     console_print( "IndexError\n" );  // raise?
 1370              		.loc 1 567 0 discriminator 2
 1371 007c 002E     		cmp	r6, #0
 1372 007e 06DA     		bge	.L114
 1373              	.L113:
 1374              	.LVL195:
 1375              	.LBB242:
 1376              	.LBB243:
 1377              		.loc 3 75 0 is_stmt 1
 1378 0080 0B22     		movs	r2, #11
 1379 0082 1649     		ldr	r1, .L117+4
 1380              	.LVL196:
 1381 0084 0120     		movs	r0, #1
 1382              	.LVL197:
 1383 0086 FFF7FEFF 		bl	hal_write
 1384              	.LVL198:
 1385 008a BDE8F88F 		pop	{r3, r4, r5, r6, r7, r8, r9, r10, fp, pc}
 1386              	.LVL199:
 1387              	.L114:
 1388              	.LBE243:
 1389              	.LBE242:
 572:c_string.c    ****   if( !str ) return;
 1390              		.loc 1 572 0
 1391 008e 07EB0902 		add	r2, r7, r9
 1392 0092 921B     		subs	r2, r2, r6
 1393 0094 0132     		adds	r2, r2, #1
 1394 0096 9968     		ldr	r1, [r3, #8]
 1395              	.LVL200:
 1396 0098 FFF7FEFF 		bl	mrbc_realloc
 1397              	.LVL201:
 573:c_string.c    **** 
 1398              		.loc 1 573 0
 1399 009c 8346     		mov	fp, r0
 1400 009e C0B1     		cbz	r0, .L106
 575:c_string.c    ****   memcpy( str + nth, mrbc_string_cstr(val), len2 );
 1401              		.loc 1 575 0
 1402 00a0 05EB0900 		add	r0, r5, r9
 1403              	.LVL202:
 1404 00a4 7119     		adds	r1, r6, r5
 1405 00a6 C6EB0802 		rsb	r2, r6, r8
 1406 00aa 0132     		adds	r2, r2, #1
 1407 00ac 5944     		add	r1, r1, fp
 1408 00ae 5844     		add	r0, r0, fp
 1409 00b0 FFF7FEFF 		bl	memmove
 1410              	.LVL203:
 1411              	.LBB244:
 1412              	.LBB245:
 1413              		.loc 2 80 0
 1414 00b4 DAF80830 		ldr	r3, [r10, #8]
ARM GAS  C:\Users\164\AppData\Local\Temp\cc3ssgoH.s 			page 53


 1415              	.LVL204:
 1416              	.LBE245:
 1417              	.LBE244:
 576:c_string.c    ****   v->string->size = len1 + len2 - len;
 1418              		.loc 1 576 0
 1419 00b8 4A46     		mov	r2, r9
 1420 00ba 9968     		ldr	r1, [r3, #8]
 1421 00bc 0BEB0500 		add	r0, fp, r5
 1422 00c0 FFF7FEFF 		bl	memcpy
 1423              	.LVL205:
 577:c_string.c    **** 
 1424              		.loc 1 577 0
 1425 00c4 A368     		ldr	r3, [r4, #8]
 1426 00c6 4F44     		add	r7, r7, r9
 1427              	.LVL206:
 1428 00c8 BE1B     		subs	r6, r7, r6
 1429              	.LVL207:
 1430 00ca 9E80     		strh	r6, [r3, #4]	@ movhi
 579:c_string.c    **** }
 1431              		.loc 1 579 0
 1432 00cc A368     		ldr	r3, [r4, #8]
 1433 00ce C3F808B0 		str	fp, [r3, #8]
 1434              	.L106:
 1435 00d2 BDE8F88F 		pop	{r3, r4, r5, r6, r7, r8, r9, r10, fp, pc}
 1436              	.LVL208:
 1437              	.L118:
 1438 00d6 00BF     		.align	2
 1439              	.L117:
 1440 00d8 10000000 		.word	.LC1
 1441 00dc 20000000 		.word	.LC2
 1442              		.cfi_endproc
 1443              	.LFE106:
 1444              		.size	c_string_insert, .-c_string_insert
 1445              		.section	.text.mrbc_string_new,"ax",%progbits
 1446              		.align	2
 1447              		.global	mrbc_string_new
 1448              		.thumb
 1449              		.thumb_func
 1450              		.type	mrbc_string_new, %function
 1451              	mrbc_string_new:
 1452              	.LFB87:
  59:c_string.c    ****   mrbc_value value = {.tt = MRBC_TT_STRING};
 1453              		.loc 1 59 0
 1454              		.cfi_startproc
 1455              		@ args = 0, pretend = 0, frame = 0
 1456              		@ frame_needed = 0, uses_anonymous_args = 0
 1457              	.LVL209:
 1458 0000 2DE9F041 		push	{r4, r5, r6, r7, r8, lr}
 1459              		.cfi_def_cfa_offset 24
 1460              		.cfi_offset 4, -24
 1461              		.cfi_offset 5, -20
 1462              		.cfi_offset 6, -16
 1463              		.cfi_offset 7, -12
 1464              		.cfi_offset 8, -8
 1465              		.cfi_offset 14, -4
 1466 0004 0446     		mov	r4, r0
 1467 0006 0F46     		mov	r7, r1
ARM GAS  C:\Users\164\AppData\Local\Temp\cc3ssgoH.s 			page 54


 1468 0008 9046     		mov	r8, r2
 1469 000a 1E46     		mov	r6, r3
  60:c_string.c    **** 
 1470              		.loc 1 60 0
 1471 000c 0023     		movs	r3, #0
 1472              	.LVL210:
 1473 000e 0360     		str	r3, [r0]
 1474 0010 4360     		str	r3, [r0, #4]
 1475 0012 8360     		str	r3, [r0, #8]
 1476 0014 C360     		str	r3, [r0, #12]
 1477 0016 1723     		movs	r3, #23
 1478 0018 0370     		strb	r3, [r0]
  66:c_string.c    ****   if( !h ) return value;		// ENOMEM
 1479              		.loc 1 66 0
 1480 001a 0C21     		movs	r1, #12
 1481              	.LVL211:
 1482 001c 3846     		mov	r0, r7
 1483              	.LVL212:
 1484 001e FFF7FEFF 		bl	mrbc_alloc
 1485              	.LVL213:
  67:c_string.c    **** 
 1486              		.loc 1 67 0
 1487 0022 E8B1     		cbz	r0, .L119
 1488 0024 0546     		mov	r5, r0
  69:c_string.c    ****   if( !str ) {				// ENOMEM
 1489              		.loc 1 69 0
 1490 0026 711C     		adds	r1, r6, #1
 1491 0028 3846     		mov	r0, r7
 1492              	.LVL214:
 1493 002a FFF7FEFF 		bl	mrbc_alloc
 1494              	.LVL215:
  70:c_string.c    ****     mrbc_raw_free( h );
 1495              		.loc 1 70 0
 1496 002e 0746     		mov	r7, r0
 1497              	.LVL216:
 1498 0030 18B9     		cbnz	r0, .L121
  71:c_string.c    ****     return value;
 1499              		.loc 1 71 0
 1500 0032 2846     		mov	r0, r5
 1501              	.LVL217:
 1502 0034 FFF7FEFF 		bl	mrbc_raw_free
 1503              	.LVL218:
  72:c_string.c    ****   }
 1504              		.loc 1 72 0
 1505 0038 12E0     		b	.L119
 1506              	.LVL219:
 1507              	.L121:
  75:c_string.c    ****   h->tt = MRBC_TT_STRING;	// TODO: for DEBUG
 1508              		.loc 1 75 0
 1509 003a 0123     		movs	r3, #1
 1510 003c 2B80     		strh	r3, [r5]	@ movhi
  76:c_string.c    ****   h->size = len;
 1511              		.loc 1 76 0
 1512 003e 1723     		movs	r3, #23
 1513 0040 AB70     		strb	r3, [r5, #2]
  77:c_string.c    ****   h->data = str;
 1514              		.loc 1 77 0
ARM GAS  C:\Users\164\AppData\Local\Temp\cc3ssgoH.s 			page 55


 1515 0042 AE80     		strh	r6, [r5, #4]	@ movhi
  78:c_string.c    **** 
 1516              		.loc 1 78 0
 1517 0044 A860     		str	r0, [r5, #8]
  83:c_string.c    ****     str[0] = '\0';
 1518              		.loc 1 83 0
 1519 0046 B8F1000F 		cmp	r8, #0
 1520 004a 02D1     		bne	.L122
  84:c_string.c    ****   } else {
 1521              		.loc 1 84 0
 1522 004c 0023     		movs	r3, #0
 1523 004e 0370     		strb	r3, [r0]
 1524 0050 05E0     		b	.L123
 1525              	.L122:
  86:c_string.c    ****     str[len] = '\0';
 1526              		.loc 1 86 0
 1527 0052 3246     		mov	r2, r6
 1528 0054 4146     		mov	r1, r8
 1529 0056 FFF7FEFF 		bl	memcpy
 1530              	.LVL220:
  87:c_string.c    ****   }
 1531              		.loc 1 87 0
 1532 005a 0023     		movs	r3, #0
 1533 005c BB55     		strb	r3, [r7, r6]
 1534              	.L123:
  90:c_string.c    ****   return value;
 1535              		.loc 1 90 0
 1536 005e A560     		str	r5, [r4, #8]
 1537              	.LVL221:
 1538              	.L119:
  92:c_string.c    **** 
 1539              		.loc 1 92 0
 1540 0060 2046     		mov	r0, r4
 1541 0062 BDE8F081 		pop	{r4, r5, r6, r7, r8, pc}
 1542              		.cfi_endproc
 1543              	.LFE87:
 1544              		.size	mrbc_string_new, .-mrbc_string_new
 1545 0066 00BF     		.section	.text.c_string_slice,"ax",%progbits
 1546              		.align	2
 1547              		.thumb
 1548              		.thumb_func
 1549              		.type	c_string_slice, %function
 1550              	c_string_slice:
 1551              	.LFB105:
 461:c_string.c    ****   mrbc_value *v1 = &v[1];
 1552              		.loc 1 461 0
 1553              		.cfi_startproc
 1554              		@ args = 0, pretend = 0, frame = 32
 1555              		@ frame_needed = 0, uses_anonymous_args = 0
 1556              	.LVL222:
 1557 0000 30B5     		push	{r4, r5, lr}
 1558              		.cfi_def_cfa_offset 12
 1559              		.cfi_offset 4, -12
 1560              		.cfi_offset 5, -8
 1561              		.cfi_offset 14, -4
 1562 0002 89B0     		sub	sp, sp, #36
 1563              		.cfi_def_cfa_offset 48
ARM GAS  C:\Users\164\AppData\Local\Temp\cc3ssgoH.s 			page 56


 1564 0004 0C46     		mov	r4, r1
 1565              	.LVL223:
 468:c_string.c    ****     int len = v->string->size;
 1566              		.loc 1 468 0
 1567 0006 012A     		cmp	r2, #1
 1568 0008 34D1     		bne	.L126
 468:c_string.c    ****     int len = v->string->size;
 1569              		.loc 1 468 0 is_stmt 0 discriminator 1
 1570 000a 91F91030 		ldrsb	r3, [r1, #16]
 1571 000e 042B     		cmp	r3, #4
 1572 0010 30D1     		bne	.L126
 1573              	.LBB252:
 469:c_string.c    ****     int idx = v1->i;
 1574              		.loc 1 469 0 is_stmt 1
 1575 0012 8968     		ldr	r1, [r1, #8]
 1576              	.LVL224:
 1577 0014 8A88     		ldrh	r2, [r1, #4]
 1578              	.LVL225:
 470:c_string.c    ****     int ch = -1;
 1579              		.loc 1 470 0
 1580 0016 A369     		ldr	r3, [r4, #24]
 1581              	.LVL226:
 472:c_string.c    ****       if( idx < len ) {
 1582              		.loc 1 472 0
 1583 0018 002B     		cmp	r3, #0
 1584 001a 04DB     		blt	.L127
 473:c_string.c    ****         ch = *(v->string->data + idx);
 1585              		.loc 1 473 0
 1586 001c 9A42     		cmp	r2, r3
 1587 001e 07DD     		ble	.L135
 474:c_string.c    ****       }
 1588              		.loc 1 474 0
 1589 0020 8A68     		ldr	r2, [r1, #8]
 1590              	.LVL227:
 1591 0022 D55C     		ldrb	r5, [r2, r3]	@ zero_extendqisi2
 1592              	.LVL228:
 1593 0024 09E0     		b	.L128
 1594              	.LVL229:
 1595              	.L127:
 478:c_string.c    ****         ch = *(v->string->data + idx);
 1596              		.loc 1 478 0
 1597 0026 D318     		adds	r3, r2, r3
 1598              	.LVL230:
 1599 0028 05D4     		bmi	.L136
 479:c_string.c    ****       }
 1600              		.loc 1 479 0
 1601 002a 8A68     		ldr	r2, [r1, #8]
 1602              	.LVL231:
 1603 002c D55C     		ldrb	r5, [r2, r3]	@ zero_extendqisi2
 1604              	.LVL232:
 1605 002e 04E0     		b	.L128
 1606              	.LVL233:
 1607              	.L135:
 471:c_string.c    ****     if( idx >= 0 ) {
 1608              		.loc 1 471 0
 1609 0030 4FF0FF35 		mov	r5, #-1
 1610 0034 01E0     		b	.L128
ARM GAS  C:\Users\164\AppData\Local\Temp\cc3ssgoH.s 			page 57


 1611              	.L136:
 1612 0036 4FF0FF35 		mov	r5, #-1
 1613              	.LVL234:
 1614              	.L128:
 482:c_string.c    **** 
 1615              		.loc 1 482 0
 1616 003a 002D     		cmp	r5, #0
 1617 003c 4EDB     		blt	.L131
 484:c_string.c    ****     if( !value.string ) goto RETURN_NIL;		// ENOMEM
 1618              		.loc 1 484 0
 1619 003e 0123     		movs	r3, #1
 1620              	.LVL235:
 1621 0040 0022     		movs	r2, #0
 1622 0042 0146     		mov	r1, r0
 1623              	.LVL236:
 1624 0044 6846     		mov	r0, sp
 1625              	.LVL237:
 1626 0046 FFF7FEFF 		bl	mrbc_string_new
 1627              	.LVL238:
 485:c_string.c    **** 
 1628              		.loc 1 485 0
 1629 004a 029B     		ldr	r3, [sp, #8]
 1630 004c 002B     		cmp	r3, #0
 1631 004e 45D0     		beq	.L131
 487:c_string.c    ****     value.string->data[1] = '\0';
 1632              		.loc 1 487 0
 1633 0050 9A68     		ldr	r2, [r3, #8]
 1634 0052 1570     		strb	r5, [r2]
 488:c_string.c    ****     SET_RETURN(value);
 1635              		.loc 1 488 0
 1636 0054 9B68     		ldr	r3, [r3, #8]
 1637 0056 0022     		movs	r2, #0
 1638 0058 5A70     		strb	r2, [r3, #1]
 1639              	.LBB253:
 489:c_string.c    ****     return;		// normal return
 1640              		.loc 1 489 0
 1641 005a 04AD     		add	r5, sp, #16
 1642              	.LVL239:
 1643 005c 9DE80F00 		ldmia	sp, {r0, r1, r2, r3}
 1644 0060 85E80F00 		stmia	r5, {r0, r1, r2, r3}
 1645 0064 2046     		mov	r0, r4
 1646 0066 FFF7FEFF 		bl	mrbc_dec_ref_counter
 1647              	.LVL240:
 1648 006a 95E80F00 		ldmia	r5, {r0, r1, r2, r3}
 1649 006e 84E80F00 		stmia	r4, {r0, r1, r2, r3}
 1650 0072 38E0     		b	.L125
 1651              	.LVL241:
 1652              	.L126:
 1653              	.LBE253:
 1654              	.LBE252:
 496:c_string.c    ****     int len = v->string->size;
 1655              		.loc 1 496 0
 1656 0074 022A     		cmp	r2, #2
 1657 0076 2BD1     		bne	.L132
 496:c_string.c    ****     int len = v->string->size;
 1658              		.loc 1 496 0 is_stmt 0 discriminator 1
 1659 0078 94F91030 		ldrsb	r3, [r4, #16]
ARM GAS  C:\Users\164\AppData\Local\Temp\cc3ssgoH.s 			page 58


 1660 007c 042B     		cmp	r3, #4
 1661 007e 27D1     		bne	.L132
 496:c_string.c    ****     int len = v->string->size;
 1662              		.loc 1 496 0 discriminator 2
 1663 0080 94F92030 		ldrsb	r3, [r4, #32]
 1664 0084 042B     		cmp	r3, #4
 1665 0086 23D1     		bne	.L132
 1666              	.LBB254:
 497:c_string.c    ****     int idx = v1->i;
 1667              		.loc 1 497 0 is_stmt 1
 1668 0088 A568     		ldr	r5, [r4, #8]
 1669 008a AB88     		ldrh	r3, [r5, #4]
 1670              	.LVL242:
 498:c_string.c    ****     if( idx < 0 ) idx += len;
 1671              		.loc 1 498 0
 1672 008c A269     		ldr	r2, [r4, #24]
 1673              	.LVL243:
 499:c_string.c    ****     if( idx < 0 ) goto RETURN_NIL;
 1674              		.loc 1 499 0
 1675 008e 002A     		cmp	r2, #0
 1676 0090 00DA     		bge	.L133
 499:c_string.c    ****     if( idx < 0 ) goto RETURN_NIL;
 1677              		.loc 1 499 0 is_stmt 0 discriminator 1
 1678 0092 1A44     		add	r2, r2, r3
 1679              	.LVL244:
 1680              	.L133:
 500:c_string.c    **** 
 1681              		.loc 1 500 0 is_stmt 1
 1682 0094 002A     		cmp	r2, #0
 1683 0096 21DB     		blt	.L131
 502:c_string.c    **** 						// min( v2->i, (len-idx) )
 1684              		.loc 1 502 0
 1685 0098 9B1A     		subs	r3, r3, r2
 1686              	.LVL245:
 1687 009a A16A     		ldr	r1, [r4, #40]
 1688              	.LVL246:
 1689 009c 8B42     		cmp	r3, r1
 1690 009e A8BF     		it	ge
 1691 00a0 0B46     		movge	r3, r1
 1692              	.LVL247:
 504:c_string.c    **** 
 1693              		.loc 1 504 0
 1694 00a2 002B     		cmp	r3, #0
 1695 00a4 1ADB     		blt	.L131
 506:c_string.c    ****     if( !value.string ) goto RETURN_NIL;		// ENOMEM
 1696              		.loc 1 506 0
 1697 00a6 A968     		ldr	r1, [r5, #8]
 1698 00a8 0A44     		add	r2, r2, r1
 1699              	.LVL248:
 1700 00aa 0146     		mov	r1, r0
 1701 00ac 6846     		mov	r0, sp
 1702              	.LVL249:
 1703 00ae FFF7FEFF 		bl	mrbc_string_new
 1704              	.LVL250:
 507:c_string.c    **** 
 1705              		.loc 1 507 0
 1706 00b2 029B     		ldr	r3, [sp, #8]
ARM GAS  C:\Users\164\AppData\Local\Temp\cc3ssgoH.s 			page 59


 1707 00b4 93B1     		cbz	r3, .L131
 1708              	.LBB255:
 509:c_string.c    ****     return;		// normal return
 1709              		.loc 1 509 0
 1710 00b6 04AD     		add	r5, sp, #16
 1711 00b8 9DE80F00 		ldmia	sp, {r0, r1, r2, r3}
 1712 00bc 85E80F00 		stmia	r5, {r0, r1, r2, r3}
 1713 00c0 2046     		mov	r0, r4
 1714 00c2 FFF7FEFF 		bl	mrbc_dec_ref_counter
 1715              	.LVL251:
 1716 00c6 95E80F00 		ldmia	r5, {r0, r1, r2, r3}
 1717 00ca 84E80F00 		stmia	r4, {r0, r1, r2, r3}
 1718 00ce 0AE0     		b	.L125
 1719              	.LVL252:
 1720              	.L132:
 1721              	.LBE255:
 1722              	.LBE254:
 1723              	.LBB256:
 1724              	.LBB257:
 1725              		.loc 3 75 0
 1726 00d0 2422     		movs	r2, #36
 1727              	.LVL253:
 1728 00d2 0649     		ldr	r1, .L138
 1729              	.LVL254:
 1730 00d4 0120     		movs	r0, #1
 1731              	.LVL255:
 1732 00d6 FFF7FEFF 		bl	hal_write
 1733              	.LVL256:
 1734 00da 04E0     		b	.L125
 1735              	.LVL257:
 1736              	.L131:
 1737              	.LBE257:
 1738              	.LBE256:
 521:c_string.c    **** }
 1739              		.loc 1 521 0
 1740 00dc 2046     		mov	r0, r4
 1741 00de FFF7FEFF 		bl	mrbc_dec_ref_counter
 1742              	.LVL258:
 1743 00e2 0123     		movs	r3, #1
 1744 00e4 2370     		strb	r3, [r4]
 1745              	.L125:
 522:c_string.c    **** 
 1746              		.loc 1 522 0
 1747 00e6 09B0     		add	sp, sp, #36
 1748              		.cfi_def_cfa_offset 12
 1749              		@ sp needed
 1750 00e8 30BD     		pop	{r4, r5, pc}
 1751              	.LVL259:
 1752              	.L139:
 1753 00ea 00BF     		.align	2
 1754              	.L138:
 1755 00ec 2C000000 		.word	.LC3
 1756              		.cfi_endproc
 1757              	.LFE105:
 1758              		.size	c_string_slice, .-c_string_slice
 1759              		.section	.text.c_string_mul,"ax",%progbits
 1760              		.align	2
ARM GAS  C:\Users\164\AppData\Local\Temp\cc3ssgoH.s 			page 60


 1761              		.thumb
 1762              		.thumb_func
 1763              		.type	c_string_mul, %function
 1764              	c_string_mul:
 1765              	.LFB100:
 374:c_string.c    ****   if( v[1].tt != MRBC_TT_FIXNUM ) {
 1766              		.loc 1 374 0
 1767              		.cfi_startproc
 1768              		@ args = 0, pretend = 0, frame = 32
 1769              		@ frame_needed = 0, uses_anonymous_args = 0
 1770              	.LVL260:
 1771 0000 70B5     		push	{r4, r5, r6, lr}
 1772              		.cfi_def_cfa_offset 16
 1773              		.cfi_offset 4, -16
 1774              		.cfi_offset 5, -12
 1775              		.cfi_offset 6, -8
 1776              		.cfi_offset 14, -4
 1777 0002 88B0     		sub	sp, sp, #32
 1778              		.cfi_def_cfa_offset 48
 375:c_string.c    ****     console_print( "TypeError\n" );	// raise?
 1779              		.loc 1 375 0
 1780 0004 91F91030 		ldrsb	r3, [r1, #16]
 1781 0008 042B     		cmp	r3, #4
 1782 000a 05D0     		beq	.L141
 1783              	.LVL261:
 1784              	.LBB269:
 1785              	.LBB270:
 1786              		.loc 3 75 0
 1787 000c 0A22     		movs	r2, #10
 1788              	.LVL262:
 1789 000e 1C49     		ldr	r1, .L148
 1790              	.LVL263:
 1791 0010 0120     		movs	r0, #1
 1792              	.LVL264:
 1793 0012 FFF7FEFF 		bl	hal_write
 1794              	.LVL265:
 1795 0016 30E0     		b	.L140
 1796              	.LVL266:
 1797              	.L141:
 1798 0018 0C46     		mov	r4, r1
 1799              	.LBE270:
 1800              	.LBE269:
 380:c_string.c    ****     console_printf( "ArgumentError\n" );	// raise?
 1801              		.loc 1 380 0
 1802 001a 8B69     		ldr	r3, [r1, #24]
 1803 001c 002B     		cmp	r3, #0
 1804 001e 03DA     		bge	.L143
 381:c_string.c    ****     return;
 1805              		.loc 1 381 0
 1806 0020 1848     		ldr	r0, .L148+4
 1807              	.LVL267:
 1808 0022 FFF7FEFF 		bl	console_printf
 1809              	.LVL268:
 382:c_string.c    ****   }
 1810              		.loc 1 382 0
 1811 0026 28E0     		b	.L140
 1812              	.LVL269:
ARM GAS  C:\Users\164\AppData\Local\Temp\cc3ssgoH.s 			page 61


 1813              	.L143:
 1814              	.LBB271:
 1815              	.LBB272:
  72:c_string.h    **** }
 1816              		.loc 2 72 0
 1817 0028 8A68     		ldr	r2, [r1, #8]
 1818              	.LVL270:
 1819 002a 9288     		ldrh	r2, [r2, #4]
 1820              	.LVL271:
 1821              	.LBE272:
 1822              	.LBE271:
 385:c_string.c    **** 				    mrbc_string_size(&v[0]) * v[1].i);
 1823              		.loc 1 385 0
 1824 002c 02FB03F3 		mul	r3, r2, r3
 1825 0030 0022     		movs	r2, #0
 1826 0032 0146     		mov	r1, r0
 1827              	.LVL272:
 1828 0034 04A8     		add	r0, sp, #16
 1829              	.LVL273:
 1830 0036 FFF7FEFF 		bl	mrbc_string_new
 1831              	.LVL274:
 387:c_string.c    **** 
 1832              		.loc 1 387 0
 1833 003a 069B     		ldr	r3, [sp, #24]
 1834 003c EBB1     		cbz	r3, .L140
 389:c_string.c    ****   int i;
 1835              		.loc 1 389 0
 1836 003e 9D68     		ldr	r5, [r3, #8]
 1837              	.LVL275:
 391:c_string.c    ****     memcpy( p, mrbc_string_cstr(&v[0]), mrbc_string_size(&v[0]) );
 1838              		.loc 1 391 0
 1839 0040 0026     		movs	r6, #0
 1840 0042 09E0     		b	.L144
 1841              	.LVL276:
 1842              	.L145:
 1843              	.LBB273:
 1844              	.LBB274:
 1845              		.loc 2 80 0
 1846 0044 A368     		ldr	r3, [r4, #8]
 1847              	.LVL277:
 1848              	.LBE274:
 1849              	.LBE273:
 392:c_string.c    ****     p += mrbc_string_size(&v[0]);
 1850              		.loc 1 392 0
 1851 0046 9A88     		ldrh	r2, [r3, #4]
 1852 0048 9968     		ldr	r1, [r3, #8]
 1853 004a 2846     		mov	r0, r5
 1854 004c FFF7FEFF 		bl	memcpy
 1855              	.LVL278:
 1856              	.LBB275:
 1857              	.LBB276:
  72:c_string.h    **** }
 1858              		.loc 2 72 0
 1859 0050 A368     		ldr	r3, [r4, #8]
 1860 0052 9B88     		ldrh	r3, [r3, #4]
 1861              	.LVL279:
 1862              	.LBE276:
ARM GAS  C:\Users\164\AppData\Local\Temp\cc3ssgoH.s 			page 62


 1863              	.LBE275:
 393:c_string.c    ****   }
 1864              		.loc 1 393 0
 1865 0054 1D44     		add	r5, r5, r3
 1866              	.LVL280:
 391:c_string.c    ****     memcpy( p, mrbc_string_cstr(&v[0]), mrbc_string_size(&v[0]) );
 1867              		.loc 1 391 0
 1868 0056 0136     		adds	r6, r6, #1
 1869              	.LVL281:
 1870              	.L144:
 391:c_string.c    ****     memcpy( p, mrbc_string_cstr(&v[0]), mrbc_string_size(&v[0]) );
 1871              		.loc 1 391 0 is_stmt 0 discriminator 1
 1872 0058 A369     		ldr	r3, [r4, #24]
 1873 005a 9E42     		cmp	r6, r3
 1874 005c F2DB     		blt	.L145
 395:c_string.c    **** 
 1875              		.loc 1 395 0 is_stmt 1
 1876 005e 0023     		movs	r3, #0
 1877 0060 2B70     		strb	r3, [r5]
 1878              	.LBB277:
 397:c_string.c    **** }
 1879              		.loc 1 397 0
 1880 0062 08AB     		add	r3, sp, #32
 1881 0064 13E90F00 		ldmdb	r3, {r0, r1, r2, r3}
 1882 0068 8DE80F00 		stmia	sp, {r0, r1, r2, r3}
 1883 006c 2046     		mov	r0, r4
 1884 006e FFF7FEFF 		bl	mrbc_dec_ref_counter
 1885              	.LVL282:
 1886 0072 9DE80F00 		ldmia	sp, {r0, r1, r2, r3}
 1887 0076 84E80F00 		stmia	r4, {r0, r1, r2, r3}
 1888              	.LVL283:
 1889              	.L140:
 1890              	.LBE277:
 398:c_string.c    **** 
 1891              		.loc 1 398 0
 1892 007a 08B0     		add	sp, sp, #32
 1893              		.cfi_def_cfa_offset 16
 1894              		@ sp needed
 1895 007c 70BD     		pop	{r4, r5, r6, pc}
 1896              	.L149:
 1897 007e 00BF     		.align	2
 1898              	.L148:
 1899 0080 54000000 		.word	.LC4
 1900 0084 00000000 		.word	.LC0
 1901              		.cfi_endproc
 1902              	.LFE100:
 1903              		.size	c_string_mul, .-c_string_mul
 1904              		.section	.text.mrbc_string_new_cstr,"ax",%progbits
 1905              		.align	2
 1906              		.global	mrbc_string_new_cstr
 1907              		.thumb
 1908              		.thumb_func
 1909              		.type	mrbc_string_new_cstr, %function
 1910              	mrbc_string_new_cstr:
 1911              	.LFB88:
 103:c_string.c    ****   return mrbc_string_new(vm, src, (src ? strlen(src) : 0));
 1912              		.loc 1 103 0
ARM GAS  C:\Users\164\AppData\Local\Temp\cc3ssgoH.s 			page 63


 1913              		.cfi_startproc
 1914              		@ args = 0, pretend = 0, frame = 0
 1915              		@ frame_needed = 0, uses_anonymous_args = 0
 1916              	.LVL284:
 1917 0000 70B5     		push	{r4, r5, r6, lr}
 1918              		.cfi_def_cfa_offset 16
 1919              		.cfi_offset 4, -16
 1920              		.cfi_offset 5, -12
 1921              		.cfi_offset 6, -8
 1922              		.cfi_offset 14, -4
 1923 0002 0446     		mov	r4, r0
 1924 0004 0E46     		mov	r6, r1
 104:c_string.c    **** }
 1925              		.loc 1 104 0
 1926 0006 1546     		mov	r5, r2
 1927 0008 22B1     		cbz	r2, .L152
 104:c_string.c    **** }
 1928              		.loc 1 104 0 is_stmt 0 discriminator 1
 1929 000a 1046     		mov	r0, r2
 1930              	.LVL285:
 1931 000c FFF7FEFF 		bl	strlen
 1932              	.LVL286:
 1933 0010 0346     		mov	r3, r0
 1934 0012 00E0     		b	.L151
 1935              	.LVL287:
 1936              	.L152:
 104:c_string.c    **** }
 1937              		.loc 1 104 0
 1938 0014 0023     		movs	r3, #0
 1939              	.LVL288:
 1940              	.L151:
 104:c_string.c    **** }
 1941              		.loc 1 104 0 discriminator 4
 1942 0016 2A46     		mov	r2, r5
 1943 0018 3146     		mov	r1, r6
 1944 001a 2046     		mov	r0, r4
 1945 001c FFF7FEFF 		bl	mrbc_string_new
 1946              	.LVL289:
 105:c_string.c    **** 
 1947              		.loc 1 105 0 is_stmt 1 discriminator 4
 1948 0020 2046     		mov	r0, r4
 1949 0022 70BD     		pop	{r4, r5, r6, pc}
 1950              		.cfi_endproc
 1951              	.LFE88:
 1952              		.size	mrbc_string_new_cstr, .-mrbc_string_new_cstr
 1953              		.section	.text.mrbc_string_new_alloc,"ax",%progbits
 1954              		.align	2
 1955              		.global	mrbc_string_new_alloc
 1956              		.thumb
 1957              		.thumb_func
 1958              		.type	mrbc_string_new_alloc, %function
 1959              	mrbc_string_new_alloc:
 1960              	.LFB89:
 117:c_string.c    ****   mrbc_value value = {.tt = MRBC_TT_STRING};
 1961              		.loc 1 117 0
 1962              		.cfi_startproc
 1963              		@ args = 0, pretend = 0, frame = 0
ARM GAS  C:\Users\164\AppData\Local\Temp\cc3ssgoH.s 			page 64


 1964              		@ frame_needed = 0, uses_anonymous_args = 0
 1965              	.LVL290:
 1966 0000 70B5     		push	{r4, r5, r6, lr}
 1967              		.cfi_def_cfa_offset 16
 1968              		.cfi_offset 4, -16
 1969              		.cfi_offset 5, -12
 1970              		.cfi_offset 6, -8
 1971              		.cfi_offset 14, -4
 1972 0002 0446     		mov	r4, r0
 1973 0004 0846     		mov	r0, r1
 1974              	.LVL291:
 1975 0006 1546     		mov	r5, r2
 1976 0008 1E46     		mov	r6, r3
 118:c_string.c    **** 
 1977              		.loc 1 118 0
 1978 000a 0023     		movs	r3, #0
 1979              	.LVL292:
 1980 000c 2360     		str	r3, [r4]
 1981 000e 6360     		str	r3, [r4, #4]
 1982 0010 A360     		str	r3, [r4, #8]
 1983 0012 E360     		str	r3, [r4, #12]
 1984 0014 1723     		movs	r3, #23
 1985 0016 2370     		strb	r3, [r4]
 124:c_string.c    ****   if( !h ) return value;		// ENOMEM
 1986              		.loc 1 124 0
 1987 0018 0C21     		movs	r1, #12
 1988              	.LVL293:
 1989 001a FFF7FEFF 		bl	mrbc_alloc
 1990              	.LVL294:
 125:c_string.c    **** 
 1991              		.loc 1 125 0
 1992 001e 30B1     		cbz	r0, .L154
 127:c_string.c    ****   h->tt = MRBC_TT_STRING;	// TODO: for DEBUG
 1993              		.loc 1 127 0
 1994 0020 0122     		movs	r2, #1
 1995 0022 0280     		strh	r2, [r0]	@ movhi
 128:c_string.c    ****   h->size = len;
 1996              		.loc 1 128 0
 1997 0024 1722     		movs	r2, #23
 1998 0026 8270     		strb	r2, [r0, #2]
 129:c_string.c    ****   h->data = buf;
 1999              		.loc 1 129 0
 2000 0028 8680     		strh	r6, [r0, #4]	@ movhi
 130:c_string.c    **** 
 2001              		.loc 1 130 0
 2002 002a 8560     		str	r5, [r0, #8]
 132:c_string.c    ****   return value;
 2003              		.loc 1 132 0
 2004 002c A060     		str	r0, [r4, #8]
 2005              	.L154:
 134:c_string.c    **** 
 2006              		.loc 1 134 0
 2007 002e 2046     		mov	r0, r4
 2008              	.LVL295:
 2009 0030 70BD     		pop	{r4, r5, r6, pc}
 2010              		.cfi_endproc
 2011              	.LFE89:
ARM GAS  C:\Users\164\AppData\Local\Temp\cc3ssgoH.s 			page 65


 2012              		.size	mrbc_string_new_alloc, .-mrbc_string_new_alloc
 2013              		.global	__aeabi_d2iz
 2014              		.global	__aeabi_i2d
 2015 0032 00BF     		.section	.text.c_object_sprintf,"ax",%progbits
 2016              		.align	2
 2017              		.thumb
 2018              		.thumb_func
 2019              		.type	c_object_sprintf, %function
 2020              	c_object_sprintf:
 2021              	.LFB114:
 804:c_string.c    ****   static const int BUF_INC_STEP = 32;	// bytes.
 2022              		.loc 1 804 0
 2023              		.cfi_startproc
 2024              		@ args = 0, pretend = 0, frame = 80
 2025              		@ frame_needed = 0, uses_anonymous_args = 0
 2026              	.LVL296:
 2027 0000 2DE9F047 		push	{r4, r5, r6, r7, r8, r9, r10, lr}
 2028              		.cfi_def_cfa_offset 32
 2029              		.cfi_offset 4, -32
 2030              		.cfi_offset 5, -28
 2031              		.cfi_offset 6, -24
 2032              		.cfi_offset 7, -20
 2033              		.cfi_offset 8, -16
 2034              		.cfi_offset 9, -12
 2035              		.cfi_offset 10, -8
 2036              		.cfi_offset 14, -4
 2037 0004 94B0     		sub	sp, sp, #80
 2038              		.cfi_def_cfa_offset 112
 2039              	.LVL297:
 808:c_string.c    ****     console_printf( "TypeError\n" );	// raise?
 2040              		.loc 1 808 0
 2041 0006 91F91030 		ldrsb	r3, [r1, #16]
 2042 000a 172B     		cmp	r3, #23
 2043 000c 03D0     		beq	.L158
 809:c_string.c    ****     return;
 2044              		.loc 1 809 0
 2045 000e 8B48     		ldr	r0, .L182
 2046              	.LVL298:
 2047 0010 FFF7FEFF 		bl	console_printf
 2048              	.LVL299:
 810:c_string.c    ****   }
 2049              		.loc 1 810 0
 2050 0014 0EE1     		b	.L157
 2051              	.LVL300:
 2052              	.L158:
 2053 0016 8246     		mov	r10, r0
 2054 0018 0F46     		mov	r7, r1
 2055 001a 9146     		mov	r9, r2
 2056              	.LVL301:
 814:c_string.c    ****   if( !buf ) { return; }	// ENOMEM raise?
 2057              		.loc 1 814 0
 2058 001c 2021     		movs	r1, #32
 2059              	.LVL302:
 2060 001e FFF7FEFF 		bl	mrbc_alloc
 2061              	.LVL303:
 815:c_string.c    **** 
 2062              		.loc 1 815 0
ARM GAS  C:\Users\164\AppData\Local\Temp\cc3ssgoH.s 			page 66


 2063 0022 0346     		mov	r3, r0
 2064 0024 0028     		cmp	r0, #0
 2065 0026 00F00581 		beq	.L157
 2066              	.LVL304:
 2067              	.LBB301:
 2068              	.LBB302:
 2069              		.loc 2 80 0
 2070 002a BA69     		ldr	r2, [r7, #24]
 2071 002c 9268     		ldr	r2, [r2, #8]
 2072              	.LVL305:
 2073              	.LBE302:
 2074              	.LBE301:
 2075              	.LBB303:
 2076              	.LBB304:
  76:console.h     **** }
  77:console.h     **** 
  78:console.h     **** 
  79:console.h     **** //================================================================
  80:console.h     **** /*! output string with length parameter.
  81:console.h     **** 
  82:console.h     ****   @param str	str
  83:console.h     ****   @param size	byte length.
  84:console.h     **** */
  85:console.h     **** static inline void console_nprint(const char *str, int size)
  86:console.h     **** {
  87:console.h     ****   hal_write(1, str, size);
  88:console.h     **** }
  89:console.h     **** 
  90:console.h     **** 
  91:console.h     **** //================================================================
  92:console.h     **** /*! initialize data container.
  93:console.h     **** 
  94:console.h     ****   @param  pf	pointer to mrbc_printf
  95:console.h     ****   @param  buf	pointer to output buffer.
  96:console.h     ****   @param  size	buffer size.
  97:console.h     ****   @param  fstr	format string.
  98:console.h     **** */
  99:console.h     **** static inline void mrbc_printf_init( mrbc_printf *pf, char *buf, int size,
 100:console.h     **** 				     const char *fstr )
 101:console.h     **** {
 102:console.h     ****   pf->p = pf->buf = buf;
 2077              		.loc 3 102 0
 2078 002e 0D90     		str	r0, [sp, #52]
 2079 0030 0F90     		str	r0, [sp, #60]
 103:console.h     ****   pf->buf_end = buf + size - 1;
 2080              		.loc 3 103 0
 2081 0032 1F33     		adds	r3, r3, #31
 2082 0034 0E93     		str	r3, [sp, #56]
 104:console.h     ****   pf->fstr = fstr;
 2083              		.loc 3 104 0
 2084 0036 1092     		str	r2, [sp, #64]
 105:console.h     ****   pf->fmt = (struct RPrintfFormat){0};
 2085              		.loc 3 105 0
 2086 0038 0023     		movs	r3, #0
 2087 003a 1193     		str	r3, [sp, #68]
 2088 003c 1293     		str	r3, [sp, #72]
 2089 003e 1393     		str	r3, [sp, #76]
ARM GAS  C:\Users\164\AppData\Local\Temp\cc3ssgoH.s 			page 67


 2090              	.LVL306:
 2091              	.LBE304:
 2092              	.LBE303:
 820:c_string.c    ****   int ret;
 2093              		.loc 1 820 0
 2094 0040 0226     		movs	r6, #2
 813:c_string.c    ****   char *buf = mrbc_alloc(vm, buflen);
 2095              		.loc 1 813 0
 2096 0042 4FF02008 		mov	r8, #32
 2097              	.LVL307:
 2098              	.L160:
 2099              	.LBB305:
 823:c_string.c    ****     ret = mrbc_printf_main( &pf );
 2100              		.loc 1 823 0
 2101 0046 6C46     		mov	r4, sp
 2102 0048 0DAD     		add	r5, sp, #52
 2103 004a 0FCD     		ldmia	r5!, {r0, r1, r2, r3}
 2104 004c 0FC4     		stmia	r4!, {r0, r1, r2, r3}
 2105 004e 95E80700 		ldmia	r5, {r0, r1, r2}
 2106 0052 84E80700 		stmia	r4, {r0, r1, r2}
 824:c_string.c    ****     if( ret == 0 ) break;	// normal break loop.
 2107              		.loc 1 824 0
 2108 0056 0DA8     		add	r0, sp, #52
 2109 0058 FFF7FEFF 		bl	mrbc_printf_main
 2110              	.LVL308:
 825:c_string.c    ****     if( ret < 0 ) goto INCREASE_BUFFER;
 2111              		.loc 1 825 0
 2112 005c 0246     		mov	r2, r0
 2113 005e 0028     		cmp	r0, #0
 2114 0060 00F0CC80 		beq	.L161
 826:c_string.c    **** 
 2115              		.loc 1 826 0
 2116 0064 0028     		cmp	r0, #0
 2117 0066 C0F2BB80 		blt	.L162
 828:c_string.c    **** 
 2118              		.loc 1 828 0
 2119 006a 4E45     		cmp	r6, r9
 2120 006c 05DD     		ble	.L163
 2121              	.LVL309:
 2122              	.LBB306:
 2123              	.LBB307:
  75:console.h     **** }
 2124              		.loc 3 75 0
 2125 006e 0E22     		movs	r2, #14
 2126 0070 7349     		ldr	r1, .L182+4
 2127 0072 0120     		movs	r0, #1
 2128              	.LVL310:
 2129 0074 FFF7FEFF 		bl	hal_write
 2130              	.LVL311:
 2131 0078 C0E0     		b	.L161
 2132              	.LVL312:
 2133              	.L163:
 2134              	.LBE307:
 2135              	.LBE306:
 831:c_string.c    ****     case 'c':
 2136              		.loc 1 831 0
 2137 007a 9DF84430 		ldrb	r3, [sp, #68]	@ zero_extendqisi2
ARM GAS  C:\Users\164\AppData\Local\Temp\cc3ssgoH.s 			page 68


 2138 007e 423B     		subs	r3, r3, #66
 2139 0080 362B     		cmp	r3, #54
 2140 0082 00F29D80 		bhi	.L164
 2141 0086 DFE803F0 		tbb	[pc, r3]
 2142              	.L166:
 2143 008a 6C       		.byte	(.L165-.L166)/2
 2144 008b 9B       		.byte	(.L164-.L166)/2
 2145 008c 9B       		.byte	(.L164-.L166)/2
 2146 008d 84       		.byte	(.L167-.L166)/2
 2147 008e 9B       		.byte	(.L164-.L166)/2
 2148 008f 84       		.byte	(.L167-.L166)/2
 2149 0090 9B       		.byte	(.L164-.L166)/2
 2150 0091 9B       		.byte	(.L164-.L166)/2
 2151 0092 9B       		.byte	(.L164-.L166)/2
 2152 0093 9B       		.byte	(.L164-.L166)/2
 2153 0094 9B       		.byte	(.L164-.L166)/2
 2154 0095 9B       		.byte	(.L164-.L166)/2
 2155 0096 9B       		.byte	(.L164-.L166)/2
 2156 0097 9B       		.byte	(.L164-.L166)/2
 2157 0098 9B       		.byte	(.L164-.L166)/2
 2158 0099 9B       		.byte	(.L164-.L166)/2
 2159 009a 9B       		.byte	(.L164-.L166)/2
 2160 009b 9B       		.byte	(.L164-.L166)/2
 2161 009c 9B       		.byte	(.L164-.L166)/2
 2162 009d 9B       		.byte	(.L164-.L166)/2
 2163 009e 9B       		.byte	(.L164-.L166)/2
 2164 009f 9B       		.byte	(.L164-.L166)/2
 2165 00a0 78       		.byte	(.L168-.L166)/2
 2166 00a1 9B       		.byte	(.L164-.L166)/2
 2167 00a2 9B       		.byte	(.L164-.L166)/2
 2168 00a3 9B       		.byte	(.L164-.L166)/2
 2169 00a4 9B       		.byte	(.L164-.L166)/2
 2170 00a5 9B       		.byte	(.L164-.L166)/2
 2171 00a6 9B       		.byte	(.L164-.L166)/2
 2172 00a7 9B       		.byte	(.L164-.L166)/2
 2173 00a8 9B       		.byte	(.L164-.L166)/2
 2174 00a9 9B       		.byte	(.L164-.L166)/2
 2175 00aa 6C       		.byte	(.L165-.L166)/2
 2176 00ab 1C       		.byte	(.L169-.L166)/2
 2177 00ac 46       		.byte	(.L170-.L166)/2
 2178 00ad 84       		.byte	(.L167-.L166)/2
 2179 00ae 84       		.byte	(.L167-.L166)/2
 2180 00af 84       		.byte	(.L167-.L166)/2
 2181 00b0 9B       		.byte	(.L164-.L166)/2
 2182 00b1 46       		.byte	(.L170-.L166)/2
 2183 00b2 9B       		.byte	(.L164-.L166)/2
 2184 00b3 9B       		.byte	(.L164-.L166)/2
 2185 00b4 9B       		.byte	(.L164-.L166)/2
 2186 00b5 9B       		.byte	(.L164-.L166)/2
 2187 00b6 9B       		.byte	(.L164-.L166)/2
 2188 00b7 9B       		.byte	(.L164-.L166)/2
 2189 00b8 9B       		.byte	(.L164-.L166)/2
 2190 00b9 9B       		.byte	(.L164-.L166)/2
 2191 00ba 9B       		.byte	(.L164-.L166)/2
 2192 00bb 27       		.byte	(.L171-.L166)/2
 2193 00bc 9B       		.byte	(.L164-.L166)/2
 2194 00bd 46       		.byte	(.L170-.L166)/2
ARM GAS  C:\Users\164\AppData\Local\Temp\cc3ssgoH.s 			page 69


 2195 00be 9B       		.byte	(.L164-.L166)/2
 2196 00bf 9B       		.byte	(.L164-.L166)/2
 2197 00c0 78       		.byte	(.L168-.L166)/2
 2198 00c1 00       		.p2align 1
 2199              	.L169:
 833:c_string.c    **** 	ret = mrbc_printf_char( &pf, v[i].i );
 2200              		.loc 1 833 0
 2201 00c2 3301     		lsls	r3, r6, #4
 2202 00c4 F918     		adds	r1, r7, r3
 2203 00c6 FB56     		ldrsb	r3, [r7, r3]
 2204 00c8 042B     		cmp	r3, #4
 2205 00ca 79D1     		bne	.L164
 834:c_string.c    ****       }
 2206              		.loc 1 834 0
 2207 00cc 8968     		ldr	r1, [r1, #8]
 2208 00ce 0DA8     		add	r0, sp, #52
 2209              	.LVL313:
 2210 00d0 FFF7FEFF 		bl	mrbc_printf_char
 2211              	.LVL314:
 2212 00d4 0246     		mov	r2, r0
 2213              	.LVL315:
 2214 00d6 73E0     		b	.L164
 2215              	.L171:
 839:c_string.c    **** 	ret = mrbc_printf_bstr( &pf, mrbc_string_cstr(&v[i]), mrbc_string_size(&v[i]),' ');
 2216              		.loc 1 839 0
 2217 00d8 3301     		lsls	r3, r6, #4
 2218 00da F918     		adds	r1, r7, r3
 2219 00dc FB56     		ldrsb	r3, [r7, r3]
 2220 00de 172B     		cmp	r3, #23
 2221 00e0 08D1     		bne	.L172
 2222              	.LVL316:
 2223              	.LBB308:
 2224              	.LBB309:
 2225              		.loc 2 80 0
 2226 00e2 8968     		ldr	r1, [r1, #8]
 2227              	.LVL317:
 2228              	.LBE309:
 2229              	.LBE308:
 840:c_string.c    ****       } else if( v[i].tt == MRBC_TT_SYMBOL ) {
 2230              		.loc 1 840 0
 2231 00e4 2023     		movs	r3, #32
 2232 00e6 8A88     		ldrh	r2, [r1, #4]
 2233 00e8 8968     		ldr	r1, [r1, #8]
 2234 00ea 0DA8     		add	r0, sp, #52
 2235              	.LVL318:
 2236 00ec FFF7FEFF 		bl	mrbc_printf_bstr
 2237              	.LVL319:
 2238 00f0 0246     		mov	r2, r0
 2239              	.LVL320:
 2240 00f2 65E0     		b	.L164
 2241              	.L172:
 841:c_string.c    **** 	ret = mrbc_printf_str( &pf, mrbc_symbol_cstr( &v[i] ), ' ');
 2242              		.loc 1 841 0
 2243 00f4 062B     		cmp	r3, #6
 2244 00f6 63D1     		bne	.L164
 2245              	.LVL321:
 2246              	.LBB310:
ARM GAS  C:\Users\164\AppData\Local\Temp\cc3ssgoH.s 			page 70


 2247              	.LBB311:
 2248              		.file 4 "symbol.h"
   1:symbol.h      **** /*! @file
   2:symbol.h      ****   @brief
   3:symbol.h      ****   mruby/c Symbol class
   4:symbol.h      **** 
   5:symbol.h      ****   <pre>
   6:symbol.h      ****   Copyright (C) 2015-2018 Kyushu Institute of Technology.
   7:symbol.h      ****   Copyright (C) 2015-2018 Shimane IT Open-Innovation Center.
   8:symbol.h      **** 
   9:symbol.h      ****   This file is distributed under BSD 3-Clause License.
  10:symbol.h      **** 
  11:symbol.h      ****   </pre>
  12:symbol.h      **** */
  13:symbol.h      **** 
  14:symbol.h      **** #ifndef MRBC_SRC_SYMBOL_H_
  15:symbol.h      **** #define MRBC_SRC_SYMBOL_H_
  16:symbol.h      **** 
  17:symbol.h      **** #include "value.h"
  18:symbol.h      **** 
  19:symbol.h      **** #ifdef __cplusplus
  20:symbol.h      **** extern "C" {
  21:symbol.h      **** #endif
  22:symbol.h      **** 
  23:symbol.h      **** 
  24:symbol.h      **** mrbc_value mrbc_symbol_new(struct VM *vm, const char *str);
  25:symbol.h      **** uint16_t calc_hash(const char *str);
  26:symbol.h      **** mrbc_sym str_to_symid(const char *str);
  27:symbol.h      **** const char *symid_to_str(mrbc_sym sym_id);
  28:symbol.h      **** void mrbc_init_class_symbol(struct VM *vm);
  29:symbol.h      **** 
  30:symbol.h      **** #if defined(MRBC_DEBUG)
  31:symbol.h      **** void mrbc_symbol_statistics( int *total_used );
  32:symbol.h      **** #endif
  33:symbol.h      **** 
  34:symbol.h      **** 
  35:symbol.h      **** //================================================================
  36:symbol.h      **** /*! get c-language string (char *)
  37:symbol.h      **** */
  38:symbol.h      **** static inline const char * mrbc_symbol_cstr(const mrbc_value *v)
  39:symbol.h      **** {
  40:symbol.h      ****   return symid_to_str(v->i);
 2249              		.loc 4 40 0
 2250 00f8 B1F90800 		ldrsh	r0, [r1, #8]
 2251              	.LVL322:
 2252 00fc FFF7FEFF 		bl	symid_to_str
 2253              	.LVL323:
 2254 0100 0446     		mov	r4, r0
 2255              	.LVL324:
 2256              	.LBE311:
 2257              	.LBE310:
 2258              	.LBB312:
 2259              	.LBB313:
 106:console.h     **** }
 107:console.h     **** 
 108:console.h     **** 
 109:console.h     **** //================================================================
ARM GAS  C:\Users\164\AppData\Local\Temp\cc3ssgoH.s 			page 71


 110:console.h     **** /*! clear output buffer in container.
 111:console.h     **** 
 112:console.h     ****   @param  pf	pointer to mrbc_printf
 113:console.h     **** */
 114:console.h     **** static inline void mrbc_printf_clear( mrbc_printf *pf )
 115:console.h     **** {
 116:console.h     ****   pf->p = pf->buf;
 117:console.h     **** }
 118:console.h     **** 
 119:console.h     **** 
 120:console.h     **** //================================================================
 121:console.h     **** /*! terminate ('\0') output buffer.
 122:console.h     **** 
 123:console.h     ****   @param  pf	pointer to mrbc_printf
 124:console.h     **** */
 125:console.h     **** static inline void mrbc_printf_end( mrbc_printf *pf )
 126:console.h     **** {
 127:console.h     ****   *pf->p = '\0';
 128:console.h     **** }
 129:console.h     **** 
 130:console.h     **** 
 131:console.h     **** //================================================================
 132:console.h     **** /*! return string length in buffer
 133:console.h     **** 
 134:console.h     ****   @param  pf	pointer to mrbc_printf
 135:console.h     ****   @return	length
 136:console.h     **** */
 137:console.h     **** static inline int mrbc_printf_len( mrbc_printf *pf )
 138:console.h     **** {
 139:console.h     ****   return pf->p - pf->buf;
 140:console.h     **** }
 141:console.h     **** 
 142:console.h     **** 
 143:console.h     **** //================================================================
 144:console.h     **** /*! sprintf subcontract function for char '%s'
 145:console.h     **** 
 146:console.h     ****   @param  pf	pointer to mrbc_printf.
 147:console.h     ****   @param  str	output string.
 148:console.h     ****   @param  pad	padding character.
 149:console.h     ****   @retval 0	done.
 150:console.h     ****   @retval -1	buffer full.
 151:console.h     ****   @note		not terminate ('\0') buffer tail.
 152:console.h     **** */
 153:console.h     **** static inline int mrbc_printf_str( mrbc_printf *pf, const char *str, int pad )
 154:console.h     **** {
 155:console.h     ****   return mrbc_printf_bstr( pf, str, strlen(str), pad );
 2260              		.loc 3 155 0
 2261 0102 FFF7FEFF 		bl	strlen
 2262              	.LVL325:
 2263 0106 2023     		movs	r3, #32
 2264 0108 0246     		mov	r2, r0
 2265 010a 2146     		mov	r1, r4
 2266 010c 0DA8     		add	r0, sp, #52
 2267              	.LVL326:
 2268 010e FFF7FEFF 		bl	mrbc_printf_bstr
 2269              	.LVL327:
 2270 0112 0246     		mov	r2, r0
ARM GAS  C:\Users\164\AppData\Local\Temp\cc3ssgoH.s 			page 72


 2271              	.LVL328:
 2272 0114 54E0     		b	.L164
 2273              	.LVL329:
 2274              	.L170:
 2275              	.LBE313:
 2276              	.LBE312:
 849:c_string.c    **** 	ret = mrbc_printf_int( &pf, v[i].i, 10);
 2277              		.loc 1 849 0
 2278 0116 3301     		lsls	r3, r6, #4
 2279 0118 F918     		adds	r1, r7, r3
 2280 011a FB56     		ldrsb	r3, [r7, r3]
 2281 011c 042B     		cmp	r3, #4
 2282 011e 06D1     		bne	.L173
 850:c_string.c    **** #if MRBC_USE_FLOAT
 2283              		.loc 1 850 0
 2284 0120 0A22     		movs	r2, #10
 2285 0122 8968     		ldr	r1, [r1, #8]
 2286 0124 0DA8     		add	r0, sp, #52
 2287              	.LVL330:
 2288 0126 FFF7FEFF 		bl	mrbc_printf_int
 2289              	.LVL331:
 2290 012a 0246     		mov	r2, r0
 2291              	.LVL332:
 2292 012c 48E0     		b	.L164
 2293              	.L173:
 852:c_string.c    **** 	ret = mrbc_printf_int( &pf, (mrbc_int)v[i].d, 10);
 2294              		.loc 1 852 0
 2295 012e 052B     		cmp	r3, #5
 2296 0130 0AD1     		bne	.L174
 853:c_string.c    **** #endif
 2297              		.loc 1 853 0
 2298 0132 D1E90201 		ldrd	r0, [r1, #8]
 2299              	.LVL333:
 2300 0136 FFF7FEFF 		bl	__aeabi_d2iz
 2301              	.LVL334:
 2302 013a 0A22     		movs	r2, #10
 2303 013c 0146     		mov	r1, r0
 2304 013e 0DA8     		add	r0, sp, #52
 2305 0140 FFF7FEFF 		bl	mrbc_printf_int
 2306              	.LVL335:
 2307 0144 0246     		mov	r2, r0
 2308              	.LVL336:
 2309 0146 3BE0     		b	.L164
 2310              	.L174:
 855:c_string.c    **** 	mrbc_int ival = atol(mrbc_string_cstr(&v[i]));
 2311              		.loc 1 855 0
 2312 0148 172B     		cmp	r3, #23
 2313 014a 39D1     		bne	.L164
 2314              	.LVL337:
 2315              	.LBB314:
 2316              	.LBB315:
 2317              	.LBB316:
 2318              		.loc 2 80 0
 2319 014c 8B68     		ldr	r3, [r1, #8]
 2320              	.LVL338:
 2321              	.LBE316:
 2322              	.LBE315:
ARM GAS  C:\Users\164\AppData\Local\Temp\cc3ssgoH.s 			page 73


 856:c_string.c    **** 	ret = mrbc_printf_int( &pf, ival, 10 );
 2323              		.loc 1 856 0
 2324 014e 9868     		ldr	r0, [r3, #8]
 2325              	.LVL339:
 2326 0150 FFF7FEFF 		bl	atol
 2327              	.LVL340:
 857:c_string.c    ****       }
 2328              		.loc 1 857 0
 2329 0154 0A22     		movs	r2, #10
 2330 0156 0146     		mov	r1, r0
 2331 0158 0DA8     		add	r0, sp, #52
 2332              	.LVL341:
 2333 015a FFF7FEFF 		bl	mrbc_printf_int
 2334              	.LVL342:
 2335 015e 0246     		mov	r2, r0
 2336              	.LVL343:
 2337 0160 2EE0     		b	.L164
 2338              	.L165:
 2339              	.LBE314:
 863:c_string.c    **** 	ret = mrbc_printf_int( &pf, v[i].i, 2);
 2340              		.loc 1 863 0
 2341 0162 3301     		lsls	r3, r6, #4
 2342 0164 F918     		adds	r1, r7, r3
 2343 0166 FB56     		ldrsb	r3, [r7, r3]
 2344 0168 042B     		cmp	r3, #4
 2345 016a 29D1     		bne	.L164
 864:c_string.c    ****       }
 2346              		.loc 1 864 0
 2347 016c 0222     		movs	r2, #2
 2348 016e 8968     		ldr	r1, [r1, #8]
 2349 0170 0DA8     		add	r0, sp, #52
 2350              	.LVL344:
 2351 0172 FFF7FEFF 		bl	mrbc_printf_int
 2352              	.LVL345:
 2353 0176 0246     		mov	r2, r0
 2354              	.LVL346:
 2355 0178 22E0     		b	.L164
 2356              	.L168:
 870:c_string.c    **** 	ret = mrbc_printf_int( &pf, v[i].i, 16);
 2357              		.loc 1 870 0
 2358 017a 3301     		lsls	r3, r6, #4
 2359 017c F918     		adds	r1, r7, r3
 2360 017e FB56     		ldrsb	r3, [r7, r3]
 2361 0180 042B     		cmp	r3, #4
 2362 0182 1DD1     		bne	.L164
 871:c_string.c    ****       }
 2363              		.loc 1 871 0
 2364 0184 1022     		movs	r2, #16
 2365 0186 8968     		ldr	r1, [r1, #8]
 2366 0188 0DA8     		add	r0, sp, #52
 2367              	.LVL347:
 2368 018a FFF7FEFF 		bl	mrbc_printf_int
 2369              	.LVL348:
 2370 018e 0246     		mov	r2, r0
 2371              	.LVL349:
 2372 0190 16E0     		b	.L164
 2373              	.L167:
ARM GAS  C:\Users\164\AppData\Local\Temp\cc3ssgoH.s 			page 74


 881:c_string.c    **** 	ret = mrbc_printf_float( &pf, v[i].d );
 2374              		.loc 1 881 0
 2375 0192 3301     		lsls	r3, r6, #4
 2376 0194 F918     		adds	r1, r7, r3
 2377 0196 FB56     		ldrsb	r3, [r7, r3]
 2378 0198 052B     		cmp	r3, #5
 2379 019a 06D1     		bne	.L175
 882:c_string.c    ****       } else
 2380              		.loc 1 882 0
 2381 019c D1E90223 		ldrd	r2, [r1, #8]
 2382 01a0 0DA8     		add	r0, sp, #52
 2383              	.LVL350:
 2384 01a2 FFF7FEFF 		bl	mrbc_printf_float
 2385              	.LVL351:
 2386 01a6 0246     		mov	r2, r0
 2387              	.LVL352:
 2388 01a8 0AE0     		b	.L164
 2389              	.L175:
 884:c_string.c    **** 	  ret = mrbc_printf_float( &pf, v[i].i );
 2390              		.loc 1 884 0
 2391 01aa 042B     		cmp	r3, #4
 2392 01ac 08D1     		bne	.L164
 885:c_string.c    **** 	}
 2393              		.loc 1 885 0
 2394 01ae 8868     		ldr	r0, [r1, #8]
 2395              	.LVL353:
 2396 01b0 FFF7FEFF 		bl	__aeabi_i2d
 2397              	.LVL354:
 2398 01b4 0246     		mov	r2, r0
 2399 01b6 0B46     		mov	r3, r1
 2400 01b8 0DA8     		add	r0, sp, #52
 2401 01ba FFF7FEFF 		bl	mrbc_printf_float
 2402              	.LVL355:
 2403 01be 0246     		mov	r2, r0
 2404              	.LVL356:
 2405              	.L164:
 893:c_string.c    ****       i++;
 2406              		.loc 1 893 0
 2407 01c0 002A     		cmp	r2, #0
 2408 01c2 01DB     		blt	.L176
 894:c_string.c    ****       continue;		// normal next loop.
 2409              		.loc 1 894 0
 2410 01c4 0136     		adds	r6, r6, #1
 2411              	.LVL357:
 2412 01c6 3EE7     		b	.L160
 2413              	.L176:
 899:c_string.c    ****     pf = pf_bak;
 2414              		.loc 1 899 0
 2415 01c8 129B     		ldr	r3, [sp, #72]
 2416 01ca 202B     		cmp	r3, #32
 2417 01cc 00DD     		ble	.L178
 899:c_string.c    ****     pf = pf_bak;
 2418              		.loc 1 899 0 is_stmt 0 discriminator 1
 2419 01ce 9844     		add	r8, r8, r3
 2420              	.LVL358:
 2421              	.L178:
 900:c_string.c    **** 
ARM GAS  C:\Users\164\AppData\Local\Temp\cc3ssgoH.s 			page 75


 2422              		.loc 1 900 0 is_stmt 1
 2423 01d0 0DAC     		add	r4, sp, #52
 2424 01d2 6D46     		mov	r5, sp
 2425 01d4 0FCD     		ldmia	r5!, {r0, r1, r2, r3}
 2426              	.LVL359:
 2427 01d6 0FC4     		stmia	r4!, {r0, r1, r2, r3}
 2428 01d8 95E80700 		ldmia	r5, {r0, r1, r2}
 2429 01dc 84E80700 		stmia	r4, {r0, r1, r2}
 2430              	.L162:
 903:c_string.c    ****     buf = mrbc_realloc(vm, pf.buf, buflen);
 2431              		.loc 1 903 0
 2432 01e0 08F12008 		add	r8, r8, #32
 2433              	.LVL360:
 904:c_string.c    ****     if( !buf ) { return; }	// ENOMEM raise? TODO: leak memory.
 2434              		.loc 1 904 0
 2435 01e4 4246     		mov	r2, r8
 2436 01e6 0D99     		ldr	r1, [sp, #52]
 2437 01e8 5046     		mov	r0, r10
 2438 01ea FFF7FEFF 		bl	mrbc_realloc
 2439              	.LVL361:
 905:c_string.c    ****     mrbc_printf_replace_buffer(&pf, buf, buflen);
 2440              		.loc 1 905 0
 2441 01ee 0146     		mov	r1, r0
 2442 01f0 00B3     		cbz	r0, .L157
 906:c_string.c    ****   }
 2443              		.loc 1 906 0
 2444 01f2 4246     		mov	r2, r8
 2445 01f4 0DA8     		add	r0, sp, #52
 2446              	.LVL362:
 2447 01f6 FFF7FEFF 		bl	mrbc_printf_replace_buffer
 2448              	.LVL363:
 2449 01fa 24E7     		b	.L160
 2450              	.L161:
 2451              	.LVL364:
 2452              	.LBE305:
 2453              	.LBB317:
 2454              	.LBB318:
 127:console.h     **** }
 2455              		.loc 3 127 0
 2456 01fc 0022     		movs	r2, #0
 2457 01fe 0F9B     		ldr	r3, [sp, #60]
 2458 0200 1A70     		strb	r2, [r3]
 2459              	.LVL365:
 2460              	.LBE318:
 2461              	.LBE317:
 2462              	.LBB319:
 2463              	.LBB320:
 139:console.h     **** }
 2464              		.loc 3 139 0
 2465 0202 0D99     		ldr	r1, [sp, #52]
 2466 0204 0F9C     		ldr	r4, [sp, #60]
 2467 0206 641A     		subs	r4, r4, r1
 2468              	.LVL366:
 2469              	.LBE320:
 2470              	.LBE319:
 911:c_string.c    **** 
 2471              		.loc 1 911 0
ARM GAS  C:\Users\164\AppData\Local\Temp\cc3ssgoH.s 			page 76


 2472 0208 621C     		adds	r2, r4, #1
 2473 020a 5046     		mov	r0, r10
 2474 020c FFF7FEFF 		bl	mrbc_realloc
 2475              	.LVL367:
 913:c_string.c    **** 
 2476              		.loc 1 913 0
 2477 0210 08AD     		add	r5, sp, #32
 2478 0212 2346     		mov	r3, r4
 2479 0214 0D9A     		ldr	r2, [sp, #52]
 2480 0216 5146     		mov	r1, r10
 2481 0218 2846     		mov	r0, r5
 2482 021a FFF7FEFF 		bl	mrbc_string_new_alloc
 2483              	.LVL368:
 2484              	.LBB321:
 915:c_string.c    **** }
 2485              		.loc 1 915 0
 2486 021e 95E80F00 		ldmia	r5, {r0, r1, r2, r3}
 2487 0222 8DE80F00 		stmia	sp, {r0, r1, r2, r3}
 2488 0226 3846     		mov	r0, r7
 2489 0228 FFF7FEFF 		bl	mrbc_dec_ref_counter
 2490              	.LVL369:
 2491 022c 9DE80F00 		ldmia	sp, {r0, r1, r2, r3}
 2492 0230 87E80F00 		stmia	r7, {r0, r1, r2, r3}
 2493              	.LVL370:
 2494              	.L157:
 2495              	.LBE321:
 916:c_string.c    **** 
 2496              		.loc 1 916 0
 2497 0234 14B0     		add	sp, sp, #80
 2498              		.cfi_def_cfa_offset 32
 2499              		@ sp needed
 2500 0236 BDE8F087 		pop	{r4, r5, r6, r7, r8, r9, r10, pc}
 2501              	.L183:
 2502 023a 00BF     		.align	2
 2503              	.L182:
 2504 023c 54000000 		.word	.LC4
 2505 0240 00000000 		.word	.LC0
 2506              		.cfi_endproc
 2507              	.LFE114:
 2508              		.size	c_object_sprintf, .-c_object_sprintf
 2509              		.section	.text.c_object_printf,"ax",%progbits
 2510              		.align	2
 2511              		.thumb
 2512              		.thumb_func
 2513              		.type	c_object_printf, %function
 2514              	c_object_printf:
 2515              	.LFB115:
 923:c_string.c    ****   c_object_sprintf(vm, v, argc);
 2516              		.loc 1 923 0
 2517              		.cfi_startproc
 2518              		@ args = 0, pretend = 0, frame = 0
 2519              		@ frame_needed = 0, uses_anonymous_args = 0
 2520              	.LVL371:
 2521 0000 10B5     		push	{r4, lr}
 2522              		.cfi_def_cfa_offset 8
 2523              		.cfi_offset 4, -8
 2524              		.cfi_offset 14, -4
ARM GAS  C:\Users\164\AppData\Local\Temp\cc3ssgoH.s 			page 77


 2525 0002 0C46     		mov	r4, r1
 924:c_string.c    ****   console_nprint( mrbc_string_cstr(v), mrbc_string_size(v) );
 2526              		.loc 1 924 0
 2527 0004 FFF7FEFF 		bl	c_object_sprintf
 2528              	.LVL372:
 2529              	.LBB322:
 2530              	.LBB323:
 2531              		.loc 2 80 0
 2532 0008 A368     		ldr	r3, [r4, #8]
 2533              	.LVL373:
 2534              	.LBE323:
 2535              	.LBE322:
 2536              	.LBB324:
 2537              	.LBB325:
  87:console.h     **** }
 2538              		.loc 3 87 0
 2539 000a 9A88     		ldrh	r2, [r3, #4]
 2540 000c 9968     		ldr	r1, [r3, #8]
 2541 000e 0120     		movs	r0, #1
 2542 0010 FFF7FEFF 		bl	hal_write
 2543              	.LVL374:
 2544              	.LBE325:
 2545              	.LBE324:
 926:c_string.c    **** }
 2546              		.loc 1 926 0
 2547 0014 2046     		mov	r0, r4
 2548 0016 FFF7FEFF 		bl	mrbc_dec_ref_counter
 2549              	.LVL375:
 2550 001a 0123     		movs	r3, #1
 2551 001c 2370     		strb	r3, [r4]
 2552 001e 10BD     		pop	{r4, pc}
 2553              		.cfi_endproc
 2554              	.LFE115:
 2555              		.size	c_object_printf, .-c_object_printf
 2556              		.section	.text.mrbc_string_delete,"ax",%progbits
 2557              		.align	2
 2558              		.global	mrbc_string_delete
 2559              		.thumb
 2560              		.thumb_func
 2561              		.type	mrbc_string_delete, %function
 2562              	mrbc_string_delete:
 2563              	.LFB90:
 143:c_string.c    ****   mrbc_raw_free(str->string->data);
 2564              		.loc 1 143 0
 2565              		.cfi_startproc
 2566              		@ args = 0, pretend = 0, frame = 0
 2567              		@ frame_needed = 0, uses_anonymous_args = 0
 2568              	.LVL376:
 2569 0000 10B5     		push	{r4, lr}
 2570              		.cfi_def_cfa_offset 8
 2571              		.cfi_offset 4, -8
 2572              		.cfi_offset 14, -4
 2573 0002 0446     		mov	r4, r0
 144:c_string.c    ****   mrbc_raw_free(str->string);
 2574              		.loc 1 144 0
 2575 0004 8368     		ldr	r3, [r0, #8]
 2576 0006 9868     		ldr	r0, [r3, #8]
ARM GAS  C:\Users\164\AppData\Local\Temp\cc3ssgoH.s 			page 78


 2577              	.LVL377:
 2578 0008 FFF7FEFF 		bl	mrbc_raw_free
 2579              	.LVL378:
 145:c_string.c    **** }
 2580              		.loc 1 145 0
 2581 000c A068     		ldr	r0, [r4, #8]
 2582 000e FFF7FEFF 		bl	mrbc_raw_free
 2583              	.LVL379:
 2584 0012 10BD     		pop	{r4, pc}
 2585              		.cfi_endproc
 2586              	.LFE90:
 2587              		.size	mrbc_string_delete, .-mrbc_string_delete
 2588              		.section	.text.mrbc_string_clear_vm_id,"ax",%progbits
 2589              		.align	2
 2590              		.global	mrbc_string_clear_vm_id
 2591              		.thumb
 2592              		.thumb_func
 2593              		.type	mrbc_string_clear_vm_id, %function
 2594              	mrbc_string_clear_vm_id:
 2595              	.LFB91:
 154:c_string.c    ****   mrbc_set_vm_id( str->string, 0 );
 2596              		.loc 1 154 0
 2597              		.cfi_startproc
 2598              		@ args = 0, pretend = 0, frame = 0
 2599              		@ frame_needed = 0, uses_anonymous_args = 0
 2600              	.LVL380:
 2601 0000 10B5     		push	{r4, lr}
 2602              		.cfi_def_cfa_offset 8
 2603              		.cfi_offset 4, -8
 2604              		.cfi_offset 14, -4
 2605 0002 0446     		mov	r4, r0
 155:c_string.c    ****   mrbc_set_vm_id( str->string->data, 0 );
 2606              		.loc 1 155 0
 2607 0004 0021     		movs	r1, #0
 2608 0006 8068     		ldr	r0, [r0, #8]
 2609              	.LVL381:
 2610 0008 FFF7FEFF 		bl	mrbc_set_vm_id
 2611              	.LVL382:
 156:c_string.c    **** }
 2612              		.loc 1 156 0
 2613 000c A368     		ldr	r3, [r4, #8]
 2614 000e 0021     		movs	r1, #0
 2615 0010 9868     		ldr	r0, [r3, #8]
 2616 0012 FFF7FEFF 		bl	mrbc_set_vm_id
 2617              	.LVL383:
 2618 0016 10BD     		pop	{r4, pc}
 2619              		.cfi_endproc
 2620              	.LFE91:
 2621              		.size	mrbc_string_clear_vm_id, .-mrbc_string_clear_vm_id
 2622              		.section	.text.mrbc_string_dup,"ax",%progbits
 2623              		.align	2
 2624              		.global	mrbc_string_dup
 2625              		.thumb
 2626              		.thumb_func
 2627              		.type	mrbc_string_dup, %function
 2628              	mrbc_string_dup:
 2629              	.LFB92:
ARM GAS  C:\Users\164\AppData\Local\Temp\cc3ssgoH.s 			page 79


 169:c_string.c    ****   mrbc_string *h1 = s1->string;
 2630              		.loc 1 169 0
 2631              		.cfi_startproc
 2632              		@ args = 0, pretend = 0, frame = 0
 2633              		@ frame_needed = 0, uses_anonymous_args = 0
 2634              	.LVL384:
 2635 0000 38B5     		push	{r3, r4, r5, lr}
 2636              		.cfi_def_cfa_offset 16
 2637              		.cfi_offset 3, -16
 2638              		.cfi_offset 4, -12
 2639              		.cfi_offset 5, -8
 2640              		.cfi_offset 14, -4
 2641 0002 0546     		mov	r5, r0
 170:c_string.c    **** 
 2642              		.loc 1 170 0
 2643 0004 9468     		ldr	r4, [r2, #8]
 2644              	.LVL385:
 172:c_string.c    ****   if( value.string == NULL ) return value;		// ENOMEM
 2645              		.loc 1 172 0
 2646 0006 A388     		ldrh	r3, [r4, #4]
 2647 0008 0022     		movs	r2, #0
 2648              	.LVL386:
 2649 000a FFF7FEFF 		bl	mrbc_string_new
 2650              	.LVL387:
 173:c_string.c    **** 
 2651              		.loc 1 173 0
 2652 000e AB68     		ldr	r3, [r5, #8]
 2653 0010 2BB1     		cbz	r3, .L190
 175:c_string.c    **** 
 2654              		.loc 1 175 0
 2655 0012 A288     		ldrh	r2, [r4, #4]
 2656 0014 0132     		adds	r2, r2, #1
 2657 0016 A168     		ldr	r1, [r4, #8]
 2658 0018 9868     		ldr	r0, [r3, #8]
 2659 001a FFF7FEFF 		bl	memcpy
 2660              	.LVL388:
 2661              	.L190:
 178:c_string.c    **** 
 2662              		.loc 1 178 0
 2663 001e 2846     		mov	r0, r5
 2664 0020 38BD     		pop	{r3, r4, r5, pc}
 2665              		.cfi_endproc
 2666              	.LFE92:
 2667              		.size	mrbc_string_dup, .-mrbc_string_dup
 2668 0022 00BF     		.section	.text.c_string_tr,"ax",%progbits
 2669              		.align	2
 2670              		.thumb
 2671              		.thumb_func
 2672              		.type	c_string_tr, %function
 2673              	c_string_tr:
 2674              	.LFB128:
1183:c_string.c    ****   mrb_value ret = mrbc_string_dup( vm, &v[0] );
 2675              		.loc 1 1183 0
 2676              		.cfi_startproc
 2677              		@ args = 0, pretend = 0, frame = 32
 2678              		@ frame_needed = 0, uses_anonymous_args = 0
 2679              	.LVL389:
ARM GAS  C:\Users\164\AppData\Local\Temp\cc3ssgoH.s 			page 80


 2680 0000 2DE9F041 		push	{r4, r5, r6, r7, r8, lr}
 2681              		.cfi_def_cfa_offset 24
 2682              		.cfi_offset 4, -24
 2683              		.cfi_offset 5, -20
 2684              		.cfi_offset 6, -16
 2685              		.cfi_offset 7, -12
 2686              		.cfi_offset 8, -8
 2687              		.cfi_offset 14, -4
 2688 0004 88B0     		sub	sp, sp, #32
 2689              		.cfi_def_cfa_offset 56
 2690 0006 0746     		mov	r7, r0
 2691 0008 0D46     		mov	r5, r1
 2692 000a 9046     		mov	r8, r2
1184:c_string.c    ****   SET_RETURN( ret );
 2693              		.loc 1 1184 0
 2694 000c 04AE     		add	r6, sp, #16
 2695 000e 0A46     		mov	r2, r1
 2696              	.LVL390:
 2697 0010 0146     		mov	r1, r0
 2698              	.LVL391:
 2699 0012 3046     		mov	r0, r6
 2700              	.LVL392:
 2701 0014 FFF7FEFF 		bl	mrbc_string_dup
 2702              	.LVL393:
 2703              	.LBB326:
1185:c_string.c    ****   tr_main(vm, v, argc);
 2704              		.loc 1 1185 0
 2705 0018 96E80F00 		ldmia	r6, {r0, r1, r2, r3}
 2706 001c 8DE80F00 		stmia	sp, {r0, r1, r2, r3}
 2707 0020 2846     		mov	r0, r5
 2708 0022 FFF7FEFF 		bl	mrbc_dec_ref_counter
 2709              	.LVL394:
 2710 0026 9DE80F00 		ldmia	sp, {r0, r1, r2, r3}
 2711 002a 85E80F00 		stmia	r5, {r0, r1, r2, r3}
 2712              	.LBE326:
1186:c_string.c    **** }
 2713              		.loc 1 1186 0
 2714 002e 4246     		mov	r2, r8
 2715 0030 2946     		mov	r1, r5
 2716 0032 3846     		mov	r0, r7
 2717 0034 FFF7FEFF 		bl	tr_main
 2718              	.LVL395:
1187:c_string.c    **** 
 2719              		.loc 1 1187 0
 2720 0038 08B0     		add	sp, sp, #32
 2721              		.cfi_def_cfa_offset 24
 2722              		@ sp needed
 2723 003a BDE8F081 		pop	{r4, r5, r6, r7, r8, pc}
 2724              		.cfi_endproc
 2725              	.LFE128:
 2726              		.size	c_string_tr, .-c_string_tr
 2727 003e 00BF     		.section	.text.c_string_dup,"ax",%progbits
 2728              		.align	2
 2729              		.thumb
 2730              		.thumb_func
 2731              		.type	c_string_dup, %function
 2732              	c_string_dup:
ARM GAS  C:\Users\164\AppData\Local\Temp\cc3ssgoH.s 			page 81


 2733              	.LFB109:
 611:c_string.c    ****   mrbc_value ret = mrbc_string_dup(vm, &v[0]);
 2734              		.loc 1 611 0
 2735              		.cfi_startproc
 2736              		@ args = 0, pretend = 0, frame = 32
 2737              		@ frame_needed = 0, uses_anonymous_args = 0
 2738              	.LVL396:
 2739 0000 70B5     		push	{r4, r5, r6, lr}
 2740              		.cfi_def_cfa_offset 16
 2741              		.cfi_offset 4, -16
 2742              		.cfi_offset 5, -12
 2743              		.cfi_offset 6, -8
 2744              		.cfi_offset 14, -4
 2745 0002 88B0     		sub	sp, sp, #32
 2746              		.cfi_def_cfa_offset 48
 2747 0004 0D46     		mov	r5, r1
 612:c_string.c    **** 
 2748              		.loc 1 612 0
 2749 0006 04AE     		add	r6, sp, #16
 2750 0008 0A46     		mov	r2, r1
 2751              	.LVL397:
 2752 000a 0146     		mov	r1, r0
 2753              	.LVL398:
 2754 000c 3046     		mov	r0, r6
 2755              	.LVL399:
 2756 000e FFF7FEFF 		bl	mrbc_string_dup
 2757              	.LVL400:
 2758              	.LBB327:
 614:c_string.c    **** }
 2759              		.loc 1 614 0
 2760 0012 96E80F00 		ldmia	r6, {r0, r1, r2, r3}
 2761 0016 8DE80F00 		stmia	sp, {r0, r1, r2, r3}
 2762 001a 2846     		mov	r0, r5
 2763 001c FFF7FEFF 		bl	mrbc_dec_ref_counter
 2764              	.LVL401:
 2765 0020 9DE80F00 		ldmia	sp, {r0, r1, r2, r3}
 2766 0024 85E80F00 		stmia	r5, {r0, r1, r2, r3}
 2767              	.LBE327:
 615:c_string.c    **** 
 2768              		.loc 1 615 0
 2769 0028 08B0     		add	sp, sp, #32
 2770              		.cfi_def_cfa_offset 16
 2771              		@ sp needed
 2772 002a 70BD     		pop	{r4, r5, r6, pc}
 2773              		.cfi_endproc
 2774              	.LFE109:
 2775              		.size	c_string_dup, .-c_string_dup
 2776              		.section	.text.mrbc_string_add,"ax",%progbits
 2777              		.align	2
 2778              		.global	mrbc_string_add
 2779              		.thumb
 2780              		.thumb_func
 2781              		.type	mrbc_string_add, %function
 2782              	mrbc_string_add:
 2783              	.LFB93:
 190:c_string.c    ****   mrbc_string *h1 = s1->string;
 2784              		.loc 1 190 0
ARM GAS  C:\Users\164\AppData\Local\Temp\cc3ssgoH.s 			page 82


 2785              		.cfi_startproc
 2786              		@ args = 0, pretend = 0, frame = 0
 2787              		@ frame_needed = 0, uses_anonymous_args = 0
 2788              	.LVL402:
 2789 0000 F8B5     		push	{r3, r4, r5, r6, r7, lr}
 2790              		.cfi_def_cfa_offset 24
 2791              		.cfi_offset 3, -24
 2792              		.cfi_offset 4, -20
 2793              		.cfi_offset 5, -16
 2794              		.cfi_offset 6, -12
 2795              		.cfi_offset 7, -8
 2796              		.cfi_offset 14, -4
 2797 0002 0746     		mov	r7, r0
 191:c_string.c    ****   mrbc_string *h2 = s2->string;
 2798              		.loc 1 191 0
 2799 0004 9468     		ldr	r4, [r2, #8]
 2800              	.LVL403:
 192:c_string.c    **** 
 2801              		.loc 1 192 0
 2802 0006 9D68     		ldr	r5, [r3, #8]
 2803              	.LVL404:
 194:c_string.c    ****   if( value.string == NULL ) return value;		// ENOMEM
 2804              		.loc 1 194 0
 2805 0008 A288     		ldrh	r2, [r4, #4]
 2806              	.LVL405:
 2807 000a AB88     		ldrh	r3, [r5, #4]
 2808              	.LVL406:
 2809 000c 1344     		add	r3, r3, r2
 2810 000e 0022     		movs	r2, #0
 2811 0010 FFF7FEFF 		bl	mrbc_string_new
 2812              	.LVL407:
 195:c_string.c    **** 
 2813              		.loc 1 195 0
 2814 0014 BE68     		ldr	r6, [r7, #8]
 2815 0016 66B1     		cbz	r6, .L197
 197:c_string.c    ****   memcpy( value.string->data + h1->size, h2->data, h2->size + 1 );
 2816              		.loc 1 197 0
 2817 0018 A288     		ldrh	r2, [r4, #4]
 2818 001a A168     		ldr	r1, [r4, #8]
 2819 001c B068     		ldr	r0, [r6, #8]
 2820 001e FFF7FEFF 		bl	memcpy
 2821              	.LVL408:
 198:c_string.c    **** 
 2822              		.loc 1 198 0
 2823 0022 B068     		ldr	r0, [r6, #8]
 2824 0024 A388     		ldrh	r3, [r4, #4]
 2825 0026 AA88     		ldrh	r2, [r5, #4]
 2826 0028 0132     		adds	r2, r2, #1
 2827 002a A968     		ldr	r1, [r5, #8]
 2828 002c 1844     		add	r0, r0, r3
 2829 002e FFF7FEFF 		bl	memcpy
 2830              	.LVL409:
 2831              	.L197:
 201:c_string.c    **** 
 2832              		.loc 1 201 0
 2833 0032 3846     		mov	r0, r7
 2834 0034 F8BD     		pop	{r3, r4, r5, r6, r7, pc}
ARM GAS  C:\Users\164\AppData\Local\Temp\cc3ssgoH.s 			page 83


 2835              		.cfi_endproc
 2836              	.LFE93:
 2837              		.size	mrbc_string_add, .-mrbc_string_add
 2838 0036 00BF     		.section	.text.c_string_add,"ax",%progbits
 2839              		.align	2
 2840              		.thumb
 2841              		.thumb_func
 2842              		.type	c_string_add, %function
 2843              	c_string_add:
 2844              	.LFB99:
 358:c_string.c    ****   if( v[1].tt != MRBC_TT_STRING ) {
 2845              		.loc 1 358 0
 2846              		.cfi_startproc
 2847              		@ args = 0, pretend = 0, frame = 32
 2848              		@ frame_needed = 0, uses_anonymous_args = 0
 2849              	.LVL410:
 2850 0000 70B5     		push	{r4, r5, r6, lr}
 2851              		.cfi_def_cfa_offset 16
 2852              		.cfi_offset 4, -16
 2853              		.cfi_offset 5, -12
 2854              		.cfi_offset 6, -8
 2855              		.cfi_offset 14, -4
 2856 0002 88B0     		sub	sp, sp, #32
 2857              		.cfi_def_cfa_offset 48
 359:c_string.c    ****     console_print( "Not support STRING + Other\n" );
 2858              		.loc 1 359 0
 2859 0004 91F91030 		ldrsb	r3, [r1, #16]
 2860 0008 172B     		cmp	r3, #23
 2861 000a 05D0     		beq	.L201
 2862              	.LVL411:
 2863              	.LBB331:
 2864              	.LBB332:
  75:console.h     **** }
 2865              		.loc 3 75 0
 2866 000c 1B22     		movs	r2, #27
 2867              	.LVL412:
 2868 000e 0D49     		ldr	r1, .L204
 2869              	.LVL413:
 2870 0010 0120     		movs	r0, #1
 2871              	.LVL414:
 2872 0012 FFF7FEFF 		bl	hal_write
 2873              	.LVL415:
 2874 0016 13E0     		b	.L200
 2875              	.LVL416:
 2876              	.L201:
 2877 0018 0C46     		mov	r4, r1
 2878              	.LBE332:
 2879              	.LBE331:
 364:c_string.c    ****   SET_RETURN(value);
 2880              		.loc 1 364 0
 2881 001a 04AE     		add	r6, sp, #16
 2882 001c 01F11003 		add	r3, r1, #16
 2883 0020 0A46     		mov	r2, r1
 2884              	.LVL417:
 2885 0022 0146     		mov	r1, r0
 2886              	.LVL418:
 2887 0024 3046     		mov	r0, r6
ARM GAS  C:\Users\164\AppData\Local\Temp\cc3ssgoH.s 			page 84


 2888              	.LVL419:
 2889 0026 FFF7FEFF 		bl	mrbc_string_add
 2890              	.LVL420:
 2891              	.LBB333:
 365:c_string.c    **** }
 2892              		.loc 1 365 0
 2893 002a 96E80F00 		ldmia	r6, {r0, r1, r2, r3}
 2894 002e 8DE80F00 		stmia	sp, {r0, r1, r2, r3}
 2895 0032 2046     		mov	r0, r4
 2896 0034 FFF7FEFF 		bl	mrbc_dec_ref_counter
 2897              	.LVL421:
 2898 0038 9DE80F00 		ldmia	sp, {r0, r1, r2, r3}
 2899 003c 84E80F00 		stmia	r4, {r0, r1, r2, r3}
 2900              	.LVL422:
 2901              	.L200:
 2902              	.LBE333:
 366:c_string.c    **** 
 2903              		.loc 1 366 0
 2904 0040 08B0     		add	sp, sp, #32
 2905              		.cfi_def_cfa_offset 16
 2906              		@ sp needed
 2907 0042 70BD     		pop	{r4, r5, r6, pc}
 2908              	.L205:
 2909              		.align	2
 2910              	.L204:
 2911 0044 60000000 		.word	.LC5
 2912              		.cfi_endproc
 2913              	.LFE99:
 2914              		.size	c_string_add, .-c_string_add
 2915              		.section	.text.mrbc_string_append,"ax",%progbits
 2916              		.align	2
 2917              		.global	mrbc_string_append
 2918              		.thumb
 2919              		.thumb_func
 2920              		.type	mrbc_string_append, %function
 2921              	mrbc_string_append:
 2922              	.LFB94:
 212:c_string.c    ****   int len1 = s1->string->size;
 2923              		.loc 1 212 0
 2924              		.cfi_startproc
 2925              		@ args = 0, pretend = 0, frame = 0
 2926              		@ frame_needed = 0, uses_anonymous_args = 0
 2927              	.LVL423:
 2928 0000 2DE9F041 		push	{r4, r5, r6, r7, r8, lr}
 2929              		.cfi_def_cfa_offset 24
 2930              		.cfi_offset 4, -24
 2931              		.cfi_offset 5, -20
 2932              		.cfi_offset 6, -16
 2933              		.cfi_offset 7, -12
 2934              		.cfi_offset 8, -8
 2935              		.cfi_offset 14, -4
 2936 0004 0546     		mov	r5, r0
 2937 0006 0E46     		mov	r6, r1
 213:c_string.c    ****   int len2 = (s2->tt == MRBC_TT_STRING) ? s2->string->size : 1;
 2938              		.loc 1 213 0
 2939 0008 8368     		ldr	r3, [r0, #8]
 2940 000a 9F88     		ldrh	r7, [r3, #4]
ARM GAS  C:\Users\164\AppData\Local\Temp\cc3ssgoH.s 			page 85


 2941              	.LVL424:
 214:c_string.c    **** 
 2942              		.loc 1 214 0
 2943 000c 91F90020 		ldrsb	r2, [r1]
 2944 0010 172A     		cmp	r2, #23
 2945 0012 02D1     		bne	.L211
 214:c_string.c    **** 
 2946              		.loc 1 214 0 is_stmt 0 discriminator 1
 2947 0014 8A68     		ldr	r2, [r1, #8]
 2948 0016 9488     		ldrh	r4, [r2, #4]
 2949 0018 00E0     		b	.L207
 2950              	.L211:
 214:c_string.c    **** 
 2951              		.loc 1 214 0
 2952 001a 0124     		movs	r4, #1
 2953              	.L207:
 2954              	.LVL425:
 216:c_string.c    ****   if( !str ) return E_NOMEMORY_ERROR;
 2955              		.loc 1 216 0 is_stmt 1 discriminator 4
 2956 001c E119     		adds	r1, r4, r7
 2957              	.LVL426:
 2958 001e 0131     		adds	r1, r1, #1
 2959 0020 9868     		ldr	r0, [r3, #8]
 2960              	.LVL427:
 2961 0022 FFF7FEFF 		bl	mrbc_raw_realloc
 2962              	.LVL428:
 217:c_string.c    **** 
 2963              		.loc 1 217 0 discriminator 4
 2964 0026 8046     		mov	r8, r0
 2965 0028 D0B1     		cbz	r0, .L212
 219:c_string.c    ****     memcpy(str + len1, s2->string->data, len2 + 1);
 2966              		.loc 1 219 0
 2967 002a 96F90030 		ldrsb	r3, [r6]
 2968 002e 172B     		cmp	r3, #23
 2969 0030 06D1     		bne	.L209
 220:c_string.c    ****   } else if( s2->tt == MRBC_TT_FIXNUM ) {
 2970              		.loc 1 220 0
 2971 0032 B368     		ldr	r3, [r6, #8]
 2972 0034 621C     		adds	r2, r4, #1
 2973 0036 9968     		ldr	r1, [r3, #8]
 2974 0038 3844     		add	r0, r0, r7
 2975              	.LVL429:
 2976 003a FFF7FEFF 		bl	memcpy
 2977              	.LVL430:
 2978 003e 06E0     		b	.L210
 2979              	.LVL431:
 2980              	.L209:
 221:c_string.c    ****     str[len1] = s2->i;
 2981              		.loc 1 221 0
 2982 0040 042B     		cmp	r3, #4
 2983 0042 04D1     		bne	.L210
 222:c_string.c    ****     str[len1+1] = '\0';
 2984              		.loc 1 222 0
 2985 0044 B368     		ldr	r3, [r6, #8]
 2986 0046 C355     		strb	r3, [r0, r7]
 223:c_string.c    ****   }
 2987              		.loc 1 223 0
ARM GAS  C:\Users\164\AppData\Local\Temp\cc3ssgoH.s 			page 86


 2988 0048 7B1C     		adds	r3, r7, #1
 2989 004a 0022     		movs	r2, #0
 2990 004c C254     		strb	r2, [r0, r3]
 2991              	.LVL432:
 2992              	.L210:
 226:c_string.c    ****   s1->string->data = str;
 2993              		.loc 1 226 0
 2994 004e AB68     		ldr	r3, [r5, #8]
 2995 0050 3C44     		add	r4, r4, r7
 2996              	.LVL433:
 2997 0052 9C80     		strh	r4, [r3, #4]	@ movhi
 227:c_string.c    **** 
 2998              		.loc 1 227 0
 2999 0054 AB68     		ldr	r3, [r5, #8]
 3000 0056 C3F80880 		str	r8, [r3, #8]
 229:c_string.c    **** }
 3001              		.loc 1 229 0
 3002 005a 0020     		movs	r0, #0
 3003 005c BDE8F081 		pop	{r4, r5, r6, r7, r8, pc}
 3004              	.LVL434:
 3005              	.L212:
 217:c_string.c    **** 
 3006              		.loc 1 217 0
 3007 0060 0120     		movs	r0, #1
 3008              	.LVL435:
 230:c_string.c    **** 
 3009              		.loc 1 230 0
 3010 0062 BDE8F081 		pop	{r4, r5, r6, r7, r8, pc}
 3011              		.cfi_endproc
 3012              	.LFE94:
 3013              		.size	mrbc_string_append, .-mrbc_string_append
 3014 0066 00BF     		.section	.text.c_string_append,"ax",%progbits
 3015              		.align	2
 3016              		.thumb
 3017              		.thumb_func
 3018              		.type	c_string_append, %function
 3019              	c_string_append:
 3020              	.LFB104:
 450:c_string.c    ****   if( !mrbc_string_append( &v[0], &v[1] ) ) {
 3021              		.loc 1 450 0
 3022              		.cfi_startproc
 3023              		@ args = 0, pretend = 0, frame = 0
 3024              		@ frame_needed = 0, uses_anonymous_args = 0
 3025              	.LVL436:
 3026 0000 08B5     		push	{r3, lr}
 3027              		.cfi_def_cfa_offset 8
 3028              		.cfi_offset 3, -8
 3029              		.cfi_offset 14, -4
 3030 0002 0846     		mov	r0, r1
 3031              	.LVL437:
 451:c_string.c    ****     // raise ? ENOMEM
 3032              		.loc 1 451 0
 3033 0004 1031     		adds	r1, r1, #16
 3034              	.LVL438:
 3035 0006 FFF7FEFF 		bl	mrbc_string_append
 3036              	.LVL439:
 3037 000a 08BD     		pop	{r3, pc}
ARM GAS  C:\Users\164\AppData\Local\Temp\cc3ssgoH.s 			page 87


 3038              		.cfi_endproc
 3039              	.LFE104:
 3040              		.size	c_string_append, .-c_string_append
 3041              		.section	.text.mrbc_string_append_cstr,"ax",%progbits
 3042              		.align	2
 3043              		.global	mrbc_string_append_cstr
 3044              		.thumb
 3045              		.thumb_func
 3046              		.type	mrbc_string_append_cstr, %function
 3047              	mrbc_string_append_cstr:
 3048              	.LFB95:
 241:c_string.c    ****   int len1 = s1->string->size;
 3049              		.loc 1 241 0
 3050              		.cfi_startproc
 3051              		@ args = 0, pretend = 0, frame = 0
 3052              		@ frame_needed = 0, uses_anonymous_args = 0
 3053              	.LVL440:
 3054 0000 2DE9F041 		push	{r4, r5, r6, r7, r8, lr}
 3055              		.cfi_def_cfa_offset 24
 3056              		.cfi_offset 4, -24
 3057              		.cfi_offset 5, -20
 3058              		.cfi_offset 6, -16
 3059              		.cfi_offset 7, -12
 3060              		.cfi_offset 8, -8
 3061              		.cfi_offset 14, -4
 3062 0004 0546     		mov	r5, r0
 3063 0006 8846     		mov	r8, r1
 242:c_string.c    ****   int len2 = strlen(s2);
 3064              		.loc 1 242 0
 3065 0008 8768     		ldr	r7, [r0, #8]
 3066 000a BE88     		ldrh	r6, [r7, #4]
 3067              	.LVL441:
 243:c_string.c    **** 
 3068              		.loc 1 243 0
 3069 000c 0846     		mov	r0, r1
 3070              	.LVL442:
 3071 000e FFF7FEFF 		bl	strlen
 3072              	.LVL443:
 3073 0012 0446     		mov	r4, r0
 3074              	.LVL444:
 245:c_string.c    ****   if( !str ) return E_NOMEMORY_ERROR;
 3075              		.loc 1 245 0
 3076 0014 3118     		adds	r1, r6, r0
 3077 0016 0131     		adds	r1, r1, #1
 3078 0018 B868     		ldr	r0, [r7, #8]
 3079              	.LVL445:
 3080 001a FFF7FEFF 		bl	mrbc_raw_realloc
 3081              	.LVL446:
 246:c_string.c    **** 
 3082              		.loc 1 246 0
 3083 001e 68B1     		cbz	r0, .L218
 3084 0020 0746     		mov	r7, r0
 248:c_string.c    **** 
 3085              		.loc 1 248 0
 3086 0022 621C     		adds	r2, r4, #1
 3087 0024 4146     		mov	r1, r8
 3088 0026 3044     		add	r0, r0, r6
ARM GAS  C:\Users\164\AppData\Local\Temp\cc3ssgoH.s 			page 88


 3089              	.LVL447:
 3090 0028 FFF7FEFF 		bl	memcpy
 3091              	.LVL448:
 250:c_string.c    ****   s1->string->data = str;
 3092              		.loc 1 250 0
 3093 002c AB68     		ldr	r3, [r5, #8]
 3094 002e 3444     		add	r4, r4, r6
 3095              	.LVL449:
 3096 0030 9C80     		strh	r4, [r3, #4]	@ movhi
 251:c_string.c    **** 
 3097              		.loc 1 251 0
 3098 0032 AB68     		ldr	r3, [r5, #8]
 3099 0034 9F60     		str	r7, [r3, #8]
 253:c_string.c    **** }
 3100              		.loc 1 253 0
 3101 0036 0020     		movs	r0, #0
 3102 0038 BDE8F081 		pop	{r4, r5, r6, r7, r8, pc}
 3103              	.LVL450:
 3104              	.L218:
 246:c_string.c    **** 
 3105              		.loc 1 246 0
 3106 003c 0120     		movs	r0, #1
 3107              	.LVL451:
 254:c_string.c    **** 
 3108              		.loc 1 254 0
 3109 003e BDE8F081 		pop	{r4, r5, r6, r7, r8, pc}
 3110              		.cfi_endproc
 3111              	.LFE95:
 3112              		.size	mrbc_string_append_cstr, .-mrbc_string_append_cstr
 3113 0042 00BF     		.section	.text.c_string_inspect,"ax",%progbits
 3114              		.align	2
 3115              		.thumb
 3116              		.thumb_func
 3117              		.type	c_string_inspect, %function
 3118              	c_string_inspect:
 3119              	.LFB111:
 653:c_string.c    ****   char buf[10] = "\\x";
 3120              		.loc 1 653 0
 3121              		.cfi_startproc
 3122              		@ args = 0, pretend = 0, frame = 48
 3123              		@ frame_needed = 0, uses_anonymous_args = 0
 3124              	.LVL452:
 3125 0000 70B5     		push	{r4, r5, r6, lr}
 3126              		.cfi_def_cfa_offset 16
 3127              		.cfi_offset 4, -16
 3128              		.cfi_offset 5, -12
 3129              		.cfi_offset 6, -8
 3130              		.cfi_offset 14, -4
 3131 0002 8CB0     		sub	sp, sp, #48
 3132              		.cfi_def_cfa_offset 64
 3133 0004 0D46     		mov	r5, r1
 654:c_string.c    ****   mrbc_value ret = mrbc_string_new_cstr(vm, "\"");
 3134              		.loc 1 654 0
 3135 0006 47F65C03 		movw	r3, #30812
 3136 000a 0993     		str	r3, [sp, #36]
 3137 000c 0024     		movs	r4, #0
 3138 000e 0A94     		str	r4, [sp, #40]
ARM GAS  C:\Users\164\AppData\Local\Temp\cc3ssgoH.s 			page 89


 3139 0010 ADF82C40 		strh	r4, [sp, #44]	@ movhi
 655:c_string.c    ****   const unsigned char *s = (const unsigned char *)mrbc_string_cstr(v);
 3140              		.loc 1 655 0
 3141 0014 1D4A     		ldr	r2, .L226
 3142              	.LVL453:
 3143 0016 0146     		mov	r1, r0
 3144              	.LVL454:
 3145 0018 04A8     		add	r0, sp, #16
 3146              	.LVL455:
 3147 001a FFF7FEFF 		bl	mrbc_string_new_cstr
 3148              	.LVL456:
 3149              	.LBB334:
 3150              	.LBB335:
 3151              		.loc 2 80 0
 3152 001e AB68     		ldr	r3, [r5, #8]
 3153 0020 9E68     		ldr	r6, [r3, #8]
 3154              	.LVL457:
 3155              	.LBE335:
 3156              	.LBE334:
 658:c_string.c    ****     if( s[i] < ' ' || 0x7f <= s[i] ) {	// tiny isprint()
 3157              		.loc 1 658 0
 3158 0022 1CE0     		b	.L221
 3159              	.LVL458:
 3160              	.L224:
 659:c_string.c    ****       buf[2] = "0123456789ABCDEF"[s[i] >> 4];
 3161              		.loc 1 659 0
 3162 0024 335D     		ldrb	r3, [r6, r4]	@ zero_extendqisi2
 3163 0026 A3F12002 		sub	r2, r3, #32
 3164 002a D2B2     		uxtb	r2, r2
 3165 002c 5E2A     		cmp	r2, #94
 3166 002e 0FD9     		bls	.L222
 660:c_string.c    ****       buf[3] = "0123456789ABCDEF"[s[i] & 0x0f];
 3167              		.loc 1 660 0
 3168 0030 1B09     		lsrs	r3, r3, #4
 3169 0032 174A     		ldr	r2, .L226+4
 3170 0034 D35C     		ldrb	r3, [r2, r3]	@ zero_extendqisi2
 3171 0036 8DF82630 		strb	r3, [sp, #38]
 661:c_string.c    ****       mrbc_string_append_cstr(&ret, buf);
 3172              		.loc 1 661 0
 3173 003a 335D     		ldrb	r3, [r6, r4]	@ zero_extendqisi2
 3174 003c 03F00F03 		and	r3, r3, #15
 3175 0040 D35C     		ldrb	r3, [r2, r3]	@ zero_extendqisi2
 3176 0042 8DF82730 		strb	r3, [sp, #39]
 662:c_string.c    ****     } else {
 3177              		.loc 1 662 0
 3178 0046 09A9     		add	r1, sp, #36
 3179 0048 04A8     		add	r0, sp, #16
 3180 004a FFF7FEFF 		bl	mrbc_string_append_cstr
 3181              	.LVL459:
 3182 004e 05E0     		b	.L223
 3183              	.L222:
 664:c_string.c    ****       mrbc_string_append_cstr(&ret, buf+3);
 3184              		.loc 1 664 0
 3185 0050 0CA9     		add	r1, sp, #48
 3186 0052 01F8093D 		strb	r3, [r1, #-9]!
 665:c_string.c    ****     }
 3187              		.loc 1 665 0
ARM GAS  C:\Users\164\AppData\Local\Temp\cc3ssgoH.s 			page 90


 3188 0056 04A8     		add	r0, sp, #16
 3189 0058 FFF7FEFF 		bl	mrbc_string_append_cstr
 3190              	.LVL460:
 3191              	.L223:
 658:c_string.c    ****     if( s[i] < ' ' || 0x7f <= s[i] ) {	// tiny isprint()
 3192              		.loc 1 658 0 discriminator 2
 3193 005c 0134     		adds	r4, r4, #1
 3194              	.LVL461:
 3195              	.L221:
 3196              	.LBB336:
 3197              	.LBB337:
  72:c_string.h    **** }
 3198              		.loc 2 72 0 discriminator 1
 3199 005e AB68     		ldr	r3, [r5, #8]
 3200 0060 9B88     		ldrh	r3, [r3, #4]
 3201              	.LVL462:
 3202              	.LBE337:
 3203              	.LBE336:
 658:c_string.c    ****     if( s[i] < ' ' || 0x7f <= s[i] ) {	// tiny isprint()
 3204              		.loc 1 658 0 discriminator 1
 3205 0062 9C42     		cmp	r4, r3
 3206 0064 DEDB     		blt	.L224
 668:c_string.c    **** 
 3207              		.loc 1 668 0
 3208 0066 04AE     		add	r6, sp, #16
 3209 0068 0849     		ldr	r1, .L226
 3210 006a 3046     		mov	r0, r6
 3211 006c FFF7FEFF 		bl	mrbc_string_append_cstr
 3212              	.LVL463:
 3213              	.LBB338:
 670:c_string.c    **** }
 3214              		.loc 1 670 0
 3215 0070 96E80F00 		ldmia	r6, {r0, r1, r2, r3}
 3216 0074 8DE80F00 		stmia	sp, {r0, r1, r2, r3}
 3217 0078 2846     		mov	r0, r5
 3218 007a FFF7FEFF 		bl	mrbc_dec_ref_counter
 3219              	.LVL464:
 3220 007e 9DE80F00 		ldmia	sp, {r0, r1, r2, r3}
 3221 0082 85E80F00 		stmia	r5, {r0, r1, r2, r3}
 3222              	.LBE338:
 671:c_string.c    **** 
 3223              		.loc 1 671 0
 3224 0086 0CB0     		add	sp, sp, #48
 3225              		.cfi_def_cfa_offset 16
 3226              		@ sp needed
 3227 0088 70BD     		pop	{r4, r5, r6, pc}
 3228              	.LVL465:
 3229              	.L227:
 3230 008a 00BF     		.align	2
 3231              	.L226:
 3232 008c 7C000000 		.word	.LC6
 3233 0090 80000000 		.word	.LC7
 3234              		.cfi_endproc
 3235              	.LFE111:
 3236              		.size	c_string_inspect, .-c_string_inspect
 3237              		.section	.text.mrbc_string_index,"ax",%progbits
 3238              		.align	2
ARM GAS  C:\Users\164\AppData\Local\Temp\cc3ssgoH.s 			page 91


 3239              		.global	mrbc_string_index
 3240              		.thumb
 3241              		.thumb_func
 3242              		.type	mrbc_string_index, %function
 3243              	mrbc_string_index:
 3244              	.LFB96:
 266:c_string.c    ****   char *p1 = mrbc_string_cstr(src) + offset;
 3245              		.loc 1 266 0
 3246              		.cfi_startproc
 3247              		@ args = 0, pretend = 0, frame = 0
 3248              		@ frame_needed = 0, uses_anonymous_args = 0
 3249              	.LVL466:
 3250 0000 2DE9F041 		push	{r4, r5, r6, r7, r8, lr}
 3251              		.cfi_def_cfa_offset 24
 3252              		.cfi_offset 4, -24
 3253              		.cfi_offset 5, -20
 3254              		.cfi_offset 6, -16
 3255              		.cfi_offset 7, -12
 3256              		.cfi_offset 8, -8
 3257              		.cfi_offset 14, -4
 3258              	.LVL467:
 3259              	.LBB339:
 3260              	.LBB340:
 3261              		.loc 2 80 0
 3262 0004 8368     		ldr	r3, [r0, #8]
 3263 0006 D3F80880 		ldr	r8, [r3, #8]
 3264              	.LVL468:
 3265              	.LBE340:
 3266              	.LBE339:
 267:c_string.c    ****   char *p2 = mrbc_string_cstr(pattern);
 3267              		.loc 1 267 0
 3268 000a 08EB0205 		add	r5, r8, r2
 3269              	.LVL469:
 3270              	.LBB341:
 3271              	.LBB342:
 3272              		.loc 2 80 0
 3273 000e 8968     		ldr	r1, [r1, #8]
 3274              	.LVL470:
 3275 0010 8F68     		ldr	r7, [r1, #8]
 3276              	.LVL471:
 3277              	.LBE342:
 3278              	.LBE341:
 3279              	.LBB343:
 3280              	.LBB344:
  72:c_string.h    **** }
 3281              		.loc 2 72 0
 3282 0012 9B88     		ldrh	r3, [r3, #4]
 3283              	.LVL472:
 3284              	.LBE344:
 3285              	.LBE343:
 3286              	.LBB345:
 3287              	.LBB346:
 3288 0014 8E88     		ldrh	r6, [r1, #4]
 3289              	.LVL473:
 3290              	.LBE346:
 3291              	.LBE345:
 269:c_string.c    **** 
ARM GAS  C:\Users\164\AppData\Local\Temp\cc3ssgoH.s 			page 92


 3292              		.loc 1 269 0
 3293 0016 9B1B     		subs	r3, r3, r6
 3294 0018 9C1A     		subs	r4, r3, r2
 3295              	.LVL474:
 271:c_string.c    ****     if( memcmp( p1, p2, mrbc_string_size(pattern) ) == 0 ) {
 3296              		.loc 1 271 0
 3297 001a 0BE0     		b	.L229
 3298              	.LVL475:
 3299              	.L232:
 272:c_string.c    ****       return p1 - mrbc_string_cstr(src);	// matched.
 3300              		.loc 1 272 0
 3301 001c 3246     		mov	r2, r6
 3302 001e 3946     		mov	r1, r7
 3303 0020 2846     		mov	r0, r5
 3304 0022 FFF7FEFF 		bl	memcmp
 3305              	.LVL476:
 3306 0026 18B9     		cbnz	r0, .L230
 273:c_string.c    ****     }
 3307              		.loc 1 273 0
 3308 0028 C8EB0500 		rsb	r0, r8, r5
 3309 002c BDE8F081 		pop	{r4, r5, r6, r7, r8, pc}
 3310              	.LVL477:
 3311              	.L230:
 275:c_string.c    ****     p1++;
 3312              		.loc 1 275 0
 3313 0030 013C     		subs	r4, r4, #1
 3314              	.LVL478:
 276:c_string.c    ****   }
 3315              		.loc 1 276 0
 3316 0032 0135     		adds	r5, r5, #1
 3317              	.LVL479:
 3318              	.L229:
 271:c_string.c    ****     if( memcmp( p1, p2, mrbc_string_size(pattern) ) == 0 ) {
 3319              		.loc 1 271 0
 3320 0034 002C     		cmp	r4, #0
 3321 0036 F1DA     		bge	.L232
 279:c_string.c    **** }
 3322              		.loc 1 279 0
 3323 0038 4FF0FF30 		mov	r0, #-1
 280:c_string.c    **** 
 3324              		.loc 1 280 0
 3325 003c BDE8F081 		pop	{r4, r5, r6, r7, r8, pc}
 3326              		.cfi_endproc
 3327              	.LFE96:
 3328              		.size	mrbc_string_index, .-mrbc_string_index
 3329              		.section	.text.c_string_include,"ax",%progbits
 3330              		.align	2
 3331              		.thumb
 3332              		.thumb_func
 3333              		.type	c_string_include, %function
 3334              	c_string_include:
 3335              	.LFB132:
1245:c_string.c    **** }
1246:c_string.c    **** 
1247:c_string.c    **** 
1248:c_string.c    **** //================================================================
1249:c_string.c    **** /*! (method) include?
ARM GAS  C:\Users\164\AppData\Local\Temp\cc3ssgoH.s 			page 93


1250:c_string.c    **** */
1251:c_string.c    **** static void c_string_include(struct VM *vm, mrbc_value v[], int argc)
1252:c_string.c    **** {
 3336              		.loc 1 1252 0
 3337              		.cfi_startproc
 3338              		@ args = 0, pretend = 0, frame = 0
 3339              		@ frame_needed = 0, uses_anonymous_args = 0
 3340              	.LVL480:
 3341 0000 38B5     		push	{r3, r4, r5, lr}
 3342              		.cfi_def_cfa_offset 16
 3343              		.cfi_offset 3, -16
 3344              		.cfi_offset 4, -12
 3345              		.cfi_offset 5, -8
 3346              		.cfi_offset 14, -4
1253:c_string.c    ****   if( !(argc == 1 && v[1].tt == MRBC_TT_STRING)) {
 3347              		.loc 1 1253 0
 3348 0002 012A     		cmp	r2, #1
 3349 0004 04D1     		bne	.L235
 3350 0006 0C46     		mov	r4, r1
 3351              		.loc 1 1253 0 is_stmt 0 discriminator 1
 3352 0008 91F91030 		ldrsb	r3, [r1, #16]
 3353 000c 172B     		cmp	r3, #23
 3354 000e 05D0     		beq	.L236
 3355              	.L235:
 3356              	.LVL481:
 3357              	.LBB349:
 3358              	.LBB350:
  75:console.h     **** }
 3359              		.loc 3 75 0 is_stmt 1
 3360 0010 0E22     		movs	r2, #14
 3361              	.LVL482:
 3362 0012 0A49     		ldr	r1, .L241
 3363              	.LVL483:
 3364 0014 0120     		movs	r0, #1
 3365              	.LVL484:
 3366 0016 FFF7FEFF 		bl	hal_write
 3367              	.LVL485:
 3368 001a 38BD     		pop	{r3, r4, r5, pc}
 3369              	.LVL486:
 3370              	.L236:
 3371              	.LBE350:
 3372              	.LBE349:
1254:c_string.c    ****     console_print("ArgumentError\n");	// raise?
1255:c_string.c    ****     return;
1256:c_string.c    ****   }
1257:c_string.c    **** 
1258:c_string.c    ****   int ret = mrbc_string_index( &v[0], &v[1], 0 );
 3373              		.loc 1 1258 0
 3374 001c 0022     		movs	r2, #0
 3375              	.LVL487:
 3376 001e 1031     		adds	r1, r1, #16
 3377              	.LVL488:
 3378 0020 2046     		mov	r0, r4
 3379              	.LVL489:
 3380 0022 FFF7FEFF 		bl	mrbc_string_index
 3381              	.LVL490:
 3382 0026 0546     		mov	r5, r0
ARM GAS  C:\Users\164\AppData\Local\Temp\cc3ssgoH.s 			page 94


 3383              	.LVL491:
1259:c_string.c    ****   SET_BOOL_RETURN(ret >= 0);
 3384              		.loc 1 1259 0
 3385 0028 2046     		mov	r0, r4
 3386              	.LVL492:
 3387 002a FFF7FEFF 		bl	mrbc_dec_ref_counter
 3388              	.LVL493:
 3389 002e 002D     		cmp	r5, #0
 3390 0030 01DB     		blt	.L239
 3391 0032 0323     		movs	r3, #3
 3392 0034 00E0     		b	.L238
 3393              	.L239:
 3394 0036 0223     		movs	r3, #2
 3395              	.L238:
 3396              		.loc 1 1259 0 is_stmt 0 discriminator 4
 3397 0038 2370     		strb	r3, [r4]
 3398 003a 38BD     		pop	{r3, r4, r5, pc}
 3399              	.LVL494:
 3400              	.L242:
 3401              		.align	2
 3402              	.L241:
 3403 003c 00000000 		.word	.LC0
 3404              		.cfi_endproc
 3405              	.LFE132:
 3406              		.size	c_string_include, .-c_string_include
 3407              		.section	.text.c_string_split,"ax",%progbits
 3408              		.align	2
 3409              		.thumb
 3410              		.thumb_func
 3411              		.type	c_string_split, %function
 3412              	c_string_split:
 3413              	.LFB113:
 689:c_string.c    ****   mrbc_value ret = mrbc_array_new(vm, 0);
 3414              		.loc 1 689 0 is_stmt 1
 3415              		.cfi_startproc
 3416              		@ args = 0, pretend = 0, frame = 72
 3417              		@ frame_needed = 0, uses_anonymous_args = 0
 3418              	.LVL495:
 3419 0000 2DE9F04F 		push	{r4, r5, r6, r7, r8, r9, r10, fp, lr}
 3420              		.cfi_def_cfa_offset 36
 3421              		.cfi_offset 4, -36
 3422              		.cfi_offset 5, -32
 3423              		.cfi_offset 6, -28
 3424              		.cfi_offset 7, -24
 3425              		.cfi_offset 8, -20
 3426              		.cfi_offset 9, -16
 3427              		.cfi_offset 10, -12
 3428              		.cfi_offset 11, -8
 3429              		.cfi_offset 14, -4
 3430 0004 93B0     		sub	sp, sp, #76
 3431              		.cfi_def_cfa_offset 112
 3432 0006 0190     		str	r0, [sp, #4]
 3433 0008 0E46     		mov	r6, r1
 3434 000a 9346     		mov	fp, r2
 690:c_string.c    ****   if( mrbc_string_size(&v[0]) == 0 ) goto DONE;
 3435              		.loc 1 690 0
 3436 000c 0022     		movs	r2, #0
ARM GAS  C:\Users\164\AppData\Local\Temp\cc3ssgoH.s 			page 95


 3437              	.LVL496:
 3438 000e 0146     		mov	r1, r0
 3439              	.LVL497:
 3440 0010 0EA8     		add	r0, sp, #56
 3441              	.LVL498:
 3442 0012 FFF7FEFF 		bl	mrbc_array_new
 3443              	.LVL499:
 3444              	.LBB388:
 3445              	.LBB389:
  72:c_string.h    **** }
 3446              		.loc 2 72 0
 3447 0016 B368     		ldr	r3, [r6, #8]
 3448 0018 9B88     		ldrh	r3, [r3, #4]
 3449              	.LVL500:
 3450              	.LBE389:
 3451              	.LBE388:
 691:c_string.c    **** 
 3452              		.loc 1 691 0
 3453 001a 002B     		cmp	r3, #0
 3454 001c 00F0D780 		beq	.L244
 3455              	.LVL501:
 695:c_string.c    ****     if( v[2].tt != MRBC_TT_FIXNUM ) {
 3456              		.loc 1 695 0
 3457 0020 BBF1010F 		cmp	fp, #1
 3458 0024 16DD     		ble	.L274
 696:c_string.c    ****       console_print( "TypeError\n" );     // raise?
 3459              		.loc 1 696 0
 3460 0026 96F92030 		ldrsb	r3, [r6, #32]
 3461 002a 042B     		cmp	r3, #4
 3462 002c 05D0     		beq	.L246
 3463              	.LVL502:
 3464              	.LBB390:
 3465              	.LBB391:
  75:console.h     **** }
 3466              		.loc 3 75 0
 3467 002e 0A22     		movs	r2, #10
 3468 0030 6F49     		ldr	r1, .L283
 3469 0032 0120     		movs	r0, #1
 3470 0034 FFF7FEFF 		bl	hal_write
 3471              	.LVL503:
 3472 0038 D6E0     		b	.L243
 3473              	.LVL504:
 3474              	.L246:
 3475              	.LBE391:
 3476              	.LBE390:
 700:c_string.c    ****     if( limit == 1 ) {
 3477              		.loc 1 700 0
 3478 003a D6F82880 		ldr	r8, [r6, #40]
 3479              	.LVL505:
 701:c_string.c    ****       mrbc_array_push( &ret, &v[0] );
 3480              		.loc 1 701 0
 3481 003e B8F1010F 		cmp	r8, #1
 3482 0042 09D1     		bne	.L245
 702:c_string.c    ****       mrbc_dup( &v[0] );
 3483              		.loc 1 702 0
 3484 0044 3146     		mov	r1, r6
 3485 0046 0EA8     		add	r0, sp, #56
ARM GAS  C:\Users\164\AppData\Local\Temp\cc3ssgoH.s 			page 96


 3486 0048 FFF7FEFF 		bl	mrbc_array_push
 3487              	.LVL506:
 703:c_string.c    ****       goto DONE;
 3488              		.loc 1 703 0
 3489 004c 3046     		mov	r0, r6
 3490 004e FFF7FEFF 		bl	mrbc_dup
 3491              	.LVL507:
 704:c_string.c    ****     }
 3492              		.loc 1 704 0
 3493 0052 BCE0     		b	.L244
 3494              	.LVL508:
 3495              	.L274:
 694:c_string.c    ****   if( argc >= 2 ) {
 3496              		.loc 1 694 0
 3497 0054 4FF00008 		mov	r8, #0
 3498              	.LVL509:
 3499              	.L245:
 709:c_string.c    ****   switch( sep.tt ) {
 3500              		.loc 1 709 0
 3501 0058 BBF1000F 		cmp	fp, #0
 3502 005c 05D1     		bne	.L248
 709:c_string.c    ****   switch( sep.tt ) {
 3503              		.loc 1 709 0 is_stmt 0 discriminator 1
 3504 005e 654A     		ldr	r2, .L283+4
 3505 0060 0199     		ldr	r1, [sp, #4]
 3506 0062 0AA8     		add	r0, sp, #40
 3507 0064 FFF7FEFF 		bl	mrbc_string_new_cstr
 3508              	.LVL510:
 3509 0068 05E0     		b	.L249
 3510              	.L248:
 709:c_string.c    ****   switch( sep.tt ) {
 3511              		.loc 1 709 0 discriminator 2
 3512 006a 0AAC     		add	r4, sp, #40
 3513 006c 06F11003 		add	r3, r6, #16
 3514 0070 0FCB     		ldmia	r3, {r0, r1, r2, r3}
 3515 0072 84E80F00 		stmia	r4, {r0, r1, r2, r3}
 3516              	.L249:
 710:c_string.c    ****   case MRBC_TT_NIL:
 3517              		.loc 1 710 0 is_stmt 1
 3518 0076 9DF92830 		ldrsb	r3, [sp, #40]
 3519 007a 012B     		cmp	r3, #1
 3520 007c 02D0     		beq	.L251
 3521 007e 172B     		cmp	r3, #23
 3522 0080 12D0     		beq	.L252
 3523 0082 0BE0     		b	.L280
 3524              	.L251:
 712:c_string.c    ****     break;
 3525              		.loc 1 712 0
 3526 0084 02AC     		add	r4, sp, #8
 3527 0086 5B4A     		ldr	r2, .L283+4
 3528 0088 0199     		ldr	r1, [sp, #4]
 3529 008a 2046     		mov	r0, r4
 3530 008c FFF7FEFF 		bl	mrbc_string_new_cstr
 3531              	.LVL511:
 3532 0090 0AAD     		add	r5, sp, #40
 3533 0092 94E80F00 		ldmia	r4, {r0, r1, r2, r3}
 3534 0096 85E80F00 		stmia	r5, {r0, r1, r2, r3}
ARM GAS  C:\Users\164\AppData\Local\Temp\cc3ssgoH.s 			page 97


 713:c_string.c    **** 
 3535              		.loc 1 713 0
 3536 009a 05E0     		b	.L252
 3537              	.L280:
 3538              	.LVL512:
 3539              	.LBB392:
 3540              	.LBB393:
  75:console.h     **** }
 3541              		.loc 3 75 0
 3542 009c 0A22     		movs	r2, #10
 3543 009e 5449     		ldr	r1, .L283
 3544 00a0 0120     		movs	r0, #1
 3545 00a2 FFF7FEFF 		bl	hal_write
 3546              	.LVL513:
 3547 00a6 9FE0     		b	.L243
 3548              	.LVL514:
 3549              	.L252:
 3550              	.LBE393:
 3551              	.LBE392:
 3552              	.LBB394:
 3553              	.LBB395:
 3554              		.loc 2 80 0
 3555 00a8 0C9B     		ldr	r3, [sp, #48]
 3556 00aa 9A68     		ldr	r2, [r3, #8]
 3557              	.LVL515:
 3558              	.LBE395:
 3559              	.LBE394:
 723:c_string.c    **** 		   (mrbc_string_size(&sep) == 1);
 3560              		.loc 1 723 0
 3561 00ac 1278     		ldrb	r2, [r2]	@ zero_extendqisi2
 3562 00ae 202A     		cmp	r2, #32
 3563 00b0 05D1     		bne	.L275
 3564              	.LVL516:
 3565              	.LBB396:
 3566              	.LBB397:
  72:c_string.h    **** }
 3567              		.loc 2 72 0
 3568 00b2 9A88     		ldrh	r2, [r3, #4]
 3569              	.LVL517:
 3570              	.LBE397:
 3571              	.LBE396:
 723:c_string.c    **** 		   (mrbc_string_size(&sep) == 1);
 3572              		.loc 1 723 0
 3573 00b4 012A     		cmp	r2, #1
 3574 00b6 05D1     		bne	.L276
 3575 00b8 4FF00109 		mov	r9, #1
 3576 00bc 04E0     		b	.L253
 3577              	.L275:
 3578 00be 4FF00009 		mov	r9, #0
 3579 00c2 01E0     		b	.L253
 3580              	.L276:
 3581 00c4 4FF00009 		mov	r9, #0
 3582              	.L253:
 3583              	.LVL518:
 3584              	.LBB398:
 3585              	.LBB399:
  72:c_string.h    **** }
ARM GAS  C:\Users\164\AppData\Local\Temp\cc3ssgoH.s 			page 98


 3586              		.loc 2 72 0 discriminator 6
 3587 00c8 B3F804A0 		ldrh	r10, [r3, #4]
 3588              	.LVL519:
 3589              	.LBE399:
 3590              	.LBE398:
 727:c_string.c    **** 
 3591              		.loc 1 727 0 discriminator 6
 3592 00cc BAF1000F 		cmp	r10, #0
 3593 00d0 01D1     		bne	.L254
 727:c_string.c    **** 
 3594              		.loc 1 727 0 is_stmt 0 discriminator 1
 3595 00d2 0AF1010A 		add	r10, r10, #1
 3596              	.LVL520:
 3597              	.L254:
 723:c_string.c    **** 		   (mrbc_string_size(&sep) == 1);
 3598              		.loc 1 723 0 is_stmt 1
 3599 00d6 0024     		movs	r4, #0
 3600              	.LVL521:
 3601              	.L268:
 3602              	.LBB400:
 732:c_string.c    ****       for( ; offset < mrbc_string_size(&v[0]); offset++ ) {
 3603              		.loc 1 732 0
 3604 00d8 B9F1000F 		cmp	r9, #0
 3605 00dc 06D1     		bne	.L255
 3606 00de 0BE0     		b	.L256
 3607              	.L258:
 3608              	.LVL522:
 3609              	.LBB401:
 3610              	.LBB402:
 3611              		.loc 2 80 0
 3612 00e0 9B68     		ldr	r3, [r3, #8]
 3613              	.LVL523:
 3614              	.LBE402:
 3615              	.LBE401:
 734:c_string.c    ****       }
 3616              		.loc 1 734 0
 3617 00e2 185D     		ldrb	r0, [r3, r4]	@ zero_extendqisi2
 3618 00e4 FFF7FEFF 		bl	is_space
 3619              	.LVL524:
 3620 00e8 20B1     		cbz	r0, .L257
 733:c_string.c    **** 	if( !is_space( mrbc_string_cstr(&v[0])[offset] )) break;
 3621              		.loc 1 733 0
 3622 00ea 0134     		adds	r4, r4, #1
 3623              	.LVL525:
 3624              	.L255:
 3625              	.LBB403:
 3626              	.LBB404:
  72:c_string.h    **** }
 3627              		.loc 2 72 0 discriminator 1
 3628 00ec B368     		ldr	r3, [r6, #8]
 3629 00ee 9D88     		ldrh	r5, [r3, #4]
 3630              	.LVL526:
 3631              	.LBE404:
 3632              	.LBE403:
 733:c_string.c    **** 	if( !is_space( mrbc_string_cstr(&v[0])[offset] )) break;
 3633              		.loc 1 733 0 discriminator 1
 3634 00f0 AC42     		cmp	r4, r5
ARM GAS  C:\Users\164\AppData\Local\Temp\cc3ssgoH.s 			page 99


 3635 00f2 F5DB     		blt	.L258
 3636              	.L257:
 736:c_string.c    ****     }
 3637              		.loc 1 736 0
 3638 00f4 AC42     		cmp	r4, r5
 3639 00f6 48DC     		bgt	.L259
 3640              	.L256:
 740:c_string.c    ****       pos = -1;
 3641              		.loc 1 740 0
 3642 00f8 B8F1000F 		cmp	r8, #0
 3643 00fc 04DD     		ble	.L260
 3644              	.LVL527:
 3645              	.LBB405:
 3646              	.LBB406:
 3647              		.file 5 "c_array.h"
   1:c_array.h     **** /*! @file
   2:c_array.h     ****   @brief
   3:c_array.h     ****   mruby/c Array class
   4:c_array.h     **** 
   5:c_array.h     ****   <pre>
   6:c_array.h     ****   Copyright (C) 2015-2018 Kyushu Institute of Technology.
   7:c_array.h     ****   Copyright (C) 2015-2018 Shimane IT Open-Innovation Center.
   8:c_array.h     **** 
   9:c_array.h     ****   This file is distributed under BSD 3-Clause License.
  10:c_array.h     **** 
  11:c_array.h     ****   </pre>
  12:c_array.h     **** */
  13:c_array.h     **** 
  14:c_array.h     **** #ifndef MRBC_SRC_C_ARRAY_H_
  15:c_array.h     **** #define MRBC_SRC_C_ARRAY_H_
  16:c_array.h     **** 
  17:c_array.h     **** #include "value.h"
  18:c_array.h     **** 
  19:c_array.h     **** #ifdef __cplusplus
  20:c_array.h     **** extern "C" {
  21:c_array.h     **** #endif
  22:c_array.h     **** 
  23:c_array.h     **** //================================================================
  24:c_array.h     **** /*!@brief
  25:c_array.h     ****   Define Array handle.
  26:c_array.h     **** */
  27:c_array.h     **** typedef struct RArray {
  28:c_array.h     ****   MRBC_OBJECT_HEADER;
  29:c_array.h     **** 
  30:c_array.h     ****   uint16_t data_size;	//!< data buffer size.
  31:c_array.h     ****   uint16_t n_stored;	//!< # of stored.
  32:c_array.h     ****   mrbc_value *data;	//!< pointer to allocated memory.
  33:c_array.h     **** 
  34:c_array.h     **** } mrbc_array;
  35:c_array.h     **** 
  36:c_array.h     **** 
  37:c_array.h     **** mrbc_value mrbc_array_new(struct VM *vm, int size);
  38:c_array.h     **** void mrbc_array_delete(mrbc_value *ary);
  39:c_array.h     **** void mrbc_array_clear_vm_id(mrbc_value *ary);
  40:c_array.h     **** int mrbc_array_resize(mrbc_value *ary, int size);
  41:c_array.h     **** int mrbc_array_set(mrbc_value *ary, int idx, mrbc_value *set_val);
  42:c_array.h     **** mrbc_value mrbc_array_get(mrbc_value *ary, int idx);
ARM GAS  C:\Users\164\AppData\Local\Temp\cc3ssgoH.s 			page 100


  43:c_array.h     **** int mrbc_array_push(mrbc_value *ary, mrbc_value *set_val);
  44:c_array.h     **** mrbc_value mrbc_array_pop(mrbc_value *ary);
  45:c_array.h     **** int mrbc_array_unshift(mrbc_value *ary, mrbc_value *set_val);
  46:c_array.h     **** mrbc_value mrbc_array_shift(mrbc_value *ary);
  47:c_array.h     **** int mrbc_array_insert(mrbc_value *ary, int idx, mrbc_value *set_val);
  48:c_array.h     **** mrbc_value mrbc_array_remove(mrbc_value *ary, int idx);
  49:c_array.h     **** void mrbc_array_clear(mrbc_value *ary);
  50:c_array.h     **** int mrbc_array_compare(const mrbc_value *v1, const mrbc_value *v2);
  51:c_array.h     **** void mrbc_array_minmax(mrbc_value *ary, mrbc_value **pp_min_value, mrbc_value **pp_max_value);
  52:c_array.h     **** void mrbc_init_class_array(struct VM *vm);
  53:c_array.h     **** 
  54:c_array.h     **** 
  55:c_array.h     **** //================================================================
  56:c_array.h     **** /*! get size
  57:c_array.h     **** */
  58:c_array.h     **** static inline int mrbc_array_size(const mrbc_value *ary)
  59:c_array.h     **** {
  60:c_array.h     ****   return ary->array->n_stored;
 3648              		.loc 5 60 0
 3649 00fe 109B     		ldr	r3, [sp, #64]
 3650 0100 DB88     		ldrh	r3, [r3, #6]
 3651              	.LVL528:
 3652              	.LBE406:
 3653              	.LBE405:
 740:c_string.c    ****       pos = -1;
 3654              		.loc 1 740 0
 3655 0102 0133     		adds	r3, r3, #1
 3656 0104 9845     		cmp	r8, r3
 3657 0106 25DD     		ble	.L277
 3658              	.L260:
 746:c_string.c    ****       pos = offset;
 3659              		.loc 1 746 0
 3660 0108 B9F1000F 		cmp	r9, #0
 3661 010c 07D1     		bne	.L278
 3662 010e 0DE0     		b	.L281
 3663              	.LVL529:
 3664              	.L265:
 3665              	.LBB407:
 3666              	.LBB408:
 3667              		.loc 2 80 0
 3668 0110 9B68     		ldr	r3, [r3, #8]
 3669              	.LVL530:
 3670              	.LBE408:
 3671              	.LBE407:
 749:c_string.c    ****       }
 3672              		.loc 1 749 0
 3673 0112 585D     		ldrb	r0, [r3, r5]	@ zero_extendqisi2
 3674 0114 FFF7FEFF 		bl	is_space
 3675              	.LVL531:
 3676 0118 30B9     		cbnz	r0, .L264
 748:c_string.c    **** 	if( is_space( mrbc_string_cstr(&v[0])[pos] )) break;
 3677              		.loc 1 748 0
 3678 011a 0135     		adds	r5, r5, #1
 3679              	.LVL532:
 3680 011c 00E0     		b	.L262
 3681              	.LVL533:
 3682              	.L278:
ARM GAS  C:\Users\164\AppData\Local\Temp\cc3ssgoH.s 			page 101


 3683 011e 2546     		mov	r5, r4
 3684              	.L262:
 3685              	.LVL534:
 3686              	.LBB409:
 3687              	.LBB410:
  72:c_string.h    **** }
 3688              		.loc 2 72 0 discriminator 1
 3689 0120 B368     		ldr	r3, [r6, #8]
 3690 0122 9A88     		ldrh	r2, [r3, #4]
 3691              	.LVL535:
 3692              	.LBE410:
 3693              	.LBE409:
 748:c_string.c    **** 	if( is_space( mrbc_string_cstr(&v[0])[pos] )) break;
 3694              		.loc 1 748 0 discriminator 1
 3695 0124 9542     		cmp	r5, r2
 3696 0126 F3DB     		blt	.L265
 3697              	.L264:
 751:c_string.c    ****       goto SPLIT_ITEM;
 3698              		.loc 1 751 0
 3699 0128 2F1B     		subs	r7, r5, r4
 3700              	.LVL536:
 752:c_string.c    ****     }
 3701              		.loc 1 752 0
 3702 012a 18E0     		b	.L261
 3703              	.LVL537:
 3704              	.L281:
 3705              	.LBB411:
 3706              	.LBB412:
  72:c_string.h    **** }
 3707              		.loc 2 72 0
 3708 012c 0C9B     		ldr	r3, [sp, #48]
 3709 012e 9B88     		ldrh	r3, [r3, #4]
 3710              	.LVL538:
 3711              	.LBE412:
 3712              	.LBE411:
 756:c_string.c    ****       pos = (offset < mrbc_string_size(&v[0])-1) ? offset : -1;
 3713              		.loc 1 756 0
 3714 0130 43B9     		cbnz	r3, .L266
 3715              	.LVL539:
 3716              	.LBB413:
 3717              	.LBB414:
  72:c_string.h    **** }
 3718              		.loc 2 72 0
 3719 0132 B368     		ldr	r3, [r6, #8]
 3720 0134 9B88     		ldrh	r3, [r3, #4]
 3721              	.LVL540:
 3722              	.LBE414:
 3723              	.LBE413:
 757:c_string.c    ****       len = 1;
 3724              		.loc 1 757 0
 3725 0136 013B     		subs	r3, r3, #1
 3726 0138 9C42     		cmp	r4, r3
 3727 013a 0EDB     		blt	.L279
 758:c_string.c    ****       goto SPLIT_ITEM;
 3728              		.loc 1 758 0
 3729 013c 0127     		movs	r7, #1
 3730              	.LVL541:
ARM GAS  C:\Users\164\AppData\Local\Temp\cc3ssgoH.s 			page 102


 757:c_string.c    ****       len = 1;
 3731              		.loc 1 757 0
 3732 013e 4FF0FF35 		mov	r5, #-1
 3733 0142 0CE0     		b	.L261
 3734              	.LVL542:
 3735              	.L266:
 763:c_string.c    ****     len = pos - offset;
 3736              		.loc 1 763 0
 3737 0144 2246     		mov	r2, r4
 3738 0146 0AA9     		add	r1, sp, #40
 3739 0148 3046     		mov	r0, r6
 3740 014a FFF7FEFF 		bl	mrbc_string_index
 3741              	.LVL543:
 3742 014e 0546     		mov	r5, r0
 3743              	.LVL544:
 764:c_string.c    **** 
 3744              		.loc 1 764 0
 3745 0150 071B     		subs	r7, r0, r4
 3746              	.LVL545:
 3747 0152 04E0     		b	.L261
 3748              	.LVL546:
 3749              	.L277:
 741:c_string.c    ****       goto SPLIT_ITEM;
 3750              		.loc 1 741 0
 3751 0154 4FF0FF35 		mov	r5, #-1
 3752 0158 01E0     		b	.L261
 3753              	.L279:
 757:c_string.c    ****       len = 1;
 3754              		.loc 1 757 0
 3755 015a 2546     		mov	r5, r4
 758:c_string.c    ****       goto SPLIT_ITEM;
 3756              		.loc 1 758 0
 3757 015c 0127     		movs	r7, #1
 3758              	.LVL547:
 3759              	.L261:
 768:c_string.c    **** 
 3760              		.loc 1 768 0
 3761 015e 002D     		cmp	r5, #0
 3762 0160 02DA     		bge	.L267
 3763              	.LVL548:
 3764              	.LBB415:
 3765              	.LBB416:
  72:c_string.h    **** }
 3766              		.loc 2 72 0
 3767 0162 B368     		ldr	r3, [r6, #8]
 3768 0164 9F88     		ldrh	r7, [r3, #4]
 3769              	.LVL549:
 3770              	.LBE416:
 3771              	.LBE415:
 768:c_string.c    **** 
 3772              		.loc 1 768 0
 3773 0166 3F1B     		subs	r7, r7, r4
 3774              	.LVL550:
 3775              	.L267:
 3776              	.LBB417:
 3777              	.LBB418:
 3778              		.loc 2 80 0
ARM GAS  C:\Users\164\AppData\Local\Temp\cc3ssgoH.s 			page 103


 3779 0168 B368     		ldr	r3, [r6, #8]
 3780 016a 9A68     		ldr	r2, [r3, #8]
 3781              	.LVL551:
 3782              	.LBE418:
 3783              	.LBE417:
 770:c_string.c    ****     mrbc_array_push( &ret, &v1 );
 3784              		.loc 1 770 0
 3785 016c 3B46     		mov	r3, r7
 3786 016e 2244     		add	r2, r2, r4
 3787 0170 0199     		ldr	r1, [sp, #4]
 3788 0172 06A8     		add	r0, sp, #24
 3789 0174 FFF7FEFF 		bl	mrbc_string_new
 3790              	.LVL552:
 771:c_string.c    **** 
 3791              		.loc 1 771 0
 3792 0178 06A9     		add	r1, sp, #24
 3793 017a 0EA8     		add	r0, sp, #56
 3794 017c FFF7FEFF 		bl	mrbc_array_push
 3795              	.LVL553:
 773:c_string.c    ****     offset = pos + sep_len;
 3796              		.loc 1 773 0
 3797 0180 002D     		cmp	r5, #0
 3798 0182 02DB     		blt	.L259
 774:c_string.c    ****   }
 3799              		.loc 1 774 0
 3800 0184 05EB0A04 		add	r4, r5, r10
 3801              	.LVL554:
 3802              	.LBE400:
 775:c_string.c    **** 
 3803              		.loc 1 775 0
 3804 0188 A6E7     		b	.L268
 3805              	.LVL555:
 3806              	.L259:
 778:c_string.c    ****     while( 1 ) {
 3807              		.loc 1 778 0
 3808 018a B8F1000F 		cmp	r8, #0
 3809 018e 14D1     		bne	.L269
 3810              	.LVL556:
 3811              	.L271:
 3812              	.LBB419:
 3813              	.LBB420:
 3814              	.LBB421:
 3815              		.loc 5 60 0
 3816 0190 109B     		ldr	r3, [sp, #64]
 3817 0192 DA88     		ldrh	r2, [r3, #6]
 3818              	.LVL557:
 3819              	.LBE421:
 3820              	.LBE420:
 781:c_string.c    **** 
 3821              		.loc 1 781 0
 3822 0194 541E     		subs	r4, r2, #1
 3823              	.LVL558:
 3824 0196 10D4     		bmi	.L269
 783:c_string.c    ****       if( mrbc_string_size(&v1) != 0 ) break;
 3825              		.loc 1 783 0
 3826 0198 2246     		mov	r2, r4
 3827 019a 0EA9     		add	r1, sp, #56
ARM GAS  C:\Users\164\AppData\Local\Temp\cc3ssgoH.s 			page 104


 3828 019c 06A8     		add	r0, sp, #24
 3829 019e FFF7FEFF 		bl	mrbc_array_get
 3830              	.LVL559:
 3831              	.LBB422:
 3832              	.LBB423:
  72:c_string.h    **** }
 3833              		.loc 2 72 0
 3834 01a2 089B     		ldr	r3, [sp, #32]
 3835 01a4 9B88     		ldrh	r3, [r3, #4]
 3836              	.LVL560:
 3837              	.LBE423:
 3838              	.LBE422:
 784:c_string.c    **** 
 3839              		.loc 1 784 0
 3840 01a6 43B9     		cbnz	r3, .L269
 786:c_string.c    ****       mrbc_string_delete( &v1 );
 3841              		.loc 1 786 0
 3842 01a8 2246     		mov	r2, r4
 3843 01aa 0EA9     		add	r1, sp, #56
 3844 01ac 02A8     		add	r0, sp, #8
 3845 01ae FFF7FEFF 		bl	mrbc_array_remove
 3846              	.LVL561:
 787:c_string.c    ****     }
 3847              		.loc 1 787 0
 3848 01b2 06A8     		add	r0, sp, #24
 3849 01b4 FFF7FEFF 		bl	mrbc_string_delete
 3850              	.LVL562:
 3851              	.LBE419:
 788:c_string.c    ****   }
 3852              		.loc 1 788 0
 3853 01b8 EAE7     		b	.L271
 3854              	.LVL563:
 3855              	.L269:
 791:c_string.c    ****     mrbc_string_delete(&sep);
 3856              		.loc 1 791 0
 3857 01ba BBF1000F 		cmp	fp, #0
 3858 01be 03D0     		beq	.L272
 791:c_string.c    ****     mrbc_string_delete(&sep);
 3859              		.loc 1 791 0 is_stmt 0 discriminator 1
 3860 01c0 96F91030 		ldrsb	r3, [r6, #16]
 3861 01c4 012B     		cmp	r3, #1
 3862 01c6 02D1     		bne	.L244
 3863              	.L272:
 792:c_string.c    ****   }
 3864              		.loc 1 792 0 is_stmt 1
 3865 01c8 0AA8     		add	r0, sp, #40
 3866 01ca FFF7FEFF 		bl	mrbc_string_delete
 3867              	.LVL564:
 3868              	.L244:
 3869              	.LBB424:
 796:c_string.c    **** }
 3870              		.loc 1 796 0
 3871 01ce 06AC     		add	r4, sp, #24
 3872 01d0 12AB     		add	r3, sp, #72
 3873 01d2 13E90F00 		ldmdb	r3, {r0, r1, r2, r3}
 3874 01d6 84E80F00 		stmia	r4, {r0, r1, r2, r3}
 3875 01da 3046     		mov	r0, r6
ARM GAS  C:\Users\164\AppData\Local\Temp\cc3ssgoH.s 			page 105


 3876 01dc FFF7FEFF 		bl	mrbc_dec_ref_counter
 3877              	.LVL565:
 3878 01e0 94E80F00 		ldmia	r4, {r0, r1, r2, r3}
 3879 01e4 86E80F00 		stmia	r6, {r0, r1, r2, r3}
 3880              	.L243:
 3881              	.LBE424:
 797:c_string.c    **** 
 3882              		.loc 1 797 0
 3883 01e8 13B0     		add	sp, sp, #76
 3884              		.cfi_def_cfa_offset 36
 3885              		@ sp needed
 3886 01ea BDE8F08F 		pop	{r4, r5, r6, r7, r8, r9, r10, fp, pc}
 3887              	.LVL566:
 3888              	.L284:
 3889 01ee 00BF     		.align	2
 3890              	.L283:
 3891 01f0 54000000 		.word	.LC4
 3892 01f4 94000000 		.word	.LC8
 3893              		.cfi_endproc
 3894              	.LFE113:
 3895              		.size	c_string_split, .-c_string_split
 3896              		.section	.text.c_string_index,"ax",%progbits
 3897              		.align	2
 3898              		.thumb
 3899              		.thumb_func
 3900              		.type	c_string_index, %function
 3901              	c_string_index:
 3902              	.LFB110:
 622:c_string.c    ****   int index;
 3903              		.loc 1 622 0
 3904              		.cfi_startproc
 3905              		@ args = 0, pretend = 0, frame = 0
 3906              		@ frame_needed = 0, uses_anonymous_args = 0
 3907              	.LVL567:
 3908 0000 38B5     		push	{r3, r4, r5, lr}
 3909              		.cfi_def_cfa_offset 16
 3910              		.cfi_offset 3, -16
 3911              		.cfi_offset 4, -12
 3912              		.cfi_offset 5, -8
 3913              		.cfi_offset 14, -4
 3914 0002 0C46     		mov	r4, r1
 626:c_string.c    ****     offset = 0;
 3915              		.loc 1 626 0
 3916 0004 012A     		cmp	r2, #1
 3917 0006 0ED0     		beq	.L290
 629:c_string.c    ****     offset = v[2].i;
 3918              		.loc 1 629 0
 3919 0008 022A     		cmp	r2, #2
 3920 000a 1BD1     		bne	.L287
 629:c_string.c    ****     offset = v[2].i;
 3921              		.loc 1 629 0 is_stmt 0 discriminator 1
 3922 000c 91F92030 		ldrsb	r3, [r1, #32]
 3923 0010 042B     		cmp	r3, #4
 3924 0012 17D1     		bne	.L287
 630:c_string.c    ****     if( offset < 0 ) offset += mrbc_string_size(&v[0]);
 3925              		.loc 1 630 0 is_stmt 1
 3926 0014 8A6A     		ldr	r2, [r1, #40]
ARM GAS  C:\Users\164\AppData\Local\Temp\cc3ssgoH.s 			page 106


 3927              	.LVL568:
 631:c_string.c    ****     if( offset < 0 ) goto NIL_RETURN;
 3928              		.loc 1 631 0
 3929 0016 002A     		cmp	r2, #0
 3930 0018 02DA     		bge	.L288
 3931              	.LVL569:
 3932              	.LBB425:
 3933              	.LBB426:
  72:c_string.h    **** }
 3934              		.loc 2 72 0
 3935 001a 8B68     		ldr	r3, [r1, #8]
 3936 001c 9B88     		ldrh	r3, [r3, #4]
 3937              	.LVL570:
 3938              	.LBE426:
 3939              	.LBE425:
 631:c_string.c    ****     if( offset < 0 ) goto NIL_RETURN;
 3940              		.loc 1 631 0
 3941 001e 1A44     		add	r2, r2, r3
 3942              	.LVL571:
 3943              	.L288:
 632:c_string.c    **** 
 3944              		.loc 1 632 0
 3945 0020 002A     		cmp	r2, #0
 3946 0022 01DA     		bge	.L286
 3947 0024 0EE0     		b	.L287
 3948              	.LVL572:
 3949              	.L290:
 627:c_string.c    **** 
 3950              		.loc 1 627 0
 3951 0026 0022     		movs	r2, #0
 3952              	.LVL573:
 3953              	.L286:
 638:c_string.c    ****   if( index < 0 ) goto NIL_RETURN;
 3954              		.loc 1 638 0
 3955 0028 04F11001 		add	r1, r4, #16
 3956              	.LVL574:
 3957 002c 2046     		mov	r0, r4
 3958              	.LVL575:
 3959 002e FFF7FEFF 		bl	mrbc_string_index
 3960              	.LVL576:
 639:c_string.c    **** 
 3961              		.loc 1 639 0
 3962 0032 051E     		subs	r5, r0, #0
 3963 0034 06DB     		blt	.L287
 3964              	.LVL577:
 3965              	.LBB427:
 641:c_string.c    ****   return;
 3966              		.loc 1 641 0
 3967 0036 2046     		mov	r0, r4
 3968              	.LVL578:
 3969 0038 FFF7FEFF 		bl	mrbc_dec_ref_counter
 3970              	.LVL579:
 3971 003c 0423     		movs	r3, #4
 3972 003e 2370     		strb	r3, [r4]
 3973 0040 A560     		str	r5, [r4, #8]
 3974              	.LBE427:
 642:c_string.c    **** 
ARM GAS  C:\Users\164\AppData\Local\Temp\cc3ssgoH.s 			page 107


 3975              		.loc 1 642 0
 3976 0042 38BD     		pop	{r3, r4, r5, pc}
 3977              	.LVL580:
 3978              	.L287:
 645:c_string.c    **** }
 3979              		.loc 1 645 0
 3980 0044 2046     		mov	r0, r4
 3981 0046 FFF7FEFF 		bl	mrbc_dec_ref_counter
 3982              	.LVL581:
 3983 004a 0123     		movs	r3, #1
 3984 004c 2370     		strb	r3, [r4]
 3985 004e 38BD     		pop	{r3, r4, r5, pc}
 3986              		.cfi_endproc
 3987              	.LFE110:
 3988              		.size	c_string_index, .-c_string_index
 3989              		.section	.text.mrbc_string_strip,"ax",%progbits
 3990              		.align	2
 3991              		.global	mrbc_string_strip
 3992              		.thumb
 3993              		.thumb_func
 3994              		.type	mrbc_string_strip, %function
 3995              	mrbc_string_strip:
 3996              	.LFB97:
 291:c_string.c    ****   char *p1 = mrbc_string_cstr(src);
 3997              		.loc 1 291 0
 3998              		.cfi_startproc
 3999              		@ args = 0, pretend = 0, frame = 0
 4000              		@ frame_needed = 0, uses_anonymous_args = 0
 4001              	.LVL582:
 4002 0000 2DE9F843 		push	{r3, r4, r5, r6, r7, r8, r9, lr}
 4003              		.cfi_def_cfa_offset 32
 4004              		.cfi_offset 3, -32
 4005              		.cfi_offset 4, -28
 4006              		.cfi_offset 5, -24
 4007              		.cfi_offset 6, -20
 4008              		.cfi_offset 7, -16
 4009              		.cfi_offset 8, -12
 4010              		.cfi_offset 9, -8
 4011              		.cfi_offset 14, -4
 4012 0004 8046     		mov	r8, r0
 4013 0006 8946     		mov	r9, r1
 4014              	.LVL583:
 4015              	.LBB428:
 4016              	.LBB429:
 4017              		.loc 2 80 0
 4018 0008 8368     		ldr	r3, [r0, #8]
 4019 000a 9E68     		ldr	r6, [r3, #8]
 4020              	.LVL584:
 4021              	.LBE429:
 4022              	.LBE428:
 4023              	.LBB430:
 4024              	.LBB431:
  72:c_string.h    **** }
 4025              		.loc 2 72 0
 4026 000c 9F88     		ldrh	r7, [r3, #4]
 4027              	.LVL585:
 4028              	.LBE431:
ARM GAS  C:\Users\164\AppData\Local\Temp\cc3ssgoH.s 			page 108


 4029              	.LBE430:
 293:c_string.c    **** 
 4030              		.loc 1 293 0
 4031 000e 7C1E     		subs	r4, r7, #1
 4032 0010 3444     		add	r4, r4, r6
 4033              	.LVL586:
 296:c_string.c    ****     while( p1 <= p2 ) {
 4034              		.loc 1 296 0
 4035 0012 11F0010F 		tst	r1, #1
 4036 0016 08D1     		bne	.L301
 292:c_string.c    ****   char *p2 = p1 + mrbc_string_size(src) - 1;
 4037              		.loc 1 292 0
 4038 0018 3546     		mov	r5, r6
 4039 001a 09E0     		b	.L294
 4040              	.LVL587:
 4041              	.L295:
 298:c_string.c    ****       if( !is_space(*p1) ) break;
 4042              		.loc 1 298 0
 4043 001c 2878     		ldrb	r0, [r5]	@ zero_extendqisi2
 4044 001e 38B1     		cbz	r0, .L294
 299:c_string.c    ****       p1++;
 4045              		.loc 1 299 0
 4046 0020 FFF7FEFF 		bl	is_space
 4047              	.LVL588:
 4048 0024 20B1     		cbz	r0, .L294
 300:c_string.c    ****     }
 4049              		.loc 1 300 0
 4050 0026 0135     		adds	r5, r5, #1
 4051              	.LVL589:
 4052 0028 00E0     		b	.L293
 4053              	.LVL590:
 4054              	.L301:
 4055 002a 3546     		mov	r5, r6
 4056              	.LVL591:
 4057              	.L293:
 297:c_string.c    ****       if( *p1 == '\0' ) break;
 4058              		.loc 1 297 0
 4059 002c A542     		cmp	r5, r4
 4060 002e F5D9     		bls	.L295
 4061              	.LVL592:
 4062              	.L294:
 304:c_string.c    ****     while( p1 <= p2 ) {
 4063              		.loc 1 304 0
 4064 0030 19F0020F 		tst	r9, #2
 4065 0034 05D1     		bne	.L296
 4066 0036 06E0     		b	.L297
 4067              	.L298:
 306:c_string.c    ****       p2--;
 4068              		.loc 1 306 0
 4069 0038 2078     		ldrb	r0, [r4]	@ zero_extendqisi2
 4070 003a FFF7FEFF 		bl	is_space
 4071              	.LVL593:
 4072 003e 10B1     		cbz	r0, .L297
 307:c_string.c    ****     }
 4073              		.loc 1 307 0
 4074 0040 013C     		subs	r4, r4, #1
 4075              	.LVL594:
ARM GAS  C:\Users\164\AppData\Local\Temp\cc3ssgoH.s 			page 109


 4076              	.L296:
 305:c_string.c    ****       if( !is_space(*p2) ) break;
 4077              		.loc 1 305 0
 4078 0042 A542     		cmp	r5, r4
 4079 0044 F8D9     		bls	.L298
 4080              	.L297:
 311:c_string.c    ****   if( mrbc_string_size(src) == new_size ) return 0;
 4081              		.loc 1 311 0
 4082 0046 641B     		subs	r4, r4, r5
 4083              	.LVL595:
 4084 0048 04F10109 		add	r9, r4, #1
 4085              	.LVL596:
 312:c_string.c    **** 
 4086              		.loc 1 312 0
 4087 004c 4F45     		cmp	r7, r9
 4088 004e 14D0     		beq	.L302
 315:c_string.c    ****   buf[new_size] = '\0';
 4089              		.loc 1 315 0
 4090 0050 B542     		cmp	r5, r6
 4091 0052 04D0     		beq	.L300
 315:c_string.c    ****   buf[new_size] = '\0';
 4092              		.loc 1 315 0 is_stmt 0 discriminator 1
 4093 0054 4A46     		mov	r2, r9
 4094 0056 2946     		mov	r1, r5
 4095 0058 3046     		mov	r0, r6
 4096 005a FFF7FEFF 		bl	memmove
 4097              	.LVL597:
 4098              	.L300:
 316:c_string.c    ****   mrbc_raw_realloc(buf, new_size+1);	// shrink suitable size.
 4099              		.loc 1 316 0 is_stmt 1
 4100 005e 0023     		movs	r3, #0
 4101 0060 06F80930 		strb	r3, [r6, r9]
 317:c_string.c    ****   src->string->size = new_size;
 4102              		.loc 1 317 0
 4103 0064 A11C     		adds	r1, r4, #2
 4104 0066 3046     		mov	r0, r6
 4105 0068 FFF7FEFF 		bl	mrbc_raw_realloc
 4106              	.LVL598:
 318:c_string.c    **** 
 4107              		.loc 1 318 0
 4108 006c D8F80830 		ldr	r3, [r8, #8]
 4109 0070 A3F80490 		strh	r9, [r3, #4]	@ movhi
 320:c_string.c    **** }
 4110              		.loc 1 320 0
 4111 0074 0120     		movs	r0, #1
 4112 0076 BDE8F883 		pop	{r3, r4, r5, r6, r7, r8, r9, pc}
 4113              	.LVL599:
 4114              	.L302:
 312:c_string.c    **** 
 4115              		.loc 1 312 0
 4116 007a 0020     		movs	r0, #0
 321:c_string.c    **** 
 4117              		.loc 1 321 0
 4118 007c BDE8F883 		pop	{r3, r4, r5, r6, r7, r8, r9, pc}
 4119              		.cfi_endproc
 4120              	.LFE97:
 4121              		.size	mrbc_string_strip, .-mrbc_string_strip
ARM GAS  C:\Users\164\AppData\Local\Temp\cc3ssgoH.s 			page 110


 4122              		.section	.text.c_string_strip_self,"ax",%progbits
 4123              		.align	2
 4124              		.thumb
 4125              		.thumb_func
 4126              		.type	c_string_strip_self, %function
 4127              	c_string_strip_self:
 4128              	.LFB121:
 995:c_string.c    ****   if( mrbc_string_strip(&v[0], 0x03) == 0 ) {	// 3: left and right
 4129              		.loc 1 995 0
 4130              		.cfi_startproc
 4131              		@ args = 0, pretend = 0, frame = 16
 4132              		@ frame_needed = 0, uses_anonymous_args = 0
 4133              	.LVL600:
 4134 0000 30B5     		push	{r4, r5, lr}
 4135              		.cfi_def_cfa_offset 12
 4136              		.cfi_offset 4, -12
 4137              		.cfi_offset 5, -8
 4138              		.cfi_offset 14, -4
 4139 0002 85B0     		sub	sp, sp, #20
 4140              		.cfi_def_cfa_offset 32
 4141 0004 0C46     		mov	r4, r1
 996:c_string.c    ****     SET_RETURN( mrbc_nil_value() );
 4142              		.loc 1 996 0
 4143 0006 0321     		movs	r1, #3
 4144              	.LVL601:
 4145 0008 2046     		mov	r0, r4
 4146              	.LVL602:
 4147 000a FFF7FEFF 		bl	mrbc_string_strip
 4148              	.LVL603:
 4149 000e 70B9     		cbnz	r0, .L304
 4150              	.LBB432:
 997:c_string.c    ****   }
 4151              		.loc 1 997 0
 4152 0010 0023     		movs	r3, #0
 4153 0012 0093     		str	r3, [sp]
 4154 0014 0193     		str	r3, [sp, #4]
 4155 0016 0293     		str	r3, [sp, #8]
 4156 0018 0393     		str	r3, [sp, #12]
 4157 001a 0123     		movs	r3, #1
 4158 001c 8DF80030 		strb	r3, [sp]
 4159 0020 2046     		mov	r0, r4
 4160 0022 FFF7FEFF 		bl	mrbc_dec_ref_counter
 4161              	.LVL604:
 4162 0026 9DE80F00 		ldmia	sp, {r0, r1, r2, r3}
 4163 002a 84E80F00 		stmia	r4, {r0, r1, r2, r3}
 4164              	.L304:
 4165              	.LBE432:
 999:c_string.c    **** 
 4166              		.loc 1 999 0
 4167 002e 05B0     		add	sp, sp, #20
 4168              		.cfi_def_cfa_offset 12
 4169              		@ sp needed
 4170 0030 30BD     		pop	{r4, r5, pc}
 4171              		.cfi_endproc
 4172              	.LFE121:
 4173              		.size	c_string_strip_self, .-c_string_strip_self
 4174 0032 00BF     		.section	.text.c_string_strip,"ax",%progbits
ARM GAS  C:\Users\164\AppData\Local\Temp\cc3ssgoH.s 			page 111


 4175              		.align	2
 4176              		.thumb
 4177              		.thumb_func
 4178              		.type	c_string_strip, %function
 4179              	c_string_strip:
 4180              	.LFB120:
 982:c_string.c    ****   mrbc_value ret = mrbc_string_dup(vm, &v[0]);
 4181              		.loc 1 982 0
 4182              		.cfi_startproc
 4183              		@ args = 0, pretend = 0, frame = 32
 4184              		@ frame_needed = 0, uses_anonymous_args = 0
 4185              	.LVL605:
 4186 0000 70B5     		push	{r4, r5, r6, lr}
 4187              		.cfi_def_cfa_offset 16
 4188              		.cfi_offset 4, -16
 4189              		.cfi_offset 5, -12
 4190              		.cfi_offset 6, -8
 4191              		.cfi_offset 14, -4
 4192 0002 88B0     		sub	sp, sp, #32
 4193              		.cfi_def_cfa_offset 48
 4194 0004 0D46     		mov	r5, r1
 983:c_string.c    **** 
 4195              		.loc 1 983 0
 4196 0006 04AE     		add	r6, sp, #16
 4197 0008 0A46     		mov	r2, r1
 4198              	.LVL606:
 4199 000a 0146     		mov	r1, r0
 4200              	.LVL607:
 4201 000c 3046     		mov	r0, r6
 4202              	.LVL608:
 4203 000e FFF7FEFF 		bl	mrbc_string_dup
 4204              	.LVL609:
 985:c_string.c    **** 
 4205              		.loc 1 985 0
 4206 0012 0321     		movs	r1, #3
 4207 0014 3046     		mov	r0, r6
 4208 0016 FFF7FEFF 		bl	mrbc_string_strip
 4209              	.LVL610:
 4210              	.LBB433:
 987:c_string.c    **** }
 4211              		.loc 1 987 0
 4212 001a 96E80F00 		ldmia	r6, {r0, r1, r2, r3}
 4213 001e 8DE80F00 		stmia	sp, {r0, r1, r2, r3}
 4214 0022 2846     		mov	r0, r5
 4215 0024 FFF7FEFF 		bl	mrbc_dec_ref_counter
 4216              	.LVL611:
 4217 0028 9DE80F00 		ldmia	sp, {r0, r1, r2, r3}
 4218 002c 85E80F00 		stmia	r5, {r0, r1, r2, r3}
 4219              	.LBE433:
 988:c_string.c    **** 
 4220              		.loc 1 988 0
 4221 0030 08B0     		add	sp, sp, #32
 4222              		.cfi_def_cfa_offset 16
 4223              		@ sp needed
 4224 0032 70BD     		pop	{r4, r5, r6, pc}
 4225              		.cfi_endproc
 4226              	.LFE120:
ARM GAS  C:\Users\164\AppData\Local\Temp\cc3ssgoH.s 			page 112


 4227              		.size	c_string_strip, .-c_string_strip
 4228              		.section	.text.c_string_rstrip_self,"ax",%progbits
 4229              		.align	2
 4230              		.thumb
 4231              		.thumb_func
 4232              		.type	c_string_rstrip_self, %function
 4233              	c_string_rstrip_self:
 4234              	.LFB119:
 971:c_string.c    ****   if( mrbc_string_strip(&v[0], 0x02) == 0 ) {	// 2: right side only
 4235              		.loc 1 971 0
 4236              		.cfi_startproc
 4237              		@ args = 0, pretend = 0, frame = 16
 4238              		@ frame_needed = 0, uses_anonymous_args = 0
 4239              	.LVL612:
 4240 0000 30B5     		push	{r4, r5, lr}
 4241              		.cfi_def_cfa_offset 12
 4242              		.cfi_offset 4, -12
 4243              		.cfi_offset 5, -8
 4244              		.cfi_offset 14, -4
 4245 0002 85B0     		sub	sp, sp, #20
 4246              		.cfi_def_cfa_offset 32
 4247 0004 0C46     		mov	r4, r1
 972:c_string.c    ****     SET_RETURN( mrbc_nil_value() );
 4248              		.loc 1 972 0
 4249 0006 0221     		movs	r1, #2
 4250              	.LVL613:
 4251 0008 2046     		mov	r0, r4
 4252              	.LVL614:
 4253 000a FFF7FEFF 		bl	mrbc_string_strip
 4254              	.LVL615:
 4255 000e 70B9     		cbnz	r0, .L309
 4256              	.LBB434:
 973:c_string.c    ****   }
 4257              		.loc 1 973 0
 4258 0010 0023     		movs	r3, #0
 4259 0012 0093     		str	r3, [sp]
 4260 0014 0193     		str	r3, [sp, #4]
 4261 0016 0293     		str	r3, [sp, #8]
 4262 0018 0393     		str	r3, [sp, #12]
 4263 001a 0123     		movs	r3, #1
 4264 001c 8DF80030 		strb	r3, [sp]
 4265 0020 2046     		mov	r0, r4
 4266 0022 FFF7FEFF 		bl	mrbc_dec_ref_counter
 4267              	.LVL616:
 4268 0026 9DE80F00 		ldmia	sp, {r0, r1, r2, r3}
 4269 002a 84E80F00 		stmia	r4, {r0, r1, r2, r3}
 4270              	.L309:
 4271              	.LBE434:
 975:c_string.c    **** 
 4272              		.loc 1 975 0
 4273 002e 05B0     		add	sp, sp, #20
 4274              		.cfi_def_cfa_offset 12
 4275              		@ sp needed
 4276 0030 30BD     		pop	{r4, r5, pc}
 4277              		.cfi_endproc
 4278              	.LFE119:
 4279              		.size	c_string_rstrip_self, .-c_string_rstrip_self
ARM GAS  C:\Users\164\AppData\Local\Temp\cc3ssgoH.s 			page 113


 4280 0032 00BF     		.section	.text.c_string_rstrip,"ax",%progbits
 4281              		.align	2
 4282              		.thumb
 4283              		.thumb_func
 4284              		.type	c_string_rstrip, %function
 4285              	c_string_rstrip:
 4286              	.LFB118:
 958:c_string.c    ****   mrbc_value ret = mrbc_string_dup(vm, &v[0]);
 4287              		.loc 1 958 0
 4288              		.cfi_startproc
 4289              		@ args = 0, pretend = 0, frame = 32
 4290              		@ frame_needed = 0, uses_anonymous_args = 0
 4291              	.LVL617:
 4292 0000 70B5     		push	{r4, r5, r6, lr}
 4293              		.cfi_def_cfa_offset 16
 4294              		.cfi_offset 4, -16
 4295              		.cfi_offset 5, -12
 4296              		.cfi_offset 6, -8
 4297              		.cfi_offset 14, -4
 4298 0002 88B0     		sub	sp, sp, #32
 4299              		.cfi_def_cfa_offset 48
 4300 0004 0D46     		mov	r5, r1
 959:c_string.c    **** 
 4301              		.loc 1 959 0
 4302 0006 04AE     		add	r6, sp, #16
 4303 0008 0A46     		mov	r2, r1
 4304              	.LVL618:
 4305 000a 0146     		mov	r1, r0
 4306              	.LVL619:
 4307 000c 3046     		mov	r0, r6
 4308              	.LVL620:
 4309 000e FFF7FEFF 		bl	mrbc_string_dup
 4310              	.LVL621:
 961:c_string.c    **** 
 4311              		.loc 1 961 0
 4312 0012 0221     		movs	r1, #2
 4313 0014 3046     		mov	r0, r6
 4314 0016 FFF7FEFF 		bl	mrbc_string_strip
 4315              	.LVL622:
 4316              	.LBB435:
 963:c_string.c    **** }
 4317              		.loc 1 963 0
 4318 001a 96E80F00 		ldmia	r6, {r0, r1, r2, r3}
 4319 001e 8DE80F00 		stmia	sp, {r0, r1, r2, r3}
 4320 0022 2846     		mov	r0, r5
 4321 0024 FFF7FEFF 		bl	mrbc_dec_ref_counter
 4322              	.LVL623:
 4323 0028 9DE80F00 		ldmia	sp, {r0, r1, r2, r3}
 4324 002c 85E80F00 		stmia	r5, {r0, r1, r2, r3}
 4325              	.LBE435:
 964:c_string.c    **** 
 4326              		.loc 1 964 0
 4327 0030 08B0     		add	sp, sp, #32
 4328              		.cfi_def_cfa_offset 16
 4329              		@ sp needed
 4330 0032 70BD     		pop	{r4, r5, r6, pc}
 4331              		.cfi_endproc
ARM GAS  C:\Users\164\AppData\Local\Temp\cc3ssgoH.s 			page 114


 4332              	.LFE118:
 4333              		.size	c_string_rstrip, .-c_string_rstrip
 4334              		.section	.text.c_string_lstrip_self,"ax",%progbits
 4335              		.align	2
 4336              		.thumb
 4337              		.thumb_func
 4338              		.type	c_string_lstrip_self, %function
 4339              	c_string_lstrip_self:
 4340              	.LFB117:
 947:c_string.c    ****   if( mrbc_string_strip(&v[0], 0x01) == 0 ) {	// 1: left side only
 4341              		.loc 1 947 0
 4342              		.cfi_startproc
 4343              		@ args = 0, pretend = 0, frame = 16
 4344              		@ frame_needed = 0, uses_anonymous_args = 0
 4345              	.LVL624:
 4346 0000 30B5     		push	{r4, r5, lr}
 4347              		.cfi_def_cfa_offset 12
 4348              		.cfi_offset 4, -12
 4349              		.cfi_offset 5, -8
 4350              		.cfi_offset 14, -4
 4351 0002 85B0     		sub	sp, sp, #20
 4352              		.cfi_def_cfa_offset 32
 4353 0004 0C46     		mov	r4, r1
 948:c_string.c    ****     SET_RETURN( mrbc_nil_value() );
 4354              		.loc 1 948 0
 4355 0006 0121     		movs	r1, #1
 4356              	.LVL625:
 4357 0008 2046     		mov	r0, r4
 4358              	.LVL626:
 4359 000a FFF7FEFF 		bl	mrbc_string_strip
 4360              	.LVL627:
 4361 000e 70B9     		cbnz	r0, .L314
 4362              	.LBB436:
 949:c_string.c    ****   }
 4363              		.loc 1 949 0
 4364 0010 0023     		movs	r3, #0
 4365 0012 0093     		str	r3, [sp]
 4366 0014 0193     		str	r3, [sp, #4]
 4367 0016 0293     		str	r3, [sp, #8]
 4368 0018 0393     		str	r3, [sp, #12]
 4369 001a 0123     		movs	r3, #1
 4370 001c 8DF80030 		strb	r3, [sp]
 4371 0020 2046     		mov	r0, r4
 4372 0022 FFF7FEFF 		bl	mrbc_dec_ref_counter
 4373              	.LVL628:
 4374 0026 9DE80F00 		ldmia	sp, {r0, r1, r2, r3}
 4375 002a 84E80F00 		stmia	r4, {r0, r1, r2, r3}
 4376              	.L314:
 4377              	.LBE436:
 951:c_string.c    **** 
 4378              		.loc 1 951 0
 4379 002e 05B0     		add	sp, sp, #20
 4380              		.cfi_def_cfa_offset 12
 4381              		@ sp needed
 4382 0030 30BD     		pop	{r4, r5, pc}
 4383              		.cfi_endproc
 4384              	.LFE117:
ARM GAS  C:\Users\164\AppData\Local\Temp\cc3ssgoH.s 			page 115


 4385              		.size	c_string_lstrip_self, .-c_string_lstrip_self
 4386 0032 00BF     		.section	.text.c_string_lstrip,"ax",%progbits
 4387              		.align	2
 4388              		.thumb
 4389              		.thumb_func
 4390              		.type	c_string_lstrip, %function
 4391              	c_string_lstrip:
 4392              	.LFB116:
 934:c_string.c    ****   mrbc_value ret = mrbc_string_dup(vm, &v[0]);
 4393              		.loc 1 934 0
 4394              		.cfi_startproc
 4395              		@ args = 0, pretend = 0, frame = 32
 4396              		@ frame_needed = 0, uses_anonymous_args = 0
 4397              	.LVL629:
 4398 0000 70B5     		push	{r4, r5, r6, lr}
 4399              		.cfi_def_cfa_offset 16
 4400              		.cfi_offset 4, -16
 4401              		.cfi_offset 5, -12
 4402              		.cfi_offset 6, -8
 4403              		.cfi_offset 14, -4
 4404 0002 88B0     		sub	sp, sp, #32
 4405              		.cfi_def_cfa_offset 48
 4406 0004 0D46     		mov	r5, r1
 935:c_string.c    **** 
 4407              		.loc 1 935 0
 4408 0006 04AE     		add	r6, sp, #16
 4409 0008 0A46     		mov	r2, r1
 4410              	.LVL630:
 4411 000a 0146     		mov	r1, r0
 4412              	.LVL631:
 4413 000c 3046     		mov	r0, r6
 4414              	.LVL632:
 4415 000e FFF7FEFF 		bl	mrbc_string_dup
 4416              	.LVL633:
 937:c_string.c    **** 
 4417              		.loc 1 937 0
 4418 0012 0121     		movs	r1, #1
 4419 0014 3046     		mov	r0, r6
 4420 0016 FFF7FEFF 		bl	mrbc_string_strip
 4421              	.LVL634:
 4422              	.LBB437:
 939:c_string.c    **** }
 4423              		.loc 1 939 0
 4424 001a 96E80F00 		ldmia	r6, {r0, r1, r2, r3}
 4425 001e 8DE80F00 		stmia	sp, {r0, r1, r2, r3}
 4426 0022 2846     		mov	r0, r5
 4427 0024 FFF7FEFF 		bl	mrbc_dec_ref_counter
 4428              	.LVL635:
 4429 0028 9DE80F00 		ldmia	sp, {r0, r1, r2, r3}
 4430 002c 85E80F00 		stmia	r5, {r0, r1, r2, r3}
 4431              	.LBE437:
 940:c_string.c    **** 
 4432              		.loc 1 940 0
 4433 0030 08B0     		add	sp, sp, #32
 4434              		.cfi_def_cfa_offset 16
 4435              		@ sp needed
 4436 0032 70BD     		pop	{r4, r5, r6, pc}
ARM GAS  C:\Users\164\AppData\Local\Temp\cc3ssgoH.s 			page 116


 4437              		.cfi_endproc
 4438              	.LFE116:
 4439              		.size	c_string_lstrip, .-c_string_lstrip
 4440              		.section	.text.mrbc_string_chomp,"ax",%progbits
 4441              		.align	2
 4442              		.global	mrbc_string_chomp
 4443              		.thumb
 4444              		.thumb_func
 4445              		.type	mrbc_string_chomp, %function
 4446              	mrbc_string_chomp:
 4447              	.LFB98:
 331:c_string.c    ****   char *p1 = mrbc_string_cstr(src);
 4448              		.loc 1 331 0
 4449              		.cfi_startproc
 4450              		@ args = 0, pretend = 0, frame = 0
 4451              		@ frame_needed = 0, uses_anonymous_args = 0
 4452              		@ link register save eliminated.
 4453              	.LVL636:
 4454 0000 10B4     		push	{r4}
 4455              		.cfi_def_cfa_offset 4
 4456              		.cfi_offset 4, -4
 4457              	.LVL637:
 4458              	.LBB438:
 4459              	.LBB439:
 4460              		.loc 2 80 0
 4461 0002 8368     		ldr	r3, [r0, #8]
 4462 0004 9A68     		ldr	r2, [r3, #8]
 4463              	.LVL638:
 4464              	.LBE439:
 4465              	.LBE438:
 4466              	.LBB440:
 4467              	.LBB441:
  72:c_string.h    **** }
 4468              		.loc 2 72 0
 4469 0006 9988     		ldrh	r1, [r3, #4]
 4470              	.LVL639:
 4471              	.LBE441:
 4472              	.LBE440:
 333:c_string.c    **** 
 4473              		.loc 1 333 0
 4474 0008 4C1E     		subs	r4, r1, #1
 4475 000a 1319     		adds	r3, r2, r4
 4476              	.LVL640:
 335:c_string.c    ****     p2--;
 4477              		.loc 1 335 0
 4478 000c 145D     		ldrb	r4, [r2, r4]	@ zero_extendqisi2
 4479 000e 0A2C     		cmp	r4, #10
 4480 0010 00D1     		bne	.L320
 336:c_string.c    ****   }
 4481              		.loc 1 336 0
 4482 0012 013B     		subs	r3, r3, #1
 4483              	.LVL641:
 4484              	.L320:
 338:c_string.c    ****     p2--;
 4485              		.loc 1 338 0
 4486 0014 1C78     		ldrb	r4, [r3]	@ zero_extendqisi2
 4487 0016 0D2C     		cmp	r4, #13
ARM GAS  C:\Users\164\AppData\Local\Temp\cc3ssgoH.s 			page 117


 4488 0018 00D1     		bne	.L321
 339:c_string.c    ****   }
 4489              		.loc 1 339 0
 4490 001a 013B     		subs	r3, r3, #1
 4491              	.LVL642:
 4492              	.L321:
 342:c_string.c    ****   if( mrbc_string_size(src) == new_size ) return 0;
 4493              		.loc 1 342 0
 4494 001c 9B1A     		subs	r3, r3, r2
 4495              	.LVL643:
 4496 001e 0133     		adds	r3, r3, #1
 4497              	.LVL644:
 343:c_string.c    **** 
 4498              		.loc 1 343 0
 4499 0020 9942     		cmp	r1, r3
 4500 0022 05D0     		beq	.L323
 346:c_string.c    ****   src->string->size = new_size;
 4501              		.loc 1 346 0
 4502 0024 0021     		movs	r1, #0
 4503 0026 D154     		strb	r1, [r2, r3]
 347:c_string.c    **** 
 4504              		.loc 1 347 0
 4505 0028 8268     		ldr	r2, [r0, #8]
 4506 002a 9380     		strh	r3, [r2, #4]	@ movhi
 349:c_string.c    **** }
 4507              		.loc 1 349 0
 4508 002c 0120     		movs	r0, #1
 4509              	.LVL645:
 4510 002e 00E0     		b	.L322
 4511              	.LVL646:
 4512              	.L323:
 343:c_string.c    **** 
 4513              		.loc 1 343 0
 4514 0030 0020     		movs	r0, #0
 4515              	.LVL647:
 4516              	.L322:
 350:c_string.c    **** 
 4517              		.loc 1 350 0
 4518 0032 10BC     		pop	{r4}
 4519              		.cfi_restore 4
 4520              		.cfi_def_cfa_offset 0
 4521 0034 7047     		bx	lr
 4522              		.cfi_endproc
 4523              	.LFE98:
 4524              		.size	mrbc_string_chomp, .-mrbc_string_chomp
 4525 0036 00BF     		.section	.text.c_string_chomp_self,"ax",%progbits
 4526              		.align	2
 4527              		.thumb
 4528              		.thumb_func
 4529              		.type	c_string_chomp_self, %function
 4530              	c_string_chomp_self:
 4531              	.LFB108:
 600:c_string.c    ****   if( mrbc_string_chomp(&v[0]) == 0 ) {
 4532              		.loc 1 600 0
 4533              		.cfi_startproc
 4534              		@ args = 0, pretend = 0, frame = 16
 4535              		@ frame_needed = 0, uses_anonymous_args = 0
ARM GAS  C:\Users\164\AppData\Local\Temp\cc3ssgoH.s 			page 118


 4536              	.LVL648:
 4537 0000 30B5     		push	{r4, r5, lr}
 4538              		.cfi_def_cfa_offset 12
 4539              		.cfi_offset 4, -12
 4540              		.cfi_offset 5, -8
 4541              		.cfi_offset 14, -4
 4542 0002 85B0     		sub	sp, sp, #20
 4543              		.cfi_def_cfa_offset 32
 4544 0004 0C46     		mov	r4, r1
 601:c_string.c    ****     SET_RETURN( mrbc_nil_value() );
 4545              		.loc 1 601 0
 4546 0006 0846     		mov	r0, r1
 4547              	.LVL649:
 4548 0008 FFF7FEFF 		bl	mrbc_string_chomp
 4549              	.LVL650:
 4550 000c 70B9     		cbnz	r0, .L325
 4551              	.LBB442:
 602:c_string.c    ****   }
 4552              		.loc 1 602 0
 4553 000e 0023     		movs	r3, #0
 4554 0010 0093     		str	r3, [sp]
 4555 0012 0193     		str	r3, [sp, #4]
 4556 0014 0293     		str	r3, [sp, #8]
 4557 0016 0393     		str	r3, [sp, #12]
 4558 0018 0123     		movs	r3, #1
 4559 001a 8DF80030 		strb	r3, [sp]
 4560 001e 2046     		mov	r0, r4
 4561 0020 FFF7FEFF 		bl	mrbc_dec_ref_counter
 4562              	.LVL651:
 4563 0024 9DE80F00 		ldmia	sp, {r0, r1, r2, r3}
 4564 0028 84E80F00 		stmia	r4, {r0, r1, r2, r3}
 4565              	.L325:
 4566              	.LBE442:
 604:c_string.c    **** 
 4567              		.loc 1 604 0
 4568 002c 05B0     		add	sp, sp, #20
 4569              		.cfi_def_cfa_offset 12
 4570              		@ sp needed
 4571 002e 30BD     		pop	{r4, r5, pc}
 4572              		.cfi_endproc
 4573              	.LFE108:
 4574              		.size	c_string_chomp_self, .-c_string_chomp_self
 4575              		.section	.text.c_string_chomp,"ax",%progbits
 4576              		.align	2
 4577              		.thumb
 4578              		.thumb_func
 4579              		.type	c_string_chomp, %function
 4580              	c_string_chomp:
 4581              	.LFB107:
 587:c_string.c    ****   mrbc_value ret = mrbc_string_dup(vm, &v[0]);
 4582              		.loc 1 587 0
 4583              		.cfi_startproc
 4584              		@ args = 0, pretend = 0, frame = 32
 4585              		@ frame_needed = 0, uses_anonymous_args = 0
 4586              	.LVL652:
 4587 0000 70B5     		push	{r4, r5, r6, lr}
 4588              		.cfi_def_cfa_offset 16
ARM GAS  C:\Users\164\AppData\Local\Temp\cc3ssgoH.s 			page 119


 4589              		.cfi_offset 4, -16
 4590              		.cfi_offset 5, -12
 4591              		.cfi_offset 6, -8
 4592              		.cfi_offset 14, -4
 4593 0002 88B0     		sub	sp, sp, #32
 4594              		.cfi_def_cfa_offset 48
 4595 0004 0D46     		mov	r5, r1
 588:c_string.c    **** 
 4596              		.loc 1 588 0
 4597 0006 04AE     		add	r6, sp, #16
 4598 0008 0A46     		mov	r2, r1
 4599              	.LVL653:
 4600 000a 0146     		mov	r1, r0
 4601              	.LVL654:
 4602 000c 3046     		mov	r0, r6
 4603              	.LVL655:
 4604 000e FFF7FEFF 		bl	mrbc_string_dup
 4605              	.LVL656:
 590:c_string.c    **** 
 4606              		.loc 1 590 0
 4607 0012 3046     		mov	r0, r6
 4608 0014 FFF7FEFF 		bl	mrbc_string_chomp
 4609              	.LVL657:
 4610              	.LBB443:
 592:c_string.c    **** }
 4611              		.loc 1 592 0
 4612 0018 96E80F00 		ldmia	r6, {r0, r1, r2, r3}
 4613 001c 8DE80F00 		stmia	sp, {r0, r1, r2, r3}
 4614 0020 2846     		mov	r0, r5
 4615 0022 FFF7FEFF 		bl	mrbc_dec_ref_counter
 4616              	.LVL658:
 4617 0026 9DE80F00 		ldmia	sp, {r0, r1, r2, r3}
 4618 002a 85E80F00 		stmia	r5, {r0, r1, r2, r3}
 4619              	.LBE443:
 593:c_string.c    **** 
 4620              		.loc 1 593 0
 4621 002e 08B0     		add	sp, sp, #32
 4622              		.cfi_def_cfa_offset 16
 4623              		@ sp needed
 4624 0030 70BD     		pop	{r4, r5, r6, pc}
 4625              		.cfi_endproc
 4626              	.LFE107:
 4627              		.size	c_string_chomp, .-c_string_chomp
 4628 0032 00BF     		.section	.text.mrbc_init_class_string,"ax",%progbits
 4629              		.align	2
 4630              		.global	mrbc_init_class_string
 4631              		.thumb
 4632              		.thumb_func
 4633              		.type	mrbc_init_class_string, %function
 4634              	mrbc_init_class_string:
 4635              	.LFB133:
1260:c_string.c    **** }
1261:c_string.c    **** 
1262:c_string.c    **** 
1263:c_string.c    **** //================================================================
1264:c_string.c    **** /*! initialize
1265:c_string.c    **** */
ARM GAS  C:\Users\164\AppData\Local\Temp\cc3ssgoH.s 			page 120


1266:c_string.c    **** void mrbc_init_class_string(struct VM *vm)
1267:c_string.c    **** {
 4636              		.loc 1 1267 0
 4637              		.cfi_startproc
 4638              		@ args = 0, pretend = 0, frame = 0
 4639              		@ frame_needed = 0, uses_anonymous_args = 0
 4640              	.LVL659:
 4641 0000 F8B5     		push	{r3, r4, r5, r6, r7, lr}
 4642              		.cfi_def_cfa_offset 24
 4643              		.cfi_offset 3, -24
 4644              		.cfi_offset 4, -20
 4645              		.cfi_offset 5, -16
 4646              		.cfi_offset 6, -12
 4647              		.cfi_offset 7, -8
 4648              		.cfi_offset 14, -4
 4649 0002 0446     		mov	r4, r0
1268:c_string.c    ****   mrbc_class_string = mrbc_define_class(vm, "String", mrbc_class_object);
 4650              		.loc 1 1268 0
 4651 0004 644E     		ldr	r6, .L332
 4652 0006 3268     		ldr	r2, [r6]
 4653 0008 6449     		ldr	r1, .L332+4
 4654 000a FFF7FEFF 		bl	mrbc_define_class
 4655              	.LVL660:
 4656 000e 0146     		mov	r1, r0
 4657 0010 634D     		ldr	r5, .L332+8
 4658 0012 2860     		str	r0, [r5]
1269:c_string.c    **** 
1270:c_string.c    ****   mrbc_define_method(vm, mrbc_class_string, "+",	c_string_add);
 4659              		.loc 1 1270 0
 4660 0014 634B     		ldr	r3, .L332+12
 4661 0016 644A     		ldr	r2, .L332+16
 4662 0018 2046     		mov	r0, r4
 4663 001a FFF7FEFF 		bl	mrbc_define_method
 4664              	.LVL661:
1271:c_string.c    ****   mrbc_define_method(vm, mrbc_class_string, "*",	c_string_mul);
 4665              		.loc 1 1271 0
 4666 001e 634B     		ldr	r3, .L332+20
 4667 0020 634A     		ldr	r2, .L332+24
 4668 0022 2968     		ldr	r1, [r5]
 4669 0024 2046     		mov	r0, r4
 4670 0026 FFF7FEFF 		bl	mrbc_define_method
 4671              	.LVL662:
1272:c_string.c    ****   mrbc_define_method(vm, mrbc_class_string, "size",	c_string_size);
 4672              		.loc 1 1272 0
 4673 002a 624F     		ldr	r7, .L332+28
 4674 002c 3B46     		mov	r3, r7
 4675 002e 624A     		ldr	r2, .L332+32
 4676 0030 2968     		ldr	r1, [r5]
 4677 0032 2046     		mov	r0, r4
 4678 0034 FFF7FEFF 		bl	mrbc_define_method
 4679              	.LVL663:
1273:c_string.c    ****   mrbc_define_method(vm, mrbc_class_string, "length",	c_string_size);
 4680              		.loc 1 1273 0
 4681 0038 3B46     		mov	r3, r7
 4682 003a 604A     		ldr	r2, .L332+36
 4683 003c 2968     		ldr	r1, [r5]
 4684 003e 2046     		mov	r0, r4
ARM GAS  C:\Users\164\AppData\Local\Temp\cc3ssgoH.s 			page 121


 4685 0040 FFF7FEFF 		bl	mrbc_define_method
 4686              	.LVL664:
1274:c_string.c    ****   mrbc_define_method(vm, mrbc_class_string, "to_i",	c_string_to_i);
 4687              		.loc 1 1274 0
 4688 0044 5E4B     		ldr	r3, .L332+40
 4689 0046 5F4A     		ldr	r2, .L332+44
 4690 0048 2968     		ldr	r1, [r5]
 4691 004a 2046     		mov	r0, r4
 4692 004c FFF7FEFF 		bl	mrbc_define_method
 4693              	.LVL665:
1275:c_string.c    ****   mrbc_define_method(vm, mrbc_class_string, "to_s",	c_ineffect);
 4694              		.loc 1 1275 0
 4695 0050 5D4B     		ldr	r3, .L332+48
 4696 0052 5E4A     		ldr	r2, .L332+52
 4697 0054 2968     		ldr	r1, [r5]
 4698 0056 2046     		mov	r0, r4
 4699 0058 FFF7FEFF 		bl	mrbc_define_method
 4700              	.LVL666:
1276:c_string.c    ****   mrbc_define_method(vm, mrbc_class_string, "<<",	c_string_append);
 4701              		.loc 1 1276 0
 4702 005c 5C4B     		ldr	r3, .L332+56
 4703 005e 5D4A     		ldr	r2, .L332+60
 4704 0060 2968     		ldr	r1, [r5]
 4705 0062 2046     		mov	r0, r4
 4706 0064 FFF7FEFF 		bl	mrbc_define_method
 4707              	.LVL667:
1277:c_string.c    ****   mrbc_define_method(vm, mrbc_class_string, "[]",	c_string_slice);
 4708              		.loc 1 1277 0
 4709 0068 5B4B     		ldr	r3, .L332+64
 4710 006a 5C4A     		ldr	r2, .L332+68
 4711 006c 2968     		ldr	r1, [r5]
 4712 006e 2046     		mov	r0, r4
 4713 0070 FFF7FEFF 		bl	mrbc_define_method
 4714              	.LVL668:
1278:c_string.c    ****   mrbc_define_method(vm, mrbc_class_string, "[]=",	c_string_insert);
 4715              		.loc 1 1278 0
 4716 0074 5A4B     		ldr	r3, .L332+72
 4717 0076 5B4A     		ldr	r2, .L332+76
 4718 0078 2968     		ldr	r1, [r5]
 4719 007a 2046     		mov	r0, r4
 4720 007c FFF7FEFF 		bl	mrbc_define_method
 4721              	.LVL669:
1279:c_string.c    ****   mrbc_define_method(vm, mrbc_class_string, "chomp",	c_string_chomp);
 4722              		.loc 1 1279 0
 4723 0080 594B     		ldr	r3, .L332+80
 4724 0082 5A4A     		ldr	r2, .L332+84
 4725 0084 2968     		ldr	r1, [r5]
 4726 0086 2046     		mov	r0, r4
 4727 0088 FFF7FEFF 		bl	mrbc_define_method
 4728              	.LVL670:
1280:c_string.c    ****   mrbc_define_method(vm, mrbc_class_string, "chomp!",	c_string_chomp_self);
 4729              		.loc 1 1280 0
 4730 008c 584B     		ldr	r3, .L332+88
 4731 008e 594A     		ldr	r2, .L332+92
 4732 0090 2968     		ldr	r1, [r5]
 4733 0092 2046     		mov	r0, r4
 4734 0094 FFF7FEFF 		bl	mrbc_define_method
ARM GAS  C:\Users\164\AppData\Local\Temp\cc3ssgoH.s 			page 122


 4735              	.LVL671:
1281:c_string.c    ****   mrbc_define_method(vm, mrbc_class_string, "dup",	c_string_dup);
 4736              		.loc 1 1281 0
 4737 0098 574B     		ldr	r3, .L332+96
 4738 009a 584A     		ldr	r2, .L332+100
 4739 009c 2968     		ldr	r1, [r5]
 4740 009e 2046     		mov	r0, r4
 4741 00a0 FFF7FEFF 		bl	mrbc_define_method
 4742              	.LVL672:
1282:c_string.c    ****   mrbc_define_method(vm, mrbc_class_string, "index",	c_string_index);
 4743              		.loc 1 1282 0
 4744 00a4 564B     		ldr	r3, .L332+104
 4745 00a6 574A     		ldr	r2, .L332+108
 4746 00a8 2968     		ldr	r1, [r5]
 4747 00aa 2046     		mov	r0, r4
 4748 00ac FFF7FEFF 		bl	mrbc_define_method
 4749              	.LVL673:
1283:c_string.c    ****   mrbc_define_method(vm, mrbc_class_string, "inspect",	c_string_inspect);
 4750              		.loc 1 1283 0
 4751 00b0 554B     		ldr	r3, .L332+112
 4752 00b2 564A     		ldr	r2, .L332+116
 4753 00b4 2968     		ldr	r1, [r5]
 4754 00b6 2046     		mov	r0, r4
 4755 00b8 FFF7FEFF 		bl	mrbc_define_method
 4756              	.LVL674:
1284:c_string.c    ****   mrbc_define_method(vm, mrbc_class_string, "ord",	c_string_ord);
 4757              		.loc 1 1284 0
 4758 00bc 544B     		ldr	r3, .L332+120
 4759 00be 554A     		ldr	r2, .L332+124
 4760 00c0 2968     		ldr	r1, [r5]
 4761 00c2 2046     		mov	r0, r4
 4762 00c4 FFF7FEFF 		bl	mrbc_define_method
 4763              	.LVL675:
1285:c_string.c    ****   mrbc_define_method(vm, mrbc_class_string, "split",	c_string_split);
 4764              		.loc 1 1285 0
 4765 00c8 534B     		ldr	r3, .L332+128
 4766 00ca 544A     		ldr	r2, .L332+132
 4767 00cc 2968     		ldr	r1, [r5]
 4768 00ce 2046     		mov	r0, r4
 4769 00d0 FFF7FEFF 		bl	mrbc_define_method
 4770              	.LVL676:
1286:c_string.c    ****   mrbc_define_method(vm, mrbc_class_string, "lstrip",	c_string_lstrip);
 4771              		.loc 1 1286 0
 4772 00d4 524B     		ldr	r3, .L332+136
 4773 00d6 534A     		ldr	r2, .L332+140
 4774 00d8 2968     		ldr	r1, [r5]
 4775 00da 2046     		mov	r0, r4
 4776 00dc FFF7FEFF 		bl	mrbc_define_method
 4777              	.LVL677:
1287:c_string.c    ****   mrbc_define_method(vm, mrbc_class_string, "lstrip!",	c_string_lstrip_self);
 4778              		.loc 1 1287 0
 4779 00e0 514B     		ldr	r3, .L332+144
 4780 00e2 524A     		ldr	r2, .L332+148
 4781 00e4 2968     		ldr	r1, [r5]
 4782 00e6 2046     		mov	r0, r4
 4783 00e8 FFF7FEFF 		bl	mrbc_define_method
 4784              	.LVL678:
ARM GAS  C:\Users\164\AppData\Local\Temp\cc3ssgoH.s 			page 123


1288:c_string.c    ****   mrbc_define_method(vm, mrbc_class_string, "rstrip",	c_string_rstrip);
 4785              		.loc 1 1288 0
 4786 00ec 504B     		ldr	r3, .L332+152
 4787 00ee 514A     		ldr	r2, .L332+156
 4788 00f0 2968     		ldr	r1, [r5]
 4789 00f2 2046     		mov	r0, r4
 4790 00f4 FFF7FEFF 		bl	mrbc_define_method
 4791              	.LVL679:
1289:c_string.c    ****   mrbc_define_method(vm, mrbc_class_string, "rstrip!",	c_string_rstrip_self);
 4792              		.loc 1 1289 0
 4793 00f8 4F4B     		ldr	r3, .L332+160
 4794 00fa 504A     		ldr	r2, .L332+164
 4795 00fc 2968     		ldr	r1, [r5]
 4796 00fe 2046     		mov	r0, r4
 4797 0100 FFF7FEFF 		bl	mrbc_define_method
 4798              	.LVL680:
1290:c_string.c    ****   mrbc_define_method(vm, mrbc_class_string, "strip",	c_string_strip);
 4799              		.loc 1 1290 0
 4800 0104 4E4B     		ldr	r3, .L332+168
 4801 0106 4F4A     		ldr	r2, .L332+172
 4802 0108 2968     		ldr	r1, [r5]
 4803 010a 2046     		mov	r0, r4
 4804 010c FFF7FEFF 		bl	mrbc_define_method
 4805              	.LVL681:
1291:c_string.c    ****   mrbc_define_method(vm, mrbc_class_string, "strip!",	c_string_strip_self);
 4806              		.loc 1 1291 0
 4807 0110 4D4B     		ldr	r3, .L332+176
 4808 0112 4E4A     		ldr	r2, .L332+180
 4809 0114 2968     		ldr	r1, [r5]
 4810 0116 2046     		mov	r0, r4
 4811 0118 FFF7FEFF 		bl	mrbc_define_method
 4812              	.LVL682:
1292:c_string.c    ****   mrbc_define_method(vm, mrbc_class_string, "to_sym",	c_string_to_sym);
 4813              		.loc 1 1292 0
 4814 011c 4C4F     		ldr	r7, .L332+184
 4815 011e 3B46     		mov	r3, r7
 4816 0120 4C4A     		ldr	r2, .L332+188
 4817 0122 2968     		ldr	r1, [r5]
 4818 0124 2046     		mov	r0, r4
 4819 0126 FFF7FEFF 		bl	mrbc_define_method
 4820              	.LVL683:
1293:c_string.c    ****   mrbc_define_method(vm, mrbc_class_string, "intern",	c_string_to_sym);
 4821              		.loc 1 1293 0
 4822 012a 3B46     		mov	r3, r7
 4823 012c 4A4A     		ldr	r2, .L332+192
 4824 012e 2968     		ldr	r1, [r5]
 4825 0130 2046     		mov	r0, r4
 4826 0132 FFF7FEFF 		bl	mrbc_define_method
 4827              	.LVL684:
1294:c_string.c    ****   mrbc_define_method(vm, mrbc_class_string, "tr",	c_string_tr);
 4828              		.loc 1 1294 0
 4829 0136 494B     		ldr	r3, .L332+196
 4830 0138 494A     		ldr	r2, .L332+200
 4831 013a 2968     		ldr	r1, [r5]
 4832 013c 2046     		mov	r0, r4
 4833 013e FFF7FEFF 		bl	mrbc_define_method
 4834              	.LVL685:
ARM GAS  C:\Users\164\AppData\Local\Temp\cc3ssgoH.s 			page 124


1295:c_string.c    ****   mrbc_define_method(vm, mrbc_class_string, "tr!",	c_string_tr_self);
 4835              		.loc 1 1295 0
 4836 0142 484B     		ldr	r3, .L332+204
 4837 0144 484A     		ldr	r2, .L332+208
 4838 0146 2968     		ldr	r1, [r5]
 4839 0148 2046     		mov	r0, r4
 4840 014a FFF7FEFF 		bl	mrbc_define_method
 4841              	.LVL686:
1296:c_string.c    ****   mrbc_define_method(vm, mrbc_class_string, "start_with?", c_string_start_with);
 4842              		.loc 1 1296 0
 4843 014e 474B     		ldr	r3, .L332+212
 4844 0150 474A     		ldr	r2, .L332+216
 4845 0152 2968     		ldr	r1, [r5]
 4846 0154 2046     		mov	r0, r4
 4847 0156 FFF7FEFF 		bl	mrbc_define_method
 4848              	.LVL687:
1297:c_string.c    ****   mrbc_define_method(vm, mrbc_class_string, "end_with?", c_string_end_with);
 4849              		.loc 1 1297 0
 4850 015a 464B     		ldr	r3, .L332+220
 4851 015c 464A     		ldr	r2, .L332+224
 4852 015e 2968     		ldr	r1, [r5]
 4853 0160 2046     		mov	r0, r4
 4854 0162 FFF7FEFF 		bl	mrbc_define_method
 4855              	.LVL688:
1298:c_string.c    ****   mrbc_define_method(vm, mrbc_class_string, "include?",	c_string_include);
 4856              		.loc 1 1298 0
 4857 0166 454B     		ldr	r3, .L332+228
 4858 0168 454A     		ldr	r2, .L332+232
 4859 016a 2968     		ldr	r1, [r5]
 4860 016c 2046     		mov	r0, r4
 4861 016e FFF7FEFF 		bl	mrbc_define_method
 4862              	.LVL689:
1299:c_string.c    **** 
1300:c_string.c    **** #if MRBC_USE_FLOAT
1301:c_string.c    ****   mrbc_define_method(vm, mrbc_class_string, "to_f",	c_string_to_f);
 4863              		.loc 1 1301 0
 4864 0172 444B     		ldr	r3, .L332+236
 4865 0174 444A     		ldr	r2, .L332+240
 4866 0176 2968     		ldr	r1, [r5]
 4867 0178 2046     		mov	r0, r4
 4868 017a FFF7FEFF 		bl	mrbc_define_method
 4869              	.LVL690:
1302:c_string.c    **** #endif
1303:c_string.c    **** 
1304:c_string.c    ****   mrbc_define_method(vm, mrbc_class_object, "sprintf",	c_object_sprintf);
 4870              		.loc 1 1304 0
 4871 017e 434B     		ldr	r3, .L332+244
 4872 0180 434A     		ldr	r2, .L332+248
 4873 0182 3168     		ldr	r1, [r6]
 4874 0184 2046     		mov	r0, r4
 4875 0186 FFF7FEFF 		bl	mrbc_define_method
 4876              	.LVL691:
1305:c_string.c    ****   mrbc_define_method(vm, mrbc_class_object, "printf",	c_object_printf);
 4877              		.loc 1 1305 0
 4878 018a 424B     		ldr	r3, .L332+252
 4879 018c 424A     		ldr	r2, .L332+256
 4880 018e 3168     		ldr	r1, [r6]
ARM GAS  C:\Users\164\AppData\Local\Temp\cc3ssgoH.s 			page 125


 4881 0190 2046     		mov	r0, r4
 4882 0192 FFF7FEFF 		bl	mrbc_define_method
 4883              	.LVL692:
 4884 0196 F8BD     		pop	{r3, r4, r5, r6, r7, pc}
 4885              	.LVL693:
 4886              	.L333:
 4887              		.align	2
 4888              	.L332:
 4889 0198 00000000 		.word	mrbc_class_object
 4890 019c 98000000 		.word	.LC9
 4891 01a0 00000000 		.word	mrbc_class_string
 4892 01a4 00000000 		.word	c_string_add
 4893 01a8 A0000000 		.word	.LC10
 4894 01ac 00000000 		.word	c_string_mul
 4895 01b0 A4000000 		.word	.LC11
 4896 01b4 00000000 		.word	c_string_size
 4897 01b8 A8000000 		.word	.LC12
 4898 01bc B0000000 		.word	.LC13
 4899 01c0 00000000 		.word	c_string_to_i
 4900 01c4 B8000000 		.word	.LC14
 4901 01c8 00000000 		.word	c_ineffect
 4902 01cc C0000000 		.word	.LC15
 4903 01d0 00000000 		.word	c_string_append
 4904 01d4 C8000000 		.word	.LC16
 4905 01d8 00000000 		.word	c_string_slice
 4906 01dc CC000000 		.word	.LC17
 4907 01e0 00000000 		.word	c_string_insert
 4908 01e4 D0000000 		.word	.LC18
 4909 01e8 00000000 		.word	c_string_chomp
 4910 01ec D4000000 		.word	.LC19
 4911 01f0 00000000 		.word	c_string_chomp_self
 4912 01f4 DC000000 		.word	.LC20
 4913 01f8 00000000 		.word	c_string_dup
 4914 01fc E4000000 		.word	.LC21
 4915 0200 00000000 		.word	c_string_index
 4916 0204 E8000000 		.word	.LC22
 4917 0208 00000000 		.word	c_string_inspect
 4918 020c F0000000 		.word	.LC23
 4919 0210 00000000 		.word	c_string_ord
 4920 0214 F8000000 		.word	.LC24
 4921 0218 00000000 		.word	c_string_split
 4922 021c FC000000 		.word	.LC25
 4923 0220 00000000 		.word	c_string_lstrip
 4924 0224 04010000 		.word	.LC26
 4925 0228 00000000 		.word	c_string_lstrip_self
 4926 022c 0C010000 		.word	.LC27
 4927 0230 00000000 		.word	c_string_rstrip
 4928 0234 14010000 		.word	.LC28
 4929 0238 00000000 		.word	c_string_rstrip_self
 4930 023c 1C010000 		.word	.LC29
 4931 0240 00000000 		.word	c_string_strip
 4932 0244 24010000 		.word	.LC30
 4933 0248 00000000 		.word	c_string_strip_self
 4934 024c 2C010000 		.word	.LC31
 4935 0250 00000000 		.word	c_string_to_sym
 4936 0254 34010000 		.word	.LC32
 4937 0258 3C010000 		.word	.LC33
ARM GAS  C:\Users\164\AppData\Local\Temp\cc3ssgoH.s 			page 126


 4938 025c 00000000 		.word	c_string_tr
 4939 0260 44010000 		.word	.LC34
 4940 0264 00000000 		.word	c_string_tr_self
 4941 0268 48010000 		.word	.LC35
 4942 026c 00000000 		.word	c_string_start_with
 4943 0270 4C010000 		.word	.LC36
 4944 0274 00000000 		.word	c_string_end_with
 4945 0278 58010000 		.word	.LC37
 4946 027c 00000000 		.word	c_string_include
 4947 0280 64010000 		.word	.LC38
 4948 0284 00000000 		.word	c_string_to_f
 4949 0288 70010000 		.word	.LC39
 4950 028c 00000000 		.word	c_object_sprintf
 4951 0290 78010000 		.word	.LC40
 4952 0294 00000000 		.word	c_object_printf
 4953 0298 80010000 		.word	.LC41
 4954              		.cfi_endproc
 4955              	.LFE133:
 4956              		.size	mrbc_init_class_string, .-mrbc_init_class_string
 4957              		.section	.rodata
 4958              		.align	2
 4959              		.set	.LANCHOR0,. + 0
 4960              		.type	ws.7540, %object
 4961              		.size	ws.7540, 7
 4962              	ws.7540:
 4963 0000 20090D0A 		.ascii	" \011\015\012\014\013\000"
 4963      0C0B00
 4964              		.section	.rodata.str1.4,"aMS",%progbits,1
 4965              		.align	2
 4966              	.LC0:
 4967 0000 41726775 		.ascii	"ArgumentError\012\000"
 4967      6D656E74 
 4967      4572726F 
 4967      720A00
 4968 000f 00       		.space	1
 4969              	.LC1:
 4970 0010 4E6F7420 		.ascii	"Not support\012\000"
 4970      73757070 
 4970      6F72740A 
 4970      00
 4971 001d 000000   		.space	3
 4972              	.LC2:
 4973 0020 496E6465 		.ascii	"IndexError\012\000"
 4973      78457272 
 4973      6F720A00 
 4974              	.LC3:
 4975 002c 4E6F7420 		.ascii	"Not support such case in String#[].\012\000"
 4975      73757070 
 4975      6F727420 
 4975      73756368 
 4975      20636173 
 4976 0051 000000   		.space	3
 4977              	.LC4:
 4978 0054 54797065 		.ascii	"TypeError\012\000"
 4978      4572726F 
 4978      720A00
 4979 005f 00       		.space	1
ARM GAS  C:\Users\164\AppData\Local\Temp\cc3ssgoH.s 			page 127


 4980              	.LC5:
 4981 0060 4E6F7420 		.ascii	"Not support STRING + Other\012\000"
 4981      73757070 
 4981      6F727420 
 4981      53545249 
 4981      4E47202B 
 4982              	.LC6:
 4983 007c 2200     		.ascii	"\"\000"
 4984 007e 0000     		.space	2
 4985              	.LC7:
 4986 0080 30313233 		.ascii	"0123456789ABCDEF\000"
 4986      34353637 
 4986      38394142 
 4986      43444546 
 4986      00
 4987 0091 000000   		.space	3
 4988              	.LC8:
 4989 0094 2000     		.ascii	" \000"
 4990 0096 0000     		.space	2
 4991              	.LC9:
 4992 0098 53747269 		.ascii	"String\000"
 4992      6E6700
 4993 009f 00       		.space	1
 4994              	.LC10:
 4995 00a0 2B00     		.ascii	"+\000"
 4996 00a2 0000     		.space	2
 4997              	.LC11:
 4998 00a4 2A00     		.ascii	"*\000"
 4999 00a6 0000     		.space	2
 5000              	.LC12:
 5001 00a8 73697A65 		.ascii	"size\000"
 5001      00
 5002 00ad 000000   		.space	3
 5003              	.LC13:
 5004 00b0 6C656E67 		.ascii	"length\000"
 5004      746800
 5005 00b7 00       		.space	1
 5006              	.LC14:
 5007 00b8 746F5F69 		.ascii	"to_i\000"
 5007      00
 5008 00bd 000000   		.space	3
 5009              	.LC15:
 5010 00c0 746F5F73 		.ascii	"to_s\000"
 5010      00
 5011 00c5 000000   		.space	3
 5012              	.LC16:
 5013 00c8 3C3C00   		.ascii	"<<\000"
 5014 00cb 00       		.space	1
 5015              	.LC17:
 5016 00cc 5B5D00   		.ascii	"[]\000"
 5017 00cf 00       		.space	1
 5018              	.LC18:
 5019 00d0 5B5D3D00 		.ascii	"[]=\000"
 5020              	.LC19:
 5021 00d4 63686F6D 		.ascii	"chomp\000"
 5021      7000
 5022 00da 0000     		.space	2
ARM GAS  C:\Users\164\AppData\Local\Temp\cc3ssgoH.s 			page 128


 5023              	.LC20:
 5024 00dc 63686F6D 		.ascii	"chomp!\000"
 5024      702100
 5025 00e3 00       		.space	1
 5026              	.LC21:
 5027 00e4 64757000 		.ascii	"dup\000"
 5028              	.LC22:
 5029 00e8 696E6465 		.ascii	"index\000"
 5029      7800
 5030 00ee 0000     		.space	2
 5031              	.LC23:
 5032 00f0 696E7370 		.ascii	"inspect\000"
 5032      65637400 
 5033              	.LC24:
 5034 00f8 6F726400 		.ascii	"ord\000"
 5035              	.LC25:
 5036 00fc 73706C69 		.ascii	"split\000"
 5036      7400
 5037 0102 0000     		.space	2
 5038              	.LC26:
 5039 0104 6C737472 		.ascii	"lstrip\000"
 5039      697000
 5040 010b 00       		.space	1
 5041              	.LC27:
 5042 010c 6C737472 		.ascii	"lstrip!\000"
 5042      69702100 
 5043              	.LC28:
 5044 0114 72737472 		.ascii	"rstrip\000"
 5044      697000
 5045 011b 00       		.space	1
 5046              	.LC29:
 5047 011c 72737472 		.ascii	"rstrip!\000"
 5047      69702100 
 5048              	.LC30:
 5049 0124 73747269 		.ascii	"strip\000"
 5049      7000
 5050 012a 0000     		.space	2
 5051              	.LC31:
 5052 012c 73747269 		.ascii	"strip!\000"
 5052      702100
 5053 0133 00       		.space	1
 5054              	.LC32:
 5055 0134 746F5F73 		.ascii	"to_sym\000"
 5055      796D00
 5056 013b 00       		.space	1
 5057              	.LC33:
 5058 013c 696E7465 		.ascii	"intern\000"
 5058      726E00
 5059 0143 00       		.space	1
 5060              	.LC34:
 5061 0144 747200   		.ascii	"tr\000"
 5062 0147 00       		.space	1
 5063              	.LC35:
 5064 0148 74722100 		.ascii	"tr!\000"
 5065              	.LC36:
 5066 014c 73746172 		.ascii	"start_with?\000"
 5066      745F7769 
ARM GAS  C:\Users\164\AppData\Local\Temp\cc3ssgoH.s 			page 129


 5066      74683F00 
 5067              	.LC37:
 5068 0158 656E645F 		.ascii	"end_with?\000"
 5068      77697468 
 5068      3F00
 5069 0162 0000     		.space	2
 5070              	.LC38:
 5071 0164 696E636C 		.ascii	"include?\000"
 5071      7564653F 
 5071      00
 5072 016d 000000   		.space	3
 5073              	.LC39:
 5074 0170 746F5F66 		.ascii	"to_f\000"
 5074      00
 5075 0175 000000   		.space	3
 5076              	.LC40:
 5077 0178 73707269 		.ascii	"sprintf\000"
 5077      6E746600 
 5078              	.LC41:
 5079 0180 7072696E 		.ascii	"printf\000"
 5079      746600
 5080              		.text
 5081              	.Letext0:
 5082              		.file 6 "c:\\program files (x86)\\cypress\\psoc creator\\4.2\\psoc creator\\import\\gnu\\arm\\5.4.
 5083              		.file 7 "c:\\program files (x86)\\cypress\\psoc creator\\4.2\\psoc creator\\import\\gnu\\arm\\5.4.
 5084              		.file 8 "value.h"
 5085              		.file 9 "vm.h"
 5086              		.file 10 "static.h"
 5087              		.file 11 "Generated_Source\\PSoC5/core_cm3.h"
 5088              		.file 12 "alloc.h"
 5089              		.file 13 "c:\\program files (x86)\\cypress\\psoc creator\\4.2\\psoc creator\\import\\gnu\\arm\\5.4
 5090              		.file 14 "hal/hal.h"
 5091              		.file 15 "c:\\program files (x86)\\cypress\\psoc creator\\4.2\\psoc creator\\import\\gnu\\arm\\5.4
 5092              		.file 16 "class.h"
 5093              		.section	.debug_info,"",%progbits
 5094              	.Ldebug_info0:
 5095 0000 D43A0000 		.4byte	0x3ad4
 5096 0004 0400     		.2byte	0x4
 5097 0006 00000000 		.4byte	.Ldebug_abbrev0
 5098 000a 04       		.byte	0x4
 5099 000b 01       		.uleb128 0x1
 5100 000c 1B020000 		.4byte	.LASF253
 5101 0010 0C       		.byte	0xc
 5102 0011 1B050000 		.4byte	.LASF254
 5103 0015 D40B0000 		.4byte	.LASF255
 5104 0019 18000000 		.4byte	.Ldebug_ranges0+0x18
 5105 001d 00000000 		.4byte	0
 5106 0021 00000000 		.4byte	.Ldebug_line0
 5107 0025 02       		.uleb128 0x2
 5108 0026 04       		.byte	0x4
 5109 0027 07       		.byte	0x7
 5110 0028 42070000 		.4byte	.LASF0
 5111 002c 03       		.uleb128 0x3
 5112 002d 04       		.byte	0x4
 5113 002e 05       		.byte	0x5
 5114 002f 696E7400 		.ascii	"int\000"
 5115 0033 02       		.uleb128 0x2
ARM GAS  C:\Users\164\AppData\Local\Temp\cc3ssgoH.s 			page 130


 5116 0034 08       		.byte	0x8
 5117 0035 05       		.byte	0x5
 5118 0036 80060000 		.4byte	.LASF1
 5119 003a 02       		.uleb128 0x2
 5120 003b 08       		.byte	0x8
 5121 003c 04       		.byte	0x4
 5122 003d 48080000 		.4byte	.LASF2
 5123 0041 04       		.uleb128 0x4
 5124 0042 BB080000 		.4byte	.LASF4
 5125 0046 06       		.byte	0x6
 5126 0047 1B       		.byte	0x1b
 5127 0048 4C000000 		.4byte	0x4c
 5128 004c 02       		.uleb128 0x2
 5129 004d 01       		.byte	0x1
 5130 004e 06       		.byte	0x6
 5131 004f C6020000 		.4byte	.LASF3
 5132 0053 04       		.uleb128 0x4
 5133 0054 69010000 		.4byte	.LASF5
 5134 0058 06       		.byte	0x6
 5135 0059 1D       		.byte	0x1d
 5136 005a 5E000000 		.4byte	0x5e
 5137 005e 02       		.uleb128 0x2
 5138 005f 01       		.byte	0x1
 5139 0060 08       		.byte	0x8
 5140 0061 22030000 		.4byte	.LASF6
 5141 0065 04       		.uleb128 0x4
 5142 0066 7D090000 		.4byte	.LASF7
 5143 006a 06       		.byte	0x6
 5144 006b 29       		.byte	0x29
 5145 006c 70000000 		.4byte	0x70
 5146 0070 02       		.uleb128 0x2
 5147 0071 02       		.byte	0x2
 5148 0072 05       		.byte	0x5
 5149 0073 240A0000 		.4byte	.LASF8
 5150 0077 04       		.uleb128 0x4
 5151 0078 DE030000 		.4byte	.LASF9
 5152 007c 06       		.byte	0x6
 5153 007d 2B       		.byte	0x2b
 5154 007e 82000000 		.4byte	0x82
 5155 0082 02       		.uleb128 0x2
 5156 0083 02       		.byte	0x2
 5157 0084 07       		.byte	0x7
 5158 0085 B80B0000 		.4byte	.LASF10
 5159 0089 04       		.uleb128 0x4
 5160 008a 2B0C0000 		.4byte	.LASF11
 5161 008e 06       		.byte	0x6
 5162 008f 3F       		.byte	0x3f
 5163 0090 94000000 		.4byte	0x94
 5164 0094 02       		.uleb128 0x2
 5165 0095 04       		.byte	0x4
 5166 0096 05       		.byte	0x5
 5167 0097 DB010000 		.4byte	.LASF12
 5168 009b 02       		.uleb128 0x2
 5169 009c 04       		.byte	0x4
 5170 009d 07       		.byte	0x7
 5171 009e 34050000 		.4byte	.LASF13
 5172 00a2 02       		.uleb128 0x2
ARM GAS  C:\Users\164\AppData\Local\Temp\cc3ssgoH.s 			page 131


 5173 00a3 08       		.byte	0x8
 5174 00a4 07       		.byte	0x7
 5175 00a5 F1080000 		.4byte	.LASF14
 5176 00a9 02       		.uleb128 0x2
 5177 00aa 04       		.byte	0x4
 5178 00ab 07       		.byte	0x7
 5179 00ac 07000000 		.4byte	.LASF15
 5180 00b0 05       		.uleb128 0x5
 5181 00b1 04       		.byte	0x4
 5182 00b2 06       		.uleb128 0x6
 5183 00b3 04       		.byte	0x4
 5184 00b4 B8000000 		.4byte	0xb8
 5185 00b8 02       		.uleb128 0x2
 5186 00b9 01       		.byte	0x1
 5187 00ba 08       		.byte	0x8
 5188 00bb 91030000 		.4byte	.LASF16
 5189 00bf 06       		.uleb128 0x6
 5190 00c0 04       		.byte	0x4
 5191 00c1 C5000000 		.4byte	0xc5
 5192 00c5 07       		.uleb128 0x7
 5193 00c6 B8000000 		.4byte	0xb8
 5194 00ca 06       		.uleb128 0x6
 5195 00cb 04       		.byte	0x4
 5196 00cc D0000000 		.4byte	0xd0
 5197 00d0 08       		.uleb128 0x8
 5198 00d1 04       		.uleb128 0x4
 5199 00d2 00000000 		.4byte	.LASF17
 5200 00d6 07       		.byte	0x7
 5201 00d7 14       		.byte	0x14
 5202 00d8 41000000 		.4byte	0x41
 5203 00dc 04       		.uleb128 0x4
 5204 00dd D2020000 		.4byte	.LASF18
 5205 00e1 07       		.byte	0x7
 5206 00e2 18       		.byte	0x18
 5207 00e3 53000000 		.4byte	0x53
 5208 00e7 04       		.uleb128 0x4
 5209 00e8 B50A0000 		.4byte	.LASF19
 5210 00ec 07       		.byte	0x7
 5211 00ed 20       		.byte	0x20
 5212 00ee 65000000 		.4byte	0x65
 5213 00f2 04       		.uleb128 0x4
 5214 00f3 27090000 		.4byte	.LASF20
 5215 00f7 07       		.byte	0x7
 5216 00f8 24       		.byte	0x24
 5217 00f9 77000000 		.4byte	0x77
 5218 00fd 04       		.uleb128 0x4
 5219 00fe 39000000 		.4byte	.LASF21
 5220 0102 07       		.byte	0x7
 5221 0103 2C       		.byte	0x2c
 5222 0104 89000000 		.4byte	0x89
 5223 0108 04       		.uleb128 0x4
 5224 0109 17090000 		.4byte	.LASF22
 5225 010d 08       		.byte	0x8
 5226 010e 1A       		.byte	0x1a
 5227 010f FD000000 		.4byte	0xfd
 5228 0113 04       		.uleb128 0x4
 5229 0114 350C0000 		.4byte	.LASF23
ARM GAS  C:\Users\164\AppData\Local\Temp\cc3ssgoH.s 			page 132


 5230 0118 08       		.byte	0x8
 5231 0119 1B       		.byte	0x1b
 5232 011a 1E010000 		.4byte	0x11e
 5233 011e 02       		.uleb128 0x2
 5234 011f 08       		.byte	0x8
 5235 0120 04       		.byte	0x4
 5236 0121 C5060000 		.4byte	.LASF24
 5237 0125 04       		.uleb128 0x4
 5238 0126 B5000000 		.4byte	.LASF25
 5239 012a 08       		.byte	0x8
 5240 012b 1C       		.byte	0x1c
 5241 012c E7000000 		.4byte	0xe7
 5242 0130 04       		.uleb128 0x4
 5243 0131 2A0B0000 		.4byte	.LASF26
 5244 0135 08       		.byte	0x8
 5245 0136 2C       		.byte	0x2c
 5246 0137 3B010000 		.4byte	0x13b
 5247 013b 06       		.uleb128 0x6
 5248 013c 04       		.byte	0x4
 5249 013d 41010000 		.4byte	0x141
 5250 0141 09       		.uleb128 0x9
 5251 0142 56010000 		.4byte	0x156
 5252 0146 0A       		.uleb128 0xa
 5253 0147 56010000 		.4byte	0x156
 5254 014b 0A       		.uleb128 0xa
 5255 014c FE010000 		.4byte	0x1fe
 5256 0150 0A       		.uleb128 0xa
 5257 0151 2C000000 		.4byte	0x2c
 5258 0155 00       		.byte	0
 5259 0156 06       		.uleb128 0x6
 5260 0157 04       		.byte	0x4
 5261 0158 5C010000 		.4byte	0x15c
 5262 015c 0B       		.uleb128 0xb
 5263 015d 564D00   		.ascii	"VM\000"
 5264 0160 7006     		.2byte	0x670
 5265 0162 09       		.byte	0x9
 5266 0163 43       		.byte	0x43
 5267 0164 FE010000 		.4byte	0x1fe
 5268 0168 0C       		.uleb128 0xc
 5269 0169 C0050000 		.4byte	.LASF27
 5270 016d 09       		.byte	0x9
 5271 016e 44       		.byte	0x44
 5272 016f 6B060000 		.4byte	0x66b
 5273 0173 00       		.byte	0
 5274 0174 0C       		.uleb128 0xc
 5275 0175 11040000 		.4byte	.LASF28
 5276 0179 09       		.byte	0x9
 5277 017a 46       		.byte	0x46
 5278 017b DC000000 		.4byte	0xdc
 5279 017f 04       		.byte	0x4
 5280 0180 0D       		.uleb128 0xd
 5281 0181 6D726200 		.ascii	"mrb\000"
 5282 0185 09       		.byte	0x9
 5283 0186 47       		.byte	0x47
 5284 0187 88060000 		.4byte	0x688
 5285 018b 08       		.byte	0x8
 5286 018c 0C       		.uleb128 0xc
ARM GAS  C:\Users\164\AppData\Local\Temp\cc3ssgoH.s 			page 133


 5287 018d 96030000 		.4byte	.LASF29
 5288 0191 09       		.byte	0x9
 5289 0192 49       		.byte	0x49
 5290 0193 6B060000 		.4byte	0x66b
 5291 0197 0C       		.byte	0xc
 5292 0198 0D       		.uleb128 0xd
 5293 0199 706300   		.ascii	"pc\000"
 5294 019c 09       		.byte	0x9
 5295 019d 4A       		.byte	0x4a
 5296 019e F2000000 		.4byte	0xf2
 5297 01a2 10       		.byte	0x10
 5298 01a3 0C       		.uleb128 0xc
 5299 01a4 87090000 		.4byte	.LASF30
 5300 01a8 09       		.byte	0x9
 5301 01a9 4D       		.byte	0x4d
 5302 01aa 93060000 		.4byte	0x693
 5303 01ae 18       		.byte	0x18
 5304 01af 0E       		.uleb128 0xe
 5305 01b0 73060000 		.4byte	.LASF31
 5306 01b4 09       		.byte	0x9
 5307 01b5 4E       		.byte	0x4e
 5308 01b6 71060000 		.4byte	0x671
 5309 01ba 5806     		.2byte	0x658
 5310 01bc 0E       		.uleb128 0xe
 5311 01bd 6A0C0000 		.4byte	.LASF32
 5312 01c1 09       		.byte	0x9
 5313 01c2 4F       		.byte	0x4f
 5314 01c3 A3060000 		.4byte	0x6a3
 5315 01c7 5C06     		.2byte	0x65c
 5316 01c9 0E       		.uleb128 0xe
 5317 01ca 180C0000 		.4byte	.LASF33
 5318 01ce 09       		.byte	0x9
 5319 01cf 51       		.byte	0x51
 5320 01d0 77060000 		.4byte	0x677
 5321 01d4 6006     		.2byte	0x660
 5322 01d6 0E       		.uleb128 0xe
 5323 01d7 72090000 		.4byte	.LASF34
 5324 01db 09       		.byte	0x9
 5325 01dc 53       		.byte	0x53
 5326 01dd FD000000 		.4byte	0xfd
 5327 01e1 6406     		.2byte	0x664
 5328 01e3 0E       		.uleb128 0xe
 5329 01e4 D2070000 		.4byte	.LASF35
 5330 01e8 09       		.byte	0x9
 5331 01e9 55       		.byte	0x55
 5332 01ea A9060000 		.4byte	0x6a9
 5333 01ee 6806     		.2byte	0x668
 5334 01f0 0E       		.uleb128 0xe
 5335 01f1 60090000 		.4byte	.LASF36
 5336 01f5 09       		.byte	0x9
 5337 01f6 56       		.byte	0x56
 5338 01f7 D1000000 		.4byte	0xd1
 5339 01fb 6906     		.2byte	0x669
 5340 01fd 00       		.byte	0
 5341 01fe 06       		.uleb128 0x6
 5342 01ff 04       		.byte	0x4
 5343 0200 04020000 		.4byte	0x204
ARM GAS  C:\Users\164\AppData\Local\Temp\cc3ssgoH.s 			page 134


 5344 0204 0F       		.uleb128 0xf
 5345 0205 1A030000 		.4byte	.LASF37
 5346 0209 10       		.byte	0x10
 5347 020a 08       		.byte	0x8
 5348 020b 68       		.byte	0x68
 5349 020c 25020000 		.4byte	0x225
 5350 0210 10       		.uleb128 0x10
 5351 0211 747400   		.ascii	"tt\000"
 5352 0214 08       		.byte	0x8
 5353 0215 69       		.byte	0x69
 5354 0216 8C020000 		.4byte	0x28c
 5355 021a 01       		.byte	0x1
 5356 021b 08       		.byte	0x8
 5357 021c 00       		.byte	0
 5358 021d 00       		.byte	0
 5359 021e 11       		.uleb128 0x11
 5360 021f FE020000 		.4byte	0x2fe
 5361 0223 08       		.byte	0x8
 5362 0224 00       		.byte	0
 5363 0225 12       		.uleb128 0x12
 5364 0226 01       		.byte	0x1
 5365 0227 4C000000 		.4byte	0x4c
 5366 022b 08       		.byte	0x8
 5367 022c 33       		.byte	0x33
 5368 022d 8C020000 		.4byte	0x28c
 5369 0231 13       		.uleb128 0x13
 5370 0232 3A060000 		.4byte	.LASF38
 5371 0236 7F       		.sleb128 -1
 5372 0237 14       		.uleb128 0x14
 5373 0238 4F0C0000 		.4byte	.LASF39
 5374 023c 00       		.byte	0
 5375 023d 14       		.uleb128 0x14
 5376 023e 7D0A0000 		.4byte	.LASF40
 5377 0242 01       		.byte	0x1
 5378 0243 14       		.uleb128 0x14
 5379 0244 26050000 		.4byte	.LASF41
 5380 0248 02       		.byte	0x2
 5381 0249 14       		.uleb128 0x14
 5382 024a DF080000 		.4byte	.LASF42
 5383 024e 03       		.byte	0x3
 5384 024f 14       		.uleb128 0x14
 5385 0250 7F000000 		.4byte	.LASF43
 5386 0254 04       		.byte	0x4
 5387 0255 14       		.uleb128 0x14
 5388 0256 930C0000 		.4byte	.LASF44
 5389 025a 05       		.byte	0x5
 5390 025b 14       		.uleb128 0x14
 5391 025c 15000000 		.4byte	.LASF45
 5392 0260 06       		.byte	0x6
 5393 0261 14       		.uleb128 0x14
 5394 0262 86010000 		.4byte	.LASF46
 5395 0266 07       		.byte	0x7
 5396 0267 14       		.uleb128 0x14
 5397 0268 0C020000 		.4byte	.LASF47
 5398 026c 14       		.byte	0x14
 5399 026d 14       		.uleb128 0x14
 5400 026e 1A060000 		.4byte	.LASF48
ARM GAS  C:\Users\164\AppData\Local\Temp\cc3ssgoH.s 			page 135


 5401 0272 15       		.byte	0x15
 5402 0273 14       		.uleb128 0x14
 5403 0274 0D050000 		.4byte	.LASF49
 5404 0278 16       		.byte	0x16
 5405 0279 14       		.uleb128 0x14
 5406 027a 08090000 		.4byte	.LASF50
 5407 027e 17       		.byte	0x17
 5408 027f 14       		.uleb128 0x14
 5409 0280 4F070000 		.4byte	.LASF51
 5410 0284 18       		.byte	0x18
 5411 0285 14       		.uleb128 0x14
 5412 0286 94010000 		.4byte	.LASF52
 5413 028a 19       		.byte	0x19
 5414 028b 00       		.byte	0
 5415 028c 04       		.uleb128 0x4
 5416 028d 71040000 		.4byte	.LASF53
 5417 0291 08       		.byte	0x8
 5418 0292 49       		.byte	0x49
 5419 0293 25020000 		.4byte	0x225
 5420 0297 12       		.uleb128 0x12
 5421 0298 01       		.byte	0x1
 5422 0299 5E000000 		.4byte	0x5e
 5423 029d 08       		.byte	0x8
 5424 029e 50       		.byte	0x50
 5425 029f FE020000 		.4byte	0x2fe
 5426 02a3 14       		.uleb128 0x14
 5427 02a4 C4080000 		.4byte	.LASF54
 5428 02a8 01       		.byte	0x1
 5429 02a9 14       		.uleb128 0x14
 5430 02aa A1010000 		.4byte	.LASF55
 5431 02ae 02       		.byte	0x2
 5432 02af 14       		.uleb128 0x14
 5433 02b0 B0060000 		.4byte	.LASF56
 5434 02b4 03       		.byte	0x3
 5435 02b5 14       		.uleb128 0x14
 5436 02b6 720B0000 		.4byte	.LASF57
 5437 02ba 04       		.byte	0x4
 5438 02bb 14       		.uleb128 0x14
 5439 02bc 73010000 		.4byte	.LASF58
 5440 02c0 05       		.byte	0x5
 5441 02c1 14       		.uleb128 0x14
 5442 02c2 080A0000 		.4byte	.LASF59
 5443 02c6 06       		.byte	0x6
 5444 02c7 14       		.uleb128 0x14
 5445 02c8 B0040000 		.4byte	.LASF60
 5446 02cc 07       		.byte	0x7
 5447 02cd 14       		.uleb128 0x14
 5448 02ce 9E030000 		.4byte	.LASF61
 5449 02d2 08       		.byte	0x8
 5450 02d3 14       		.uleb128 0x14
 5451 02d4 04080000 		.4byte	.LASF62
 5452 02d8 09       		.byte	0x9
 5453 02d9 14       		.uleb128 0x14
 5454 02da A90B0000 		.4byte	.LASF63
 5455 02de 0A       		.byte	0xa
 5456 02df 14       		.uleb128 0x14
 5457 02e0 B7090000 		.4byte	.LASF64
ARM GAS  C:\Users\164\AppData\Local\Temp\cc3ssgoH.s 			page 136


 5458 02e4 0B       		.byte	0xb
 5459 02e5 14       		.uleb128 0x14
 5460 02e6 F9090000 		.4byte	.LASF65
 5461 02ea 0C       		.byte	0xc
 5462 02eb 14       		.uleb128 0x14
 5463 02ec 5F000000 		.4byte	.LASF66
 5464 02f0 0D       		.byte	0xd
 5465 02f1 14       		.uleb128 0x14
 5466 02f2 10070000 		.4byte	.LASF67
 5467 02f6 0E       		.byte	0xe
 5468 02f7 14       		.uleb128 0x14
 5469 02f8 C1010000 		.4byte	.LASF68
 5470 02fc 0F       		.byte	0xf
 5471 02fd 00       		.byte	0
 5472 02fe 15       		.uleb128 0x15
 5473 02ff 08       		.byte	0x8
 5474 0300 08       		.byte	0x8
 5475 0301 6A       		.byte	0x6a
 5476 0302 7C030000 		.4byte	0x37c
 5477 0306 16       		.uleb128 0x16
 5478 0307 6900     		.ascii	"i\000"
 5479 0309 08       		.byte	0x8
 5480 030a 6B       		.byte	0x6b
 5481 030b 08010000 		.4byte	0x108
 5482 030f 16       		.uleb128 0x16
 5483 0310 6400     		.ascii	"d\000"
 5484 0312 08       		.byte	0x8
 5485 0313 6D       		.byte	0x6d
 5486 0314 13010000 		.4byte	0x113
 5487 0318 16       		.uleb128 0x16
 5488 0319 636C7300 		.ascii	"cls\000"
 5489 031d 08       		.byte	0x8
 5490 031e 6F       		.byte	0x6f
 5491 031f AD030000 		.4byte	0x3ad
 5492 0323 17       		.uleb128 0x17
 5493 0324 90080000 		.4byte	.LASF69
 5494 0328 08       		.byte	0x8
 5495 0329 70       		.byte	0x70
 5496 032a FE010000 		.4byte	0x1fe
 5497 032e 17       		.uleb128 0x17
 5498 032f 76000000 		.4byte	.LASF70
 5499 0333 08       		.byte	0x8
 5500 0334 71       		.byte	0x71
 5501 0335 FE030000 		.4byte	0x3fe
 5502 0339 17       		.uleb128 0x17
 5503 033a 0C040000 		.4byte	.LASF71
 5504 033e 08       		.byte	0x8
 5505 033f 72       		.byte	0x72
 5506 0340 58040000 		.4byte	0x458
 5507 0344 17       		.uleb128 0x17
 5508 0345 7C040000 		.4byte	.LASF72
 5509 0349 08       		.byte	0x8
 5510 034a 73       		.byte	0x73
 5511 034b A9040000 		.4byte	0x4a9
 5512 034f 17       		.uleb128 0x17
 5513 0350 3B070000 		.4byte	.LASF73
 5514 0354 08       		.byte	0x8
ARM GAS  C:\Users\164\AppData\Local\Temp\cc3ssgoH.s 			page 137


 5515 0355 74       		.byte	0x74
 5516 0356 EE040000 		.4byte	0x4ee
 5517 035a 16       		.uleb128 0x16
 5518 035b 73747200 		.ascii	"str\000"
 5519 035f 08       		.byte	0x8
 5520 0360 75       		.byte	0x75
 5521 0361 BF000000 		.4byte	0xbf
 5522 0365 17       		.uleb128 0x17
 5523 0366 5C0A0000 		.4byte	.LASF74
 5524 036a 08       		.byte	0x8
 5525 036b 76       		.byte	0x76
 5526 036c F9040000 		.4byte	0x4f9
 5527 0370 17       		.uleb128 0x17
 5528 0371 4A0C0000 		.4byte	.LASF75
 5529 0375 08       		.byte	0x8
 5530 0376 77       		.byte	0x77
 5531 0377 04050000 		.4byte	0x504
 5532 037b 00       		.byte	0
 5533 037c 0F       		.uleb128 0xf
 5534 037d 5B010000 		.4byte	.LASF76
 5535 0381 0C       		.byte	0xc
 5536 0382 08       		.byte	0x8
 5537 0383 84       		.byte	0x84
 5538 0384 AD030000 		.4byte	0x3ad
 5539 0388 0C       		.uleb128 0xc
 5540 0389 D1000000 		.4byte	.LASF77
 5541 038d 08       		.byte	0x8
 5542 038e 85       		.byte	0x85
 5543 038f 25010000 		.4byte	0x125
 5544 0393 00       		.byte	0
 5545 0394 0C       		.uleb128 0xc
 5546 0395 4B010000 		.4byte	.LASF78
 5547 0399 08       		.byte	0x8
 5548 039a 89       		.byte	0x89
 5549 039b AD030000 		.4byte	0x3ad
 5550 039f 04       		.byte	0x4
 5551 03a0 0C       		.uleb128 0xc
 5552 03a1 34060000 		.4byte	.LASF79
 5553 03a5 08       		.byte	0x8
 5554 03a6 8A       		.byte	0x8a
 5555 03a7 58040000 		.4byte	0x458
 5556 03ab 08       		.byte	0x8
 5557 03ac 00       		.byte	0
 5558 03ad 06       		.uleb128 0x6
 5559 03ae 04       		.byte	0x4
 5560 03af 7C030000 		.4byte	0x37c
 5561 03b3 0F       		.uleb128 0xf
 5562 03b4 06070000 		.4byte	.LASF80
 5563 03b8 0C       		.byte	0xc
 5564 03b9 08       		.byte	0x8
 5565 03ba 93       		.byte	0x93
 5566 03bb FE030000 		.4byte	0x3fe
 5567 03bf 0C       		.uleb128 0xc
 5568 03c0 30030000 		.4byte	.LASF81
 5569 03c4 08       		.byte	0x8
 5570 03c5 94       		.byte	0x94
 5571 03c6 F2000000 		.4byte	0xf2
ARM GAS  C:\Users\164\AppData\Local\Temp\cc3ssgoH.s 			page 138


 5572 03ca 00       		.byte	0
 5573 03cb 10       		.uleb128 0x10
 5574 03cc 747400   		.ascii	"tt\000"
 5575 03cf 08       		.byte	0x8
 5576 03d0 94       		.byte	0x94
 5577 03d1 8C020000 		.4byte	0x28c
 5578 03d5 01       		.byte	0x1
 5579 03d6 08       		.byte	0x8
 5580 03d7 00       		.byte	0
 5581 03d8 02       		.byte	0x2
 5582 03d9 0D       		.uleb128 0xd
 5583 03da 636C7300 		.ascii	"cls\000"
 5584 03de 08       		.byte	0x8
 5585 03df 96       		.byte	0x96
 5586 03e0 AD030000 		.4byte	0x3ad
 5587 03e4 04       		.byte	0x4
 5588 03e5 0C       		.uleb128 0xc
 5589 03e6 56010000 		.4byte	.LASF82
 5590 03ea 08       		.byte	0x8
 5591 03eb 97       		.byte	0x97
 5592 03ec 3B050000 		.4byte	0x53b
 5593 03f0 08       		.byte	0x8
 5594 03f1 0C       		.uleb128 0xc
 5595 03f2 A9020000 		.4byte	.LASF83
 5596 03f6 08       		.byte	0x8
 5597 03f7 98       		.byte	0x98
 5598 03f8 41050000 		.4byte	0x541
 5599 03fc 0C       		.byte	0xc
 5600 03fd 00       		.byte	0
 5601 03fe 06       		.uleb128 0x6
 5602 03ff 04       		.byte	0x4
 5603 0400 B3030000 		.4byte	0x3b3
 5604 0404 0F       		.uleb128 0xf
 5605 0405 250C0000 		.4byte	.LASF84
 5606 0409 10       		.byte	0x10
 5607 040a 08       		.byte	0x8
 5608 040b A1       		.byte	0xa1
 5609 040c 58040000 		.4byte	0x458
 5610 0410 0C       		.uleb128 0xc
 5611 0411 30030000 		.4byte	.LASF81
 5612 0415 08       		.byte	0x8
 5613 0416 A2       		.byte	0xa2
 5614 0417 F2000000 		.4byte	0xf2
 5615 041b 00       		.byte	0
 5616 041c 10       		.uleb128 0x10
 5617 041d 747400   		.ascii	"tt\000"
 5618 0420 08       		.byte	0x8
 5619 0421 A2       		.byte	0xa2
 5620 0422 8C020000 		.4byte	0x28c
 5621 0426 01       		.byte	0x1
 5622 0427 08       		.byte	0x8
 5623 0428 00       		.byte	0
 5624 0429 02       		.byte	0x2
 5625 042a 18       		.uleb128 0x18
 5626 042b 20090000 		.4byte	.LASF85
 5627 042f 08       		.byte	0x8
 5628 0430 A4       		.byte	0xa4
ARM GAS  C:\Users\164\AppData\Local\Temp\cc3ssgoH.s 			page 139


 5629 0431 25000000 		.4byte	0x25
 5630 0435 04       		.byte	0x4
 5631 0436 01       		.byte	0x1
 5632 0437 07       		.byte	0x7
 5633 0438 00       		.byte	0
 5634 0439 0C       		.uleb128 0xc
 5635 043a D1000000 		.4byte	.LASF77
 5636 043e 08       		.byte	0x8
 5637 043f A5       		.byte	0xa5
 5638 0440 25010000 		.4byte	0x125
 5639 0444 04       		.byte	0x4
 5640 0445 0C       		.uleb128 0xc
 5641 0446 650C0000 		.4byte	.LASF86
 5642 044a 08       		.byte	0x8
 5643 044b A9       		.byte	0xa9
 5644 044c 58040000 		.4byte	0x458
 5645 0450 08       		.byte	0x8
 5646 0451 11       		.uleb128 0x11
 5647 0452 50050000 		.4byte	0x550
 5648 0456 0C       		.byte	0xc
 5649 0457 00       		.byte	0
 5650 0458 06       		.uleb128 0x6
 5651 0459 04       		.byte	0x4
 5652 045a 04040000 		.4byte	0x404
 5653 045e 0F       		.uleb128 0xf
 5654 045f 05040000 		.4byte	.LASF87
 5655 0463 0C       		.byte	0xc
 5656 0464 05       		.byte	0x5
 5657 0465 1B       		.byte	0x1b
 5658 0466 A9040000 		.4byte	0x4a9
 5659 046a 0C       		.uleb128 0xc
 5660 046b 30030000 		.4byte	.LASF81
 5661 046f 05       		.byte	0x5
 5662 0470 1C       		.byte	0x1c
 5663 0471 F2000000 		.4byte	0xf2
 5664 0475 00       		.byte	0
 5665 0476 10       		.uleb128 0x10
 5666 0477 747400   		.ascii	"tt\000"
 5667 047a 05       		.byte	0x5
 5668 047b 1C       		.byte	0x1c
 5669 047c 8C020000 		.4byte	0x28c
 5670 0480 01       		.byte	0x1
 5671 0481 08       		.byte	0x8
 5672 0482 00       		.byte	0
 5673 0483 02       		.byte	0x2
 5674 0484 0C       		.uleb128 0xc
 5675 0485 DA050000 		.4byte	.LASF88
 5676 0489 05       		.byte	0x5
 5677 048a 1E       		.byte	0x1e
 5678 048b F2000000 		.4byte	0xf2
 5679 048f 04       		.byte	0x4
 5680 0490 0C       		.uleb128 0xc
 5681 0491 93050000 		.4byte	.LASF89
 5682 0495 05       		.byte	0x5
 5683 0496 1F       		.byte	0x1f
 5684 0497 F2000000 		.4byte	0xf2
 5685 049b 06       		.byte	0x6
ARM GAS  C:\Users\164\AppData\Local\Temp\cc3ssgoH.s 			page 140


 5686 049c 0C       		.uleb128 0xc
 5687 049d A9020000 		.4byte	.LASF83
 5688 04a1 05       		.byte	0x5
 5689 04a2 20       		.byte	0x20
 5690 04a3 71060000 		.4byte	0x671
 5691 04a7 08       		.byte	0x8
 5692 04a8 00       		.byte	0
 5693 04a9 06       		.uleb128 0x6
 5694 04aa 04       		.byte	0x4
 5695 04ab 5E040000 		.4byte	0x45e
 5696 04af 0F       		.uleb128 0xf
 5697 04b0 8B050000 		.4byte	.LASF90
 5698 04b4 0C       		.byte	0xc
 5699 04b5 02       		.byte	0x2
 5700 04b6 1D       		.byte	0x1d
 5701 04b7 EE040000 		.4byte	0x4ee
 5702 04bb 0C       		.uleb128 0xc
 5703 04bc 30030000 		.4byte	.LASF81
 5704 04c0 02       		.byte	0x2
 5705 04c1 1E       		.byte	0x1e
 5706 04c2 F2000000 		.4byte	0xf2
 5707 04c6 00       		.byte	0
 5708 04c7 10       		.uleb128 0x10
 5709 04c8 747400   		.ascii	"tt\000"
 5710 04cb 02       		.byte	0x2
 5711 04cc 1E       		.byte	0x1e
 5712 04cd 8C020000 		.4byte	0x28c
 5713 04d1 01       		.byte	0x1
 5714 04d2 08       		.byte	0x8
 5715 04d3 00       		.byte	0
 5716 04d4 02       		.byte	0x2
 5717 04d5 0C       		.uleb128 0xc
 5718 04d6 EC080000 		.4byte	.LASF91
 5719 04da 02       		.byte	0x2
 5720 04db 20       		.byte	0x20
 5721 04dc F2000000 		.4byte	0xf2
 5722 04e0 04       		.byte	0x4
 5723 04e1 0C       		.uleb128 0xc
 5724 04e2 A9020000 		.4byte	.LASF83
 5725 04e6 02       		.byte	0x2
 5726 04e7 21       		.byte	0x21
 5727 04e8 EE050000 		.4byte	0x5ee
 5728 04ec 08       		.byte	0x8
 5729 04ed 00       		.byte	0
 5730 04ee 06       		.uleb128 0x6
 5731 04ef 04       		.byte	0x4
 5732 04f0 AF040000 		.4byte	0x4af
 5733 04f4 19       		.uleb128 0x19
 5734 04f5 E4050000 		.4byte	.LASF92
 5735 04f9 06       		.uleb128 0x6
 5736 04fa 04       		.byte	0x4
 5737 04fb F4040000 		.4byte	0x4f4
 5738 04ff 19       		.uleb128 0x19
 5739 0500 CC070000 		.4byte	.LASF93
 5740 0504 06       		.uleb128 0x6
 5741 0505 04       		.byte	0x4
 5742 0506 FF040000 		.4byte	0x4ff
ARM GAS  C:\Users\164\AppData\Local\Temp\cc3ssgoH.s 			page 141


 5743 050a 04       		.uleb128 0x4
 5744 050b 890B0000 		.4byte	.LASF94
 5745 050f 08       		.byte	0x8
 5746 0510 7B       		.byte	0x7b
 5747 0511 04020000 		.4byte	0x204
 5748 0515 04       		.uleb128 0x4
 5749 0516 C90A0000 		.4byte	.LASF95
 5750 051a 08       		.byte	0x8
 5751 051b 7C       		.byte	0x7c
 5752 051c 04020000 		.4byte	0x204
 5753 0520 04       		.uleb128 0x4
 5754 0521 E9030000 		.4byte	.LASF96
 5755 0525 08       		.byte	0x8
 5756 0526 7D       		.byte	0x7d
 5757 0527 04020000 		.4byte	0x204
 5758 052b 04       		.uleb128 0x4
 5759 052c AE020000 		.4byte	.LASF97
 5760 0530 08       		.byte	0x8
 5761 0531 8B       		.byte	0x8b
 5762 0532 7C030000 		.4byte	0x37c
 5763 0536 19       		.uleb128 0x19
 5764 0537 EE000000 		.4byte	.LASF98
 5765 053b 06       		.uleb128 0x6
 5766 053c 04       		.byte	0x4
 5767 053d 36050000 		.4byte	0x536
 5768 0541 1A       		.uleb128 0x1a
 5769 0542 DC000000 		.4byte	0xdc
 5770 0546 50050000 		.4byte	0x550
 5771 054a 1B       		.uleb128 0x1b
 5772 054b A9000000 		.4byte	0xa9
 5773 054f 00       		.byte	0
 5774 0550 15       		.uleb128 0x15
 5775 0551 04       		.byte	0x4
 5776 0552 08       		.byte	0x8
 5777 0553 AA       		.byte	0xaa
 5778 0554 6F050000 		.4byte	0x56f
 5779 0558 17       		.uleb128 0x17
 5780 0559 C0050000 		.4byte	.LASF27
 5781 055d 08       		.byte	0x8
 5782 055e AB       		.byte	0xab
 5783 055f E8050000 		.4byte	0x5e8
 5784 0563 17       		.uleb128 0x17
 5785 0564 570A0000 		.4byte	.LASF99
 5786 0568 08       		.byte	0x8
 5787 0569 AC       		.byte	0xac
 5788 056a 30010000 		.4byte	0x130
 5789 056e 00       		.byte	0
 5790 056f 0F       		.uleb128 0xf
 5791 0570 96090000 		.4byte	.LASF100
 5792 0574 1C       		.byte	0x1c
 5793 0575 09       		.byte	0x9
 5794 0576 20       		.byte	0x20
 5795 0577 E8050000 		.4byte	0x5e8
 5796 057b 0C       		.uleb128 0xc
 5797 057c 5D0C0000 		.4byte	.LASF101
 5798 0580 09       		.byte	0x9
 5799 0581 21       		.byte	0x21
ARM GAS  C:\Users\164\AppData\Local\Temp\cc3ssgoH.s 			page 142


 5800 0582 F2000000 		.4byte	0xf2
 5801 0586 00       		.byte	0
 5802 0587 0C       		.uleb128 0xc
 5803 0588 830B0000 		.4byte	.LASF102
 5804 058c 09       		.byte	0x9
 5805 058d 22       		.byte	0x22
 5806 058e F2000000 		.4byte	0xf2
 5807 0592 02       		.byte	0x2
 5808 0593 0C       		.uleb128 0xc
 5809 0594 17010000 		.4byte	.LASF103
 5810 0598 09       		.byte	0x9
 5811 0599 23       		.byte	0x23
 5812 059a F2000000 		.4byte	0xf2
 5813 059e 04       		.byte	0x4
 5814 059f 0C       		.uleb128 0xc
 5815 05a0 C5050000 		.4byte	.LASF104
 5816 05a4 09       		.byte	0x9
 5817 05a5 24       		.byte	0x24
 5818 05a6 F2000000 		.4byte	0xf2
 5819 05aa 06       		.byte	0x6
 5820 05ab 0C       		.uleb128 0xc
 5821 05ac AD090000 		.4byte	.LASF105
 5822 05b0 09       		.byte	0x9
 5823 05b1 25       		.byte	0x25
 5824 05b2 F2000000 		.4byte	0xf2
 5825 05b6 08       		.byte	0x8
 5826 05b7 0C       		.uleb128 0xc
 5827 05b8 B2090000 		.4byte	.LASF106
 5828 05bc 09       		.byte	0x9
 5829 05bd 27       		.byte	0x27
 5830 05be EE050000 		.4byte	0x5ee
 5831 05c2 0C       		.byte	0xc
 5832 05c3 0C       		.uleb128 0xc
 5833 05c4 5D030000 		.4byte	.LASF107
 5834 05c8 09       		.byte	0x9
 5835 05c9 28       		.byte	0x28
 5836 05ca F4050000 		.4byte	0x5f4
 5837 05ce 10       		.byte	0x10
 5838 05cf 0C       		.uleb128 0xc
 5839 05d0 27040000 		.4byte	.LASF108
 5840 05d4 09       		.byte	0x9
 5841 05d5 29       		.byte	0x29
 5842 05d6 EE050000 		.4byte	0x5ee
 5843 05da 14       		.byte	0x14
 5844 05db 0C       		.uleb128 0xc
 5845 05dc 9D000000 		.4byte	.LASF109
 5846 05e0 09       		.byte	0x9
 5847 05e1 2A       		.byte	0x2a
 5848 05e2 00060000 		.4byte	0x600
 5849 05e6 18       		.byte	0x18
 5850 05e7 00       		.byte	0
 5851 05e8 06       		.uleb128 0x6
 5852 05e9 04       		.byte	0x4
 5853 05ea 6F050000 		.4byte	0x56f
 5854 05ee 06       		.uleb128 0x6
 5855 05ef 04       		.byte	0x4
 5856 05f0 DC000000 		.4byte	0xdc
ARM GAS  C:\Users\164\AppData\Local\Temp\cc3ssgoH.s 			page 143


 5857 05f4 06       		.uleb128 0x6
 5858 05f5 04       		.byte	0x4
 5859 05f6 FA050000 		.4byte	0x5fa
 5860 05fa 06       		.uleb128 0x6
 5861 05fb 04       		.byte	0x4
 5862 05fc 15050000 		.4byte	0x515
 5863 0600 06       		.uleb128 0x6
 5864 0601 04       		.byte	0x4
 5865 0602 E8050000 		.4byte	0x5e8
 5866 0606 04       		.uleb128 0x4
 5867 0607 B30C0000 		.4byte	.LASF110
 5868 060b 09       		.byte	0x9
 5869 060c 2C       		.byte	0x2c
 5870 060d 6F050000 		.4byte	0x56f
 5871 0611 0F       		.uleb128 0xf
 5872 0612 160A0000 		.4byte	.LASF111
 5873 0616 18       		.byte	0x18
 5874 0617 09       		.byte	0x9
 5875 0618 34       		.byte	0x34
 5876 0619 65060000 		.4byte	0x665
 5877 061d 0C       		.uleb128 0xc
 5878 061e 8E0C0000 		.4byte	.LASF112
 5879 0622 09       		.byte	0x9
 5880 0623 35       		.byte	0x35
 5881 0624 65060000 		.4byte	0x665
 5882 0628 00       		.byte	0
 5883 0629 0C       		.uleb128 0xc
 5884 062a 96030000 		.4byte	.LASF29
 5885 062e 09       		.byte	0x9
 5886 062f 36       		.byte	0x36
 5887 0630 6B060000 		.4byte	0x66b
 5888 0634 04       		.byte	0x4
 5889 0635 0D       		.uleb128 0xd
 5890 0636 706300   		.ascii	"pc\000"
 5891 0639 09       		.byte	0x9
 5892 063a 37       		.byte	0x37
 5893 063b F2000000 		.4byte	0xf2
 5894 063f 08       		.byte	0x8
 5895 0640 0C       		.uleb128 0xc
 5896 0641 73060000 		.4byte	.LASF31
 5897 0645 09       		.byte	0x9
 5898 0646 38       		.byte	0x38
 5899 0647 71060000 		.4byte	0x671
 5900 064b 0C       		.byte	0xc
 5901 064c 0C       		.uleb128 0xc
 5902 064d 180C0000 		.4byte	.LASF33
 5903 0651 09       		.byte	0x9
 5904 0652 39       		.byte	0x39
 5905 0653 77060000 		.4byte	0x677
 5906 0657 10       		.byte	0x10
 5907 0658 0C       		.uleb128 0xc
 5908 0659 FE000000 		.4byte	.LASF113
 5909 065d 09       		.byte	0x9
 5910 065e 3A       		.byte	0x3a
 5911 065f DC000000 		.4byte	0xdc
 5912 0663 14       		.byte	0x14
 5913 0664 00       		.byte	0
ARM GAS  C:\Users\164\AppData\Local\Temp\cc3ssgoH.s 			page 144


 5914 0665 06       		.uleb128 0x6
 5915 0666 04       		.byte	0x4
 5916 0667 11060000 		.4byte	0x611
 5917 066b 06       		.uleb128 0x6
 5918 066c 04       		.byte	0x4
 5919 066d 06060000 		.4byte	0x606
 5920 0671 06       		.uleb128 0x6
 5921 0672 04       		.byte	0x4
 5922 0673 20050000 		.4byte	0x520
 5923 0677 06       		.uleb128 0x6
 5924 0678 04       		.byte	0x4
 5925 0679 2B050000 		.4byte	0x52b
 5926 067d 04       		.uleb128 0x4
 5927 067e 88040000 		.4byte	.LASF114
 5928 0682 09       		.byte	0x9
 5929 0683 3B       		.byte	0x3b
 5930 0684 11060000 		.4byte	0x611
 5931 0688 06       		.uleb128 0x6
 5932 0689 04       		.byte	0x4
 5933 068a 8E060000 		.4byte	0x68e
 5934 068e 07       		.uleb128 0x7
 5935 068f DC000000 		.4byte	0xdc
 5936 0693 1A       		.uleb128 0x1a
 5937 0694 20050000 		.4byte	0x520
 5938 0698 A3060000 		.4byte	0x6a3
 5939 069c 1C       		.uleb128 0x1c
 5940 069d A9000000 		.4byte	0xa9
 5941 06a1 63       		.byte	0x63
 5942 06a2 00       		.byte	0
 5943 06a3 06       		.uleb128 0x6
 5944 06a4 04       		.byte	0x4
 5945 06a5 7D060000 		.4byte	0x67d
 5946 06a9 1D       		.uleb128 0x1d
 5947 06aa D1000000 		.4byte	0xd1
 5948 06ae 04       		.uleb128 0x4
 5949 06af 53000000 		.4byte	.LASF115
 5950 06b3 02       		.byte	0x2
 5951 06b4 23       		.byte	0x23
 5952 06b5 AF040000 		.4byte	0x4af
 5953 06b9 02       		.uleb128 0x2
 5954 06ba 04       		.byte	0x4
 5955 06bb 04       		.byte	0x4
 5956 06bc 24070000 		.4byte	.LASF116
 5957 06c0 0F       		.uleb128 0xf
 5958 06c1 E0000000 		.4byte	.LASF117
 5959 06c5 0C       		.byte	0xc
 5960 06c6 03       		.byte	0x3
 5961 06c7 24       		.byte	0x24
 5962 06c8 2D070000 		.4byte	0x72d
 5963 06cc 0C       		.uleb128 0xc
 5964 06cd 38080000 		.4byte	.LASF118
 5965 06d1 03       		.byte	0x3
 5966 06d2 25       		.byte	0x25
 5967 06d3 B8000000 		.4byte	0xb8
 5968 06d7 00       		.byte	0
 5969 06d8 18       		.uleb128 0x18
 5970 06d9 FE020000 		.4byte	.LASF119
ARM GAS  C:\Users\164\AppData\Local\Temp\cc3ssgoH.s 			page 145


 5971 06dd 03       		.byte	0x3
 5972 06de 26       		.byte	0x26
 5973 06df 25000000 		.4byte	0x25
 5974 06e3 04       		.byte	0x4
 5975 06e4 01       		.byte	0x1
 5976 06e5 17       		.byte	0x17
 5977 06e6 00       		.byte	0
 5978 06e7 18       		.uleb128 0x18
 5979 06e8 3D080000 		.4byte	.LASF120
 5980 06ec 03       		.byte	0x3
 5981 06ed 27       		.byte	0x27
 5982 06ee 25000000 		.4byte	0x25
 5983 06f2 04       		.byte	0x4
 5984 06f3 01       		.byte	0x1
 5985 06f4 16       		.byte	0x16
 5986 06f5 00       		.byte	0
 5987 06f6 18       		.uleb128 0x18
 5988 06f7 24000000 		.4byte	.LASF121
 5989 06fb 03       		.byte	0x3
 5990 06fc 28       		.byte	0x28
 5991 06fd 25000000 		.4byte	0x25
 5992 0701 04       		.byte	0x4
 5993 0702 01       		.byte	0x1
 5994 0703 15       		.byte	0x15
 5995 0704 00       		.byte	0
 5996 0705 18       		.uleb128 0x18
 5997 0706 8C090000 		.4byte	.LASF122
 5998 070a 03       		.byte	0x3
 5999 070b 29       		.byte	0x29
 6000 070c 25000000 		.4byte	0x25
 6001 0710 04       		.byte	0x4
 6002 0711 01       		.byte	0x1
 6003 0712 14       		.byte	0x14
 6004 0713 00       		.byte	0
 6005 0714 0C       		.uleb128 0xc
 6006 0715 8E060000 		.4byte	.LASF123
 6007 0719 03       		.byte	0x3
 6008 071a 2A       		.byte	0x2a
 6009 071b 2C000000 		.4byte	0x2c
 6010 071f 04       		.byte	0x4
 6011 0720 0C       		.uleb128 0xc
 6012 0721 21010000 		.4byte	.LASF124
 6013 0725 03       		.byte	0x3
 6014 0726 2B       		.byte	0x2b
 6015 0727 2C000000 		.4byte	0x2c
 6016 072b 08       		.byte	0x8
 6017 072c 00       		.byte	0
 6018 072d 0F       		.uleb128 0xf
 6019 072e 780C0000 		.4byte	.LASF125
 6020 0732 1C       		.byte	0x1c
 6021 0733 03       		.byte	0x3
 6022 0734 1E       		.byte	0x1e
 6023 0735 74070000 		.4byte	0x774
 6024 0739 0D       		.uleb128 0xd
 6025 073a 62756600 		.ascii	"buf\000"
 6026 073e 03       		.byte	0x3
 6027 073f 1F       		.byte	0x1f
ARM GAS  C:\Users\164\AppData\Local\Temp\cc3ssgoH.s 			page 146


 6028 0740 B2000000 		.4byte	0xb2
 6029 0744 00       		.byte	0
 6030 0745 0C       		.uleb128 0xc
 6031 0746 BD040000 		.4byte	.LASF126
 6032 074a 03       		.byte	0x3
 6033 074b 20       		.byte	0x20
 6034 074c BF000000 		.4byte	0xbf
 6035 0750 04       		.byte	0x4
 6036 0751 0D       		.uleb128 0xd
 6037 0752 7000     		.ascii	"p\000"
 6038 0754 03       		.byte	0x3
 6039 0755 21       		.byte	0x21
 6040 0756 B2000000 		.4byte	0xb2
 6041 075a 08       		.byte	0x8
 6042 075b 0C       		.uleb128 0xc
 6043 075c 1F0A0000 		.4byte	.LASF127
 6044 0760 03       		.byte	0x3
 6045 0761 22       		.byte	0x22
 6046 0762 BF000000 		.4byte	0xbf
 6047 0766 0C       		.byte	0xc
 6048 0767 0D       		.uleb128 0xd
 6049 0768 666D7400 		.ascii	"fmt\000"
 6050 076c 03       		.byte	0x3
 6051 076d 2C       		.byte	0x2c
 6052 076e C0060000 		.4byte	0x6c0
 6053 0772 10       		.byte	0x10
 6054 0773 00       		.byte	0
 6055 0774 04       		.uleb128 0x4
 6056 0775 BD0A0000 		.4byte	.LASF128
 6057 0779 03       		.byte	0x3
 6058 077a 2D       		.byte	0x2d
 6059 077b 2D070000 		.4byte	0x72d
 6060 077f 1E       		.uleb128 0x1e
 6061 0780 02050000 		.4byte	.LASF129
 6062 0784 08       		.byte	0x8
 6063 0785 01       		.byte	0x1
 6064 0786 FF03     		.2byte	0x3ff
 6065 0788 CB070000 		.4byte	0x7cb
 6066 078c 1F       		.uleb128 0x1f
 6067 078d 38080000 		.4byte	.LASF118
 6068 0791 01       		.byte	0x1
 6069 0792 0004     		.2byte	0x400
 6070 0794 DC000000 		.4byte	0xdc
 6071 0798 00       		.byte	0
 6072 0799 1F       		.uleb128 0x1f
 6073 079a 96040000 		.4byte	.LASF130
 6074 079e 01       		.byte	0x1
 6075 079f 0104     		.2byte	0x401
 6076 07a1 DC000000 		.4byte	0xdc
 6077 07a5 01       		.byte	0x1
 6078 07a6 20       		.uleb128 0x20
 6079 07a7 6E00     		.ascii	"n\000"
 6080 07a9 01       		.byte	0x1
 6081 07aa 0204     		.2byte	0x402
 6082 07ac E7000000 		.4byte	0xe7
 6083 07b0 02       		.byte	0x2
 6084 07b1 1F       		.uleb128 0x1f
ARM GAS  C:\Users\164\AppData\Local\Temp\cc3ssgoH.s 			page 147


 6085 07b2 650C0000 		.4byte	.LASF86
 6086 07b6 01       		.byte	0x1
 6087 07b7 0304     		.2byte	0x403
 6088 07b9 CB070000 		.4byte	0x7cb
 6089 07bd 04       		.byte	0x4
 6090 07be 20       		.uleb128 0x20
 6091 07bf 636800   		.ascii	"ch\000"
 6092 07c2 01       		.byte	0x1
 6093 07c3 0404     		.2byte	0x404
 6094 07c5 D1070000 		.4byte	0x7d1
 6095 07c9 08       		.byte	0x8
 6096 07ca 00       		.byte	0
 6097 07cb 06       		.uleb128 0x6
 6098 07cc 04       		.byte	0x4
 6099 07cd 7F070000 		.4byte	0x77f
 6100 07d1 1A       		.uleb128 0x1a
 6101 07d2 B8000000 		.4byte	0xb8
 6102 07d6 E0070000 		.4byte	0x7e0
 6103 07da 1B       		.uleb128 0x1b
 6104 07db A9000000 		.4byte	0xa9
 6105 07df 00       		.byte	0
 6106 07e0 21       		.uleb128 0x21
 6107 07e1 3F090000 		.4byte	.LASF131
 6108 07e5 02       		.byte	0x2
 6109 07e6 46       		.byte	0x46
 6110 07e7 2C000000 		.4byte	0x2c
 6111 07eb 03       		.byte	0x3
 6112 07ec FC070000 		.4byte	0x7fc
 6113 07f0 22       		.uleb128 0x22
 6114 07f1 73747200 		.ascii	"str\000"
 6115 07f5 02       		.byte	0x2
 6116 07f6 46       		.byte	0x46
 6117 07f7 FC070000 		.4byte	0x7fc
 6118 07fb 00       		.byte	0
 6119 07fc 06       		.uleb128 0x6
 6120 07fd 04       		.byte	0x4
 6121 07fe 02080000 		.4byte	0x802
 6122 0802 07       		.uleb128 0x7
 6123 0803 20050000 		.4byte	0x520
 6124 0807 21       		.uleb128 0x21
 6125 0808 FB050000 		.4byte	.LASF132
 6126 080c 02       		.byte	0x2
 6127 080d 4E       		.byte	0x4e
 6128 080e B2000000 		.4byte	0xb2
 6129 0812 03       		.byte	0x3
 6130 0813 21080000 		.4byte	0x821
 6131 0817 22       		.uleb128 0x22
 6132 0818 7600     		.ascii	"v\000"
 6133 081a 02       		.byte	0x2
 6134 081b 4E       		.byte	0x4e
 6135 081c FC070000 		.4byte	0x7fc
 6136 0820 00       		.byte	0
 6137 0821 23       		.uleb128 0x23
 6138 0822 6C050000 		.4byte	.LASF136
 6139 0826 03       		.byte	0x3
 6140 0827 63       		.byte	0x63
 6141 0828 03       		.byte	0x3
ARM GAS  C:\Users\164\AppData\Local\Temp\cc3ssgoH.s 			page 148


 6142 0829 59080000 		.4byte	0x859
 6143 082d 22       		.uleb128 0x22
 6144 082e 706600   		.ascii	"pf\000"
 6145 0831 03       		.byte	0x3
 6146 0832 63       		.byte	0x63
 6147 0833 59080000 		.4byte	0x859
 6148 0837 22       		.uleb128 0x22
 6149 0838 62756600 		.ascii	"buf\000"
 6150 083c 03       		.byte	0x3
 6151 083d 63       		.byte	0x63
 6152 083e B2000000 		.4byte	0xb2
 6153 0842 24       		.uleb128 0x24
 6154 0843 EC080000 		.4byte	.LASF91
 6155 0847 03       		.byte	0x3
 6156 0848 63       		.byte	0x63
 6157 0849 2C000000 		.4byte	0x2c
 6158 084d 24       		.uleb128 0x24
 6159 084e 1F0A0000 		.4byte	.LASF127
 6160 0852 03       		.byte	0x3
 6161 0853 64       		.byte	0x64
 6162 0854 BF000000 		.4byte	0xbf
 6163 0858 00       		.byte	0
 6164 0859 06       		.uleb128 0x6
 6165 085a 04       		.byte	0x4
 6166 085b 74070000 		.4byte	0x774
 6167 085f 21       		.uleb128 0x21
 6168 0860 23080000 		.4byte	.LASF133
 6169 0864 03       		.byte	0x3
 6170 0865 99       		.byte	0x99
 6171 0866 2C000000 		.4byte	0x2c
 6172 086a 03       		.byte	0x3
 6173 086b 90080000 		.4byte	0x890
 6174 086f 22       		.uleb128 0x22
 6175 0870 706600   		.ascii	"pf\000"
 6176 0873 03       		.byte	0x3
 6177 0874 99       		.byte	0x99
 6178 0875 59080000 		.4byte	0x859
 6179 0879 22       		.uleb128 0x22
 6180 087a 73747200 		.ascii	"str\000"
 6181 087e 03       		.byte	0x3
 6182 087f 99       		.byte	0x99
 6183 0880 BF000000 		.4byte	0xbf
 6184 0884 22       		.uleb128 0x22
 6185 0885 70616400 		.ascii	"pad\000"
 6186 0889 03       		.byte	0x3
 6187 088a 99       		.byte	0x99
 6188 088b 2C000000 		.4byte	0x2c
 6189 088f 00       		.byte	0
 6190 0890 21       		.uleb128 0x21
 6191 0891 890A0000 		.4byte	.LASF134
 6192 0895 04       		.byte	0x4
 6193 0896 26       		.byte	0x26
 6194 0897 BF000000 		.4byte	0xbf
 6195 089b 03       		.byte	0x3
 6196 089c AA080000 		.4byte	0x8aa
 6197 08a0 22       		.uleb128 0x22
 6198 08a1 7600     		.ascii	"v\000"
ARM GAS  C:\Users\164\AppData\Local\Temp\cc3ssgoH.s 			page 149


 6199 08a3 04       		.byte	0x4
 6200 08a4 26       		.byte	0x26
 6201 08a5 FC070000 		.4byte	0x7fc
 6202 08a9 00       		.byte	0
 6203 08aa 21       		.uleb128 0x21
 6204 08ab 50090000 		.4byte	.LASF135
 6205 08af 03       		.byte	0x3
 6206 08b0 89       		.byte	0x89
 6207 08b1 2C000000 		.4byte	0x2c
 6208 08b5 03       		.byte	0x3
 6209 08b6 C5080000 		.4byte	0x8c5
 6210 08ba 22       		.uleb128 0x22
 6211 08bb 706600   		.ascii	"pf\000"
 6212 08be 03       		.byte	0x3
 6213 08bf 89       		.byte	0x89
 6214 08c0 59080000 		.4byte	0x859
 6215 08c4 00       		.byte	0
 6216 08c5 23       		.uleb128 0x23
 6217 08c6 AB070000 		.4byte	.LASF137
 6218 08ca 03       		.byte	0x3
 6219 08cb 7D       		.byte	0x7d
 6220 08cc 03       		.byte	0x3
 6221 08cd DC080000 		.4byte	0x8dc
 6222 08d1 22       		.uleb128 0x22
 6223 08d2 706600   		.ascii	"pf\000"
 6224 08d5 03       		.byte	0x3
 6225 08d6 7D       		.byte	0x7d
 6226 08d7 59080000 		.4byte	0x859
 6227 08db 00       		.byte	0
 6228 08dc 23       		.uleb128 0x23
 6229 08dd F50A0000 		.4byte	.LASF138
 6230 08e1 03       		.byte	0x3
 6231 08e2 55       		.byte	0x55
 6232 08e3 03       		.byte	0x3
 6233 08e4 FF080000 		.4byte	0x8ff
 6234 08e8 22       		.uleb128 0x22
 6235 08e9 73747200 		.ascii	"str\000"
 6236 08ed 03       		.byte	0x3
 6237 08ee 55       		.byte	0x55
 6238 08ef BF000000 		.4byte	0xbf
 6239 08f3 24       		.uleb128 0x24
 6240 08f4 EC080000 		.4byte	.LASF91
 6241 08f8 03       		.byte	0x3
 6242 08f9 55       		.byte	0x55
 6243 08fa 2C000000 		.4byte	0x2c
 6244 08fe 00       		.byte	0
 6245 08ff 21       		.uleb128 0x21
 6246 0900 B1010000 		.4byte	.LASF139
 6247 0904 05       		.byte	0x5
 6248 0905 3A       		.byte	0x3a
 6249 0906 2C000000 		.4byte	0x2c
 6250 090a 03       		.byte	0x3
 6251 090b 1B090000 		.4byte	0x91b
 6252 090f 22       		.uleb128 0x22
 6253 0910 61727900 		.ascii	"ary\000"
 6254 0914 05       		.byte	0x5
 6255 0915 3A       		.byte	0x3a
ARM GAS  C:\Users\164\AppData\Local\Temp\cc3ssgoH.s 			page 150


 6256 0916 FC070000 		.4byte	0x7fc
 6257 091a 00       		.byte	0
 6258 091b 25       		.uleb128 0x25
 6259 091c F2010000 		.4byte	.LASF140
 6260 0920 01       		.byte	0x1
 6261 0921 26       		.byte	0x26
 6262 0922 2C000000 		.4byte	0x2c
 6263 0926 00000000 		.4byte	.LFB86
 6264 092a 20000000 		.4byte	.LFE86-.LFB86
 6265 092e 01       		.uleb128 0x1
 6266 092f 9C       		.byte	0x9c
 6267 0930 60090000 		.4byte	0x960
 6268 0934 26       		.uleb128 0x26
 6269 0935 636800   		.ascii	"ch\000"
 6270 0938 01       		.byte	0x1
 6271 0939 26       		.byte	0x26
 6272 093a 2C000000 		.4byte	0x2c
 6273 093e 00000000 		.4byte	.LLST0
 6274 0942 27       		.uleb128 0x27
 6275 0943 777300   		.ascii	"ws\000"
 6276 0946 01       		.byte	0x1
 6277 0947 28       		.byte	0x28
 6278 0948 70090000 		.4byte	0x970
 6279 094c 05       		.uleb128 0x5
 6280 094d 03       		.byte	0x3
 6281 094e 00000000 		.4byte	ws.7540
 6282 0952 28       		.uleb128 0x28
 6283 0953 6900     		.ascii	"i\000"
 6284 0955 01       		.byte	0x1
 6285 0956 2A       		.byte	0x2a
 6286 0957 2C000000 		.4byte	0x2c
 6287 095b 3A000000 		.4byte	.LLST1
 6288 095f 00       		.byte	0
 6289 0960 1A       		.uleb128 0x1a
 6290 0961 C5000000 		.4byte	0xc5
 6291 0965 70090000 		.4byte	0x970
 6292 0969 1C       		.uleb128 0x1c
 6293 096a A9000000 		.4byte	0xa9
 6294 096e 06       		.byte	0x6
 6295 096f 00       		.byte	0
 6296 0970 07       		.uleb128 0x7
 6297 0971 60090000 		.4byte	0x960
 6298 0975 29       		.uleb128 0x29
 6299 0976 61080000 		.4byte	.LASF141
 6300 097a 01       		.byte	0x1
 6301 097b 4C04     		.2byte	0x44c
 6302 097d 2C000000 		.4byte	0x2c
 6303 0981 00000000 		.4byte	.LFB125
 6304 0985 66000000 		.4byte	.LFE125-.LFB125
 6305 0989 01       		.uleb128 0x1
 6306 098a 9C       		.byte	0x9c
 6307 098b F1090000 		.4byte	0x9f1
 6308 098f 2A       		.uleb128 0x2a
 6309 0990 70617400 		.ascii	"pat\000"
 6310 0994 01       		.byte	0x1
 6311 0995 4C04     		.2byte	0x44c
 6312 0997 F1090000 		.4byte	0x9f1
ARM GAS  C:\Users\164\AppData\Local\Temp\cc3ssgoH.s 			page 151


 6313 099b 59000000 		.4byte	.LLST2
 6314 099f 2B       		.uleb128 0x2b
 6315 09a0 636800   		.ascii	"ch\000"
 6316 09a3 01       		.byte	0x1
 6317 09a4 4C04     		.2byte	0x44c
 6318 09a6 2C000000 		.4byte	0x2c
 6319 09aa 01       		.uleb128 0x1
 6320 09ab 51       		.byte	0x51
 6321 09ac 2C       		.uleb128 0x2c
 6322 09ad 72657400 		.ascii	"ret\000"
 6323 09b1 01       		.byte	0x1
 6324 09b2 4E04     		.2byte	0x44e
 6325 09b4 2C000000 		.4byte	0x2c
 6326 09b8 77000000 		.4byte	.LLST3
 6327 09bc 2D       		.uleb128 0x2d
 6328 09bd 7C070000 		.4byte	.LASF142
 6329 09c1 01       		.byte	0x1
 6330 09c2 4F04     		.2byte	0x44f
 6331 09c4 2C000000 		.4byte	0x2c
 6332 09c8 AD000000 		.4byte	.LLST4
 6333 09cc 2D       		.uleb128 0x2d
 6334 09cd 96040000 		.4byte	.LASF130
 6335 09d1 01       		.byte	0x1
 6336 09d2 5004     		.2byte	0x450
 6337 09d4 2C000000 		.4byte	0x2c
 6338 09d8 CC000000 		.4byte	.LLST5
 6339 09dc 2E       		.uleb128 0x2e
 6340 09dd 00000000 		.4byte	.Ldebug_ranges0+0
 6341 09e1 2C       		.uleb128 0x2c
 6342 09e2 6900     		.ascii	"i\000"
 6343 09e4 01       		.byte	0x1
 6344 09e5 5404     		.2byte	0x454
 6345 09e7 2C000000 		.4byte	0x2c
 6346 09eb DF000000 		.4byte	.LLST6
 6347 09ef 00       		.byte	0
 6348 09f0 00       		.byte	0
 6349 09f1 06       		.uleb128 0x6
 6350 09f2 04       		.byte	0x4
 6351 09f3 F7090000 		.4byte	0x9f7
 6352 09f7 07       		.uleb128 0x7
 6353 09f8 7F070000 		.4byte	0x77f
 6354 09fc 29       		.uleb128 0x29
 6355 09fd F4030000 		.4byte	.LASF143
 6356 0a01 01       		.byte	0x1
 6357 0a02 6504     		.2byte	0x465
 6358 0a04 2C000000 		.4byte	0x2c
 6359 0a08 00000000 		.4byte	.LFB126
 6360 0a0c 4A000000 		.4byte	.LFE126-.LFB126
 6361 0a10 01       		.uleb128 0x1
 6362 0a11 9C       		.byte	0x9c
 6363 0a12 5F0A0000 		.4byte	0xa5f
 6364 0a16 2A       		.uleb128 0x2a
 6365 0a17 70617400 		.ascii	"pat\000"
 6366 0a1b 01       		.byte	0x1
 6367 0a1c 6504     		.2byte	0x465
 6368 0a1e F1090000 		.4byte	0x9f1
 6369 0a22 FD000000 		.4byte	.LLST7
ARM GAS  C:\Users\164\AppData\Local\Temp\cc3ssgoH.s 			page 152


 6370 0a26 2F       		.uleb128 0x2f
 6371 0a27 33080000 		.4byte	.LASF144
 6372 0a2b 01       		.byte	0x1
 6373 0a2c 6504     		.2byte	0x465
 6374 0a2e 2C000000 		.4byte	0x2c
 6375 0a32 3C010000 		.4byte	.LLST8
 6376 0a36 2D       		.uleb128 0x2d
 6377 0a37 7C070000 		.4byte	.LASF142
 6378 0a3b 01       		.byte	0x1
 6379 0a3c 6704     		.2byte	0x467
 6380 0a3e 2C000000 		.4byte	0x2c
 6381 0a42 76010000 		.4byte	.LLST9
 6382 0a46 30       		.uleb128 0x30
 6383 0a47 10000000 		.4byte	.LBB161
 6384 0a4b 14000000 		.4byte	.LBE161-.LBB161
 6385 0a4f 2C       		.uleb128 0x2c
 6386 0a50 6900     		.ascii	"i\000"
 6387 0a52 01       		.byte	0x1
 6388 0a53 6A04     		.2byte	0x46a
 6389 0a55 2C000000 		.4byte	0x2c
 6390 0a59 A0010000 		.4byte	.LLST10
 6391 0a5d 00       		.byte	0
 6392 0a5e 00       		.byte	0
 6393 0a5f 31       		.uleb128 0x31
 6394 0a60 13080000 		.4byte	.LASF152
 6395 0a64 01       		.byte	0x1
 6396 0a65 0704     		.2byte	0x407
 6397 0a67 00000000 		.4byte	.LFB123
 6398 0a6b 12000000 		.4byte	.LFE123-.LFB123
 6399 0a6f 01       		.uleb128 0x1
 6400 0a70 9C       		.byte	0x9c
 6401 0a71 A70A0000 		.4byte	0xaa7
 6402 0a75 2A       		.uleb128 0x2a
 6403 0a76 70617400 		.ascii	"pat\000"
 6404 0a7a 01       		.byte	0x1
 6405 0a7b 0704     		.2byte	0x407
 6406 0a7d CB070000 		.4byte	0x7cb
 6407 0a81 CF010000 		.4byte	.LLST11
 6408 0a85 30       		.uleb128 0x30
 6409 0a86 04000000 		.4byte	.LBB162
 6410 0a8a 08000000 		.4byte	.LBE162-.LBB162
 6411 0a8e 2C       		.uleb128 0x2c
 6412 0a8f 7000     		.ascii	"p\000"
 6413 0a91 01       		.byte	0x1
 6414 0a92 0A04     		.2byte	0x40a
 6415 0a94 CB070000 		.4byte	0x7cb
 6416 0a98 F8010000 		.4byte	.LLST12
 6417 0a9c 32       		.uleb128 0x32
 6418 0a9d 0A000000 		.4byte	.LVL44
 6419 0aa1 8F390000 		.4byte	0x398f
 6420 0aa5 00       		.byte	0
 6421 0aa6 00       		.byte	0
 6422 0aa7 29       		.uleb128 0x29
 6423 0aa8 620A0000 		.4byte	.LASF145
 6424 0aac 01       		.byte	0x1
 6425 0aad 1004     		.2byte	0x410
 6426 0aaf CB070000 		.4byte	0x7cb
ARM GAS  C:\Users\164\AppData\Local\Temp\cc3ssgoH.s 			page 153


 6427 0ab3 00000000 		.4byte	.LFB124
 6428 0ab7 E0000000 		.4byte	.LFE124-.LFB124
 6429 0abb 01       		.uleb128 0x1
 6430 0abc 9C       		.byte	0x9c
 6431 0abd 1D0C0000 		.4byte	0xc1d
 6432 0ac1 2A       		.uleb128 0x2a
 6433 0ac2 766D00   		.ascii	"vm\000"
 6434 0ac5 01       		.byte	0x1
 6435 0ac6 1004     		.2byte	0x410
 6436 0ac8 56010000 		.4byte	0x156
 6437 0acc 0B020000 		.4byte	.LLST13
 6438 0ad0 2F       		.uleb128 0x2f
 6439 0ad1 730A0000 		.4byte	.LASF146
 6440 0ad5 01       		.byte	0x1
 6441 0ad6 1004     		.2byte	0x410
 6442 0ad8 1D0C0000 		.4byte	0xc1d
 6443 0adc 2A020000 		.4byte	.LLST14
 6444 0ae0 2F       		.uleb128 0x2f
 6445 0ae1 DF020000 		.4byte	.LASF147
 6446 0ae5 01       		.byte	0x1
 6447 0ae6 1004     		.2byte	0x410
 6448 0ae8 2C000000 		.4byte	0x2c
 6449 0aec 4B020000 		.4byte	.LLST15
 6450 0af0 33       		.uleb128 0x33
 6451 0af1 4F0A0000 		.4byte	.LASF148
 6452 0af5 01       		.byte	0x1
 6453 0af6 1204     		.2byte	0x412
 6454 0af8 BF000000 		.4byte	0xbf
 6455 0afc 33       		.uleb128 0x33
 6456 0afd 2B010000 		.4byte	.LASF149
 6457 0b01 01       		.byte	0x1
 6458 0b02 1304     		.2byte	0x413
 6459 0b04 2C000000 		.4byte	0x2c
 6460 0b08 2D       		.uleb128 0x2d
 6461 0b09 96040000 		.4byte	.LASF130
 6462 0b0d 01       		.byte	0x1
 6463 0b0e 1404     		.2byte	0x414
 6464 0b10 2C000000 		.4byte	0x2c
 6465 0b14 6C020000 		.4byte	.LLST16
 6466 0b18 2C       		.uleb128 0x2c
 6467 0b19 72657400 		.ascii	"ret\000"
 6468 0b1d 01       		.byte	0x1
 6469 0b1e 1504     		.2byte	0x415
 6470 0b20 CB070000 		.4byte	0x7cb
 6471 0b24 8B020000 		.4byte	.LLST17
 6472 0b28 2C       		.uleb128 0x2c
 6473 0b29 6900     		.ascii	"i\000"
 6474 0b2b 01       		.byte	0x1
 6475 0b2c 1704     		.2byte	0x417
 6476 0b2e 2C000000 		.4byte	0x2c
 6477 0b32 B5020000 		.4byte	.LLST18
 6478 0b36 2D       		.uleb128 0x2d
 6479 0b37 10000000 		.4byte	.LASF150
 6480 0b3b 01       		.byte	0x1
 6481 0b3c 1D04     		.2byte	0x41d
 6482 0b3e CB070000 		.4byte	0x7cb
 6483 0b42 00030000 		.4byte	.LLST19
ARM GAS  C:\Users\164\AppData\Local\Temp\cc3ssgoH.s 			page 154


 6484 0b46 34       		.uleb128 0x34
 6485 0b47 07080000 		.4byte	0x807
 6486 0b4b 08000000 		.4byte	.LBB163
 6487 0b4f 04000000 		.4byte	.LBE163-.LBB163
 6488 0b53 01       		.byte	0x1
 6489 0b54 1204     		.2byte	0x412
 6490 0b56 640B0000 		.4byte	0xb64
 6491 0b5a 35       		.uleb128 0x35
 6492 0b5b 17080000 		.4byte	0x817
 6493 0b5f 29030000 		.4byte	.LLST20
 6494 0b63 00       		.byte	0
 6495 0b64 34       		.uleb128 0x34
 6496 0b65 E0070000 		.4byte	0x7e0
 6497 0b69 0C000000 		.4byte	.LBB165
 6498 0b6d 02000000 		.4byte	.LBE165-.LBB165
 6499 0b71 01       		.byte	0x1
 6500 0b72 1304     		.2byte	0x413
 6501 0b74 820B0000 		.4byte	0xb82
 6502 0b78 35       		.uleb128 0x35
 6503 0b79 F0070000 		.4byte	0x7f0
 6504 0b7d 3C030000 		.4byte	.LLST21
 6505 0b81 00       		.byte	0
 6506 0b82 36       		.uleb128 0x36
 6507 0b83 74000000 		.4byte	.LBB167
 6508 0b87 44000000 		.4byte	.LBE167-.LBB167
 6509 0b8b EA0B0000 		.4byte	0xbea
 6510 0b8f 2D       		.uleb128 0x2d
 6511 0b90 2F000000 		.4byte	.LASF151
 6512 0b94 01       		.byte	0x1
 6513 0b95 2E04     		.2byte	0x42e
 6514 0b97 2C000000 		.4byte	0x2c
 6515 0b9b 4F030000 		.4byte	.LLST22
 6516 0b9f 2C       		.uleb128 0x2c
 6517 0ba0 6C656E00 		.ascii	"len\000"
 6518 0ba4 01       		.byte	0x1
 6519 0ba5 3404     		.2byte	0x434
 6520 0ba7 2C000000 		.4byte	0x2c
 6521 0bab 62030000 		.4byte	.LLST23
 6522 0baf 37       		.uleb128 0x37
 6523 0bb0 9A000000 		.4byte	.LVL57
 6524 0bb4 9A390000 		.4byte	0x399a
 6525 0bb8 CA0B0000 		.4byte	0xbca
 6526 0bbc 38       		.uleb128 0x38
 6527 0bbd 01       		.uleb128 0x1
 6528 0bbe 50       		.byte	0x50
 6529 0bbf 03       		.uleb128 0x3
 6530 0bc0 91       		.byte	0x91
 6531 0bc1 54       		.sleb128 -44
 6532 0bc2 06       		.byte	0x6
 6533 0bc3 38       		.uleb128 0x38
 6534 0bc4 01       		.uleb128 0x1
 6535 0bc5 51       		.byte	0x51
 6536 0bc6 02       		.uleb128 0x2
 6537 0bc7 79       		.byte	0x79
 6538 0bc8 08       		.sleb128 8
 6539 0bc9 00       		.byte	0
 6540 0bca 39       		.uleb128 0x39
ARM GAS  C:\Users\164\AppData\Local\Temp\cc3ssgoH.s 			page 155


 6541 0bcb B8000000 		.4byte	.LVL59
 6542 0bcf A5390000 		.4byte	0x39a5
 6543 0bd3 38       		.uleb128 0x38
 6544 0bd4 01       		.uleb128 0x1
 6545 0bd5 50       		.byte	0x50
 6546 0bd6 02       		.uleb128 0x2
 6547 0bd7 78       		.byte	0x78
 6548 0bd8 08       		.sleb128 8
 6549 0bd9 38       		.uleb128 0x38
 6550 0bda 01       		.uleb128 0x1
 6551 0bdb 51       		.byte	0x51
 6552 0bdc 05       		.uleb128 0x5
 6553 0bdd 76       		.byte	0x76
 6554 0bde 00       		.sleb128 0
 6555 0bdf 77       		.byte	0x77
 6556 0be0 00       		.sleb128 0
 6557 0be1 22       		.byte	0x22
 6558 0be2 38       		.uleb128 0x38
 6559 0be3 01       		.uleb128 0x1
 6560 0be4 52       		.byte	0x52
 6561 0be5 02       		.uleb128 0x2
 6562 0be6 79       		.byte	0x79
 6563 0be7 00       		.sleb128 0
 6564 0be8 00       		.byte	0
 6565 0be9 00       		.byte	0
 6566 0bea 36       		.uleb128 0x36
 6567 0beb C2000000 		.4byte	.LBB168
 6568 0bef 0E000000 		.4byte	.LBE168-.LBB168
 6569 0bf3 060C0000 		.4byte	0xc06
 6570 0bf7 2C       		.uleb128 0x2c
 6571 0bf8 7000     		.ascii	"p\000"
 6572 0bfa 01       		.byte	0x1
 6573 0bfb 4304     		.2byte	0x443
 6574 0bfd CB070000 		.4byte	0x7cb
 6575 0c01 75030000 		.4byte	.LLST24
 6576 0c05 00       		.byte	0
 6577 0c06 39       		.uleb128 0x39
 6578 0c07 4C000000 		.4byte	.LVL51
 6579 0c0b 9A390000 		.4byte	0x399a
 6580 0c0f 38       		.uleb128 0x38
 6581 0c10 01       		.uleb128 0x1
 6582 0c11 50       		.byte	0x50
 6583 0c12 03       		.uleb128 0x3
 6584 0c13 91       		.byte	0x91
 6585 0c14 54       		.sleb128 -44
 6586 0c15 06       		.byte	0x6
 6587 0c16 38       		.uleb128 0x38
 6588 0c17 01       		.uleb128 0x1
 6589 0c18 51       		.byte	0x51
 6590 0c19 01       		.uleb128 0x1
 6591 0c1a 3A       		.byte	0x3a
 6592 0c1b 00       		.byte	0
 6593 0c1c 00       		.byte	0
 6594 0c1d 06       		.uleb128 0x6
 6595 0c1e 04       		.byte	0x4
 6596 0c1f 230C0000 		.4byte	0xc23
 6597 0c23 07       		.uleb128 0x7
ARM GAS  C:\Users\164\AppData\Local\Temp\cc3ssgoH.s 			page 156


 6598 0c24 0A050000 		.4byte	0x50a
 6599 0c28 31       		.uleb128 0x31
 6600 0c29 27060000 		.4byte	.LASF153
 6601 0c2d 01       		.byte	0x1
 6602 0c2e A502     		.2byte	0x2a5
 6603 0c30 00000000 		.4byte	.LFB112
 6604 0c34 18000000 		.4byte	.LFE112-.LFB112
 6605 0c38 01       		.uleb128 0x1
 6606 0c39 9C       		.byte	0x9c
 6607 0c3a BE0C0000 		.4byte	0xcbe
 6608 0c3e 2A       		.uleb128 0x2a
 6609 0c3f 766D00   		.ascii	"vm\000"
 6610 0c42 01       		.byte	0x1
 6611 0c43 A502     		.2byte	0x2a5
 6612 0c45 56010000 		.4byte	0x156
 6613 0c49 88030000 		.4byte	.LLST25
 6614 0c4d 2A       		.uleb128 0x2a
 6615 0c4e 7600     		.ascii	"v\000"
 6616 0c50 01       		.byte	0x1
 6617 0c51 A502     		.2byte	0x2a5
 6618 0c53 71060000 		.4byte	0x671
 6619 0c57 A9030000 		.4byte	.LLST26
 6620 0c5b 2F       		.uleb128 0x2f
 6621 0c5c F6050000 		.4byte	.LASF154
 6622 0c60 01       		.byte	0x1
 6623 0c61 A502     		.2byte	0x2a5
 6624 0c63 2C000000 		.4byte	0x2c
 6625 0c67 C7030000 		.4byte	.LLST27
 6626 0c6b 3A       		.uleb128 0x3a
 6627 0c6c 6900     		.ascii	"i\000"
 6628 0c6e 01       		.byte	0x1
 6629 0c6f A702     		.2byte	0x2a7
 6630 0c71 2C000000 		.4byte	0x2c
 6631 0c75 01       		.uleb128 0x1
 6632 0c76 55       		.byte	0x55
 6633 0c77 34       		.uleb128 0x34
 6634 0c78 07080000 		.4byte	0x807
 6635 0c7c 04000000 		.4byte	.LBB169
 6636 0c80 04000000 		.4byte	.LBE169-.LBB169
 6637 0c84 01       		.byte	0x1
 6638 0c85 A702     		.2byte	0x2a7
 6639 0c87 950C0000 		.4byte	0xc95
 6640 0c8b 35       		.uleb128 0x35
 6641 0c8c 17080000 		.4byte	0x817
 6642 0c90 E8030000 		.4byte	.LLST28
 6643 0c94 00       		.byte	0
 6644 0c95 30       		.uleb128 0x30
 6645 0c96 0A000000 		.4byte	.LBB171
 6646 0c9a 0E000000 		.4byte	.LBE171-.LBB171
 6647 0c9e 3A       		.uleb128 0x3a
 6648 0c9f 6E6E6E00 		.ascii	"nnn\000"
 6649 0ca3 01       		.byte	0x1
 6650 0ca4 A902     		.2byte	0x2a9
 6651 0ca6 08010000 		.4byte	0x108
 6652 0caa 01       		.uleb128 0x1
 6653 0cab 55       		.byte	0x55
 6654 0cac 39       		.uleb128 0x39
ARM GAS  C:\Users\164\AppData\Local\Temp\cc3ssgoH.s 			page 157


 6655 0cad 10000000 		.4byte	.LVL70
 6656 0cb1 AE390000 		.4byte	0x39ae
 6657 0cb5 38       		.uleb128 0x38
 6658 0cb6 01       		.uleb128 0x1
 6659 0cb7 50       		.byte	0x50
 6660 0cb8 02       		.uleb128 0x2
 6661 0cb9 74       		.byte	0x74
 6662 0cba 00       		.sleb128 0
 6663 0cbb 00       		.byte	0
 6664 0cbc 00       		.byte	0
 6665 0cbd 00       		.byte	0
 6666 0cbe 31       		.uleb128 0x31
 6667 0cbf E4010000 		.4byte	.LASF155
 6668 0cc3 01       		.byte	0x1
 6669 0cc4 9501     		.2byte	0x195
 6670 0cc6 00000000 		.4byte	.LFB101
 6671 0cca 16000000 		.4byte	.LFE101-.LFB101
 6672 0cce 01       		.uleb128 0x1
 6673 0ccf 9C       		.byte	0x9c
 6674 0cd0 540D0000 		.4byte	0xd54
 6675 0cd4 2A       		.uleb128 0x2a
 6676 0cd5 766D00   		.ascii	"vm\000"
 6677 0cd8 01       		.byte	0x1
 6678 0cd9 9501     		.2byte	0x195
 6679 0cdb 56010000 		.4byte	0x156
 6680 0cdf FB030000 		.4byte	.LLST29
 6681 0ce3 2A       		.uleb128 0x2a
 6682 0ce4 7600     		.ascii	"v\000"
 6683 0ce6 01       		.byte	0x1
 6684 0ce7 9501     		.2byte	0x195
 6685 0ce9 71060000 		.4byte	0x671
 6686 0ced 1C040000 		.4byte	.LLST30
 6687 0cf1 2F       		.uleb128 0x2f
 6688 0cf2 F6050000 		.4byte	.LASF154
 6689 0cf6 01       		.byte	0x1
 6690 0cf7 9501     		.2byte	0x195
 6691 0cf9 2C000000 		.4byte	0x2c
 6692 0cfd 3A040000 		.4byte	.LLST31
 6693 0d01 33       		.uleb128 0x33
 6694 0d02 EC080000 		.4byte	.LASF91
 6695 0d06 01       		.byte	0x1
 6696 0d07 9701     		.2byte	0x197
 6697 0d09 08010000 		.4byte	0x108
 6698 0d0d 34       		.uleb128 0x34
 6699 0d0e E0070000 		.4byte	0x7e0
 6700 0d12 04000000 		.4byte	.LBB172
 6701 0d16 04000000 		.4byte	.LBE172-.LBB172
 6702 0d1a 01       		.byte	0x1
 6703 0d1b 9701     		.2byte	0x197
 6704 0d1d 2B0D0000 		.4byte	0xd2b
 6705 0d21 35       		.uleb128 0x35
 6706 0d22 F0070000 		.4byte	0x7f0
 6707 0d26 5B040000 		.4byte	.LLST32
 6708 0d2a 00       		.byte	0
 6709 0d2b 30       		.uleb128 0x30
 6710 0d2c 08000000 		.4byte	.LBB174
 6711 0d30 0E000000 		.4byte	.LBE174-.LBB174
ARM GAS  C:\Users\164\AppData\Local\Temp\cc3ssgoH.s 			page 158


 6712 0d34 3A       		.uleb128 0x3a
 6713 0d35 6E6E6E00 		.ascii	"nnn\000"
 6714 0d39 01       		.byte	0x1
 6715 0d3a 9901     		.2byte	0x199
 6716 0d3c 08010000 		.4byte	0x108
 6717 0d40 01       		.uleb128 0x1
 6718 0d41 55       		.byte	0x55
 6719 0d42 39       		.uleb128 0x39
 6720 0d43 0E000000 		.4byte	.LVL75
 6721 0d47 AE390000 		.4byte	0x39ae
 6722 0d4b 38       		.uleb128 0x38
 6723 0d4c 01       		.uleb128 0x1
 6724 0d4d 50       		.byte	0x50
 6725 0d4e 02       		.uleb128 0x2
 6726 0d4f 74       		.byte	0x74
 6727 0d50 00       		.sleb128 0
 6728 0d51 00       		.byte	0
 6729 0d52 00       		.byte	0
 6730 0d53 00       		.byte	0
 6731 0d54 31       		.uleb128 0x31
 6732 0d55 0C060000 		.4byte	.LASF156
 6733 0d59 01       		.byte	0x1
 6734 0d5a B501     		.2byte	0x1b5
 6735 0d5c 00000000 		.4byte	.LFB103
 6736 0d60 20000000 		.4byte	.LFE103-.LFB103
 6737 0d64 01       		.uleb128 0x1
 6738 0d65 9C       		.byte	0x9c
 6739 0d66 010E0000 		.4byte	0xe01
 6740 0d6a 2A       		.uleb128 0x2a
 6741 0d6b 766D00   		.ascii	"vm\000"
 6742 0d6e 01       		.byte	0x1
 6743 0d6f B501     		.2byte	0x1b5
 6744 0d71 56010000 		.4byte	0x156
 6745 0d75 6E040000 		.4byte	.LLST33
 6746 0d79 2A       		.uleb128 0x2a
 6747 0d7a 7600     		.ascii	"v\000"
 6748 0d7c 01       		.byte	0x1
 6749 0d7d B501     		.2byte	0x1b5
 6750 0d7f 71060000 		.4byte	0x671
 6751 0d83 8F040000 		.4byte	.LLST34
 6752 0d87 2F       		.uleb128 0x2f
 6753 0d88 F6050000 		.4byte	.LASF154
 6754 0d8c 01       		.byte	0x1
 6755 0d8d B501     		.2byte	0x1b5
 6756 0d8f 2C000000 		.4byte	0x2c
 6757 0d93 AD040000 		.4byte	.LLST35
 6758 0d97 3A       		.uleb128 0x3a
 6759 0d98 6400     		.ascii	"d\000"
 6760 0d9a 01       		.byte	0x1
 6761 0d9b B701     		.2byte	0x1b7
 6762 0d9d 13010000 		.4byte	0x113
 6763 0da1 06       		.uleb128 0x6
 6764 0da2 56       		.byte	0x56
 6765 0da3 93       		.byte	0x93
 6766 0da4 04       		.uleb128 0x4
 6767 0da5 57       		.byte	0x57
 6768 0da6 93       		.byte	0x93
ARM GAS  C:\Users\164\AppData\Local\Temp\cc3ssgoH.s 			page 159


 6769 0da7 04       		.uleb128 0x4
 6770 0da8 34       		.uleb128 0x34
 6771 0da9 07080000 		.4byte	0x807
 6772 0dad 04000000 		.4byte	.LBB175
 6773 0db1 02000000 		.4byte	.LBE175-.LBB175
 6774 0db5 01       		.byte	0x1
 6775 0db6 B701     		.2byte	0x1b7
 6776 0db8 C60D0000 		.4byte	0xdc6
 6777 0dbc 35       		.uleb128 0x35
 6778 0dbd 17080000 		.4byte	0x817
 6779 0dc1 CE040000 		.4byte	.LLST36
 6780 0dc5 00       		.byte	0
 6781 0dc6 36       		.uleb128 0x36
 6782 0dc7 10000000 		.4byte	.LBB177
 6783 0dcb 10000000 		.4byte	.LBE177-.LBB177
 6784 0dcf F70D0000 		.4byte	0xdf7
 6785 0dd3 3A       		.uleb128 0x3a
 6786 0dd4 6E6E6E00 		.ascii	"nnn\000"
 6787 0dd8 01       		.byte	0x1
 6788 0dd9 B901     		.2byte	0x1b9
 6789 0ddb 13010000 		.4byte	0x113
 6790 0ddf 06       		.uleb128 0x6
 6791 0de0 56       		.byte	0x56
 6792 0de1 93       		.byte	0x93
 6793 0de2 04       		.uleb128 0x4
 6794 0de3 57       		.byte	0x57
 6795 0de4 93       		.byte	0x93
 6796 0de5 04       		.uleb128 0x4
 6797 0de6 39       		.uleb128 0x39
 6798 0de7 16000000 		.4byte	.LVL82
 6799 0deb AE390000 		.4byte	0x39ae
 6800 0def 38       		.uleb128 0x38
 6801 0df0 01       		.uleb128 0x1
 6802 0df1 50       		.byte	0x50
 6803 0df2 02       		.uleb128 0x2
 6804 0df3 74       		.byte	0x74
 6805 0df4 00       		.sleb128 0
 6806 0df5 00       		.byte	0
 6807 0df6 00       		.byte	0
 6808 0df7 32       		.uleb128 0x32
 6809 0df8 0C000000 		.4byte	.LVL80
 6810 0dfc B9390000 		.4byte	0x39b9
 6811 0e00 00       		.byte	0
 6812 0e01 31       		.uleb128 0x31
 6813 0e02 E50A0000 		.4byte	.LASF157
 6814 0e06 01       		.byte	0x1
 6815 0e07 ED03     		.2byte	0x3ed
 6816 0e09 00000000 		.4byte	.LFB122
 6817 0e0d 2E000000 		.4byte	.LFE122-.LFB122
 6818 0e11 01       		.uleb128 0x1
 6819 0e12 9C       		.byte	0x9c
 6820 0e13 B60E0000 		.4byte	0xeb6
 6821 0e17 2A       		.uleb128 0x2a
 6822 0e18 766D00   		.ascii	"vm\000"
 6823 0e1b 01       		.byte	0x1
 6824 0e1c ED03     		.2byte	0x3ed
 6825 0e1e 56010000 		.4byte	0x156
ARM GAS  C:\Users\164\AppData\Local\Temp\cc3ssgoH.s 			page 160


 6826 0e22 E1040000 		.4byte	.LLST37
 6827 0e26 2A       		.uleb128 0x2a
 6828 0e27 7600     		.ascii	"v\000"
 6829 0e29 01       		.byte	0x1
 6830 0e2a ED03     		.2byte	0x3ed
 6831 0e2c 71060000 		.4byte	0x671
 6832 0e30 0D050000 		.4byte	.LLST38
 6833 0e34 2F       		.uleb128 0x2f
 6834 0e35 F6050000 		.4byte	.LASF154
 6835 0e39 01       		.byte	0x1
 6836 0e3a ED03     		.2byte	0x3ed
 6837 0e3c 2C000000 		.4byte	0x2c
 6838 0e40 2B050000 		.4byte	.LLST39
 6839 0e44 3A       		.uleb128 0x3a
 6840 0e45 72657400 		.ascii	"ret\000"
 6841 0e49 01       		.byte	0x1
 6842 0e4a EF03     		.2byte	0x3ef
 6843 0e4c 20050000 		.4byte	0x520
 6844 0e50 02       		.uleb128 0x2
 6845 0e51 91       		.byte	0x91
 6846 0e52 60       		.sleb128 -32
 6847 0e53 34       		.uleb128 0x34
 6848 0e54 07080000 		.4byte	0x807
 6849 0e58 06000000 		.4byte	.LBB178
 6850 0e5c 02000000 		.4byte	.LBE178-.LBB178
 6851 0e60 01       		.byte	0x1
 6852 0e61 EF03     		.2byte	0x3ef
 6853 0e63 710E0000 		.4byte	0xe71
 6854 0e67 35       		.uleb128 0x35
 6855 0e68 17080000 		.4byte	0x817
 6856 0e6c 4C050000 		.4byte	.LLST40
 6857 0e70 00       		.byte	0
 6858 0e71 36       		.uleb128 0x36
 6859 0e72 14000000 		.4byte	.LBB180
 6860 0e76 16000000 		.4byte	.LBE180-.LBB180
 6861 0e7a 9E0E0000 		.4byte	0xe9e
 6862 0e7e 3A       		.uleb128 0x3a
 6863 0e7f 6E6E6E00 		.ascii	"nnn\000"
 6864 0e83 01       		.byte	0x1
 6865 0e84 F103     		.2byte	0x3f1
 6866 0e86 20050000 		.4byte	0x520
 6867 0e8a 02       		.uleb128 0x2
 6868 0e8b 91       		.byte	0x91
 6869 0e8c 50       		.sleb128 -48
 6870 0e8d 39       		.uleb128 0x39
 6871 0e8e 22000000 		.4byte	.LVL90
 6872 0e92 AE390000 		.4byte	0x39ae
 6873 0e96 38       		.uleb128 0x38
 6874 0e97 01       		.uleb128 0x1
 6875 0e98 50       		.byte	0x50
 6876 0e99 02       		.uleb128 0x2
 6877 0e9a 75       		.byte	0x75
 6878 0e9b 00       		.sleb128 0
 6879 0e9c 00       		.byte	0
 6880 0e9d 00       		.byte	0
 6881 0e9e 39       		.uleb128 0x39
 6882 0e9f 14000000 		.4byte	.LVL89
ARM GAS  C:\Users\164\AppData\Local\Temp\cc3ssgoH.s 			page 161


 6883 0ea3 C4390000 		.4byte	0x39c4
 6884 0ea7 38       		.uleb128 0x38
 6885 0ea8 01       		.uleb128 0x1
 6886 0ea9 50       		.byte	0x50
 6887 0eaa 02       		.uleb128 0x2
 6888 0eab 76       		.byte	0x76
 6889 0eac 00       		.sleb128 0
 6890 0ead 38       		.uleb128 0x38
 6891 0eae 01       		.uleb128 0x1
 6892 0eaf 51       		.byte	0x51
 6893 0eb0 03       		.uleb128 0x3
 6894 0eb1 F3       		.byte	0xf3
 6895 0eb2 01       		.uleb128 0x1
 6896 0eb3 50       		.byte	0x50
 6897 0eb4 00       		.byte	0
 6898 0eb5 00       		.byte	0
 6899 0eb6 31       		.uleb128 0x31
 6900 0eb7 800C0000 		.4byte	.LASF158
 6901 0ebb 01       		.byte	0x1
 6902 0ebc A101     		.2byte	0x1a1
 6903 0ebe 00000000 		.4byte	.LFB102
 6904 0ec2 2C000000 		.4byte	.LFE102-.LFB102
 6905 0ec6 01       		.uleb128 0x1
 6906 0ec7 9C       		.byte	0x9c
 6907 0ec8 6D0F0000 		.4byte	0xf6d
 6908 0ecc 2A       		.uleb128 0x2a
 6909 0ecd 766D00   		.ascii	"vm\000"
 6910 0ed0 01       		.byte	0x1
 6911 0ed1 A101     		.2byte	0x1a1
 6912 0ed3 56010000 		.4byte	0x156
 6913 0ed7 5F050000 		.4byte	.LLST41
 6914 0edb 2A       		.uleb128 0x2a
 6915 0edc 7600     		.ascii	"v\000"
 6916 0ede 01       		.byte	0x1
 6917 0edf A101     		.2byte	0x1a1
 6918 0ee1 71060000 		.4byte	0x671
 6919 0ee5 80050000 		.4byte	.LLST42
 6920 0ee9 2F       		.uleb128 0x2f
 6921 0eea F6050000 		.4byte	.LASF154
 6922 0eee 01       		.byte	0x1
 6923 0eef A101     		.2byte	0x1a1
 6924 0ef1 2C000000 		.4byte	0x2c
 6925 0ef5 9E050000 		.4byte	.LLST43
 6926 0ef9 2D       		.uleb128 0x2d
 6927 0efa 040C0000 		.4byte	.LASF159
 6928 0efe 01       		.byte	0x1
 6929 0eff A301     		.2byte	0x1a3
 6930 0f01 2C000000 		.4byte	0x2c
 6931 0f05 D8050000 		.4byte	.LLST44
 6932 0f09 2C       		.uleb128 0x2c
 6933 0f0a 6900     		.ascii	"i\000"
 6934 0f0c 01       		.byte	0x1
 6935 0f0d AB01     		.2byte	0x1ab
 6936 0f0f 08010000 		.4byte	0x108
 6937 0f13 0E060000 		.4byte	.LLST45
 6938 0f17 34       		.uleb128 0x34
 6939 0f18 07080000 		.4byte	0x807
ARM GAS  C:\Users\164\AppData\Local\Temp\cc3ssgoH.s 			page 162


 6940 0f1c 12000000 		.4byte	.LBB181
 6941 0f20 02000000 		.4byte	.LBE181-.LBB181
 6942 0f24 01       		.byte	0x1
 6943 0f25 AB01     		.2byte	0x1ab
 6944 0f27 350F0000 		.4byte	0xf35
 6945 0f2b 35       		.uleb128 0x35
 6946 0f2c 17080000 		.4byte	0x817
 6947 0f30 2C060000 		.4byte	.LLST46
 6948 0f34 00       		.byte	0
 6949 0f35 36       		.uleb128 0x36
 6950 0f36 1E000000 		.4byte	.LBB183
 6951 0f3a 0E000000 		.4byte	.LBE183-.LBB183
 6952 0f3e 630F0000 		.4byte	0xf63
 6953 0f42 2C       		.uleb128 0x2c
 6954 0f43 6E6E6E00 		.ascii	"nnn\000"
 6955 0f47 01       		.byte	0x1
 6956 0f48 AD01     		.2byte	0x1ad
 6957 0f4a 08010000 		.4byte	0x108
 6958 0f4e 0E060000 		.4byte	.LLST45
 6959 0f52 39       		.uleb128 0x39
 6960 0f53 24000000 		.4byte	.LVL104
 6961 0f57 AE390000 		.4byte	0x39ae
 6962 0f5b 38       		.uleb128 0x38
 6963 0f5c 01       		.uleb128 0x1
 6964 0f5d 50       		.byte	0x50
 6965 0f5e 02       		.uleb128 0x2
 6966 0f5f 74       		.byte	0x74
 6967 0f60 00       		.sleb128 0
 6968 0f61 00       		.byte	0
 6969 0f62 00       		.byte	0
 6970 0f63 32       		.uleb128 0x32
 6971 0f64 1C000000 		.4byte	.LVL101
 6972 0f68 CF390000 		.4byte	0x39cf
 6973 0f6c 00       		.byte	0
 6974 0f6d 23       		.uleb128 0x23
 6975 0f6e 7D050000 		.4byte	.LASF160
 6976 0f72 03       		.byte	0x3
 6977 0f73 49       		.byte	0x49
 6978 0f74 03       		.byte	0x3
 6979 0f75 850F0000 		.4byte	0xf85
 6980 0f79 22       		.uleb128 0x22
 6981 0f7a 73747200 		.ascii	"str\000"
 6982 0f7e 03       		.byte	0x3
 6983 0f7f 49       		.byte	0x49
 6984 0f80 BF000000 		.4byte	0xbf
 6985 0f84 00       		.byte	0
 6986 0f85 31       		.uleb128 0x31
 6987 0f86 E5090000 		.4byte	.LASF161
 6988 0f8a 01       		.byte	0x1
 6989 0f8b B604     		.2byte	0x4b6
 6990 0f8d 00000000 		.4byte	.LFB130
 6991 0f91 50000000 		.4byte	.LFE130-.LFB130
 6992 0f95 01       		.uleb128 0x1
 6993 0f96 9C       		.byte	0x9c
 6994 0f97 69100000 		.4byte	0x1069
 6995 0f9b 2A       		.uleb128 0x2a
 6996 0f9c 766D00   		.ascii	"vm\000"
ARM GAS  C:\Users\164\AppData\Local\Temp\cc3ssgoH.s 			page 163


 6997 0f9f 01       		.byte	0x1
 6998 0fa0 B604     		.2byte	0x4b6
 6999 0fa2 56010000 		.4byte	0x156
 7000 0fa6 3F060000 		.4byte	.LLST48
 7001 0faa 2A       		.uleb128 0x2a
 7002 0fab 7600     		.ascii	"v\000"
 7003 0fad 01       		.byte	0x1
 7004 0fae B604     		.2byte	0x4b6
 7005 0fb0 71060000 		.4byte	0x671
 7006 0fb4 79060000 		.4byte	.LLST49
 7007 0fb8 2F       		.uleb128 0x2f
 7008 0fb9 F6050000 		.4byte	.LASF154
 7009 0fbd 01       		.byte	0x1
 7010 0fbe B604     		.2byte	0x4b6
 7011 0fc0 2C000000 		.4byte	0x2c
 7012 0fc4 BE060000 		.4byte	.LLST50
 7013 0fc8 2C       		.uleb128 0x2c
 7014 0fc9 72657400 		.ascii	"ret\000"
 7015 0fcd 01       		.byte	0x1
 7016 0fce BD04     		.2byte	0x4bd
 7017 0fd0 2C000000 		.4byte	0x2c
 7018 0fd4 F8060000 		.4byte	.LLST51
 7019 0fd8 34       		.uleb128 0x34
 7020 0fd9 6D0F0000 		.4byte	0xf6d
 7021 0fdd 10000000 		.4byte	.LBB194
 7022 0fe1 0C000000 		.4byte	.LBE194-.LBB194
 7023 0fe5 01       		.byte	0x1
 7024 0fe6 B904     		.2byte	0x4b9
 7025 0fe8 13100000 		.4byte	0x1013
 7026 0fec 35       		.uleb128 0x35
 7027 0fed 790F0000 		.4byte	0xf79
 7028 0ff1 16070000 		.4byte	.LLST52
 7029 0ff5 39       		.uleb128 0x39
 7030 0ff6 1A000000 		.4byte	.LVL110
 7031 0ffa DA390000 		.4byte	0x39da
 7032 0ffe 38       		.uleb128 0x38
 7033 0fff 01       		.uleb128 0x1
 7034 1000 50       		.byte	0x50
 7035 1001 01       		.uleb128 0x1
 7036 1002 31       		.byte	0x31
 7037 1003 38       		.uleb128 0x38
 7038 1004 01       		.uleb128 0x1
 7039 1005 51       		.byte	0x51
 7040 1006 05       		.uleb128 0x5
 7041 1007 03       		.byte	0x3
 7042 1008 00000000 		.4byte	.LC0
 7043 100c 38       		.uleb128 0x38
 7044 100d 01       		.uleb128 0x1
 7045 100e 52       		.byte	0x52
 7046 100f 01       		.uleb128 0x1
 7047 1010 3E       		.byte	0x3e
 7048 1011 00       		.byte	0
 7049 1012 00       		.byte	0
 7050 1013 34       		.uleb128 0x34
 7051 1014 E0070000 		.4byte	0x7e0
 7052 1018 1C000000 		.4byte	.LBB196
 7053 101c 04000000 		.4byte	.LBE196-.LBB196
ARM GAS  C:\Users\164\AppData\Local\Temp\cc3ssgoH.s 			page 164


 7054 1020 01       		.byte	0x1
 7055 1021 BE04     		.2byte	0x4be
 7056 1023 31100000 		.4byte	0x1031
 7057 1027 35       		.uleb128 0x35
 7058 1028 F0070000 		.4byte	0x7f0
 7059 102c 2E070000 		.4byte	.LLST53
 7060 1030 00       		.byte	0
 7061 1031 34       		.uleb128 0x34
 7062 1032 E0070000 		.4byte	0x7e0
 7063 1036 20000000 		.4byte	.LBB198
 7064 103a 04000000 		.4byte	.LBE198-.LBB198
 7065 103e 01       		.byte	0x1
 7066 103f BE04     		.2byte	0x4be
 7067 1041 4F100000 		.4byte	0x104f
 7068 1045 35       		.uleb128 0x35
 7069 1046 F0070000 		.4byte	0x7f0
 7070 104a 41070000 		.4byte	.LLST54
 7071 104e 00       		.byte	0
 7072 104f 32       		.uleb128 0x32
 7073 1050 30000000 		.4byte	.LVL115
 7074 1054 E5390000 		.4byte	0x39e5
 7075 1058 39       		.uleb128 0x39
 7076 1059 40000000 		.4byte	.LVL119
 7077 105d AE390000 		.4byte	0x39ae
 7078 1061 38       		.uleb128 0x38
 7079 1062 01       		.uleb128 0x1
 7080 1063 50       		.byte	0x50
 7081 1064 02       		.uleb128 0x2
 7082 1065 74       		.byte	0x74
 7083 1066 00       		.sleb128 0
 7084 1067 00       		.byte	0
 7085 1068 00       		.byte	0
 7086 1069 31       		.uleb128 0x31
 7087 106a 08030000 		.4byte	.LASF162
 7088 106e 01       		.byte	0x1
 7089 106f CC04     		.2byte	0x4cc
 7090 1071 00000000 		.4byte	.LFB131
 7091 1075 54000000 		.4byte	.LFE131-.LFB131
 7092 1079 01       		.uleb128 0x1
 7093 107a 9C       		.byte	0x9c
 7094 107b 7B110000 		.4byte	0x117b
 7095 107f 2A       		.uleb128 0x2a
 7096 1080 766D00   		.ascii	"vm\000"
 7097 1083 01       		.byte	0x1
 7098 1084 CC04     		.2byte	0x4cc
 7099 1086 56010000 		.4byte	0x156
 7100 108a 63070000 		.4byte	.LLST55
 7101 108e 2A       		.uleb128 0x2a
 7102 108f 7600     		.ascii	"v\000"
 7103 1091 01       		.byte	0x1
 7104 1092 CC04     		.2byte	0x4cc
 7105 1094 71060000 		.4byte	0x671
 7106 1098 9D070000 		.4byte	.LLST56
 7107 109c 2F       		.uleb128 0x2f
 7108 109d F6050000 		.4byte	.LASF154
 7109 10a1 01       		.byte	0x1
 7110 10a2 CC04     		.2byte	0x4cc
ARM GAS  C:\Users\164\AppData\Local\Temp\cc3ssgoH.s 			page 165


 7111 10a4 2C000000 		.4byte	0x2c
 7112 10a8 E2070000 		.4byte	.LLST57
 7113 10ac 2C       		.uleb128 0x2c
 7114 10ad 72657400 		.ascii	"ret\000"
 7115 10b1 01       		.byte	0x1
 7116 10b2 D304     		.2byte	0x4d3
 7117 10b4 2C000000 		.4byte	0x2c
 7118 10b8 1C080000 		.4byte	.LLST58
 7119 10bc 2D       		.uleb128 0x2d
 7120 10bd BB070000 		.4byte	.LASF163
 7121 10c1 01       		.byte	0x1
 7122 10c2 D404     		.2byte	0x4d4
 7123 10c4 2C000000 		.4byte	0x2c
 7124 10c8 3A080000 		.4byte	.LLST59
 7125 10cc 34       		.uleb128 0x34
 7126 10cd 6D0F0000 		.4byte	0xf6d
 7127 10d1 10000000 		.4byte	.LBB210
 7128 10d5 0C000000 		.4byte	.LBE210-.LBB210
 7129 10d9 01       		.byte	0x1
 7130 10da CF04     		.2byte	0x4cf
 7131 10dc 07110000 		.4byte	0x1107
 7132 10e0 35       		.uleb128 0x35
 7133 10e1 790F0000 		.4byte	0xf79
 7134 10e5 81080000 		.4byte	.LLST60
 7135 10e9 39       		.uleb128 0x39
 7136 10ea 1A000000 		.4byte	.LVL126
 7137 10ee DA390000 		.4byte	0x39da
 7138 10f2 38       		.uleb128 0x38
 7139 10f3 01       		.uleb128 0x1
 7140 10f4 50       		.byte	0x50
 7141 10f5 01       		.uleb128 0x1
 7142 10f6 31       		.byte	0x31
 7143 10f7 38       		.uleb128 0x38
 7144 10f8 01       		.uleb128 0x1
 7145 10f9 51       		.byte	0x51
 7146 10fa 05       		.uleb128 0x5
 7147 10fb 03       		.byte	0x3
 7148 10fc 00000000 		.4byte	.LC0
 7149 1100 38       		.uleb128 0x38
 7150 1101 01       		.uleb128 0x1
 7151 1102 52       		.byte	0x52
 7152 1103 01       		.uleb128 0x1
 7153 1104 3E       		.byte	0x3e
 7154 1105 00       		.byte	0
 7155 1106 00       		.byte	0
 7156 1107 34       		.uleb128 0x34
 7157 1108 E0070000 		.4byte	0x7e0
 7158 110c 1C000000 		.4byte	.LBB212
 7159 1110 04000000 		.4byte	.LBE212-.LBB212
 7160 1114 01       		.byte	0x1
 7161 1115 D404     		.2byte	0x4d4
 7162 1117 25110000 		.4byte	0x1125
 7163 111b 35       		.uleb128 0x35
 7164 111c F0070000 		.4byte	0x7f0
 7165 1120 99080000 		.4byte	.LLST61
 7166 1124 00       		.byte	0
 7167 1125 34       		.uleb128 0x34
ARM GAS  C:\Users\164\AppData\Local\Temp\cc3ssgoH.s 			page 166


 7168 1126 E0070000 		.4byte	0x7e0
 7169 112a 20000000 		.4byte	.LBB214
 7170 112e 04000000 		.4byte	.LBE214-.LBB214
 7171 1132 01       		.byte	0x1
 7172 1133 D404     		.2byte	0x4d4
 7173 1135 43110000 		.4byte	0x1143
 7174 1139 35       		.uleb128 0x35
 7175 113a F0070000 		.4byte	0x7f0
 7176 113e B7080000 		.4byte	.LLST62
 7177 1142 00       		.byte	0
 7178 1143 34       		.uleb128 0x34
 7179 1144 07080000 		.4byte	0x807
 7180 1148 28000000 		.4byte	.LBB216
 7181 114c 02000000 		.4byte	.LBE216-.LBB216
 7182 1150 01       		.byte	0x1
 7183 1151 D804     		.2byte	0x4d8
 7184 1153 61110000 		.4byte	0x1161
 7185 1157 35       		.uleb128 0x35
 7186 1158 17080000 		.4byte	0x817
 7187 115c CC080000 		.4byte	.LLST63
 7188 1160 00       		.byte	0
 7189 1161 32       		.uleb128 0x32
 7190 1162 32000000 		.4byte	.LVL135
 7191 1166 E5390000 		.4byte	0x39e5
 7192 116a 39       		.uleb128 0x39
 7193 116b 42000000 		.4byte	.LVL139
 7194 116f AE390000 		.4byte	0x39ae
 7195 1173 38       		.uleb128 0x38
 7196 1174 01       		.uleb128 0x1
 7197 1175 50       		.byte	0x50
 7198 1176 02       		.uleb128 0x2
 7199 1177 74       		.byte	0x74
 7200 1178 00       		.sleb128 0
 7201 1179 00       		.byte	0
 7202 117a 00       		.byte	0
 7203 117b 29       		.uleb128 0x29
 7204 117c 6E000000 		.4byte	.LASF164
 7205 1180 01       		.byte	0x1
 7206 1181 7704     		.2byte	0x477
 7207 1183 2C000000 		.4byte	0x2c
 7208 1187 00000000 		.4byte	.LFB127
 7209 118b C0000000 		.4byte	.LFE127-.LFB127
 7210 118f 01       		.uleb128 0x1
 7211 1190 9C       		.byte	0x9c
 7212 1191 58130000 		.4byte	0x1358
 7213 1195 2A       		.uleb128 0x2a
 7214 1196 766D00   		.ascii	"vm\000"
 7215 1199 01       		.byte	0x1
 7216 119a 7704     		.2byte	0x477
 7217 119c 56010000 		.4byte	0x156
 7218 11a0 DF080000 		.4byte	.LLST64
 7219 11a4 2A       		.uleb128 0x2a
 7220 11a5 7600     		.ascii	"v\000"
 7221 11a7 01       		.byte	0x1
 7222 11a8 7704     		.2byte	0x477
 7223 11aa 71060000 		.4byte	0x671
 7224 11ae 3D090000 		.4byte	.LLST65
ARM GAS  C:\Users\164\AppData\Local\Temp\cc3ssgoH.s 			page 167


 7225 11b2 2F       		.uleb128 0x2f
 7226 11b3 F6050000 		.4byte	.LASF154
 7227 11b7 01       		.byte	0x1
 7228 11b8 7704     		.2byte	0x477
 7229 11ba 2C000000 		.4byte	0x2c
 7230 11be 82090000 		.4byte	.LLST66
 7231 11c2 2C       		.uleb128 0x2c
 7232 11c3 70617400 		.ascii	"pat\000"
 7233 11c7 01       		.byte	0x1
 7234 11c8 7E04     		.2byte	0x47e
 7235 11ca CB070000 		.4byte	0x7cb
 7236 11ce BC090000 		.4byte	.LLST67
 7237 11d2 2C       		.uleb128 0x2c
 7238 11d3 72657000 		.ascii	"rep\000"
 7239 11d7 01       		.byte	0x1
 7240 11d8 8104     		.2byte	0x481
 7241 11da CB070000 		.4byte	0x7cb
 7242 11de E6090000 		.4byte	.LLST68
 7243 11e2 2D       		.uleb128 0x2d
 7244 11e3 6F070000 		.4byte	.LASF165
 7245 11e7 01       		.byte	0x1
 7246 11e8 8304     		.2byte	0x483
 7247 11ea 2C000000 		.4byte	0x2c
 7248 11ee 040A0000 		.4byte	.LLST69
 7249 11f2 3B       		.uleb128 0x3b
 7250 11f3 7300     		.ascii	"s\000"
 7251 11f5 01       		.byte	0x1
 7252 11f6 8404     		.2byte	0x484
 7253 11f8 B2000000 		.4byte	0xb2
 7254 11fc 2C       		.uleb128 0x2c
 7255 11fd 6C656E00 		.ascii	"len\000"
 7256 1201 01       		.byte	0x1
 7257 1202 8504     		.2byte	0x485
 7258 1204 2C000000 		.4byte	0x2c
 7259 1208 3A0A0000 		.4byte	.LLST70
 7260 120c 2C       		.uleb128 0x2c
 7261 120d 6900     		.ascii	"i\000"
 7262 120f 01       		.byte	0x1
 7263 1210 8604     		.2byte	0x486
 7264 1212 2C000000 		.4byte	0x2c
 7265 1216 4D0A0000 		.4byte	.LLST71
 7266 121a 34       		.uleb128 0x34
 7267 121b 6D0F0000 		.4byte	0xf6d
 7268 121f 1E000000 		.4byte	.LBB225
 7269 1223 0A000000 		.4byte	.LBE225-.LBB225
 7270 1227 01       		.byte	0x1
 7271 1228 7A04     		.2byte	0x47a
 7272 122a 55120000 		.4byte	0x1255
 7273 122e 35       		.uleb128 0x35
 7274 122f 790F0000 		.4byte	0xf79
 7275 1233 6C0A0000 		.4byte	.LLST72
 7276 1237 39       		.uleb128 0x39
 7277 1238 28000000 		.4byte	.LVL146
 7278 123c DA390000 		.4byte	0x39da
 7279 1240 38       		.uleb128 0x38
 7280 1241 01       		.uleb128 0x1
 7281 1242 50       		.byte	0x50
ARM GAS  C:\Users\164\AppData\Local\Temp\cc3ssgoH.s 			page 168


 7282 1243 01       		.uleb128 0x1
 7283 1244 31       		.byte	0x31
 7284 1245 38       		.uleb128 0x38
 7285 1246 01       		.uleb128 0x1
 7286 1247 51       		.byte	0x51
 7287 1248 05       		.uleb128 0x5
 7288 1249 03       		.byte	0x3
 7289 124a 00000000 		.4byte	.LC0
 7290 124e 38       		.uleb128 0x38
 7291 124f 01       		.uleb128 0x1
 7292 1250 52       		.byte	0x52
 7293 1251 01       		.uleb128 0x1
 7294 1252 3E       		.byte	0x3e
 7295 1253 00       		.byte	0
 7296 1254 00       		.byte	0
 7297 1255 34       		.uleb128 0x34
 7298 1256 07080000 		.4byte	0x807
 7299 125a 4A000000 		.4byte	.LBB227
 7300 125e 06000000 		.4byte	.LBE227-.LBB227
 7301 1262 01       		.byte	0x1
 7302 1263 8404     		.2byte	0x484
 7303 1265 73120000 		.4byte	0x1273
 7304 1269 35       		.uleb128 0x35
 7305 126a 17080000 		.4byte	0x817
 7306 126e 840A0000 		.4byte	.LLST73
 7307 1272 00       		.byte	0
 7308 1273 34       		.uleb128 0x34
 7309 1274 E0070000 		.4byte	0x7e0
 7310 1278 50000000 		.4byte	.LBB229
 7311 127c 02000000 		.4byte	.LBE229-.LBB229
 7312 1280 01       		.byte	0x1
 7313 1281 8504     		.2byte	0x485
 7314 1283 91120000 		.4byte	0x1291
 7315 1287 35       		.uleb128 0x35
 7316 1288 F0070000 		.4byte	0x7f0
 7317 128c 970A0000 		.4byte	.LLST74
 7318 1290 00       		.byte	0
 7319 1291 36       		.uleb128 0x36
 7320 1292 58000000 		.4byte	.LBB231
 7321 1296 36000000 		.4byte	.LBE231-.LBB231
 7322 129a FA120000 		.4byte	0x12fa
 7323 129e 2C       		.uleb128 0x2c
 7324 129f 6E00     		.ascii	"n\000"
 7325 12a1 01       		.byte	0x1
 7326 12a2 8804     		.2byte	0x488
 7327 12a4 2C000000 		.4byte	0x2c
 7328 12a8 AA0A0000 		.4byte	.LLST75
 7329 12ac 37       		.uleb128 0x37
 7330 12ad 62000000 		.4byte	.LVL158
 7331 12b1 75090000 		.4byte	0x975
 7332 12b5 C1120000 		.4byte	0x12c1
 7333 12b9 38       		.uleb128 0x38
 7334 12ba 01       		.uleb128 0x1
 7335 12bb 50       		.byte	0x50
 7336 12bc 03       		.uleb128 0x3
 7337 12bd 91       		.byte	0x91
 7338 12be 54       		.sleb128 -44
ARM GAS  C:\Users\164\AppData\Local\Temp\cc3ssgoH.s 			page 169


 7339 12bf 06       		.byte	0x6
 7340 12c0 00       		.byte	0
 7341 12c1 37       		.uleb128 0x37
 7342 12c2 78000000 		.4byte	.LVL161
 7343 12c6 F0390000 		.4byte	0x39f0
 7344 12ca E9120000 		.4byte	0x12e9
 7345 12ce 38       		.uleb128 0x38
 7346 12cf 01       		.uleb128 0x1
 7347 12d0 50       		.byte	0x50
 7348 12d1 02       		.uleb128 0x2
 7349 12d2 76       		.byte	0x76
 7350 12d3 00       		.sleb128 0
 7351 12d4 38       		.uleb128 0x38
 7352 12d5 01       		.uleb128 0x1
 7353 12d6 51       		.byte	0x51
 7354 12d7 07       		.uleb128 0x7
 7355 12d8 75       		.byte	0x75
 7356 12d9 00       		.sleb128 0
 7357 12da 74       		.byte	0x74
 7358 12db 00       		.sleb128 0
 7359 12dc 22       		.byte	0x22
 7360 12dd 23       		.byte	0x23
 7361 12de 01       		.uleb128 0x1
 7362 12df 38       		.uleb128 0x38
 7363 12e0 01       		.uleb128 0x1
 7364 12e1 52       		.byte	0x52
 7365 12e2 05       		.uleb128 0x5
 7366 12e3 77       		.byte	0x77
 7367 12e4 00       		.sleb128 0
 7368 12e5 74       		.byte	0x74
 7369 12e6 00       		.sleb128 0
 7370 12e7 1C       		.byte	0x1c
 7371 12e8 00       		.byte	0
 7372 12e9 39       		.uleb128 0x39
 7373 12ea 88000000 		.4byte	.LVL166
 7374 12ee FC090000 		.4byte	0x9fc
 7375 12f2 38       		.uleb128 0x38
 7376 12f3 01       		.uleb128 0x1
 7377 12f4 50       		.byte	0x50
 7378 12f5 02       		.uleb128 0x2
 7379 12f6 78       		.byte	0x78
 7380 12f7 00       		.sleb128 0
 7381 12f8 00       		.byte	0
 7382 12f9 00       		.byte	0
 7383 12fa 37       		.uleb128 0x37
 7384 12fb 36000000 		.4byte	.LVL150
 7385 12ff A70A0000 		.4byte	0xaa7
 7386 1303 13130000 		.4byte	0x1313
 7387 1307 38       		.uleb128 0x38
 7388 1308 01       		.uleb128 0x1
 7389 1309 51       		.byte	0x51
 7390 130a 02       		.uleb128 0x2
 7391 130b 7B       		.byte	0x7b
 7392 130c 10       		.sleb128 16
 7393 130d 38       		.uleb128 0x38
 7394 130e 01       		.uleb128 0x1
 7395 130f 52       		.byte	0x52
ARM GAS  C:\Users\164\AppData\Local\Temp\cc3ssgoH.s 			page 170


 7396 1310 01       		.uleb128 0x1
 7397 1311 31       		.byte	0x31
 7398 1312 00       		.byte	0
 7399 1313 37       		.uleb128 0x37
 7400 1314 48000000 		.4byte	.LVL152
 7401 1318 A70A0000 		.4byte	0xaa7
 7402 131c 32130000 		.4byte	0x1332
 7403 1320 38       		.uleb128 0x38
 7404 1321 01       		.uleb128 0x1
 7405 1322 50       		.byte	0x50
 7406 1323 02       		.uleb128 0x2
 7407 1324 74       		.byte	0x74
 7408 1325 00       		.sleb128 0
 7409 1326 38       		.uleb128 0x38
 7410 1327 01       		.uleb128 0x1
 7411 1328 51       		.byte	0x51
 7412 1329 02       		.uleb128 0x2
 7413 132a 7B       		.byte	0x7b
 7414 132b 20       		.sleb128 32
 7415 132c 38       		.uleb128 0x38
 7416 132d 01       		.uleb128 0x1
 7417 132e 52       		.byte	0x52
 7418 132f 01       		.uleb128 0x1
 7419 1330 30       		.byte	0x30
 7420 1331 00       		.byte	0
 7421 1332 37       		.uleb128 0x37
 7422 1333 9A000000 		.4byte	.LVL169
 7423 1337 5F0A0000 		.4byte	0xa5f
 7424 133b 47130000 		.4byte	0x1347
 7425 133f 38       		.uleb128 0x38
 7426 1340 01       		.uleb128 0x1
 7427 1341 50       		.byte	0x50
 7428 1342 03       		.uleb128 0x3
 7429 1343 91       		.byte	0x91
 7430 1344 54       		.sleb128 -44
 7431 1345 06       		.byte	0x6
 7432 1346 00       		.byte	0
 7433 1347 39       		.uleb128 0x39
 7434 1348 A0000000 		.4byte	.LVL170
 7435 134c 5F0A0000 		.4byte	0xa5f
 7436 1350 38       		.uleb128 0x38
 7437 1351 01       		.uleb128 0x1
 7438 1352 50       		.byte	0x50
 7439 1353 02       		.uleb128 0x2
 7440 1354 78       		.byte	0x78
 7441 1355 00       		.sleb128 0
 7442 1356 00       		.byte	0
 7443 1357 00       		.byte	0
 7444 1358 31       		.uleb128 0x31
 7445 1359 3A010000 		.4byte	.LASF166
 7446 135d 01       		.byte	0x1
 7447 135e A904     		.2byte	0x4a9
 7448 1360 00000000 		.4byte	.LFB129
 7449 1364 16000000 		.4byte	.LFE129-.LFB129
 7450 1368 01       		.uleb128 0x1
 7451 1369 9C       		.byte	0x9c
 7452 136a DE130000 		.4byte	0x13de
ARM GAS  C:\Users\164\AppData\Local\Temp\cc3ssgoH.s 			page 171


 7453 136e 2A       		.uleb128 0x2a
 7454 136f 766D00   		.ascii	"vm\000"
 7455 1372 01       		.byte	0x1
 7456 1373 A904     		.2byte	0x4a9
 7457 1375 56010000 		.4byte	0x156
 7458 1379 D30A0000 		.4byte	.LLST76
 7459 137d 2A       		.uleb128 0x2a
 7460 137e 7600     		.ascii	"v\000"
 7461 1380 01       		.byte	0x1
 7462 1381 A904     		.2byte	0x4a9
 7463 1383 71060000 		.4byte	0x671
 7464 1387 F40A0000 		.4byte	.LLST77
 7465 138b 2F       		.uleb128 0x2f
 7466 138c F6050000 		.4byte	.LASF154
 7467 1390 01       		.byte	0x1
 7468 1391 A904     		.2byte	0x4a9
 7469 1393 2C000000 		.4byte	0x2c
 7470 1397 120B0000 		.4byte	.LLST78
 7471 139b 2D       		.uleb128 0x2d
 7472 139c 6F070000 		.4byte	.LASF165
 7473 13a0 01       		.byte	0x1
 7474 13a1 AB04     		.2byte	0x4ab
 7475 13a3 2C000000 		.4byte	0x2c
 7476 13a7 330B0000 		.4byte	.LLST79
 7477 13ab 37       		.uleb128 0x37
 7478 13ac 08000000 		.4byte	.LVL174
 7479 13b0 7B110000 		.4byte	0x117b
 7480 13b4 CD130000 		.4byte	0x13cd
 7481 13b8 38       		.uleb128 0x38
 7482 13b9 01       		.uleb128 0x1
 7483 13ba 50       		.byte	0x50
 7484 13bb 03       		.uleb128 0x3
 7485 13bc F3       		.byte	0xf3
 7486 13bd 01       		.uleb128 0x1
 7487 13be 50       		.byte	0x50
 7488 13bf 38       		.uleb128 0x38
 7489 13c0 01       		.uleb128 0x1
 7490 13c1 51       		.byte	0x51
 7491 13c2 02       		.uleb128 0x2
 7492 13c3 74       		.byte	0x74
 7493 13c4 00       		.sleb128 0
 7494 13c5 38       		.uleb128 0x38
 7495 13c6 01       		.uleb128 0x1
 7496 13c7 52       		.byte	0x52
 7497 13c8 03       		.uleb128 0x3
 7498 13c9 F3       		.byte	0xf3
 7499 13ca 01       		.uleb128 0x1
 7500 13cb 52       		.byte	0x52
 7501 13cc 00       		.byte	0
 7502 13cd 39       		.uleb128 0x39
 7503 13ce 10000000 		.4byte	.LVL176
 7504 13d2 AE390000 		.4byte	0x39ae
 7505 13d6 38       		.uleb128 0x38
 7506 13d7 01       		.uleb128 0x1
 7507 13d8 50       		.byte	0x50
 7508 13d9 02       		.uleb128 0x2
 7509 13da 74       		.byte	0x74
ARM GAS  C:\Users\164\AppData\Local\Temp\cc3ssgoH.s 			page 172


 7510 13db 00       		.sleb128 0
 7511 13dc 00       		.byte	0
 7512 13dd 00       		.byte	0
 7513 13de 31       		.uleb128 0x31
 7514 13df 17040000 		.4byte	.LASF167
 7515 13e3 01       		.byte	0x1
 7516 13e4 1002     		.2byte	0x210
 7517 13e6 00000000 		.4byte	.LFB106
 7518 13ea E0000000 		.4byte	.LFE106-.LFB106
 7519 13ee 01       		.uleb128 0x1
 7520 13ef 9C       		.byte	0x9c
 7521 13f0 7C150000 		.4byte	0x157c
 7522 13f4 2A       		.uleb128 0x2a
 7523 13f5 766D00   		.ascii	"vm\000"
 7524 13f8 01       		.byte	0x1
 7525 13f9 1002     		.2byte	0x210
 7526 13fb 56010000 		.4byte	0x156
 7527 13ff 460B0000 		.4byte	.LLST80
 7528 1403 2A       		.uleb128 0x2a
 7529 1404 7600     		.ascii	"v\000"
 7530 1406 01       		.byte	0x1
 7531 1407 1002     		.2byte	0x210
 7532 1409 71060000 		.4byte	0x671
 7533 140d 990B0000 		.4byte	.LLST81
 7534 1411 2F       		.uleb128 0x2f
 7535 1412 F6050000 		.4byte	.LASF154
 7536 1416 01       		.byte	0x1
 7537 1417 1002     		.2byte	0x210
 7538 1419 2C000000 		.4byte	0x2c
 7539 141d F10B0000 		.4byte	.LLST82
 7540 1421 2C       		.uleb128 0x2c
 7541 1422 6E746800 		.ascii	"nth\000"
 7542 1426 01       		.byte	0x1
 7543 1427 1202     		.2byte	0x212
 7544 1429 2C000000 		.4byte	0x2c
 7545 142d 2B0C0000 		.4byte	.LLST83
 7546 1431 2C       		.uleb128 0x2c
 7547 1432 6C656E00 		.ascii	"len\000"
 7548 1436 01       		.byte	0x1
 7549 1437 1302     		.2byte	0x213
 7550 1439 2C000000 		.4byte	0x2c
 7551 143d 540C0000 		.4byte	.LLST84
 7552 1441 2C       		.uleb128 0x2c
 7553 1442 76616C00 		.ascii	"val\000"
 7554 1446 01       		.byte	0x1
 7555 1447 1402     		.2byte	0x214
 7556 1449 71060000 		.4byte	0x671
 7557 144d 7E0C0000 		.4byte	.LLST85
 7558 1451 2D       		.uleb128 0x2d
 7559 1452 C7070000 		.4byte	.LASF168
 7560 1456 01       		.byte	0x1
 7561 1457 3302     		.2byte	0x233
 7562 1459 2C000000 		.4byte	0x2c
 7563 145d A70C0000 		.4byte	.LLST86
 7564 1461 2D       		.uleb128 0x2d
 7565 1462 C2070000 		.4byte	.LASF169
 7566 1466 01       		.byte	0x1
ARM GAS  C:\Users\164\AppData\Local\Temp\cc3ssgoH.s 			page 173


 7567 1467 3402     		.2byte	0x234
 7568 1469 2C000000 		.4byte	0x2c
 7569 146d BA0C0000 		.4byte	.LLST87
 7570 1471 2C       		.uleb128 0x2c
 7571 1472 73747200 		.ascii	"str\000"
 7572 1476 01       		.byte	0x1
 7573 1477 3C02     		.2byte	0x23c
 7574 1479 EE050000 		.4byte	0x5ee
 7575 147d CD0C0000 		.4byte	.LLST88
 7576 1481 34       		.uleb128 0x34
 7577 1482 6D0F0000 		.4byte	0xf6d
 7578 1486 4A000000 		.4byte	.LBB240
 7579 148a 0E000000 		.4byte	.LBE240-.LBB240
 7580 148e 01       		.byte	0x1
 7581 148f 2F02     		.2byte	0x22f
 7582 1491 BC140000 		.4byte	0x14bc
 7583 1495 35       		.uleb128 0x35
 7584 1496 790F0000 		.4byte	0xf79
 7585 149a EB0C0000 		.4byte	.LLST89
 7586 149e 39       		.uleb128 0x39
 7587 149f 54000000 		.4byte	.LVL188
 7588 14a3 DA390000 		.4byte	0x39da
 7589 14a7 38       		.uleb128 0x38
 7590 14a8 01       		.uleb128 0x1
 7591 14a9 50       		.byte	0x50
 7592 14aa 01       		.uleb128 0x1
 7593 14ab 31       		.byte	0x31
 7594 14ac 38       		.uleb128 0x38
 7595 14ad 01       		.uleb128 0x1
 7596 14ae 51       		.byte	0x51
 7597 14af 05       		.uleb128 0x5
 7598 14b0 03       		.byte	0x3
 7599 14b1 10000000 		.4byte	.LC1
 7600 14b5 38       		.uleb128 0x38
 7601 14b6 01       		.uleb128 0x1
 7602 14b7 52       		.byte	0x52
 7603 14b8 01       		.uleb128 0x1
 7604 14b9 3C       		.byte	0x3c
 7605 14ba 00       		.byte	0
 7606 14bb 00       		.byte	0
 7607 14bc 34       		.uleb128 0x34
 7608 14bd 6D0F0000 		.4byte	0xf6d
 7609 14c1 80000000 		.4byte	.LBB242
 7610 14c5 0E000000 		.4byte	.LBE242-.LBB242
 7611 14c9 01       		.byte	0x1
 7612 14ca 3802     		.2byte	0x238
 7613 14cc F7140000 		.4byte	0x14f7
 7614 14d0 35       		.uleb128 0x35
 7615 14d1 790F0000 		.4byte	0xf79
 7616 14d5 030D0000 		.4byte	.LLST90
 7617 14d9 39       		.uleb128 0x39
 7618 14da 8A000000 		.4byte	.LVL198
 7619 14de DA390000 		.4byte	0x39da
 7620 14e2 38       		.uleb128 0x38
 7621 14e3 01       		.uleb128 0x1
 7622 14e4 50       		.byte	0x50
 7623 14e5 01       		.uleb128 0x1
ARM GAS  C:\Users\164\AppData\Local\Temp\cc3ssgoH.s 			page 174


 7624 14e6 31       		.byte	0x31
 7625 14e7 38       		.uleb128 0x38
 7626 14e8 01       		.uleb128 0x1
 7627 14e9 51       		.byte	0x51
 7628 14ea 05       		.uleb128 0x5
 7629 14eb 03       		.byte	0x3
 7630 14ec 20000000 		.4byte	.LC2
 7631 14f0 38       		.uleb128 0x38
 7632 14f1 01       		.uleb128 0x1
 7633 14f2 52       		.byte	0x52
 7634 14f3 01       		.uleb128 0x1
 7635 14f4 3B       		.byte	0x3b
 7636 14f5 00       		.byte	0
 7637 14f6 00       		.byte	0
 7638 14f7 34       		.uleb128 0x34
 7639 14f8 07080000 		.4byte	0x807
 7640 14fc B4000000 		.4byte	.LBB244
 7641 1500 04000000 		.4byte	.LBE244-.LBB244
 7642 1504 01       		.byte	0x1
 7643 1505 4002     		.2byte	0x240
 7644 1507 15150000 		.4byte	0x1515
 7645 150b 35       		.uleb128 0x35
 7646 150c 17080000 		.4byte	0x817
 7647 1510 1B0D0000 		.4byte	.LLST91
 7648 1514 00       		.byte	0
 7649 1515 37       		.uleb128 0x37
 7650 1516 9C000000 		.4byte	.LVL201
 7651 151a FB390000 		.4byte	0x39fb
 7652 151e 31150000 		.4byte	0x1531
 7653 1522 38       		.uleb128 0x38
 7654 1523 01       		.uleb128 0x1
 7655 1524 52       		.byte	0x52
 7656 1525 0A       		.uleb128 0xa
 7657 1526 77       		.byte	0x77
 7658 1527 00       		.sleb128 0
 7659 1528 76       		.byte	0x76
 7660 1529 00       		.sleb128 0
 7661 152a 1C       		.byte	0x1c
 7662 152b 79       		.byte	0x79
 7663 152c 00       		.sleb128 0
 7664 152d 22       		.byte	0x22
 7665 152e 23       		.byte	0x23
 7666 152f 01       		.uleb128 0x1
 7667 1530 00       		.byte	0
 7668 1531 37       		.uleb128 0x37
 7669 1532 B4000000 		.4byte	.LVL203
 7670 1536 F0390000 		.4byte	0x39f0
 7671 153a 62150000 		.4byte	0x1562
 7672 153e 38       		.uleb128 0x38
 7673 153f 01       		.uleb128 0x1
 7674 1540 50       		.byte	0x50
 7675 1541 08       		.uleb128 0x8
 7676 1542 7B       		.byte	0x7b
 7677 1543 00       		.sleb128 0
 7678 1544 75       		.byte	0x75
 7679 1545 00       		.sleb128 0
 7680 1546 22       		.byte	0x22
ARM GAS  C:\Users\164\AppData\Local\Temp\cc3ssgoH.s 			page 175


 7681 1547 79       		.byte	0x79
 7682 1548 00       		.sleb128 0
 7683 1549 22       		.byte	0x22
 7684 154a 38       		.uleb128 0x38
 7685 154b 01       		.uleb128 0x1
 7686 154c 51       		.byte	0x51
 7687 154d 08       		.uleb128 0x8
 7688 154e 7B       		.byte	0x7b
 7689 154f 00       		.sleb128 0
 7690 1550 75       		.byte	0x75
 7691 1551 00       		.sleb128 0
 7692 1552 22       		.byte	0x22
 7693 1553 76       		.byte	0x76
 7694 1554 00       		.sleb128 0
 7695 1555 22       		.byte	0x22
 7696 1556 38       		.uleb128 0x38
 7697 1557 01       		.uleb128 0x1
 7698 1558 52       		.byte	0x52
 7699 1559 07       		.uleb128 0x7
 7700 155a 78       		.byte	0x78
 7701 155b 00       		.sleb128 0
 7702 155c 76       		.byte	0x76
 7703 155d 00       		.sleb128 0
 7704 155e 1C       		.byte	0x1c
 7705 155f 23       		.byte	0x23
 7706 1560 01       		.uleb128 0x1
 7707 1561 00       		.byte	0
 7708 1562 39       		.uleb128 0x39
 7709 1563 C4000000 		.4byte	.LVL205
 7710 1567 A5390000 		.4byte	0x39a5
 7711 156b 38       		.uleb128 0x38
 7712 156c 01       		.uleb128 0x1
 7713 156d 50       		.byte	0x50
 7714 156e 05       		.uleb128 0x5
 7715 156f 7B       		.byte	0x7b
 7716 1570 00       		.sleb128 0
 7717 1571 75       		.byte	0x75
 7718 1572 00       		.sleb128 0
 7719 1573 22       		.byte	0x22
 7720 1574 38       		.uleb128 0x38
 7721 1575 01       		.uleb128 0x1
 7722 1576 52       		.byte	0x52
 7723 1577 02       		.uleb128 0x2
 7724 1578 79       		.byte	0x79
 7725 1579 00       		.sleb128 0
 7726 157a 00       		.byte	0
 7727 157b 00       		.byte	0
 7728 157c 3C       		.uleb128 0x3c
 7729 157d 54040000 		.4byte	.LASF173
 7730 1581 01       		.byte	0x1
 7731 1582 3A       		.byte	0x3a
 7732 1583 20050000 		.4byte	0x520
 7733 1587 00000000 		.4byte	.LFB87
 7734 158b 66000000 		.4byte	.LFE87-.LFB87
 7735 158f 01       		.uleb128 0x1
 7736 1590 9C       		.byte	0x9c
 7737 1591 4A160000 		.4byte	0x164a
ARM GAS  C:\Users\164\AppData\Local\Temp\cc3ssgoH.s 			page 176


 7738 1595 26       		.uleb128 0x26
 7739 1596 766D00   		.ascii	"vm\000"
 7740 1599 01       		.byte	0x1
 7741 159a 3A       		.byte	0x3a
 7742 159b 56010000 		.4byte	0x156
 7743 159f 2E0D0000 		.4byte	.LLST92
 7744 15a3 26       		.uleb128 0x26
 7745 15a4 73726300 		.ascii	"src\000"
 7746 15a8 01       		.byte	0x1
 7747 15a9 3A       		.byte	0x3a
 7748 15aa CA000000 		.4byte	0xca
 7749 15ae 5A0D0000 		.4byte	.LLST93
 7750 15b2 26       		.uleb128 0x26
 7751 15b3 6C656E00 		.ascii	"len\000"
 7752 15b7 01       		.byte	0x1
 7753 15b8 3A       		.byte	0x3a
 7754 15b9 2C000000 		.4byte	0x2c
 7755 15bd 780D0000 		.4byte	.LLST94
 7756 15c1 3D       		.uleb128 0x3d
 7757 15c2 74030000 		.4byte	.LASF170
 7758 15c6 01       		.byte	0x1
 7759 15c7 3C       		.byte	0x3c
 7760 15c8 20050000 		.4byte	0x520
 7761 15cc 960D0000 		.4byte	.LLST95
 7762 15d0 28       		.uleb128 0x28
 7763 15d1 6800     		.ascii	"h\000"
 7764 15d3 01       		.byte	0x1
 7765 15d4 41       		.byte	0x41
 7766 15d5 4A160000 		.4byte	0x164a
 7767 15d9 B60D0000 		.4byte	.LLST96
 7768 15dd 28       		.uleb128 0x28
 7769 15de 73747200 		.ascii	"str\000"
 7770 15e2 01       		.byte	0x1
 7771 15e3 45       		.byte	0x45
 7772 15e4 EE050000 		.4byte	0x5ee
 7773 15e8 D40D0000 		.4byte	.LLST97
 7774 15ec 37       		.uleb128 0x37
 7775 15ed 22000000 		.4byte	.LVL213
 7776 15f1 9A390000 		.4byte	0x399a
 7777 15f5 05160000 		.4byte	0x1605
 7778 15f9 38       		.uleb128 0x38
 7779 15fa 01       		.uleb128 0x1
 7780 15fb 50       		.byte	0x50
 7781 15fc 02       		.uleb128 0x2
 7782 15fd 77       		.byte	0x77
 7783 15fe 00       		.sleb128 0
 7784 15ff 38       		.uleb128 0x38
 7785 1600 01       		.uleb128 0x1
 7786 1601 51       		.byte	0x51
 7787 1602 01       		.uleb128 0x1
 7788 1603 3C       		.byte	0x3c
 7789 1604 00       		.byte	0
 7790 1605 37       		.uleb128 0x37
 7791 1606 2E000000 		.4byte	.LVL215
 7792 160a 9A390000 		.4byte	0x399a
 7793 160e 1F160000 		.4byte	0x161f
 7794 1612 38       		.uleb128 0x38
ARM GAS  C:\Users\164\AppData\Local\Temp\cc3ssgoH.s 			page 177


 7795 1613 01       		.uleb128 0x1
 7796 1614 50       		.byte	0x50
 7797 1615 02       		.uleb128 0x2
 7798 1616 77       		.byte	0x77
 7799 1617 00       		.sleb128 0
 7800 1618 38       		.uleb128 0x38
 7801 1619 01       		.uleb128 0x1
 7802 161a 51       		.byte	0x51
 7803 161b 02       		.uleb128 0x2
 7804 161c 76       		.byte	0x76
 7805 161d 01       		.sleb128 1
 7806 161e 00       		.byte	0
 7807 161f 37       		.uleb128 0x37
 7808 1620 38000000 		.4byte	.LVL218
 7809 1624 8F390000 		.4byte	0x398f
 7810 1628 33160000 		.4byte	0x1633
 7811 162c 38       		.uleb128 0x38
 7812 162d 01       		.uleb128 0x1
 7813 162e 50       		.byte	0x50
 7814 162f 02       		.uleb128 0x2
 7815 1630 75       		.byte	0x75
 7816 1631 00       		.sleb128 0
 7817 1632 00       		.byte	0
 7818 1633 39       		.uleb128 0x39
 7819 1634 5A000000 		.4byte	.LVL220
 7820 1638 A5390000 		.4byte	0x39a5
 7821 163c 38       		.uleb128 0x38
 7822 163d 01       		.uleb128 0x1
 7823 163e 51       		.byte	0x51
 7824 163f 02       		.uleb128 0x2
 7825 1640 78       		.byte	0x78
 7826 1641 00       		.sleb128 0
 7827 1642 38       		.uleb128 0x38
 7828 1643 01       		.uleb128 0x1
 7829 1644 52       		.byte	0x52
 7830 1645 02       		.uleb128 0x2
 7831 1646 76       		.byte	0x76
 7832 1647 00       		.sleb128 0
 7833 1648 00       		.byte	0
 7834 1649 00       		.byte	0
 7835 164a 06       		.uleb128 0x6
 7836 164b 04       		.byte	0x4
 7837 164c AE060000 		.4byte	0x6ae
 7838 1650 31       		.uleb128 0x31
 7839 1651 540B0000 		.4byte	.LASF171
 7840 1655 01       		.byte	0x1
 7841 1656 CC01     		.2byte	0x1cc
 7842 1658 00000000 		.4byte	.LFB105
 7843 165c F0000000 		.4byte	.LFE105-.LFB105
 7844 1660 01       		.uleb128 0x1
 7845 1661 9C       		.byte	0x9c
 7846 1662 35180000 		.4byte	0x1835
 7847 1666 2A       		.uleb128 0x2a
 7848 1667 766D00   		.ascii	"vm\000"
 7849 166a 01       		.byte	0x1
 7850 166b CC01     		.2byte	0x1cc
 7851 166d 56010000 		.4byte	0x156
ARM GAS  C:\Users\164\AppData\Local\Temp\cc3ssgoH.s 			page 178


 7852 1671 080E0000 		.4byte	.LLST98
 7853 1675 2A       		.uleb128 0x2a
 7854 1676 7600     		.ascii	"v\000"
 7855 1678 01       		.byte	0x1
 7856 1679 CC01     		.2byte	0x1cc
 7857 167b 71060000 		.4byte	0x671
 7858 167f 710E0000 		.4byte	.LLST99
 7859 1683 2F       		.uleb128 0x2f
 7860 1684 F6050000 		.4byte	.LASF154
 7861 1688 01       		.byte	0x1
 7862 1689 CC01     		.2byte	0x1cc
 7863 168b 2C000000 		.4byte	0x2c
 7864 168f C90E0000 		.4byte	.LLST100
 7865 1693 2C       		.uleb128 0x2c
 7866 1694 763100   		.ascii	"v1\000"
 7867 1697 01       		.byte	0x1
 7868 1698 CE01     		.2byte	0x1ce
 7869 169a 71060000 		.4byte	0x671
 7870 169e 1C0F0000 		.4byte	.LLST101
 7871 16a2 2C       		.uleb128 0x2c
 7872 16a3 763200   		.ascii	"v2\000"
 7873 16a6 01       		.byte	0x1
 7874 16a7 CF01     		.2byte	0x1cf
 7875 16a9 71060000 		.4byte	0x671
 7876 16ad 820F0000 		.4byte	.LLST102
 7877 16b1 3E       		.uleb128 0x3e
 7878 16b2 73080000 		.4byte	.LASF180
 7879 16b6 01       		.byte	0x1
 7880 16b7 0802     		.2byte	0x208
 7881 16b9 DC000000 		.4byte	.L131
 7882 16bd 36       		.uleb128 0x36
 7883 16be 12000000 		.4byte	.LBB252
 7884 16c2 62000000 		.4byte	.LBE252-.LBB252
 7885 16c6 57170000 		.4byte	0x1757
 7886 16ca 2C       		.uleb128 0x2c
 7887 16cb 6C656E00 		.ascii	"len\000"
 7888 16cf 01       		.byte	0x1
 7889 16d0 D501     		.2byte	0x1d5
 7890 16d2 2C000000 		.4byte	0x2c
 7891 16d6 E80F0000 		.4byte	.LLST103
 7892 16da 2C       		.uleb128 0x2c
 7893 16db 69647800 		.ascii	"idx\000"
 7894 16df 01       		.byte	0x1
 7895 16e0 D601     		.2byte	0x1d6
 7896 16e2 2C000000 		.4byte	0x2c
 7897 16e6 60100000 		.4byte	.LLST104
 7898 16ea 2C       		.uleb128 0x2c
 7899 16eb 636800   		.ascii	"ch\000"
 7900 16ee 01       		.byte	0x1
 7901 16ef D701     		.2byte	0x1d7
 7902 16f1 2C000000 		.4byte	0x2c
 7903 16f5 8E100000 		.4byte	.LLST105
 7904 16f9 3F       		.uleb128 0x3f
 7905 16fa 74030000 		.4byte	.LASF170
 7906 16fe 01       		.byte	0x1
 7907 16ff E401     		.2byte	0x1e4
 7908 1701 20050000 		.4byte	0x520
ARM GAS  C:\Users\164\AppData\Local\Temp\cc3ssgoH.s 			page 179


 7909 1705 02       		.uleb128 0x2
 7910 1706 91       		.byte	0x91
 7911 1707 50       		.sleb128 -48
 7912 1708 36       		.uleb128 0x36
 7913 1709 5A000000 		.4byte	.LBB253
 7914 170d 1A000000 		.4byte	.LBE253-.LBB253
 7915 1711 35170000 		.4byte	0x1735
 7916 1715 3A       		.uleb128 0x3a
 7917 1716 6E6E6E00 		.ascii	"nnn\000"
 7918 171a 01       		.byte	0x1
 7919 171b E901     		.2byte	0x1e9
 7920 171d 20050000 		.4byte	0x520
 7921 1721 02       		.uleb128 0x2
 7922 1722 91       		.byte	0x91
 7923 1723 60       		.sleb128 -32
 7924 1724 39       		.uleb128 0x39
 7925 1725 6A000000 		.4byte	.LVL240
 7926 1729 AE390000 		.4byte	0x39ae
 7927 172d 38       		.uleb128 0x38
 7928 172e 01       		.uleb128 0x1
 7929 172f 50       		.byte	0x50
 7930 1730 02       		.uleb128 0x2
 7931 1731 74       		.byte	0x74
 7932 1732 00       		.sleb128 0
 7933 1733 00       		.byte	0
 7934 1734 00       		.byte	0
 7935 1735 39       		.uleb128 0x39
 7936 1736 4A000000 		.4byte	.LVL238
 7937 173a 7C150000 		.4byte	0x157c
 7938 173e 38       		.uleb128 0x38
 7939 173f 01       		.uleb128 0x1
 7940 1740 50       		.byte	0x50
 7941 1741 02       		.uleb128 0x2
 7942 1742 7D       		.byte	0x7d
 7943 1743 00       		.sleb128 0
 7944 1744 38       		.uleb128 0x38
 7945 1745 01       		.uleb128 0x1
 7946 1746 51       		.byte	0x51
 7947 1747 03       		.uleb128 0x3
 7948 1748 F3       		.byte	0xf3
 7949 1749 01       		.uleb128 0x1
 7950 174a 50       		.byte	0x50
 7951 174b 38       		.uleb128 0x38
 7952 174c 01       		.uleb128 0x1
 7953 174d 52       		.byte	0x52
 7954 174e 01       		.uleb128 0x1
 7955 174f 30       		.byte	0x30
 7956 1750 38       		.uleb128 0x38
 7957 1751 01       		.uleb128 0x1
 7958 1752 53       		.byte	0x53
 7959 1753 01       		.uleb128 0x1
 7960 1754 31       		.byte	0x31
 7961 1755 00       		.byte	0
 7962 1756 00       		.byte	0
 7963 1757 36       		.uleb128 0x36
 7964 1758 88000000 		.4byte	.LBB254
 7965 175c 48000000 		.4byte	.LBE254-.LBB254
ARM GAS  C:\Users\164\AppData\Local\Temp\cc3ssgoH.s 			page 180


 7966 1760 E8170000 		.4byte	0x17e8
 7967 1764 2C       		.uleb128 0x2c
 7968 1765 6C656E00 		.ascii	"len\000"
 7969 1769 01       		.byte	0x1
 7970 176a F101     		.2byte	0x1f1
 7971 176c 2C000000 		.4byte	0x2c
 7972 1770 DE100000 		.4byte	.LLST106
 7973 1774 2C       		.uleb128 0x2c
 7974 1775 69647800 		.ascii	"idx\000"
 7975 1779 01       		.byte	0x1
 7976 177a F201     		.2byte	0x1f2
 7977 177c 2C000000 		.4byte	0x2c
 7978 1780 04110000 		.4byte	.LLST107
 7979 1784 2D       		.uleb128 0x2d
 7980 1785 17010000 		.4byte	.LASF103
 7981 1789 01       		.byte	0x1
 7982 178a F601     		.2byte	0x1f6
 7983 178c 2C000000 		.4byte	0x2c
 7984 1790 17110000 		.4byte	.LLST108
 7985 1794 3F       		.uleb128 0x3f
 7986 1795 74030000 		.4byte	.LASF170
 7987 1799 01       		.byte	0x1
 7988 179a FA01     		.2byte	0x1fa
 7989 179c 20050000 		.4byte	0x520
 7990 17a0 02       		.uleb128 0x2
 7991 17a1 91       		.byte	0x91
 7992 17a2 50       		.sleb128 -48
 7993 17a3 36       		.uleb128 0x36
 7994 17a4 B6000000 		.4byte	.LBB255
 7995 17a8 1A000000 		.4byte	.LBE255-.LBB255
 7996 17ac D0170000 		.4byte	0x17d0
 7997 17b0 3A       		.uleb128 0x3a
 7998 17b1 6E6E6E00 		.ascii	"nnn\000"
 7999 17b5 01       		.byte	0x1
 8000 17b6 FD01     		.2byte	0x1fd
 8001 17b8 20050000 		.4byte	0x520
 8002 17bc 02       		.uleb128 0x2
 8003 17bd 91       		.byte	0x91
 8004 17be 60       		.sleb128 -32
 8005 17bf 39       		.uleb128 0x39
 8006 17c0 C6000000 		.4byte	.LVL251
 8007 17c4 AE390000 		.4byte	0x39ae
 8008 17c8 38       		.uleb128 0x38
 8009 17c9 01       		.uleb128 0x1
 8010 17ca 50       		.byte	0x50
 8011 17cb 02       		.uleb128 0x2
 8012 17cc 74       		.byte	0x74
 8013 17cd 00       		.sleb128 0
 8014 17ce 00       		.byte	0
 8015 17cf 00       		.byte	0
 8016 17d0 39       		.uleb128 0x39
 8017 17d1 B2000000 		.4byte	.LVL250
 8018 17d5 7C150000 		.4byte	0x157c
 8019 17d9 38       		.uleb128 0x38
 8020 17da 01       		.uleb128 0x1
 8021 17db 50       		.byte	0x50
 8022 17dc 02       		.uleb128 0x2
ARM GAS  C:\Users\164\AppData\Local\Temp\cc3ssgoH.s 			page 181


 8023 17dd 7D       		.byte	0x7d
 8024 17de 00       		.sleb128 0
 8025 17df 38       		.uleb128 0x38
 8026 17e0 01       		.uleb128 0x1
 8027 17e1 51       		.byte	0x51
 8028 17e2 03       		.uleb128 0x3
 8029 17e3 F3       		.byte	0xf3
 8030 17e4 01       		.uleb128 0x1
 8031 17e5 50       		.byte	0x50
 8032 17e6 00       		.byte	0
 8033 17e7 00       		.byte	0
 8034 17e8 34       		.uleb128 0x34
 8035 17e9 6D0F0000 		.4byte	0xf6d
 8036 17ed D0000000 		.4byte	.LBB256
 8037 17f1 0C000000 		.4byte	.LBE256-.LBB256
 8038 17f5 01       		.byte	0x1
 8039 17f6 0402     		.2byte	0x204
 8040 17f8 24180000 		.4byte	0x1824
 8041 17fc 35       		.uleb128 0x35
 8042 17fd 790F0000 		.4byte	0xf79
 8043 1801 2A110000 		.4byte	.LLST109
 8044 1805 39       		.uleb128 0x39
 8045 1806 DA000000 		.4byte	.LVL256
 8046 180a DA390000 		.4byte	0x39da
 8047 180e 38       		.uleb128 0x38
 8048 180f 01       		.uleb128 0x1
 8049 1810 50       		.byte	0x50
 8050 1811 01       		.uleb128 0x1
 8051 1812 31       		.byte	0x31
 8052 1813 38       		.uleb128 0x38
 8053 1814 01       		.uleb128 0x1
 8054 1815 51       		.byte	0x51
 8055 1816 05       		.uleb128 0x5
 8056 1817 03       		.byte	0x3
 8057 1818 2C000000 		.4byte	.LC3
 8058 181c 38       		.uleb128 0x38
 8059 181d 01       		.uleb128 0x1
 8060 181e 52       		.byte	0x52
 8061 181f 02       		.uleb128 0x2
 8062 1820 08       		.byte	0x8
 8063 1821 24       		.byte	0x24
 8064 1822 00       		.byte	0
 8065 1823 00       		.byte	0
 8066 1824 39       		.uleb128 0x39
 8067 1825 E2000000 		.4byte	.LVL258
 8068 1829 AE390000 		.4byte	0x39ae
 8069 182d 38       		.uleb128 0x38
 8070 182e 01       		.uleb128 0x1
 8071 182f 50       		.byte	0x50
 8072 1830 02       		.uleb128 0x2
 8073 1831 74       		.byte	0x74
 8074 1832 00       		.sleb128 0
 8075 1833 00       		.byte	0
 8076 1834 00       		.byte	0
 8077 1835 31       		.uleb128 0x31
 8078 1836 32040000 		.4byte	.LASF172
 8079 183a 01       		.byte	0x1
ARM GAS  C:\Users\164\AppData\Local\Temp\cc3ssgoH.s 			page 182


 8080 183b 7501     		.2byte	0x175
 8081 183d 00000000 		.4byte	.LFB100
 8082 1841 88000000 		.4byte	.LFE100-.LFB100
 8083 1845 01       		.uleb128 0x1
 8084 1846 9C       		.byte	0x9c
 8085 1847 AD190000 		.4byte	0x19ad
 8086 184b 2A       		.uleb128 0x2a
 8087 184c 766D00   		.ascii	"vm\000"
 8088 184f 01       		.byte	0x1
 8089 1850 7501     		.2byte	0x175
 8090 1852 56010000 		.4byte	0x156
 8091 1856 42110000 		.4byte	.LLST110
 8092 185a 2A       		.uleb128 0x2a
 8093 185b 7600     		.ascii	"v\000"
 8094 185d 01       		.byte	0x1
 8095 185e 7501     		.2byte	0x175
 8096 1860 71060000 		.4byte	0x671
 8097 1864 A0110000 		.4byte	.LLST111
 8098 1868 2F       		.uleb128 0x2f
 8099 1869 F6050000 		.4byte	.LASF154
 8100 186d 01       		.byte	0x1
 8101 186e 7501     		.2byte	0x175
 8102 1870 2C000000 		.4byte	0x2c
 8103 1874 FB110000 		.4byte	.LLST112
 8104 1878 3F       		.uleb128 0x3f
 8105 1879 74030000 		.4byte	.LASF170
 8106 187d 01       		.byte	0x1
 8107 187e 8101     		.2byte	0x181
 8108 1880 20050000 		.4byte	0x520
 8109 1884 02       		.uleb128 0x2
 8110 1885 91       		.byte	0x91
 8111 1886 60       		.sleb128 -32
 8112 1887 2C       		.uleb128 0x2c
 8113 1888 7000     		.ascii	"p\000"
 8114 188a 01       		.byte	0x1
 8115 188b 8501     		.2byte	0x185
 8116 188d EE050000 		.4byte	0x5ee
 8117 1891 4E120000 		.4byte	.LLST113
 8118 1895 2C       		.uleb128 0x2c
 8119 1896 6900     		.ascii	"i\000"
 8120 1898 01       		.byte	0x1
 8121 1899 8601     		.2byte	0x186
 8122 189b 2C000000 		.4byte	0x2c
 8123 189f 61120000 		.4byte	.LLST114
 8124 18a3 34       		.uleb128 0x34
 8125 18a4 6D0F0000 		.4byte	0xf6d
 8126 18a8 0C000000 		.4byte	.LBB269
 8127 18ac 0E000000 		.4byte	.LBE269-.LBB269
 8128 18b0 01       		.byte	0x1
 8129 18b1 7801     		.2byte	0x178
 8130 18b3 DE180000 		.4byte	0x18de
 8131 18b7 35       		.uleb128 0x35
 8132 18b8 790F0000 		.4byte	0xf79
 8133 18bc 80120000 		.4byte	.LLST115
 8134 18c0 39       		.uleb128 0x39
 8135 18c1 16000000 		.4byte	.LVL265
 8136 18c5 DA390000 		.4byte	0x39da
ARM GAS  C:\Users\164\AppData\Local\Temp\cc3ssgoH.s 			page 183


 8137 18c9 38       		.uleb128 0x38
 8138 18ca 01       		.uleb128 0x1
 8139 18cb 50       		.byte	0x50
 8140 18cc 01       		.uleb128 0x1
 8141 18cd 31       		.byte	0x31
 8142 18ce 38       		.uleb128 0x38
 8143 18cf 01       		.uleb128 0x1
 8144 18d0 51       		.byte	0x51
 8145 18d1 05       		.uleb128 0x5
 8146 18d2 03       		.byte	0x3
 8147 18d3 54000000 		.4byte	.LC4
 8148 18d7 38       		.uleb128 0x38
 8149 18d8 01       		.uleb128 0x1
 8150 18d9 52       		.byte	0x52
 8151 18da 01       		.uleb128 0x1
 8152 18db 3A       		.byte	0x3a
 8153 18dc 00       		.byte	0
 8154 18dd 00       		.byte	0
 8155 18de 34       		.uleb128 0x34
 8156 18df E0070000 		.4byte	0x7e0
 8157 18e3 28000000 		.4byte	.LBB271
 8158 18e7 04000000 		.4byte	.LBE271-.LBB271
 8159 18eb 01       		.byte	0x1
 8160 18ec 8201     		.2byte	0x182
 8161 18ee FC180000 		.4byte	0x18fc
 8162 18f2 35       		.uleb128 0x35
 8163 18f3 F0070000 		.4byte	0x7f0
 8164 18f7 98120000 		.4byte	.LLST116
 8165 18fb 00       		.byte	0
 8166 18fc 34       		.uleb128 0x34
 8167 18fd 07080000 		.4byte	0x807
 8168 1901 44000000 		.4byte	.LBB273
 8169 1905 02000000 		.4byte	.LBE273-.LBB273
 8170 1909 01       		.byte	0x1
 8171 190a 8801     		.2byte	0x188
 8172 190c 1A190000 		.4byte	0x191a
 8173 1910 35       		.uleb128 0x35
 8174 1911 17080000 		.4byte	0x817
 8175 1915 AB120000 		.4byte	.LLST117
 8176 1919 00       		.byte	0
 8177 191a 34       		.uleb128 0x34
 8178 191b E0070000 		.4byte	0x7e0
 8179 191f 50000000 		.4byte	.LBB275
 8180 1923 04000000 		.4byte	.LBE275-.LBB275
 8181 1927 01       		.byte	0x1
 8182 1928 8901     		.2byte	0x189
 8183 192a 38190000 		.4byte	0x1938
 8184 192e 35       		.uleb128 0x35
 8185 192f F0070000 		.4byte	0x7f0
 8186 1933 BE120000 		.4byte	.LLST118
 8187 1937 00       		.byte	0
 8188 1938 36       		.uleb128 0x36
 8189 1939 62000000 		.4byte	.LBB277
 8190 193d 18000000 		.4byte	.LBE277-.LBB277
 8191 1941 65190000 		.4byte	0x1965
 8192 1945 3A       		.uleb128 0x3a
 8193 1946 6E6E6E00 		.ascii	"nnn\000"
ARM GAS  C:\Users\164\AppData\Local\Temp\cc3ssgoH.s 			page 184


 8194 194a 01       		.byte	0x1
 8195 194b 8D01     		.2byte	0x18d
 8196 194d 20050000 		.4byte	0x520
 8197 1951 02       		.uleb128 0x2
 8198 1952 91       		.byte	0x91
 8199 1953 50       		.sleb128 -48
 8200 1954 39       		.uleb128 0x39
 8201 1955 72000000 		.4byte	.LVL282
 8202 1959 AE390000 		.4byte	0x39ae
 8203 195d 38       		.uleb128 0x38
 8204 195e 01       		.uleb128 0x1
 8205 195f 50       		.byte	0x50
 8206 1960 02       		.uleb128 0x2
 8207 1961 74       		.byte	0x74
 8208 1962 00       		.sleb128 0
 8209 1963 00       		.byte	0
 8210 1964 00       		.byte	0
 8211 1965 37       		.uleb128 0x37
 8212 1966 26000000 		.4byte	.LVL268
 8213 196a 063A0000 		.4byte	0x3a06
 8214 196e 7C190000 		.4byte	0x197c
 8215 1972 38       		.uleb128 0x38
 8216 1973 01       		.uleb128 0x1
 8217 1974 50       		.byte	0x50
 8218 1975 05       		.uleb128 0x5
 8219 1976 03       		.byte	0x3
 8220 1977 00000000 		.4byte	.LC0
 8221 197b 00       		.byte	0
 8222 197c 37       		.uleb128 0x37
 8223 197d 3A000000 		.4byte	.LVL274
 8224 1981 7C150000 		.4byte	0x157c
 8225 1985 9C190000 		.4byte	0x199c
 8226 1989 38       		.uleb128 0x38
 8227 198a 01       		.uleb128 0x1
 8228 198b 50       		.byte	0x50
 8229 198c 02       		.uleb128 0x2
 8230 198d 91       		.byte	0x91
 8231 198e 60       		.sleb128 -32
 8232 198f 38       		.uleb128 0x38
 8233 1990 01       		.uleb128 0x1
 8234 1991 51       		.byte	0x51
 8235 1992 03       		.uleb128 0x3
 8236 1993 F3       		.byte	0xf3
 8237 1994 01       		.uleb128 0x1
 8238 1995 50       		.byte	0x50
 8239 1996 38       		.uleb128 0x38
 8240 1997 01       		.uleb128 0x1
 8241 1998 52       		.byte	0x52
 8242 1999 01       		.uleb128 0x1
 8243 199a 30       		.byte	0x30
 8244 199b 00       		.byte	0
 8245 199c 39       		.uleb128 0x39
 8246 199d 50000000 		.4byte	.LVL278
 8247 19a1 A5390000 		.4byte	0x39a5
 8248 19a5 38       		.uleb128 0x38
 8249 19a6 01       		.uleb128 0x1
 8250 19a7 50       		.byte	0x50
ARM GAS  C:\Users\164\AppData\Local\Temp\cc3ssgoH.s 			page 185


 8251 19a8 02       		.uleb128 0x2
 8252 19a9 75       		.byte	0x75
 8253 19aa 00       		.sleb128 0
 8254 19ab 00       		.byte	0
 8255 19ac 00       		.byte	0
 8256 19ad 3C       		.uleb128 0x3c
 8257 19ae 82070000 		.4byte	.LASF174
 8258 19b2 01       		.byte	0x1
 8259 19b3 66       		.byte	0x66
 8260 19b4 20050000 		.4byte	0x520
 8261 19b8 00000000 		.4byte	.LFB88
 8262 19bc 24000000 		.4byte	.LFE88-.LFB88
 8263 19c0 01       		.uleb128 0x1
 8264 19c1 9C       		.byte	0x9c
 8265 19c2 141A0000 		.4byte	0x1a14
 8266 19c6 26       		.uleb128 0x26
 8267 19c7 766D00   		.ascii	"vm\000"
 8268 19ca 01       		.byte	0x1
 8269 19cb 66       		.byte	0x66
 8270 19cc 56010000 		.4byte	0x156
 8271 19d0 D1120000 		.4byte	.LLST119
 8272 19d4 26       		.uleb128 0x26
 8273 19d5 73726300 		.ascii	"src\000"
 8274 19d9 01       		.byte	0x1
 8275 19da 66       		.byte	0x66
 8276 19db BF000000 		.4byte	0xbf
 8277 19df 05130000 		.4byte	.LLST120
 8278 19e3 37       		.uleb128 0x37
 8279 19e4 10000000 		.4byte	.LVL286
 8280 19e8 113A0000 		.4byte	0x3a11
 8281 19ec F7190000 		.4byte	0x19f7
 8282 19f0 38       		.uleb128 0x38
 8283 19f1 01       		.uleb128 0x1
 8284 19f2 50       		.byte	0x50
 8285 19f3 02       		.uleb128 0x2
 8286 19f4 75       		.byte	0x75
 8287 19f5 00       		.sleb128 0
 8288 19f6 00       		.byte	0
 8289 19f7 39       		.uleb128 0x39
 8290 19f8 20000000 		.4byte	.LVL289
 8291 19fc 7C150000 		.4byte	0x157c
 8292 1a00 38       		.uleb128 0x38
 8293 1a01 01       		.uleb128 0x1
 8294 1a02 50       		.byte	0x50
 8295 1a03 02       		.uleb128 0x2
 8296 1a04 74       		.byte	0x74
 8297 1a05 00       		.sleb128 0
 8298 1a06 38       		.uleb128 0x38
 8299 1a07 01       		.uleb128 0x1
 8300 1a08 51       		.byte	0x51
 8301 1a09 02       		.uleb128 0x2
 8302 1a0a 76       		.byte	0x76
 8303 1a0b 00       		.sleb128 0
 8304 1a0c 38       		.uleb128 0x38
 8305 1a0d 01       		.uleb128 0x1
 8306 1a0e 52       		.byte	0x52
 8307 1a0f 02       		.uleb128 0x2
ARM GAS  C:\Users\164\AppData\Local\Temp\cc3ssgoH.s 			page 186


 8308 1a10 75       		.byte	0x75
 8309 1a11 00       		.sleb128 0
 8310 1a12 00       		.byte	0
 8311 1a13 00       		.byte	0
 8312 1a14 3C       		.uleb128 0x3c
 8313 1a15 140B0000 		.4byte	.LASF175
 8314 1a19 01       		.byte	0x1
 8315 1a1a 74       		.byte	0x74
 8316 1a1b 20050000 		.4byte	0x520
 8317 1a1f 00000000 		.4byte	.LFB89
 8318 1a23 32000000 		.4byte	.LFE89-.LFB89
 8319 1a27 01       		.uleb128 0x1
 8320 1a28 9C       		.byte	0x9c
 8321 1a29 8C1A0000 		.4byte	0x1a8c
 8322 1a2d 26       		.uleb128 0x26
 8323 1a2e 766D00   		.ascii	"vm\000"
 8324 1a31 01       		.byte	0x1
 8325 1a32 74       		.byte	0x74
 8326 1a33 56010000 		.4byte	0x156
 8327 1a37 39130000 		.4byte	.LLST121
 8328 1a3b 26       		.uleb128 0x26
 8329 1a3c 62756600 		.ascii	"buf\000"
 8330 1a40 01       		.byte	0x1
 8331 1a41 74       		.byte	0x74
 8332 1a42 B0000000 		.4byte	0xb0
 8333 1a46 65130000 		.4byte	.LLST122
 8334 1a4a 26       		.uleb128 0x26
 8335 1a4b 6C656E00 		.ascii	"len\000"
 8336 1a4f 01       		.byte	0x1
 8337 1a50 74       		.byte	0x74
 8338 1a51 2C000000 		.4byte	0x2c
 8339 1a55 83130000 		.4byte	.LLST123
 8340 1a59 3D       		.uleb128 0x3d
 8341 1a5a 74030000 		.4byte	.LASF170
 8342 1a5e 01       		.byte	0x1
 8343 1a5f 76       		.byte	0x76
 8344 1a60 20050000 		.4byte	0x520
 8345 1a64 A1130000 		.4byte	.LLST124
 8346 1a68 28       		.uleb128 0x28
 8347 1a69 6800     		.ascii	"h\000"
 8348 1a6b 01       		.byte	0x1
 8349 1a6c 7B       		.byte	0x7b
 8350 1a6d 4A160000 		.4byte	0x164a
 8351 1a71 C1130000 		.4byte	.LLST125
 8352 1a75 39       		.uleb128 0x39
 8353 1a76 1E000000 		.4byte	.LVL294
 8354 1a7a 9A390000 		.4byte	0x399a
 8355 1a7e 38       		.uleb128 0x38
 8356 1a7f 01       		.uleb128 0x1
 8357 1a80 50       		.byte	0x50
 8358 1a81 03       		.uleb128 0x3
 8359 1a82 F3       		.byte	0xf3
 8360 1a83 01       		.uleb128 0x1
 8361 1a84 51       		.byte	0x51
 8362 1a85 38       		.uleb128 0x38
 8363 1a86 01       		.uleb128 0x1
 8364 1a87 51       		.byte	0x51
ARM GAS  C:\Users\164\AppData\Local\Temp\cc3ssgoH.s 			page 187


 8365 1a88 01       		.uleb128 0x1
 8366 1a89 3C       		.byte	0x3c
 8367 1a8a 00       		.byte	0
 8368 1a8b 00       		.byte	0
 8369 1a8c 40       		.uleb128 0x40
 8370 1a8d FB010000 		.4byte	.LASF176
 8371 1a91 01       		.byte	0x1
 8372 1a92 2303     		.2byte	0x323
 8373 1a94 00000000 		.4byte	.LFB114
 8374 1a98 44020000 		.4byte	.LFE114-.LFB114
 8375 1a9c 01       		.uleb128 0x1
 8376 1a9d 9C       		.byte	0x9c
 8377 1a9e CB1E0000 		.4byte	0x1ecb
 8378 1aa2 2A       		.uleb128 0x2a
 8379 1aa3 766D00   		.ascii	"vm\000"
 8380 1aa6 01       		.byte	0x1
 8381 1aa7 2303     		.2byte	0x323
 8382 1aa9 56010000 		.4byte	0x156
 8383 1aad D4130000 		.4byte	.LLST126
 8384 1ab1 2A       		.uleb128 0x2a
 8385 1ab2 7600     		.ascii	"v\000"
 8386 1ab4 01       		.byte	0x1
 8387 1ab5 2303     		.2byte	0x323
 8388 1ab7 71060000 		.4byte	0x671
 8389 1abb 19140000 		.4byte	.LLST127
 8390 1abf 2F       		.uleb128 0x2f
 8391 1ac0 F6050000 		.4byte	.LASF154
 8392 1ac4 01       		.byte	0x1
 8393 1ac5 2303     		.2byte	0x323
 8394 1ac7 2C000000 		.4byte	0x2c
 8395 1acb 5E140000 		.4byte	.LLST128
 8396 1acf 41       		.uleb128 0x41
 8397 1ad0 64040000 		.4byte	.LASF177
 8398 1ad4 01       		.byte	0x1
 8399 1ad5 2503     		.2byte	0x325
 8400 1ad7 CB1E0000 		.4byte	0x1ecb
 8401 1adb 20       		.byte	0x20
 8402 1adc 2D       		.uleb128 0x2d
 8403 1add 56050000 		.4byte	.LASF178
 8404 1ae1 01       		.byte	0x1
 8405 1ae2 2703     		.2byte	0x327
 8406 1ae4 71060000 		.4byte	0x671
 8407 1ae8 A3140000 		.4byte	.LLST129
 8408 1aec 2D       		.uleb128 0x2d
 8409 1aed 5D070000 		.4byte	.LASF179
 8410 1af1 01       		.byte	0x1
 8411 1af2 2D03     		.2byte	0x32d
 8412 1af4 2C000000 		.4byte	0x2c
 8413 1af8 F2140000 		.4byte	.LLST130
 8414 1afc 2C       		.uleb128 0x2c
 8415 1afd 62756600 		.ascii	"buf\000"
 8416 1b01 01       		.byte	0x1
 8417 1b02 2E03     		.2byte	0x32e
 8418 1b04 B2000000 		.4byte	0xb2
 8419 1b08 12150000 		.4byte	.LLST131
 8420 1b0c 3A       		.uleb128 0x3a
 8421 1b0d 706600   		.ascii	"pf\000"
ARM GAS  C:\Users\164\AppData\Local\Temp\cc3ssgoH.s 			page 188


 8422 1b10 01       		.byte	0x1
 8423 1b11 3103     		.2byte	0x331
 8424 1b13 74070000 		.4byte	0x774
 8425 1b17 02       		.uleb128 0x2
 8426 1b18 91       		.byte	0x91
 8427 1b19 44       		.sleb128 -60
 8428 1b1a 2C       		.uleb128 0x2c
 8429 1b1b 6900     		.ascii	"i\000"
 8430 1b1d 01       		.byte	0x1
 8431 1b1e 3403     		.2byte	0x334
 8432 1b20 2C000000 		.4byte	0x2c
 8433 1b24 3B150000 		.4byte	.LLST132
 8434 1b28 2C       		.uleb128 0x2c
 8435 1b29 72657400 		.ascii	"ret\000"
 8436 1b2d 01       		.byte	0x1
 8437 1b2e 3503     		.2byte	0x335
 8438 1b30 2C000000 		.4byte	0x2c
 8439 1b34 5A150000 		.4byte	.LLST133
 8440 1b38 3E       		.uleb128 0x3e
 8441 1b39 040B0000 		.4byte	.LASF181
 8442 1b3d 01       		.byte	0x1
 8443 1b3e 8603     		.2byte	0x386
 8444 1b40 E0010000 		.4byte	.L162
 8445 1b44 3F       		.uleb128 0x3f
 8446 1b45 74030000 		.4byte	.LASF170
 8447 1b49 01       		.byte	0x1
 8448 1b4a 9103     		.2byte	0x391
 8449 1b4c 20050000 		.4byte	0x520
 8450 1b50 03       		.uleb128 0x3
 8451 1b51 91       		.byte	0x91
 8452 1b52 B07F     		.sleb128 -80
 8453 1b54 34       		.uleb128 0x34
 8454 1b55 07080000 		.4byte	0x807
 8455 1b59 2A000000 		.4byte	.LBB301
 8456 1b5d 04000000 		.4byte	.LBE301-.LBB301
 8457 1b61 01       		.byte	0x1
 8458 1b62 3203     		.2byte	0x332
 8459 1b64 721B0000 		.4byte	0x1b72
 8460 1b68 35       		.uleb128 0x35
 8461 1b69 17080000 		.4byte	0x817
 8462 1b6d 1D160000 		.4byte	.LLST134
 8463 1b71 00       		.byte	0
 8464 1b72 34       		.uleb128 0x34
 8465 1b73 21080000 		.4byte	0x821
 8466 1b77 2E000000 		.4byte	.LBB303
 8467 1b7b 12000000 		.4byte	.LBE303-.LBB303
 8468 1b7f 01       		.byte	0x1
 8469 1b80 3203     		.2byte	0x332
 8470 1b82 A71B0000 		.4byte	0x1ba7
 8471 1b86 42       		.uleb128 0x42
 8472 1b87 4D080000 		.4byte	0x84d
 8473 1b8b 35       		.uleb128 0x35
 8474 1b8c 42080000 		.4byte	0x842
 8475 1b90 32160000 		.4byte	.LLST135
 8476 1b94 35       		.uleb128 0x35
 8477 1b95 37080000 		.4byte	0x837
 8478 1b99 47160000 		.4byte	.LLST136
ARM GAS  C:\Users\164\AppData\Local\Temp\cc3ssgoH.s 			page 189


 8479 1b9d 35       		.uleb128 0x35
 8480 1b9e 2D080000 		.4byte	0x82d
 8481 1ba2 5A160000 		.4byte	.LLST137
 8482 1ba6 00       		.byte	0
 8483 1ba7 36       		.uleb128 0x36
 8484 1ba8 46000000 		.4byte	.LBB305
 8485 1bac B6010000 		.4byte	.LBE305-.LBB305
 8486 1bb0 F91D0000 		.4byte	0x1df9
 8487 1bb4 3F       		.uleb128 0x3f
 8488 1bb5 62010000 		.4byte	.LASF182
 8489 1bb9 01       		.byte	0x1
 8490 1bba 3703     		.2byte	0x337
 8491 1bbc 74070000 		.4byte	0x774
 8492 1bc0 03       		.uleb128 0x3
 8493 1bc1 91       		.byte	0x91
 8494 1bc2 907F     		.sleb128 -112
 8495 1bc4 34       		.uleb128 0x34
 8496 1bc5 6D0F0000 		.4byte	0xf6d
 8497 1bc9 6E000000 		.4byte	.LBB306
 8498 1bcd 0C000000 		.4byte	.LBE306-.LBB306
 8499 1bd1 01       		.byte	0x1
 8500 1bd2 3C03     		.2byte	0x33c
 8501 1bd4 FF1B0000 		.4byte	0x1bff
 8502 1bd8 35       		.uleb128 0x35
 8503 1bd9 790F0000 		.4byte	0xf79
 8504 1bdd 6F160000 		.4byte	.LLST138
 8505 1be1 39       		.uleb128 0x39
 8506 1be2 78000000 		.4byte	.LVL311
 8507 1be6 DA390000 		.4byte	0x39da
 8508 1bea 38       		.uleb128 0x38
 8509 1beb 01       		.uleb128 0x1
 8510 1bec 50       		.byte	0x50
 8511 1bed 01       		.uleb128 0x1
 8512 1bee 31       		.byte	0x31
 8513 1bef 38       		.uleb128 0x38
 8514 1bf0 01       		.uleb128 0x1
 8515 1bf1 51       		.byte	0x51
 8516 1bf2 05       		.uleb128 0x5
 8517 1bf3 03       		.byte	0x3
 8518 1bf4 00000000 		.4byte	.LC0
 8519 1bf8 38       		.uleb128 0x38
 8520 1bf9 01       		.uleb128 0x1
 8521 1bfa 52       		.byte	0x52
 8522 1bfb 01       		.uleb128 0x1
 8523 1bfc 3E       		.byte	0x3e
 8524 1bfd 00       		.byte	0
 8525 1bfe 00       		.byte	0
 8526 1bff 34       		.uleb128 0x34
 8527 1c00 07080000 		.4byte	0x807
 8528 1c04 E2000000 		.4byte	.LBB308
 8529 1c08 02000000 		.4byte	.LBE308-.LBB308
 8530 1c0c 01       		.byte	0x1
 8531 1c0d 4803     		.2byte	0x348
 8532 1c0f 1D1C0000 		.4byte	0x1c1d
 8533 1c13 35       		.uleb128 0x35
 8534 1c14 17080000 		.4byte	0x817
 8535 1c18 87160000 		.4byte	.LLST139
ARM GAS  C:\Users\164\AppData\Local\Temp\cc3ssgoH.s 			page 190


 8536 1c1c 00       		.byte	0
 8537 1c1d 34       		.uleb128 0x34
 8538 1c1e 90080000 		.4byte	0x890
 8539 1c22 F8000000 		.4byte	.LBB310
 8540 1c26 0A000000 		.4byte	.LBE310-.LBB310
 8541 1c2a 01       		.byte	0x1
 8542 1c2b 4A03     		.2byte	0x34a
 8543 1c2d 441C0000 		.4byte	0x1c44
 8544 1c31 35       		.uleb128 0x35
 8545 1c32 A0080000 		.4byte	0x8a0
 8546 1c36 9A160000 		.4byte	.LLST140
 8547 1c3a 32       		.uleb128 0x32
 8548 1c3b 00010000 		.4byte	.LVL323
 8549 1c3f 1C3A0000 		.4byte	0x3a1c
 8550 1c43 00       		.byte	0
 8551 1c44 34       		.uleb128 0x34
 8552 1c45 5F080000 		.4byte	0x85f
 8553 1c49 02010000 		.4byte	.LBB312
 8554 1c4d 14000000 		.4byte	.LBE312-.LBB312
 8555 1c51 01       		.byte	0x1
 8556 1c52 4A03     		.2byte	0x34a
 8557 1c54 A01C0000 		.4byte	0x1ca0
 8558 1c58 35       		.uleb128 0x35
 8559 1c59 84080000 		.4byte	0x884
 8560 1c5d BF160000 		.4byte	.LLST141
 8561 1c61 42       		.uleb128 0x42
 8562 1c62 79080000 		.4byte	0x879
 8563 1c66 35       		.uleb128 0x35
 8564 1c67 6F080000 		.4byte	0x86f
 8565 1c6b D4160000 		.4byte	.LLST142
 8566 1c6f 37       		.uleb128 0x37
 8567 1c70 06010000 		.4byte	.LVL325
 8568 1c74 113A0000 		.4byte	0x3a11
 8569 1c78 831C0000 		.4byte	0x1c83
 8570 1c7c 38       		.uleb128 0x38
 8571 1c7d 01       		.uleb128 0x1
 8572 1c7e 50       		.byte	0x50
 8573 1c7f 02       		.uleb128 0x2
 8574 1c80 74       		.byte	0x74
 8575 1c81 00       		.sleb128 0
 8576 1c82 00       		.byte	0
 8577 1c83 39       		.uleb128 0x39
 8578 1c84 12010000 		.4byte	.LVL327
 8579 1c88 273A0000 		.4byte	0x3a27
 8580 1c8c 38       		.uleb128 0x38
 8581 1c8d 01       		.uleb128 0x1
 8582 1c8e 50       		.byte	0x50
 8583 1c8f 02       		.uleb128 0x2
 8584 1c90 75       		.byte	0x75
 8585 1c91 70       		.sleb128 -16
 8586 1c92 38       		.uleb128 0x38
 8587 1c93 01       		.uleb128 0x1
 8588 1c94 51       		.byte	0x51
 8589 1c95 02       		.uleb128 0x2
 8590 1c96 74       		.byte	0x74
 8591 1c97 00       		.sleb128 0
 8592 1c98 38       		.uleb128 0x38
ARM GAS  C:\Users\164\AppData\Local\Temp\cc3ssgoH.s 			page 191


 8593 1c99 01       		.uleb128 0x1
 8594 1c9a 53       		.byte	0x53
 8595 1c9b 02       		.uleb128 0x2
 8596 1c9c 08       		.byte	0x8
 8597 1c9d 20       		.byte	0x20
 8598 1c9e 00       		.byte	0
 8599 1c9f 00       		.byte	0
 8600 1ca0 36       		.uleb128 0x36
 8601 1ca1 4C010000 		.4byte	.LBB314
 8602 1ca5 16000000 		.4byte	.LBE314-.LBB314
 8603 1ca9 FA1C0000 		.4byte	0x1cfa
 8604 1cad 2D       		.uleb128 0x2d
 8605 1cae 51010000 		.4byte	.LASF183
 8606 1cb2 01       		.byte	0x1
 8607 1cb3 5803     		.2byte	0x358
 8608 1cb5 08010000 		.4byte	0x108
 8609 1cb9 01170000 		.4byte	.LLST143
 8610 1cbd 34       		.uleb128 0x34
 8611 1cbe 07080000 		.4byte	0x807
 8612 1cc2 4C010000 		.4byte	.LBB315
 8613 1cc6 02000000 		.4byte	.LBE315-.LBB315
 8614 1cca 01       		.byte	0x1
 8615 1ccb 5803     		.2byte	0x358
 8616 1ccd DB1C0000 		.4byte	0x1cdb
 8617 1cd1 35       		.uleb128 0x35
 8618 1cd2 17080000 		.4byte	0x817
 8619 1cd6 1F170000 		.4byte	.LLST144
 8620 1cda 00       		.byte	0
 8621 1cdb 32       		.uleb128 0x32
 8622 1cdc 54010000 		.4byte	.LVL340
 8623 1ce0 323A0000 		.4byte	0x3a32
 8624 1ce4 39       		.uleb128 0x39
 8625 1ce5 5E010000 		.4byte	.LVL342
 8626 1ce9 3D3A0000 		.4byte	0x3a3d
 8627 1ced 38       		.uleb128 0x38
 8628 1cee 01       		.uleb128 0x1
 8629 1cef 50       		.byte	0x50
 8630 1cf0 02       		.uleb128 0x2
 8631 1cf1 75       		.byte	0x75
 8632 1cf2 70       		.sleb128 -16
 8633 1cf3 38       		.uleb128 0x38
 8634 1cf4 01       		.uleb128 0x1
 8635 1cf5 52       		.byte	0x52
 8636 1cf6 01       		.uleb128 0x1
 8637 1cf7 3A       		.byte	0x3a
 8638 1cf8 00       		.byte	0
 8639 1cf9 00       		.byte	0
 8640 1cfa 37       		.uleb128 0x37
 8641 1cfb 5C000000 		.4byte	.LVL308
 8642 1cff 483A0000 		.4byte	0x3a48
 8643 1d03 0E1D0000 		.4byte	0x1d0e
 8644 1d07 38       		.uleb128 0x38
 8645 1d08 01       		.uleb128 0x1
 8646 1d09 50       		.byte	0x50
 8647 1d0a 02       		.uleb128 0x2
 8648 1d0b 75       		.byte	0x75
 8649 1d0c 70       		.sleb128 -16
ARM GAS  C:\Users\164\AppData\Local\Temp\cc3ssgoH.s 			page 192


 8650 1d0d 00       		.byte	0
 8651 1d0e 37       		.uleb128 0x37
 8652 1d0f D4000000 		.4byte	.LVL314
 8653 1d13 533A0000 		.4byte	0x3a53
 8654 1d17 221D0000 		.4byte	0x1d22
 8655 1d1b 38       		.uleb128 0x38
 8656 1d1c 01       		.uleb128 0x1
 8657 1d1d 50       		.byte	0x50
 8658 1d1e 02       		.uleb128 0x2
 8659 1d1f 75       		.byte	0x75
 8660 1d20 70       		.sleb128 -16
 8661 1d21 00       		.byte	0
 8662 1d22 37       		.uleb128 0x37
 8663 1d23 F0000000 		.4byte	.LVL319
 8664 1d27 273A0000 		.4byte	0x3a27
 8665 1d2b 3C1D0000 		.4byte	0x1d3c
 8666 1d2f 38       		.uleb128 0x38
 8667 1d30 01       		.uleb128 0x1
 8668 1d31 50       		.byte	0x50
 8669 1d32 02       		.uleb128 0x2
 8670 1d33 75       		.byte	0x75
 8671 1d34 70       		.sleb128 -16
 8672 1d35 38       		.uleb128 0x38
 8673 1d36 01       		.uleb128 0x1
 8674 1d37 53       		.byte	0x53
 8675 1d38 02       		.uleb128 0x2
 8676 1d39 08       		.byte	0x8
 8677 1d3a 20       		.byte	0x20
 8678 1d3b 00       		.byte	0
 8679 1d3c 37       		.uleb128 0x37
 8680 1d3d 2A010000 		.4byte	.LVL331
 8681 1d41 3D3A0000 		.4byte	0x3a3d
 8682 1d45 551D0000 		.4byte	0x1d55
 8683 1d49 38       		.uleb128 0x38
 8684 1d4a 01       		.uleb128 0x1
 8685 1d4b 50       		.byte	0x50
 8686 1d4c 02       		.uleb128 0x2
 8687 1d4d 75       		.byte	0x75
 8688 1d4e 70       		.sleb128 -16
 8689 1d4f 38       		.uleb128 0x38
 8690 1d50 01       		.uleb128 0x1
 8691 1d51 52       		.byte	0x52
 8692 1d52 01       		.uleb128 0x1
 8693 1d53 3A       		.byte	0x3a
 8694 1d54 00       		.byte	0
 8695 1d55 37       		.uleb128 0x37
 8696 1d56 44010000 		.4byte	.LVL335
 8697 1d5a 3D3A0000 		.4byte	0x3a3d
 8698 1d5e 6E1D0000 		.4byte	0x1d6e
 8699 1d62 38       		.uleb128 0x38
 8700 1d63 01       		.uleb128 0x1
 8701 1d64 50       		.byte	0x50
 8702 1d65 02       		.uleb128 0x2
 8703 1d66 75       		.byte	0x75
 8704 1d67 70       		.sleb128 -16
 8705 1d68 38       		.uleb128 0x38
 8706 1d69 01       		.uleb128 0x1
ARM GAS  C:\Users\164\AppData\Local\Temp\cc3ssgoH.s 			page 193


 8707 1d6a 52       		.byte	0x52
 8708 1d6b 01       		.uleb128 0x1
 8709 1d6c 3A       		.byte	0x3a
 8710 1d6d 00       		.byte	0
 8711 1d6e 37       		.uleb128 0x37
 8712 1d6f 76010000 		.4byte	.LVL345
 8713 1d73 3D3A0000 		.4byte	0x3a3d
 8714 1d77 871D0000 		.4byte	0x1d87
 8715 1d7b 38       		.uleb128 0x38
 8716 1d7c 01       		.uleb128 0x1
 8717 1d7d 50       		.byte	0x50
 8718 1d7e 02       		.uleb128 0x2
 8719 1d7f 75       		.byte	0x75
 8720 1d80 70       		.sleb128 -16
 8721 1d81 38       		.uleb128 0x38
 8722 1d82 01       		.uleb128 0x1
 8723 1d83 52       		.byte	0x52
 8724 1d84 01       		.uleb128 0x1
 8725 1d85 32       		.byte	0x32
 8726 1d86 00       		.byte	0
 8727 1d87 37       		.uleb128 0x37
 8728 1d88 8E010000 		.4byte	.LVL348
 8729 1d8c 3D3A0000 		.4byte	0x3a3d
 8730 1d90 A01D0000 		.4byte	0x1da0
 8731 1d94 38       		.uleb128 0x38
 8732 1d95 01       		.uleb128 0x1
 8733 1d96 50       		.byte	0x50
 8734 1d97 02       		.uleb128 0x2
 8735 1d98 75       		.byte	0x75
 8736 1d99 70       		.sleb128 -16
 8737 1d9a 38       		.uleb128 0x38
 8738 1d9b 01       		.uleb128 0x1
 8739 1d9c 52       		.byte	0x52
 8740 1d9d 01       		.uleb128 0x1
 8741 1d9e 40       		.byte	0x40
 8742 1d9f 00       		.byte	0
 8743 1da0 37       		.uleb128 0x37
 8744 1da1 A6010000 		.4byte	.LVL351
 8745 1da5 5E3A0000 		.4byte	0x3a5e
 8746 1da9 B41D0000 		.4byte	0x1db4
 8747 1dad 38       		.uleb128 0x38
 8748 1dae 01       		.uleb128 0x1
 8749 1daf 50       		.byte	0x50
 8750 1db0 02       		.uleb128 0x2
 8751 1db1 75       		.byte	0x75
 8752 1db2 70       		.sleb128 -16
 8753 1db3 00       		.byte	0
 8754 1db4 37       		.uleb128 0x37
 8755 1db5 BE010000 		.4byte	.LVL355
 8756 1db9 5E3A0000 		.4byte	0x3a5e
 8757 1dbd C81D0000 		.4byte	0x1dc8
 8758 1dc1 38       		.uleb128 0x38
 8759 1dc2 01       		.uleb128 0x1
 8760 1dc3 50       		.byte	0x50
 8761 1dc4 02       		.uleb128 0x2
 8762 1dc5 75       		.byte	0x75
 8763 1dc6 70       		.sleb128 -16
ARM GAS  C:\Users\164\AppData\Local\Temp\cc3ssgoH.s 			page 194


 8764 1dc7 00       		.byte	0
 8765 1dc8 37       		.uleb128 0x37
 8766 1dc9 EE010000 		.4byte	.LVL361
 8767 1dcd FB390000 		.4byte	0x39fb
 8768 1dd1 E21D0000 		.4byte	0x1de2
 8769 1dd5 38       		.uleb128 0x38
 8770 1dd6 01       		.uleb128 0x1
 8771 1dd7 50       		.byte	0x50
 8772 1dd8 02       		.uleb128 0x2
 8773 1dd9 7A       		.byte	0x7a
 8774 1dda 00       		.sleb128 0
 8775 1ddb 38       		.uleb128 0x38
 8776 1ddc 01       		.uleb128 0x1
 8777 1ddd 52       		.byte	0x52
 8778 1dde 02       		.uleb128 0x2
 8779 1ddf 78       		.byte	0x78
 8780 1de0 00       		.sleb128 0
 8781 1de1 00       		.byte	0
 8782 1de2 39       		.uleb128 0x39
 8783 1de3 FA010000 		.4byte	.LVL363
 8784 1de7 693A0000 		.4byte	0x3a69
 8785 1deb 38       		.uleb128 0x38
 8786 1dec 01       		.uleb128 0x1
 8787 1ded 50       		.byte	0x50
 8788 1dee 02       		.uleb128 0x2
 8789 1def 91       		.byte	0x91
 8790 1df0 44       		.sleb128 -60
 8791 1df1 38       		.uleb128 0x38
 8792 1df2 01       		.uleb128 0x1
 8793 1df3 52       		.byte	0x52
 8794 1df4 02       		.uleb128 0x2
 8795 1df5 78       		.byte	0x78
 8796 1df6 00       		.sleb128 0
 8797 1df7 00       		.byte	0
 8798 1df8 00       		.byte	0
 8799 1df9 34       		.uleb128 0x34
 8800 1dfa C5080000 		.4byte	0x8c5
 8801 1dfe FC010000 		.4byte	.LBB317
 8802 1e02 06000000 		.4byte	.LBE317-.LBB317
 8803 1e06 01       		.byte	0x1
 8804 1e07 8C03     		.2byte	0x38c
 8805 1e09 171E0000 		.4byte	0x1e17
 8806 1e0d 35       		.uleb128 0x35
 8807 1e0e D1080000 		.4byte	0x8d1
 8808 1e12 32170000 		.4byte	.LLST145
 8809 1e16 00       		.byte	0
 8810 1e17 34       		.uleb128 0x34
 8811 1e18 AA080000 		.4byte	0x8aa
 8812 1e1c 02020000 		.4byte	.LBB319
 8813 1e20 06000000 		.4byte	.LBE319-.LBB319
 8814 1e24 01       		.byte	0x1
 8815 1e25 8E03     		.2byte	0x38e
 8816 1e27 351E0000 		.4byte	0x1e35
 8817 1e2b 35       		.uleb128 0x35
 8818 1e2c BA080000 		.4byte	0x8ba
 8819 1e30 47170000 		.4byte	.LLST146
 8820 1e34 00       		.byte	0
ARM GAS  C:\Users\164\AppData\Local\Temp\cc3ssgoH.s 			page 195


 8821 1e35 36       		.uleb128 0x36
 8822 1e36 1E020000 		.4byte	.LBB321
 8823 1e3a 16000000 		.4byte	.LBE321-.LBB321
 8824 1e3e 631E0000 		.4byte	0x1e63
 8825 1e42 3A       		.uleb128 0x3a
 8826 1e43 6E6E6E00 		.ascii	"nnn\000"
 8827 1e47 01       		.byte	0x1
 8828 1e48 9303     		.2byte	0x393
 8829 1e4a 20050000 		.4byte	0x520
 8830 1e4e 03       		.uleb128 0x3
 8831 1e4f 91       		.byte	0x91
 8832 1e50 907F     		.sleb128 -112
 8833 1e52 39       		.uleb128 0x39
 8834 1e53 2C020000 		.4byte	.LVL369
 8835 1e57 AE390000 		.4byte	0x39ae
 8836 1e5b 38       		.uleb128 0x38
 8837 1e5c 01       		.uleb128 0x1
 8838 1e5d 50       		.byte	0x50
 8839 1e5e 02       		.uleb128 0x2
 8840 1e5f 77       		.byte	0x77
 8841 1e60 00       		.sleb128 0
 8842 1e61 00       		.byte	0
 8843 1e62 00       		.byte	0
 8844 1e63 37       		.uleb128 0x37
 8845 1e64 14000000 		.4byte	.LVL299
 8846 1e68 063A0000 		.4byte	0x3a06
 8847 1e6c 7A1E0000 		.4byte	0x1e7a
 8848 1e70 38       		.uleb128 0x38
 8849 1e71 01       		.uleb128 0x1
 8850 1e72 50       		.byte	0x50
 8851 1e73 05       		.uleb128 0x5
 8852 1e74 03       		.byte	0x3
 8853 1e75 54000000 		.4byte	.LC4
 8854 1e79 00       		.byte	0
 8855 1e7a 37       		.uleb128 0x37
 8856 1e7b 22000000 		.4byte	.LVL303
 8857 1e7f 9A390000 		.4byte	0x399a
 8858 1e83 941E0000 		.4byte	0x1e94
 8859 1e87 38       		.uleb128 0x38
 8860 1e88 01       		.uleb128 0x1
 8861 1e89 50       		.byte	0x50
 8862 1e8a 02       		.uleb128 0x2
 8863 1e8b 7A       		.byte	0x7a
 8864 1e8c 00       		.sleb128 0
 8865 1e8d 38       		.uleb128 0x38
 8866 1e8e 01       		.uleb128 0x1
 8867 1e8f 51       		.byte	0x51
 8868 1e90 02       		.uleb128 0x2
 8869 1e91 08       		.byte	0x8
 8870 1e92 20       		.byte	0x20
 8871 1e93 00       		.byte	0
 8872 1e94 37       		.uleb128 0x37
 8873 1e95 10020000 		.4byte	.LVL367
 8874 1e99 FB390000 		.4byte	0x39fb
 8875 1e9d AE1E0000 		.4byte	0x1eae
 8876 1ea1 38       		.uleb128 0x38
 8877 1ea2 01       		.uleb128 0x1
ARM GAS  C:\Users\164\AppData\Local\Temp\cc3ssgoH.s 			page 196


 8878 1ea3 50       		.byte	0x50
 8879 1ea4 02       		.uleb128 0x2
 8880 1ea5 7A       		.byte	0x7a
 8881 1ea6 00       		.sleb128 0
 8882 1ea7 38       		.uleb128 0x38
 8883 1ea8 01       		.uleb128 0x1
 8884 1ea9 52       		.byte	0x52
 8885 1eaa 02       		.uleb128 0x2
 8886 1eab 74       		.byte	0x74
 8887 1eac 01       		.sleb128 1
 8888 1ead 00       		.byte	0
 8889 1eae 39       		.uleb128 0x39
 8890 1eaf 1E020000 		.4byte	.LVL368
 8891 1eb3 141A0000 		.4byte	0x1a14
 8892 1eb7 38       		.uleb128 0x38
 8893 1eb8 01       		.uleb128 0x1
 8894 1eb9 50       		.byte	0x50
 8895 1eba 02       		.uleb128 0x2
 8896 1ebb 75       		.byte	0x75
 8897 1ebc 00       		.sleb128 0
 8898 1ebd 38       		.uleb128 0x38
 8899 1ebe 01       		.uleb128 0x1
 8900 1ebf 51       		.byte	0x51
 8901 1ec0 02       		.uleb128 0x2
 8902 1ec1 7A       		.byte	0x7a
 8903 1ec2 00       		.sleb128 0
 8904 1ec3 38       		.uleb128 0x38
 8905 1ec4 01       		.uleb128 0x1
 8906 1ec5 53       		.byte	0x53
 8907 1ec6 02       		.uleb128 0x2
 8908 1ec7 74       		.byte	0x74
 8909 1ec8 00       		.sleb128 0
 8910 1ec9 00       		.byte	0
 8911 1eca 00       		.byte	0
 8912 1ecb 07       		.uleb128 0x7
 8913 1ecc 2C000000 		.4byte	0x2c
 8914 1ed0 31       		.uleb128 0x31
 8915 1ed1 C5040000 		.4byte	.LASF184
 8916 1ed5 01       		.byte	0x1
 8917 1ed6 9A03     		.2byte	0x39a
 8918 1ed8 00000000 		.4byte	.LFB115
 8919 1edc 20000000 		.4byte	.LFE115-.LFB115
 8920 1ee0 01       		.uleb128 0x1
 8921 1ee1 9C       		.byte	0x9c
 8922 1ee2 921F0000 		.4byte	0x1f92
 8923 1ee6 2A       		.uleb128 0x2a
 8924 1ee7 766D00   		.ascii	"vm\000"
 8925 1eea 01       		.byte	0x1
 8926 1eeb 9A03     		.2byte	0x39a
 8927 1eed 56010000 		.4byte	0x156
 8928 1ef1 5C170000 		.4byte	.LLST147
 8929 1ef5 2A       		.uleb128 0x2a
 8930 1ef6 7600     		.ascii	"v\000"
 8931 1ef8 01       		.byte	0x1
 8932 1ef9 9A03     		.2byte	0x39a
 8933 1efb 71060000 		.4byte	0x671
 8934 1eff 7D170000 		.4byte	.LLST148
ARM GAS  C:\Users\164\AppData\Local\Temp\cc3ssgoH.s 			page 197


 8935 1f03 2F       		.uleb128 0x2f
 8936 1f04 F6050000 		.4byte	.LASF154
 8937 1f08 01       		.byte	0x1
 8938 1f09 9A03     		.2byte	0x39a
 8939 1f0b 2C000000 		.4byte	0x2c
 8940 1f0f 9B170000 		.4byte	.LLST149
 8941 1f13 34       		.uleb128 0x34
 8942 1f14 07080000 		.4byte	0x807
 8943 1f18 08000000 		.4byte	.LBB322
 8944 1f1c 02000000 		.4byte	.LBE322-.LBB322
 8945 1f20 01       		.byte	0x1
 8946 1f21 9D03     		.2byte	0x39d
 8947 1f23 311F0000 		.4byte	0x1f31
 8948 1f27 35       		.uleb128 0x35
 8949 1f28 17080000 		.4byte	0x817
 8950 1f2c BC170000 		.4byte	.LLST150
 8951 1f30 00       		.byte	0
 8952 1f31 34       		.uleb128 0x34
 8953 1f32 DC080000 		.4byte	0x8dc
 8954 1f36 0A000000 		.4byte	.LBB324
 8955 1f3a 0A000000 		.4byte	.LBE324-.LBB324
 8956 1f3e 01       		.byte	0x1
 8957 1f3f 9D03     		.2byte	0x39d
 8958 1f41 5F1F0000 		.4byte	0x1f5f
 8959 1f45 42       		.uleb128 0x42
 8960 1f46 F3080000 		.4byte	0x8f3
 8961 1f4a 42       		.uleb128 0x42
 8962 1f4b E8080000 		.4byte	0x8e8
 8963 1f4f 39       		.uleb128 0x39
 8964 1f50 14000000 		.4byte	.LVL374
 8965 1f54 DA390000 		.4byte	0x39da
 8966 1f58 38       		.uleb128 0x38
 8967 1f59 01       		.uleb128 0x1
 8968 1f5a 50       		.byte	0x50
 8969 1f5b 01       		.uleb128 0x1
 8970 1f5c 31       		.byte	0x31
 8971 1f5d 00       		.byte	0
 8972 1f5e 00       		.byte	0
 8973 1f5f 37       		.uleb128 0x37
 8974 1f60 08000000 		.4byte	.LVL372
 8975 1f64 8C1A0000 		.4byte	0x1a8c
 8976 1f68 811F0000 		.4byte	0x1f81
 8977 1f6c 38       		.uleb128 0x38
 8978 1f6d 01       		.uleb128 0x1
 8979 1f6e 50       		.byte	0x50
 8980 1f6f 03       		.uleb128 0x3
 8981 1f70 F3       		.byte	0xf3
 8982 1f71 01       		.uleb128 0x1
 8983 1f72 50       		.byte	0x50
 8984 1f73 38       		.uleb128 0x38
 8985 1f74 01       		.uleb128 0x1
 8986 1f75 51       		.byte	0x51
 8987 1f76 02       		.uleb128 0x2
 8988 1f77 74       		.byte	0x74
 8989 1f78 00       		.sleb128 0
 8990 1f79 38       		.uleb128 0x38
 8991 1f7a 01       		.uleb128 0x1
ARM GAS  C:\Users\164\AppData\Local\Temp\cc3ssgoH.s 			page 198


 8992 1f7b 52       		.byte	0x52
 8993 1f7c 03       		.uleb128 0x3
 8994 1f7d F3       		.byte	0xf3
 8995 1f7e 01       		.uleb128 0x1
 8996 1f7f 52       		.byte	0x52
 8997 1f80 00       		.byte	0
 8998 1f81 39       		.uleb128 0x39
 8999 1f82 1A000000 		.4byte	.LVL375
 9000 1f86 AE390000 		.4byte	0x39ae
 9001 1f8a 38       		.uleb128 0x38
 9002 1f8b 01       		.uleb128 0x1
 9003 1f8c 50       		.byte	0x50
 9004 1f8d 02       		.uleb128 0x2
 9005 1f8e 74       		.byte	0x74
 9006 1f8f 00       		.sleb128 0
 9007 1f90 00       		.byte	0
 9008 1f91 00       		.byte	0
 9009 1f92 43       		.uleb128 0x43
 9010 1f93 E2070000 		.4byte	.LASF185
 9011 1f97 01       		.byte	0x1
 9012 1f98 8E       		.byte	0x8e
 9013 1f99 00000000 		.4byte	.LFB90
 9014 1f9d 14000000 		.4byte	.LFE90-.LFB90
 9015 1fa1 01       		.uleb128 0x1
 9016 1fa2 9C       		.byte	0x9c
 9017 1fa3 C91F0000 		.4byte	0x1fc9
 9018 1fa7 26       		.uleb128 0x26
 9019 1fa8 73747200 		.ascii	"str\000"
 9020 1fac 01       		.byte	0x1
 9021 1fad 8E       		.byte	0x8e
 9022 1fae 71060000 		.4byte	0x671
 9023 1fb2 CF170000 		.4byte	.LLST151
 9024 1fb6 32       		.uleb128 0x32
 9025 1fb7 0C000000 		.4byte	.LVL378
 9026 1fbb 8F390000 		.4byte	0x398f
 9027 1fbf 32       		.uleb128 0x32
 9028 1fc0 12000000 		.4byte	.LVL379
 9029 1fc4 8F390000 		.4byte	0x398f
 9030 1fc8 00       		.byte	0
 9031 1fc9 43       		.uleb128 0x43
 9032 1fca E4040000 		.4byte	.LASF186
 9033 1fce 01       		.byte	0x1
 9034 1fcf 99       		.byte	0x99
 9035 1fd0 00000000 		.4byte	.LFB91
 9036 1fd4 18000000 		.4byte	.LFE91-.LFB91
 9037 1fd8 01       		.uleb128 0x1
 9038 1fd9 9C       		.byte	0x9c
 9039 1fda 10200000 		.4byte	0x2010
 9040 1fde 26       		.uleb128 0x26
 9041 1fdf 73747200 		.ascii	"str\000"
 9042 1fe3 01       		.byte	0x1
 9043 1fe4 99       		.byte	0x99
 9044 1fe5 71060000 		.4byte	0x671
 9045 1fe9 ED170000 		.4byte	.LLST152
 9046 1fed 37       		.uleb128 0x37
 9047 1fee 0C000000 		.4byte	.LVL382
 9048 1ff2 743A0000 		.4byte	0x3a74
ARM GAS  C:\Users\164\AppData\Local\Temp\cc3ssgoH.s 			page 199


 9049 1ff6 00200000 		.4byte	0x2000
 9050 1ffa 38       		.uleb128 0x38
 9051 1ffb 01       		.uleb128 0x1
 9052 1ffc 51       		.byte	0x51
 9053 1ffd 01       		.uleb128 0x1
 9054 1ffe 30       		.byte	0x30
 9055 1fff 00       		.byte	0
 9056 2000 39       		.uleb128 0x39
 9057 2001 16000000 		.4byte	.LVL383
 9058 2005 743A0000 		.4byte	0x3a74
 9059 2009 38       		.uleb128 0x38
 9060 200a 01       		.uleb128 0x1
 9061 200b 51       		.byte	0x51
 9062 200c 01       		.uleb128 0x1
 9063 200d 30       		.byte	0x30
 9064 200e 00       		.byte	0
 9065 200f 00       		.byte	0
 9066 2010 3C       		.uleb128 0x3c
 9067 2011 D50A0000 		.4byte	.LASF187
 9068 2015 01       		.byte	0x1
 9069 2016 A8       		.byte	0xa8
 9070 2017 20050000 		.4byte	0x520
 9071 201b 00000000 		.4byte	.LFB92
 9072 201f 22000000 		.4byte	.LFE92-.LFB92
 9073 2023 01       		.uleb128 0x1
 9074 2024 9C       		.byte	0x9c
 9075 2025 8A200000 		.4byte	0x208a
 9076 2029 26       		.uleb128 0x26
 9077 202a 766D00   		.ascii	"vm\000"
 9078 202d 01       		.byte	0x1
 9079 202e A8       		.byte	0xa8
 9080 202f 56010000 		.4byte	0x156
 9081 2033 0B180000 		.4byte	.LLST153
 9082 2037 26       		.uleb128 0x26
 9083 2038 733100   		.ascii	"s1\000"
 9084 203b 01       		.byte	0x1
 9085 203c A8       		.byte	0xa8
 9086 203d 71060000 		.4byte	0x671
 9087 2041 2C180000 		.4byte	.LLST154
 9088 2045 27       		.uleb128 0x27
 9089 2046 683100   		.ascii	"h1\000"
 9090 2049 01       		.byte	0x1
 9091 204a AA       		.byte	0xaa
 9092 204b 4A160000 		.4byte	0x164a
 9093 204f 01       		.uleb128 0x1
 9094 2050 54       		.byte	0x54
 9095 2051 3D       		.uleb128 0x3d
 9096 2052 74030000 		.4byte	.LASF170
 9097 2056 01       		.byte	0x1
 9098 2057 AC       		.byte	0xac
 9099 2058 20050000 		.4byte	0x520
 9100 205c 4D180000 		.4byte	.LLST155
 9101 2060 37       		.uleb128 0x37
 9102 2061 0E000000 		.4byte	.LVL387
 9103 2065 7C150000 		.4byte	0x157c
 9104 2069 80200000 		.4byte	0x2080
 9105 206d 38       		.uleb128 0x38
ARM GAS  C:\Users\164\AppData\Local\Temp\cc3ssgoH.s 			page 200


 9106 206e 01       		.uleb128 0x1
 9107 206f 50       		.byte	0x50
 9108 2070 02       		.uleb128 0x2
 9109 2071 75       		.byte	0x75
 9110 2072 00       		.sleb128 0
 9111 2073 38       		.uleb128 0x38
 9112 2074 01       		.uleb128 0x1
 9113 2075 51       		.byte	0x51
 9114 2076 03       		.uleb128 0x3
 9115 2077 F3       		.byte	0xf3
 9116 2078 01       		.uleb128 0x1
 9117 2079 51       		.byte	0x51
 9118 207a 38       		.uleb128 0x38
 9119 207b 01       		.uleb128 0x1
 9120 207c 52       		.byte	0x52
 9121 207d 01       		.uleb128 0x1
 9122 207e 30       		.byte	0x30
 9123 207f 00       		.byte	0
 9124 2080 32       		.uleb128 0x32
 9125 2081 1E000000 		.4byte	.LVL388
 9126 2085 A5390000 		.4byte	0x39a5
 9127 2089 00       		.byte	0
 9128 208a 31       		.uleb128 0x31
 9129 208b AF030000 		.4byte	.LASF188
 9130 208f 01       		.byte	0x1
 9131 2090 9E04     		.2byte	0x49e
 9132 2092 00000000 		.4byte	.LFB128
 9133 2096 3E000000 		.4byte	.LFE128-.LFB128
 9134 209a 01       		.uleb128 0x1
 9135 209b 9C       		.byte	0x9c
 9136 209c 46210000 		.4byte	0x2146
 9137 20a0 2A       		.uleb128 0x2a
 9138 20a1 766D00   		.ascii	"vm\000"
 9139 20a4 01       		.byte	0x1
 9140 20a5 9E04     		.2byte	0x49e
 9141 20a7 56010000 		.4byte	0x156
 9142 20ab 6D180000 		.4byte	.LLST156
 9143 20af 2A       		.uleb128 0x2a
 9144 20b0 7600     		.ascii	"v\000"
 9145 20b2 01       		.byte	0x1
 9146 20b3 9E04     		.2byte	0x49e
 9147 20b5 71060000 		.4byte	0x671
 9148 20b9 96180000 		.4byte	.LLST157
 9149 20bd 2F       		.uleb128 0x2f
 9150 20be F6050000 		.4byte	.LASF154
 9151 20c2 01       		.byte	0x1
 9152 20c3 9E04     		.2byte	0x49e
 9153 20c5 2C000000 		.4byte	0x2c
 9154 20c9 BF180000 		.4byte	.LLST158
 9155 20cd 3A       		.uleb128 0x3a
 9156 20ce 72657400 		.ascii	"ret\000"
 9157 20d2 01       		.byte	0x1
 9158 20d3 A004     		.2byte	0x4a0
 9159 20d5 0A050000 		.4byte	0x50a
 9160 20d9 02       		.uleb128 0x2
 9161 20da 91       		.byte	0x91
 9162 20db 58       		.sleb128 -40
ARM GAS  C:\Users\164\AppData\Local\Temp\cc3ssgoH.s 			page 201


 9163 20dc 36       		.uleb128 0x36
 9164 20dd 18000000 		.4byte	.LBB326
 9165 20e1 16000000 		.4byte	.LBE326-.LBB326
 9166 20e5 09210000 		.4byte	0x2109
 9167 20e9 3A       		.uleb128 0x3a
 9168 20ea 6E6E6E00 		.ascii	"nnn\000"
 9169 20ee 01       		.byte	0x1
 9170 20ef A104     		.2byte	0x4a1
 9171 20f1 20050000 		.4byte	0x520
 9172 20f5 02       		.uleb128 0x2
 9173 20f6 91       		.byte	0x91
 9174 20f7 48       		.sleb128 -56
 9175 20f8 39       		.uleb128 0x39
 9176 20f9 26000000 		.4byte	.LVL394
 9177 20fd AE390000 		.4byte	0x39ae
 9178 2101 38       		.uleb128 0x38
 9179 2102 01       		.uleb128 0x1
 9180 2103 50       		.byte	0x50
 9181 2104 02       		.uleb128 0x2
 9182 2105 75       		.byte	0x75
 9183 2106 00       		.sleb128 0
 9184 2107 00       		.byte	0
 9185 2108 00       		.byte	0
 9186 2109 37       		.uleb128 0x37
 9187 210a 18000000 		.4byte	.LVL393
 9188 210e 10200000 		.4byte	0x2010
 9189 2112 29210000 		.4byte	0x2129
 9190 2116 38       		.uleb128 0x38
 9191 2117 01       		.uleb128 0x1
 9192 2118 50       		.byte	0x50
 9193 2119 02       		.uleb128 0x2
 9194 211a 76       		.byte	0x76
 9195 211b 00       		.sleb128 0
 9196 211c 38       		.uleb128 0x38
 9197 211d 01       		.uleb128 0x1
 9198 211e 51       		.byte	0x51
 9199 211f 02       		.uleb128 0x2
 9200 2120 77       		.byte	0x77
 9201 2121 00       		.sleb128 0
 9202 2122 38       		.uleb128 0x38
 9203 2123 01       		.uleb128 0x1
 9204 2124 52       		.byte	0x52
 9205 2125 02       		.uleb128 0x2
 9206 2126 75       		.byte	0x75
 9207 2127 00       		.sleb128 0
 9208 2128 00       		.byte	0
 9209 2129 39       		.uleb128 0x39
 9210 212a 38000000 		.4byte	.LVL395
 9211 212e 7B110000 		.4byte	0x117b
 9212 2132 38       		.uleb128 0x38
 9213 2133 01       		.uleb128 0x1
 9214 2134 50       		.byte	0x50
 9215 2135 02       		.uleb128 0x2
 9216 2136 77       		.byte	0x77
 9217 2137 00       		.sleb128 0
 9218 2138 38       		.uleb128 0x38
 9219 2139 01       		.uleb128 0x1
ARM GAS  C:\Users\164\AppData\Local\Temp\cc3ssgoH.s 			page 202


 9220 213a 51       		.byte	0x51
 9221 213b 02       		.uleb128 0x2
 9222 213c 75       		.byte	0x75
 9223 213d 00       		.sleb128 0
 9224 213e 38       		.uleb128 0x38
 9225 213f 01       		.uleb128 0x1
 9226 2140 52       		.byte	0x52
 9227 2141 02       		.uleb128 0x2
 9228 2142 78       		.byte	0x78
 9229 2143 00       		.sleb128 0
 9230 2144 00       		.byte	0
 9231 2145 00       		.byte	0
 9232 2146 31       		.uleb128 0x31
 9233 2147 A3040000 		.4byte	.LASF189
 9234 214b 01       		.byte	0x1
 9235 214c 6202     		.2byte	0x262
 9236 214e 00000000 		.4byte	.LFB109
 9237 2152 2C000000 		.4byte	.LFE109-.LFB109
 9238 2156 01       		.uleb128 0x1
 9239 2157 9C       		.byte	0x9c
 9240 2158 E3210000 		.4byte	0x21e3
 9241 215c 2A       		.uleb128 0x2a
 9242 215d 766D00   		.ascii	"vm\000"
 9243 2160 01       		.byte	0x1
 9244 2161 6202     		.2byte	0x262
 9245 2163 56010000 		.4byte	0x156
 9246 2167 DD180000 		.4byte	.LLST159
 9247 216b 2A       		.uleb128 0x2a
 9248 216c 7600     		.ascii	"v\000"
 9249 216e 01       		.byte	0x1
 9250 216f 6202     		.2byte	0x262
 9251 2171 71060000 		.4byte	0x671
 9252 2175 09190000 		.4byte	.LLST160
 9253 2179 2F       		.uleb128 0x2f
 9254 217a F6050000 		.4byte	.LASF154
 9255 217e 01       		.byte	0x1
 9256 217f 6202     		.2byte	0x262
 9257 2181 2C000000 		.4byte	0x2c
 9258 2185 32190000 		.4byte	.LLST161
 9259 2189 3A       		.uleb128 0x3a
 9260 218a 72657400 		.ascii	"ret\000"
 9261 218e 01       		.byte	0x1
 9262 218f 6402     		.2byte	0x264
 9263 2191 20050000 		.4byte	0x520
 9264 2195 02       		.uleb128 0x2
 9265 2196 91       		.byte	0x91
 9266 2197 60       		.sleb128 -32
 9267 2198 36       		.uleb128 0x36
 9268 2199 12000000 		.4byte	.LBB327
 9269 219d 16000000 		.4byte	.LBE327-.LBB327
 9270 21a1 C5210000 		.4byte	0x21c5
 9271 21a5 3A       		.uleb128 0x3a
 9272 21a6 6E6E6E00 		.ascii	"nnn\000"
 9273 21aa 01       		.byte	0x1
 9274 21ab 6602     		.2byte	0x266
 9275 21ad 20050000 		.4byte	0x520
 9276 21b1 02       		.uleb128 0x2
ARM GAS  C:\Users\164\AppData\Local\Temp\cc3ssgoH.s 			page 203


 9277 21b2 91       		.byte	0x91
 9278 21b3 50       		.sleb128 -48
 9279 21b4 39       		.uleb128 0x39
 9280 21b5 20000000 		.4byte	.LVL401
 9281 21b9 AE390000 		.4byte	0x39ae
 9282 21bd 38       		.uleb128 0x38
 9283 21be 01       		.uleb128 0x1
 9284 21bf 50       		.byte	0x50
 9285 21c0 02       		.uleb128 0x2
 9286 21c1 75       		.byte	0x75
 9287 21c2 00       		.sleb128 0
 9288 21c3 00       		.byte	0
 9289 21c4 00       		.byte	0
 9290 21c5 39       		.uleb128 0x39
 9291 21c6 12000000 		.4byte	.LVL400
 9292 21ca 10200000 		.4byte	0x2010
 9293 21ce 38       		.uleb128 0x38
 9294 21cf 01       		.uleb128 0x1
 9295 21d0 50       		.byte	0x50
 9296 21d1 02       		.uleb128 0x2
 9297 21d2 76       		.byte	0x76
 9298 21d3 00       		.sleb128 0
 9299 21d4 38       		.uleb128 0x38
 9300 21d5 01       		.uleb128 0x1
 9301 21d6 51       		.byte	0x51
 9302 21d7 03       		.uleb128 0x3
 9303 21d8 F3       		.byte	0xf3
 9304 21d9 01       		.uleb128 0x1
 9305 21da 50       		.byte	0x50
 9306 21db 38       		.uleb128 0x38
 9307 21dc 01       		.uleb128 0x1
 9308 21dd 52       		.byte	0x52
 9309 21de 02       		.uleb128 0x2
 9310 21df 75       		.byte	0x75
 9311 21e0 00       		.sleb128 0
 9312 21e1 00       		.byte	0
 9313 21e2 00       		.byte	0
 9314 21e3 3C       		.uleb128 0x3c
 9315 21e4 AB080000 		.4byte	.LASF190
 9316 21e8 01       		.byte	0x1
 9317 21e9 BD       		.byte	0xbd
 9318 21ea 20050000 		.4byte	0x520
 9319 21ee 00000000 		.4byte	.LFB93
 9320 21f2 36000000 		.4byte	.LFE93-.LFB93
 9321 21f6 01       		.uleb128 0x1
 9322 21f7 9C       		.byte	0x9c
 9323 21f8 80220000 		.4byte	0x2280
 9324 21fc 26       		.uleb128 0x26
 9325 21fd 766D00   		.ascii	"vm\000"
 9326 2200 01       		.byte	0x1
 9327 2201 BD       		.byte	0xbd
 9328 2202 56010000 		.4byte	0x156
 9329 2206 53190000 		.4byte	.LLST162
 9330 220a 26       		.uleb128 0x26
 9331 220b 733100   		.ascii	"s1\000"
 9332 220e 01       		.byte	0x1
 9333 220f BD       		.byte	0xbd
ARM GAS  C:\Users\164\AppData\Local\Temp\cc3ssgoH.s 			page 204


 9334 2210 FC070000 		.4byte	0x7fc
 9335 2214 74190000 		.4byte	.LLST163
 9336 2218 26       		.uleb128 0x26
 9337 2219 733200   		.ascii	"s2\000"
 9338 221c 01       		.byte	0x1
 9339 221d BD       		.byte	0xbd
 9340 221e FC070000 		.4byte	0x7fc
 9341 2222 95190000 		.4byte	.LLST164
 9342 2226 27       		.uleb128 0x27
 9343 2227 683100   		.ascii	"h1\000"
 9344 222a 01       		.byte	0x1
 9345 222b BF       		.byte	0xbf
 9346 222c 4A160000 		.4byte	0x164a
 9347 2230 01       		.uleb128 0x1
 9348 2231 54       		.byte	0x54
 9349 2232 27       		.uleb128 0x27
 9350 2233 683200   		.ascii	"h2\000"
 9351 2236 01       		.byte	0x1
 9352 2237 C0       		.byte	0xc0
 9353 2238 4A160000 		.4byte	0x164a
 9354 223c 01       		.uleb128 0x1
 9355 223d 55       		.byte	0x55
 9356 223e 3D       		.uleb128 0x3d
 9357 223f 74030000 		.4byte	.LASF170
 9358 2243 01       		.byte	0x1
 9359 2244 C2       		.byte	0xc2
 9360 2245 20050000 		.4byte	0x520
 9361 2249 B6190000 		.4byte	.LLST165
 9362 224d 37       		.uleb128 0x37
 9363 224e 14000000 		.4byte	.LVL407
 9364 2252 7C150000 		.4byte	0x157c
 9365 2256 6D220000 		.4byte	0x226d
 9366 225a 38       		.uleb128 0x38
 9367 225b 01       		.uleb128 0x1
 9368 225c 50       		.byte	0x50
 9369 225d 02       		.uleb128 0x2
 9370 225e 77       		.byte	0x77
 9371 225f 00       		.sleb128 0
 9372 2260 38       		.uleb128 0x38
 9373 2261 01       		.uleb128 0x1
 9374 2262 51       		.byte	0x51
 9375 2263 03       		.uleb128 0x3
 9376 2264 F3       		.byte	0xf3
 9377 2265 01       		.uleb128 0x1
 9378 2266 51       		.byte	0x51
 9379 2267 38       		.uleb128 0x38
 9380 2268 01       		.uleb128 0x1
 9381 2269 52       		.byte	0x52
 9382 226a 01       		.uleb128 0x1
 9383 226b 30       		.byte	0x30
 9384 226c 00       		.byte	0
 9385 226d 32       		.uleb128 0x32
 9386 226e 22000000 		.4byte	.LVL408
 9387 2272 A5390000 		.4byte	0x39a5
 9388 2276 32       		.uleb128 0x32
 9389 2277 32000000 		.4byte	.LVL409
 9390 227b A5390000 		.4byte	0x39a5
ARM GAS  C:\Users\164\AppData\Local\Temp\cc3ssgoH.s 			page 205


 9391 227f 00       		.byte	0
 9392 2280 31       		.uleb128 0x31
 9393 2281 B9020000 		.4byte	.LASF191
 9394 2285 01       		.byte	0x1
 9395 2286 6501     		.2byte	0x165
 9396 2288 00000000 		.4byte	.LFB99
 9397 228c 48000000 		.4byte	.LFE99-.LFB99
 9398 2290 01       		.uleb128 0x1
 9399 2291 9C       		.byte	0x9c
 9400 2292 5E230000 		.4byte	0x235e
 9401 2296 2A       		.uleb128 0x2a
 9402 2297 766D00   		.ascii	"vm\000"
 9403 229a 01       		.byte	0x1
 9404 229b 6501     		.2byte	0x165
 9405 229d 56010000 		.4byte	0x156
 9406 22a1 D6190000 		.4byte	.LLST166
 9407 22a5 2A       		.uleb128 0x2a
 9408 22a6 7600     		.ascii	"v\000"
 9409 22a8 01       		.byte	0x1
 9410 22a9 6501     		.2byte	0x165
 9411 22ab 71060000 		.4byte	0x671
 9412 22af 1B1A0000 		.4byte	.LLST167
 9413 22b3 2F       		.uleb128 0x2f
 9414 22b4 F6050000 		.4byte	.LASF154
 9415 22b8 01       		.byte	0x1
 9416 22b9 6501     		.2byte	0x165
 9417 22bb 2C000000 		.4byte	0x2c
 9418 22bf 6B1A0000 		.4byte	.LLST168
 9419 22c3 3F       		.uleb128 0x3f
 9420 22c4 74030000 		.4byte	.LASF170
 9421 22c8 01       		.byte	0x1
 9422 22c9 6C01     		.2byte	0x16c
 9423 22cb 20050000 		.4byte	0x520
 9424 22cf 02       		.uleb128 0x2
 9425 22d0 91       		.byte	0x91
 9426 22d1 60       		.sleb128 -32
 9427 22d2 34       		.uleb128 0x34
 9428 22d3 6D0F0000 		.4byte	0xf6d
 9429 22d7 0C000000 		.4byte	.LBB331
 9430 22db 0E000000 		.4byte	.LBE331-.LBB331
 9431 22df 01       		.byte	0x1
 9432 22e0 6801     		.2byte	0x168
 9433 22e2 0D230000 		.4byte	0x230d
 9434 22e6 35       		.uleb128 0x35
 9435 22e7 790F0000 		.4byte	0xf79
 9436 22eb A51A0000 		.4byte	.LLST169
 9437 22ef 39       		.uleb128 0x39
 9438 22f0 16000000 		.4byte	.LVL415
 9439 22f4 DA390000 		.4byte	0x39da
 9440 22f8 38       		.uleb128 0x38
 9441 22f9 01       		.uleb128 0x1
 9442 22fa 50       		.byte	0x50
 9443 22fb 01       		.uleb128 0x1
 9444 22fc 31       		.byte	0x31
 9445 22fd 38       		.uleb128 0x38
 9446 22fe 01       		.uleb128 0x1
 9447 22ff 51       		.byte	0x51
ARM GAS  C:\Users\164\AppData\Local\Temp\cc3ssgoH.s 			page 206


 9448 2300 05       		.uleb128 0x5
 9449 2301 03       		.byte	0x3
 9450 2302 60000000 		.4byte	.LC5
 9451 2306 38       		.uleb128 0x38
 9452 2307 01       		.uleb128 0x1
 9453 2308 52       		.byte	0x52
 9454 2309 01       		.uleb128 0x1
 9455 230a 4B       		.byte	0x4b
 9456 230b 00       		.byte	0
 9457 230c 00       		.byte	0
 9458 230d 36       		.uleb128 0x36
 9459 230e 2A000000 		.4byte	.LBB333
 9460 2312 16000000 		.4byte	.LBE333-.LBB333
 9461 2316 3A230000 		.4byte	0x233a
 9462 231a 3A       		.uleb128 0x3a
 9463 231b 6E6E6E00 		.ascii	"nnn\000"
 9464 231f 01       		.byte	0x1
 9465 2320 6D01     		.2byte	0x16d
 9466 2322 20050000 		.4byte	0x520
 9467 2326 02       		.uleb128 0x2
 9468 2327 91       		.byte	0x91
 9469 2328 50       		.sleb128 -48
 9470 2329 39       		.uleb128 0x39
 9471 232a 38000000 		.4byte	.LVL421
 9472 232e AE390000 		.4byte	0x39ae
 9473 2332 38       		.uleb128 0x38
 9474 2333 01       		.uleb128 0x1
 9475 2334 50       		.byte	0x50
 9476 2335 02       		.uleb128 0x2
 9477 2336 74       		.byte	0x74
 9478 2337 00       		.sleb128 0
 9479 2338 00       		.byte	0
 9480 2339 00       		.byte	0
 9481 233a 39       		.uleb128 0x39
 9482 233b 2A000000 		.4byte	.LVL420
 9483 233f E3210000 		.4byte	0x21e3
 9484 2343 38       		.uleb128 0x38
 9485 2344 01       		.uleb128 0x1
 9486 2345 50       		.byte	0x50
 9487 2346 02       		.uleb128 0x2
 9488 2347 76       		.byte	0x76
 9489 2348 00       		.sleb128 0
 9490 2349 38       		.uleb128 0x38
 9491 234a 01       		.uleb128 0x1
 9492 234b 51       		.byte	0x51
 9493 234c 03       		.uleb128 0x3
 9494 234d F3       		.byte	0xf3
 9495 234e 01       		.uleb128 0x1
 9496 234f 50       		.byte	0x50
 9497 2350 38       		.uleb128 0x38
 9498 2351 01       		.uleb128 0x1
 9499 2352 52       		.byte	0x52
 9500 2353 02       		.uleb128 0x2
 9501 2354 74       		.byte	0x74
 9502 2355 00       		.sleb128 0
 9503 2356 38       		.uleb128 0x38
 9504 2357 01       		.uleb128 0x1
ARM GAS  C:\Users\164\AppData\Local\Temp\cc3ssgoH.s 			page 207


 9505 2358 53       		.byte	0x53
 9506 2359 02       		.uleb128 0x2
 9507 235a 74       		.byte	0x74
 9508 235b 10       		.sleb128 16
 9509 235c 00       		.byte	0
 9510 235d 00       		.byte	0
 9511 235e 3C       		.uleb128 0x3c
 9512 235f A2000000 		.4byte	.LASF192
 9513 2363 01       		.byte	0x1
 9514 2364 D3       		.byte	0xd3
 9515 2365 2C000000 		.4byte	0x2c
 9516 2369 00000000 		.4byte	.LFB94
 9517 236d 66000000 		.4byte	.LFE94-.LFB94
 9518 2371 01       		.uleb128 0x1
 9519 2372 9C       		.byte	0x9c
 9520 2373 F1230000 		.4byte	0x23f1
 9521 2377 26       		.uleb128 0x26
 9522 2378 733100   		.ascii	"s1\000"
 9523 237b 01       		.byte	0x1
 9524 237c D3       		.byte	0xd3
 9525 237d 71060000 		.4byte	0x671
 9526 2381 BD1A0000 		.4byte	.LLST170
 9527 2385 26       		.uleb128 0x26
 9528 2386 733200   		.ascii	"s2\000"
 9529 2389 01       		.byte	0x1
 9530 238a D3       		.byte	0xd3
 9531 238b FC070000 		.4byte	0x7fc
 9532 238f DB1A0000 		.4byte	.LLST171
 9533 2393 44       		.uleb128 0x44
 9534 2394 C7070000 		.4byte	.LASF168
 9535 2398 01       		.byte	0x1
 9536 2399 D5       		.byte	0xd5
 9537 239a 2C000000 		.4byte	0x2c
 9538 239e 01       		.uleb128 0x1
 9539 239f 57       		.byte	0x57
 9540 23a0 3D       		.uleb128 0x3d
 9541 23a1 C2070000 		.4byte	.LASF169
 9542 23a5 01       		.byte	0x1
 9543 23a6 D6       		.byte	0xd6
 9544 23a7 2C000000 		.4byte	0x2c
 9545 23ab F91A0000 		.4byte	.LLST172
 9546 23af 28       		.uleb128 0x28
 9547 23b0 73747200 		.ascii	"str\000"
 9548 23b4 01       		.byte	0x1
 9549 23b5 D8       		.byte	0xd8
 9550 23b6 EE050000 		.4byte	0x5ee
 9551 23ba 171B0000 		.4byte	.LLST173
 9552 23be 37       		.uleb128 0x37
 9553 23bf 26000000 		.4byte	.LVL428
 9554 23c3 7F3A0000 		.4byte	0x3a7f
 9555 23c7 D7230000 		.4byte	0x23d7
 9556 23cb 38       		.uleb128 0x38
 9557 23cc 01       		.uleb128 0x1
 9558 23cd 51       		.byte	0x51
 9559 23ce 07       		.uleb128 0x7
 9560 23cf 74       		.byte	0x74
 9561 23d0 00       		.sleb128 0
ARM GAS  C:\Users\164\AppData\Local\Temp\cc3ssgoH.s 			page 208


 9562 23d1 77       		.byte	0x77
 9563 23d2 00       		.sleb128 0
 9564 23d3 22       		.byte	0x22
 9565 23d4 23       		.byte	0x23
 9566 23d5 01       		.uleb128 0x1
 9567 23d6 00       		.byte	0
 9568 23d7 39       		.uleb128 0x39
 9569 23d8 3E000000 		.4byte	.LVL430
 9570 23dc A5390000 		.4byte	0x39a5
 9571 23e0 38       		.uleb128 0x38
 9572 23e1 01       		.uleb128 0x1
 9573 23e2 50       		.byte	0x50
 9574 23e3 05       		.uleb128 0x5
 9575 23e4 78       		.byte	0x78
 9576 23e5 00       		.sleb128 0
 9577 23e6 77       		.byte	0x77
 9578 23e7 00       		.sleb128 0
 9579 23e8 22       		.byte	0x22
 9580 23e9 38       		.uleb128 0x38
 9581 23ea 01       		.uleb128 0x1
 9582 23eb 52       		.byte	0x52
 9583 23ec 02       		.uleb128 0x2
 9584 23ed 74       		.byte	0x74
 9585 23ee 01       		.sleb128 1
 9586 23ef 00       		.byte	0
 9587 23f0 00       		.byte	0
 9588 23f1 31       		.uleb128 0x31
 9589 23f2 CA050000 		.4byte	.LASF193
 9590 23f6 01       		.byte	0x1
 9591 23f7 C101     		.2byte	0x1c1
 9592 23f9 00000000 		.4byte	.LFB104
 9593 23fd 0C000000 		.4byte	.LFE104-.LFB104
 9594 2401 01       		.uleb128 0x1
 9595 2402 9C       		.byte	0x9c
 9596 2403 4F240000 		.4byte	0x244f
 9597 2407 2A       		.uleb128 0x2a
 9598 2408 766D00   		.ascii	"vm\000"
 9599 240b 01       		.byte	0x1
 9600 240c C101     		.2byte	0x1c1
 9601 240e 56010000 		.4byte	0x156
 9602 2412 611B0000 		.4byte	.LLST174
 9603 2416 2A       		.uleb128 0x2a
 9604 2417 7600     		.ascii	"v\000"
 9605 2419 01       		.byte	0x1
 9606 241a C101     		.2byte	0x1c1
 9607 241c 71060000 		.4byte	0x671
 9608 2420 821B0000 		.4byte	.LLST175
 9609 2424 2F       		.uleb128 0x2f
 9610 2425 F6050000 		.4byte	.LASF154
 9611 2429 01       		.byte	0x1
 9612 242a C101     		.2byte	0x1c1
 9613 242c 2C000000 		.4byte	0x2c
 9614 2430 AE1B0000 		.4byte	.LLST176
 9615 2434 39       		.uleb128 0x39
 9616 2435 0A000000 		.4byte	.LVL439
 9617 2439 5E230000 		.4byte	0x235e
 9618 243d 38       		.uleb128 0x38
ARM GAS  C:\Users\164\AppData\Local\Temp\cc3ssgoH.s 			page 209


 9619 243e 01       		.uleb128 0x1
 9620 243f 50       		.byte	0x50
 9621 2440 03       		.uleb128 0x3
 9622 2441 F3       		.byte	0xf3
 9623 2442 01       		.uleb128 0x1
 9624 2443 51       		.byte	0x51
 9625 2444 38       		.uleb128 0x38
 9626 2445 01       		.uleb128 0x1
 9627 2446 51       		.byte	0x51
 9628 2447 05       		.uleb128 0x5
 9629 2448 F3       		.byte	0xf3
 9630 2449 01       		.uleb128 0x1
 9631 244a 51       		.byte	0x51
 9632 244b 23       		.byte	0x23
 9633 244c 10       		.uleb128 0x10
 9634 244d 00       		.byte	0
 9635 244e 00       		.byte	0
 9636 244f 3C       		.uleb128 0x3c
 9637 2450 49060000 		.4byte	.LASF194
 9638 2454 01       		.byte	0x1
 9639 2455 F0       		.byte	0xf0
 9640 2456 2C000000 		.4byte	0x2c
 9641 245a 00000000 		.4byte	.LFB95
 9642 245e 42000000 		.4byte	.LFE95-.LFB95
 9643 2462 01       		.uleb128 0x1
 9644 2463 9C       		.byte	0x9c
 9645 2464 FC240000 		.4byte	0x24fc
 9646 2468 26       		.uleb128 0x26
 9647 2469 733100   		.ascii	"s1\000"
 9648 246c 01       		.byte	0x1
 9649 246d F0       		.byte	0xf0
 9650 246e 71060000 		.4byte	0x671
 9651 2472 CF1B0000 		.4byte	.LLST177
 9652 2476 26       		.uleb128 0x26
 9653 2477 733200   		.ascii	"s2\000"
 9654 247a 01       		.byte	0x1
 9655 247b F0       		.byte	0xf0
 9656 247c BF000000 		.4byte	0xbf
 9657 2480 ED1B0000 		.4byte	.LLST178
 9658 2484 44       		.uleb128 0x44
 9659 2485 C7070000 		.4byte	.LASF168
 9660 2489 01       		.byte	0x1
 9661 248a F2       		.byte	0xf2
 9662 248b 2C000000 		.4byte	0x2c
 9663 248f 01       		.uleb128 0x1
 9664 2490 56       		.byte	0x56
 9665 2491 3D       		.uleb128 0x3d
 9666 2492 C2070000 		.4byte	.LASF169
 9667 2496 01       		.byte	0x1
 9668 2497 F3       		.byte	0xf3
 9669 2498 2C000000 		.4byte	0x2c
 9670 249c 0B1C0000 		.4byte	.LLST179
 9671 24a0 28       		.uleb128 0x28
 9672 24a1 73747200 		.ascii	"str\000"
 9673 24a5 01       		.byte	0x1
 9674 24a6 F5       		.byte	0xf5
 9675 24a7 EE050000 		.4byte	0x5ee
ARM GAS  C:\Users\164\AppData\Local\Temp\cc3ssgoH.s 			page 210


 9676 24ab 341C0000 		.4byte	.LLST180
 9677 24af 37       		.uleb128 0x37
 9678 24b0 12000000 		.4byte	.LVL443
 9679 24b4 113A0000 		.4byte	0x3a11
 9680 24b8 C3240000 		.4byte	0x24c3
 9681 24bc 38       		.uleb128 0x38
 9682 24bd 01       		.uleb128 0x1
 9683 24be 50       		.byte	0x50
 9684 24bf 02       		.uleb128 0x2
 9685 24c0 78       		.byte	0x78
 9686 24c1 00       		.sleb128 0
 9687 24c2 00       		.byte	0
 9688 24c3 37       		.uleb128 0x37
 9689 24c4 1E000000 		.4byte	.LVL446
 9690 24c8 7F3A0000 		.4byte	0x3a7f
 9691 24cc DC240000 		.4byte	0x24dc
 9692 24d0 38       		.uleb128 0x38
 9693 24d1 01       		.uleb128 0x1
 9694 24d2 51       		.byte	0x51
 9695 24d3 07       		.uleb128 0x7
 9696 24d4 74       		.byte	0x74
 9697 24d5 00       		.sleb128 0
 9698 24d6 76       		.byte	0x76
 9699 24d7 00       		.sleb128 0
 9700 24d8 22       		.byte	0x22
 9701 24d9 23       		.byte	0x23
 9702 24da 01       		.uleb128 0x1
 9703 24db 00       		.byte	0
 9704 24dc 39       		.uleb128 0x39
 9705 24dd 2C000000 		.4byte	.LVL448
 9706 24e1 A5390000 		.4byte	0x39a5
 9707 24e5 38       		.uleb128 0x38
 9708 24e6 01       		.uleb128 0x1
 9709 24e7 50       		.byte	0x50
 9710 24e8 05       		.uleb128 0x5
 9711 24e9 77       		.byte	0x77
 9712 24ea 00       		.sleb128 0
 9713 24eb 76       		.byte	0x76
 9714 24ec 00       		.sleb128 0
 9715 24ed 22       		.byte	0x22
 9716 24ee 38       		.uleb128 0x38
 9717 24ef 01       		.uleb128 0x1
 9718 24f0 51       		.byte	0x51
 9719 24f1 02       		.uleb128 0x2
 9720 24f2 78       		.byte	0x78
 9721 24f3 00       		.sleb128 0
 9722 24f4 38       		.uleb128 0x38
 9723 24f5 01       		.uleb128 0x1
 9724 24f6 52       		.byte	0x52
 9725 24f7 02       		.uleb128 0x2
 9726 24f8 74       		.byte	0x74
 9727 24f9 01       		.sleb128 1
 9728 24fa 00       		.byte	0
 9729 24fb 00       		.byte	0
 9730 24fc 31       		.uleb128 0x31
 9731 24fd 2A070000 		.4byte	.LASF195
 9732 2501 01       		.byte	0x1
ARM GAS  C:\Users\164\AppData\Local\Temp\cc3ssgoH.s 			page 211


 9733 2502 8C02     		.2byte	0x28c
 9734 2504 00000000 		.4byte	.LFB111
 9735 2508 94000000 		.4byte	.LFE111-.LFB111
 9736 250c 01       		.uleb128 0x1
 9737 250d 9C       		.byte	0x9c
 9738 250e 50260000 		.4byte	0x2650
 9739 2512 2A       		.uleb128 0x2a
 9740 2513 766D00   		.ascii	"vm\000"
 9741 2516 01       		.byte	0x1
 9742 2517 8C02     		.2byte	0x28c
 9743 2519 56010000 		.4byte	0x156
 9744 251d 5D1C0000 		.4byte	.LLST181
 9745 2521 2A       		.uleb128 0x2a
 9746 2522 7600     		.ascii	"v\000"
 9747 2524 01       		.byte	0x1
 9748 2525 8C02     		.2byte	0x28c
 9749 2527 71060000 		.4byte	0x671
 9750 252b 891C0000 		.4byte	.LLST182
 9751 252f 2F       		.uleb128 0x2f
 9752 2530 F6050000 		.4byte	.LASF154
 9753 2534 01       		.byte	0x1
 9754 2535 8C02     		.2byte	0x28c
 9755 2537 2C000000 		.4byte	0x2c
 9756 253b B51C0000 		.4byte	.LLST183
 9757 253f 3A       		.uleb128 0x3a
 9758 2540 62756600 		.ascii	"buf\000"
 9759 2544 01       		.byte	0x1
 9760 2545 8E02     		.2byte	0x28e
 9761 2547 50260000 		.4byte	0x2650
 9762 254b 02       		.uleb128 0x2
 9763 254c 91       		.byte	0x91
 9764 254d 64       		.sleb128 -28
 9765 254e 3A       		.uleb128 0x3a
 9766 254f 72657400 		.ascii	"ret\000"
 9767 2553 01       		.byte	0x1
 9768 2554 8F02     		.2byte	0x28f
 9769 2556 20050000 		.4byte	0x520
 9770 255a 02       		.uleb128 0x2
 9771 255b 91       		.byte	0x91
 9772 255c 50       		.sleb128 -48
 9773 255d 3B       		.uleb128 0x3b
 9774 255e 7300     		.ascii	"s\000"
 9775 2560 01       		.byte	0x1
 9776 2561 9002     		.2byte	0x290
 9777 2563 60260000 		.4byte	0x2660
 9778 2567 2C       		.uleb128 0x2c
 9779 2568 6900     		.ascii	"i\000"
 9780 256a 01       		.byte	0x1
 9781 256b 9102     		.2byte	0x291
 9782 256d 2C000000 		.4byte	0x2c
 9783 2571 D61C0000 		.4byte	.LLST184
 9784 2575 34       		.uleb128 0x34
 9785 2576 07080000 		.4byte	0x807
 9786 257a 1E000000 		.4byte	.LBB334
 9787 257e 04000000 		.4byte	.LBE334-.LBB334
 9788 2582 01       		.byte	0x1
 9789 2583 9002     		.2byte	0x290
ARM GAS  C:\Users\164\AppData\Local\Temp\cc3ssgoH.s 			page 212


 9790 2585 93250000 		.4byte	0x2593
 9791 2589 35       		.uleb128 0x35
 9792 258a 17080000 		.4byte	0x817
 9793 258e F51C0000 		.4byte	.LLST185
 9794 2592 00       		.byte	0
 9795 2593 34       		.uleb128 0x34
 9796 2594 E0070000 		.4byte	0x7e0
 9797 2598 5E000000 		.4byte	.LBB336
 9798 259c 04000000 		.4byte	.LBE336-.LBB336
 9799 25a0 01       		.byte	0x1
 9800 25a1 9202     		.2byte	0x292
 9801 25a3 B1250000 		.4byte	0x25b1
 9802 25a7 35       		.uleb128 0x35
 9803 25a8 F0070000 		.4byte	0x7f0
 9804 25ac 081D0000 		.4byte	.LLST186
 9805 25b0 00       		.byte	0
 9806 25b1 36       		.uleb128 0x36
 9807 25b2 70000000 		.4byte	.LBB338
 9808 25b6 16000000 		.4byte	.LBE338-.LBB338
 9809 25ba DE250000 		.4byte	0x25de
 9810 25be 3A       		.uleb128 0x3a
 9811 25bf 6E6E6E00 		.ascii	"nnn\000"
 9812 25c3 01       		.byte	0x1
 9813 25c4 9E02     		.2byte	0x29e
 9814 25c6 20050000 		.4byte	0x520
 9815 25ca 02       		.uleb128 0x2
 9816 25cb 91       		.byte	0x91
 9817 25cc 40       		.sleb128 -64
 9818 25cd 39       		.uleb128 0x39
 9819 25ce 7E000000 		.4byte	.LVL464
 9820 25d2 AE390000 		.4byte	0x39ae
 9821 25d6 38       		.uleb128 0x38
 9822 25d7 01       		.uleb128 0x1
 9823 25d8 50       		.byte	0x50
 9824 25d9 02       		.uleb128 0x2
 9825 25da 75       		.byte	0x75
 9826 25db 00       		.sleb128 0
 9827 25dc 00       		.byte	0
 9828 25dd 00       		.byte	0
 9829 25de 37       		.uleb128 0x37
 9830 25df 1E000000 		.4byte	.LVL456
 9831 25e3 AD190000 		.4byte	0x19ad
 9832 25e7 02260000 		.4byte	0x2602
 9833 25eb 38       		.uleb128 0x38
 9834 25ec 01       		.uleb128 0x1
 9835 25ed 50       		.byte	0x50
 9836 25ee 02       		.uleb128 0x2
 9837 25ef 91       		.byte	0x91
 9838 25f0 50       		.sleb128 -48
 9839 25f1 38       		.uleb128 0x38
 9840 25f2 01       		.uleb128 0x1
 9841 25f3 51       		.byte	0x51
 9842 25f4 03       		.uleb128 0x3
 9843 25f5 F3       		.byte	0xf3
 9844 25f6 01       		.uleb128 0x1
 9845 25f7 50       		.byte	0x50
 9846 25f8 38       		.uleb128 0x38
ARM GAS  C:\Users\164\AppData\Local\Temp\cc3ssgoH.s 			page 213


 9847 25f9 01       		.uleb128 0x1
 9848 25fa 52       		.byte	0x52
 9849 25fb 05       		.uleb128 0x5
 9850 25fc 03       		.byte	0x3
 9851 25fd 7C000000 		.4byte	.LC6
 9852 2601 00       		.byte	0
 9853 2602 37       		.uleb128 0x37
 9854 2603 4E000000 		.4byte	.LVL459
 9855 2607 4F240000 		.4byte	0x244f
 9856 260b 1C260000 		.4byte	0x261c
 9857 260f 38       		.uleb128 0x38
 9858 2610 01       		.uleb128 0x1
 9859 2611 50       		.byte	0x50
 9860 2612 02       		.uleb128 0x2
 9861 2613 91       		.byte	0x91
 9862 2614 50       		.sleb128 -48
 9863 2615 38       		.uleb128 0x38
 9864 2616 01       		.uleb128 0x1
 9865 2617 51       		.byte	0x51
 9866 2618 02       		.uleb128 0x2
 9867 2619 91       		.byte	0x91
 9868 261a 64       		.sleb128 -28
 9869 261b 00       		.byte	0
 9870 261c 37       		.uleb128 0x37
 9871 261d 5C000000 		.4byte	.LVL460
 9872 2621 4F240000 		.4byte	0x244f
 9873 2625 36260000 		.4byte	0x2636
 9874 2629 38       		.uleb128 0x38
 9875 262a 01       		.uleb128 0x1
 9876 262b 50       		.byte	0x50
 9877 262c 02       		.uleb128 0x2
 9878 262d 91       		.byte	0x91
 9879 262e 50       		.sleb128 -48
 9880 262f 38       		.uleb128 0x38
 9881 2630 01       		.uleb128 0x1
 9882 2631 51       		.byte	0x51
 9883 2632 02       		.uleb128 0x2
 9884 2633 91       		.byte	0x91
 9885 2634 67       		.sleb128 -25
 9886 2635 00       		.byte	0
 9887 2636 39       		.uleb128 0x39
 9888 2637 70000000 		.4byte	.LVL463
 9889 263b 4F240000 		.4byte	0x244f
 9890 263f 38       		.uleb128 0x38
 9891 2640 01       		.uleb128 0x1
 9892 2641 50       		.byte	0x50
 9893 2642 02       		.uleb128 0x2
 9894 2643 76       		.byte	0x76
 9895 2644 00       		.sleb128 0
 9896 2645 38       		.uleb128 0x38
 9897 2646 01       		.uleb128 0x1
 9898 2647 51       		.byte	0x51
 9899 2648 05       		.uleb128 0x5
 9900 2649 03       		.byte	0x3
 9901 264a 7C000000 		.4byte	.LC6
 9902 264e 00       		.byte	0
 9903 264f 00       		.byte	0
ARM GAS  C:\Users\164\AppData\Local\Temp\cc3ssgoH.s 			page 214


 9904 2650 1A       		.uleb128 0x1a
 9905 2651 B8000000 		.4byte	0xb8
 9906 2655 60260000 		.4byte	0x2660
 9907 2659 1C       		.uleb128 0x1c
 9908 265a A9000000 		.4byte	0xa9
 9909 265e 09       		.byte	0x9
 9910 265f 00       		.byte	0
 9911 2660 06       		.uleb128 0x6
 9912 2661 04       		.byte	0x4
 9913 2662 66260000 		.4byte	0x2666
 9914 2666 07       		.uleb128 0x7
 9915 2667 5E000000 		.4byte	0x5e
 9916 266b 45       		.uleb128 0x45
 9917 266c 7E080000 		.4byte	.LASF196
 9918 2670 01       		.byte	0x1
 9919 2671 0901     		.2byte	0x109
 9920 2673 2C000000 		.4byte	0x2c
 9921 2677 00000000 		.4byte	.LFB96
 9922 267b 40000000 		.4byte	.LFE96-.LFB96
 9923 267f 01       		.uleb128 0x1
 9924 2680 9C       		.byte	0x9c
 9925 2681 70270000 		.4byte	0x2770
 9926 2685 2A       		.uleb128 0x2a
 9927 2686 73726300 		.ascii	"src\000"
 9928 268a 01       		.byte	0x1
 9929 268b 0901     		.2byte	0x109
 9930 268d FC070000 		.4byte	0x7fc
 9931 2691 1B1D0000 		.4byte	.LLST187
 9932 2695 2F       		.uleb128 0x2f
 9933 2696 4F0A0000 		.4byte	.LASF148
 9934 269a 01       		.byte	0x1
 9935 269b 0901     		.2byte	0x109
 9936 269d FC070000 		.4byte	0x7fc
 9937 26a1 3C1D0000 		.4byte	.LLST188
 9938 26a5 2F       		.uleb128 0x2f
 9939 26a6 BB070000 		.4byte	.LASF163
 9940 26aa 01       		.byte	0x1
 9941 26ab 0901     		.2byte	0x109
 9942 26ad 2C000000 		.4byte	0x2c
 9943 26b1 5D1D0000 		.4byte	.LLST189
 9944 26b5 3A       		.uleb128 0x3a
 9945 26b6 703100   		.ascii	"p1\000"
 9946 26b9 01       		.byte	0x1
 9947 26ba 0B01     		.2byte	0x10b
 9948 26bc B2000000 		.4byte	0xb2
 9949 26c0 01       		.uleb128 0x1
 9950 26c1 55       		.byte	0x55
 9951 26c2 3B       		.uleb128 0x3b
 9952 26c3 703200   		.ascii	"p2\000"
 9953 26c6 01       		.byte	0x1
 9954 26c7 0C01     		.2byte	0x10c
 9955 26c9 B2000000 		.4byte	0xb2
 9956 26cd 3F       		.uleb128 0x3f
 9957 26ce BD060000 		.4byte	.LASF197
 9958 26d2 01       		.byte	0x1
 9959 26d3 0D01     		.2byte	0x10d
 9960 26d5 2C000000 		.4byte	0x2c
ARM GAS  C:\Users\164\AppData\Local\Temp\cc3ssgoH.s 			page 215


 9961 26d9 01       		.uleb128 0x1
 9962 26da 54       		.byte	0x54
 9963 26db 34       		.uleb128 0x34
 9964 26dc 07080000 		.4byte	0x807
 9965 26e0 04000000 		.4byte	.LBB339
 9966 26e4 06000000 		.4byte	.LBE339-.LBB339
 9967 26e8 01       		.byte	0x1
 9968 26e9 0B01     		.2byte	0x10b
 9969 26eb F9260000 		.4byte	0x26f9
 9970 26ef 35       		.uleb128 0x35
 9971 26f0 17080000 		.4byte	0x817
 9972 26f4 7E1D0000 		.4byte	.LLST190
 9973 26f8 00       		.byte	0
 9974 26f9 34       		.uleb128 0x34
 9975 26fa 07080000 		.4byte	0x807
 9976 26fe 0E000000 		.4byte	.LBB341
 9977 2702 04000000 		.4byte	.LBE341-.LBB341
 9978 2706 01       		.byte	0x1
 9979 2707 0C01     		.2byte	0x10c
 9980 2709 17270000 		.4byte	0x2717
 9981 270d 35       		.uleb128 0x35
 9982 270e 17080000 		.4byte	0x817
 9983 2712 911D0000 		.4byte	.LLST191
 9984 2716 00       		.byte	0
 9985 2717 34       		.uleb128 0x34
 9986 2718 E0070000 		.4byte	0x7e0
 9987 271c 12000000 		.4byte	.LBB343
 9988 2720 02000000 		.4byte	.LBE343-.LBB343
 9989 2724 01       		.byte	0x1
 9990 2725 0D01     		.2byte	0x10d
 9991 2727 35270000 		.4byte	0x2735
 9992 272b 35       		.uleb128 0x35
 9993 272c F0070000 		.4byte	0x7f0
 9994 2730 B21D0000 		.4byte	.LLST192
 9995 2734 00       		.byte	0
 9996 2735 34       		.uleb128 0x34
 9997 2736 E0070000 		.4byte	0x7e0
 9998 273a 14000000 		.4byte	.LBB345
 9999 273e 02000000 		.4byte	.LBE345-.LBB345
 10000 2742 01       		.byte	0x1
 10001 2743 0D01     		.2byte	0x10d
 10002 2745 53270000 		.4byte	0x2753
 10003 2749 35       		.uleb128 0x35
 10004 274a F0070000 		.4byte	0x7f0
 10005 274e C51D0000 		.4byte	.LLST193
 10006 2752 00       		.byte	0
 10007 2753 39       		.uleb128 0x39
 10008 2754 26000000 		.4byte	.LVL476
 10009 2758 E5390000 		.4byte	0x39e5
 10010 275c 38       		.uleb128 0x38
 10011 275d 01       		.uleb128 0x1
 10012 275e 50       		.byte	0x50
 10013 275f 02       		.uleb128 0x2
 10014 2760 75       		.byte	0x75
 10015 2761 00       		.sleb128 0
 10016 2762 38       		.uleb128 0x38
 10017 2763 01       		.uleb128 0x1
ARM GAS  C:\Users\164\AppData\Local\Temp\cc3ssgoH.s 			page 216


 10018 2764 51       		.byte	0x51
 10019 2765 02       		.uleb128 0x2
 10020 2766 77       		.byte	0x77
 10021 2767 00       		.sleb128 0
 10022 2768 38       		.uleb128 0x38
 10023 2769 01       		.uleb128 0x1
 10024 276a 52       		.byte	0x52
 10025 276b 02       		.uleb128 0x2
 10026 276c 76       		.byte	0x76
 10027 276d 00       		.sleb128 0
 10028 276e 00       		.byte	0
 10029 276f 00       		.byte	0
 10030 2770 31       		.uleb128 0x31
 10031 2771 63030000 		.4byte	.LASF198
 10032 2775 01       		.byte	0x1
 10033 2776 E304     		.2byte	0x4e3
 10034 2778 00000000 		.4byte	.LFB132
 10035 277c 40000000 		.4byte	.LFE132-.LFB132
 10036 2780 01       		.uleb128 0x1
 10037 2781 9C       		.byte	0x9c
 10038 2782 2E280000 		.4byte	0x282e
 10039 2786 2A       		.uleb128 0x2a
 10040 2787 766D00   		.ascii	"vm\000"
 10041 278a 01       		.byte	0x1
 10042 278b E304     		.2byte	0x4e3
 10043 278d 56010000 		.4byte	0x156
 10044 2791 DB1D0000 		.4byte	.LLST194
 10045 2795 2A       		.uleb128 0x2a
 10046 2796 7600     		.ascii	"v\000"
 10047 2798 01       		.byte	0x1
 10048 2799 E304     		.2byte	0x4e3
 10049 279b 71060000 		.4byte	0x671
 10050 279f 151E0000 		.4byte	.LLST195
 10051 27a3 2F       		.uleb128 0x2f
 10052 27a4 F6050000 		.4byte	.LASF154
 10053 27a8 01       		.byte	0x1
 10054 27a9 E304     		.2byte	0x4e3
 10055 27ab 2C000000 		.4byte	0x2c
 10056 27af 5A1E0000 		.4byte	.LLST196
 10057 27b3 2C       		.uleb128 0x2c
 10058 27b4 72657400 		.ascii	"ret\000"
 10059 27b8 01       		.byte	0x1
 10060 27b9 EA04     		.2byte	0x4ea
 10061 27bb 2C000000 		.4byte	0x2c
 10062 27bf 941E0000 		.4byte	.LLST197
 10063 27c3 34       		.uleb128 0x34
 10064 27c4 6D0F0000 		.4byte	0xf6d
 10065 27c8 10000000 		.4byte	.LBB349
 10066 27cc 0C000000 		.4byte	.LBE349-.LBB349
 10067 27d0 01       		.byte	0x1
 10068 27d1 E604     		.2byte	0x4e6
 10069 27d3 FE270000 		.4byte	0x27fe
 10070 27d7 35       		.uleb128 0x35
 10071 27d8 790F0000 		.4byte	0xf79
 10072 27dc B21E0000 		.4byte	.LLST198
 10073 27e0 39       		.uleb128 0x39
 10074 27e1 1A000000 		.4byte	.LVL485
ARM GAS  C:\Users\164\AppData\Local\Temp\cc3ssgoH.s 			page 217


 10075 27e5 DA390000 		.4byte	0x39da
 10076 27e9 38       		.uleb128 0x38
 10077 27ea 01       		.uleb128 0x1
 10078 27eb 50       		.byte	0x50
 10079 27ec 01       		.uleb128 0x1
 10080 27ed 31       		.byte	0x31
 10081 27ee 38       		.uleb128 0x38
 10082 27ef 01       		.uleb128 0x1
 10083 27f0 51       		.byte	0x51
 10084 27f1 05       		.uleb128 0x5
 10085 27f2 03       		.byte	0x3
 10086 27f3 00000000 		.4byte	.LC0
 10087 27f7 38       		.uleb128 0x38
 10088 27f8 01       		.uleb128 0x1
 10089 27f9 52       		.byte	0x52
 10090 27fa 01       		.uleb128 0x1
 10091 27fb 3E       		.byte	0x3e
 10092 27fc 00       		.byte	0
 10093 27fd 00       		.byte	0
 10094 27fe 37       		.uleb128 0x37
 10095 27ff 26000000 		.4byte	.LVL490
 10096 2803 6B260000 		.4byte	0x266b
 10097 2807 1D280000 		.4byte	0x281d
 10098 280b 38       		.uleb128 0x38
 10099 280c 01       		.uleb128 0x1
 10100 280d 50       		.byte	0x50
 10101 280e 02       		.uleb128 0x2
 10102 280f 74       		.byte	0x74
 10103 2810 00       		.sleb128 0
 10104 2811 38       		.uleb128 0x38
 10105 2812 01       		.uleb128 0x1
 10106 2813 51       		.byte	0x51
 10107 2814 02       		.uleb128 0x2
 10108 2815 74       		.byte	0x74
 10109 2816 10       		.sleb128 16
 10110 2817 38       		.uleb128 0x38
 10111 2818 01       		.uleb128 0x1
 10112 2819 52       		.byte	0x52
 10113 281a 01       		.uleb128 0x1
 10114 281b 30       		.byte	0x30
 10115 281c 00       		.byte	0
 10116 281d 39       		.uleb128 0x39
 10117 281e 2E000000 		.4byte	.LVL493
 10118 2822 AE390000 		.4byte	0x39ae
 10119 2826 38       		.uleb128 0x38
 10120 2827 01       		.uleb128 0x1
 10121 2828 50       		.byte	0x50
 10122 2829 02       		.uleb128 0x2
 10123 282a 74       		.byte	0x74
 10124 282b 00       		.sleb128 0
 10125 282c 00       		.byte	0
 10126 282d 00       		.byte	0
 10127 282e 31       		.uleb128 0x31
 10128 282f 30090000 		.4byte	.LASF199
 10129 2833 01       		.byte	0x1
 10130 2834 B002     		.2byte	0x2b0
 10131 2836 00000000 		.4byte	.LFB113
ARM GAS  C:\Users\164\AppData\Local\Temp\cc3ssgoH.s 			page 218


 10132 283a F8010000 		.4byte	.LFE113-.LFB113
 10133 283e 01       		.uleb128 0x1
 10134 283f 9C       		.byte	0x9c
 10135 2840 242D0000 		.4byte	0x2d24
 10136 2844 2A       		.uleb128 0x2a
 10137 2845 766D00   		.ascii	"vm\000"
 10138 2848 01       		.byte	0x1
 10139 2849 B002     		.2byte	0x2b0
 10140 284b 56010000 		.4byte	0x156
 10141 284f CA1E0000 		.4byte	.LLST199
 10142 2853 2A       		.uleb128 0x2a
 10143 2854 7600     		.ascii	"v\000"
 10144 2856 01       		.byte	0x1
 10145 2857 B002     		.2byte	0x2b0
 10146 2859 71060000 		.4byte	0x671
 10147 285d 021F0000 		.4byte	.LLST200
 10148 2861 2F       		.uleb128 0x2f
 10149 2862 F6050000 		.4byte	.LASF154
 10150 2866 01       		.byte	0x1
 10151 2867 B002     		.2byte	0x2b0
 10152 2869 2C000000 		.4byte	0x2c
 10153 286d 2E1F0000 		.4byte	.LLST201
 10154 2871 3A       		.uleb128 0x3a
 10155 2872 72657400 		.ascii	"ret\000"
 10156 2876 01       		.byte	0x1
 10157 2877 B202     		.2byte	0x2b2
 10158 2879 20050000 		.4byte	0x520
 10159 287d 02       		.uleb128 0x2
 10160 287e 91       		.byte	0x91
 10161 287f 48       		.sleb128 -56
 10162 2880 3E       		.uleb128 0x3e
 10163 2881 A40B0000 		.4byte	.LASF200
 10164 2885 01       		.byte	0x1
 10165 2886 1B03     		.2byte	0x31b
 10166 2888 CE010000 		.4byte	.L244
 10167 288c 2D       		.uleb128 0x2d
 10168 288d 82040000 		.4byte	.LASF201
 10169 2891 01       		.byte	0x1
 10170 2892 B602     		.2byte	0x2b6
 10171 2894 2C000000 		.4byte	0x2c
 10172 2898 5A1F0000 		.4byte	.LLST202
 10173 289c 3A       		.uleb128 0x3a
 10174 289d 73657000 		.ascii	"sep\000"
 10175 28a1 01       		.byte	0x1
 10176 28a2 C502     		.2byte	0x2c5
 10177 28a4 0A050000 		.4byte	0x50a
 10178 28a8 03       		.uleb128 0x3
 10179 28a9 91       		.byte	0x91
 10180 28aa B87F     		.sleb128 -72
 10181 28ac 2D       		.uleb128 0x2d
 10182 28ad A0080000 		.4byte	.LASF202
 10183 28b1 01       		.byte	0x1
 10184 28b2 D302     		.2byte	0x2d3
 10185 28b4 2C000000 		.4byte	0x2c
 10186 28b8 901F0000 		.4byte	.LLST203
 10187 28bc 2D       		.uleb128 0x2d
 10188 28bd BB070000 		.4byte	.LASF163
ARM GAS  C:\Users\164\AppData\Local\Temp\cc3ssgoH.s 			page 219


 10189 28c1 01       		.byte	0x1
 10190 28c2 D502     		.2byte	0x2d5
 10191 28c4 2C000000 		.4byte	0x2c
 10192 28c8 A31F0000 		.4byte	.LLST204
 10193 28cc 2D       		.uleb128 0x2d
 10194 28cd D8000000 		.4byte	.LASF203
 10195 28d1 01       		.byte	0x1
 10196 28d2 D602     		.2byte	0x2d6
 10197 28d4 2C000000 		.4byte	0x2c
 10198 28d8 C21F0000 		.4byte	.LLST205
 10199 28dc 3E       		.uleb128 0x3e
 10200 28dd EB050000 		.4byte	.LASF204
 10201 28e1 01       		.byte	0x1
 10202 28e2 FF02     		.2byte	0x2ff
 10203 28e4 5E010000 		.4byte	.L261
 10204 28e8 34       		.uleb128 0x34
 10205 28e9 E0070000 		.4byte	0x7e0
 10206 28ed 16000000 		.4byte	.LBB388
 10207 28f1 04000000 		.4byte	.LBE388-.LBB388
 10208 28f5 01       		.byte	0x1
 10209 28f6 B302     		.2byte	0x2b3
 10210 28f8 06290000 		.4byte	0x2906
 10211 28fc 35       		.uleb128 0x35
 10212 28fd F0070000 		.4byte	0x7f0
 10213 2901 D51F0000 		.4byte	.LLST206
 10214 2905 00       		.byte	0
 10215 2906 34       		.uleb128 0x34
 10216 2907 6D0F0000 		.4byte	0xf6d
 10217 290b 2E000000 		.4byte	.LBB390
 10218 290f 0C000000 		.4byte	.LBE390-.LBB390
 10219 2913 01       		.byte	0x1
 10220 2914 B902     		.2byte	0x2b9
 10221 2916 41290000 		.4byte	0x2941
 10222 291a 35       		.uleb128 0x35
 10223 291b 790F0000 		.4byte	0xf79
 10224 291f E81F0000 		.4byte	.LLST207
 10225 2923 39       		.uleb128 0x39
 10226 2924 38000000 		.4byte	.LVL503
 10227 2928 DA390000 		.4byte	0x39da
 10228 292c 38       		.uleb128 0x38
 10229 292d 01       		.uleb128 0x1
 10230 292e 50       		.byte	0x50
 10231 292f 01       		.uleb128 0x1
 10232 2930 31       		.byte	0x31
 10233 2931 38       		.uleb128 0x38
 10234 2932 01       		.uleb128 0x1
 10235 2933 51       		.byte	0x51
 10236 2934 05       		.uleb128 0x5
 10237 2935 03       		.byte	0x3
 10238 2936 54000000 		.4byte	.LC4
 10239 293a 38       		.uleb128 0x38
 10240 293b 01       		.uleb128 0x1
 10241 293c 52       		.byte	0x52
 10242 293d 01       		.uleb128 0x1
 10243 293e 3A       		.byte	0x3a
 10244 293f 00       		.byte	0
 10245 2940 00       		.byte	0
ARM GAS  C:\Users\164\AppData\Local\Temp\cc3ssgoH.s 			page 220


 10246 2941 34       		.uleb128 0x34
 10247 2942 6D0F0000 		.4byte	0xf6d
 10248 2946 9C000000 		.4byte	.LBB392
 10249 294a 0C000000 		.4byte	.LBE392-.LBB392
 10250 294e 01       		.byte	0x1
 10251 294f CF02     		.2byte	0x2cf
 10252 2951 7C290000 		.4byte	0x297c
 10253 2955 35       		.uleb128 0x35
 10254 2956 790F0000 		.4byte	0xf79
 10255 295a 00200000 		.4byte	.LLST208
 10256 295e 39       		.uleb128 0x39
 10257 295f A6000000 		.4byte	.LVL513
 10258 2963 DA390000 		.4byte	0x39da
 10259 2967 38       		.uleb128 0x38
 10260 2968 01       		.uleb128 0x1
 10261 2969 50       		.byte	0x50
 10262 296a 01       		.uleb128 0x1
 10263 296b 31       		.byte	0x31
 10264 296c 38       		.uleb128 0x38
 10265 296d 01       		.uleb128 0x1
 10266 296e 51       		.byte	0x51
 10267 296f 05       		.uleb128 0x5
 10268 2970 03       		.byte	0x3
 10269 2971 54000000 		.4byte	.LC4
 10270 2975 38       		.uleb128 0x38
 10271 2976 01       		.uleb128 0x1
 10272 2977 52       		.byte	0x52
 10273 2978 01       		.uleb128 0x1
 10274 2979 3A       		.byte	0x3a
 10275 297a 00       		.byte	0
 10276 297b 00       		.byte	0
 10277 297c 34       		.uleb128 0x34
 10278 297d 07080000 		.4byte	0x807
 10279 2981 A8000000 		.4byte	.LBB394
 10280 2985 04000000 		.4byte	.LBE394-.LBB394
 10281 2989 01       		.byte	0x1
 10282 298a D302     		.2byte	0x2d3
 10283 298c 9A290000 		.4byte	0x299a
 10284 2990 35       		.uleb128 0x35
 10285 2991 17080000 		.4byte	0x817
 10286 2995 18200000 		.4byte	.LLST209
 10287 2999 00       		.byte	0
 10288 299a 34       		.uleb128 0x34
 10289 299b E0070000 		.4byte	0x7e0
 10290 299f B2000000 		.4byte	.LBB396
 10291 29a3 02000000 		.4byte	.LBE396-.LBB396
 10292 29a7 01       		.byte	0x1
 10293 29a8 D402     		.2byte	0x2d4
 10294 29aa B8290000 		.4byte	0x29b8
 10295 29ae 35       		.uleb128 0x35
 10296 29af F0070000 		.4byte	0x7f0
 10297 29b3 2E200000 		.4byte	.LLST210
 10298 29b7 00       		.byte	0
 10299 29b8 34       		.uleb128 0x34
 10300 29b9 E0070000 		.4byte	0x7e0
 10301 29bd C8000000 		.4byte	.LBB398
 10302 29c1 04000000 		.4byte	.LBE398-.LBB398
ARM GAS  C:\Users\164\AppData\Local\Temp\cc3ssgoH.s 			page 221


 10303 29c5 01       		.byte	0x1
 10304 29c6 D602     		.2byte	0x2d6
 10305 29c8 D6290000 		.4byte	0x29d6
 10306 29cc 35       		.uleb128 0x35
 10307 29cd F0070000 		.4byte	0x7f0
 10308 29d1 44200000 		.4byte	.LLST211
 10309 29d5 00       		.byte	0
 10310 29d6 36       		.uleb128 0x36
 10311 29d7 D8000000 		.4byte	.LBB400
 10312 29db B0000000 		.4byte	.LBE400-.LBB400
 10313 29df 8E2B0000 		.4byte	0x2b8e
 10314 29e3 2C       		.uleb128 0x2c
 10315 29e4 706F7300 		.ascii	"pos\000"
 10316 29e8 01       		.byte	0x1
 10317 29e9 DA02     		.2byte	0x2da
 10318 29eb 2C000000 		.4byte	0x2c
 10319 29ef 5A200000 		.4byte	.LLST212
 10320 29f3 2C       		.uleb128 0x2c
 10321 29f4 6C656E00 		.ascii	"len\000"
 10322 29f8 01       		.byte	0x1
 10323 29f9 DA02     		.2byte	0x2da
 10324 29fb 2C000000 		.4byte	0x2c
 10325 29ff 8E200000 		.4byte	.LLST213
 10326 2a03 3A       		.uleb128 0x3a
 10327 2a04 763100   		.ascii	"v1\000"
 10328 2a07 01       		.byte	0x1
 10329 2a08 0203     		.2byte	0x302
 10330 2a0a 0A050000 		.4byte	0x50a
 10331 2a0e 03       		.uleb128 0x3
 10332 2a0f 91       		.byte	0x91
 10333 2a10 A87F     		.sleb128 -88
 10334 2a12 34       		.uleb128 0x34
 10335 2a13 07080000 		.4byte	0x807
 10336 2a17 E0000000 		.4byte	.LBB401
 10337 2a1b 02000000 		.4byte	.LBE401-.LBB401
 10338 2a1f 01       		.byte	0x1
 10339 2a20 DE02     		.2byte	0x2de
 10340 2a22 302A0000 		.4byte	0x2a30
 10341 2a26 35       		.uleb128 0x35
 10342 2a27 17080000 		.4byte	0x817
 10343 2a2b B7200000 		.4byte	.LLST214
 10344 2a2f 00       		.byte	0
 10345 2a30 34       		.uleb128 0x34
 10346 2a31 E0070000 		.4byte	0x7e0
 10347 2a35 EC000000 		.4byte	.LBB403
 10348 2a39 04000000 		.4byte	.LBE403-.LBB403
 10349 2a3d 01       		.byte	0x1
 10350 2a3e DD02     		.2byte	0x2dd
 10351 2a40 4E2A0000 		.4byte	0x2a4e
 10352 2a44 35       		.uleb128 0x35
 10353 2a45 F0070000 		.4byte	0x7f0
 10354 2a49 CA200000 		.4byte	.LLST215
 10355 2a4d 00       		.byte	0
 10356 2a4e 34       		.uleb128 0x34
 10357 2a4f FF080000 		.4byte	0x8ff
 10358 2a53 FE000000 		.4byte	.LBB405
 10359 2a57 04000000 		.4byte	.LBE405-.LBB405
ARM GAS  C:\Users\164\AppData\Local\Temp\cc3ssgoH.s 			page 222


 10360 2a5b 01       		.byte	0x1
 10361 2a5c E402     		.2byte	0x2e4
 10362 2a5e 6C2A0000 		.4byte	0x2a6c
 10363 2a62 35       		.uleb128 0x35
 10364 2a63 0F090000 		.4byte	0x90f
 10365 2a67 DD200000 		.4byte	.LLST216
 10366 2a6b 00       		.byte	0
 10367 2a6c 34       		.uleb128 0x34
 10368 2a6d 07080000 		.4byte	0x807
 10369 2a71 10010000 		.4byte	.LBB407
 10370 2a75 02000000 		.4byte	.LBE407-.LBB407
 10371 2a79 01       		.byte	0x1
 10372 2a7a ED02     		.2byte	0x2ed
 10373 2a7c 8A2A0000 		.4byte	0x2a8a
 10374 2a80 35       		.uleb128 0x35
 10375 2a81 17080000 		.4byte	0x817
 10376 2a85 F2200000 		.4byte	.LLST217
 10377 2a89 00       		.byte	0
 10378 2a8a 34       		.uleb128 0x34
 10379 2a8b E0070000 		.4byte	0x7e0
 10380 2a8f 20010000 		.4byte	.LBB409
 10381 2a93 04000000 		.4byte	.LBE409-.LBB409
 10382 2a97 01       		.byte	0x1
 10383 2a98 EC02     		.2byte	0x2ec
 10384 2a9a A82A0000 		.4byte	0x2aa8
 10385 2a9e 35       		.uleb128 0x35
 10386 2a9f F0070000 		.4byte	0x7f0
 10387 2aa3 05210000 		.4byte	.LLST218
 10388 2aa7 00       		.byte	0
 10389 2aa8 34       		.uleb128 0x34
 10390 2aa9 E0070000 		.4byte	0x7e0
 10391 2aad 2C010000 		.4byte	.LBB411
 10392 2ab1 04000000 		.4byte	.LBE411-.LBB411
 10393 2ab5 01       		.byte	0x1
 10394 2ab6 F402     		.2byte	0x2f4
 10395 2ab8 C62A0000 		.4byte	0x2ac6
 10396 2abc 35       		.uleb128 0x35
 10397 2abd F0070000 		.4byte	0x7f0
 10398 2ac1 18210000 		.4byte	.LLST219
 10399 2ac5 00       		.byte	0
 10400 2ac6 34       		.uleb128 0x34
 10401 2ac7 E0070000 		.4byte	0x7e0
 10402 2acb 32010000 		.4byte	.LBB413
 10403 2acf 04000000 		.4byte	.LBE413-.LBB413
 10404 2ad3 01       		.byte	0x1
 10405 2ad4 F502     		.2byte	0x2f5
 10406 2ad6 E42A0000 		.4byte	0x2ae4
 10407 2ada 35       		.uleb128 0x35
 10408 2adb F0070000 		.4byte	0x7f0
 10409 2adf 2E210000 		.4byte	.LLST220
 10410 2ae3 00       		.byte	0
 10411 2ae4 34       		.uleb128 0x34
 10412 2ae5 E0070000 		.4byte	0x7e0
 10413 2ae9 62010000 		.4byte	.LBB415
 10414 2aed 04000000 		.4byte	.LBE415-.LBB415
 10415 2af1 01       		.byte	0x1
 10416 2af2 0003     		.2byte	0x300
ARM GAS  C:\Users\164\AppData\Local\Temp\cc3ssgoH.s 			page 223


 10417 2af4 022B0000 		.4byte	0x2b02
 10418 2af8 35       		.uleb128 0x35
 10419 2af9 F0070000 		.4byte	0x7f0
 10420 2afd 41210000 		.4byte	.LLST221
 10421 2b01 00       		.byte	0
 10422 2b02 34       		.uleb128 0x34
 10423 2b03 07080000 		.4byte	0x807
 10424 2b07 68010000 		.4byte	.LBB417
 10425 2b0b 04000000 		.4byte	.LBE417-.LBB417
 10426 2b0f 01       		.byte	0x1
 10427 2b10 0203     		.2byte	0x302
 10428 2b12 202B0000 		.4byte	0x2b20
 10429 2b16 35       		.uleb128 0x35
 10430 2b17 17080000 		.4byte	0x817
 10431 2b1b 54210000 		.4byte	.LLST222
 10432 2b1f 00       		.byte	0
 10433 2b20 32       		.uleb128 0x32
 10434 2b21 E8000000 		.4byte	.LVL524
 10435 2b25 1B090000 		.4byte	0x91b
 10436 2b29 32       		.uleb128 0x32
 10437 2b2a 18010000 		.4byte	.LVL531
 10438 2b2e 1B090000 		.4byte	0x91b
 10439 2b32 37       		.uleb128 0x37
 10440 2b33 4E010000 		.4byte	.LVL543
 10441 2b37 6B260000 		.4byte	0x266b
 10442 2b3b 532B0000 		.4byte	0x2b53
 10443 2b3f 38       		.uleb128 0x38
 10444 2b40 01       		.uleb128 0x1
 10445 2b41 50       		.byte	0x50
 10446 2b42 02       		.uleb128 0x2
 10447 2b43 76       		.byte	0x76
 10448 2b44 00       		.sleb128 0
 10449 2b45 38       		.uleb128 0x38
 10450 2b46 01       		.uleb128 0x1
 10451 2b47 51       		.byte	0x51
 10452 2b48 03       		.uleb128 0x3
 10453 2b49 91       		.byte	0x91
 10454 2b4a B87F     		.sleb128 -72
 10455 2b4c 38       		.uleb128 0x38
 10456 2b4d 01       		.uleb128 0x1
 10457 2b4e 52       		.byte	0x52
 10458 2b4f 02       		.uleb128 0x2
 10459 2b50 74       		.byte	0x74
 10460 2b51 00       		.sleb128 0
 10461 2b52 00       		.byte	0
 10462 2b53 37       		.uleb128 0x37
 10463 2b54 78010000 		.4byte	.LVL552
 10464 2b58 7C150000 		.4byte	0x157c
 10465 2b5c 762B0000 		.4byte	0x2b76
 10466 2b60 38       		.uleb128 0x38
 10467 2b61 01       		.uleb128 0x1
 10468 2b62 50       		.byte	0x50
 10469 2b63 03       		.uleb128 0x3
 10470 2b64 91       		.byte	0x91
 10471 2b65 A87F     		.sleb128 -88
 10472 2b67 38       		.uleb128 0x38
 10473 2b68 01       		.uleb128 0x1
ARM GAS  C:\Users\164\AppData\Local\Temp\cc3ssgoH.s 			page 224


 10474 2b69 51       		.byte	0x51
 10475 2b6a 04       		.uleb128 0x4
 10476 2b6b 91       		.byte	0x91
 10477 2b6c 947F     		.sleb128 -108
 10478 2b6e 06       		.byte	0x6
 10479 2b6f 38       		.uleb128 0x38
 10480 2b70 01       		.uleb128 0x1
 10481 2b71 53       		.byte	0x53
 10482 2b72 02       		.uleb128 0x2
 10483 2b73 77       		.byte	0x77
 10484 2b74 00       		.sleb128 0
 10485 2b75 00       		.byte	0
 10486 2b76 39       		.uleb128 0x39
 10487 2b77 80010000 		.4byte	.LVL553
 10488 2b7b 8A3A0000 		.4byte	0x3a8a
 10489 2b7f 38       		.uleb128 0x38
 10490 2b80 01       		.uleb128 0x1
 10491 2b81 50       		.byte	0x50
 10492 2b82 02       		.uleb128 0x2
 10493 2b83 91       		.byte	0x91
 10494 2b84 48       		.sleb128 -56
 10495 2b85 38       		.uleb128 0x38
 10496 2b86 01       		.uleb128 0x1
 10497 2b87 51       		.byte	0x51
 10498 2b88 03       		.uleb128 0x3
 10499 2b89 91       		.byte	0x91
 10500 2b8a A87F     		.sleb128 -88
 10501 2b8c 00       		.byte	0
 10502 2b8d 00       		.byte	0
 10503 2b8e 36       		.uleb128 0x36
 10504 2b8f 90010000 		.4byte	.LBB419
 10505 2b93 28000000 		.4byte	.LBE419-.LBB419
 10506 2b97 4A2C0000 		.4byte	0x2c4a
 10507 2b9b 2C       		.uleb128 0x2c
 10508 2b9c 69647800 		.ascii	"idx\000"
 10509 2ba0 01       		.byte	0x1
 10510 2ba1 0C03     		.2byte	0x30c
 10511 2ba3 2C000000 		.4byte	0x2c
 10512 2ba7 67210000 		.4byte	.LLST223
 10513 2bab 3A       		.uleb128 0x3a
 10514 2bac 763100   		.ascii	"v1\000"
 10515 2baf 01       		.byte	0x1
 10516 2bb0 0F03     		.2byte	0x30f
 10517 2bb2 0A050000 		.4byte	0x50a
 10518 2bb6 03       		.uleb128 0x3
 10519 2bb7 91       		.byte	0x91
 10520 2bb8 A87F     		.sleb128 -88
 10521 2bba 34       		.uleb128 0x34
 10522 2bbb FF080000 		.4byte	0x8ff
 10523 2bbf 90010000 		.4byte	.LBB420
 10524 2bc3 04000000 		.4byte	.LBE420-.LBB420
 10525 2bc7 01       		.byte	0x1
 10526 2bc8 0C03     		.2byte	0x30c
 10527 2bca D82B0000 		.4byte	0x2bd8
 10528 2bce 35       		.uleb128 0x35
 10529 2bcf 0F090000 		.4byte	0x90f
 10530 2bd3 87210000 		.4byte	.LLST224
ARM GAS  C:\Users\164\AppData\Local\Temp\cc3ssgoH.s 			page 225


 10531 2bd7 00       		.byte	0
 10532 2bd8 34       		.uleb128 0x34
 10533 2bd9 E0070000 		.4byte	0x7e0
 10534 2bdd A2010000 		.4byte	.LBB422
 10535 2be1 04000000 		.4byte	.LBE422-.LBB422
 10536 2be5 01       		.byte	0x1
 10537 2be6 1003     		.2byte	0x310
 10538 2be8 F62B0000 		.4byte	0x2bf6
 10539 2bec 35       		.uleb128 0x35
 10540 2bed F0070000 		.4byte	0x7f0
 10541 2bf1 9C210000 		.4byte	.LLST225
 10542 2bf5 00       		.byte	0
 10543 2bf6 37       		.uleb128 0x37
 10544 2bf7 A2010000 		.4byte	.LVL559
 10545 2bfb 953A0000 		.4byte	0x3a95
 10546 2bff 172C0000 		.4byte	0x2c17
 10547 2c03 38       		.uleb128 0x38
 10548 2c04 01       		.uleb128 0x1
 10549 2c05 50       		.byte	0x50
 10550 2c06 03       		.uleb128 0x3
 10551 2c07 91       		.byte	0x91
 10552 2c08 A87F     		.sleb128 -88
 10553 2c0a 38       		.uleb128 0x38
 10554 2c0b 01       		.uleb128 0x1
 10555 2c0c 51       		.byte	0x51
 10556 2c0d 02       		.uleb128 0x2
 10557 2c0e 91       		.byte	0x91
 10558 2c0f 48       		.sleb128 -56
 10559 2c10 38       		.uleb128 0x38
 10560 2c11 01       		.uleb128 0x1
 10561 2c12 52       		.byte	0x52
 10562 2c13 02       		.uleb128 0x2
 10563 2c14 74       		.byte	0x74
 10564 2c15 00       		.sleb128 0
 10565 2c16 00       		.byte	0
 10566 2c17 37       		.uleb128 0x37
 10567 2c18 B2010000 		.4byte	.LVL561
 10568 2c1c A03A0000 		.4byte	0x3aa0
 10569 2c20 382C0000 		.4byte	0x2c38
 10570 2c24 38       		.uleb128 0x38
 10571 2c25 01       		.uleb128 0x1
 10572 2c26 50       		.byte	0x50
 10573 2c27 03       		.uleb128 0x3
 10574 2c28 91       		.byte	0x91
 10575 2c29 987F     		.sleb128 -104
 10576 2c2b 38       		.uleb128 0x38
 10577 2c2c 01       		.uleb128 0x1
 10578 2c2d 51       		.byte	0x51
 10579 2c2e 02       		.uleb128 0x2
 10580 2c2f 91       		.byte	0x91
 10581 2c30 48       		.sleb128 -56
 10582 2c31 38       		.uleb128 0x38
 10583 2c32 01       		.uleb128 0x1
 10584 2c33 52       		.byte	0x52
 10585 2c34 02       		.uleb128 0x2
 10586 2c35 74       		.byte	0x74
 10587 2c36 00       		.sleb128 0
ARM GAS  C:\Users\164\AppData\Local\Temp\cc3ssgoH.s 			page 226


 10588 2c37 00       		.byte	0
 10589 2c38 39       		.uleb128 0x39
 10590 2c39 B8010000 		.4byte	.LVL562
 10591 2c3d 921F0000 		.4byte	0x1f92
 10592 2c41 38       		.uleb128 0x38
 10593 2c42 01       		.uleb128 0x1
 10594 2c43 50       		.byte	0x50
 10595 2c44 03       		.uleb128 0x3
 10596 2c45 91       		.byte	0x91
 10597 2c46 A87F     		.sleb128 -88
 10598 2c48 00       		.byte	0
 10599 2c49 00       		.byte	0
 10600 2c4a 36       		.uleb128 0x36
 10601 2c4b CE010000 		.4byte	.LBB424
 10602 2c4f 1A000000 		.4byte	.LBE424-.LBB424
 10603 2c53 782C0000 		.4byte	0x2c78
 10604 2c57 3A       		.uleb128 0x3a
 10605 2c58 6E6E6E00 		.ascii	"nnn\000"
 10606 2c5c 01       		.byte	0x1
 10607 2c5d 1C03     		.2byte	0x31c
 10608 2c5f 20050000 		.4byte	0x520
 10609 2c63 03       		.uleb128 0x3
 10610 2c64 91       		.byte	0x91
 10611 2c65 A87F     		.sleb128 -88
 10612 2c67 39       		.uleb128 0x39
 10613 2c68 E0010000 		.4byte	.LVL565
 10614 2c6c AE390000 		.4byte	0x39ae
 10615 2c70 38       		.uleb128 0x38
 10616 2c71 01       		.uleb128 0x1
 10617 2c72 50       		.byte	0x50
 10618 2c73 02       		.uleb128 0x2
 10619 2c74 76       		.byte	0x76
 10620 2c75 00       		.sleb128 0
 10621 2c76 00       		.byte	0
 10622 2c77 00       		.byte	0
 10623 2c78 37       		.uleb128 0x37
 10624 2c79 16000000 		.4byte	.LVL499
 10625 2c7d AB3A0000 		.4byte	0x3aab
 10626 2c81 992C0000 		.4byte	0x2c99
 10627 2c85 38       		.uleb128 0x38
 10628 2c86 01       		.uleb128 0x1
 10629 2c87 50       		.byte	0x50
 10630 2c88 02       		.uleb128 0x2
 10631 2c89 91       		.byte	0x91
 10632 2c8a 48       		.sleb128 -56
 10633 2c8b 38       		.uleb128 0x38
 10634 2c8c 01       		.uleb128 0x1
 10635 2c8d 51       		.byte	0x51
 10636 2c8e 04       		.uleb128 0x4
 10637 2c8f 91       		.byte	0x91
 10638 2c90 947F     		.sleb128 -108
 10639 2c92 06       		.byte	0x6
 10640 2c93 38       		.uleb128 0x38
 10641 2c94 01       		.uleb128 0x1
 10642 2c95 52       		.byte	0x52
 10643 2c96 01       		.uleb128 0x1
 10644 2c97 30       		.byte	0x30
ARM GAS  C:\Users\164\AppData\Local\Temp\cc3ssgoH.s 			page 227


 10645 2c98 00       		.byte	0
 10646 2c99 37       		.uleb128 0x37
 10647 2c9a 4C000000 		.4byte	.LVL506
 10648 2c9e 8A3A0000 		.4byte	0x3a8a
 10649 2ca2 B32C0000 		.4byte	0x2cb3
 10650 2ca6 38       		.uleb128 0x38
 10651 2ca7 01       		.uleb128 0x1
 10652 2ca8 50       		.byte	0x50
 10653 2ca9 02       		.uleb128 0x2
 10654 2caa 91       		.byte	0x91
 10655 2cab 48       		.sleb128 -56
 10656 2cac 38       		.uleb128 0x38
 10657 2cad 01       		.uleb128 0x1
 10658 2cae 51       		.byte	0x51
 10659 2caf 02       		.uleb128 0x2
 10660 2cb0 76       		.byte	0x76
 10661 2cb1 00       		.sleb128 0
 10662 2cb2 00       		.byte	0
 10663 2cb3 37       		.uleb128 0x37
 10664 2cb4 52000000 		.4byte	.LVL507
 10665 2cb8 B63A0000 		.4byte	0x3ab6
 10666 2cbc C72C0000 		.4byte	0x2cc7
 10667 2cc0 38       		.uleb128 0x38
 10668 2cc1 01       		.uleb128 0x1
 10669 2cc2 50       		.byte	0x50
 10670 2cc3 02       		.uleb128 0x2
 10671 2cc4 76       		.byte	0x76
 10672 2cc5 00       		.sleb128 0
 10673 2cc6 00       		.byte	0
 10674 2cc7 37       		.uleb128 0x37
 10675 2cc8 68000000 		.4byte	.LVL510
 10676 2ccc AD190000 		.4byte	0x19ad
 10677 2cd0 ED2C0000 		.4byte	0x2ced
 10678 2cd4 38       		.uleb128 0x38
 10679 2cd5 01       		.uleb128 0x1
 10680 2cd6 50       		.byte	0x50
 10681 2cd7 03       		.uleb128 0x3
 10682 2cd8 91       		.byte	0x91
 10683 2cd9 B87F     		.sleb128 -72
 10684 2cdb 38       		.uleb128 0x38
 10685 2cdc 01       		.uleb128 0x1
 10686 2cdd 51       		.byte	0x51
 10687 2cde 04       		.uleb128 0x4
 10688 2cdf 91       		.byte	0x91
 10689 2ce0 947F     		.sleb128 -108
 10690 2ce2 06       		.byte	0x6
 10691 2ce3 38       		.uleb128 0x38
 10692 2ce4 01       		.uleb128 0x1
 10693 2ce5 52       		.byte	0x52
 10694 2ce6 05       		.uleb128 0x5
 10695 2ce7 03       		.byte	0x3
 10696 2ce8 94000000 		.4byte	.LC8
 10697 2cec 00       		.byte	0
 10698 2ced 37       		.uleb128 0x37
 10699 2cee 90000000 		.4byte	.LVL511
 10700 2cf2 AD190000 		.4byte	0x19ad
 10701 2cf6 122D0000 		.4byte	0x2d12
ARM GAS  C:\Users\164\AppData\Local\Temp\cc3ssgoH.s 			page 228


 10702 2cfa 38       		.uleb128 0x38
 10703 2cfb 01       		.uleb128 0x1
 10704 2cfc 50       		.byte	0x50
 10705 2cfd 02       		.uleb128 0x2
 10706 2cfe 74       		.byte	0x74
 10707 2cff 00       		.sleb128 0
 10708 2d00 38       		.uleb128 0x38
 10709 2d01 01       		.uleb128 0x1
 10710 2d02 51       		.byte	0x51
 10711 2d03 04       		.uleb128 0x4
 10712 2d04 91       		.byte	0x91
 10713 2d05 947F     		.sleb128 -108
 10714 2d07 06       		.byte	0x6
 10715 2d08 38       		.uleb128 0x38
 10716 2d09 01       		.uleb128 0x1
 10717 2d0a 52       		.byte	0x52
 10718 2d0b 05       		.uleb128 0x5
 10719 2d0c 03       		.byte	0x3
 10720 2d0d 94000000 		.4byte	.LC8
 10721 2d11 00       		.byte	0
 10722 2d12 39       		.uleb128 0x39
 10723 2d13 CE010000 		.4byte	.LVL564
 10724 2d17 921F0000 		.4byte	0x1f92
 10725 2d1b 38       		.uleb128 0x38
 10726 2d1c 01       		.uleb128 0x1
 10727 2d1d 50       		.byte	0x50
 10728 2d1e 03       		.uleb128 0x3
 10729 2d1f 91       		.byte	0x91
 10730 2d20 B87F     		.sleb128 -72
 10731 2d22 00       		.byte	0
 10732 2d23 00       		.byte	0
 10733 2d24 31       		.uleb128 0x31
 10734 2d25 A1060000 		.4byte	.LASF205
 10735 2d29 01       		.byte	0x1
 10736 2d2a 6D02     		.2byte	0x26d
 10737 2d2c 00000000 		.4byte	.LFB110
 10738 2d30 50000000 		.4byte	.LFE110-.LFB110
 10739 2d34 01       		.uleb128 0x1
 10740 2d35 9C       		.byte	0x9c
 10741 2d36 0A2E0000 		.4byte	0x2e0a
 10742 2d3a 2A       		.uleb128 0x2a
 10743 2d3b 766D00   		.ascii	"vm\000"
 10744 2d3e 01       		.byte	0x1
 10745 2d3f 6D02     		.2byte	0x26d
 10746 2d41 56010000 		.4byte	0x156
 10747 2d45 B2210000 		.4byte	.LLST226
 10748 2d49 2A       		.uleb128 0x2a
 10749 2d4a 7600     		.ascii	"v\000"
 10750 2d4c 01       		.byte	0x1
 10751 2d4d 6D02     		.2byte	0x26d
 10752 2d4f 71060000 		.4byte	0x671
 10753 2d53 D3210000 		.4byte	.LLST227
 10754 2d57 2F       		.uleb128 0x2f
 10755 2d58 F6050000 		.4byte	.LASF154
 10756 2d5c 01       		.byte	0x1
 10757 2d5d 6D02     		.2byte	0x26d
 10758 2d5f 2C000000 		.4byte	0x2c
ARM GAS  C:\Users\164\AppData\Local\Temp\cc3ssgoH.s 			page 229


 10759 2d63 F1210000 		.4byte	.LLST228
 10760 2d67 2D       		.uleb128 0x2d
 10761 2d68 FC040000 		.4byte	.LASF206
 10762 2d6c 01       		.byte	0x1
 10763 2d6d 6F02     		.2byte	0x26f
 10764 2d6f 2C000000 		.4byte	0x2c
 10765 2d73 2B220000 		.4byte	.LLST229
 10766 2d77 2D       		.uleb128 0x2d
 10767 2d78 BB070000 		.4byte	.LASF163
 10768 2d7c 01       		.byte	0x1
 10769 2d7d 7002     		.2byte	0x270
 10770 2d7f 2C000000 		.4byte	0x2c
 10771 2d83 49220000 		.4byte	.LLST230
 10772 2d87 3E       		.uleb128 0x3e
 10773 2d88 F3020000 		.4byte	.LASF207
 10774 2d8c 01       		.byte	0x1
 10775 2d8d 8402     		.2byte	0x284
 10776 2d8f 44000000 		.4byte	.L287
 10777 2d93 34       		.uleb128 0x34
 10778 2d94 E0070000 		.4byte	0x7e0
 10779 2d98 1A000000 		.4byte	.LBB425
 10780 2d9c 04000000 		.4byte	.LBE425-.LBB425
 10781 2da0 01       		.byte	0x1
 10782 2da1 7702     		.2byte	0x277
 10783 2da3 B12D0000 		.4byte	0x2db1
 10784 2da7 35       		.uleb128 0x35
 10785 2da8 F0070000 		.4byte	0x7f0
 10786 2dac 67220000 		.4byte	.LLST231
 10787 2db0 00       		.byte	0
 10788 2db1 36       		.uleb128 0x36
 10789 2db2 36000000 		.4byte	.LBB427
 10790 2db6 0C000000 		.4byte	.LBE427-.LBB427
 10791 2dba DF2D0000 		.4byte	0x2ddf
 10792 2dbe 2C       		.uleb128 0x2c
 10793 2dbf 6E6E6E00 		.ascii	"nnn\000"
 10794 2dc3 01       		.byte	0x1
 10795 2dc4 8102     		.2byte	0x281
 10796 2dc6 08010000 		.4byte	0x108
 10797 2dca 7A220000 		.4byte	.LLST232
 10798 2dce 39       		.uleb128 0x39
 10799 2dcf 3C000000 		.4byte	.LVL579
 10800 2dd3 AE390000 		.4byte	0x39ae
 10801 2dd7 38       		.uleb128 0x38
 10802 2dd8 01       		.uleb128 0x1
 10803 2dd9 50       		.byte	0x50
 10804 2dda 02       		.uleb128 0x2
 10805 2ddb 74       		.byte	0x74
 10806 2ddc 00       		.sleb128 0
 10807 2ddd 00       		.byte	0
 10808 2dde 00       		.byte	0
 10809 2ddf 37       		.uleb128 0x37
 10810 2de0 32000000 		.4byte	.LVL576
 10811 2de4 6B260000 		.4byte	0x266b
 10812 2de8 F92D0000 		.4byte	0x2df9
 10813 2dec 38       		.uleb128 0x38
 10814 2ded 01       		.uleb128 0x1
 10815 2dee 50       		.byte	0x50
ARM GAS  C:\Users\164\AppData\Local\Temp\cc3ssgoH.s 			page 230


 10816 2def 02       		.uleb128 0x2
 10817 2df0 74       		.byte	0x74
 10818 2df1 00       		.sleb128 0
 10819 2df2 38       		.uleb128 0x38
 10820 2df3 01       		.uleb128 0x1
 10821 2df4 51       		.byte	0x51
 10822 2df5 02       		.uleb128 0x2
 10823 2df6 74       		.byte	0x74
 10824 2df7 10       		.sleb128 16
 10825 2df8 00       		.byte	0
 10826 2df9 39       		.uleb128 0x39
 10827 2dfa 4A000000 		.4byte	.LVL581
 10828 2dfe AE390000 		.4byte	0x39ae
 10829 2e02 38       		.uleb128 0x38
 10830 2e03 01       		.uleb128 0x1
 10831 2e04 50       		.byte	0x50
 10832 2e05 02       		.uleb128 0x2
 10833 2e06 74       		.byte	0x74
 10834 2e07 00       		.sleb128 0
 10835 2e08 00       		.byte	0
 10836 2e09 00       		.byte	0
 10837 2e0a 45       		.uleb128 0x45
 10838 2e0b 05010000 		.4byte	.LASF208
 10839 2e0f 01       		.byte	0x1
 10840 2e10 2201     		.2byte	0x122
 10841 2e12 2C000000 		.4byte	0x2c
 10842 2e16 00000000 		.4byte	.LFB97
 10843 2e1a 80000000 		.4byte	.LFE97-.LFB97
 10844 2e1e 01       		.uleb128 0x1
 10845 2e1f 9C       		.byte	0x9c
 10846 2e20 012F0000 		.4byte	0x2f01
 10847 2e24 2A       		.uleb128 0x2a
 10848 2e25 73726300 		.ascii	"src\000"
 10849 2e29 01       		.byte	0x1
 10850 2e2a 2201     		.2byte	0x122
 10851 2e2c 71060000 		.4byte	0x671
 10852 2e30 98220000 		.4byte	.LLST233
 10853 2e34 2F       		.uleb128 0x2f
 10854 2e35 DA020000 		.4byte	.LASF209
 10855 2e39 01       		.byte	0x1
 10856 2e3a 2201     		.2byte	0x122
 10857 2e3c 2C000000 		.4byte	0x2c
 10858 2e40 CC220000 		.4byte	.LLST234
 10859 2e44 2C       		.uleb128 0x2c
 10860 2e45 703100   		.ascii	"p1\000"
 10861 2e48 01       		.byte	0x1
 10862 2e49 2401     		.2byte	0x124
 10863 2e4b B2000000 		.4byte	0xb2
 10864 2e4f 0E230000 		.4byte	.LLST235
 10865 2e53 2C       		.uleb128 0x2c
 10866 2e54 703200   		.ascii	"p2\000"
 10867 2e57 01       		.byte	0x1
 10868 2e58 2501     		.2byte	0x125
 10869 2e5a B2000000 		.4byte	0xb2
 10870 2e5e 2C230000 		.4byte	.LLST236
 10871 2e62 3F       		.uleb128 0x3f
 10872 2e63 97080000 		.4byte	.LASF210
ARM GAS  C:\Users\164\AppData\Local\Temp\cc3ssgoH.s 			page 231


 10873 2e67 01       		.byte	0x1
 10874 2e68 3701     		.2byte	0x137
 10875 2e6a 2C000000 		.4byte	0x2c
 10876 2e6e 01       		.uleb128 0x1
 10877 2e6f 59       		.byte	0x59
 10878 2e70 3B       		.uleb128 0x3b
 10879 2e71 62756600 		.ascii	"buf\000"
 10880 2e75 01       		.byte	0x1
 10881 2e76 3A01     		.2byte	0x13a
 10882 2e78 B2000000 		.4byte	0xb2
 10883 2e7c 34       		.uleb128 0x34
 10884 2e7d 07080000 		.4byte	0x807
 10885 2e81 08000000 		.4byte	.LBB428
 10886 2e85 04000000 		.4byte	.LBE428-.LBB428
 10887 2e89 01       		.byte	0x1
 10888 2e8a 2401     		.2byte	0x124
 10889 2e8c 9A2E0000 		.4byte	0x2e9a
 10890 2e90 35       		.uleb128 0x35
 10891 2e91 17080000 		.4byte	0x817
 10892 2e95 3F230000 		.4byte	.LLST237
 10893 2e99 00       		.byte	0
 10894 2e9a 34       		.uleb128 0x34
 10895 2e9b E0070000 		.4byte	0x7e0
 10896 2e9f 0C000000 		.4byte	.LBB430
 10897 2ea3 02000000 		.4byte	.LBE430-.LBB430
 10898 2ea7 01       		.byte	0x1
 10899 2ea8 2501     		.2byte	0x125
 10900 2eaa B82E0000 		.4byte	0x2eb8
 10901 2eae 35       		.uleb128 0x35
 10902 2eaf F0070000 		.4byte	0x7f0
 10903 2eb3 52230000 		.4byte	.LLST238
 10904 2eb7 00       		.byte	0
 10905 2eb8 32       		.uleb128 0x32
 10906 2eb9 24000000 		.4byte	.LVL588
 10907 2ebd 1B090000 		.4byte	0x91b
 10908 2ec1 32       		.uleb128 0x32
 10909 2ec2 3E000000 		.4byte	.LVL593
 10910 2ec6 1B090000 		.4byte	0x91b
 10911 2eca 37       		.uleb128 0x37
 10912 2ecb 5E000000 		.4byte	.LVL597
 10913 2ecf F0390000 		.4byte	0x39f0
 10914 2ed3 EA2E0000 		.4byte	0x2eea
 10915 2ed7 38       		.uleb128 0x38
 10916 2ed8 01       		.uleb128 0x1
 10917 2ed9 50       		.byte	0x50
 10918 2eda 02       		.uleb128 0x2
 10919 2edb 76       		.byte	0x76
 10920 2edc 00       		.sleb128 0
 10921 2edd 38       		.uleb128 0x38
 10922 2ede 01       		.uleb128 0x1
 10923 2edf 51       		.byte	0x51
 10924 2ee0 02       		.uleb128 0x2
 10925 2ee1 75       		.byte	0x75
 10926 2ee2 00       		.sleb128 0
 10927 2ee3 38       		.uleb128 0x38
 10928 2ee4 01       		.uleb128 0x1
 10929 2ee5 52       		.byte	0x52
ARM GAS  C:\Users\164\AppData\Local\Temp\cc3ssgoH.s 			page 232


 10930 2ee6 02       		.uleb128 0x2
 10931 2ee7 79       		.byte	0x79
 10932 2ee8 00       		.sleb128 0
 10933 2ee9 00       		.byte	0
 10934 2eea 39       		.uleb128 0x39
 10935 2eeb 6C000000 		.4byte	.LVL598
 10936 2eef 7F3A0000 		.4byte	0x3a7f
 10937 2ef3 38       		.uleb128 0x38
 10938 2ef4 01       		.uleb128 0x1
 10939 2ef5 50       		.byte	0x50
 10940 2ef6 02       		.uleb128 0x2
 10941 2ef7 76       		.byte	0x76
 10942 2ef8 00       		.sleb128 0
 10943 2ef9 38       		.uleb128 0x38
 10944 2efa 01       		.uleb128 0x1
 10945 2efb 51       		.byte	0x51
 10946 2efc 02       		.uleb128 0x2
 10947 2efd 74       		.byte	0x74
 10948 2efe 02       		.sleb128 2
 10949 2eff 00       		.byte	0
 10950 2f00 00       		.byte	0
 10951 2f01 31       		.uleb128 0x31
 10952 2f02 97070000 		.4byte	.LASF211
 10953 2f06 01       		.byte	0x1
 10954 2f07 E203     		.2byte	0x3e2
 10955 2f09 00000000 		.4byte	.LFB121
 10956 2f0d 32000000 		.4byte	.LFE121-.LFB121
 10957 2f11 01       		.uleb128 0x1
 10958 2f12 9C       		.byte	0x9c
 10959 2f13 872F0000 		.4byte	0x2f87
 10960 2f17 2A       		.uleb128 0x2a
 10961 2f18 766D00   		.ascii	"vm\000"
 10962 2f1b 01       		.byte	0x1
 10963 2f1c E203     		.2byte	0x3e2
 10964 2f1e 56010000 		.4byte	0x156
 10965 2f22 65230000 		.4byte	.LLST239
 10966 2f26 2A       		.uleb128 0x2a
 10967 2f27 7600     		.ascii	"v\000"
 10968 2f29 01       		.byte	0x1
 10969 2f2a E203     		.2byte	0x3e2
 10970 2f2c 71060000 		.4byte	0x671
 10971 2f30 86230000 		.4byte	.LLST240
 10972 2f34 2F       		.uleb128 0x2f
 10973 2f35 F6050000 		.4byte	.LASF154
 10974 2f39 01       		.byte	0x1
 10975 2f3a E203     		.2byte	0x3e2
 10976 2f3c 2C000000 		.4byte	0x2c
 10977 2f40 A4230000 		.4byte	.LLST241
 10978 2f44 36       		.uleb128 0x36
 10979 2f45 10000000 		.4byte	.LBB432
 10980 2f49 1E000000 		.4byte	.LBE432-.LBB432
 10981 2f4d 712F0000 		.4byte	0x2f71
 10982 2f51 3A       		.uleb128 0x3a
 10983 2f52 6E6E6E00 		.ascii	"nnn\000"
 10984 2f56 01       		.byte	0x1
 10985 2f57 E503     		.2byte	0x3e5
 10986 2f59 20050000 		.4byte	0x520
ARM GAS  C:\Users\164\AppData\Local\Temp\cc3ssgoH.s 			page 233


 10987 2f5d 02       		.uleb128 0x2
 10988 2f5e 91       		.byte	0x91
 10989 2f5f 60       		.sleb128 -32
 10990 2f60 39       		.uleb128 0x39
 10991 2f61 26000000 		.4byte	.LVL604
 10992 2f65 AE390000 		.4byte	0x39ae
 10993 2f69 38       		.uleb128 0x38
 10994 2f6a 01       		.uleb128 0x1
 10995 2f6b 50       		.byte	0x50
 10996 2f6c 02       		.uleb128 0x2
 10997 2f6d 74       		.byte	0x74
 10998 2f6e 00       		.sleb128 0
 10999 2f6f 00       		.byte	0
 11000 2f70 00       		.byte	0
 11001 2f71 39       		.uleb128 0x39
 11002 2f72 0E000000 		.4byte	.LVL603
 11003 2f76 0A2E0000 		.4byte	0x2e0a
 11004 2f7a 38       		.uleb128 0x38
 11005 2f7b 01       		.uleb128 0x1
 11006 2f7c 50       		.byte	0x50
 11007 2f7d 02       		.uleb128 0x2
 11008 2f7e 74       		.byte	0x74
 11009 2f7f 00       		.sleb128 0
 11010 2f80 38       		.uleb128 0x38
 11011 2f81 01       		.uleb128 0x1
 11012 2f82 51       		.byte	0x51
 11013 2f83 01       		.uleb128 0x1
 11014 2f84 33       		.byte	0x33
 11015 2f85 00       		.byte	0
 11016 2f86 00       		.byte	0
 11017 2f87 31       		.uleb128 0x31
 11018 2f88 090C0000 		.4byte	.LASF212
 11019 2f8c 01       		.byte	0x1
 11020 2f8d D503     		.2byte	0x3d5
 11021 2f8f 00000000 		.4byte	.LFB120
 11022 2f93 34000000 		.4byte	.LFE120-.LFB120
 11023 2f97 01       		.uleb128 0x1
 11024 2f98 9C       		.byte	0x9c
 11025 2f99 3D300000 		.4byte	0x303d
 11026 2f9d 2A       		.uleb128 0x2a
 11027 2f9e 766D00   		.ascii	"vm\000"
 11028 2fa1 01       		.byte	0x1
 11029 2fa2 D503     		.2byte	0x3d5
 11030 2fa4 56010000 		.4byte	0x156
 11031 2fa8 C5230000 		.4byte	.LLST242
 11032 2fac 2A       		.uleb128 0x2a
 11033 2fad 7600     		.ascii	"v\000"
 11034 2faf 01       		.byte	0x1
 11035 2fb0 D503     		.2byte	0x3d5
 11036 2fb2 71060000 		.4byte	0x671
 11037 2fb6 F1230000 		.4byte	.LLST243
 11038 2fba 2F       		.uleb128 0x2f
 11039 2fbb F6050000 		.4byte	.LASF154
 11040 2fbf 01       		.byte	0x1
 11041 2fc0 D503     		.2byte	0x3d5
 11042 2fc2 2C000000 		.4byte	0x2c
 11043 2fc6 1A240000 		.4byte	.LLST244
ARM GAS  C:\Users\164\AppData\Local\Temp\cc3ssgoH.s 			page 234


 11044 2fca 3A       		.uleb128 0x3a
 11045 2fcb 72657400 		.ascii	"ret\000"
 11046 2fcf 01       		.byte	0x1
 11047 2fd0 D703     		.2byte	0x3d7
 11048 2fd2 20050000 		.4byte	0x520
 11049 2fd6 02       		.uleb128 0x2
 11050 2fd7 91       		.byte	0x91
 11051 2fd8 60       		.sleb128 -32
 11052 2fd9 36       		.uleb128 0x36
 11053 2fda 1A000000 		.4byte	.LBB433
 11054 2fde 16000000 		.4byte	.LBE433-.LBB433
 11055 2fe2 06300000 		.4byte	0x3006
 11056 2fe6 3A       		.uleb128 0x3a
 11057 2fe7 6E6E6E00 		.ascii	"nnn\000"
 11058 2feb 01       		.byte	0x1
 11059 2fec DB03     		.2byte	0x3db
 11060 2fee 20050000 		.4byte	0x520
 11061 2ff2 02       		.uleb128 0x2
 11062 2ff3 91       		.byte	0x91
 11063 2ff4 50       		.sleb128 -48
 11064 2ff5 39       		.uleb128 0x39
 11065 2ff6 28000000 		.4byte	.LVL611
 11066 2ffa AE390000 		.4byte	0x39ae
 11067 2ffe 38       		.uleb128 0x38
 11068 2fff 01       		.uleb128 0x1
 11069 3000 50       		.byte	0x50
 11070 3001 02       		.uleb128 0x2
 11071 3002 75       		.byte	0x75
 11072 3003 00       		.sleb128 0
 11073 3004 00       		.byte	0
 11074 3005 00       		.byte	0
 11075 3006 37       		.uleb128 0x37
 11076 3007 12000000 		.4byte	.LVL609
 11077 300b 10200000 		.4byte	0x2010
 11078 300f 27300000 		.4byte	0x3027
 11079 3013 38       		.uleb128 0x38
 11080 3014 01       		.uleb128 0x1
 11081 3015 50       		.byte	0x50
 11082 3016 02       		.uleb128 0x2
 11083 3017 76       		.byte	0x76
 11084 3018 00       		.sleb128 0
 11085 3019 38       		.uleb128 0x38
 11086 301a 01       		.uleb128 0x1
 11087 301b 51       		.byte	0x51
 11088 301c 03       		.uleb128 0x3
 11089 301d F3       		.byte	0xf3
 11090 301e 01       		.uleb128 0x1
 11091 301f 50       		.byte	0x50
 11092 3020 38       		.uleb128 0x38
 11093 3021 01       		.uleb128 0x1
 11094 3022 52       		.byte	0x52
 11095 3023 02       		.uleb128 0x2
 11096 3024 75       		.byte	0x75
 11097 3025 00       		.sleb128 0
 11098 3026 00       		.byte	0
 11099 3027 39       		.uleb128 0x39
 11100 3028 1A000000 		.4byte	.LVL610
ARM GAS  C:\Users\164\AppData\Local\Temp\cc3ssgoH.s 			page 235


 11101 302c 0A2E0000 		.4byte	0x2e0a
 11102 3030 38       		.uleb128 0x38
 11103 3031 01       		.uleb128 0x1
 11104 3032 50       		.byte	0x50
 11105 3033 02       		.uleb128 0x2
 11106 3034 76       		.byte	0x76
 11107 3035 00       		.sleb128 0
 11108 3036 38       		.uleb128 0x38
 11109 3037 01       		.uleb128 0x1
 11110 3038 51       		.byte	0x51
 11111 3039 01       		.uleb128 0x1
 11112 303a 33       		.byte	0x33
 11113 303b 00       		.byte	0
 11114 303c 00       		.byte	0
 11115 303d 31       		.uleb128 0x31
 11116 303e CC060000 		.4byte	.LASF213
 11117 3042 01       		.byte	0x1
 11118 3043 CA03     		.2byte	0x3ca
 11119 3045 00000000 		.4byte	.LFB119
 11120 3049 32000000 		.4byte	.LFE119-.LFB119
 11121 304d 01       		.uleb128 0x1
 11122 304e 9C       		.byte	0x9c
 11123 304f C3300000 		.4byte	0x30c3
 11124 3053 2A       		.uleb128 0x2a
 11125 3054 766D00   		.ascii	"vm\000"
 11126 3057 01       		.byte	0x1
 11127 3058 CA03     		.2byte	0x3ca
 11128 305a 56010000 		.4byte	0x156
 11129 305e 3B240000 		.4byte	.LLST245
 11130 3062 2A       		.uleb128 0x2a
 11131 3063 7600     		.ascii	"v\000"
 11132 3065 01       		.byte	0x1
 11133 3066 CA03     		.2byte	0x3ca
 11134 3068 71060000 		.4byte	0x671
 11135 306c 5C240000 		.4byte	.LLST246
 11136 3070 2F       		.uleb128 0x2f
 11137 3071 F6050000 		.4byte	.LASF154
 11138 3075 01       		.byte	0x1
 11139 3076 CA03     		.2byte	0x3ca
 11140 3078 2C000000 		.4byte	0x2c
 11141 307c 7A240000 		.4byte	.LLST247
 11142 3080 36       		.uleb128 0x36
 11143 3081 10000000 		.4byte	.LBB434
 11144 3085 1E000000 		.4byte	.LBE434-.LBB434
 11145 3089 AD300000 		.4byte	0x30ad
 11146 308d 3A       		.uleb128 0x3a
 11147 308e 6E6E6E00 		.ascii	"nnn\000"
 11148 3092 01       		.byte	0x1
 11149 3093 CD03     		.2byte	0x3cd
 11150 3095 20050000 		.4byte	0x520
 11151 3099 02       		.uleb128 0x2
 11152 309a 91       		.byte	0x91
 11153 309b 60       		.sleb128 -32
 11154 309c 39       		.uleb128 0x39
 11155 309d 26000000 		.4byte	.LVL616
 11156 30a1 AE390000 		.4byte	0x39ae
 11157 30a5 38       		.uleb128 0x38
ARM GAS  C:\Users\164\AppData\Local\Temp\cc3ssgoH.s 			page 236


 11158 30a6 01       		.uleb128 0x1
 11159 30a7 50       		.byte	0x50
 11160 30a8 02       		.uleb128 0x2
 11161 30a9 74       		.byte	0x74
 11162 30aa 00       		.sleb128 0
 11163 30ab 00       		.byte	0
 11164 30ac 00       		.byte	0
 11165 30ad 39       		.uleb128 0x39
 11166 30ae 0E000000 		.4byte	.LVL615
 11167 30b2 0A2E0000 		.4byte	0x2e0a
 11168 30b6 38       		.uleb128 0x38
 11169 30b7 01       		.uleb128 0x1
 11170 30b8 50       		.byte	0x50
 11171 30b9 02       		.uleb128 0x2
 11172 30ba 74       		.byte	0x74
 11173 30bb 00       		.sleb128 0
 11174 30bc 38       		.uleb128 0x38
 11175 30bd 01       		.uleb128 0x1
 11176 30be 51       		.byte	0x51
 11177 30bf 01       		.uleb128 0x1
 11178 30c0 32       		.byte	0x32
 11179 30c1 00       		.byte	0
 11180 30c2 00       		.byte	0
 11181 30c3 31       		.uleb128 0x31
 11182 30c4 3D0B0000 		.4byte	.LASF214
 11183 30c8 01       		.byte	0x1
 11184 30c9 BD03     		.2byte	0x3bd
 11185 30cb 00000000 		.4byte	.LFB118
 11186 30cf 34000000 		.4byte	.LFE118-.LFB118
 11187 30d3 01       		.uleb128 0x1
 11188 30d4 9C       		.byte	0x9c
 11189 30d5 79310000 		.4byte	0x3179
 11190 30d9 2A       		.uleb128 0x2a
 11191 30da 766D00   		.ascii	"vm\000"
 11192 30dd 01       		.byte	0x1
 11193 30de BD03     		.2byte	0x3bd
 11194 30e0 56010000 		.4byte	0x156
 11195 30e4 9B240000 		.4byte	.LLST248
 11196 30e8 2A       		.uleb128 0x2a
 11197 30e9 7600     		.ascii	"v\000"
 11198 30eb 01       		.byte	0x1
 11199 30ec BD03     		.2byte	0x3bd
 11200 30ee 71060000 		.4byte	0x671
 11201 30f2 C7240000 		.4byte	.LLST249
 11202 30f6 2F       		.uleb128 0x2f
 11203 30f7 F6050000 		.4byte	.LASF154
 11204 30fb 01       		.byte	0x1
 11205 30fc BD03     		.2byte	0x3bd
 11206 30fe 2C000000 		.4byte	0x2c
 11207 3102 F0240000 		.4byte	.LLST250
 11208 3106 3A       		.uleb128 0x3a
 11209 3107 72657400 		.ascii	"ret\000"
 11210 310b 01       		.byte	0x1
 11211 310c BF03     		.2byte	0x3bf
 11212 310e 20050000 		.4byte	0x520
 11213 3112 02       		.uleb128 0x2
 11214 3113 91       		.byte	0x91
ARM GAS  C:\Users\164\AppData\Local\Temp\cc3ssgoH.s 			page 237


 11215 3114 60       		.sleb128 -32
 11216 3115 36       		.uleb128 0x36
 11217 3116 1A000000 		.4byte	.LBB435
 11218 311a 16000000 		.4byte	.LBE435-.LBB435
 11219 311e 42310000 		.4byte	0x3142
 11220 3122 3A       		.uleb128 0x3a
 11221 3123 6E6E6E00 		.ascii	"nnn\000"
 11222 3127 01       		.byte	0x1
 11223 3128 C303     		.2byte	0x3c3
 11224 312a 20050000 		.4byte	0x520
 11225 312e 02       		.uleb128 0x2
 11226 312f 91       		.byte	0x91
 11227 3130 50       		.sleb128 -48
 11228 3131 39       		.uleb128 0x39
 11229 3132 28000000 		.4byte	.LVL623
 11230 3136 AE390000 		.4byte	0x39ae
 11231 313a 38       		.uleb128 0x38
 11232 313b 01       		.uleb128 0x1
 11233 313c 50       		.byte	0x50
 11234 313d 02       		.uleb128 0x2
 11235 313e 75       		.byte	0x75
 11236 313f 00       		.sleb128 0
 11237 3140 00       		.byte	0
 11238 3141 00       		.byte	0
 11239 3142 37       		.uleb128 0x37
 11240 3143 12000000 		.4byte	.LVL621
 11241 3147 10200000 		.4byte	0x2010
 11242 314b 63310000 		.4byte	0x3163
 11243 314f 38       		.uleb128 0x38
 11244 3150 01       		.uleb128 0x1
 11245 3151 50       		.byte	0x50
 11246 3152 02       		.uleb128 0x2
 11247 3153 76       		.byte	0x76
 11248 3154 00       		.sleb128 0
 11249 3155 38       		.uleb128 0x38
 11250 3156 01       		.uleb128 0x1
 11251 3157 51       		.byte	0x51
 11252 3158 03       		.uleb128 0x3
 11253 3159 F3       		.byte	0xf3
 11254 315a 01       		.uleb128 0x1
 11255 315b 50       		.byte	0x50
 11256 315c 38       		.uleb128 0x38
 11257 315d 01       		.uleb128 0x1
 11258 315e 52       		.byte	0x52
 11259 315f 02       		.uleb128 0x2
 11260 3160 75       		.byte	0x75
 11261 3161 00       		.sleb128 0
 11262 3162 00       		.byte	0
 11263 3163 39       		.uleb128 0x39
 11264 3164 1A000000 		.4byte	.LVL622
 11265 3168 0A2E0000 		.4byte	0x2e0a
 11266 316c 38       		.uleb128 0x38
 11267 316d 01       		.uleb128 0x1
 11268 316e 50       		.byte	0x50
 11269 316f 02       		.uleb128 0x2
 11270 3170 76       		.byte	0x76
 11271 3171 00       		.sleb128 0
ARM GAS  C:\Users\164\AppData\Local\Temp\cc3ssgoH.s 			page 238


 11272 3172 38       		.uleb128 0x38
 11273 3173 01       		.uleb128 0x1
 11274 3174 51       		.byte	0x51
 11275 3175 01       		.uleb128 0x1
 11276 3176 32       		.byte	0x32
 11277 3177 00       		.byte	0
 11278 3178 00       		.byte	0
 11279 3179 31       		.uleb128 0x31
 11280 317a 3F040000 		.4byte	.LASF215
 11281 317e 01       		.byte	0x1
 11282 317f B203     		.2byte	0x3b2
 11283 3181 00000000 		.4byte	.LFB117
 11284 3185 32000000 		.4byte	.LFE117-.LFB117
 11285 3189 01       		.uleb128 0x1
 11286 318a 9C       		.byte	0x9c
 11287 318b FF310000 		.4byte	0x31ff
 11288 318f 2A       		.uleb128 0x2a
 11289 3190 766D00   		.ascii	"vm\000"
 11290 3193 01       		.byte	0x1
 11291 3194 B203     		.2byte	0x3b2
 11292 3196 56010000 		.4byte	0x156
 11293 319a 11250000 		.4byte	.LLST251
 11294 319e 2A       		.uleb128 0x2a
 11295 319f 7600     		.ascii	"v\000"
 11296 31a1 01       		.byte	0x1
 11297 31a2 B203     		.2byte	0x3b2
 11298 31a4 71060000 		.4byte	0x671
 11299 31a8 32250000 		.4byte	.LLST252
 11300 31ac 2F       		.uleb128 0x2f
 11301 31ad F6050000 		.4byte	.LASF154
 11302 31b1 01       		.byte	0x1
 11303 31b2 B203     		.2byte	0x3b2
 11304 31b4 2C000000 		.4byte	0x2c
 11305 31b8 50250000 		.4byte	.LLST253
 11306 31bc 36       		.uleb128 0x36
 11307 31bd 10000000 		.4byte	.LBB436
 11308 31c1 1E000000 		.4byte	.LBE436-.LBB436
 11309 31c5 E9310000 		.4byte	0x31e9
 11310 31c9 3A       		.uleb128 0x3a
 11311 31ca 6E6E6E00 		.ascii	"nnn\000"
 11312 31ce 01       		.byte	0x1
 11313 31cf B503     		.2byte	0x3b5
 11314 31d1 20050000 		.4byte	0x520
 11315 31d5 02       		.uleb128 0x2
 11316 31d6 91       		.byte	0x91
 11317 31d7 60       		.sleb128 -32
 11318 31d8 39       		.uleb128 0x39
 11319 31d9 26000000 		.4byte	.LVL628
 11320 31dd AE390000 		.4byte	0x39ae
 11321 31e1 38       		.uleb128 0x38
 11322 31e2 01       		.uleb128 0x1
 11323 31e3 50       		.byte	0x50
 11324 31e4 02       		.uleb128 0x2
 11325 31e5 74       		.byte	0x74
 11326 31e6 00       		.sleb128 0
 11327 31e7 00       		.byte	0
 11328 31e8 00       		.byte	0
ARM GAS  C:\Users\164\AppData\Local\Temp\cc3ssgoH.s 			page 239


 11329 31e9 39       		.uleb128 0x39
 11330 31ea 0E000000 		.4byte	.LVL627
 11331 31ee 0A2E0000 		.4byte	0x2e0a
 11332 31f2 38       		.uleb128 0x38
 11333 31f3 01       		.uleb128 0x1
 11334 31f4 50       		.byte	0x50
 11335 31f5 02       		.uleb128 0x2
 11336 31f6 74       		.byte	0x74
 11337 31f7 00       		.sleb128 0
 11338 31f8 38       		.uleb128 0x38
 11339 31f9 01       		.uleb128 0x1
 11340 31fa 51       		.byte	0x51
 11341 31fb 01       		.uleb128 0x1
 11342 31fc 31       		.byte	0x31
 11343 31fd 00       		.byte	0
 11344 31fe 00       		.byte	0
 11345 31ff 31       		.uleb128 0x31
 11346 3200 E1060000 		.4byte	.LASF216
 11347 3204 01       		.byte	0x1
 11348 3205 A503     		.2byte	0x3a5
 11349 3207 00000000 		.4byte	.LFB116
 11350 320b 34000000 		.4byte	.LFE116-.LFB116
 11351 320f 01       		.uleb128 0x1
 11352 3210 9C       		.byte	0x9c
 11353 3211 B5320000 		.4byte	0x32b5
 11354 3215 2A       		.uleb128 0x2a
 11355 3216 766D00   		.ascii	"vm\000"
 11356 3219 01       		.byte	0x1
 11357 321a A503     		.2byte	0x3a5
 11358 321c 56010000 		.4byte	0x156
 11359 3220 71250000 		.4byte	.LLST254
 11360 3224 2A       		.uleb128 0x2a
 11361 3225 7600     		.ascii	"v\000"
 11362 3227 01       		.byte	0x1
 11363 3228 A503     		.2byte	0x3a5
 11364 322a 71060000 		.4byte	0x671
 11365 322e 9D250000 		.4byte	.LLST255
 11366 3232 2F       		.uleb128 0x2f
 11367 3233 F6050000 		.4byte	.LASF154
 11368 3237 01       		.byte	0x1
 11369 3238 A503     		.2byte	0x3a5
 11370 323a 2C000000 		.4byte	0x2c
 11371 323e C6250000 		.4byte	.LLST256
 11372 3242 3A       		.uleb128 0x3a
 11373 3243 72657400 		.ascii	"ret\000"
 11374 3247 01       		.byte	0x1
 11375 3248 A703     		.2byte	0x3a7
 11376 324a 20050000 		.4byte	0x520
 11377 324e 02       		.uleb128 0x2
 11378 324f 91       		.byte	0x91
 11379 3250 60       		.sleb128 -32
 11380 3251 36       		.uleb128 0x36
 11381 3252 1A000000 		.4byte	.LBB437
 11382 3256 16000000 		.4byte	.LBE437-.LBB437
 11383 325a 7E320000 		.4byte	0x327e
 11384 325e 3A       		.uleb128 0x3a
 11385 325f 6E6E6E00 		.ascii	"nnn\000"
ARM GAS  C:\Users\164\AppData\Local\Temp\cc3ssgoH.s 			page 240


 11386 3263 01       		.byte	0x1
 11387 3264 AB03     		.2byte	0x3ab
 11388 3266 20050000 		.4byte	0x520
 11389 326a 02       		.uleb128 0x2
 11390 326b 91       		.byte	0x91
 11391 326c 50       		.sleb128 -48
 11392 326d 39       		.uleb128 0x39
 11393 326e 28000000 		.4byte	.LVL635
 11394 3272 AE390000 		.4byte	0x39ae
 11395 3276 38       		.uleb128 0x38
 11396 3277 01       		.uleb128 0x1
 11397 3278 50       		.byte	0x50
 11398 3279 02       		.uleb128 0x2
 11399 327a 75       		.byte	0x75
 11400 327b 00       		.sleb128 0
 11401 327c 00       		.byte	0
 11402 327d 00       		.byte	0
 11403 327e 37       		.uleb128 0x37
 11404 327f 12000000 		.4byte	.LVL633
 11405 3283 10200000 		.4byte	0x2010
 11406 3287 9F320000 		.4byte	0x329f
 11407 328b 38       		.uleb128 0x38
 11408 328c 01       		.uleb128 0x1
 11409 328d 50       		.byte	0x50
 11410 328e 02       		.uleb128 0x2
 11411 328f 76       		.byte	0x76
 11412 3290 00       		.sleb128 0
 11413 3291 38       		.uleb128 0x38
 11414 3292 01       		.uleb128 0x1
 11415 3293 51       		.byte	0x51
 11416 3294 03       		.uleb128 0x3
 11417 3295 F3       		.byte	0xf3
 11418 3296 01       		.uleb128 0x1
 11419 3297 50       		.byte	0x50
 11420 3298 38       		.uleb128 0x38
 11421 3299 01       		.uleb128 0x1
 11422 329a 52       		.byte	0x52
 11423 329b 02       		.uleb128 0x2
 11424 329c 75       		.byte	0x75
 11425 329d 00       		.sleb128 0
 11426 329e 00       		.byte	0
 11427 329f 39       		.uleb128 0x39
 11428 32a0 1A000000 		.4byte	.LVL634
 11429 32a4 0A2E0000 		.4byte	0x2e0a
 11430 32a8 38       		.uleb128 0x38
 11431 32a9 01       		.uleb128 0x1
 11432 32aa 50       		.byte	0x50
 11433 32ab 02       		.uleb128 0x2
 11434 32ac 76       		.byte	0x76
 11435 32ad 00       		.sleb128 0
 11436 32ae 38       		.uleb128 0x38
 11437 32af 01       		.uleb128 0x1
 11438 32b0 51       		.byte	0x51
 11439 32b1 01       		.uleb128 0x1
 11440 32b2 31       		.byte	0x31
 11441 32b3 00       		.byte	0
 11442 32b4 00       		.byte	0
ARM GAS  C:\Users\164\AppData\Local\Temp\cc3ssgoH.s 			page 241


 11443 32b5 45       		.uleb128 0x45
 11444 32b6 41000000 		.4byte	.LASF217
 11445 32ba 01       		.byte	0x1
 11446 32bb 4A01     		.2byte	0x14a
 11447 32bd 2C000000 		.4byte	0x2c
 11448 32c1 00000000 		.4byte	.LFB98
 11449 32c5 36000000 		.4byte	.LFE98-.LFB98
 11450 32c9 01       		.uleb128 0x1
 11451 32ca 9C       		.byte	0x9c
 11452 32cb 4C330000 		.4byte	0x334c
 11453 32cf 2A       		.uleb128 0x2a
 11454 32d0 73726300 		.ascii	"src\000"
 11455 32d4 01       		.byte	0x1
 11456 32d5 4A01     		.2byte	0x14a
 11457 32d7 71060000 		.4byte	0x671
 11458 32db E7250000 		.4byte	.LLST257
 11459 32df 3B       		.uleb128 0x3b
 11460 32e0 703100   		.ascii	"p1\000"
 11461 32e3 01       		.byte	0x1
 11462 32e4 4C01     		.2byte	0x14c
 11463 32e6 B2000000 		.4byte	0xb2
 11464 32ea 2C       		.uleb128 0x2c
 11465 32eb 703200   		.ascii	"p2\000"
 11466 32ee 01       		.byte	0x1
 11467 32ef 4D01     		.2byte	0x14d
 11468 32f1 B2000000 		.4byte	0xb2
 11469 32f5 21260000 		.4byte	.LLST258
 11470 32f9 3F       		.uleb128 0x3f
 11471 32fa 97080000 		.4byte	.LASF210
 11472 32fe 01       		.byte	0x1
 11473 32ff 5601     		.2byte	0x156
 11474 3301 2C000000 		.4byte	0x2c
 11475 3305 01       		.uleb128 0x1
 11476 3306 53       		.byte	0x53
 11477 3307 3B       		.uleb128 0x3b
 11478 3308 62756600 		.ascii	"buf\000"
 11479 330c 01       		.byte	0x1
 11480 330d 5901     		.2byte	0x159
 11481 330f B2000000 		.4byte	0xb2
 11482 3313 34       		.uleb128 0x34
 11483 3314 07080000 		.4byte	0x807
 11484 3318 02000000 		.4byte	.LBB438
 11485 331c 04000000 		.4byte	.LBE438-.LBB438
 11486 3320 01       		.byte	0x1
 11487 3321 4C01     		.2byte	0x14c
 11488 3323 31330000 		.4byte	0x3331
 11489 3327 35       		.uleb128 0x35
 11490 3328 17080000 		.4byte	0x817
 11491 332c 34260000 		.4byte	.LLST259
 11492 3330 00       		.byte	0
 11493 3331 46       		.uleb128 0x46
 11494 3332 E0070000 		.4byte	0x7e0
 11495 3336 06000000 		.4byte	.LBB440
 11496 333a 02000000 		.4byte	.LBE440-.LBB440
 11497 333e 01       		.byte	0x1
 11498 333f 4D01     		.2byte	0x14d
 11499 3341 35       		.uleb128 0x35
ARM GAS  C:\Users\164\AppData\Local\Temp\cc3ssgoH.s 			page 242


 11500 3342 F0070000 		.4byte	0x7f0
 11501 3346 47260000 		.4byte	.LLST260
 11502 334a 00       		.byte	0
 11503 334b 00       		.byte	0
 11504 334c 31       		.uleb128 0x31
 11505 334d AC050000 		.4byte	.LASF218
 11506 3351 01       		.byte	0x1
 11507 3352 5702     		.2byte	0x257
 11508 3354 00000000 		.4byte	.LFB108
 11509 3358 30000000 		.4byte	.LFE108-.LFB108
 11510 335c 01       		.uleb128 0x1
 11511 335d 9C       		.byte	0x9c
 11512 335e CD330000 		.4byte	0x33cd
 11513 3362 2A       		.uleb128 0x2a
 11514 3363 766D00   		.ascii	"vm\000"
 11515 3366 01       		.byte	0x1
 11516 3367 5702     		.2byte	0x257
 11517 3369 56010000 		.4byte	0x156
 11518 336d 5A260000 		.4byte	.LLST261
 11519 3371 2A       		.uleb128 0x2a
 11520 3372 7600     		.ascii	"v\000"
 11521 3374 01       		.byte	0x1
 11522 3375 5702     		.2byte	0x257
 11523 3377 71060000 		.4byte	0x671
 11524 337b 7B260000 		.4byte	.LLST262
 11525 337f 2F       		.uleb128 0x2f
 11526 3380 F6050000 		.4byte	.LASF154
 11527 3384 01       		.byte	0x1
 11528 3385 5702     		.2byte	0x257
 11529 3387 2C000000 		.4byte	0x2c
 11530 338b 99260000 		.4byte	.LLST263
 11531 338f 36       		.uleb128 0x36
 11532 3390 0E000000 		.4byte	.LBB442
 11533 3394 1E000000 		.4byte	.LBE442-.LBB442
 11534 3398 BC330000 		.4byte	0x33bc
 11535 339c 3A       		.uleb128 0x3a
 11536 339d 6E6E6E00 		.ascii	"nnn\000"
 11537 33a1 01       		.byte	0x1
 11538 33a2 5A02     		.2byte	0x25a
 11539 33a4 20050000 		.4byte	0x520
 11540 33a8 02       		.uleb128 0x2
 11541 33a9 91       		.byte	0x91
 11542 33aa 60       		.sleb128 -32
 11543 33ab 39       		.uleb128 0x39
 11544 33ac 24000000 		.4byte	.LVL651
 11545 33b0 AE390000 		.4byte	0x39ae
 11546 33b4 38       		.uleb128 0x38
 11547 33b5 01       		.uleb128 0x1
 11548 33b6 50       		.byte	0x50
 11549 33b7 02       		.uleb128 0x2
 11550 33b8 74       		.byte	0x74
 11551 33b9 00       		.sleb128 0
 11552 33ba 00       		.byte	0
 11553 33bb 00       		.byte	0
 11554 33bc 39       		.uleb128 0x39
 11555 33bd 0C000000 		.4byte	.LVL650
 11556 33c1 B5320000 		.4byte	0x32b5
ARM GAS  C:\Users\164\AppData\Local\Temp\cc3ssgoH.s 			page 243


 11557 33c5 38       		.uleb128 0x38
 11558 33c6 01       		.uleb128 0x1
 11559 33c7 50       		.byte	0x50
 11560 33c8 02       		.uleb128 0x2
 11561 33c9 74       		.byte	0x74
 11562 33ca 00       		.sleb128 0
 11563 33cb 00       		.byte	0
 11564 33cc 00       		.byte	0
 11565 33cd 31       		.uleb128 0x31
 11566 33ce 630B0000 		.4byte	.LASF219
 11567 33d2 01       		.byte	0x1
 11568 33d3 4A02     		.2byte	0x24a
 11569 33d5 00000000 		.4byte	.LFB107
 11570 33d9 32000000 		.4byte	.LFE107-.LFB107
 11571 33dd 01       		.uleb128 0x1
 11572 33de 9C       		.byte	0x9c
 11573 33df 7E340000 		.4byte	0x347e
 11574 33e3 2A       		.uleb128 0x2a
 11575 33e4 766D00   		.ascii	"vm\000"
 11576 33e7 01       		.byte	0x1
 11577 33e8 4A02     		.2byte	0x24a
 11578 33ea 56010000 		.4byte	0x156
 11579 33ee BA260000 		.4byte	.LLST264
 11580 33f2 2A       		.uleb128 0x2a
 11581 33f3 7600     		.ascii	"v\000"
 11582 33f5 01       		.byte	0x1
 11583 33f6 4A02     		.2byte	0x24a
 11584 33f8 71060000 		.4byte	0x671
 11585 33fc E6260000 		.4byte	.LLST265
 11586 3400 2F       		.uleb128 0x2f
 11587 3401 F6050000 		.4byte	.LASF154
 11588 3405 01       		.byte	0x1
 11589 3406 4A02     		.2byte	0x24a
 11590 3408 2C000000 		.4byte	0x2c
 11591 340c 0F270000 		.4byte	.LLST266
 11592 3410 3A       		.uleb128 0x3a
 11593 3411 72657400 		.ascii	"ret\000"
 11594 3415 01       		.byte	0x1
 11595 3416 4C02     		.2byte	0x24c
 11596 3418 20050000 		.4byte	0x520
 11597 341c 02       		.uleb128 0x2
 11598 341d 91       		.byte	0x91
 11599 341e 60       		.sleb128 -32
 11600 341f 36       		.uleb128 0x36
 11601 3420 18000000 		.4byte	.LBB443
 11602 3424 16000000 		.4byte	.LBE443-.LBB443
 11603 3428 4C340000 		.4byte	0x344c
 11604 342c 3A       		.uleb128 0x3a
 11605 342d 6E6E6E00 		.ascii	"nnn\000"
 11606 3431 01       		.byte	0x1
 11607 3432 5002     		.2byte	0x250
 11608 3434 20050000 		.4byte	0x520
 11609 3438 02       		.uleb128 0x2
 11610 3439 91       		.byte	0x91
 11611 343a 50       		.sleb128 -48
 11612 343b 39       		.uleb128 0x39
 11613 343c 26000000 		.4byte	.LVL658
ARM GAS  C:\Users\164\AppData\Local\Temp\cc3ssgoH.s 			page 244


 11614 3440 AE390000 		.4byte	0x39ae
 11615 3444 38       		.uleb128 0x38
 11616 3445 01       		.uleb128 0x1
 11617 3446 50       		.byte	0x50
 11618 3447 02       		.uleb128 0x2
 11619 3448 75       		.byte	0x75
 11620 3449 00       		.sleb128 0
 11621 344a 00       		.byte	0
 11622 344b 00       		.byte	0
 11623 344c 37       		.uleb128 0x37
 11624 344d 12000000 		.4byte	.LVL656
 11625 3451 10200000 		.4byte	0x2010
 11626 3455 6D340000 		.4byte	0x346d
 11627 3459 38       		.uleb128 0x38
 11628 345a 01       		.uleb128 0x1
 11629 345b 50       		.byte	0x50
 11630 345c 02       		.uleb128 0x2
 11631 345d 76       		.byte	0x76
 11632 345e 00       		.sleb128 0
 11633 345f 38       		.uleb128 0x38
 11634 3460 01       		.uleb128 0x1
 11635 3461 51       		.byte	0x51
 11636 3462 03       		.uleb128 0x3
 11637 3463 F3       		.byte	0xf3
 11638 3464 01       		.uleb128 0x1
 11639 3465 50       		.byte	0x50
 11640 3466 38       		.uleb128 0x38
 11641 3467 01       		.uleb128 0x1
 11642 3468 52       		.byte	0x52
 11643 3469 02       		.uleb128 0x2
 11644 346a 75       		.byte	0x75
 11645 346b 00       		.sleb128 0
 11646 346c 00       		.byte	0
 11647 346d 39       		.uleb128 0x39
 11648 346e 18000000 		.4byte	.LVL657
 11649 3472 B5320000 		.4byte	0x32b5
 11650 3476 38       		.uleb128 0x38
 11651 3477 01       		.uleb128 0x1
 11652 3478 50       		.byte	0x50
 11653 3479 02       		.uleb128 0x2
 11654 347a 76       		.byte	0x76
 11655 347b 00       		.sleb128 0
 11656 347c 00       		.byte	0
 11657 347d 00       		.byte	0
 11658 347e 47       		.uleb128 0x47
 11659 347f 7A030000 		.4byte	.LASF220
 11660 3483 01       		.byte	0x1
 11661 3484 F204     		.2byte	0x4f2
 11662 3486 00000000 		.4byte	.LFB133
 11663 348a 9C020000 		.4byte	.LFE133-.LFB133
 11664 348e 01       		.uleb128 0x1
 11665 348f 9C       		.byte	0x9c
 11666 3490 68390000 		.4byte	0x3968
 11667 3494 2A       		.uleb128 0x2a
 11668 3495 766D00   		.ascii	"vm\000"
 11669 3498 01       		.byte	0x1
 11670 3499 F204     		.2byte	0x4f2
ARM GAS  C:\Users\164\AppData\Local\Temp\cc3ssgoH.s 			page 245


 11671 349b 56010000 		.4byte	0x156
 11672 349f 30270000 		.4byte	.LLST267
 11673 34a3 37       		.uleb128 0x37
 11674 34a4 0E000000 		.4byte	.LVL660
 11675 34a8 C13A0000 		.4byte	0x3ac1
 11676 34ac C0340000 		.4byte	0x34c0
 11677 34b0 38       		.uleb128 0x38
 11678 34b1 01       		.uleb128 0x1
 11679 34b2 50       		.byte	0x50
 11680 34b3 02       		.uleb128 0x2
 11681 34b4 74       		.byte	0x74
 11682 34b5 00       		.sleb128 0
 11683 34b6 38       		.uleb128 0x38
 11684 34b7 01       		.uleb128 0x1
 11685 34b8 51       		.byte	0x51
 11686 34b9 05       		.uleb128 0x5
 11687 34ba 03       		.byte	0x3
 11688 34bb 98000000 		.4byte	.LC9
 11689 34bf 00       		.byte	0
 11690 34c0 37       		.uleb128 0x37
 11691 34c1 1E000000 		.4byte	.LVL661
 11692 34c5 CC3A0000 		.4byte	0x3acc
 11693 34c9 E6340000 		.4byte	0x34e6
 11694 34cd 38       		.uleb128 0x38
 11695 34ce 01       		.uleb128 0x1
 11696 34cf 50       		.byte	0x50
 11697 34d0 02       		.uleb128 0x2
 11698 34d1 74       		.byte	0x74
 11699 34d2 00       		.sleb128 0
 11700 34d3 38       		.uleb128 0x38
 11701 34d4 01       		.uleb128 0x1
 11702 34d5 52       		.byte	0x52
 11703 34d6 05       		.uleb128 0x5
 11704 34d7 03       		.byte	0x3
 11705 34d8 A0000000 		.4byte	.LC10
 11706 34dc 38       		.uleb128 0x38
 11707 34dd 01       		.uleb128 0x1
 11708 34de 53       		.byte	0x53
 11709 34df 05       		.uleb128 0x5
 11710 34e0 03       		.byte	0x3
 11711 34e1 00000000 		.4byte	c_string_add
 11712 34e5 00       		.byte	0
 11713 34e6 37       		.uleb128 0x37
 11714 34e7 2A000000 		.4byte	.LVL662
 11715 34eb CC3A0000 		.4byte	0x3acc
 11716 34ef 0C350000 		.4byte	0x350c
 11717 34f3 38       		.uleb128 0x38
 11718 34f4 01       		.uleb128 0x1
 11719 34f5 50       		.byte	0x50
 11720 34f6 02       		.uleb128 0x2
 11721 34f7 74       		.byte	0x74
 11722 34f8 00       		.sleb128 0
 11723 34f9 38       		.uleb128 0x38
 11724 34fa 01       		.uleb128 0x1
 11725 34fb 52       		.byte	0x52
 11726 34fc 05       		.uleb128 0x5
 11727 34fd 03       		.byte	0x3
ARM GAS  C:\Users\164\AppData\Local\Temp\cc3ssgoH.s 			page 246


 11728 34fe A4000000 		.4byte	.LC11
 11729 3502 38       		.uleb128 0x38
 11730 3503 01       		.uleb128 0x1
 11731 3504 53       		.byte	0x53
 11732 3505 05       		.uleb128 0x5
 11733 3506 03       		.byte	0x3
 11734 3507 00000000 		.4byte	c_string_mul
 11735 350b 00       		.byte	0
 11736 350c 37       		.uleb128 0x37
 11737 350d 38000000 		.4byte	.LVL663
 11738 3511 CC3A0000 		.4byte	0x3acc
 11739 3515 2F350000 		.4byte	0x352f
 11740 3519 38       		.uleb128 0x38
 11741 351a 01       		.uleb128 0x1
 11742 351b 50       		.byte	0x50
 11743 351c 02       		.uleb128 0x2
 11744 351d 74       		.byte	0x74
 11745 351e 00       		.sleb128 0
 11746 351f 38       		.uleb128 0x38
 11747 3520 01       		.uleb128 0x1
 11748 3521 52       		.byte	0x52
 11749 3522 05       		.uleb128 0x5
 11750 3523 03       		.byte	0x3
 11751 3524 A8000000 		.4byte	.LC12
 11752 3528 38       		.uleb128 0x38
 11753 3529 01       		.uleb128 0x1
 11754 352a 53       		.byte	0x53
 11755 352b 02       		.uleb128 0x2
 11756 352c 77       		.byte	0x77
 11757 352d 00       		.sleb128 0
 11758 352e 00       		.byte	0
 11759 352f 37       		.uleb128 0x37
 11760 3530 44000000 		.4byte	.LVL664
 11761 3534 CC3A0000 		.4byte	0x3acc
 11762 3538 52350000 		.4byte	0x3552
 11763 353c 38       		.uleb128 0x38
 11764 353d 01       		.uleb128 0x1
 11765 353e 50       		.byte	0x50
 11766 353f 02       		.uleb128 0x2
 11767 3540 74       		.byte	0x74
 11768 3541 00       		.sleb128 0
 11769 3542 38       		.uleb128 0x38
 11770 3543 01       		.uleb128 0x1
 11771 3544 52       		.byte	0x52
 11772 3545 05       		.uleb128 0x5
 11773 3546 03       		.byte	0x3
 11774 3547 B0000000 		.4byte	.LC13
 11775 354b 38       		.uleb128 0x38
 11776 354c 01       		.uleb128 0x1
 11777 354d 53       		.byte	0x53
 11778 354e 02       		.uleb128 0x2
 11779 354f 77       		.byte	0x77
 11780 3550 00       		.sleb128 0
 11781 3551 00       		.byte	0
 11782 3552 37       		.uleb128 0x37
 11783 3553 50000000 		.4byte	.LVL665
 11784 3557 CC3A0000 		.4byte	0x3acc
ARM GAS  C:\Users\164\AppData\Local\Temp\cc3ssgoH.s 			page 247


 11785 355b 78350000 		.4byte	0x3578
 11786 355f 38       		.uleb128 0x38
 11787 3560 01       		.uleb128 0x1
 11788 3561 50       		.byte	0x50
 11789 3562 02       		.uleb128 0x2
 11790 3563 74       		.byte	0x74
 11791 3564 00       		.sleb128 0
 11792 3565 38       		.uleb128 0x38
 11793 3566 01       		.uleb128 0x1
 11794 3567 52       		.byte	0x52
 11795 3568 05       		.uleb128 0x5
 11796 3569 03       		.byte	0x3
 11797 356a B8000000 		.4byte	.LC14
 11798 356e 38       		.uleb128 0x38
 11799 356f 01       		.uleb128 0x1
 11800 3570 53       		.byte	0x53
 11801 3571 05       		.uleb128 0x5
 11802 3572 03       		.byte	0x3
 11803 3573 00000000 		.4byte	c_string_to_i
 11804 3577 00       		.byte	0
 11805 3578 37       		.uleb128 0x37
 11806 3579 5C000000 		.4byte	.LVL666
 11807 357d CC3A0000 		.4byte	0x3acc
 11808 3581 95350000 		.4byte	0x3595
 11809 3585 38       		.uleb128 0x38
 11810 3586 01       		.uleb128 0x1
 11811 3587 50       		.byte	0x50
 11812 3588 02       		.uleb128 0x2
 11813 3589 74       		.byte	0x74
 11814 358a 00       		.sleb128 0
 11815 358b 38       		.uleb128 0x38
 11816 358c 01       		.uleb128 0x1
 11817 358d 52       		.byte	0x52
 11818 358e 05       		.uleb128 0x5
 11819 358f 03       		.byte	0x3
 11820 3590 C0000000 		.4byte	.LC15
 11821 3594 00       		.byte	0
 11822 3595 37       		.uleb128 0x37
 11823 3596 68000000 		.4byte	.LVL667
 11824 359a CC3A0000 		.4byte	0x3acc
 11825 359e BB350000 		.4byte	0x35bb
 11826 35a2 38       		.uleb128 0x38
 11827 35a3 01       		.uleb128 0x1
 11828 35a4 50       		.byte	0x50
 11829 35a5 02       		.uleb128 0x2
 11830 35a6 74       		.byte	0x74
 11831 35a7 00       		.sleb128 0
 11832 35a8 38       		.uleb128 0x38
 11833 35a9 01       		.uleb128 0x1
 11834 35aa 52       		.byte	0x52
 11835 35ab 05       		.uleb128 0x5
 11836 35ac 03       		.byte	0x3
 11837 35ad C8000000 		.4byte	.LC16
 11838 35b1 38       		.uleb128 0x38
 11839 35b2 01       		.uleb128 0x1
 11840 35b3 53       		.byte	0x53
 11841 35b4 05       		.uleb128 0x5
ARM GAS  C:\Users\164\AppData\Local\Temp\cc3ssgoH.s 			page 248


 11842 35b5 03       		.byte	0x3
 11843 35b6 00000000 		.4byte	c_string_append
 11844 35ba 00       		.byte	0
 11845 35bb 37       		.uleb128 0x37
 11846 35bc 74000000 		.4byte	.LVL668
 11847 35c0 CC3A0000 		.4byte	0x3acc
 11848 35c4 E1350000 		.4byte	0x35e1
 11849 35c8 38       		.uleb128 0x38
 11850 35c9 01       		.uleb128 0x1
 11851 35ca 50       		.byte	0x50
 11852 35cb 02       		.uleb128 0x2
 11853 35cc 74       		.byte	0x74
 11854 35cd 00       		.sleb128 0
 11855 35ce 38       		.uleb128 0x38
 11856 35cf 01       		.uleb128 0x1
 11857 35d0 52       		.byte	0x52
 11858 35d1 05       		.uleb128 0x5
 11859 35d2 03       		.byte	0x3
 11860 35d3 CC000000 		.4byte	.LC17
 11861 35d7 38       		.uleb128 0x38
 11862 35d8 01       		.uleb128 0x1
 11863 35d9 53       		.byte	0x53
 11864 35da 05       		.uleb128 0x5
 11865 35db 03       		.byte	0x3
 11866 35dc 00000000 		.4byte	c_string_slice
 11867 35e0 00       		.byte	0
 11868 35e1 37       		.uleb128 0x37
 11869 35e2 80000000 		.4byte	.LVL669
 11870 35e6 CC3A0000 		.4byte	0x3acc
 11871 35ea 07360000 		.4byte	0x3607
 11872 35ee 38       		.uleb128 0x38
 11873 35ef 01       		.uleb128 0x1
 11874 35f0 50       		.byte	0x50
 11875 35f1 02       		.uleb128 0x2
 11876 35f2 74       		.byte	0x74
 11877 35f3 00       		.sleb128 0
 11878 35f4 38       		.uleb128 0x38
 11879 35f5 01       		.uleb128 0x1
 11880 35f6 52       		.byte	0x52
 11881 35f7 05       		.uleb128 0x5
 11882 35f8 03       		.byte	0x3
 11883 35f9 D0000000 		.4byte	.LC18
 11884 35fd 38       		.uleb128 0x38
 11885 35fe 01       		.uleb128 0x1
 11886 35ff 53       		.byte	0x53
 11887 3600 05       		.uleb128 0x5
 11888 3601 03       		.byte	0x3
 11889 3602 00000000 		.4byte	c_string_insert
 11890 3606 00       		.byte	0
 11891 3607 37       		.uleb128 0x37
 11892 3608 8C000000 		.4byte	.LVL670
 11893 360c CC3A0000 		.4byte	0x3acc
 11894 3610 2D360000 		.4byte	0x362d
 11895 3614 38       		.uleb128 0x38
 11896 3615 01       		.uleb128 0x1
 11897 3616 50       		.byte	0x50
 11898 3617 02       		.uleb128 0x2
ARM GAS  C:\Users\164\AppData\Local\Temp\cc3ssgoH.s 			page 249


 11899 3618 74       		.byte	0x74
 11900 3619 00       		.sleb128 0
 11901 361a 38       		.uleb128 0x38
 11902 361b 01       		.uleb128 0x1
 11903 361c 52       		.byte	0x52
 11904 361d 05       		.uleb128 0x5
 11905 361e 03       		.byte	0x3
 11906 361f D4000000 		.4byte	.LC19
 11907 3623 38       		.uleb128 0x38
 11908 3624 01       		.uleb128 0x1
 11909 3625 53       		.byte	0x53
 11910 3626 05       		.uleb128 0x5
 11911 3627 03       		.byte	0x3
 11912 3628 00000000 		.4byte	c_string_chomp
 11913 362c 00       		.byte	0
 11914 362d 37       		.uleb128 0x37
 11915 362e 98000000 		.4byte	.LVL671
 11916 3632 CC3A0000 		.4byte	0x3acc
 11917 3636 53360000 		.4byte	0x3653
 11918 363a 38       		.uleb128 0x38
 11919 363b 01       		.uleb128 0x1
 11920 363c 50       		.byte	0x50
 11921 363d 02       		.uleb128 0x2
 11922 363e 74       		.byte	0x74
 11923 363f 00       		.sleb128 0
 11924 3640 38       		.uleb128 0x38
 11925 3641 01       		.uleb128 0x1
 11926 3642 52       		.byte	0x52
 11927 3643 05       		.uleb128 0x5
 11928 3644 03       		.byte	0x3
 11929 3645 DC000000 		.4byte	.LC20
 11930 3649 38       		.uleb128 0x38
 11931 364a 01       		.uleb128 0x1
 11932 364b 53       		.byte	0x53
 11933 364c 05       		.uleb128 0x5
 11934 364d 03       		.byte	0x3
 11935 364e 00000000 		.4byte	c_string_chomp_self
 11936 3652 00       		.byte	0
 11937 3653 37       		.uleb128 0x37
 11938 3654 A4000000 		.4byte	.LVL672
 11939 3658 CC3A0000 		.4byte	0x3acc
 11940 365c 79360000 		.4byte	0x3679
 11941 3660 38       		.uleb128 0x38
 11942 3661 01       		.uleb128 0x1
 11943 3662 50       		.byte	0x50
 11944 3663 02       		.uleb128 0x2
 11945 3664 74       		.byte	0x74
 11946 3665 00       		.sleb128 0
 11947 3666 38       		.uleb128 0x38
 11948 3667 01       		.uleb128 0x1
 11949 3668 52       		.byte	0x52
 11950 3669 05       		.uleb128 0x5
 11951 366a 03       		.byte	0x3
 11952 366b E4000000 		.4byte	.LC21
 11953 366f 38       		.uleb128 0x38
 11954 3670 01       		.uleb128 0x1
 11955 3671 53       		.byte	0x53
ARM GAS  C:\Users\164\AppData\Local\Temp\cc3ssgoH.s 			page 250


 11956 3672 05       		.uleb128 0x5
 11957 3673 03       		.byte	0x3
 11958 3674 00000000 		.4byte	c_string_dup
 11959 3678 00       		.byte	0
 11960 3679 37       		.uleb128 0x37
 11961 367a B0000000 		.4byte	.LVL673
 11962 367e CC3A0000 		.4byte	0x3acc
 11963 3682 9F360000 		.4byte	0x369f
 11964 3686 38       		.uleb128 0x38
 11965 3687 01       		.uleb128 0x1
 11966 3688 50       		.byte	0x50
 11967 3689 02       		.uleb128 0x2
 11968 368a 74       		.byte	0x74
 11969 368b 00       		.sleb128 0
 11970 368c 38       		.uleb128 0x38
 11971 368d 01       		.uleb128 0x1
 11972 368e 52       		.byte	0x52
 11973 368f 05       		.uleb128 0x5
 11974 3690 03       		.byte	0x3
 11975 3691 E8000000 		.4byte	.LC22
 11976 3695 38       		.uleb128 0x38
 11977 3696 01       		.uleb128 0x1
 11978 3697 53       		.byte	0x53
 11979 3698 05       		.uleb128 0x5
 11980 3699 03       		.byte	0x3
 11981 369a 00000000 		.4byte	c_string_index
 11982 369e 00       		.byte	0
 11983 369f 37       		.uleb128 0x37
 11984 36a0 BC000000 		.4byte	.LVL674
 11985 36a4 CC3A0000 		.4byte	0x3acc
 11986 36a8 C5360000 		.4byte	0x36c5
 11987 36ac 38       		.uleb128 0x38
 11988 36ad 01       		.uleb128 0x1
 11989 36ae 50       		.byte	0x50
 11990 36af 02       		.uleb128 0x2
 11991 36b0 74       		.byte	0x74
 11992 36b1 00       		.sleb128 0
 11993 36b2 38       		.uleb128 0x38
 11994 36b3 01       		.uleb128 0x1
 11995 36b4 52       		.byte	0x52
 11996 36b5 05       		.uleb128 0x5
 11997 36b6 03       		.byte	0x3
 11998 36b7 F0000000 		.4byte	.LC23
 11999 36bb 38       		.uleb128 0x38
 12000 36bc 01       		.uleb128 0x1
 12001 36bd 53       		.byte	0x53
 12002 36be 05       		.uleb128 0x5
 12003 36bf 03       		.byte	0x3
 12004 36c0 00000000 		.4byte	c_string_inspect
 12005 36c4 00       		.byte	0
 12006 36c5 37       		.uleb128 0x37
 12007 36c6 C8000000 		.4byte	.LVL675
 12008 36ca CC3A0000 		.4byte	0x3acc
 12009 36ce EB360000 		.4byte	0x36eb
 12010 36d2 38       		.uleb128 0x38
 12011 36d3 01       		.uleb128 0x1
 12012 36d4 50       		.byte	0x50
ARM GAS  C:\Users\164\AppData\Local\Temp\cc3ssgoH.s 			page 251


 12013 36d5 02       		.uleb128 0x2
 12014 36d6 74       		.byte	0x74
 12015 36d7 00       		.sleb128 0
 12016 36d8 38       		.uleb128 0x38
 12017 36d9 01       		.uleb128 0x1
 12018 36da 52       		.byte	0x52
 12019 36db 05       		.uleb128 0x5
 12020 36dc 03       		.byte	0x3
 12021 36dd F8000000 		.4byte	.LC24
 12022 36e1 38       		.uleb128 0x38
 12023 36e2 01       		.uleb128 0x1
 12024 36e3 53       		.byte	0x53
 12025 36e4 05       		.uleb128 0x5
 12026 36e5 03       		.byte	0x3
 12027 36e6 00000000 		.4byte	c_string_ord
 12028 36ea 00       		.byte	0
 12029 36eb 37       		.uleb128 0x37
 12030 36ec D4000000 		.4byte	.LVL676
 12031 36f0 CC3A0000 		.4byte	0x3acc
 12032 36f4 11370000 		.4byte	0x3711
 12033 36f8 38       		.uleb128 0x38
 12034 36f9 01       		.uleb128 0x1
 12035 36fa 50       		.byte	0x50
 12036 36fb 02       		.uleb128 0x2
 12037 36fc 74       		.byte	0x74
 12038 36fd 00       		.sleb128 0
 12039 36fe 38       		.uleb128 0x38
 12040 36ff 01       		.uleb128 0x1
 12041 3700 52       		.byte	0x52
 12042 3701 05       		.uleb128 0x5
 12043 3702 03       		.byte	0x3
 12044 3703 FC000000 		.4byte	.LC25
 12045 3707 38       		.uleb128 0x38
 12046 3708 01       		.uleb128 0x1
 12047 3709 53       		.byte	0x53
 12048 370a 05       		.uleb128 0x5
 12049 370b 03       		.byte	0x3
 12050 370c 00000000 		.4byte	c_string_split
 12051 3710 00       		.byte	0
 12052 3711 37       		.uleb128 0x37
 12053 3712 E0000000 		.4byte	.LVL677
 12054 3716 CC3A0000 		.4byte	0x3acc
 12055 371a 37370000 		.4byte	0x3737
 12056 371e 38       		.uleb128 0x38
 12057 371f 01       		.uleb128 0x1
 12058 3720 50       		.byte	0x50
 12059 3721 02       		.uleb128 0x2
 12060 3722 74       		.byte	0x74
 12061 3723 00       		.sleb128 0
 12062 3724 38       		.uleb128 0x38
 12063 3725 01       		.uleb128 0x1
 12064 3726 52       		.byte	0x52
 12065 3727 05       		.uleb128 0x5
 12066 3728 03       		.byte	0x3
 12067 3729 04010000 		.4byte	.LC26
 12068 372d 38       		.uleb128 0x38
 12069 372e 01       		.uleb128 0x1
ARM GAS  C:\Users\164\AppData\Local\Temp\cc3ssgoH.s 			page 252


 12070 372f 53       		.byte	0x53
 12071 3730 05       		.uleb128 0x5
 12072 3731 03       		.byte	0x3
 12073 3732 00000000 		.4byte	c_string_lstrip
 12074 3736 00       		.byte	0
 12075 3737 37       		.uleb128 0x37
 12076 3738 EC000000 		.4byte	.LVL678
 12077 373c CC3A0000 		.4byte	0x3acc
 12078 3740 5D370000 		.4byte	0x375d
 12079 3744 38       		.uleb128 0x38
 12080 3745 01       		.uleb128 0x1
 12081 3746 50       		.byte	0x50
 12082 3747 02       		.uleb128 0x2
 12083 3748 74       		.byte	0x74
 12084 3749 00       		.sleb128 0
 12085 374a 38       		.uleb128 0x38
 12086 374b 01       		.uleb128 0x1
 12087 374c 52       		.byte	0x52
 12088 374d 05       		.uleb128 0x5
 12089 374e 03       		.byte	0x3
 12090 374f 0C010000 		.4byte	.LC27
 12091 3753 38       		.uleb128 0x38
 12092 3754 01       		.uleb128 0x1
 12093 3755 53       		.byte	0x53
 12094 3756 05       		.uleb128 0x5
 12095 3757 03       		.byte	0x3
 12096 3758 00000000 		.4byte	c_string_lstrip_self
 12097 375c 00       		.byte	0
 12098 375d 37       		.uleb128 0x37
 12099 375e F8000000 		.4byte	.LVL679
 12100 3762 CC3A0000 		.4byte	0x3acc
 12101 3766 83370000 		.4byte	0x3783
 12102 376a 38       		.uleb128 0x38
 12103 376b 01       		.uleb128 0x1
 12104 376c 50       		.byte	0x50
 12105 376d 02       		.uleb128 0x2
 12106 376e 74       		.byte	0x74
 12107 376f 00       		.sleb128 0
 12108 3770 38       		.uleb128 0x38
 12109 3771 01       		.uleb128 0x1
 12110 3772 52       		.byte	0x52
 12111 3773 05       		.uleb128 0x5
 12112 3774 03       		.byte	0x3
 12113 3775 14010000 		.4byte	.LC28
 12114 3779 38       		.uleb128 0x38
 12115 377a 01       		.uleb128 0x1
 12116 377b 53       		.byte	0x53
 12117 377c 05       		.uleb128 0x5
 12118 377d 03       		.byte	0x3
 12119 377e 00000000 		.4byte	c_string_rstrip
 12120 3782 00       		.byte	0
 12121 3783 37       		.uleb128 0x37
 12122 3784 04010000 		.4byte	.LVL680
 12123 3788 CC3A0000 		.4byte	0x3acc
 12124 378c A9370000 		.4byte	0x37a9
 12125 3790 38       		.uleb128 0x38
 12126 3791 01       		.uleb128 0x1
ARM GAS  C:\Users\164\AppData\Local\Temp\cc3ssgoH.s 			page 253


 12127 3792 50       		.byte	0x50
 12128 3793 02       		.uleb128 0x2
 12129 3794 74       		.byte	0x74
 12130 3795 00       		.sleb128 0
 12131 3796 38       		.uleb128 0x38
 12132 3797 01       		.uleb128 0x1
 12133 3798 52       		.byte	0x52
 12134 3799 05       		.uleb128 0x5
 12135 379a 03       		.byte	0x3
 12136 379b 1C010000 		.4byte	.LC29
 12137 379f 38       		.uleb128 0x38
 12138 37a0 01       		.uleb128 0x1
 12139 37a1 53       		.byte	0x53
 12140 37a2 05       		.uleb128 0x5
 12141 37a3 03       		.byte	0x3
 12142 37a4 00000000 		.4byte	c_string_rstrip_self
 12143 37a8 00       		.byte	0
 12144 37a9 37       		.uleb128 0x37
 12145 37aa 10010000 		.4byte	.LVL681
 12146 37ae CC3A0000 		.4byte	0x3acc
 12147 37b2 CF370000 		.4byte	0x37cf
 12148 37b6 38       		.uleb128 0x38
 12149 37b7 01       		.uleb128 0x1
 12150 37b8 50       		.byte	0x50
 12151 37b9 02       		.uleb128 0x2
 12152 37ba 74       		.byte	0x74
 12153 37bb 00       		.sleb128 0
 12154 37bc 38       		.uleb128 0x38
 12155 37bd 01       		.uleb128 0x1
 12156 37be 52       		.byte	0x52
 12157 37bf 05       		.uleb128 0x5
 12158 37c0 03       		.byte	0x3
 12159 37c1 24010000 		.4byte	.LC30
 12160 37c5 38       		.uleb128 0x38
 12161 37c6 01       		.uleb128 0x1
 12162 37c7 53       		.byte	0x53
 12163 37c8 05       		.uleb128 0x5
 12164 37c9 03       		.byte	0x3
 12165 37ca 00000000 		.4byte	c_string_strip
 12166 37ce 00       		.byte	0
 12167 37cf 37       		.uleb128 0x37
 12168 37d0 1C010000 		.4byte	.LVL682
 12169 37d4 CC3A0000 		.4byte	0x3acc
 12170 37d8 F5370000 		.4byte	0x37f5
 12171 37dc 38       		.uleb128 0x38
 12172 37dd 01       		.uleb128 0x1
 12173 37de 50       		.byte	0x50
 12174 37df 02       		.uleb128 0x2
 12175 37e0 74       		.byte	0x74
 12176 37e1 00       		.sleb128 0
 12177 37e2 38       		.uleb128 0x38
 12178 37e3 01       		.uleb128 0x1
 12179 37e4 52       		.byte	0x52
 12180 37e5 05       		.uleb128 0x5
 12181 37e6 03       		.byte	0x3
 12182 37e7 2C010000 		.4byte	.LC31
 12183 37eb 38       		.uleb128 0x38
ARM GAS  C:\Users\164\AppData\Local\Temp\cc3ssgoH.s 			page 254


 12184 37ec 01       		.uleb128 0x1
 12185 37ed 53       		.byte	0x53
 12186 37ee 05       		.uleb128 0x5
 12187 37ef 03       		.byte	0x3
 12188 37f0 00000000 		.4byte	c_string_strip_self
 12189 37f4 00       		.byte	0
 12190 37f5 37       		.uleb128 0x37
 12191 37f6 2A010000 		.4byte	.LVL683
 12192 37fa CC3A0000 		.4byte	0x3acc
 12193 37fe 18380000 		.4byte	0x3818
 12194 3802 38       		.uleb128 0x38
 12195 3803 01       		.uleb128 0x1
 12196 3804 50       		.byte	0x50
 12197 3805 02       		.uleb128 0x2
 12198 3806 74       		.byte	0x74
 12199 3807 00       		.sleb128 0
 12200 3808 38       		.uleb128 0x38
 12201 3809 01       		.uleb128 0x1
 12202 380a 52       		.byte	0x52
 12203 380b 05       		.uleb128 0x5
 12204 380c 03       		.byte	0x3
 12205 380d 34010000 		.4byte	.LC32
 12206 3811 38       		.uleb128 0x38
 12207 3812 01       		.uleb128 0x1
 12208 3813 53       		.byte	0x53
 12209 3814 02       		.uleb128 0x2
 12210 3815 77       		.byte	0x77
 12211 3816 00       		.sleb128 0
 12212 3817 00       		.byte	0
 12213 3818 37       		.uleb128 0x37
 12214 3819 36010000 		.4byte	.LVL684
 12215 381d CC3A0000 		.4byte	0x3acc
 12216 3821 3B380000 		.4byte	0x383b
 12217 3825 38       		.uleb128 0x38
 12218 3826 01       		.uleb128 0x1
 12219 3827 50       		.byte	0x50
 12220 3828 02       		.uleb128 0x2
 12221 3829 74       		.byte	0x74
 12222 382a 00       		.sleb128 0
 12223 382b 38       		.uleb128 0x38
 12224 382c 01       		.uleb128 0x1
 12225 382d 52       		.byte	0x52
 12226 382e 05       		.uleb128 0x5
 12227 382f 03       		.byte	0x3
 12228 3830 3C010000 		.4byte	.LC33
 12229 3834 38       		.uleb128 0x38
 12230 3835 01       		.uleb128 0x1
 12231 3836 53       		.byte	0x53
 12232 3837 02       		.uleb128 0x2
 12233 3838 77       		.byte	0x77
 12234 3839 00       		.sleb128 0
 12235 383a 00       		.byte	0
 12236 383b 37       		.uleb128 0x37
 12237 383c 42010000 		.4byte	.LVL685
 12238 3840 CC3A0000 		.4byte	0x3acc
 12239 3844 61380000 		.4byte	0x3861
 12240 3848 38       		.uleb128 0x38
ARM GAS  C:\Users\164\AppData\Local\Temp\cc3ssgoH.s 			page 255


 12241 3849 01       		.uleb128 0x1
 12242 384a 50       		.byte	0x50
 12243 384b 02       		.uleb128 0x2
 12244 384c 74       		.byte	0x74
 12245 384d 00       		.sleb128 0
 12246 384e 38       		.uleb128 0x38
 12247 384f 01       		.uleb128 0x1
 12248 3850 52       		.byte	0x52
 12249 3851 05       		.uleb128 0x5
 12250 3852 03       		.byte	0x3
 12251 3853 44010000 		.4byte	.LC34
 12252 3857 38       		.uleb128 0x38
 12253 3858 01       		.uleb128 0x1
 12254 3859 53       		.byte	0x53
 12255 385a 05       		.uleb128 0x5
 12256 385b 03       		.byte	0x3
 12257 385c 00000000 		.4byte	c_string_tr
 12258 3860 00       		.byte	0
 12259 3861 37       		.uleb128 0x37
 12260 3862 4E010000 		.4byte	.LVL686
 12261 3866 CC3A0000 		.4byte	0x3acc
 12262 386a 87380000 		.4byte	0x3887
 12263 386e 38       		.uleb128 0x38
 12264 386f 01       		.uleb128 0x1
 12265 3870 50       		.byte	0x50
 12266 3871 02       		.uleb128 0x2
 12267 3872 74       		.byte	0x74
 12268 3873 00       		.sleb128 0
 12269 3874 38       		.uleb128 0x38
 12270 3875 01       		.uleb128 0x1
 12271 3876 52       		.byte	0x52
 12272 3877 05       		.uleb128 0x5
 12273 3878 03       		.byte	0x3
 12274 3879 48010000 		.4byte	.LC35
 12275 387d 38       		.uleb128 0x38
 12276 387e 01       		.uleb128 0x1
 12277 387f 53       		.byte	0x53
 12278 3880 05       		.uleb128 0x5
 12279 3881 03       		.byte	0x3
 12280 3882 00000000 		.4byte	c_string_tr_self
 12281 3886 00       		.byte	0
 12282 3887 37       		.uleb128 0x37
 12283 3888 5A010000 		.4byte	.LVL687
 12284 388c CC3A0000 		.4byte	0x3acc
 12285 3890 AD380000 		.4byte	0x38ad
 12286 3894 38       		.uleb128 0x38
 12287 3895 01       		.uleb128 0x1
 12288 3896 50       		.byte	0x50
 12289 3897 02       		.uleb128 0x2
 12290 3898 74       		.byte	0x74
 12291 3899 00       		.sleb128 0
 12292 389a 38       		.uleb128 0x38
 12293 389b 01       		.uleb128 0x1
 12294 389c 52       		.byte	0x52
 12295 389d 05       		.uleb128 0x5
 12296 389e 03       		.byte	0x3
 12297 389f 4C010000 		.4byte	.LC36
ARM GAS  C:\Users\164\AppData\Local\Temp\cc3ssgoH.s 			page 256


 12298 38a3 38       		.uleb128 0x38
 12299 38a4 01       		.uleb128 0x1
 12300 38a5 53       		.byte	0x53
 12301 38a6 05       		.uleb128 0x5
 12302 38a7 03       		.byte	0x3
 12303 38a8 00000000 		.4byte	c_string_start_with
 12304 38ac 00       		.byte	0
 12305 38ad 37       		.uleb128 0x37
 12306 38ae 66010000 		.4byte	.LVL688
 12307 38b2 CC3A0000 		.4byte	0x3acc
 12308 38b6 D3380000 		.4byte	0x38d3
 12309 38ba 38       		.uleb128 0x38
 12310 38bb 01       		.uleb128 0x1
 12311 38bc 50       		.byte	0x50
 12312 38bd 02       		.uleb128 0x2
 12313 38be 74       		.byte	0x74
 12314 38bf 00       		.sleb128 0
 12315 38c0 38       		.uleb128 0x38
 12316 38c1 01       		.uleb128 0x1
 12317 38c2 52       		.byte	0x52
 12318 38c3 05       		.uleb128 0x5
 12319 38c4 03       		.byte	0x3
 12320 38c5 58010000 		.4byte	.LC37
 12321 38c9 38       		.uleb128 0x38
 12322 38ca 01       		.uleb128 0x1
 12323 38cb 53       		.byte	0x53
 12324 38cc 05       		.uleb128 0x5
 12325 38cd 03       		.byte	0x3
 12326 38ce 00000000 		.4byte	c_string_end_with
 12327 38d2 00       		.byte	0
 12328 38d3 37       		.uleb128 0x37
 12329 38d4 72010000 		.4byte	.LVL689
 12330 38d8 CC3A0000 		.4byte	0x3acc
 12331 38dc F9380000 		.4byte	0x38f9
 12332 38e0 38       		.uleb128 0x38
 12333 38e1 01       		.uleb128 0x1
 12334 38e2 50       		.byte	0x50
 12335 38e3 02       		.uleb128 0x2
 12336 38e4 74       		.byte	0x74
 12337 38e5 00       		.sleb128 0
 12338 38e6 38       		.uleb128 0x38
 12339 38e7 01       		.uleb128 0x1
 12340 38e8 52       		.byte	0x52
 12341 38e9 05       		.uleb128 0x5
 12342 38ea 03       		.byte	0x3
 12343 38eb 64010000 		.4byte	.LC38
 12344 38ef 38       		.uleb128 0x38
 12345 38f0 01       		.uleb128 0x1
 12346 38f1 53       		.byte	0x53
 12347 38f2 05       		.uleb128 0x5
 12348 38f3 03       		.byte	0x3
 12349 38f4 00000000 		.4byte	c_string_include
 12350 38f8 00       		.byte	0
 12351 38f9 37       		.uleb128 0x37
 12352 38fa 7E010000 		.4byte	.LVL690
 12353 38fe CC3A0000 		.4byte	0x3acc
 12354 3902 1F390000 		.4byte	0x391f
ARM GAS  C:\Users\164\AppData\Local\Temp\cc3ssgoH.s 			page 257


 12355 3906 38       		.uleb128 0x38
 12356 3907 01       		.uleb128 0x1
 12357 3908 50       		.byte	0x50
 12358 3909 02       		.uleb128 0x2
 12359 390a 74       		.byte	0x74
 12360 390b 00       		.sleb128 0
 12361 390c 38       		.uleb128 0x38
 12362 390d 01       		.uleb128 0x1
 12363 390e 52       		.byte	0x52
 12364 390f 05       		.uleb128 0x5
 12365 3910 03       		.byte	0x3
 12366 3911 70010000 		.4byte	.LC39
 12367 3915 38       		.uleb128 0x38
 12368 3916 01       		.uleb128 0x1
 12369 3917 53       		.byte	0x53
 12370 3918 05       		.uleb128 0x5
 12371 3919 03       		.byte	0x3
 12372 391a 00000000 		.4byte	c_string_to_f
 12373 391e 00       		.byte	0
 12374 391f 37       		.uleb128 0x37
 12375 3920 8A010000 		.4byte	.LVL691
 12376 3924 CC3A0000 		.4byte	0x3acc
 12377 3928 45390000 		.4byte	0x3945
 12378 392c 38       		.uleb128 0x38
 12379 392d 01       		.uleb128 0x1
 12380 392e 50       		.byte	0x50
 12381 392f 02       		.uleb128 0x2
 12382 3930 74       		.byte	0x74
 12383 3931 00       		.sleb128 0
 12384 3932 38       		.uleb128 0x38
 12385 3933 01       		.uleb128 0x1
 12386 3934 52       		.byte	0x52
 12387 3935 05       		.uleb128 0x5
 12388 3936 03       		.byte	0x3
 12389 3937 78010000 		.4byte	.LC40
 12390 393b 38       		.uleb128 0x38
 12391 393c 01       		.uleb128 0x1
 12392 393d 53       		.byte	0x53
 12393 393e 05       		.uleb128 0x5
 12394 393f 03       		.byte	0x3
 12395 3940 00000000 		.4byte	c_object_sprintf
 12396 3944 00       		.byte	0
 12397 3945 39       		.uleb128 0x39
 12398 3946 96010000 		.4byte	.LVL692
 12399 394a CC3A0000 		.4byte	0x3acc
 12400 394e 38       		.uleb128 0x38
 12401 394f 01       		.uleb128 0x1
 12402 3950 50       		.byte	0x50
 12403 3951 02       		.uleb128 0x2
 12404 3952 74       		.byte	0x74
 12405 3953 00       		.sleb128 0
 12406 3954 38       		.uleb128 0x38
 12407 3955 01       		.uleb128 0x1
 12408 3956 52       		.byte	0x52
 12409 3957 05       		.uleb128 0x5
 12410 3958 03       		.byte	0x3
 12411 3959 80010000 		.4byte	.LC41
ARM GAS  C:\Users\164\AppData\Local\Temp\cc3ssgoH.s 			page 258


 12412 395d 38       		.uleb128 0x38
 12413 395e 01       		.uleb128 0x1
 12414 395f 53       		.byte	0x53
 12415 3960 05       		.uleb128 0x5
 12416 3961 03       		.byte	0x3
 12417 3962 00000000 		.4byte	c_object_printf
 12418 3966 00       		.byte	0
 12419 3967 00       		.byte	0
 12420 3968 48       		.uleb128 0x48
 12421 3969 CC030000 		.4byte	.LASF221
 12422 396d 0A       		.byte	0xa
 12423 396e 1A       		.byte	0x1a
 12424 396f 77060000 		.4byte	0x677
 12425 3973 48       		.uleb128 0x48
 12426 3974 61060000 		.4byte	.LASF222
 12427 3978 0A       		.byte	0xa
 12428 3979 24       		.byte	0x24
 12429 397a 77060000 		.4byte	0x677
 12430 397e 49       		.uleb128 0x49
 12431 397f F1060000 		.4byte	.LASF223
 12432 3983 0B       		.byte	0xb
 12433 3984 1207     		.2byte	0x712
 12434 3986 8A390000 		.4byte	0x398a
 12435 398a 1D       		.uleb128 0x1d
 12436 398b FD000000 		.4byte	0xfd
 12437 398f 4A       		.uleb128 0x4a
 12438 3990 CD010000 		.4byte	.LASF224
 12439 3994 CD010000 		.4byte	.LASF224
 12440 3998 0C       		.byte	0xc
 12441 3999 1B       		.byte	0x1b
 12442 399a 4A       		.uleb128 0x4a
 12443 399b 64070000 		.4byte	.LASF225
 12444 399f 64070000 		.4byte	.LASF225
 12445 39a3 0C       		.byte	0xc
 12446 39a4 1D       		.byte	0x1d
 12447 39a5 4B       		.uleb128 0x4b
 12448 39a6 4D0B0000 		.4byte	.LASF256
 12449 39aa 4D0B0000 		.4byte	.LASF256
 12450 39ae 4A       		.uleb128 0x4a
 12451 39af C9090000 		.4byte	.LASF226
 12452 39b3 C9090000 		.4byte	.LASF226
 12453 39b7 08       		.byte	0x8
 12454 39b8 D7       		.byte	0xd7
 12455 39b9 4A       		.uleb128 0x4a
 12456 39ba 81010000 		.4byte	.LASF227
 12457 39be 81010000 		.4byte	.LASF227
 12458 39c2 0D       		.byte	0xd
 12459 39c3 49       		.byte	0x49
 12460 39c4 4A       		.uleb128 0x4a
 12461 39c5 9C050000 		.4byte	.LASF228
 12462 39c9 9C050000 		.4byte	.LASF228
 12463 39cd 04       		.byte	0x4
 12464 39ce 18       		.byte	0x18
 12465 39cf 4A       		.uleb128 0x4a
 12466 39d0 D5080000 		.4byte	.LASF229
 12467 39d4 D5080000 		.4byte	.LASF229
 12468 39d8 08       		.byte	0x8
ARM GAS  C:\Users\164\AppData\Local\Temp\cc3ssgoH.s 			page 259


 12469 39d9 D9       		.byte	0xd9
 12470 39da 4A       		.uleb128 0x4a
 12471 39db 400C0000 		.4byte	.LASF230
 12472 39df 400C0000 		.4byte	.LASF230
 12473 39e3 0E       		.byte	0xe
 12474 39e4 31       		.byte	0x31
 12475 39e5 4A       		.uleb128 0x4a
 12476 39e6 DE090000 		.4byte	.LASF231
 12477 39ea DE090000 		.4byte	.LASF231
 12478 39ee 0F       		.byte	0xf
 12479 39ef 16       		.byte	0x16
 12480 39f0 4A       		.uleb128 0x4a
 12481 39f1 FE060000 		.4byte	.LASF232
 12482 39f5 FE060000 		.4byte	.LASF232
 12483 39f9 0F       		.byte	0xf
 12484 39fa 18       		.byte	0x18
 12485 39fb 4A       		.uleb128 0x4a
 12486 39fc 54080000 		.4byte	.LASF233
 12487 3a00 54080000 		.4byte	.LASF233
 12488 3a04 0C       		.byte	0xc
 12489 3a05 1E       		.byte	0x1e
 12490 3a06 4A       		.uleb128 0x4a
 12491 3a07 5D050000 		.4byte	.LASF234
 12492 3a0b 5D050000 		.4byte	.LASF234
 12493 3a0f 03       		.byte	0x3
 12494 3a10 30       		.byte	0x30
 12495 3a11 4A       		.uleb128 0x4a
 12496 3a12 360B0000 		.4byte	.LASF235
 12497 3a16 360B0000 		.4byte	.LASF235
 12498 3a1a 0F       		.byte	0xf
 12499 3a1b 21       		.byte	0x21
 12500 3a1c 4A       		.uleb128 0x4a
 12501 3a1d 94060000 		.4byte	.LASF236
 12502 3a21 94060000 		.4byte	.LASF236
 12503 3a25 04       		.byte	0x4
 12504 3a26 1B       		.byte	0x1b
 12505 3a27 4A       		.uleb128 0x4a
 12506 3a28 4C030000 		.4byte	.LASF237
 12507 3a2c 4C030000 		.4byte	.LASF237
 12508 3a30 03       		.byte	0x3
 12509 3a31 33       		.byte	0x33
 12510 3a32 4A       		.uleb128 0x4a
 12511 3a33 1C010000 		.4byte	.LASF238
 12512 3a37 1C010000 		.4byte	.LASF238
 12513 3a3b 0D       		.byte	0xd
 12514 3a3c 4F       		.byte	0x4f
 12515 3a3d 4A       		.uleb128 0x4a
 12516 3a3e 46050000 		.4byte	.LASF239
 12517 3a42 46050000 		.4byte	.LASF239
 12518 3a46 03       		.byte	0x3
 12519 3a47 34       		.byte	0x34
 12520 3a48 4A       		.uleb128 0x4a
 12521 3a49 2E0A0000 		.4byte	.LASF240
 12522 3a4d 2E0A0000 		.4byte	.LASF240
 12523 3a51 03       		.byte	0x3
 12524 3a52 31       		.byte	0x31
 12525 3a53 4A       		.uleb128 0x4a
ARM GAS  C:\Users\164\AppData\Local\Temp\cc3ssgoH.s 			page 260


 12526 3a54 930B0000 		.4byte	.LASF241
 12527 3a58 930B0000 		.4byte	.LASF241
 12528 3a5c 03       		.byte	0x3
 12529 3a5d 32       		.byte	0x32
 12530 3a5e 4A       		.uleb128 0x4a
 12531 3a5f 9B090000 		.4byte	.LASF242
 12532 3a63 9B090000 		.4byte	.LASF242
 12533 3a67 03       		.byte	0x3
 12534 3a68 35       		.byte	0x35
 12535 3a69 4A       		.uleb128 0x4a
 12536 3a6a 9A0A0000 		.4byte	.LASF243
 12537 3a6e 9A0A0000 		.4byte	.LASF243
 12538 3a72 03       		.byte	0x3
 12539 3a73 36       		.byte	0x36
 12540 3a74 4A       		.uleb128 0x4a
 12541 3a75 F5070000 		.4byte	.LASF244
 12542 3a79 F5070000 		.4byte	.LASF244
 12543 3a7d 0C       		.byte	0xc
 12544 3a7e 21       		.byte	0x21
 12545 3a7f 4A       		.uleb128 0x4a
 12546 3a80 BB030000 		.4byte	.LASF245
 12547 3a84 BB030000 		.4byte	.LASF245
 12548 3a88 0C       		.byte	0xc
 12549 3a89 1C       		.byte	0x1c
 12550 3a8a 4A       		.uleb128 0x4a
 12551 3a8b 3F0A0000 		.4byte	.LASF246
 12552 3a8f 3F0A0000 		.4byte	.LASF246
 12553 3a93 05       		.byte	0x5
 12554 3a94 2B       		.byte	0x2b
 12555 3a95 4A       		.uleb128 0x4a
 12556 3a96 D5040000 		.4byte	.LASF247
 12557 3a9a D5040000 		.4byte	.LASF247
 12558 3a9e 05       		.byte	0x5
 12559 3a9f 2A       		.byte	0x2a
 12560 3aa0 4A       		.uleb128 0x4a
 12561 3aa1 3A030000 		.4byte	.LASF248
 12562 3aa5 3A030000 		.4byte	.LASF248
 12563 3aa9 05       		.byte	0x5
 12564 3aaa 30       		.byte	0x30
 12565 3aab 4A       		.uleb128 0x4a
 12566 3aac 8E000000 		.4byte	.LASF249
 12567 3ab0 8E000000 		.4byte	.LASF249
 12568 3ab4 05       		.byte	0x5
 12569 3ab5 25       		.byte	0x25
 12570 3ab6 4A       		.uleb128 0x4a
 12571 3ab7 CB0B0000 		.4byte	.LASF250
 12572 3abb CB0B0000 		.4byte	.LASF250
 12573 3abf 08       		.byte	0x8
 12574 3ac0 D5       		.byte	0xd5
 12575 3ac1 4A       		.uleb128 0x4a
 12576 3ac2 A10C0000 		.4byte	.LASF251
 12577 3ac6 A10C0000 		.4byte	.LASF251
 12578 3aca 10       		.byte	0x10
 12579 3acb 1C       		.byte	0x1c
 12580 3acc 4A       		.uleb128 0x4a
 12581 3acd BE000000 		.4byte	.LASF252
 12582 3ad1 BE000000 		.4byte	.LASF252
ARM GAS  C:\Users\164\AppData\Local\Temp\cc3ssgoH.s 			page 261


 12583 3ad5 10       		.byte	0x10
 12584 3ad6 1E       		.byte	0x1e
 12585 3ad7 00       		.byte	0
 12586              		.section	.debug_abbrev,"",%progbits
 12587              	.Ldebug_abbrev0:
 12588 0000 01       		.uleb128 0x1
 12589 0001 11       		.uleb128 0x11
 12590 0002 01       		.byte	0x1
 12591 0003 25       		.uleb128 0x25
 12592 0004 0E       		.uleb128 0xe
 12593 0005 13       		.uleb128 0x13
 12594 0006 0B       		.uleb128 0xb
 12595 0007 03       		.uleb128 0x3
 12596 0008 0E       		.uleb128 0xe
 12597 0009 1B       		.uleb128 0x1b
 12598 000a 0E       		.uleb128 0xe
 12599 000b 55       		.uleb128 0x55
 12600 000c 17       		.uleb128 0x17
 12601 000d 11       		.uleb128 0x11
 12602 000e 01       		.uleb128 0x1
 12603 000f 10       		.uleb128 0x10
 12604 0010 17       		.uleb128 0x17
 12605 0011 00       		.byte	0
 12606 0012 00       		.byte	0
 12607 0013 02       		.uleb128 0x2
 12608 0014 24       		.uleb128 0x24
 12609 0015 00       		.byte	0
 12610 0016 0B       		.uleb128 0xb
 12611 0017 0B       		.uleb128 0xb
 12612 0018 3E       		.uleb128 0x3e
 12613 0019 0B       		.uleb128 0xb
 12614 001a 03       		.uleb128 0x3
 12615 001b 0E       		.uleb128 0xe
 12616 001c 00       		.byte	0
 12617 001d 00       		.byte	0
 12618 001e 03       		.uleb128 0x3
 12619 001f 24       		.uleb128 0x24
 12620 0020 00       		.byte	0
 12621 0021 0B       		.uleb128 0xb
 12622 0022 0B       		.uleb128 0xb
 12623 0023 3E       		.uleb128 0x3e
 12624 0024 0B       		.uleb128 0xb
 12625 0025 03       		.uleb128 0x3
 12626 0026 08       		.uleb128 0x8
 12627 0027 00       		.byte	0
 12628 0028 00       		.byte	0
 12629 0029 04       		.uleb128 0x4
 12630 002a 16       		.uleb128 0x16
 12631 002b 00       		.byte	0
 12632 002c 03       		.uleb128 0x3
 12633 002d 0E       		.uleb128 0xe
 12634 002e 3A       		.uleb128 0x3a
 12635 002f 0B       		.uleb128 0xb
 12636 0030 3B       		.uleb128 0x3b
 12637 0031 0B       		.uleb128 0xb
 12638 0032 49       		.uleb128 0x49
 12639 0033 13       		.uleb128 0x13
ARM GAS  C:\Users\164\AppData\Local\Temp\cc3ssgoH.s 			page 262


 12640 0034 00       		.byte	0
 12641 0035 00       		.byte	0
 12642 0036 05       		.uleb128 0x5
 12643 0037 0F       		.uleb128 0xf
 12644 0038 00       		.byte	0
 12645 0039 0B       		.uleb128 0xb
 12646 003a 0B       		.uleb128 0xb
 12647 003b 00       		.byte	0
 12648 003c 00       		.byte	0
 12649 003d 06       		.uleb128 0x6
 12650 003e 0F       		.uleb128 0xf
 12651 003f 00       		.byte	0
 12652 0040 0B       		.uleb128 0xb
 12653 0041 0B       		.uleb128 0xb
 12654 0042 49       		.uleb128 0x49
 12655 0043 13       		.uleb128 0x13
 12656 0044 00       		.byte	0
 12657 0045 00       		.byte	0
 12658 0046 07       		.uleb128 0x7
 12659 0047 26       		.uleb128 0x26
 12660 0048 00       		.byte	0
 12661 0049 49       		.uleb128 0x49
 12662 004a 13       		.uleb128 0x13
 12663 004b 00       		.byte	0
 12664 004c 00       		.byte	0
 12665 004d 08       		.uleb128 0x8
 12666 004e 26       		.uleb128 0x26
 12667 004f 00       		.byte	0
 12668 0050 00       		.byte	0
 12669 0051 00       		.byte	0
 12670 0052 09       		.uleb128 0x9
 12671 0053 15       		.uleb128 0x15
 12672 0054 01       		.byte	0x1
 12673 0055 27       		.uleb128 0x27
 12674 0056 19       		.uleb128 0x19
 12675 0057 01       		.uleb128 0x1
 12676 0058 13       		.uleb128 0x13
 12677 0059 00       		.byte	0
 12678 005a 00       		.byte	0
 12679 005b 0A       		.uleb128 0xa
 12680 005c 05       		.uleb128 0x5
 12681 005d 00       		.byte	0
 12682 005e 49       		.uleb128 0x49
 12683 005f 13       		.uleb128 0x13
 12684 0060 00       		.byte	0
 12685 0061 00       		.byte	0
 12686 0062 0B       		.uleb128 0xb
 12687 0063 13       		.uleb128 0x13
 12688 0064 01       		.byte	0x1
 12689 0065 03       		.uleb128 0x3
 12690 0066 08       		.uleb128 0x8
 12691 0067 0B       		.uleb128 0xb
 12692 0068 05       		.uleb128 0x5
 12693 0069 3A       		.uleb128 0x3a
 12694 006a 0B       		.uleb128 0xb
 12695 006b 3B       		.uleb128 0x3b
 12696 006c 0B       		.uleb128 0xb
ARM GAS  C:\Users\164\AppData\Local\Temp\cc3ssgoH.s 			page 263


 12697 006d 01       		.uleb128 0x1
 12698 006e 13       		.uleb128 0x13
 12699 006f 00       		.byte	0
 12700 0070 00       		.byte	0
 12701 0071 0C       		.uleb128 0xc
 12702 0072 0D       		.uleb128 0xd
 12703 0073 00       		.byte	0
 12704 0074 03       		.uleb128 0x3
 12705 0075 0E       		.uleb128 0xe
 12706 0076 3A       		.uleb128 0x3a
 12707 0077 0B       		.uleb128 0xb
 12708 0078 3B       		.uleb128 0x3b
 12709 0079 0B       		.uleb128 0xb
 12710 007a 49       		.uleb128 0x49
 12711 007b 13       		.uleb128 0x13
 12712 007c 38       		.uleb128 0x38
 12713 007d 0B       		.uleb128 0xb
 12714 007e 00       		.byte	0
 12715 007f 00       		.byte	0
 12716 0080 0D       		.uleb128 0xd
 12717 0081 0D       		.uleb128 0xd
 12718 0082 00       		.byte	0
 12719 0083 03       		.uleb128 0x3
 12720 0084 08       		.uleb128 0x8
 12721 0085 3A       		.uleb128 0x3a
 12722 0086 0B       		.uleb128 0xb
 12723 0087 3B       		.uleb128 0x3b
 12724 0088 0B       		.uleb128 0xb
 12725 0089 49       		.uleb128 0x49
 12726 008a 13       		.uleb128 0x13
 12727 008b 38       		.uleb128 0x38
 12728 008c 0B       		.uleb128 0xb
 12729 008d 00       		.byte	0
 12730 008e 00       		.byte	0
 12731 008f 0E       		.uleb128 0xe
 12732 0090 0D       		.uleb128 0xd
 12733 0091 00       		.byte	0
 12734 0092 03       		.uleb128 0x3
 12735 0093 0E       		.uleb128 0xe
 12736 0094 3A       		.uleb128 0x3a
 12737 0095 0B       		.uleb128 0xb
 12738 0096 3B       		.uleb128 0x3b
 12739 0097 0B       		.uleb128 0xb
 12740 0098 49       		.uleb128 0x49
 12741 0099 13       		.uleb128 0x13
 12742 009a 38       		.uleb128 0x38
 12743 009b 05       		.uleb128 0x5
 12744 009c 00       		.byte	0
 12745 009d 00       		.byte	0
 12746 009e 0F       		.uleb128 0xf
 12747 009f 13       		.uleb128 0x13
 12748 00a0 01       		.byte	0x1
 12749 00a1 03       		.uleb128 0x3
 12750 00a2 0E       		.uleb128 0xe
 12751 00a3 0B       		.uleb128 0xb
 12752 00a4 0B       		.uleb128 0xb
 12753 00a5 3A       		.uleb128 0x3a
ARM GAS  C:\Users\164\AppData\Local\Temp\cc3ssgoH.s 			page 264


 12754 00a6 0B       		.uleb128 0xb
 12755 00a7 3B       		.uleb128 0x3b
 12756 00a8 0B       		.uleb128 0xb
 12757 00a9 01       		.uleb128 0x1
 12758 00aa 13       		.uleb128 0x13
 12759 00ab 00       		.byte	0
 12760 00ac 00       		.byte	0
 12761 00ad 10       		.uleb128 0x10
 12762 00ae 0D       		.uleb128 0xd
 12763 00af 00       		.byte	0
 12764 00b0 03       		.uleb128 0x3
 12765 00b1 08       		.uleb128 0x8
 12766 00b2 3A       		.uleb128 0x3a
 12767 00b3 0B       		.uleb128 0xb
 12768 00b4 3B       		.uleb128 0x3b
 12769 00b5 0B       		.uleb128 0xb
 12770 00b6 49       		.uleb128 0x49
 12771 00b7 13       		.uleb128 0x13
 12772 00b8 0B       		.uleb128 0xb
 12773 00b9 0B       		.uleb128 0xb
 12774 00ba 0D       		.uleb128 0xd
 12775 00bb 0B       		.uleb128 0xb
 12776 00bc 0C       		.uleb128 0xc
 12777 00bd 0B       		.uleb128 0xb
 12778 00be 38       		.uleb128 0x38
 12779 00bf 0B       		.uleb128 0xb
 12780 00c0 00       		.byte	0
 12781 00c1 00       		.byte	0
 12782 00c2 11       		.uleb128 0x11
 12783 00c3 0D       		.uleb128 0xd
 12784 00c4 00       		.byte	0
 12785 00c5 49       		.uleb128 0x49
 12786 00c6 13       		.uleb128 0x13
 12787 00c7 38       		.uleb128 0x38
 12788 00c8 0B       		.uleb128 0xb
 12789 00c9 00       		.byte	0
 12790 00ca 00       		.byte	0
 12791 00cb 12       		.uleb128 0x12
 12792 00cc 04       		.uleb128 0x4
 12793 00cd 01       		.byte	0x1
 12794 00ce 0B       		.uleb128 0xb
 12795 00cf 0B       		.uleb128 0xb
 12796 00d0 49       		.uleb128 0x49
 12797 00d1 13       		.uleb128 0x13
 12798 00d2 3A       		.uleb128 0x3a
 12799 00d3 0B       		.uleb128 0xb
 12800 00d4 3B       		.uleb128 0x3b
 12801 00d5 0B       		.uleb128 0xb
 12802 00d6 01       		.uleb128 0x1
 12803 00d7 13       		.uleb128 0x13
 12804 00d8 00       		.byte	0
 12805 00d9 00       		.byte	0
 12806 00da 13       		.uleb128 0x13
 12807 00db 28       		.uleb128 0x28
 12808 00dc 00       		.byte	0
 12809 00dd 03       		.uleb128 0x3
 12810 00de 0E       		.uleb128 0xe
ARM GAS  C:\Users\164\AppData\Local\Temp\cc3ssgoH.s 			page 265


 12811 00df 1C       		.uleb128 0x1c
 12812 00e0 0D       		.uleb128 0xd
 12813 00e1 00       		.byte	0
 12814 00e2 00       		.byte	0
 12815 00e3 14       		.uleb128 0x14
 12816 00e4 28       		.uleb128 0x28
 12817 00e5 00       		.byte	0
 12818 00e6 03       		.uleb128 0x3
 12819 00e7 0E       		.uleb128 0xe
 12820 00e8 1C       		.uleb128 0x1c
 12821 00e9 0B       		.uleb128 0xb
 12822 00ea 00       		.byte	0
 12823 00eb 00       		.byte	0
 12824 00ec 15       		.uleb128 0x15
 12825 00ed 17       		.uleb128 0x17
 12826 00ee 01       		.byte	0x1
 12827 00ef 0B       		.uleb128 0xb
 12828 00f0 0B       		.uleb128 0xb
 12829 00f1 3A       		.uleb128 0x3a
 12830 00f2 0B       		.uleb128 0xb
 12831 00f3 3B       		.uleb128 0x3b
 12832 00f4 0B       		.uleb128 0xb
 12833 00f5 01       		.uleb128 0x1
 12834 00f6 13       		.uleb128 0x13
 12835 00f7 00       		.byte	0
 12836 00f8 00       		.byte	0
 12837 00f9 16       		.uleb128 0x16
 12838 00fa 0D       		.uleb128 0xd
 12839 00fb 00       		.byte	0
 12840 00fc 03       		.uleb128 0x3
 12841 00fd 08       		.uleb128 0x8
 12842 00fe 3A       		.uleb128 0x3a
 12843 00ff 0B       		.uleb128 0xb
 12844 0100 3B       		.uleb128 0x3b
 12845 0101 0B       		.uleb128 0xb
 12846 0102 49       		.uleb128 0x49
 12847 0103 13       		.uleb128 0x13
 12848 0104 00       		.byte	0
 12849 0105 00       		.byte	0
 12850 0106 17       		.uleb128 0x17
 12851 0107 0D       		.uleb128 0xd
 12852 0108 00       		.byte	0
 12853 0109 03       		.uleb128 0x3
 12854 010a 0E       		.uleb128 0xe
 12855 010b 3A       		.uleb128 0x3a
 12856 010c 0B       		.uleb128 0xb
 12857 010d 3B       		.uleb128 0x3b
 12858 010e 0B       		.uleb128 0xb
 12859 010f 49       		.uleb128 0x49
 12860 0110 13       		.uleb128 0x13
 12861 0111 00       		.byte	0
 12862 0112 00       		.byte	0
 12863 0113 18       		.uleb128 0x18
 12864 0114 0D       		.uleb128 0xd
 12865 0115 00       		.byte	0
 12866 0116 03       		.uleb128 0x3
 12867 0117 0E       		.uleb128 0xe
ARM GAS  C:\Users\164\AppData\Local\Temp\cc3ssgoH.s 			page 266


 12868 0118 3A       		.uleb128 0x3a
 12869 0119 0B       		.uleb128 0xb
 12870 011a 3B       		.uleb128 0x3b
 12871 011b 0B       		.uleb128 0xb
 12872 011c 49       		.uleb128 0x49
 12873 011d 13       		.uleb128 0x13
 12874 011e 0B       		.uleb128 0xb
 12875 011f 0B       		.uleb128 0xb
 12876 0120 0D       		.uleb128 0xd
 12877 0121 0B       		.uleb128 0xb
 12878 0122 0C       		.uleb128 0xc
 12879 0123 0B       		.uleb128 0xb
 12880 0124 38       		.uleb128 0x38
 12881 0125 0B       		.uleb128 0xb
 12882 0126 00       		.byte	0
 12883 0127 00       		.byte	0
 12884 0128 19       		.uleb128 0x19
 12885 0129 13       		.uleb128 0x13
 12886 012a 00       		.byte	0
 12887 012b 03       		.uleb128 0x3
 12888 012c 0E       		.uleb128 0xe
 12889 012d 3C       		.uleb128 0x3c
 12890 012e 19       		.uleb128 0x19
 12891 012f 00       		.byte	0
 12892 0130 00       		.byte	0
 12893 0131 1A       		.uleb128 0x1a
 12894 0132 01       		.uleb128 0x1
 12895 0133 01       		.byte	0x1
 12896 0134 49       		.uleb128 0x49
 12897 0135 13       		.uleb128 0x13
 12898 0136 01       		.uleb128 0x1
 12899 0137 13       		.uleb128 0x13
 12900 0138 00       		.byte	0
 12901 0139 00       		.byte	0
 12902 013a 1B       		.uleb128 0x1b
 12903 013b 21       		.uleb128 0x21
 12904 013c 00       		.byte	0
 12905 013d 49       		.uleb128 0x49
 12906 013e 13       		.uleb128 0x13
 12907 013f 00       		.byte	0
 12908 0140 00       		.byte	0
 12909 0141 1C       		.uleb128 0x1c
 12910 0142 21       		.uleb128 0x21
 12911 0143 00       		.byte	0
 12912 0144 49       		.uleb128 0x49
 12913 0145 13       		.uleb128 0x13
 12914 0146 2F       		.uleb128 0x2f
 12915 0147 0B       		.uleb128 0xb
 12916 0148 00       		.byte	0
 12917 0149 00       		.byte	0
 12918 014a 1D       		.uleb128 0x1d
 12919 014b 35       		.uleb128 0x35
 12920 014c 00       		.byte	0
 12921 014d 49       		.uleb128 0x49
 12922 014e 13       		.uleb128 0x13
 12923 014f 00       		.byte	0
 12924 0150 00       		.byte	0
ARM GAS  C:\Users\164\AppData\Local\Temp\cc3ssgoH.s 			page 267


 12925 0151 1E       		.uleb128 0x1e
 12926 0152 13       		.uleb128 0x13
 12927 0153 01       		.byte	0x1
 12928 0154 03       		.uleb128 0x3
 12929 0155 0E       		.uleb128 0xe
 12930 0156 0B       		.uleb128 0xb
 12931 0157 0B       		.uleb128 0xb
 12932 0158 3A       		.uleb128 0x3a
 12933 0159 0B       		.uleb128 0xb
 12934 015a 3B       		.uleb128 0x3b
 12935 015b 05       		.uleb128 0x5
 12936 015c 01       		.uleb128 0x1
 12937 015d 13       		.uleb128 0x13
 12938 015e 00       		.byte	0
 12939 015f 00       		.byte	0
 12940 0160 1F       		.uleb128 0x1f
 12941 0161 0D       		.uleb128 0xd
 12942 0162 00       		.byte	0
 12943 0163 03       		.uleb128 0x3
 12944 0164 0E       		.uleb128 0xe
 12945 0165 3A       		.uleb128 0x3a
 12946 0166 0B       		.uleb128 0xb
 12947 0167 3B       		.uleb128 0x3b
 12948 0168 05       		.uleb128 0x5
 12949 0169 49       		.uleb128 0x49
 12950 016a 13       		.uleb128 0x13
 12951 016b 38       		.uleb128 0x38
 12952 016c 0B       		.uleb128 0xb
 12953 016d 00       		.byte	0
 12954 016e 00       		.byte	0
 12955 016f 20       		.uleb128 0x20
 12956 0170 0D       		.uleb128 0xd
 12957 0171 00       		.byte	0
 12958 0172 03       		.uleb128 0x3
 12959 0173 08       		.uleb128 0x8
 12960 0174 3A       		.uleb128 0x3a
 12961 0175 0B       		.uleb128 0xb
 12962 0176 3B       		.uleb128 0x3b
 12963 0177 05       		.uleb128 0x5
 12964 0178 49       		.uleb128 0x49
 12965 0179 13       		.uleb128 0x13
 12966 017a 38       		.uleb128 0x38
 12967 017b 0B       		.uleb128 0xb
 12968 017c 00       		.byte	0
 12969 017d 00       		.byte	0
 12970 017e 21       		.uleb128 0x21
 12971 017f 2E       		.uleb128 0x2e
 12972 0180 01       		.byte	0x1
 12973 0181 03       		.uleb128 0x3
 12974 0182 0E       		.uleb128 0xe
 12975 0183 3A       		.uleb128 0x3a
 12976 0184 0B       		.uleb128 0xb
 12977 0185 3B       		.uleb128 0x3b
 12978 0186 0B       		.uleb128 0xb
 12979 0187 27       		.uleb128 0x27
 12980 0188 19       		.uleb128 0x19
 12981 0189 49       		.uleb128 0x49
ARM GAS  C:\Users\164\AppData\Local\Temp\cc3ssgoH.s 			page 268


 12982 018a 13       		.uleb128 0x13
 12983 018b 20       		.uleb128 0x20
 12984 018c 0B       		.uleb128 0xb
 12985 018d 01       		.uleb128 0x1
 12986 018e 13       		.uleb128 0x13
 12987 018f 00       		.byte	0
 12988 0190 00       		.byte	0
 12989 0191 22       		.uleb128 0x22
 12990 0192 05       		.uleb128 0x5
 12991 0193 00       		.byte	0
 12992 0194 03       		.uleb128 0x3
 12993 0195 08       		.uleb128 0x8
 12994 0196 3A       		.uleb128 0x3a
 12995 0197 0B       		.uleb128 0xb
 12996 0198 3B       		.uleb128 0x3b
 12997 0199 0B       		.uleb128 0xb
 12998 019a 49       		.uleb128 0x49
 12999 019b 13       		.uleb128 0x13
 13000 019c 00       		.byte	0
 13001 019d 00       		.byte	0
 13002 019e 23       		.uleb128 0x23
 13003 019f 2E       		.uleb128 0x2e
 13004 01a0 01       		.byte	0x1
 13005 01a1 03       		.uleb128 0x3
 13006 01a2 0E       		.uleb128 0xe
 13007 01a3 3A       		.uleb128 0x3a
 13008 01a4 0B       		.uleb128 0xb
 13009 01a5 3B       		.uleb128 0x3b
 13010 01a6 0B       		.uleb128 0xb
 13011 01a7 27       		.uleb128 0x27
 13012 01a8 19       		.uleb128 0x19
 13013 01a9 20       		.uleb128 0x20
 13014 01aa 0B       		.uleb128 0xb
 13015 01ab 01       		.uleb128 0x1
 13016 01ac 13       		.uleb128 0x13
 13017 01ad 00       		.byte	0
 13018 01ae 00       		.byte	0
 13019 01af 24       		.uleb128 0x24
 13020 01b0 05       		.uleb128 0x5
 13021 01b1 00       		.byte	0
 13022 01b2 03       		.uleb128 0x3
 13023 01b3 0E       		.uleb128 0xe
 13024 01b4 3A       		.uleb128 0x3a
 13025 01b5 0B       		.uleb128 0xb
 13026 01b6 3B       		.uleb128 0x3b
 13027 01b7 0B       		.uleb128 0xb
 13028 01b8 49       		.uleb128 0x49
 13029 01b9 13       		.uleb128 0x13
 13030 01ba 00       		.byte	0
 13031 01bb 00       		.byte	0
 13032 01bc 25       		.uleb128 0x25
 13033 01bd 2E       		.uleb128 0x2e
 13034 01be 01       		.byte	0x1
 13035 01bf 03       		.uleb128 0x3
 13036 01c0 0E       		.uleb128 0xe
 13037 01c1 3A       		.uleb128 0x3a
 13038 01c2 0B       		.uleb128 0xb
ARM GAS  C:\Users\164\AppData\Local\Temp\cc3ssgoH.s 			page 269


 13039 01c3 3B       		.uleb128 0x3b
 13040 01c4 0B       		.uleb128 0xb
 13041 01c5 27       		.uleb128 0x27
 13042 01c6 19       		.uleb128 0x19
 13043 01c7 49       		.uleb128 0x49
 13044 01c8 13       		.uleb128 0x13
 13045 01c9 11       		.uleb128 0x11
 13046 01ca 01       		.uleb128 0x1
 13047 01cb 12       		.uleb128 0x12
 13048 01cc 06       		.uleb128 0x6
 13049 01cd 40       		.uleb128 0x40
 13050 01ce 18       		.uleb128 0x18
 13051 01cf 9742     		.uleb128 0x2117
 13052 01d1 19       		.uleb128 0x19
 13053 01d2 01       		.uleb128 0x1
 13054 01d3 13       		.uleb128 0x13
 13055 01d4 00       		.byte	0
 13056 01d5 00       		.byte	0
 13057 01d6 26       		.uleb128 0x26
 13058 01d7 05       		.uleb128 0x5
 13059 01d8 00       		.byte	0
 13060 01d9 03       		.uleb128 0x3
 13061 01da 08       		.uleb128 0x8
 13062 01db 3A       		.uleb128 0x3a
 13063 01dc 0B       		.uleb128 0xb
 13064 01dd 3B       		.uleb128 0x3b
 13065 01de 0B       		.uleb128 0xb
 13066 01df 49       		.uleb128 0x49
 13067 01e0 13       		.uleb128 0x13
 13068 01e1 02       		.uleb128 0x2
 13069 01e2 17       		.uleb128 0x17
 13070 01e3 00       		.byte	0
 13071 01e4 00       		.byte	0
 13072 01e5 27       		.uleb128 0x27
 13073 01e6 34       		.uleb128 0x34
 13074 01e7 00       		.byte	0
 13075 01e8 03       		.uleb128 0x3
 13076 01e9 08       		.uleb128 0x8
 13077 01ea 3A       		.uleb128 0x3a
 13078 01eb 0B       		.uleb128 0xb
 13079 01ec 3B       		.uleb128 0x3b
 13080 01ed 0B       		.uleb128 0xb
 13081 01ee 49       		.uleb128 0x49
 13082 01ef 13       		.uleb128 0x13
 13083 01f0 02       		.uleb128 0x2
 13084 01f1 18       		.uleb128 0x18
 13085 01f2 00       		.byte	0
 13086 01f3 00       		.byte	0
 13087 01f4 28       		.uleb128 0x28
 13088 01f5 34       		.uleb128 0x34
 13089 01f6 00       		.byte	0
 13090 01f7 03       		.uleb128 0x3
 13091 01f8 08       		.uleb128 0x8
 13092 01f9 3A       		.uleb128 0x3a
 13093 01fa 0B       		.uleb128 0xb
 13094 01fb 3B       		.uleb128 0x3b
 13095 01fc 0B       		.uleb128 0xb
ARM GAS  C:\Users\164\AppData\Local\Temp\cc3ssgoH.s 			page 270


 13096 01fd 49       		.uleb128 0x49
 13097 01fe 13       		.uleb128 0x13
 13098 01ff 02       		.uleb128 0x2
 13099 0200 17       		.uleb128 0x17
 13100 0201 00       		.byte	0
 13101 0202 00       		.byte	0
 13102 0203 29       		.uleb128 0x29
 13103 0204 2E       		.uleb128 0x2e
 13104 0205 01       		.byte	0x1
 13105 0206 03       		.uleb128 0x3
 13106 0207 0E       		.uleb128 0xe
 13107 0208 3A       		.uleb128 0x3a
 13108 0209 0B       		.uleb128 0xb
 13109 020a 3B       		.uleb128 0x3b
 13110 020b 05       		.uleb128 0x5
 13111 020c 27       		.uleb128 0x27
 13112 020d 19       		.uleb128 0x19
 13113 020e 49       		.uleb128 0x49
 13114 020f 13       		.uleb128 0x13
 13115 0210 11       		.uleb128 0x11
 13116 0211 01       		.uleb128 0x1
 13117 0212 12       		.uleb128 0x12
 13118 0213 06       		.uleb128 0x6
 13119 0214 40       		.uleb128 0x40
 13120 0215 18       		.uleb128 0x18
 13121 0216 9742     		.uleb128 0x2117
 13122 0218 19       		.uleb128 0x19
 13123 0219 01       		.uleb128 0x1
 13124 021a 13       		.uleb128 0x13
 13125 021b 00       		.byte	0
 13126 021c 00       		.byte	0
 13127 021d 2A       		.uleb128 0x2a
 13128 021e 05       		.uleb128 0x5
 13129 021f 00       		.byte	0
 13130 0220 03       		.uleb128 0x3
 13131 0221 08       		.uleb128 0x8
 13132 0222 3A       		.uleb128 0x3a
 13133 0223 0B       		.uleb128 0xb
 13134 0224 3B       		.uleb128 0x3b
 13135 0225 05       		.uleb128 0x5
 13136 0226 49       		.uleb128 0x49
 13137 0227 13       		.uleb128 0x13
 13138 0228 02       		.uleb128 0x2
 13139 0229 17       		.uleb128 0x17
 13140 022a 00       		.byte	0
 13141 022b 00       		.byte	0
 13142 022c 2B       		.uleb128 0x2b
 13143 022d 05       		.uleb128 0x5
 13144 022e 00       		.byte	0
 13145 022f 03       		.uleb128 0x3
 13146 0230 08       		.uleb128 0x8
 13147 0231 3A       		.uleb128 0x3a
 13148 0232 0B       		.uleb128 0xb
 13149 0233 3B       		.uleb128 0x3b
 13150 0234 05       		.uleb128 0x5
 13151 0235 49       		.uleb128 0x49
 13152 0236 13       		.uleb128 0x13
ARM GAS  C:\Users\164\AppData\Local\Temp\cc3ssgoH.s 			page 271


 13153 0237 02       		.uleb128 0x2
 13154 0238 18       		.uleb128 0x18
 13155 0239 00       		.byte	0
 13156 023a 00       		.byte	0
 13157 023b 2C       		.uleb128 0x2c
 13158 023c 34       		.uleb128 0x34
 13159 023d 00       		.byte	0
 13160 023e 03       		.uleb128 0x3
 13161 023f 08       		.uleb128 0x8
 13162 0240 3A       		.uleb128 0x3a
 13163 0241 0B       		.uleb128 0xb
 13164 0242 3B       		.uleb128 0x3b
 13165 0243 05       		.uleb128 0x5
 13166 0244 49       		.uleb128 0x49
 13167 0245 13       		.uleb128 0x13
 13168 0246 02       		.uleb128 0x2
 13169 0247 17       		.uleb128 0x17
 13170 0248 00       		.byte	0
 13171 0249 00       		.byte	0
 13172 024a 2D       		.uleb128 0x2d
 13173 024b 34       		.uleb128 0x34
 13174 024c 00       		.byte	0
 13175 024d 03       		.uleb128 0x3
 13176 024e 0E       		.uleb128 0xe
 13177 024f 3A       		.uleb128 0x3a
 13178 0250 0B       		.uleb128 0xb
 13179 0251 3B       		.uleb128 0x3b
 13180 0252 05       		.uleb128 0x5
 13181 0253 49       		.uleb128 0x49
 13182 0254 13       		.uleb128 0x13
 13183 0255 02       		.uleb128 0x2
 13184 0256 17       		.uleb128 0x17
 13185 0257 00       		.byte	0
 13186 0258 00       		.byte	0
 13187 0259 2E       		.uleb128 0x2e
 13188 025a 0B       		.uleb128 0xb
 13189 025b 01       		.byte	0x1
 13190 025c 55       		.uleb128 0x55
 13191 025d 17       		.uleb128 0x17
 13192 025e 00       		.byte	0
 13193 025f 00       		.byte	0
 13194 0260 2F       		.uleb128 0x2f
 13195 0261 05       		.uleb128 0x5
 13196 0262 00       		.byte	0
 13197 0263 03       		.uleb128 0x3
 13198 0264 0E       		.uleb128 0xe
 13199 0265 3A       		.uleb128 0x3a
 13200 0266 0B       		.uleb128 0xb
 13201 0267 3B       		.uleb128 0x3b
 13202 0268 05       		.uleb128 0x5
 13203 0269 49       		.uleb128 0x49
 13204 026a 13       		.uleb128 0x13
 13205 026b 02       		.uleb128 0x2
 13206 026c 17       		.uleb128 0x17
 13207 026d 00       		.byte	0
 13208 026e 00       		.byte	0
 13209 026f 30       		.uleb128 0x30
ARM GAS  C:\Users\164\AppData\Local\Temp\cc3ssgoH.s 			page 272


 13210 0270 0B       		.uleb128 0xb
 13211 0271 01       		.byte	0x1
 13212 0272 11       		.uleb128 0x11
 13213 0273 01       		.uleb128 0x1
 13214 0274 12       		.uleb128 0x12
 13215 0275 06       		.uleb128 0x6
 13216 0276 00       		.byte	0
 13217 0277 00       		.byte	0
 13218 0278 31       		.uleb128 0x31
 13219 0279 2E       		.uleb128 0x2e
 13220 027a 01       		.byte	0x1
 13221 027b 03       		.uleb128 0x3
 13222 027c 0E       		.uleb128 0xe
 13223 027d 3A       		.uleb128 0x3a
 13224 027e 0B       		.uleb128 0xb
 13225 027f 3B       		.uleb128 0x3b
 13226 0280 05       		.uleb128 0x5
 13227 0281 27       		.uleb128 0x27
 13228 0282 19       		.uleb128 0x19
 13229 0283 11       		.uleb128 0x11
 13230 0284 01       		.uleb128 0x1
 13231 0285 12       		.uleb128 0x12
 13232 0286 06       		.uleb128 0x6
 13233 0287 40       		.uleb128 0x40
 13234 0288 18       		.uleb128 0x18
 13235 0289 9742     		.uleb128 0x2117
 13236 028b 19       		.uleb128 0x19
 13237 028c 01       		.uleb128 0x1
 13238 028d 13       		.uleb128 0x13
 13239 028e 00       		.byte	0
 13240 028f 00       		.byte	0
 13241 0290 32       		.uleb128 0x32
 13242 0291 898201   		.uleb128 0x4109
 13243 0294 00       		.byte	0
 13244 0295 11       		.uleb128 0x11
 13245 0296 01       		.uleb128 0x1
 13246 0297 31       		.uleb128 0x31
 13247 0298 13       		.uleb128 0x13
 13248 0299 00       		.byte	0
 13249 029a 00       		.byte	0
 13250 029b 33       		.uleb128 0x33
 13251 029c 34       		.uleb128 0x34
 13252 029d 00       		.byte	0
 13253 029e 03       		.uleb128 0x3
 13254 029f 0E       		.uleb128 0xe
 13255 02a0 3A       		.uleb128 0x3a
 13256 02a1 0B       		.uleb128 0xb
 13257 02a2 3B       		.uleb128 0x3b
 13258 02a3 05       		.uleb128 0x5
 13259 02a4 49       		.uleb128 0x49
 13260 02a5 13       		.uleb128 0x13
 13261 02a6 00       		.byte	0
 13262 02a7 00       		.byte	0
 13263 02a8 34       		.uleb128 0x34
 13264 02a9 1D       		.uleb128 0x1d
 13265 02aa 01       		.byte	0x1
 13266 02ab 31       		.uleb128 0x31
ARM GAS  C:\Users\164\AppData\Local\Temp\cc3ssgoH.s 			page 273


 13267 02ac 13       		.uleb128 0x13
 13268 02ad 11       		.uleb128 0x11
 13269 02ae 01       		.uleb128 0x1
 13270 02af 12       		.uleb128 0x12
 13271 02b0 06       		.uleb128 0x6
 13272 02b1 58       		.uleb128 0x58
 13273 02b2 0B       		.uleb128 0xb
 13274 02b3 59       		.uleb128 0x59
 13275 02b4 05       		.uleb128 0x5
 13276 02b5 01       		.uleb128 0x1
 13277 02b6 13       		.uleb128 0x13
 13278 02b7 00       		.byte	0
 13279 02b8 00       		.byte	0
 13280 02b9 35       		.uleb128 0x35
 13281 02ba 05       		.uleb128 0x5
 13282 02bb 00       		.byte	0
 13283 02bc 31       		.uleb128 0x31
 13284 02bd 13       		.uleb128 0x13
 13285 02be 02       		.uleb128 0x2
 13286 02bf 17       		.uleb128 0x17
 13287 02c0 00       		.byte	0
 13288 02c1 00       		.byte	0
 13289 02c2 36       		.uleb128 0x36
 13290 02c3 0B       		.uleb128 0xb
 13291 02c4 01       		.byte	0x1
 13292 02c5 11       		.uleb128 0x11
 13293 02c6 01       		.uleb128 0x1
 13294 02c7 12       		.uleb128 0x12
 13295 02c8 06       		.uleb128 0x6
 13296 02c9 01       		.uleb128 0x1
 13297 02ca 13       		.uleb128 0x13
 13298 02cb 00       		.byte	0
 13299 02cc 00       		.byte	0
 13300 02cd 37       		.uleb128 0x37
 13301 02ce 898201   		.uleb128 0x4109
 13302 02d1 01       		.byte	0x1
 13303 02d2 11       		.uleb128 0x11
 13304 02d3 01       		.uleb128 0x1
 13305 02d4 31       		.uleb128 0x31
 13306 02d5 13       		.uleb128 0x13
 13307 02d6 01       		.uleb128 0x1
 13308 02d7 13       		.uleb128 0x13
 13309 02d8 00       		.byte	0
 13310 02d9 00       		.byte	0
 13311 02da 38       		.uleb128 0x38
 13312 02db 8A8201   		.uleb128 0x410a
 13313 02de 00       		.byte	0
 13314 02df 02       		.uleb128 0x2
 13315 02e0 18       		.uleb128 0x18
 13316 02e1 9142     		.uleb128 0x2111
 13317 02e3 18       		.uleb128 0x18
 13318 02e4 00       		.byte	0
 13319 02e5 00       		.byte	0
 13320 02e6 39       		.uleb128 0x39
 13321 02e7 898201   		.uleb128 0x4109
 13322 02ea 01       		.byte	0x1
 13323 02eb 11       		.uleb128 0x11
ARM GAS  C:\Users\164\AppData\Local\Temp\cc3ssgoH.s 			page 274


 13324 02ec 01       		.uleb128 0x1
 13325 02ed 31       		.uleb128 0x31
 13326 02ee 13       		.uleb128 0x13
 13327 02ef 00       		.byte	0
 13328 02f0 00       		.byte	0
 13329 02f1 3A       		.uleb128 0x3a
 13330 02f2 34       		.uleb128 0x34
 13331 02f3 00       		.byte	0
 13332 02f4 03       		.uleb128 0x3
 13333 02f5 08       		.uleb128 0x8
 13334 02f6 3A       		.uleb128 0x3a
 13335 02f7 0B       		.uleb128 0xb
 13336 02f8 3B       		.uleb128 0x3b
 13337 02f9 05       		.uleb128 0x5
 13338 02fa 49       		.uleb128 0x49
 13339 02fb 13       		.uleb128 0x13
 13340 02fc 02       		.uleb128 0x2
 13341 02fd 18       		.uleb128 0x18
 13342 02fe 00       		.byte	0
 13343 02ff 00       		.byte	0
 13344 0300 3B       		.uleb128 0x3b
 13345 0301 34       		.uleb128 0x34
 13346 0302 00       		.byte	0
 13347 0303 03       		.uleb128 0x3
 13348 0304 08       		.uleb128 0x8
 13349 0305 3A       		.uleb128 0x3a
 13350 0306 0B       		.uleb128 0xb
 13351 0307 3B       		.uleb128 0x3b
 13352 0308 05       		.uleb128 0x5
 13353 0309 49       		.uleb128 0x49
 13354 030a 13       		.uleb128 0x13
 13355 030b 00       		.byte	0
 13356 030c 00       		.byte	0
 13357 030d 3C       		.uleb128 0x3c
 13358 030e 2E       		.uleb128 0x2e
 13359 030f 01       		.byte	0x1
 13360 0310 3F       		.uleb128 0x3f
 13361 0311 19       		.uleb128 0x19
 13362 0312 03       		.uleb128 0x3
 13363 0313 0E       		.uleb128 0xe
 13364 0314 3A       		.uleb128 0x3a
 13365 0315 0B       		.uleb128 0xb
 13366 0316 3B       		.uleb128 0x3b
 13367 0317 0B       		.uleb128 0xb
 13368 0318 27       		.uleb128 0x27
 13369 0319 19       		.uleb128 0x19
 13370 031a 49       		.uleb128 0x49
 13371 031b 13       		.uleb128 0x13
 13372 031c 11       		.uleb128 0x11
 13373 031d 01       		.uleb128 0x1
 13374 031e 12       		.uleb128 0x12
 13375 031f 06       		.uleb128 0x6
 13376 0320 40       		.uleb128 0x40
 13377 0321 18       		.uleb128 0x18
 13378 0322 9742     		.uleb128 0x2117
 13379 0324 19       		.uleb128 0x19
 13380 0325 01       		.uleb128 0x1
ARM GAS  C:\Users\164\AppData\Local\Temp\cc3ssgoH.s 			page 275


 13381 0326 13       		.uleb128 0x13
 13382 0327 00       		.byte	0
 13383 0328 00       		.byte	0
 13384 0329 3D       		.uleb128 0x3d
 13385 032a 34       		.uleb128 0x34
 13386 032b 00       		.byte	0
 13387 032c 03       		.uleb128 0x3
 13388 032d 0E       		.uleb128 0xe
 13389 032e 3A       		.uleb128 0x3a
 13390 032f 0B       		.uleb128 0xb
 13391 0330 3B       		.uleb128 0x3b
 13392 0331 0B       		.uleb128 0xb
 13393 0332 49       		.uleb128 0x49
 13394 0333 13       		.uleb128 0x13
 13395 0334 02       		.uleb128 0x2
 13396 0335 17       		.uleb128 0x17
 13397 0336 00       		.byte	0
 13398 0337 00       		.byte	0
 13399 0338 3E       		.uleb128 0x3e
 13400 0339 0A       		.uleb128 0xa
 13401 033a 00       		.byte	0
 13402 033b 03       		.uleb128 0x3
 13403 033c 0E       		.uleb128 0xe
 13404 033d 3A       		.uleb128 0x3a
 13405 033e 0B       		.uleb128 0xb
 13406 033f 3B       		.uleb128 0x3b
 13407 0340 05       		.uleb128 0x5
 13408 0341 11       		.uleb128 0x11
 13409 0342 01       		.uleb128 0x1
 13410 0343 00       		.byte	0
 13411 0344 00       		.byte	0
 13412 0345 3F       		.uleb128 0x3f
 13413 0346 34       		.uleb128 0x34
 13414 0347 00       		.byte	0
 13415 0348 03       		.uleb128 0x3
 13416 0349 0E       		.uleb128 0xe
 13417 034a 3A       		.uleb128 0x3a
 13418 034b 0B       		.uleb128 0xb
 13419 034c 3B       		.uleb128 0x3b
 13420 034d 05       		.uleb128 0x5
 13421 034e 49       		.uleb128 0x49
 13422 034f 13       		.uleb128 0x13
 13423 0350 02       		.uleb128 0x2
 13424 0351 18       		.uleb128 0x18
 13425 0352 00       		.byte	0
 13426 0353 00       		.byte	0
 13427 0354 40       		.uleb128 0x40
 13428 0355 2E       		.uleb128 0x2e
 13429 0356 01       		.byte	0x1
 13430 0357 03       		.uleb128 0x3
 13431 0358 0E       		.uleb128 0xe
 13432 0359 3A       		.uleb128 0x3a
 13433 035a 0B       		.uleb128 0xb
 13434 035b 3B       		.uleb128 0x3b
 13435 035c 05       		.uleb128 0x5
 13436 035d 27       		.uleb128 0x27
 13437 035e 19       		.uleb128 0x19
ARM GAS  C:\Users\164\AppData\Local\Temp\cc3ssgoH.s 			page 276


 13438 035f 11       		.uleb128 0x11
 13439 0360 01       		.uleb128 0x1
 13440 0361 12       		.uleb128 0x12
 13441 0362 06       		.uleb128 0x6
 13442 0363 40       		.uleb128 0x40
 13443 0364 18       		.uleb128 0x18
 13444 0365 9642     		.uleb128 0x2116
 13445 0367 19       		.uleb128 0x19
 13446 0368 01       		.uleb128 0x1
 13447 0369 13       		.uleb128 0x13
 13448 036a 00       		.byte	0
 13449 036b 00       		.byte	0
 13450 036c 41       		.uleb128 0x41
 13451 036d 34       		.uleb128 0x34
 13452 036e 00       		.byte	0
 13453 036f 03       		.uleb128 0x3
 13454 0370 0E       		.uleb128 0xe
 13455 0371 3A       		.uleb128 0x3a
 13456 0372 0B       		.uleb128 0xb
 13457 0373 3B       		.uleb128 0x3b
 13458 0374 05       		.uleb128 0x5
 13459 0375 49       		.uleb128 0x49
 13460 0376 13       		.uleb128 0x13
 13461 0377 1C       		.uleb128 0x1c
 13462 0378 0B       		.uleb128 0xb
 13463 0379 00       		.byte	0
 13464 037a 00       		.byte	0
 13465 037b 42       		.uleb128 0x42
 13466 037c 05       		.uleb128 0x5
 13467 037d 00       		.byte	0
 13468 037e 31       		.uleb128 0x31
 13469 037f 13       		.uleb128 0x13
 13470 0380 00       		.byte	0
 13471 0381 00       		.byte	0
 13472 0382 43       		.uleb128 0x43
 13473 0383 2E       		.uleb128 0x2e
 13474 0384 01       		.byte	0x1
 13475 0385 3F       		.uleb128 0x3f
 13476 0386 19       		.uleb128 0x19
 13477 0387 03       		.uleb128 0x3
 13478 0388 0E       		.uleb128 0xe
 13479 0389 3A       		.uleb128 0x3a
 13480 038a 0B       		.uleb128 0xb
 13481 038b 3B       		.uleb128 0x3b
 13482 038c 0B       		.uleb128 0xb
 13483 038d 27       		.uleb128 0x27
 13484 038e 19       		.uleb128 0x19
 13485 038f 11       		.uleb128 0x11
 13486 0390 01       		.uleb128 0x1
 13487 0391 12       		.uleb128 0x12
 13488 0392 06       		.uleb128 0x6
 13489 0393 40       		.uleb128 0x40
 13490 0394 18       		.uleb128 0x18
 13491 0395 9742     		.uleb128 0x2117
 13492 0397 19       		.uleb128 0x19
 13493 0398 01       		.uleb128 0x1
 13494 0399 13       		.uleb128 0x13
ARM GAS  C:\Users\164\AppData\Local\Temp\cc3ssgoH.s 			page 277


 13495 039a 00       		.byte	0
 13496 039b 00       		.byte	0
 13497 039c 44       		.uleb128 0x44
 13498 039d 34       		.uleb128 0x34
 13499 039e 00       		.byte	0
 13500 039f 03       		.uleb128 0x3
 13501 03a0 0E       		.uleb128 0xe
 13502 03a1 3A       		.uleb128 0x3a
 13503 03a2 0B       		.uleb128 0xb
 13504 03a3 3B       		.uleb128 0x3b
 13505 03a4 0B       		.uleb128 0xb
 13506 03a5 49       		.uleb128 0x49
 13507 03a6 13       		.uleb128 0x13
 13508 03a7 02       		.uleb128 0x2
 13509 03a8 18       		.uleb128 0x18
 13510 03a9 00       		.byte	0
 13511 03aa 00       		.byte	0
 13512 03ab 45       		.uleb128 0x45
 13513 03ac 2E       		.uleb128 0x2e
 13514 03ad 01       		.byte	0x1
 13515 03ae 3F       		.uleb128 0x3f
 13516 03af 19       		.uleb128 0x19
 13517 03b0 03       		.uleb128 0x3
 13518 03b1 0E       		.uleb128 0xe
 13519 03b2 3A       		.uleb128 0x3a
 13520 03b3 0B       		.uleb128 0xb
 13521 03b4 3B       		.uleb128 0x3b
 13522 03b5 05       		.uleb128 0x5
 13523 03b6 27       		.uleb128 0x27
 13524 03b7 19       		.uleb128 0x19
 13525 03b8 49       		.uleb128 0x49
 13526 03b9 13       		.uleb128 0x13
 13527 03ba 11       		.uleb128 0x11
 13528 03bb 01       		.uleb128 0x1
 13529 03bc 12       		.uleb128 0x12
 13530 03bd 06       		.uleb128 0x6
 13531 03be 40       		.uleb128 0x40
 13532 03bf 18       		.uleb128 0x18
 13533 03c0 9742     		.uleb128 0x2117
 13534 03c2 19       		.uleb128 0x19
 13535 03c3 01       		.uleb128 0x1
 13536 03c4 13       		.uleb128 0x13
 13537 03c5 00       		.byte	0
 13538 03c6 00       		.byte	0
 13539 03c7 46       		.uleb128 0x46
 13540 03c8 1D       		.uleb128 0x1d
 13541 03c9 01       		.byte	0x1
 13542 03ca 31       		.uleb128 0x31
 13543 03cb 13       		.uleb128 0x13
 13544 03cc 11       		.uleb128 0x11
 13545 03cd 01       		.uleb128 0x1
 13546 03ce 12       		.uleb128 0x12
 13547 03cf 06       		.uleb128 0x6
 13548 03d0 58       		.uleb128 0x58
 13549 03d1 0B       		.uleb128 0xb
 13550 03d2 59       		.uleb128 0x59
 13551 03d3 05       		.uleb128 0x5
ARM GAS  C:\Users\164\AppData\Local\Temp\cc3ssgoH.s 			page 278


 13552 03d4 00       		.byte	0
 13553 03d5 00       		.byte	0
 13554 03d6 47       		.uleb128 0x47
 13555 03d7 2E       		.uleb128 0x2e
 13556 03d8 01       		.byte	0x1
 13557 03d9 3F       		.uleb128 0x3f
 13558 03da 19       		.uleb128 0x19
 13559 03db 03       		.uleb128 0x3
 13560 03dc 0E       		.uleb128 0xe
 13561 03dd 3A       		.uleb128 0x3a
 13562 03de 0B       		.uleb128 0xb
 13563 03df 3B       		.uleb128 0x3b
 13564 03e0 05       		.uleb128 0x5
 13565 03e1 27       		.uleb128 0x27
 13566 03e2 19       		.uleb128 0x19
 13567 03e3 11       		.uleb128 0x11
 13568 03e4 01       		.uleb128 0x1
 13569 03e5 12       		.uleb128 0x12
 13570 03e6 06       		.uleb128 0x6
 13571 03e7 40       		.uleb128 0x40
 13572 03e8 18       		.uleb128 0x18
 13573 03e9 9742     		.uleb128 0x2117
 13574 03eb 19       		.uleb128 0x19
 13575 03ec 01       		.uleb128 0x1
 13576 03ed 13       		.uleb128 0x13
 13577 03ee 00       		.byte	0
 13578 03ef 00       		.byte	0
 13579 03f0 48       		.uleb128 0x48
 13580 03f1 34       		.uleb128 0x34
 13581 03f2 00       		.byte	0
 13582 03f3 03       		.uleb128 0x3
 13583 03f4 0E       		.uleb128 0xe
 13584 03f5 3A       		.uleb128 0x3a
 13585 03f6 0B       		.uleb128 0xb
 13586 03f7 3B       		.uleb128 0x3b
 13587 03f8 0B       		.uleb128 0xb
 13588 03f9 49       		.uleb128 0x49
 13589 03fa 13       		.uleb128 0x13
 13590 03fb 3F       		.uleb128 0x3f
 13591 03fc 19       		.uleb128 0x19
 13592 03fd 3C       		.uleb128 0x3c
 13593 03fe 19       		.uleb128 0x19
 13594 03ff 00       		.byte	0
 13595 0400 00       		.byte	0
 13596 0401 49       		.uleb128 0x49
 13597 0402 34       		.uleb128 0x34
 13598 0403 00       		.byte	0
 13599 0404 03       		.uleb128 0x3
 13600 0405 0E       		.uleb128 0xe
 13601 0406 3A       		.uleb128 0x3a
 13602 0407 0B       		.uleb128 0xb
 13603 0408 3B       		.uleb128 0x3b
 13604 0409 05       		.uleb128 0x5
 13605 040a 49       		.uleb128 0x49
 13606 040b 13       		.uleb128 0x13
 13607 040c 3F       		.uleb128 0x3f
 13608 040d 19       		.uleb128 0x19
ARM GAS  C:\Users\164\AppData\Local\Temp\cc3ssgoH.s 			page 279


 13609 040e 3C       		.uleb128 0x3c
 13610 040f 19       		.uleb128 0x19
 13611 0410 00       		.byte	0
 13612 0411 00       		.byte	0
 13613 0412 4A       		.uleb128 0x4a
 13614 0413 2E       		.uleb128 0x2e
 13615 0414 00       		.byte	0
 13616 0415 3F       		.uleb128 0x3f
 13617 0416 19       		.uleb128 0x19
 13618 0417 3C       		.uleb128 0x3c
 13619 0418 19       		.uleb128 0x19
 13620 0419 6E       		.uleb128 0x6e
 13621 041a 0E       		.uleb128 0xe
 13622 041b 03       		.uleb128 0x3
 13623 041c 0E       		.uleb128 0xe
 13624 041d 3A       		.uleb128 0x3a
 13625 041e 0B       		.uleb128 0xb
 13626 041f 3B       		.uleb128 0x3b
 13627 0420 0B       		.uleb128 0xb
 13628 0421 00       		.byte	0
 13629 0422 00       		.byte	0
 13630 0423 4B       		.uleb128 0x4b
 13631 0424 2E       		.uleb128 0x2e
 13632 0425 00       		.byte	0
 13633 0426 3F       		.uleb128 0x3f
 13634 0427 19       		.uleb128 0x19
 13635 0428 3C       		.uleb128 0x3c
 13636 0429 19       		.uleb128 0x19
 13637 042a 6E       		.uleb128 0x6e
 13638 042b 0E       		.uleb128 0xe
 13639 042c 03       		.uleb128 0x3
 13640 042d 0E       		.uleb128 0xe
 13641 042e 00       		.byte	0
 13642 042f 00       		.byte	0
 13643 0430 00       		.byte	0
 13644              		.section	.debug_loc,"",%progbits
 13645              	.Ldebug_loc0:
 13646              	.LLST0:
 13647 0000 00000000 		.4byte	.LVL0
 13648 0004 14000000 		.4byte	.LVL3
 13649 0008 0100     		.2byte	0x1
 13650 000a 50       		.byte	0x50
 13651 000b 14000000 		.4byte	.LVL3
 13652 000f 16000000 		.4byte	.LVL4
 13653 0013 0400     		.2byte	0x4
 13654 0015 F3       		.byte	0xf3
 13655 0016 01       		.uleb128 0x1
 13656 0017 50       		.byte	0x50
 13657 0018 9F       		.byte	0x9f
 13658 0019 16000000 		.4byte	.LVL4
 13659 001d 18000000 		.4byte	.LVL5
 13660 0021 0100     		.2byte	0x1
 13661 0023 50       		.byte	0x50
 13662 0024 18000000 		.4byte	.LVL5
 13663 0028 20000000 		.4byte	.LFE86
 13664 002c 0400     		.2byte	0x4
 13665 002e F3       		.byte	0xf3
ARM GAS  C:\Users\164\AppData\Local\Temp\cc3ssgoH.s 			page 280


 13666 002f 01       		.uleb128 0x1
 13667 0030 50       		.byte	0x50
 13668 0031 9F       		.byte	0x9f
 13669 0032 00000000 		.4byte	0
 13670 0036 00000000 		.4byte	0
 13671              	.LLST1:
 13672 003a 00000000 		.4byte	.LVL0
 13673 003e 04000000 		.4byte	.LVL1
 13674 0042 0200     		.2byte	0x2
 13675 0044 30       		.byte	0x30
 13676 0045 9F       		.byte	0x9f
 13677 0046 04000000 		.4byte	.LVL1
 13678 004a 20000000 		.4byte	.LFE86
 13679 004e 0100     		.2byte	0x1
 13680 0050 53       		.byte	0x53
 13681 0051 00000000 		.4byte	0
 13682 0055 00000000 		.4byte	0
 13683              	.LLST2:
 13684 0059 00000000 		.4byte	.LVL6
 13685 005d 12000000 		.4byte	.LVL9
 13686 0061 0100     		.2byte	0x1
 13687 0063 50       		.byte	0x50
 13688 0064 12000000 		.4byte	.LVL9
 13689 0068 66000000 		.4byte	.LFE125
 13690 006c 0100     		.2byte	0x1
 13691 006e 52       		.byte	0x52
 13692 006f 00000000 		.4byte	0
 13693 0073 00000000 		.4byte	0
 13694              	.LLST3:
 13695 0077 02000000 		.4byte	.LVL7
 13696 007b 14000000 		.4byte	.LVL10
 13697 007f 0300     		.2byte	0x3
 13698 0081 09       		.byte	0x9
 13699 0082 FF       		.byte	0xff
 13700 0083 9F       		.byte	0x9f
 13701 0084 14000000 		.4byte	.LVL10
 13702 0088 44000000 		.4byte	.LVL17
 13703 008c 0100     		.2byte	0x1
 13704 008e 50       		.byte	0x50
 13705 008f 46000000 		.4byte	.LVL18
 13706 0093 5C000000 		.4byte	.LVL21
 13707 0097 0100     		.2byte	0x1
 13708 0099 50       		.byte	0x50
 13709 009a 5E000000 		.4byte	.LVL22
 13710 009e 62000000 		.4byte	.LVL23
 13711 00a2 0100     		.2byte	0x1
 13712 00a4 50       		.byte	0x50
 13713 00a5 00000000 		.4byte	0
 13714 00a9 00000000 		.4byte	0
 13715              	.LLST4:
 13716 00ad 02000000 		.4byte	.LVL7
 13717 00b1 14000000 		.4byte	.LVL10
 13718 00b5 0200     		.2byte	0x2
 13719 00b7 30       		.byte	0x30
 13720 00b8 9F       		.byte	0x9f
 13721 00b9 14000000 		.4byte	.LVL10
 13722 00bd 64000000 		.4byte	.LVL24
ARM GAS  C:\Users\164\AppData\Local\Temp\cc3ssgoH.s 			page 281


 13723 00c1 0100     		.2byte	0x1
 13724 00c3 55       		.byte	0x55
 13725 00c4 00000000 		.4byte	0
 13726 00c8 00000000 		.4byte	0
 13727              	.LLST5:
 13728 00cc 0C000000 		.4byte	.LVL8
 13729 00d0 64000000 		.4byte	.LVL24
 13730 00d4 0100     		.2byte	0x1
 13731 00d6 56       		.byte	0x56
 13732 00d7 00000000 		.4byte	0
 13733 00db 00000000 		.4byte	0
 13734              	.LLST6:
 13735 00df 1C000000 		.4byte	.LVL11
 13736 00e3 2A000000 		.4byte	.LVL14
 13737 00e7 0100     		.2byte	0x1
 13738 00e9 53       		.byte	0x53
 13739 00ea 2C000000 		.4byte	.LVL15
 13740 00ee 36000000 		.4byte	.LVL16
 13741 00f2 0100     		.2byte	0x1
 13742 00f4 53       		.byte	0x53
 13743 00f5 00000000 		.4byte	0
 13744 00f9 00000000 		.4byte	0
 13745              	.LLST7:
 13746 00fd 00000000 		.4byte	.LVL25
 13747 0101 1C000000 		.4byte	.LVL30
 13748 0105 0100     		.2byte	0x1
 13749 0107 50       		.byte	0x50
 13750 0108 1E000000 		.4byte	.LVL31
 13751 010c 20000000 		.4byte	.LVL32
 13752 0110 0100     		.2byte	0x1
 13753 0112 50       		.byte	0x50
 13754 0113 24000000 		.4byte	.LVL33
 13755 0117 32000000 		.4byte	.LVL34
 13756 011b 0100     		.2byte	0x1
 13757 011d 50       		.byte	0x50
 13758 011e 36000000 		.4byte	.LVL35
 13759 0122 38000000 		.4byte	.LVL36
 13760 0126 0100     		.2byte	0x1
 13761 0128 50       		.byte	0x50
 13762 0129 3A000000 		.4byte	.LVL37
 13763 012d 46000000 		.4byte	.LVL40
 13764 0131 0100     		.2byte	0x1
 13765 0133 50       		.byte	0x50
 13766 0134 00000000 		.4byte	0
 13767 0138 00000000 		.4byte	0
 13768              	.LLST8:
 13769 013c 00000000 		.4byte	.LVL25
 13770 0140 12000000 		.4byte	.LVL28
 13771 0144 0100     		.2byte	0x1
 13772 0146 51       		.byte	0x51
 13773 0147 12000000 		.4byte	.LVL28
 13774 014b 24000000 		.4byte	.LVL33
 13775 014f 0400     		.2byte	0x4
 13776 0151 F3       		.byte	0xf3
 13777 0152 01       		.uleb128 0x1
 13778 0153 51       		.byte	0x51
 13779 0154 9F       		.byte	0x9f
ARM GAS  C:\Users\164\AppData\Local\Temp\cc3ssgoH.s 			page 282


 13780 0155 24000000 		.4byte	.LVL33
 13781 0159 46000000 		.4byte	.LVL40
 13782 015d 0100     		.2byte	0x1
 13783 015f 51       		.byte	0x51
 13784 0160 46000000 		.4byte	.LVL40
 13785 0164 4A000000 		.4byte	.LFE126
 13786 0168 0400     		.2byte	0x4
 13787 016a F3       		.byte	0xf3
 13788 016b 01       		.uleb128 0x1
 13789 016c 51       		.byte	0x51
 13790 016d 9F       		.byte	0x9f
 13791 016e 00000000 		.4byte	0
 13792 0172 00000000 		.4byte	0
 13793              	.LLST9:
 13794 0176 02000000 		.4byte	.LVL26
 13795 017a 06000000 		.4byte	.LVL27
 13796 017e 0200     		.2byte	0x2
 13797 0180 30       		.byte	0x30
 13798 0181 9F       		.byte	0x9f
 13799 0182 06000000 		.4byte	.LVL27
 13800 0186 3C000000 		.4byte	.LVL38
 13801 018a 0100     		.2byte	0x1
 13802 018c 54       		.byte	0x54
 13803 018d 3E000000 		.4byte	.LVL39
 13804 0191 48000000 		.4byte	.LVL41
 13805 0195 0100     		.2byte	0x1
 13806 0197 54       		.byte	0x54
 13807 0198 00000000 		.4byte	0
 13808 019c 00000000 		.4byte	0
 13809              	.LLST10:
 13810 01a0 12000000 		.4byte	.LVL28
 13811 01a4 1A000000 		.4byte	.LVL29
 13812 01a8 0100     		.2byte	0x1
 13813 01aa 51       		.byte	0x51
 13814 01ab 1A000000 		.4byte	.LVL29
 13815 01af 1E000000 		.4byte	.LVL31
 13816 01b3 0700     		.2byte	0x7
 13817 01b5 F3       		.byte	0xf3
 13818 01b6 01       		.uleb128 0x1
 13819 01b7 51       		.byte	0x51
 13820 01b8 74       		.byte	0x74
 13821 01b9 00       		.sleb128 0
 13822 01ba 1C       		.byte	0x1c
 13823 01bb 9F       		.byte	0x9f
 13824 01bc 1E000000 		.4byte	.LVL31
 13825 01c0 24000000 		.4byte	.LVL33
 13826 01c4 0100     		.2byte	0x1
 13827 01c6 51       		.byte	0x51
 13828 01c7 00000000 		.4byte	0
 13829 01cb 00000000 		.4byte	0
 13830              	.LLST11:
 13831 01cf 00000000 		.4byte	.LVL42
 13832 01d3 09000000 		.4byte	.LVL44-1
 13833 01d7 0100     		.2byte	0x1
 13834 01d9 50       		.byte	0x50
 13835 01da 0A000000 		.4byte	.LVL44
 13836 01de 0C000000 		.4byte	.LVL45
ARM GAS  C:\Users\164\AppData\Local\Temp\cc3ssgoH.s 			page 283


 13837 01e2 0100     		.2byte	0x1
 13838 01e4 54       		.byte	0x54
 13839 01e5 0C000000 		.4byte	.LVL45
 13840 01e9 12000000 		.4byte	.LFE123
 13841 01ed 0100     		.2byte	0x1
 13842 01ef 50       		.byte	0x50
 13843 01f0 00000000 		.4byte	0
 13844 01f4 00000000 		.4byte	0
 13845              	.LLST12:
 13846 01f8 06000000 		.4byte	.LVL43
 13847 01fc 0C000000 		.4byte	.LVL45
 13848 0200 0100     		.2byte	0x1
 13849 0202 54       		.byte	0x54
 13850 0203 00000000 		.4byte	0
 13851 0207 00000000 		.4byte	0
 13852              	.LLST13:
 13853 020b 00000000 		.4byte	.LVL46
 13854 020f 36000000 		.4byte	.LVL50
 13855 0213 0100     		.2byte	0x1
 13856 0215 50       		.byte	0x50
 13857 0216 36000000 		.4byte	.LVL50
 13858 021a E0000000 		.4byte	.LFE124
 13859 021e 0200     		.2byte	0x2
 13860 0220 91       		.byte	0x91
 13861 0221 54       		.sleb128 -44
 13862 0222 00000000 		.4byte	0
 13863 0226 00000000 		.4byte	0
 13864              	.LLST14:
 13865 022a 00000000 		.4byte	.LVL46
 13866 022e 36000000 		.4byte	.LVL50
 13867 0232 0100     		.2byte	0x1
 13868 0234 51       		.byte	0x51
 13869 0235 36000000 		.4byte	.LVL50
 13870 0239 E0000000 		.4byte	.LFE124
 13871 023d 0400     		.2byte	0x4
 13872 023f F3       		.byte	0xf3
 13873 0240 01       		.uleb128 0x1
 13874 0241 51       		.byte	0x51
 13875 0242 9F       		.byte	0x9f
 13876 0243 00000000 		.4byte	0
 13877 0247 00000000 		.4byte	0
 13878              	.LLST15:
 13879 024b 00000000 		.4byte	.LVL46
 13880 024f 36000000 		.4byte	.LVL50
 13881 0253 0100     		.2byte	0x1
 13882 0255 52       		.byte	0x52
 13883 0256 36000000 		.4byte	.LVL50
 13884 025a E0000000 		.4byte	.LFE124
 13885 025e 0400     		.2byte	0x4
 13886 0260 F3       		.byte	0xf3
 13887 0261 01       		.uleb128 0x1
 13888 0262 52       		.byte	0x52
 13889 0263 9F       		.byte	0x9f
 13890 0264 00000000 		.4byte	0
 13891 0268 00000000 		.4byte	0
 13892              	.LLST16:
 13893 026c 0E000000 		.4byte	.LVL49
ARM GAS  C:\Users\164\AppData\Local\Temp\cc3ssgoH.s 			page 284


 13894 0270 36000000 		.4byte	.LVL50
 13895 0274 0200     		.2byte	0x2
 13896 0276 30       		.byte	0x30
 13897 0277 9F       		.byte	0x9f
 13898 0278 36000000 		.4byte	.LVL50
 13899 027c E0000000 		.4byte	.LFE124
 13900 0280 0100     		.2byte	0x1
 13901 0282 5B       		.byte	0x5b
 13902 0283 00000000 		.4byte	0
 13903 0287 00000000 		.4byte	0
 13904              	.LLST17:
 13905 028b 0E000000 		.4byte	.LVL49
 13906 028f 36000000 		.4byte	.LVL50
 13907 0293 0200     		.2byte	0x2
 13908 0295 30       		.byte	0x30
 13909 0296 9F       		.byte	0x9f
 13910 0297 36000000 		.4byte	.LVL50
 13911 029b D2000000 		.4byte	.LVL63
 13912 029f 0100     		.2byte	0x1
 13913 02a1 5A       		.byte	0x5a
 13914 02a2 D4000000 		.4byte	.LVL64
 13915 02a6 E0000000 		.4byte	.LFE124
 13916 02aa 0100     		.2byte	0x1
 13917 02ac 5A       		.byte	0x5a
 13918 02ad 00000000 		.4byte	0
 13919 02b1 00000000 		.4byte	0
 13920              	.LLST18:
 13921 02b5 0E000000 		.4byte	.LVL49
 13922 02b9 36000000 		.4byte	.LVL50
 13923 02bd 0200     		.2byte	0x2
 13924 02bf 30       		.byte	0x30
 13925 02c0 9F       		.byte	0x9f
 13926 02c1 36000000 		.4byte	.LVL50
 13927 02c5 72000000 		.4byte	.LVL52
 13928 02c9 0100     		.2byte	0x1
 13929 02cb 57       		.byte	0x57
 13930 02cc 72000000 		.4byte	.LVL52
 13931 02d0 74000000 		.4byte	.LVL53
 13932 02d4 0100     		.2byte	0x1
 13933 02d6 54       		.byte	0x54
 13934 02d7 74000000 		.4byte	.LVL53
 13935 02db 76000000 		.4byte	.LVL54
 13936 02df 0100     		.2byte	0x1
 13937 02e1 57       		.byte	0x57
 13938 02e2 76000000 		.4byte	.LVL54
 13939 02e6 D4000000 		.4byte	.LVL64
 13940 02ea 0100     		.2byte	0x1
 13941 02ec 54       		.byte	0x54
 13942 02ed D4000000 		.4byte	.LVL64
 13943 02f1 E0000000 		.4byte	.LFE124
 13944 02f5 0100     		.2byte	0x1
 13945 02f7 57       		.byte	0x57
 13946 02f8 00000000 		.4byte	0
 13947 02fc 00000000 		.4byte	0
 13948              	.LLST19:
 13949 0300 4C000000 		.4byte	.LVL51
 13950 0304 74000000 		.4byte	.LVL53
ARM GAS  C:\Users\164\AppData\Local\Temp\cc3ssgoH.s 			page 285


 13951 0308 0100     		.2byte	0x1
 13952 030a 50       		.byte	0x50
 13953 030b 9A000000 		.4byte	.LVL57
 13954 030f B4000000 		.4byte	.LVL58
 13955 0313 0100     		.2byte	0x1
 13956 0315 50       		.byte	0x50
 13957 0316 B4000000 		.4byte	.LVL58
 13958 031a D4000000 		.4byte	.LVL64
 13959 031e 0100     		.2byte	0x1
 13960 0320 58       		.byte	0x58
 13961 0321 00000000 		.4byte	0
 13962 0325 00000000 		.4byte	0
 13963              	.LLST20:
 13964 0329 08000000 		.4byte	.LVL47
 13965 032d 0C000000 		.4byte	.LVL48
 13966 0331 0100     		.2byte	0x1
 13967 0333 51       		.byte	0x51
 13968 0334 00000000 		.4byte	0
 13969 0338 00000000 		.4byte	0
 13970              	.LLST21:
 13971 033c 0C000000 		.4byte	.LVL48
 13972 0340 0E000000 		.4byte	.LVL49
 13973 0344 0100     		.2byte	0x1
 13974 0346 51       		.byte	0x51
 13975 0347 00000000 		.4byte	0
 13976 034b 00000000 		.4byte	0
 13977              	.LLST22:
 13978 034f 76000000 		.4byte	.LVL54
 13979 0353 B8000000 		.4byte	.LVL59
 13980 0357 0100     		.2byte	0x1
 13981 0359 57       		.byte	0x57
 13982 035a 00000000 		.4byte	0
 13983 035e 00000000 		.4byte	0
 13984              	.LLST23:
 13985 0362 90000000 		.4byte	.LVL56
 13986 0366 B8000000 		.4byte	.LVL59
 13987 036a 0100     		.2byte	0x1
 13988 036c 59       		.byte	0x59
 13989 036d 00000000 		.4byte	0
 13990 0371 00000000 		.4byte	0
 13991              	.LLST24:
 13992 0375 C2000000 		.4byte	.LVL60
 13993 0379 D0000000 		.4byte	.LVL62
 13994 037d 0100     		.2byte	0x1
 13995 037f 52       		.byte	0x52
 13996 0380 00000000 		.4byte	0
 13997 0384 00000000 		.4byte	0
 13998              	.LLST25:
 13999 0388 00000000 		.4byte	.LVL65
 14000 038c 0C000000 		.4byte	.LVL69
 14001 0390 0100     		.2byte	0x1
 14002 0392 50       		.byte	0x50
 14003 0393 0C000000 		.4byte	.LVL69
 14004 0397 18000000 		.4byte	.LFE112
 14005 039b 0400     		.2byte	0x4
 14006 039d F3       		.byte	0xf3
 14007 039e 01       		.uleb128 0x1
ARM GAS  C:\Users\164\AppData\Local\Temp\cc3ssgoH.s 			page 286


 14008 039f 50       		.byte	0x50
 14009 03a0 9F       		.byte	0x9f
 14010 03a1 00000000 		.4byte	0
 14011 03a5 00000000 		.4byte	0
 14012              	.LLST26:
 14013 03a9 00000000 		.4byte	.LVL65
 14014 03ad 0F000000 		.4byte	.LVL70-1
 14015 03b1 0100     		.2byte	0x1
 14016 03b3 51       		.byte	0x51
 14017 03b4 0F000000 		.4byte	.LVL70-1
 14018 03b8 18000000 		.4byte	.LFE112
 14019 03bc 0100     		.2byte	0x1
 14020 03be 54       		.byte	0x54
 14021 03bf 00000000 		.4byte	0
 14022 03c3 00000000 		.4byte	0
 14023              	.LLST27:
 14024 03c7 00000000 		.4byte	.LVL65
 14025 03cb 0F000000 		.4byte	.LVL70-1
 14026 03cf 0100     		.2byte	0x1
 14027 03d1 52       		.byte	0x52
 14028 03d2 0F000000 		.4byte	.LVL70-1
 14029 03d6 18000000 		.4byte	.LFE112
 14030 03da 0400     		.2byte	0x4
 14031 03dc F3       		.byte	0xf3
 14032 03dd 01       		.uleb128 0x1
 14033 03de 52       		.byte	0x52
 14034 03df 9F       		.byte	0x9f
 14035 03e0 00000000 		.4byte	0
 14036 03e4 00000000 		.4byte	0
 14037              	.LLST28:
 14038 03e8 04000000 		.4byte	.LVL66
 14039 03ec 08000000 		.4byte	.LVL67
 14040 03f0 0100     		.2byte	0x1
 14041 03f2 51       		.byte	0x51
 14042 03f3 00000000 		.4byte	0
 14043 03f7 00000000 		.4byte	0
 14044              	.LLST29:
 14045 03fb 00000000 		.4byte	.LVL71
 14046 03ff 0A000000 		.4byte	.LVL74
 14047 0403 0100     		.2byte	0x1
 14048 0405 50       		.byte	0x50
 14049 0406 0A000000 		.4byte	.LVL74
 14050 040a 16000000 		.4byte	.LFE101
 14051 040e 0400     		.2byte	0x4
 14052 0410 F3       		.byte	0xf3
 14053 0411 01       		.uleb128 0x1
 14054 0412 50       		.byte	0x50
 14055 0413 9F       		.byte	0x9f
 14056 0414 00000000 		.4byte	0
 14057 0418 00000000 		.4byte	0
 14058              	.LLST30:
 14059 041c 00000000 		.4byte	.LVL71
 14060 0420 0D000000 		.4byte	.LVL75-1
 14061 0424 0100     		.2byte	0x1
 14062 0426 51       		.byte	0x51
 14063 0427 0D000000 		.4byte	.LVL75-1
 14064 042b 16000000 		.4byte	.LFE101
ARM GAS  C:\Users\164\AppData\Local\Temp\cc3ssgoH.s 			page 287


 14065 042f 0100     		.2byte	0x1
 14066 0431 54       		.byte	0x54
 14067 0432 00000000 		.4byte	0
 14068 0436 00000000 		.4byte	0
 14069              	.LLST31:
 14070 043a 00000000 		.4byte	.LVL71
 14071 043e 0D000000 		.4byte	.LVL75-1
 14072 0442 0100     		.2byte	0x1
 14073 0444 52       		.byte	0x52
 14074 0445 0D000000 		.4byte	.LVL75-1
 14075 0449 16000000 		.4byte	.LFE101
 14076 044d 0400     		.2byte	0x4
 14077 044f F3       		.byte	0xf3
 14078 0450 01       		.uleb128 0x1
 14079 0451 52       		.byte	0x52
 14080 0452 9F       		.byte	0x9f
 14081 0453 00000000 		.4byte	0
 14082 0457 00000000 		.4byte	0
 14083              	.LLST32:
 14084 045b 04000000 		.4byte	.LVL72
 14085 045f 08000000 		.4byte	.LVL73
 14086 0463 0100     		.2byte	0x1
 14087 0465 51       		.byte	0x51
 14088 0466 00000000 		.4byte	0
 14089 046a 00000000 		.4byte	0
 14090              	.LLST33:
 14091 046e 00000000 		.4byte	.LVL76
 14092 0472 08000000 		.4byte	.LVL79
 14093 0476 0100     		.2byte	0x1
 14094 0478 50       		.byte	0x50
 14095 0479 08000000 		.4byte	.LVL79
 14096 047d 20000000 		.4byte	.LFE103
 14097 0481 0400     		.2byte	0x4
 14098 0483 F3       		.byte	0xf3
 14099 0484 01       		.uleb128 0x1
 14100 0485 50       		.byte	0x50
 14101 0486 9F       		.byte	0x9f
 14102 0487 00000000 		.4byte	0
 14103 048b 00000000 		.4byte	0
 14104              	.LLST34:
 14105 048f 00000000 		.4byte	.LVL76
 14106 0493 0B000000 		.4byte	.LVL80-1
 14107 0497 0100     		.2byte	0x1
 14108 0499 51       		.byte	0x51
 14109 049a 0B000000 		.4byte	.LVL80-1
 14110 049e 20000000 		.4byte	.LFE103
 14111 04a2 0100     		.2byte	0x1
 14112 04a4 54       		.byte	0x54
 14113 04a5 00000000 		.4byte	0
 14114 04a9 00000000 		.4byte	0
 14115              	.LLST35:
 14116 04ad 00000000 		.4byte	.LVL76
 14117 04b1 0B000000 		.4byte	.LVL80-1
 14118 04b5 0100     		.2byte	0x1
 14119 04b7 52       		.byte	0x52
 14120 04b8 0B000000 		.4byte	.LVL80-1
 14121 04bc 20000000 		.4byte	.LFE103
ARM GAS  C:\Users\164\AppData\Local\Temp\cc3ssgoH.s 			page 288


 14122 04c0 0400     		.2byte	0x4
 14123 04c2 F3       		.byte	0xf3
 14124 04c3 01       		.uleb128 0x1
 14125 04c4 52       		.byte	0x52
 14126 04c5 9F       		.byte	0x9f
 14127 04c6 00000000 		.4byte	0
 14128 04ca 00000000 		.4byte	0
 14129              	.LLST36:
 14130 04ce 04000000 		.4byte	.LVL77
 14131 04d2 06000000 		.4byte	.LVL78
 14132 04d6 0100     		.2byte	0x1
 14133 04d8 51       		.byte	0x51
 14134 04d9 00000000 		.4byte	0
 14135 04dd 00000000 		.4byte	0
 14136              	.LLST37:
 14137 04e1 00000000 		.4byte	.LVL83
 14138 04e5 10000000 		.4byte	.LVL88
 14139 04e9 0100     		.2byte	0x1
 14140 04eb 50       		.byte	0x50
 14141 04ec 10000000 		.4byte	.LVL88
 14142 04f0 13000000 		.4byte	.LVL89-1
 14143 04f4 0100     		.2byte	0x1
 14144 04f6 51       		.byte	0x51
 14145 04f7 13000000 		.4byte	.LVL89-1
 14146 04fb 2E000000 		.4byte	.LFE122
 14147 04ff 0400     		.2byte	0x4
 14148 0501 F3       		.byte	0xf3
 14149 0502 01       		.uleb128 0x1
 14150 0503 50       		.byte	0x50
 14151 0504 9F       		.byte	0x9f
 14152 0505 00000000 		.4byte	0
 14153 0509 00000000 		.4byte	0
 14154              	.LLST38:
 14155 050d 00000000 		.4byte	.LVL83
 14156 0511 0E000000 		.4byte	.LVL87
 14157 0515 0100     		.2byte	0x1
 14158 0517 51       		.byte	0x51
 14159 0518 0E000000 		.4byte	.LVL87
 14160 051c 2E000000 		.4byte	.LFE122
 14161 0520 0100     		.2byte	0x1
 14162 0522 55       		.byte	0x55
 14163 0523 00000000 		.4byte	0
 14164 0527 00000000 		.4byte	0
 14165              	.LLST39:
 14166 052b 00000000 		.4byte	.LVL83
 14167 052f 0C000000 		.4byte	.LVL86
 14168 0533 0100     		.2byte	0x1
 14169 0535 52       		.byte	0x52
 14170 0536 0C000000 		.4byte	.LVL86
 14171 053a 2E000000 		.4byte	.LFE122
 14172 053e 0400     		.2byte	0x4
 14173 0540 F3       		.byte	0xf3
 14174 0541 01       		.uleb128 0x1
 14175 0542 52       		.byte	0x52
 14176 0543 9F       		.byte	0x9f
 14177 0544 00000000 		.4byte	0
 14178 0548 00000000 		.4byte	0
ARM GAS  C:\Users\164\AppData\Local\Temp\cc3ssgoH.s 			page 289


 14179              	.LLST40:
 14180 054c 06000000 		.4byte	.LVL84
 14181 0550 08000000 		.4byte	.LVL85
 14182 0554 0100     		.2byte	0x1
 14183 0556 51       		.byte	0x51
 14184 0557 00000000 		.4byte	0
 14185 055b 00000000 		.4byte	0
 14186              	.LLST41:
 14187 055f 00000000 		.4byte	.LVL91
 14188 0563 18000000 		.4byte	.LVL100
 14189 0567 0100     		.2byte	0x1
 14190 0569 50       		.byte	0x50
 14191 056a 18000000 		.4byte	.LVL100
 14192 056e 2C000000 		.4byte	.LFE102
 14193 0572 0400     		.2byte	0x4
 14194 0574 F3       		.byte	0xf3
 14195 0575 01       		.uleb128 0x1
 14196 0576 50       		.byte	0x50
 14197 0577 9F       		.byte	0x9f
 14198 0578 00000000 		.4byte	0
 14199 057c 00000000 		.4byte	0
 14200              	.LLST42:
 14201 0580 00000000 		.4byte	.LVL91
 14202 0584 16000000 		.4byte	.LVL99
 14203 0588 0100     		.2byte	0x1
 14204 058a 51       		.byte	0x51
 14205 058b 16000000 		.4byte	.LVL99
 14206 058f 2C000000 		.4byte	.LFE102
 14207 0593 0100     		.2byte	0x1
 14208 0595 54       		.byte	0x54
 14209 0596 00000000 		.4byte	0
 14210 059a 00000000 		.4byte	0
 14211              	.LLST43:
 14212 059e 00000000 		.4byte	.LVL91
 14213 05a2 08000000 		.4byte	.LVL94
 14214 05a6 0100     		.2byte	0x1
 14215 05a8 52       		.byte	0x52
 14216 05a9 08000000 		.4byte	.LVL94
 14217 05ad 0E000000 		.4byte	.LVL95
 14218 05b1 0400     		.2byte	0x4
 14219 05b3 F3       		.byte	0xf3
 14220 05b4 01       		.uleb128 0x1
 14221 05b5 52       		.byte	0x52
 14222 05b6 9F       		.byte	0x9f
 14223 05b7 0E000000 		.4byte	.LVL95
 14224 05bb 10000000 		.4byte	.LVL96
 14225 05bf 0100     		.2byte	0x1
 14226 05c1 52       		.byte	0x52
 14227 05c2 10000000 		.4byte	.LVL96
 14228 05c6 2C000000 		.4byte	.LFE102
 14229 05ca 0400     		.2byte	0x4
 14230 05cc F3       		.byte	0xf3
 14231 05cd 01       		.uleb128 0x1
 14232 05ce 52       		.byte	0x52
 14233 05cf 9F       		.byte	0x9f
 14234 05d0 00000000 		.4byte	0
 14235 05d4 00000000 		.4byte	0
ARM GAS  C:\Users\164\AppData\Local\Temp\cc3ssgoH.s 			page 290


 14236              	.LLST44:
 14237 05d8 02000000 		.4byte	.LVL92
 14238 05dc 06000000 		.4byte	.LVL93
 14239 05e0 0200     		.2byte	0x2
 14240 05e2 3A       		.byte	0x3a
 14241 05e3 9F       		.byte	0x9f
 14242 05e4 06000000 		.4byte	.LVL93
 14243 05e8 0E000000 		.4byte	.LVL95
 14244 05ec 0100     		.2byte	0x1
 14245 05ee 53       		.byte	0x53
 14246 05ef 0E000000 		.4byte	.LVL95
 14247 05f3 10000000 		.4byte	.LVL96
 14248 05f7 0200     		.2byte	0x2
 14249 05f9 3A       		.byte	0x3a
 14250 05fa 9F       		.byte	0x9f
 14251 05fb 12000000 		.4byte	.LVL97
 14252 05ff 1B000000 		.4byte	.LVL101-1
 14253 0603 0100     		.2byte	0x1
 14254 0605 53       		.byte	0x53
 14255 0606 00000000 		.4byte	0
 14256 060a 00000000 		.4byte	0
 14257              	.LLST45:
 14258 060e 1E000000 		.4byte	.LVL102
 14259 0612 20000000 		.4byte	.LVL103
 14260 0616 0100     		.2byte	0x1
 14261 0618 50       		.byte	0x50
 14262 0619 20000000 		.4byte	.LVL103
 14263 061d 2C000000 		.4byte	.LFE102
 14264 0621 0100     		.2byte	0x1
 14265 0623 55       		.byte	0x55
 14266 0624 00000000 		.4byte	0
 14267 0628 00000000 		.4byte	0
 14268              	.LLST46:
 14269 062c 12000000 		.4byte	.LVL97
 14270 0630 14000000 		.4byte	.LVL98
 14271 0634 0100     		.2byte	0x1
 14272 0636 54       		.byte	0x54
 14273 0637 00000000 		.4byte	0
 14274 063b 00000000 		.4byte	0
 14275              	.LLST48:
 14276 063f 00000000 		.4byte	.LVL105
 14277 0643 16000000 		.4byte	.LVL109
 14278 0647 0100     		.2byte	0x1
 14279 0649 50       		.byte	0x50
 14280 064a 16000000 		.4byte	.LVL109
 14281 064e 1C000000 		.4byte	.LVL111
 14282 0652 0400     		.2byte	0x4
 14283 0654 F3       		.byte	0xf3
 14284 0655 01       		.uleb128 0x1
 14285 0656 50       		.byte	0x50
 14286 0657 9F       		.byte	0x9f
 14287 0658 1C000000 		.4byte	.LVL111
 14288 065c 20000000 		.4byte	.LVL112
 14289 0660 0100     		.2byte	0x1
 14290 0662 50       		.byte	0x50
 14291 0663 20000000 		.4byte	.LVL112
 14292 0667 50000000 		.4byte	.LFE130
ARM GAS  C:\Users\164\AppData\Local\Temp\cc3ssgoH.s 			page 291


 14293 066b 0400     		.2byte	0x4
 14294 066d F3       		.byte	0xf3
 14295 066e 01       		.uleb128 0x1
 14296 066f 50       		.byte	0x50
 14297 0670 9F       		.byte	0x9f
 14298 0671 00000000 		.4byte	0
 14299 0675 00000000 		.4byte	0
 14300              	.LLST49:
 14301 0679 00000000 		.4byte	.LVL105
 14302 067d 14000000 		.4byte	.LVL108
 14303 0681 0100     		.2byte	0x1
 14304 0683 51       		.byte	0x51
 14305 0684 14000000 		.4byte	.LVL108
 14306 0688 1C000000 		.4byte	.LVL111
 14307 068c 0400     		.2byte	0x4
 14308 068e F3       		.byte	0xf3
 14309 068f 01       		.uleb128 0x1
 14310 0690 51       		.byte	0x51
 14311 0691 9F       		.byte	0x9f
 14312 0692 1C000000 		.4byte	.LVL111
 14313 0696 22000000 		.4byte	.LVL113
 14314 069a 0100     		.2byte	0x1
 14315 069c 51       		.byte	0x51
 14316 069d 22000000 		.4byte	.LVL113
 14317 06a1 4C000000 		.4byte	.LVL120
 14318 06a5 0100     		.2byte	0x1
 14319 06a7 54       		.byte	0x54
 14320 06a8 4C000000 		.4byte	.LVL120
 14321 06ac 50000000 		.4byte	.LFE130
 14322 06b0 0400     		.2byte	0x4
 14323 06b2 F3       		.byte	0xf3
 14324 06b3 01       		.uleb128 0x1
 14325 06b4 51       		.byte	0x51
 14326 06b5 9F       		.byte	0x9f
 14327 06b6 00000000 		.4byte	0
 14328 06ba 00000000 		.4byte	0
 14329              	.LLST50:
 14330 06be 00000000 		.4byte	.LVL105
 14331 06c2 12000000 		.4byte	.LVL107
 14332 06c6 0100     		.2byte	0x1
 14333 06c8 52       		.byte	0x52
 14334 06c9 12000000 		.4byte	.LVL107
 14335 06cd 1C000000 		.4byte	.LVL111
 14336 06d1 0400     		.2byte	0x4
 14337 06d3 F3       		.byte	0xf3
 14338 06d4 01       		.uleb128 0x1
 14339 06d5 52       		.byte	0x52
 14340 06d6 9F       		.byte	0x9f
 14341 06d7 1C000000 		.4byte	.LVL111
 14342 06db 24000000 		.4byte	.LVL114
 14343 06df 0100     		.2byte	0x1
 14344 06e1 52       		.byte	0x52
 14345 06e2 24000000 		.4byte	.LVL114
 14346 06e6 50000000 		.4byte	.LFE130
 14347 06ea 0400     		.2byte	0x4
 14348 06ec F3       		.byte	0xf3
 14349 06ed 01       		.uleb128 0x1
ARM GAS  C:\Users\164\AppData\Local\Temp\cc3ssgoH.s 			page 292


 14350 06ee 52       		.byte	0x52
 14351 06ef 9F       		.byte	0x9f
 14352 06f0 00000000 		.4byte	0
 14353 06f4 00000000 		.4byte	0
 14354              	.LLST51:
 14355 06f8 36000000 		.4byte	.LVL116
 14356 06fc 38000000 		.4byte	.LVL117
 14357 0700 0100     		.2byte	0x1
 14358 0702 55       		.byte	0x55
 14359 0703 3A000000 		.4byte	.LVL118
 14360 0707 4C000000 		.4byte	.LVL120
 14361 070b 0100     		.2byte	0x1
 14362 070d 55       		.byte	0x55
 14363 070e 00000000 		.4byte	0
 14364 0712 00000000 		.4byte	0
 14365              	.LLST52:
 14366 0716 10000000 		.4byte	.LVL106
 14367 071a 1C000000 		.4byte	.LVL111
 14368 071e 0600     		.2byte	0x6
 14369 0720 03       		.byte	0x3
 14370 0721 00000000 		.4byte	.LC0
 14371 0725 9F       		.byte	0x9f
 14372 0726 00000000 		.4byte	0
 14373 072a 00000000 		.4byte	0
 14374              	.LLST53:
 14375 072e 1C000000 		.4byte	.LVL111
 14376 0732 20000000 		.4byte	.LVL112
 14377 0736 0100     		.2byte	0x1
 14378 0738 51       		.byte	0x51
 14379 0739 00000000 		.4byte	0
 14380 073d 00000000 		.4byte	0
 14381              	.LLST54:
 14382 0741 20000000 		.4byte	.LVL112
 14383 0745 22000000 		.4byte	.LVL113
 14384 0749 0300     		.2byte	0x3
 14385 074b 71       		.byte	0x71
 14386 074c 10       		.sleb128 16
 14387 074d 9F       		.byte	0x9f
 14388 074e 22000000 		.4byte	.LVL113
 14389 0752 24000000 		.4byte	.LVL114
 14390 0756 0300     		.2byte	0x3
 14391 0758 74       		.byte	0x74
 14392 0759 10       		.sleb128 16
 14393 075a 9F       		.byte	0x9f
 14394 075b 00000000 		.4byte	0
 14395 075f 00000000 		.4byte	0
 14396              	.LLST55:
 14397 0763 00000000 		.4byte	.LVL121
 14398 0767 16000000 		.4byte	.LVL125
 14399 076b 0100     		.2byte	0x1
 14400 076d 50       		.byte	0x50
 14401 076e 16000000 		.4byte	.LVL125
 14402 0772 1C000000 		.4byte	.LVL127
 14403 0776 0400     		.2byte	0x4
 14404 0778 F3       		.byte	0xf3
 14405 0779 01       		.uleb128 0x1
 14406 077a 50       		.byte	0x50
ARM GAS  C:\Users\164\AppData\Local\Temp\cc3ssgoH.s 			page 293


 14407 077b 9F       		.byte	0x9f
 14408 077c 1C000000 		.4byte	.LVL127
 14409 0780 20000000 		.4byte	.LVL129
 14410 0784 0100     		.2byte	0x1
 14411 0786 50       		.byte	0x50
 14412 0787 20000000 		.4byte	.LVL129
 14413 078b 54000000 		.4byte	.LFE131
 14414 078f 0400     		.2byte	0x4
 14415 0791 F3       		.byte	0xf3
 14416 0792 01       		.uleb128 0x1
 14417 0793 50       		.byte	0x50
 14418 0794 9F       		.byte	0x9f
 14419 0795 00000000 		.4byte	0
 14420 0799 00000000 		.4byte	0
 14421              	.LLST56:
 14422 079d 00000000 		.4byte	.LVL121
 14423 07a1 14000000 		.4byte	.LVL124
 14424 07a5 0100     		.2byte	0x1
 14425 07a7 51       		.byte	0x51
 14426 07a8 14000000 		.4byte	.LVL124
 14427 07ac 1C000000 		.4byte	.LVL127
 14428 07b0 0400     		.2byte	0x4
 14429 07b2 F3       		.byte	0xf3
 14430 07b3 01       		.uleb128 0x1
 14431 07b4 51       		.byte	0x51
 14432 07b5 9F       		.byte	0x9f
 14433 07b6 1C000000 		.4byte	.LVL127
 14434 07ba 1E000000 		.4byte	.LVL128
 14435 07be 0100     		.2byte	0x1
 14436 07c0 51       		.byte	0x51
 14437 07c1 1E000000 		.4byte	.LVL128
 14438 07c5 4E000000 		.4byte	.LVL140
 14439 07c9 0100     		.2byte	0x1
 14440 07cb 54       		.byte	0x54
 14441 07cc 4E000000 		.4byte	.LVL140
 14442 07d0 54000000 		.4byte	.LFE131
 14443 07d4 0400     		.2byte	0x4
 14444 07d6 F3       		.byte	0xf3
 14445 07d7 01       		.uleb128 0x1
 14446 07d8 51       		.byte	0x51
 14447 07d9 9F       		.byte	0x9f
 14448 07da 00000000 		.4byte	0
 14449 07de 00000000 		.4byte	0
 14450              	.LLST57:
 14451 07e2 00000000 		.4byte	.LVL121
 14452 07e6 12000000 		.4byte	.LVL123
 14453 07ea 0100     		.2byte	0x1
 14454 07ec 52       		.byte	0x52
 14455 07ed 12000000 		.4byte	.LVL123
 14456 07f1 1C000000 		.4byte	.LVL127
 14457 07f5 0400     		.2byte	0x4
 14458 07f7 F3       		.byte	0xf3
 14459 07f8 01       		.uleb128 0x1
 14460 07f9 52       		.byte	0x52
 14461 07fa 9F       		.byte	0x9f
 14462 07fb 1C000000 		.4byte	.LVL127
 14463 07ff 24000000 		.4byte	.LVL130
ARM GAS  C:\Users\164\AppData\Local\Temp\cc3ssgoH.s 			page 294


 14464 0803 0100     		.2byte	0x1
 14465 0805 52       		.byte	0x52
 14466 0806 24000000 		.4byte	.LVL130
 14467 080a 54000000 		.4byte	.LFE131
 14468 080e 0400     		.2byte	0x4
 14469 0810 F3       		.byte	0xf3
 14470 0811 01       		.uleb128 0x1
 14471 0812 52       		.byte	0x52
 14472 0813 9F       		.byte	0x9f
 14473 0814 00000000 		.4byte	0
 14474 0818 00000000 		.4byte	0
 14475              	.LLST58:
 14476 081c 38000000 		.4byte	.LVL136
 14477 0820 3A000000 		.4byte	.LVL137
 14478 0824 0100     		.2byte	0x1
 14479 0826 55       		.byte	0x55
 14480 0827 3C000000 		.4byte	.LVL138
 14481 082b 4E000000 		.4byte	.LVL140
 14482 082f 0100     		.2byte	0x1
 14483 0831 55       		.byte	0x55
 14484 0832 00000000 		.4byte	0
 14485 0836 00000000 		.4byte	0
 14486              	.LLST59:
 14487 083a 24000000 		.4byte	.LVL130
 14488 083e 26000000 		.4byte	.LVL131
 14489 0842 0600     		.2byte	0x6
 14490 0844 70       		.byte	0x70
 14491 0845 00       		.sleb128 0
 14492 0846 72       		.byte	0x72
 14493 0847 00       		.sleb128 0
 14494 0848 1C       		.byte	0x1c
 14495 0849 9F       		.byte	0x9f
 14496 084a 26000000 		.4byte	.LVL131
 14497 084e 2E000000 		.4byte	.LVL134
 14498 0852 0100     		.2byte	0x1
 14499 0854 50       		.byte	0x50
 14500 0855 2E000000 		.4byte	.LVL134
 14501 0859 31000000 		.4byte	.LVL135-1
 14502 085d 0F00     		.2byte	0xf
 14503 085f 74       		.byte	0x74
 14504 0860 08       		.sleb128 8
 14505 0861 06       		.byte	0x6
 14506 0862 23       		.byte	0x23
 14507 0863 04       		.uleb128 0x4
 14508 0864 94       		.byte	0x94
 14509 0865 02       		.byte	0x2
 14510 0866 0A       		.byte	0xa
 14511 0867 FFFF     		.2byte	0xffff
 14512 0869 1A       		.byte	0x1a
 14513 086a 72       		.byte	0x72
 14514 086b 00       		.sleb128 0
 14515 086c 1C       		.byte	0x1c
 14516 086d 9F       		.byte	0x9f
 14517 086e 3A000000 		.4byte	.LVL137
 14518 0872 3C000000 		.4byte	.LVL138
 14519 0876 0100     		.2byte	0x1
 14520 0878 50       		.byte	0x50
ARM GAS  C:\Users\164\AppData\Local\Temp\cc3ssgoH.s 			page 295


 14521 0879 00000000 		.4byte	0
 14522 087d 00000000 		.4byte	0
 14523              	.LLST60:
 14524 0881 10000000 		.4byte	.LVL122
 14525 0885 1C000000 		.4byte	.LVL127
 14526 0889 0600     		.2byte	0x6
 14527 088b 03       		.byte	0x3
 14528 088c 00000000 		.4byte	.LC0
 14529 0890 9F       		.byte	0x9f
 14530 0891 00000000 		.4byte	0
 14531 0895 00000000 		.4byte	0
 14532              	.LLST61:
 14533 0899 1C000000 		.4byte	.LVL127
 14534 089d 1E000000 		.4byte	.LVL128
 14535 08a1 0100     		.2byte	0x1
 14536 08a3 51       		.byte	0x51
 14537 08a4 1E000000 		.4byte	.LVL128
 14538 08a8 20000000 		.4byte	.LVL129
 14539 08ac 0100     		.2byte	0x1
 14540 08ae 54       		.byte	0x54
 14541 08af 00000000 		.4byte	0
 14542 08b3 00000000 		.4byte	0
 14543              	.LLST62:
 14544 08b7 20000000 		.4byte	.LVL129
 14545 08bb 24000000 		.4byte	.LVL130
 14546 08bf 0300     		.2byte	0x3
 14547 08c1 74       		.byte	0x74
 14548 08c2 10       		.sleb128 16
 14549 08c3 9F       		.byte	0x9f
 14550 08c4 00000000 		.4byte	0
 14551 08c8 00000000 		.4byte	0
 14552              	.LLST63:
 14553 08cc 28000000 		.4byte	.LVL132
 14554 08d0 2A000000 		.4byte	.LVL133
 14555 08d4 0100     		.2byte	0x1
 14556 08d6 54       		.byte	0x54
 14557 08d7 00000000 		.4byte	0
 14558 08db 00000000 		.4byte	0
 14559              	.LLST64:
 14560 08df 00000000 		.4byte	.LVL141
 14561 08e3 24000000 		.4byte	.LVL145
 14562 08e7 0100     		.2byte	0x1
 14563 08e9 50       		.byte	0x50
 14564 08ea 24000000 		.4byte	.LVL145
 14565 08ee 2E000000 		.4byte	.LVL147
 14566 08f2 0400     		.2byte	0x4
 14567 08f4 F3       		.byte	0xf3
 14568 08f5 01       		.uleb128 0x1
 14569 08f6 50       		.byte	0x50
 14570 08f7 9F       		.byte	0x9f
 14571 08f8 2E000000 		.4byte	.LVL147
 14572 08fc 35000000 		.4byte	.LVL150-1
 14573 0900 0100     		.2byte	0x1
 14574 0902 50       		.byte	0x50
 14575 0903 35000000 		.4byte	.LVL150-1
 14576 0907 54000000 		.4byte	.LVL156
 14577 090b 0100     		.2byte	0x1
ARM GAS  C:\Users\164\AppData\Local\Temp\cc3ssgoH.s 			page 296


 14578 090d 54       		.byte	0x54
 14579 090e 54000000 		.4byte	.LVL156
 14580 0912 B4000000 		.4byte	.LVL171
 14581 0916 0400     		.2byte	0x4
 14582 0918 F3       		.byte	0xf3
 14583 0919 01       		.uleb128 0x1
 14584 091a 50       		.byte	0x50
 14585 091b 9F       		.byte	0x9f
 14586 091c B4000000 		.4byte	.LVL171
 14587 0920 B6000000 		.4byte	.LVL172
 14588 0924 0100     		.2byte	0x1
 14589 0926 54       		.byte	0x54
 14590 0927 B6000000 		.4byte	.LVL172
 14591 092b C0000000 		.4byte	.LFE127
 14592 092f 0400     		.2byte	0x4
 14593 0931 F3       		.byte	0xf3
 14594 0932 01       		.uleb128 0x1
 14595 0933 50       		.byte	0x50
 14596 0934 9F       		.byte	0x9f
 14597 0935 00000000 		.4byte	0
 14598 0939 00000000 		.4byte	0
 14599              	.LLST65:
 14600 093d 00000000 		.4byte	.LVL141
 14601 0941 22000000 		.4byte	.LVL144
 14602 0945 0100     		.2byte	0x1
 14603 0947 51       		.byte	0x51
 14604 0948 22000000 		.4byte	.LVL144
 14605 094c 2E000000 		.4byte	.LVL147
 14606 0950 0400     		.2byte	0x4
 14607 0952 F3       		.byte	0xf3
 14608 0953 01       		.uleb128 0x1
 14609 0954 51       		.byte	0x51
 14610 0955 9F       		.byte	0x9f
 14611 0956 2E000000 		.4byte	.LVL147
 14612 095a 32000000 		.4byte	.LVL149
 14613 095e 0100     		.2byte	0x1
 14614 0960 51       		.byte	0x51
 14615 0961 32000000 		.4byte	.LVL149
 14616 0965 B6000000 		.4byte	.LVL172
 14617 0969 0100     		.2byte	0x1
 14618 096b 5B       		.byte	0x5b
 14619 096c B6000000 		.4byte	.LVL172
 14620 0970 C0000000 		.4byte	.LFE127
 14621 0974 0400     		.2byte	0x4
 14622 0976 F3       		.byte	0xf3
 14623 0977 01       		.uleb128 0x1
 14624 0978 51       		.byte	0x51
 14625 0979 9F       		.byte	0x9f
 14626 097a 00000000 		.4byte	0
 14627 097e 00000000 		.4byte	0
 14628              	.LLST66:
 14629 0982 00000000 		.4byte	.LVL141
 14630 0986 20000000 		.4byte	.LVL143
 14631 098a 0100     		.2byte	0x1
 14632 098c 52       		.byte	0x52
 14633 098d 20000000 		.4byte	.LVL143
 14634 0991 2E000000 		.4byte	.LVL147
ARM GAS  C:\Users\164\AppData\Local\Temp\cc3ssgoH.s 			page 297


 14635 0995 0400     		.2byte	0x4
 14636 0997 F3       		.byte	0xf3
 14637 0998 01       		.uleb128 0x1
 14638 0999 52       		.byte	0x52
 14639 099a 9F       		.byte	0x9f
 14640 099b 2E000000 		.4byte	.LVL147
 14641 099f 30000000 		.4byte	.LVL148
 14642 09a3 0100     		.2byte	0x1
 14643 09a5 52       		.byte	0x52
 14644 09a6 30000000 		.4byte	.LVL148
 14645 09aa C0000000 		.4byte	.LFE127
 14646 09ae 0400     		.2byte	0x4
 14647 09b0 F3       		.byte	0xf3
 14648 09b1 01       		.uleb128 0x1
 14649 09b2 52       		.byte	0x52
 14650 09b3 9F       		.byte	0x9f
 14651 09b4 00000000 		.4byte	0
 14652 09b8 00000000 		.4byte	0
 14653              	.LLST67:
 14654 09bc 36000000 		.4byte	.LVL150
 14655 09c0 44000000 		.4byte	.LVL151
 14656 09c4 0100     		.2byte	0x1
 14657 09c6 50       		.byte	0x50
 14658 09c7 44000000 		.4byte	.LVL151
 14659 09cb B4000000 		.4byte	.LVL171
 14660 09cf 0200     		.2byte	0x2
 14661 09d1 91       		.byte	0x91
 14662 09d2 54       		.sleb128 -44
 14663 09d3 B4000000 		.4byte	.LVL171
 14664 09d7 B6000000 		.4byte	.LVL172
 14665 09db 0100     		.2byte	0x1
 14666 09dd 50       		.byte	0x50
 14667 09de 00000000 		.4byte	0
 14668 09e2 00000000 		.4byte	0
 14669              	.LLST68:
 14670 09e6 4A000000 		.4byte	.LVL153
 14671 09ea 58000000 		.4byte	.LVL157
 14672 09ee 0100     		.2byte	0x1
 14673 09f0 50       		.byte	0x50
 14674 09f1 58000000 		.4byte	.LVL157
 14675 09f5 B4000000 		.4byte	.LVL171
 14676 09f9 0100     		.2byte	0x1
 14677 09fb 58       		.byte	0x58
 14678 09fc 00000000 		.4byte	0
 14679 0a00 00000000 		.4byte	0
 14680              	.LLST69:
 14681 0a04 4A000000 		.4byte	.LVL153
 14682 0a08 58000000 		.4byte	.LVL157
 14683 0a0c 0200     		.2byte	0x2
 14684 0a0e 30       		.byte	0x30
 14685 0a0f 9F       		.byte	0x9f
 14686 0a10 58000000 		.4byte	.LVL157
 14687 0a14 66000000 		.4byte	.LVL159
 14688 0a18 0100     		.2byte	0x1
 14689 0a1a 5A       		.byte	0x5a
 14690 0a1b 66000000 		.4byte	.LVL159
 14691 0a1f 8E000000 		.4byte	.LVL167
ARM GAS  C:\Users\164\AppData\Local\Temp\cc3ssgoH.s 			page 298


 14692 0a23 0200     		.2byte	0x2
 14693 0a25 31       		.byte	0x31
 14694 0a26 9F       		.byte	0x9f
 14695 0a27 8E000000 		.4byte	.LVL167
 14696 0a2b B4000000 		.4byte	.LVL171
 14697 0a2f 0100     		.2byte	0x1
 14698 0a31 5A       		.byte	0x5a
 14699 0a32 00000000 		.4byte	0
 14700 0a36 00000000 		.4byte	0
 14701              	.LLST70:
 14702 0a3a 58000000 		.4byte	.LVL157
 14703 0a3e B4000000 		.4byte	.LVL171
 14704 0a42 0100     		.2byte	0x1
 14705 0a44 57       		.byte	0x57
 14706 0a45 00000000 		.4byte	0
 14707 0a49 00000000 		.4byte	0
 14708              	.LLST71:
 14709 0a4d 52000000 		.4byte	.LVL155
 14710 0a51 58000000 		.4byte	.LVL157
 14711 0a55 0200     		.2byte	0x2
 14712 0a57 30       		.byte	0x30
 14713 0a58 9F       		.byte	0x9f
 14714 0a59 58000000 		.4byte	.LVL157
 14715 0a5d B4000000 		.4byte	.LVL171
 14716 0a61 0100     		.2byte	0x1
 14717 0a63 54       		.byte	0x54
 14718 0a64 00000000 		.4byte	0
 14719 0a68 00000000 		.4byte	0
 14720              	.LLST72:
 14721 0a6c 1E000000 		.4byte	.LVL142
 14722 0a70 2E000000 		.4byte	.LVL147
 14723 0a74 0600     		.2byte	0x6
 14724 0a76 03       		.byte	0x3
 14725 0a77 00000000 		.4byte	.LC0
 14726 0a7b 9F       		.byte	0x9f
 14727 0a7c 00000000 		.4byte	0
 14728 0a80 00000000 		.4byte	0
 14729              	.LLST73:
 14730 0a84 4A000000 		.4byte	.LVL153
 14731 0a88 50000000 		.4byte	.LVL154
 14732 0a8c 0100     		.2byte	0x1
 14733 0a8e 5B       		.byte	0x5b
 14734 0a8f 00000000 		.4byte	0
 14735 0a93 00000000 		.4byte	0
 14736              	.LLST74:
 14737 0a97 50000000 		.4byte	.LVL154
 14738 0a9b 52000000 		.4byte	.LVL155
 14739 0a9f 0100     		.2byte	0x1
 14740 0aa1 5B       		.byte	0x5b
 14741 0aa2 00000000 		.4byte	0
 14742 0aa6 00000000 		.4byte	0
 14743              	.LLST75:
 14744 0aaa 62000000 		.4byte	.LVL158
 14745 0aae 74000000 		.4byte	.LVL160
 14746 0ab2 0100     		.2byte	0x1
 14747 0ab4 50       		.byte	0x50
 14748 0ab5 82000000 		.4byte	.LVL164
ARM GAS  C:\Users\164\AppData\Local\Temp\cc3ssgoH.s 			page 299


 14749 0ab9 84000000 		.4byte	.LVL165
 14750 0abd 0100     		.2byte	0x1
 14751 0abf 50       		.byte	0x50
 14752 0ac0 84000000 		.4byte	.LVL165
 14753 0ac4 87000000 		.4byte	.LVL166-1
 14754 0ac8 0100     		.2byte	0x1
 14755 0aca 51       		.byte	0x51
 14756 0acb 00000000 		.4byte	0
 14757 0acf 00000000 		.4byte	0
 14758              	.LLST76:
 14759 0ad3 00000000 		.4byte	.LVL173
 14760 0ad7 07000000 		.4byte	.LVL174-1
 14761 0adb 0100     		.2byte	0x1
 14762 0add 50       		.byte	0x50
 14763 0ade 07000000 		.4byte	.LVL174-1
 14764 0ae2 16000000 		.4byte	.LFE129
 14765 0ae6 0400     		.2byte	0x4
 14766 0ae8 F3       		.byte	0xf3
 14767 0ae9 01       		.uleb128 0x1
 14768 0aea 50       		.byte	0x50
 14769 0aeb 9F       		.byte	0x9f
 14770 0aec 00000000 		.4byte	0
 14771 0af0 00000000 		.4byte	0
 14772              	.LLST77:
 14773 0af4 00000000 		.4byte	.LVL173
 14774 0af8 07000000 		.4byte	.LVL174-1
 14775 0afc 0100     		.2byte	0x1
 14776 0afe 51       		.byte	0x51
 14777 0aff 07000000 		.4byte	.LVL174-1
 14778 0b03 16000000 		.4byte	.LFE129
 14779 0b07 0100     		.2byte	0x1
 14780 0b09 54       		.byte	0x54
 14781 0b0a 00000000 		.4byte	0
 14782 0b0e 00000000 		.4byte	0
 14783              	.LLST78:
 14784 0b12 00000000 		.4byte	.LVL173
 14785 0b16 07000000 		.4byte	.LVL174-1
 14786 0b1a 0100     		.2byte	0x1
 14787 0b1c 52       		.byte	0x52
 14788 0b1d 07000000 		.4byte	.LVL174-1
 14789 0b21 16000000 		.4byte	.LFE129
 14790 0b25 0400     		.2byte	0x4
 14791 0b27 F3       		.byte	0xf3
 14792 0b28 01       		.uleb128 0x1
 14793 0b29 52       		.byte	0x52
 14794 0b2a 9F       		.byte	0x9f
 14795 0b2b 00000000 		.4byte	0
 14796 0b2f 00000000 		.4byte	0
 14797              	.LLST79:
 14798 0b33 08000000 		.4byte	.LVL174
 14799 0b37 0C000000 		.4byte	.LVL175
 14800 0b3b 0100     		.2byte	0x1
 14801 0b3d 50       		.byte	0x50
 14802 0b3e 00000000 		.4byte	0
 14803 0b42 00000000 		.4byte	0
 14804              	.LLST80:
 14805 0b46 00000000 		.4byte	.LVL177
ARM GAS  C:\Users\164\AppData\Local\Temp\cc3ssgoH.s 			page 300


 14806 0b4a 50000000 		.4byte	.LVL187
 14807 0b4e 0100     		.2byte	0x1
 14808 0b50 50       		.byte	0x50
 14809 0b51 50000000 		.4byte	.LVL187
 14810 0b55 58000000 		.4byte	.LVL189
 14811 0b59 0400     		.2byte	0x4
 14812 0b5b F3       		.byte	0xf3
 14813 0b5c 01       		.uleb128 0x1
 14814 0b5d 50       		.byte	0x50
 14815 0b5e 9F       		.byte	0x9f
 14816 0b5f 58000000 		.4byte	.LVL189
 14817 0b63 86000000 		.4byte	.LVL197
 14818 0b67 0100     		.2byte	0x1
 14819 0b69 50       		.byte	0x50
 14820 0b6a 86000000 		.4byte	.LVL197
 14821 0b6e 8E000000 		.4byte	.LVL199
 14822 0b72 0400     		.2byte	0x4
 14823 0b74 F3       		.byte	0xf3
 14824 0b75 01       		.uleb128 0x1
 14825 0b76 50       		.byte	0x50
 14826 0b77 9F       		.byte	0x9f
 14827 0b78 8E000000 		.4byte	.LVL199
 14828 0b7c 9B000000 		.4byte	.LVL201-1
 14829 0b80 0100     		.2byte	0x1
 14830 0b82 50       		.byte	0x50
 14831 0b83 9B000000 		.4byte	.LVL201-1
 14832 0b87 E0000000 		.4byte	.LFE106
 14833 0b8b 0400     		.2byte	0x4
 14834 0b8d F3       		.byte	0xf3
 14835 0b8e 01       		.uleb128 0x1
 14836 0b8f 50       		.byte	0x50
 14837 0b90 9F       		.byte	0x9f
 14838 0b91 00000000 		.4byte	0
 14839 0b95 00000000 		.4byte	0
 14840              	.LLST81:
 14841 0b99 00000000 		.4byte	.LVL177
 14842 0b9d 4E000000 		.4byte	.LVL186
 14843 0ba1 0100     		.2byte	0x1
 14844 0ba3 51       		.byte	0x51
 14845 0ba4 4E000000 		.4byte	.LVL186
 14846 0ba8 58000000 		.4byte	.LVL189
 14847 0bac 0100     		.2byte	0x1
 14848 0bae 54       		.byte	0x54
 14849 0baf 58000000 		.4byte	.LVL189
 14850 0bb3 84000000 		.4byte	.LVL196
 14851 0bb7 0100     		.2byte	0x1
 14852 0bb9 51       		.byte	0x51
 14853 0bba 84000000 		.4byte	.LVL196
 14854 0bbe 8E000000 		.4byte	.LVL199
 14855 0bc2 0100     		.2byte	0x1
 14856 0bc4 54       		.byte	0x54
 14857 0bc5 8E000000 		.4byte	.LVL199
 14858 0bc9 98000000 		.4byte	.LVL200
 14859 0bcd 0100     		.2byte	0x1
 14860 0bcf 51       		.byte	0x51
 14861 0bd0 98000000 		.4byte	.LVL200
 14862 0bd4 D6000000 		.4byte	.LVL208
ARM GAS  C:\Users\164\AppData\Local\Temp\cc3ssgoH.s 			page 301


 14863 0bd8 0100     		.2byte	0x1
 14864 0bda 54       		.byte	0x54
 14865 0bdb D6000000 		.4byte	.LVL208
 14866 0bdf E0000000 		.4byte	.LFE106
 14867 0be3 0400     		.2byte	0x4
 14868 0be5 F3       		.byte	0xf3
 14869 0be6 01       		.uleb128 0x1
 14870 0be7 51       		.byte	0x51
 14871 0be8 9F       		.byte	0x9f
 14872 0be9 00000000 		.4byte	0
 14873 0bed 00000000 		.4byte	0
 14874              	.LLST82:
 14875 0bf1 00000000 		.4byte	.LVL177
 14876 0bf5 4C000000 		.4byte	.LVL185
 14877 0bf9 0100     		.2byte	0x1
 14878 0bfb 52       		.byte	0x52
 14879 0bfc 4C000000 		.4byte	.LVL185
 14880 0c00 58000000 		.4byte	.LVL189
 14881 0c04 0400     		.2byte	0x4
 14882 0c06 F3       		.byte	0xf3
 14883 0c07 01       		.uleb128 0x1
 14884 0c08 52       		.byte	0x52
 14885 0c09 9F       		.byte	0x9f
 14886 0c0a 58000000 		.4byte	.LVL189
 14887 0c0e 60000000 		.4byte	.LVL191
 14888 0c12 0100     		.2byte	0x1
 14889 0c14 52       		.byte	0x52
 14890 0c15 60000000 		.4byte	.LVL191
 14891 0c19 E0000000 		.4byte	.LFE106
 14892 0c1d 0400     		.2byte	0x4
 14893 0c1f F3       		.byte	0xf3
 14894 0c20 01       		.uleb128 0x1
 14895 0c21 52       		.byte	0x52
 14896 0c22 9F       		.byte	0x9f
 14897 0c23 00000000 		.4byte	0
 14898 0c27 00000000 		.4byte	0
 14899              	.LLST83:
 14900 0c2b 1C000000 		.4byte	.LVL178
 14901 0c2f 24000000 		.4byte	.LVL180
 14902 0c33 0100     		.2byte	0x1
 14903 0c35 55       		.byte	0x55
 14904 0c36 42000000 		.4byte	.LVL181
 14905 0c3a 4A000000 		.4byte	.LVL184
 14906 0c3e 0100     		.2byte	0x1
 14907 0c40 55       		.byte	0x55
 14908 0c41 58000000 		.4byte	.LVL189
 14909 0c45 D6000000 		.4byte	.LVL208
 14910 0c49 0100     		.2byte	0x1
 14911 0c4b 55       		.byte	0x55
 14912 0c4c 00000000 		.4byte	0
 14913 0c50 00000000 		.4byte	0
 14914              	.LLST84:
 14915 0c54 1C000000 		.4byte	.LVL178
 14916 0c58 24000000 		.4byte	.LVL180
 14917 0c5c 0200     		.2byte	0x2
 14918 0c5e 31       		.byte	0x31
 14919 0c5f 9F       		.byte	0x9f
ARM GAS  C:\Users\164\AppData\Local\Temp\cc3ssgoH.s 			page 302


 14920 0c60 44000000 		.4byte	.LVL182
 14921 0c64 4A000000 		.4byte	.LVL184
 14922 0c68 0100     		.2byte	0x1
 14923 0c6a 56       		.byte	0x56
 14924 0c6b 58000000 		.4byte	.LVL189
 14925 0c6f CA000000 		.4byte	.LVL207
 14926 0c73 0100     		.2byte	0x1
 14927 0c75 56       		.byte	0x56
 14928 0c76 00000000 		.4byte	0
 14929 0c7a 00000000 		.4byte	0
 14930              	.LLST85:
 14931 0c7e 20000000 		.4byte	.LVL179
 14932 0c82 24000000 		.4byte	.LVL180
 14933 0c86 0100     		.2byte	0x1
 14934 0c88 5A       		.byte	0x5a
 14935 0c89 48000000 		.4byte	.LVL183
 14936 0c8d 4A000000 		.4byte	.LVL184
 14937 0c91 0100     		.2byte	0x1
 14938 0c93 5A       		.byte	0x5a
 14939 0c94 58000000 		.4byte	.LVL189
 14940 0c98 D6000000 		.4byte	.LVL208
 14941 0c9c 0100     		.2byte	0x1
 14942 0c9e 5A       		.byte	0x5a
 14943 0c9f 00000000 		.4byte	0
 14944 0ca3 00000000 		.4byte	0
 14945              	.LLST86:
 14946 0ca7 5C000000 		.4byte	.LVL190
 14947 0cab C8000000 		.4byte	.LVL206
 14948 0caf 0100     		.2byte	0x1
 14949 0cb1 57       		.byte	0x57
 14950 0cb2 00000000 		.4byte	0
 14951 0cb6 00000000 		.4byte	0
 14952              	.LLST87:
 14953 0cba 64000000 		.4byte	.LVL192
 14954 0cbe D6000000 		.4byte	.LVL208
 14955 0cc2 0100     		.2byte	0x1
 14956 0cc4 59       		.byte	0x59
 14957 0cc5 00000000 		.4byte	0
 14958 0cc9 00000000 		.4byte	0
 14959              	.LLST88:
 14960 0ccd 9C000000 		.4byte	.LVL201
 14961 0cd1 A4000000 		.4byte	.LVL202
 14962 0cd5 0100     		.2byte	0x1
 14963 0cd7 50       		.byte	0x50
 14964 0cd8 A4000000 		.4byte	.LVL202
 14965 0cdc D6000000 		.4byte	.LVL208
 14966 0ce0 0100     		.2byte	0x1
 14967 0ce2 5B       		.byte	0x5b
 14968 0ce3 00000000 		.4byte	0
 14969 0ce7 00000000 		.4byte	0
 14970              	.LLST89:
 14971 0ceb 4A000000 		.4byte	.LVL184
 14972 0cef 58000000 		.4byte	.LVL189
 14973 0cf3 0600     		.2byte	0x6
 14974 0cf5 03       		.byte	0x3
 14975 0cf6 10000000 		.4byte	.LC1
 14976 0cfa 9F       		.byte	0x9f
ARM GAS  C:\Users\164\AppData\Local\Temp\cc3ssgoH.s 			page 303


 14977 0cfb 00000000 		.4byte	0
 14978 0cff 00000000 		.4byte	0
 14979              	.LLST90:
 14980 0d03 80000000 		.4byte	.LVL195
 14981 0d07 8E000000 		.4byte	.LVL199
 14982 0d0b 0600     		.2byte	0x6
 14983 0d0d 03       		.byte	0x3
 14984 0d0e 20000000 		.4byte	.LC2
 14985 0d12 9F       		.byte	0x9f
 14986 0d13 00000000 		.4byte	0
 14987 0d17 00000000 		.4byte	0
 14988              	.LLST91:
 14989 0d1b B4000000 		.4byte	.LVL203
 14990 0d1f B8000000 		.4byte	.LVL204
 14991 0d23 0100     		.2byte	0x1
 14992 0d25 5A       		.byte	0x5a
 14993 0d26 00000000 		.4byte	0
 14994 0d2a 00000000 		.4byte	0
 14995              	.LLST92:
 14996 0d2e 00000000 		.4byte	.LVL209
 14997 0d32 1C000000 		.4byte	.LVL211
 14998 0d36 0100     		.2byte	0x1
 14999 0d38 51       		.byte	0x51
 15000 0d39 1C000000 		.4byte	.LVL211
 15001 0d3d 30000000 		.4byte	.LVL216
 15002 0d41 0100     		.2byte	0x1
 15003 0d43 57       		.byte	0x57
 15004 0d44 30000000 		.4byte	.LVL216
 15005 0d48 66000000 		.4byte	.LFE87
 15006 0d4c 0400     		.2byte	0x4
 15007 0d4e F3       		.byte	0xf3
 15008 0d4f 01       		.uleb128 0x1
 15009 0d50 51       		.byte	0x51
 15010 0d51 9F       		.byte	0x9f
 15011 0d52 00000000 		.4byte	0
 15012 0d56 00000000 		.4byte	0
 15013              	.LLST93:
 15014 0d5a 00000000 		.4byte	.LVL209
 15015 0d5e 21000000 		.4byte	.LVL213-1
 15016 0d62 0100     		.2byte	0x1
 15017 0d64 52       		.byte	0x52
 15018 0d65 21000000 		.4byte	.LVL213-1
 15019 0d69 66000000 		.4byte	.LFE87
 15020 0d6d 0100     		.2byte	0x1
 15021 0d6f 58       		.byte	0x58
 15022 0d70 00000000 		.4byte	0
 15023 0d74 00000000 		.4byte	0
 15024              	.LLST94:
 15025 0d78 00000000 		.4byte	.LVL209
 15026 0d7c 0E000000 		.4byte	.LVL210
 15027 0d80 0100     		.2byte	0x1
 15028 0d82 53       		.byte	0x53
 15029 0d83 0E000000 		.4byte	.LVL210
 15030 0d87 66000000 		.4byte	.LFE87
 15031 0d8b 0100     		.2byte	0x1
 15032 0d8d 56       		.byte	0x56
 15033 0d8e 00000000 		.4byte	0
ARM GAS  C:\Users\164\AppData\Local\Temp\cc3ssgoH.s 			page 304


 15034 0d92 00000000 		.4byte	0
 15035              	.LLST95:
 15036 0d96 00000000 		.4byte	.LVL209
 15037 0d9a 1E000000 		.4byte	.LVL212
 15038 0d9e 0200     		.2byte	0x2
 15039 0da0 70       		.byte	0x70
 15040 0da1 00       		.sleb128 0
 15041 0da2 1E000000 		.4byte	.LVL212
 15042 0da6 66000000 		.4byte	.LFE87
 15043 0daa 0200     		.2byte	0x2
 15044 0dac 74       		.byte	0x74
 15045 0dad 00       		.sleb128 0
 15046 0dae 00000000 		.4byte	0
 15047 0db2 00000000 		.4byte	0
 15048              	.LLST96:
 15049 0db6 22000000 		.4byte	.LVL213
 15050 0dba 2A000000 		.4byte	.LVL214
 15051 0dbe 0100     		.2byte	0x1
 15052 0dc0 50       		.byte	0x50
 15053 0dc1 2A000000 		.4byte	.LVL214
 15054 0dc5 60000000 		.4byte	.LVL221
 15055 0dc9 0100     		.2byte	0x1
 15056 0dcb 55       		.byte	0x55
 15057 0dcc 00000000 		.4byte	0
 15058 0dd0 00000000 		.4byte	0
 15059              	.LLST97:
 15060 0dd4 2E000000 		.4byte	.LVL215
 15061 0dd8 34000000 		.4byte	.LVL217
 15062 0ddc 0100     		.2byte	0x1
 15063 0dde 50       		.byte	0x50
 15064 0ddf 34000000 		.4byte	.LVL217
 15065 0de3 3A000000 		.4byte	.LVL219
 15066 0de7 0100     		.2byte	0x1
 15067 0de9 57       		.byte	0x57
 15068 0dea 3A000000 		.4byte	.LVL219
 15069 0dee 59000000 		.4byte	.LVL220-1
 15070 0df2 0100     		.2byte	0x1
 15071 0df4 50       		.byte	0x50
 15072 0df5 59000000 		.4byte	.LVL220-1
 15073 0df9 60000000 		.4byte	.LVL221
 15074 0dfd 0100     		.2byte	0x1
 15075 0dff 57       		.byte	0x57
 15076 0e00 00000000 		.4byte	0
 15077 0e04 00000000 		.4byte	0
 15078              	.LLST98:
 15079 0e08 00000000 		.4byte	.LVL222
 15080 0e0c 46000000 		.4byte	.LVL237
 15081 0e10 0100     		.2byte	0x1
 15082 0e12 50       		.byte	0x50
 15083 0e13 46000000 		.4byte	.LVL237
 15084 0e17 49000000 		.4byte	.LVL238-1
 15085 0e1b 0100     		.2byte	0x1
 15086 0e1d 51       		.byte	0x51
 15087 0e1e 49000000 		.4byte	.LVL238-1
 15088 0e22 74000000 		.4byte	.LVL241
 15089 0e26 0400     		.2byte	0x4
 15090 0e28 F3       		.byte	0xf3
ARM GAS  C:\Users\164\AppData\Local\Temp\cc3ssgoH.s 			page 305


 15091 0e29 01       		.uleb128 0x1
 15092 0e2a 50       		.byte	0x50
 15093 0e2b 9F       		.byte	0x9f
 15094 0e2c 74000000 		.4byte	.LVL241
 15095 0e30 AE000000 		.4byte	.LVL249
 15096 0e34 0100     		.2byte	0x1
 15097 0e36 50       		.byte	0x50
 15098 0e37 AE000000 		.4byte	.LVL249
 15099 0e3b B1000000 		.4byte	.LVL250-1
 15100 0e3f 0100     		.2byte	0x1
 15101 0e41 51       		.byte	0x51
 15102 0e42 B1000000 		.4byte	.LVL250-1
 15103 0e46 D0000000 		.4byte	.LVL252
 15104 0e4a 0400     		.2byte	0x4
 15105 0e4c F3       		.byte	0xf3
 15106 0e4d 01       		.uleb128 0x1
 15107 0e4e 50       		.byte	0x50
 15108 0e4f 9F       		.byte	0x9f
 15109 0e50 D0000000 		.4byte	.LVL252
 15110 0e54 D6000000 		.4byte	.LVL255
 15111 0e58 0100     		.2byte	0x1
 15112 0e5a 50       		.byte	0x50
 15113 0e5b D6000000 		.4byte	.LVL255
 15114 0e5f F0000000 		.4byte	.LFE105
 15115 0e63 0400     		.2byte	0x4
 15116 0e65 F3       		.byte	0xf3
 15117 0e66 01       		.uleb128 0x1
 15118 0e67 50       		.byte	0x50
 15119 0e68 9F       		.byte	0x9f
 15120 0e69 00000000 		.4byte	0
 15121 0e6d 00000000 		.4byte	0
 15122              	.LLST99:
 15123 0e71 00000000 		.4byte	.LVL222
 15124 0e75 14000000 		.4byte	.LVL224
 15125 0e79 0100     		.2byte	0x1
 15126 0e7b 51       		.byte	0x51
 15127 0e7c 14000000 		.4byte	.LVL224
 15128 0e80 74000000 		.4byte	.LVL241
 15129 0e84 0100     		.2byte	0x1
 15130 0e86 54       		.byte	0x54
 15131 0e87 74000000 		.4byte	.LVL241
 15132 0e8b 9C000000 		.4byte	.LVL246
 15133 0e8f 0100     		.2byte	0x1
 15134 0e91 51       		.byte	0x51
 15135 0e92 9C000000 		.4byte	.LVL246
 15136 0e96 D0000000 		.4byte	.LVL252
 15137 0e9a 0100     		.2byte	0x1
 15138 0e9c 54       		.byte	0x54
 15139 0e9d D0000000 		.4byte	.LVL252
 15140 0ea1 D4000000 		.4byte	.LVL254
 15141 0ea5 0100     		.2byte	0x1
 15142 0ea7 51       		.byte	0x51
 15143 0ea8 D4000000 		.4byte	.LVL254
 15144 0eac EA000000 		.4byte	.LVL259
 15145 0eb0 0100     		.2byte	0x1
 15146 0eb2 54       		.byte	0x54
 15147 0eb3 EA000000 		.4byte	.LVL259
ARM GAS  C:\Users\164\AppData\Local\Temp\cc3ssgoH.s 			page 306


 15148 0eb7 F0000000 		.4byte	.LFE105
 15149 0ebb 0400     		.2byte	0x4
 15150 0ebd F3       		.byte	0xf3
 15151 0ebe 01       		.uleb128 0x1
 15152 0ebf 51       		.byte	0x51
 15153 0ec0 9F       		.byte	0x9f
 15154 0ec1 00000000 		.4byte	0
 15155 0ec5 00000000 		.4byte	0
 15156              	.LLST100:
 15157 0ec9 00000000 		.4byte	.LVL222
 15158 0ecd 16000000 		.4byte	.LVL225
 15159 0ed1 0100     		.2byte	0x1
 15160 0ed3 52       		.byte	0x52
 15161 0ed4 16000000 		.4byte	.LVL225
 15162 0ed8 74000000 		.4byte	.LVL241
 15163 0edc 0400     		.2byte	0x4
 15164 0ede F3       		.byte	0xf3
 15165 0edf 01       		.uleb128 0x1
 15166 0ee0 52       		.byte	0x52
 15167 0ee1 9F       		.byte	0x9f
 15168 0ee2 74000000 		.4byte	.LVL241
 15169 0ee6 8E000000 		.4byte	.LVL243
 15170 0eea 0100     		.2byte	0x1
 15171 0eec 52       		.byte	0x52
 15172 0eed 8E000000 		.4byte	.LVL243
 15173 0ef1 D0000000 		.4byte	.LVL252
 15174 0ef5 0400     		.2byte	0x4
 15175 0ef7 F3       		.byte	0xf3
 15176 0ef8 01       		.uleb128 0x1
 15177 0ef9 52       		.byte	0x52
 15178 0efa 9F       		.byte	0x9f
 15179 0efb D0000000 		.4byte	.LVL252
 15180 0eff D2000000 		.4byte	.LVL253
 15181 0f03 0100     		.2byte	0x1
 15182 0f05 52       		.byte	0x52
 15183 0f06 D2000000 		.4byte	.LVL253
 15184 0f0a F0000000 		.4byte	.LFE105
 15185 0f0e 0400     		.2byte	0x4
 15186 0f10 F3       		.byte	0xf3
 15187 0f11 01       		.uleb128 0x1
 15188 0f12 52       		.byte	0x52
 15189 0f13 9F       		.byte	0x9f
 15190 0f14 00000000 		.4byte	0
 15191 0f18 00000000 		.4byte	0
 15192              	.LLST101:
 15193 0f1c 06000000 		.4byte	.LVL223
 15194 0f20 14000000 		.4byte	.LVL224
 15195 0f24 0300     		.2byte	0x3
 15196 0f26 71       		.byte	0x71
 15197 0f27 10       		.sleb128 16
 15198 0f28 9F       		.byte	0x9f
 15199 0f29 14000000 		.4byte	.LVL224
 15200 0f2d 74000000 		.4byte	.LVL241
 15201 0f31 0300     		.2byte	0x3
 15202 0f33 74       		.byte	0x74
 15203 0f34 10       		.sleb128 16
 15204 0f35 9F       		.byte	0x9f
ARM GAS  C:\Users\164\AppData\Local\Temp\cc3ssgoH.s 			page 307


 15205 0f36 74000000 		.4byte	.LVL241
 15206 0f3a 9C000000 		.4byte	.LVL246
 15207 0f3e 0300     		.2byte	0x3
 15208 0f40 71       		.byte	0x71
 15209 0f41 10       		.sleb128 16
 15210 0f42 9F       		.byte	0x9f
 15211 0f43 9C000000 		.4byte	.LVL246
 15212 0f47 D0000000 		.4byte	.LVL252
 15213 0f4b 0300     		.2byte	0x3
 15214 0f4d 74       		.byte	0x74
 15215 0f4e 10       		.sleb128 16
 15216 0f4f 9F       		.byte	0x9f
 15217 0f50 D0000000 		.4byte	.LVL252
 15218 0f54 D4000000 		.4byte	.LVL254
 15219 0f58 0300     		.2byte	0x3
 15220 0f5a 71       		.byte	0x71
 15221 0f5b 10       		.sleb128 16
 15222 0f5c 9F       		.byte	0x9f
 15223 0f5d D4000000 		.4byte	.LVL254
 15224 0f61 EA000000 		.4byte	.LVL259
 15225 0f65 0300     		.2byte	0x3
 15226 0f67 74       		.byte	0x74
 15227 0f68 10       		.sleb128 16
 15228 0f69 9F       		.byte	0x9f
 15229 0f6a EA000000 		.4byte	.LVL259
 15230 0f6e F0000000 		.4byte	.LFE105
 15231 0f72 0600     		.2byte	0x6
 15232 0f74 F3       		.byte	0xf3
 15233 0f75 01       		.uleb128 0x1
 15234 0f76 51       		.byte	0x51
 15235 0f77 23       		.byte	0x23
 15236 0f78 10       		.uleb128 0x10
 15237 0f79 9F       		.byte	0x9f
 15238 0f7a 00000000 		.4byte	0
 15239 0f7e 00000000 		.4byte	0
 15240              	.LLST102:
 15241 0f82 06000000 		.4byte	.LVL223
 15242 0f86 14000000 		.4byte	.LVL224
 15243 0f8a 0300     		.2byte	0x3
 15244 0f8c 71       		.byte	0x71
 15245 0f8d 20       		.sleb128 32
 15246 0f8e 9F       		.byte	0x9f
 15247 0f8f 14000000 		.4byte	.LVL224
 15248 0f93 74000000 		.4byte	.LVL241
 15249 0f97 0300     		.2byte	0x3
 15250 0f99 74       		.byte	0x74
 15251 0f9a 20       		.sleb128 32
 15252 0f9b 9F       		.byte	0x9f
 15253 0f9c 74000000 		.4byte	.LVL241
 15254 0fa0 9C000000 		.4byte	.LVL246
 15255 0fa4 0300     		.2byte	0x3
 15256 0fa6 71       		.byte	0x71
 15257 0fa7 20       		.sleb128 32
 15258 0fa8 9F       		.byte	0x9f
 15259 0fa9 9C000000 		.4byte	.LVL246
 15260 0fad D0000000 		.4byte	.LVL252
 15261 0fb1 0300     		.2byte	0x3
ARM GAS  C:\Users\164\AppData\Local\Temp\cc3ssgoH.s 			page 308


 15262 0fb3 74       		.byte	0x74
 15263 0fb4 20       		.sleb128 32
 15264 0fb5 9F       		.byte	0x9f
 15265 0fb6 D0000000 		.4byte	.LVL252
 15266 0fba D4000000 		.4byte	.LVL254
 15267 0fbe 0300     		.2byte	0x3
 15268 0fc0 71       		.byte	0x71
 15269 0fc1 20       		.sleb128 32
 15270 0fc2 9F       		.byte	0x9f
 15271 0fc3 D4000000 		.4byte	.LVL254
 15272 0fc7 EA000000 		.4byte	.LVL259
 15273 0fcb 0300     		.2byte	0x3
 15274 0fcd 74       		.byte	0x74
 15275 0fce 20       		.sleb128 32
 15276 0fcf 9F       		.byte	0x9f
 15277 0fd0 EA000000 		.4byte	.LVL259
 15278 0fd4 F0000000 		.4byte	.LFE105
 15279 0fd8 0600     		.2byte	0x6
 15280 0fda F3       		.byte	0xf3
 15281 0fdb 01       		.uleb128 0x1
 15282 0fdc 51       		.byte	0x51
 15283 0fdd 23       		.byte	0x23
 15284 0fde 20       		.uleb128 0x20
 15285 0fdf 9F       		.byte	0x9f
 15286 0fe0 00000000 		.4byte	0
 15287 0fe4 00000000 		.4byte	0
 15288              	.LLST103:
 15289 0fe8 16000000 		.4byte	.LVL225
 15290 0fec 22000000 		.4byte	.LVL227
 15291 0ff0 0100     		.2byte	0x1
 15292 0ff2 52       		.byte	0x52
 15293 0ff3 22000000 		.4byte	.LVL227
 15294 0ff7 26000000 		.4byte	.LVL229
 15295 0ffb 0900     		.2byte	0x9
 15296 0ffd 71       		.byte	0x71
 15297 0ffe 04       		.sleb128 4
 15298 0fff 94       		.byte	0x94
 15299 1000 02       		.byte	0x2
 15300 1001 0A       		.byte	0xa
 15301 1002 FFFF     		.2byte	0xffff
 15302 1004 1A       		.byte	0x1a
 15303 1005 9F       		.byte	0x9f
 15304 1006 26000000 		.4byte	.LVL229
 15305 100a 2C000000 		.4byte	.LVL231
 15306 100e 0100     		.2byte	0x1
 15307 1010 52       		.byte	0x52
 15308 1011 2C000000 		.4byte	.LVL231
 15309 1015 30000000 		.4byte	.LVL233
 15310 1019 0900     		.2byte	0x9
 15311 101b 71       		.byte	0x71
 15312 101c 04       		.sleb128 4
 15313 101d 94       		.byte	0x94
 15314 101e 02       		.byte	0x2
 15315 101f 0A       		.byte	0xa
 15316 1020 FFFF     		.2byte	0xffff
 15317 1022 1A       		.byte	0x1a
 15318 1023 9F       		.byte	0x9f
ARM GAS  C:\Users\164\AppData\Local\Temp\cc3ssgoH.s 			page 309


 15319 1024 30000000 		.4byte	.LVL233
 15320 1028 3A000000 		.4byte	.LVL234
 15321 102c 0100     		.2byte	0x1
 15322 102e 52       		.byte	0x52
 15323 102f 3A000000 		.4byte	.LVL234
 15324 1033 44000000 		.4byte	.LVL236
 15325 1037 0900     		.2byte	0x9
 15326 1039 71       		.byte	0x71
 15327 103a 04       		.sleb128 4
 15328 103b 94       		.byte	0x94
 15329 103c 02       		.byte	0x2
 15330 103d 0A       		.byte	0xa
 15331 103e FFFF     		.2byte	0xffff
 15332 1040 1A       		.byte	0x1a
 15333 1041 9F       		.byte	0x9f
 15334 1042 44000000 		.4byte	.LVL236
 15335 1046 49000000 		.4byte	.LVL238-1
 15336 104a 0C00     		.2byte	0xc
 15337 104c 74       		.byte	0x74
 15338 104d 08       		.sleb128 8
 15339 104e 06       		.byte	0x6
 15340 104f 23       		.byte	0x23
 15341 1050 04       		.uleb128 0x4
 15342 1051 94       		.byte	0x94
 15343 1052 02       		.byte	0x2
 15344 1053 0A       		.byte	0xa
 15345 1054 FFFF     		.2byte	0xffff
 15346 1056 1A       		.byte	0x1a
 15347 1057 9F       		.byte	0x9f
 15348 1058 00000000 		.4byte	0
 15349 105c 00000000 		.4byte	0
 15350              	.LLST104:
 15351 1060 18000000 		.4byte	.LVL226
 15352 1064 26000000 		.4byte	.LVL229
 15353 1068 0100     		.2byte	0x1
 15354 106a 53       		.byte	0x53
 15355 106b 26000000 		.4byte	.LVL229
 15356 106f 28000000 		.4byte	.LVL230
 15357 1073 0600     		.2byte	0x6
 15358 1075 72       		.byte	0x72
 15359 1076 00       		.sleb128 0
 15360 1077 73       		.byte	0x73
 15361 1078 00       		.sleb128 0
 15362 1079 22       		.byte	0x22
 15363 107a 9F       		.byte	0x9f
 15364 107b 28000000 		.4byte	.LVL230
 15365 107f 40000000 		.4byte	.LVL235
 15366 1083 0100     		.2byte	0x1
 15367 1085 53       		.byte	0x53
 15368 1086 00000000 		.4byte	0
 15369 108a 00000000 		.4byte	0
 15370              	.LLST105:
 15371 108e 18000000 		.4byte	.LVL226
 15372 1092 24000000 		.4byte	.LVL228
 15373 1096 0300     		.2byte	0x3
 15374 1098 09       		.byte	0x9
 15375 1099 FF       		.byte	0xff
ARM GAS  C:\Users\164\AppData\Local\Temp\cc3ssgoH.s 			page 310


 15376 109a 9F       		.byte	0x9f
 15377 109b 24000000 		.4byte	.LVL228
 15378 109f 26000000 		.4byte	.LVL229
 15379 10a3 0100     		.2byte	0x1
 15380 10a5 55       		.byte	0x55
 15381 10a6 26000000 		.4byte	.LVL229
 15382 10aa 2E000000 		.4byte	.LVL232
 15383 10ae 0300     		.2byte	0x3
 15384 10b0 09       		.byte	0x9
 15385 10b1 FF       		.byte	0xff
 15386 10b2 9F       		.byte	0x9f
 15387 10b3 2E000000 		.4byte	.LVL232
 15388 10b7 30000000 		.4byte	.LVL233
 15389 10bb 0100     		.2byte	0x1
 15390 10bd 55       		.byte	0x55
 15391 10be 30000000 		.4byte	.LVL233
 15392 10c2 3A000000 		.4byte	.LVL234
 15393 10c6 0300     		.2byte	0x3
 15394 10c8 09       		.byte	0x9
 15395 10c9 FF       		.byte	0xff
 15396 10ca 9F       		.byte	0x9f
 15397 10cb 3A000000 		.4byte	.LVL234
 15398 10cf 5C000000 		.4byte	.LVL239
 15399 10d3 0100     		.2byte	0x1
 15400 10d5 55       		.byte	0x55
 15401 10d6 00000000 		.4byte	0
 15402 10da 00000000 		.4byte	0
 15403              	.LLST106:
 15404 10de 8C000000 		.4byte	.LVL242
 15405 10e2 9A000000 		.4byte	.LVL245
 15406 10e6 0100     		.2byte	0x1
 15407 10e8 53       		.byte	0x53
 15408 10e9 9A000000 		.4byte	.LVL245
 15409 10ed B1000000 		.4byte	.LVL250-1
 15410 10f1 0900     		.2byte	0x9
 15411 10f3 75       		.byte	0x75
 15412 10f4 04       		.sleb128 4
 15413 10f5 94       		.byte	0x94
 15414 10f6 02       		.byte	0x2
 15415 10f7 0A       		.byte	0xa
 15416 10f8 FFFF     		.2byte	0xffff
 15417 10fa 1A       		.byte	0x1a
 15418 10fb 9F       		.byte	0x9f
 15419 10fc 00000000 		.4byte	0
 15420 1100 00000000 		.4byte	0
 15421              	.LLST107:
 15422 1104 8E000000 		.4byte	.LVL243
 15423 1108 AA000000 		.4byte	.LVL248
 15424 110c 0100     		.2byte	0x1
 15425 110e 52       		.byte	0x52
 15426 110f 00000000 		.4byte	0
 15427 1113 00000000 		.4byte	0
 15428              	.LLST108:
 15429 1117 A2000000 		.4byte	.LVL247
 15430 111b B1000000 		.4byte	.LVL250-1
 15431 111f 0100     		.2byte	0x1
 15432 1121 53       		.byte	0x53
ARM GAS  C:\Users\164\AppData\Local\Temp\cc3ssgoH.s 			page 311


 15433 1122 00000000 		.4byte	0
 15434 1126 00000000 		.4byte	0
 15435              	.LLST109:
 15436 112a D0000000 		.4byte	.LVL252
 15437 112e DC000000 		.4byte	.LVL257
 15438 1132 0600     		.2byte	0x6
 15439 1134 03       		.byte	0x3
 15440 1135 2C000000 		.4byte	.LC3
 15441 1139 9F       		.byte	0x9f
 15442 113a 00000000 		.4byte	0
 15443 113e 00000000 		.4byte	0
 15444              	.LLST110:
 15445 1142 00000000 		.4byte	.LVL260
 15446 1146 12000000 		.4byte	.LVL264
 15447 114a 0100     		.2byte	0x1
 15448 114c 50       		.byte	0x50
 15449 114d 12000000 		.4byte	.LVL264
 15450 1151 18000000 		.4byte	.LVL266
 15451 1155 0400     		.2byte	0x4
 15452 1157 F3       		.byte	0xf3
 15453 1158 01       		.uleb128 0x1
 15454 1159 50       		.byte	0x50
 15455 115a 9F       		.byte	0x9f
 15456 115b 18000000 		.4byte	.LVL266
 15457 115f 22000000 		.4byte	.LVL267
 15458 1163 0100     		.2byte	0x1
 15459 1165 50       		.byte	0x50
 15460 1166 22000000 		.4byte	.LVL267
 15461 116a 28000000 		.4byte	.LVL269
 15462 116e 0400     		.2byte	0x4
 15463 1170 F3       		.byte	0xf3
 15464 1171 01       		.uleb128 0x1
 15465 1172 50       		.byte	0x50
 15466 1173 9F       		.byte	0x9f
 15467 1174 28000000 		.4byte	.LVL269
 15468 1178 36000000 		.4byte	.LVL273
 15469 117c 0100     		.2byte	0x1
 15470 117e 50       		.byte	0x50
 15471 117f 36000000 		.4byte	.LVL273
 15472 1183 39000000 		.4byte	.LVL274-1
 15473 1187 0100     		.2byte	0x1
 15474 1189 51       		.byte	0x51
 15475 118a 39000000 		.4byte	.LVL274-1
 15476 118e 88000000 		.4byte	.LFE100
 15477 1192 0400     		.2byte	0x4
 15478 1194 F3       		.byte	0xf3
 15479 1195 01       		.uleb128 0x1
 15480 1196 50       		.byte	0x50
 15481 1197 9F       		.byte	0x9f
 15482 1198 00000000 		.4byte	0
 15483 119c 00000000 		.4byte	0
 15484              	.LLST111:
 15485 11a0 00000000 		.4byte	.LVL260
 15486 11a4 10000000 		.4byte	.LVL263
 15487 11a8 0100     		.2byte	0x1
 15488 11aa 51       		.byte	0x51
 15489 11ab 10000000 		.4byte	.LVL263
ARM GAS  C:\Users\164\AppData\Local\Temp\cc3ssgoH.s 			page 312


 15490 11af 18000000 		.4byte	.LVL266
 15491 11b3 0400     		.2byte	0x4
 15492 11b5 F3       		.byte	0xf3
 15493 11b6 01       		.uleb128 0x1
 15494 11b7 51       		.byte	0x51
 15495 11b8 9F       		.byte	0x9f
 15496 11b9 18000000 		.4byte	.LVL266
 15497 11bd 25000000 		.4byte	.LVL268-1
 15498 11c1 0100     		.2byte	0x1
 15499 11c3 51       		.byte	0x51
 15500 11c4 25000000 		.4byte	.LVL268-1
 15501 11c8 28000000 		.4byte	.LVL269
 15502 11cc 0100     		.2byte	0x1
 15503 11ce 54       		.byte	0x54
 15504 11cf 28000000 		.4byte	.LVL269
 15505 11d3 34000000 		.4byte	.LVL272
 15506 11d7 0100     		.2byte	0x1
 15507 11d9 51       		.byte	0x51
 15508 11da 34000000 		.4byte	.LVL272
 15509 11de 7A000000 		.4byte	.LVL283
 15510 11e2 0100     		.2byte	0x1
 15511 11e4 54       		.byte	0x54
 15512 11e5 7A000000 		.4byte	.LVL283
 15513 11e9 88000000 		.4byte	.LFE100
 15514 11ed 0400     		.2byte	0x4
 15515 11ef F3       		.byte	0xf3
 15516 11f0 01       		.uleb128 0x1
 15517 11f1 51       		.byte	0x51
 15518 11f2 9F       		.byte	0x9f
 15519 11f3 00000000 		.4byte	0
 15520 11f7 00000000 		.4byte	0
 15521              	.LLST112:
 15522 11fb 00000000 		.4byte	.LVL260
 15523 11ff 0E000000 		.4byte	.LVL262
 15524 1203 0100     		.2byte	0x1
 15525 1205 52       		.byte	0x52
 15526 1206 0E000000 		.4byte	.LVL262
 15527 120a 18000000 		.4byte	.LVL266
 15528 120e 0400     		.2byte	0x4
 15529 1210 F3       		.byte	0xf3
 15530 1211 01       		.uleb128 0x1
 15531 1212 52       		.byte	0x52
 15532 1213 9F       		.byte	0x9f
 15533 1214 18000000 		.4byte	.LVL266
 15534 1218 25000000 		.4byte	.LVL268-1
 15535 121c 0100     		.2byte	0x1
 15536 121e 52       		.byte	0x52
 15537 121f 25000000 		.4byte	.LVL268-1
 15538 1223 28000000 		.4byte	.LVL269
 15539 1227 0400     		.2byte	0x4
 15540 1229 F3       		.byte	0xf3
 15541 122a 01       		.uleb128 0x1
 15542 122b 52       		.byte	0x52
 15543 122c 9F       		.byte	0x9f
 15544 122d 28000000 		.4byte	.LVL269
 15545 1231 2A000000 		.4byte	.LVL270
 15546 1235 0100     		.2byte	0x1
ARM GAS  C:\Users\164\AppData\Local\Temp\cc3ssgoH.s 			page 313


 15547 1237 52       		.byte	0x52
 15548 1238 2A000000 		.4byte	.LVL270
 15549 123c 88000000 		.4byte	.LFE100
 15550 1240 0400     		.2byte	0x4
 15551 1242 F3       		.byte	0xf3
 15552 1243 01       		.uleb128 0x1
 15553 1244 52       		.byte	0x52
 15554 1245 9F       		.byte	0x9f
 15555 1246 00000000 		.4byte	0
 15556 124a 00000000 		.4byte	0
 15557              	.LLST113:
 15558 124e 40000000 		.4byte	.LVL275
 15559 1252 7A000000 		.4byte	.LVL283
 15560 1256 0100     		.2byte	0x1
 15561 1258 55       		.byte	0x55
 15562 1259 00000000 		.4byte	0
 15563 125d 00000000 		.4byte	0
 15564              	.LLST114:
 15565 1261 40000000 		.4byte	.LVL275
 15566 1265 44000000 		.4byte	.LVL276
 15567 1269 0200     		.2byte	0x2
 15568 126b 30       		.byte	0x30
 15569 126c 9F       		.byte	0x9f
 15570 126d 44000000 		.4byte	.LVL276
 15571 1271 7A000000 		.4byte	.LVL283
 15572 1275 0100     		.2byte	0x1
 15573 1277 56       		.byte	0x56
 15574 1278 00000000 		.4byte	0
 15575 127c 00000000 		.4byte	0
 15576              	.LLST115:
 15577 1280 0C000000 		.4byte	.LVL261
 15578 1284 18000000 		.4byte	.LVL266
 15579 1288 0600     		.2byte	0x6
 15580 128a 03       		.byte	0x3
 15581 128b 54000000 		.4byte	.LC4
 15582 128f 9F       		.byte	0x9f
 15583 1290 00000000 		.4byte	0
 15584 1294 00000000 		.4byte	0
 15585              	.LLST116:
 15586 1298 28000000 		.4byte	.LVL269
 15587 129c 2C000000 		.4byte	.LVL271
 15588 12a0 0100     		.2byte	0x1
 15589 12a2 51       		.byte	0x51
 15590 12a3 00000000 		.4byte	0
 15591 12a7 00000000 		.4byte	0
 15592              	.LLST117:
 15593 12ab 44000000 		.4byte	.LVL276
 15594 12af 46000000 		.4byte	.LVL277
 15595 12b3 0100     		.2byte	0x1
 15596 12b5 54       		.byte	0x54
 15597 12b6 00000000 		.4byte	0
 15598 12ba 00000000 		.4byte	0
 15599              	.LLST118:
 15600 12be 50000000 		.4byte	.LVL278
 15601 12c2 54000000 		.4byte	.LVL279
 15602 12c6 0100     		.2byte	0x1
 15603 12c8 54       		.byte	0x54
ARM GAS  C:\Users\164\AppData\Local\Temp\cc3ssgoH.s 			page 314


 15604 12c9 00000000 		.4byte	0
 15605 12cd 00000000 		.4byte	0
 15606              	.LLST119:
 15607 12d1 00000000 		.4byte	.LVL284
 15608 12d5 0F000000 		.4byte	.LVL286-1
 15609 12d9 0100     		.2byte	0x1
 15610 12db 51       		.byte	0x51
 15611 12dc 0F000000 		.4byte	.LVL286-1
 15612 12e0 14000000 		.4byte	.LVL287
 15613 12e4 0100     		.2byte	0x1
 15614 12e6 56       		.byte	0x56
 15615 12e7 14000000 		.4byte	.LVL287
 15616 12eb 16000000 		.4byte	.LVL288
 15617 12ef 0100     		.2byte	0x1
 15618 12f1 51       		.byte	0x51
 15619 12f2 16000000 		.4byte	.LVL288
 15620 12f6 24000000 		.4byte	.LFE88
 15621 12fa 0100     		.2byte	0x1
 15622 12fc 56       		.byte	0x56
 15623 12fd 00000000 		.4byte	0
 15624 1301 00000000 		.4byte	0
 15625              	.LLST120:
 15626 1305 00000000 		.4byte	.LVL284
 15627 1309 0F000000 		.4byte	.LVL286-1
 15628 130d 0100     		.2byte	0x1
 15629 130f 52       		.byte	0x52
 15630 1310 0F000000 		.4byte	.LVL286-1
 15631 1314 14000000 		.4byte	.LVL287
 15632 1318 0100     		.2byte	0x1
 15633 131a 55       		.byte	0x55
 15634 131b 14000000 		.4byte	.LVL287
 15635 131f 16000000 		.4byte	.LVL288
 15636 1323 0100     		.2byte	0x1
 15637 1325 52       		.byte	0x52
 15638 1326 16000000 		.4byte	.LVL288
 15639 132a 24000000 		.4byte	.LFE88
 15640 132e 0100     		.2byte	0x1
 15641 1330 55       		.byte	0x55
 15642 1331 00000000 		.4byte	0
 15643 1335 00000000 		.4byte	0
 15644              	.LLST121:
 15645 1339 00000000 		.4byte	.LVL290
 15646 133d 1A000000 		.4byte	.LVL293
 15647 1341 0100     		.2byte	0x1
 15648 1343 51       		.byte	0x51
 15649 1344 1A000000 		.4byte	.LVL293
 15650 1348 1D000000 		.4byte	.LVL294-1
 15651 134c 0100     		.2byte	0x1
 15652 134e 50       		.byte	0x50
 15653 134f 1D000000 		.4byte	.LVL294-1
 15654 1353 32000000 		.4byte	.LFE89
 15655 1357 0400     		.2byte	0x4
 15656 1359 F3       		.byte	0xf3
 15657 135a 01       		.uleb128 0x1
 15658 135b 51       		.byte	0x51
 15659 135c 9F       		.byte	0x9f
 15660 135d 00000000 		.4byte	0
ARM GAS  C:\Users\164\AppData\Local\Temp\cc3ssgoH.s 			page 315


 15661 1361 00000000 		.4byte	0
 15662              	.LLST122:
 15663 1365 00000000 		.4byte	.LVL290
 15664 1369 1D000000 		.4byte	.LVL294-1
 15665 136d 0100     		.2byte	0x1
 15666 136f 52       		.byte	0x52
 15667 1370 1D000000 		.4byte	.LVL294-1
 15668 1374 32000000 		.4byte	.LFE89
 15669 1378 0100     		.2byte	0x1
 15670 137a 55       		.byte	0x55
 15671 137b 00000000 		.4byte	0
 15672 137f 00000000 		.4byte	0
 15673              	.LLST123:
 15674 1383 00000000 		.4byte	.LVL290
 15675 1387 0C000000 		.4byte	.LVL292
 15676 138b 0100     		.2byte	0x1
 15677 138d 53       		.byte	0x53
 15678 138e 0C000000 		.4byte	.LVL292
 15679 1392 32000000 		.4byte	.LFE89
 15680 1396 0100     		.2byte	0x1
 15681 1398 56       		.byte	0x56
 15682 1399 00000000 		.4byte	0
 15683 139d 00000000 		.4byte	0
 15684              	.LLST124:
 15685 13a1 00000000 		.4byte	.LVL290
 15686 13a5 06000000 		.4byte	.LVL291
 15687 13a9 0200     		.2byte	0x2
 15688 13ab 70       		.byte	0x70
 15689 13ac 00       		.sleb128 0
 15690 13ad 06000000 		.4byte	.LVL291
 15691 13b1 32000000 		.4byte	.LFE89
 15692 13b5 0200     		.2byte	0x2
 15693 13b7 74       		.byte	0x74
 15694 13b8 00       		.sleb128 0
 15695 13b9 00000000 		.4byte	0
 15696 13bd 00000000 		.4byte	0
 15697              	.LLST125:
 15698 13c1 1E000000 		.4byte	.LVL294
 15699 13c5 30000000 		.4byte	.LVL295
 15700 13c9 0100     		.2byte	0x1
 15701 13cb 50       		.byte	0x50
 15702 13cc 00000000 		.4byte	0
 15703 13d0 00000000 		.4byte	0
 15704              	.LLST126:
 15705 13d4 00000000 		.4byte	.LVL296
 15706 13d8 10000000 		.4byte	.LVL298
 15707 13dc 0100     		.2byte	0x1
 15708 13de 50       		.byte	0x50
 15709 13df 10000000 		.4byte	.LVL298
 15710 13e3 16000000 		.4byte	.LVL300
 15711 13e7 0400     		.2byte	0x4
 15712 13e9 F3       		.byte	0xf3
 15713 13ea 01       		.uleb128 0x1
 15714 13eb 50       		.byte	0x50
 15715 13ec 9F       		.byte	0x9f
 15716 13ed 16000000 		.4byte	.LVL300
 15717 13f1 21000000 		.4byte	.LVL303-1
ARM GAS  C:\Users\164\AppData\Local\Temp\cc3ssgoH.s 			page 316


 15718 13f5 0100     		.2byte	0x1
 15719 13f7 50       		.byte	0x50
 15720 13f8 21000000 		.4byte	.LVL303-1
 15721 13fc 34020000 		.4byte	.LVL370
 15722 1400 0100     		.2byte	0x1
 15723 1402 5A       		.byte	0x5a
 15724 1403 34020000 		.4byte	.LVL370
 15725 1407 44020000 		.4byte	.LFE114
 15726 140b 0400     		.2byte	0x4
 15727 140d F3       		.byte	0xf3
 15728 140e 01       		.uleb128 0x1
 15729 140f 50       		.byte	0x50
 15730 1410 9F       		.byte	0x9f
 15731 1411 00000000 		.4byte	0
 15732 1415 00000000 		.4byte	0
 15733              	.LLST127:
 15734 1419 00000000 		.4byte	.LVL296
 15735 141d 13000000 		.4byte	.LVL299-1
 15736 1421 0100     		.2byte	0x1
 15737 1423 51       		.byte	0x51
 15738 1424 13000000 		.4byte	.LVL299-1
 15739 1428 16000000 		.4byte	.LVL300
 15740 142c 0400     		.2byte	0x4
 15741 142e F3       		.byte	0xf3
 15742 142f 01       		.uleb128 0x1
 15743 1430 51       		.byte	0x51
 15744 1431 9F       		.byte	0x9f
 15745 1432 16000000 		.4byte	.LVL300
 15746 1436 1E000000 		.4byte	.LVL302
 15747 143a 0100     		.2byte	0x1
 15748 143c 51       		.byte	0x51
 15749 143d 1E000000 		.4byte	.LVL302
 15750 1441 34020000 		.4byte	.LVL370
 15751 1445 0100     		.2byte	0x1
 15752 1447 57       		.byte	0x57
 15753 1448 34020000 		.4byte	.LVL370
 15754 144c 44020000 		.4byte	.LFE114
 15755 1450 0400     		.2byte	0x4
 15756 1452 F3       		.byte	0xf3
 15757 1453 01       		.uleb128 0x1
 15758 1454 51       		.byte	0x51
 15759 1455 9F       		.byte	0x9f
 15760 1456 00000000 		.4byte	0
 15761 145a 00000000 		.4byte	0
 15762              	.LLST128:
 15763 145e 00000000 		.4byte	.LVL296
 15764 1462 13000000 		.4byte	.LVL299-1
 15765 1466 0100     		.2byte	0x1
 15766 1468 52       		.byte	0x52
 15767 1469 13000000 		.4byte	.LVL299-1
 15768 146d 16000000 		.4byte	.LVL300
 15769 1471 0400     		.2byte	0x4
 15770 1473 F3       		.byte	0xf3
 15771 1474 01       		.uleb128 0x1
 15772 1475 52       		.byte	0x52
 15773 1476 9F       		.byte	0x9f
 15774 1477 16000000 		.4byte	.LVL300
ARM GAS  C:\Users\164\AppData\Local\Temp\cc3ssgoH.s 			page 317


 15775 147b 21000000 		.4byte	.LVL303-1
 15776 147f 0100     		.2byte	0x1
 15777 1481 52       		.byte	0x52
 15778 1482 21000000 		.4byte	.LVL303-1
 15779 1486 34020000 		.4byte	.LVL370
 15780 148a 0100     		.2byte	0x1
 15781 148c 59       		.byte	0x59
 15782 148d 34020000 		.4byte	.LVL370
 15783 1491 44020000 		.4byte	.LFE114
 15784 1495 0400     		.2byte	0x4
 15785 1497 F3       		.byte	0xf3
 15786 1498 01       		.uleb128 0x1
 15787 1499 52       		.byte	0x52
 15788 149a 9F       		.byte	0x9f
 15789 149b 00000000 		.4byte	0
 15790 149f 00000000 		.4byte	0
 15791              	.LLST129:
 15792 14a3 06000000 		.4byte	.LVL297
 15793 14a7 13000000 		.4byte	.LVL299-1
 15794 14ab 0300     		.2byte	0x3
 15795 14ad 71       		.byte	0x71
 15796 14ae 10       		.sleb128 16
 15797 14af 9F       		.byte	0x9f
 15798 14b0 13000000 		.4byte	.LVL299-1
 15799 14b4 16000000 		.4byte	.LVL300
 15800 14b8 0600     		.2byte	0x6
 15801 14ba F3       		.byte	0xf3
 15802 14bb 01       		.uleb128 0x1
 15803 14bc 51       		.byte	0x51
 15804 14bd 23       		.byte	0x23
 15805 14be 10       		.uleb128 0x10
 15806 14bf 9F       		.byte	0x9f
 15807 14c0 16000000 		.4byte	.LVL300
 15808 14c4 1E000000 		.4byte	.LVL302
 15809 14c8 0300     		.2byte	0x3
 15810 14ca 71       		.byte	0x71
 15811 14cb 10       		.sleb128 16
 15812 14cc 9F       		.byte	0x9f
 15813 14cd 1E000000 		.4byte	.LVL302
 15814 14d1 34020000 		.4byte	.LVL370
 15815 14d5 0300     		.2byte	0x3
 15816 14d7 77       		.byte	0x77
 15817 14d8 10       		.sleb128 16
 15818 14d9 9F       		.byte	0x9f
 15819 14da 34020000 		.4byte	.LVL370
 15820 14de 44020000 		.4byte	.LFE114
 15821 14e2 0600     		.2byte	0x6
 15822 14e4 F3       		.byte	0xf3
 15823 14e5 01       		.uleb128 0x1
 15824 14e6 51       		.byte	0x51
 15825 14e7 23       		.byte	0x23
 15826 14e8 10       		.uleb128 0x10
 15827 14e9 9F       		.byte	0x9f
 15828 14ea 00000000 		.4byte	0
 15829 14ee 00000000 		.4byte	0
 15830              	.LLST130:
 15831 14f2 1C000000 		.4byte	.LVL301
ARM GAS  C:\Users\164\AppData\Local\Temp\cc3ssgoH.s 			page 318


 15832 14f6 46000000 		.4byte	.LVL307
 15833 14fa 0300     		.2byte	0x3
 15834 14fc 08       		.byte	0x8
 15835 14fd 20       		.byte	0x20
 15836 14fe 9F       		.byte	0x9f
 15837 14ff 46000000 		.4byte	.LVL307
 15838 1503 08020000 		.4byte	.LVL366
 15839 1507 0100     		.2byte	0x1
 15840 1509 58       		.byte	0x58
 15841 150a 00000000 		.4byte	0
 15842 150e 00000000 		.4byte	0
 15843              	.LLST131:
 15844 1512 22000000 		.4byte	.LVL303
 15845 1516 46000000 		.4byte	.LVL307
 15846 151a 0100     		.2byte	0x1
 15847 151c 50       		.byte	0x50
 15848 151d EE010000 		.4byte	.LVL361
 15849 1521 F6010000 		.4byte	.LVL362
 15850 1525 0100     		.2byte	0x1
 15851 1527 50       		.byte	0x50
 15852 1528 F6010000 		.4byte	.LVL362
 15853 152c F9010000 		.4byte	.LVL363-1
 15854 1530 0100     		.2byte	0x1
 15855 1532 51       		.byte	0x51
 15856 1533 00000000 		.4byte	0
 15857 1537 00000000 		.4byte	0
 15858              	.LLST132:
 15859 153b 40000000 		.4byte	.LVL306
 15860 153f 46000000 		.4byte	.LVL307
 15861 1543 0200     		.2byte	0x2
 15862 1545 32       		.byte	0x32
 15863 1546 9F       		.byte	0x9f
 15864 1547 46000000 		.4byte	.LVL307
 15865 154b 34020000 		.4byte	.LVL370
 15866 154f 0100     		.2byte	0x1
 15867 1551 56       		.byte	0x56
 15868 1552 00000000 		.4byte	0
 15869 1556 00000000 		.4byte	0
 15870              	.LLST133:
 15871 155a 5C000000 		.4byte	.LVL308
 15872 155e 74000000 		.4byte	.LVL310
 15873 1562 0100     		.2byte	0x1
 15874 1564 50       		.byte	0x50
 15875 1565 7A000000 		.4byte	.LVL312
 15876 1569 D0000000 		.4byte	.LVL313
 15877 156d 0100     		.2byte	0x1
 15878 156f 50       		.byte	0x50
 15879 1570 D0000000 		.4byte	.LVL313
 15880 1574 D3000000 		.4byte	.LVL314-1
 15881 1578 0100     		.2byte	0x1
 15882 157a 52       		.byte	0x52
 15883 157b D6000000 		.4byte	.LVL315
 15884 157f EC000000 		.4byte	.LVL318
 15885 1583 0100     		.2byte	0x1
 15886 1585 50       		.byte	0x50
 15887 1586 F2000000 		.4byte	.LVL320
 15888 158a FC000000 		.4byte	.LVL322
ARM GAS  C:\Users\164\AppData\Local\Temp\cc3ssgoH.s 			page 319


 15889 158e 0100     		.2byte	0x1
 15890 1590 50       		.byte	0x50
 15891 1591 FC000000 		.4byte	.LVL322
 15892 1595 FF000000 		.4byte	.LVL323-1
 15893 1599 0100     		.2byte	0x1
 15894 159b 52       		.byte	0x52
 15895 159c 16010000 		.4byte	.LVL329
 15896 15a0 26010000 		.4byte	.LVL330
 15897 15a4 0100     		.2byte	0x1
 15898 15a6 50       		.byte	0x50
 15899 15a7 2C010000 		.4byte	.LVL332
 15900 15ab 36010000 		.4byte	.LVL333
 15901 15af 0100     		.2byte	0x1
 15902 15b1 50       		.byte	0x50
 15903 15b2 36010000 		.4byte	.LVL333
 15904 15b6 39010000 		.4byte	.LVL334-1
 15905 15ba 0100     		.2byte	0x1
 15906 15bc 52       		.byte	0x52
 15907 15bd 46010000 		.4byte	.LVL336
 15908 15c1 50010000 		.4byte	.LVL339
 15909 15c5 0100     		.2byte	0x1
 15910 15c7 50       		.byte	0x50
 15911 15c8 50010000 		.4byte	.LVL339
 15912 15cc 53010000 		.4byte	.LVL340-1
 15913 15d0 0100     		.2byte	0x1
 15914 15d2 52       		.byte	0x52
 15915 15d3 60010000 		.4byte	.LVL343
 15916 15d7 72010000 		.4byte	.LVL344
 15917 15db 0100     		.2byte	0x1
 15918 15dd 50       		.byte	0x50
 15919 15de 78010000 		.4byte	.LVL346
 15920 15e2 8A010000 		.4byte	.LVL347
 15921 15e6 0100     		.2byte	0x1
 15922 15e8 50       		.byte	0x50
 15923 15e9 90010000 		.4byte	.LVL349
 15924 15ed A2010000 		.4byte	.LVL350
 15925 15f1 0100     		.2byte	0x1
 15926 15f3 50       		.byte	0x50
 15927 15f4 A8010000 		.4byte	.LVL352
 15928 15f8 B0010000 		.4byte	.LVL353
 15929 15fc 0100     		.2byte	0x1
 15930 15fe 50       		.byte	0x50
 15931 15ff B0010000 		.4byte	.LVL353
 15932 1603 B3010000 		.4byte	.LVL354-1
 15933 1607 0100     		.2byte	0x1
 15934 1609 52       		.byte	0x52
 15935 160a C0010000 		.4byte	.LVL356
 15936 160e D6010000 		.4byte	.LVL359
 15937 1612 0100     		.2byte	0x1
 15938 1614 52       		.byte	0x52
 15939 1615 00000000 		.4byte	0
 15940 1619 00000000 		.4byte	0
 15941              	.LLST134:
 15942 161d 2A000000 		.4byte	.LVL304
 15943 1621 2E000000 		.4byte	.LVL305
 15944 1625 0300     		.2byte	0x3
 15945 1627 77       		.byte	0x77
ARM GAS  C:\Users\164\AppData\Local\Temp\cc3ssgoH.s 			page 320


 15946 1628 10       		.sleb128 16
 15947 1629 9F       		.byte	0x9f
 15948 162a 00000000 		.4byte	0
 15949 162e 00000000 		.4byte	0
 15950              	.LLST135:
 15951 1632 2E000000 		.4byte	.LVL305
 15952 1636 40000000 		.4byte	.LVL306
 15953 163a 0300     		.2byte	0x3
 15954 163c 08       		.byte	0x8
 15955 163d 20       		.byte	0x20
 15956 163e 9F       		.byte	0x9f
 15957 163f 00000000 		.4byte	0
 15958 1643 00000000 		.4byte	0
 15959              	.LLST136:
 15960 1647 2E000000 		.4byte	.LVL305
 15961 164b 40000000 		.4byte	.LVL306
 15962 164f 0100     		.2byte	0x1
 15963 1651 50       		.byte	0x50
 15964 1652 00000000 		.4byte	0
 15965 1656 00000000 		.4byte	0
 15966              	.LLST137:
 15967 165a 2E000000 		.4byte	.LVL305
 15968 165e 40000000 		.4byte	.LVL306
 15969 1662 0300     		.2byte	0x3
 15970 1664 91       		.byte	0x91
 15971 1665 44       		.sleb128 -60
 15972 1666 9F       		.byte	0x9f
 15973 1667 00000000 		.4byte	0
 15974 166b 00000000 		.4byte	0
 15975              	.LLST138:
 15976 166f 6E000000 		.4byte	.LVL309
 15977 1673 7A000000 		.4byte	.LVL312
 15978 1677 0600     		.2byte	0x6
 15979 1679 03       		.byte	0x3
 15980 167a 00000000 		.4byte	.LC0
 15981 167e 9F       		.byte	0x9f
 15982 167f 00000000 		.4byte	0
 15983 1683 00000000 		.4byte	0
 15984              	.LLST139:
 15985 1687 E2000000 		.4byte	.LVL316
 15986 168b E4000000 		.4byte	.LVL317
 15987 168f 0100     		.2byte	0x1
 15988 1691 51       		.byte	0x51
 15989 1692 00000000 		.4byte	0
 15990 1696 00000000 		.4byte	0
 15991              	.LLST140:
 15992 169a F8000000 		.4byte	.LVL321
 15993 169e FF000000 		.4byte	.LVL323-1
 15994 16a2 0100     		.2byte	0x1
 15995 16a4 51       		.byte	0x51
 15996 16a5 FF000000 		.4byte	.LVL323-1
 15997 16a9 02010000 		.4byte	.LVL324
 15998 16ad 0800     		.2byte	0x8
 15999 16af 76       		.byte	0x76
 16000 16b0 00       		.sleb128 0
 16001 16b1 34       		.byte	0x34
 16002 16b2 24       		.byte	0x24
ARM GAS  C:\Users\164\AppData\Local\Temp\cc3ssgoH.s 			page 321


 16003 16b3 77       		.byte	0x77
 16004 16b4 00       		.sleb128 0
 16005 16b5 22       		.byte	0x22
 16006 16b6 9F       		.byte	0x9f
 16007 16b7 00000000 		.4byte	0
 16008 16bb 00000000 		.4byte	0
 16009              	.LLST141:
 16010 16bf 02010000 		.4byte	.LVL324
 16011 16c3 14010000 		.4byte	.LVL328
 16012 16c7 0300     		.2byte	0x3
 16013 16c9 08       		.byte	0x8
 16014 16ca 20       		.byte	0x20
 16015 16cb 9F       		.byte	0x9f
 16016 16cc 00000000 		.4byte	0
 16017 16d0 00000000 		.4byte	0
 16018              	.LLST142:
 16019 16d4 02010000 		.4byte	.LVL324
 16020 16d8 0E010000 		.4byte	.LVL326
 16021 16dc 0300     		.2byte	0x3
 16022 16de 75       		.byte	0x75
 16023 16df 70       		.sleb128 -16
 16024 16e0 9F       		.byte	0x9f
 16025 16e1 0E010000 		.4byte	.LVL326
 16026 16e5 11010000 		.4byte	.LVL327-1
 16027 16e9 0100     		.2byte	0x1
 16028 16eb 50       		.byte	0x50
 16029 16ec 11010000 		.4byte	.LVL327-1
 16030 16f0 14010000 		.4byte	.LVL328
 16031 16f4 0300     		.2byte	0x3
 16032 16f6 75       		.byte	0x75
 16033 16f7 70       		.sleb128 -16
 16034 16f8 9F       		.byte	0x9f
 16035 16f9 00000000 		.4byte	0
 16036 16fd 00000000 		.4byte	0
 16037              	.LLST143:
 16038 1701 54010000 		.4byte	.LVL340
 16039 1705 5A010000 		.4byte	.LVL341
 16040 1709 0100     		.2byte	0x1
 16041 170b 50       		.byte	0x50
 16042 170c 5A010000 		.4byte	.LVL341
 16043 1710 5D010000 		.4byte	.LVL342-1
 16044 1714 0100     		.2byte	0x1
 16045 1716 51       		.byte	0x51
 16046 1717 00000000 		.4byte	0
 16047 171b 00000000 		.4byte	0
 16048              	.LLST144:
 16049 171f 4C010000 		.4byte	.LVL337
 16050 1723 4E010000 		.4byte	.LVL338
 16051 1727 0100     		.2byte	0x1
 16052 1729 51       		.byte	0x51
 16053 172a 00000000 		.4byte	0
 16054 172e 00000000 		.4byte	0
 16055              	.LLST145:
 16056 1732 FC010000 		.4byte	.LVL364
 16057 1736 02020000 		.4byte	.LVL365
 16058 173a 0300     		.2byte	0x3
 16059 173c 91       		.byte	0x91
ARM GAS  C:\Users\164\AppData\Local\Temp\cc3ssgoH.s 			page 322


 16060 173d 44       		.sleb128 -60
 16061 173e 9F       		.byte	0x9f
 16062 173f 00000000 		.4byte	0
 16063 1743 00000000 		.4byte	0
 16064              	.LLST146:
 16065 1747 02020000 		.4byte	.LVL365
 16066 174b 08020000 		.4byte	.LVL366
 16067 174f 0300     		.2byte	0x3
 16068 1751 91       		.byte	0x91
 16069 1752 44       		.sleb128 -60
 16070 1753 9F       		.byte	0x9f
 16071 1754 00000000 		.4byte	0
 16072 1758 00000000 		.4byte	0
 16073              	.LLST147:
 16074 175c 00000000 		.4byte	.LVL371
 16075 1760 07000000 		.4byte	.LVL372-1
 16076 1764 0100     		.2byte	0x1
 16077 1766 50       		.byte	0x50
 16078 1767 07000000 		.4byte	.LVL372-1
 16079 176b 20000000 		.4byte	.LFE115
 16080 176f 0400     		.2byte	0x4
 16081 1771 F3       		.byte	0xf3
 16082 1772 01       		.uleb128 0x1
 16083 1773 50       		.byte	0x50
 16084 1774 9F       		.byte	0x9f
 16085 1775 00000000 		.4byte	0
 16086 1779 00000000 		.4byte	0
 16087              	.LLST148:
 16088 177d 00000000 		.4byte	.LVL371
 16089 1781 07000000 		.4byte	.LVL372-1
 16090 1785 0100     		.2byte	0x1
 16091 1787 51       		.byte	0x51
 16092 1788 07000000 		.4byte	.LVL372-1
 16093 178c 20000000 		.4byte	.LFE115
 16094 1790 0100     		.2byte	0x1
 16095 1792 54       		.byte	0x54
 16096 1793 00000000 		.4byte	0
 16097 1797 00000000 		.4byte	0
 16098              	.LLST149:
 16099 179b 00000000 		.4byte	.LVL371
 16100 179f 07000000 		.4byte	.LVL372-1
 16101 17a3 0100     		.2byte	0x1
 16102 17a5 52       		.byte	0x52
 16103 17a6 07000000 		.4byte	.LVL372-1
 16104 17aa 20000000 		.4byte	.LFE115
 16105 17ae 0400     		.2byte	0x4
 16106 17b0 F3       		.byte	0xf3
 16107 17b1 01       		.uleb128 0x1
 16108 17b2 52       		.byte	0x52
 16109 17b3 9F       		.byte	0x9f
 16110 17b4 00000000 		.4byte	0
 16111 17b8 00000000 		.4byte	0
 16112              	.LLST150:
 16113 17bc 08000000 		.4byte	.LVL372
 16114 17c0 0A000000 		.4byte	.LVL373
 16115 17c4 0100     		.2byte	0x1
 16116 17c6 54       		.byte	0x54
ARM GAS  C:\Users\164\AppData\Local\Temp\cc3ssgoH.s 			page 323


 16117 17c7 00000000 		.4byte	0
 16118 17cb 00000000 		.4byte	0
 16119              	.LLST151:
 16120 17cf 00000000 		.4byte	.LVL376
 16121 17d3 08000000 		.4byte	.LVL377
 16122 17d7 0100     		.2byte	0x1
 16123 17d9 50       		.byte	0x50
 16124 17da 08000000 		.4byte	.LVL377
 16125 17de 14000000 		.4byte	.LFE90
 16126 17e2 0100     		.2byte	0x1
 16127 17e4 54       		.byte	0x54
 16128 17e5 00000000 		.4byte	0
 16129 17e9 00000000 		.4byte	0
 16130              	.LLST152:
 16131 17ed 00000000 		.4byte	.LVL380
 16132 17f1 08000000 		.4byte	.LVL381
 16133 17f5 0100     		.2byte	0x1
 16134 17f7 50       		.byte	0x50
 16135 17f8 08000000 		.4byte	.LVL381
 16136 17fc 18000000 		.4byte	.LFE91
 16137 1800 0100     		.2byte	0x1
 16138 1802 54       		.byte	0x54
 16139 1803 00000000 		.4byte	0
 16140 1807 00000000 		.4byte	0
 16141              	.LLST153:
 16142 180b 00000000 		.4byte	.LVL384
 16143 180f 0D000000 		.4byte	.LVL387-1
 16144 1813 0100     		.2byte	0x1
 16145 1815 51       		.byte	0x51
 16146 1816 0D000000 		.4byte	.LVL387-1
 16147 181a 22000000 		.4byte	.LFE92
 16148 181e 0400     		.2byte	0x4
 16149 1820 F3       		.byte	0xf3
 16150 1821 01       		.uleb128 0x1
 16151 1822 51       		.byte	0x51
 16152 1823 9F       		.byte	0x9f
 16153 1824 00000000 		.4byte	0
 16154 1828 00000000 		.4byte	0
 16155              	.LLST154:
 16156 182c 00000000 		.4byte	.LVL384
 16157 1830 0A000000 		.4byte	.LVL386
 16158 1834 0100     		.2byte	0x1
 16159 1836 52       		.byte	0x52
 16160 1837 0A000000 		.4byte	.LVL386
 16161 183b 22000000 		.4byte	.LFE92
 16162 183f 0400     		.2byte	0x4
 16163 1841 F3       		.byte	0xf3
 16164 1842 01       		.uleb128 0x1
 16165 1843 52       		.byte	0x52
 16166 1844 9F       		.byte	0x9f
 16167 1845 00000000 		.4byte	0
 16168 1849 00000000 		.4byte	0
 16169              	.LLST155:
 16170 184d 00000000 		.4byte	.LVL384
 16171 1851 0D000000 		.4byte	.LVL387-1
 16172 1855 0200     		.2byte	0x2
 16173 1857 70       		.byte	0x70
ARM GAS  C:\Users\164\AppData\Local\Temp\cc3ssgoH.s 			page 324


 16174 1858 00       		.sleb128 0
 16175 1859 0D000000 		.4byte	.LVL387-1
 16176 185d 22000000 		.4byte	.LFE92
 16177 1861 0200     		.2byte	0x2
 16178 1863 75       		.byte	0x75
 16179 1864 00       		.sleb128 0
 16180 1865 00000000 		.4byte	0
 16181 1869 00000000 		.4byte	0
 16182              	.LLST156:
 16183 186d 00000000 		.4byte	.LVL389
 16184 1871 14000000 		.4byte	.LVL392
 16185 1875 0100     		.2byte	0x1
 16186 1877 50       		.byte	0x50
 16187 1878 14000000 		.4byte	.LVL392
 16188 187c 17000000 		.4byte	.LVL393-1
 16189 1880 0100     		.2byte	0x1
 16190 1882 51       		.byte	0x51
 16191 1883 17000000 		.4byte	.LVL393-1
 16192 1887 3E000000 		.4byte	.LFE128
 16193 188b 0100     		.2byte	0x1
 16194 188d 57       		.byte	0x57
 16195 188e 00000000 		.4byte	0
 16196 1892 00000000 		.4byte	0
 16197              	.LLST157:
 16198 1896 00000000 		.4byte	.LVL389
 16199 189a 12000000 		.4byte	.LVL391
 16200 189e 0100     		.2byte	0x1
 16201 18a0 51       		.byte	0x51
 16202 18a1 12000000 		.4byte	.LVL391
 16203 18a5 17000000 		.4byte	.LVL393-1
 16204 18a9 0100     		.2byte	0x1
 16205 18ab 52       		.byte	0x52
 16206 18ac 17000000 		.4byte	.LVL393-1
 16207 18b0 3E000000 		.4byte	.LFE128
 16208 18b4 0100     		.2byte	0x1
 16209 18b6 55       		.byte	0x55
 16210 18b7 00000000 		.4byte	0
 16211 18bb 00000000 		.4byte	0
 16212              	.LLST158:
 16213 18bf 00000000 		.4byte	.LVL389
 16214 18c3 10000000 		.4byte	.LVL390
 16215 18c7 0100     		.2byte	0x1
 16216 18c9 52       		.byte	0x52
 16217 18ca 10000000 		.4byte	.LVL390
 16218 18ce 3E000000 		.4byte	.LFE128
 16219 18d2 0100     		.2byte	0x1
 16220 18d4 58       		.byte	0x58
 16221 18d5 00000000 		.4byte	0
 16222 18d9 00000000 		.4byte	0
 16223              	.LLST159:
 16224 18dd 00000000 		.4byte	.LVL396
 16225 18e1 0E000000 		.4byte	.LVL399
 16226 18e5 0100     		.2byte	0x1
 16227 18e7 50       		.byte	0x50
 16228 18e8 0E000000 		.4byte	.LVL399
 16229 18ec 11000000 		.4byte	.LVL400-1
 16230 18f0 0100     		.2byte	0x1
ARM GAS  C:\Users\164\AppData\Local\Temp\cc3ssgoH.s 			page 325


 16231 18f2 51       		.byte	0x51
 16232 18f3 11000000 		.4byte	.LVL400-1
 16233 18f7 2C000000 		.4byte	.LFE109
 16234 18fb 0400     		.2byte	0x4
 16235 18fd F3       		.byte	0xf3
 16236 18fe 01       		.uleb128 0x1
 16237 18ff 50       		.byte	0x50
 16238 1900 9F       		.byte	0x9f
 16239 1901 00000000 		.4byte	0
 16240 1905 00000000 		.4byte	0
 16241              	.LLST160:
 16242 1909 00000000 		.4byte	.LVL396
 16243 190d 0C000000 		.4byte	.LVL398
 16244 1911 0100     		.2byte	0x1
 16245 1913 51       		.byte	0x51
 16246 1914 0C000000 		.4byte	.LVL398
 16247 1918 11000000 		.4byte	.LVL400-1
 16248 191c 0100     		.2byte	0x1
 16249 191e 52       		.byte	0x52
 16250 191f 11000000 		.4byte	.LVL400-1
 16251 1923 2C000000 		.4byte	.LFE109
 16252 1927 0100     		.2byte	0x1
 16253 1929 55       		.byte	0x55
 16254 192a 00000000 		.4byte	0
 16255 192e 00000000 		.4byte	0
 16256              	.LLST161:
 16257 1932 00000000 		.4byte	.LVL396
 16258 1936 0A000000 		.4byte	.LVL397
 16259 193a 0100     		.2byte	0x1
 16260 193c 52       		.byte	0x52
 16261 193d 0A000000 		.4byte	.LVL397
 16262 1941 2C000000 		.4byte	.LFE109
 16263 1945 0400     		.2byte	0x4
 16264 1947 F3       		.byte	0xf3
 16265 1948 01       		.uleb128 0x1
 16266 1949 52       		.byte	0x52
 16267 194a 9F       		.byte	0x9f
 16268 194b 00000000 		.4byte	0
 16269 194f 00000000 		.4byte	0
 16270              	.LLST162:
 16271 1953 00000000 		.4byte	.LVL402
 16272 1957 13000000 		.4byte	.LVL407-1
 16273 195b 0100     		.2byte	0x1
 16274 195d 51       		.byte	0x51
 16275 195e 13000000 		.4byte	.LVL407-1
 16276 1962 36000000 		.4byte	.LFE93
 16277 1966 0400     		.2byte	0x4
 16278 1968 F3       		.byte	0xf3
 16279 1969 01       		.uleb128 0x1
 16280 196a 51       		.byte	0x51
 16281 196b 9F       		.byte	0x9f
 16282 196c 00000000 		.4byte	0
 16283 1970 00000000 		.4byte	0
 16284              	.LLST163:
 16285 1974 00000000 		.4byte	.LVL402
 16286 1978 0A000000 		.4byte	.LVL405
 16287 197c 0100     		.2byte	0x1
ARM GAS  C:\Users\164\AppData\Local\Temp\cc3ssgoH.s 			page 326


 16288 197e 52       		.byte	0x52
 16289 197f 0A000000 		.4byte	.LVL405
 16290 1983 36000000 		.4byte	.LFE93
 16291 1987 0400     		.2byte	0x4
 16292 1989 F3       		.byte	0xf3
 16293 198a 01       		.uleb128 0x1
 16294 198b 52       		.byte	0x52
 16295 198c 9F       		.byte	0x9f
 16296 198d 00000000 		.4byte	0
 16297 1991 00000000 		.4byte	0
 16298              	.LLST164:
 16299 1995 00000000 		.4byte	.LVL402
 16300 1999 0C000000 		.4byte	.LVL406
 16301 199d 0100     		.2byte	0x1
 16302 199f 53       		.byte	0x53
 16303 19a0 0C000000 		.4byte	.LVL406
 16304 19a4 36000000 		.4byte	.LFE93
 16305 19a8 0400     		.2byte	0x4
 16306 19aa F3       		.byte	0xf3
 16307 19ab 01       		.uleb128 0x1
 16308 19ac 53       		.byte	0x53
 16309 19ad 9F       		.byte	0x9f
 16310 19ae 00000000 		.4byte	0
 16311 19b2 00000000 		.4byte	0
 16312              	.LLST165:
 16313 19b6 00000000 		.4byte	.LVL402
 16314 19ba 13000000 		.4byte	.LVL407-1
 16315 19be 0200     		.2byte	0x2
 16316 19c0 70       		.byte	0x70
 16317 19c1 00       		.sleb128 0
 16318 19c2 13000000 		.4byte	.LVL407-1
 16319 19c6 36000000 		.4byte	.LFE93
 16320 19ca 0200     		.2byte	0x2
 16321 19cc 77       		.byte	0x77
 16322 19cd 00       		.sleb128 0
 16323 19ce 00000000 		.4byte	0
 16324 19d2 00000000 		.4byte	0
 16325              	.LLST166:
 16326 19d6 00000000 		.4byte	.LVL410
 16327 19da 12000000 		.4byte	.LVL414
 16328 19de 0100     		.2byte	0x1
 16329 19e0 50       		.byte	0x50
 16330 19e1 12000000 		.4byte	.LVL414
 16331 19e5 18000000 		.4byte	.LVL416
 16332 19e9 0400     		.2byte	0x4
 16333 19eb F3       		.byte	0xf3
 16334 19ec 01       		.uleb128 0x1
 16335 19ed 50       		.byte	0x50
 16336 19ee 9F       		.byte	0x9f
 16337 19ef 18000000 		.4byte	.LVL416
 16338 19f3 26000000 		.4byte	.LVL419
 16339 19f7 0100     		.2byte	0x1
 16340 19f9 50       		.byte	0x50
 16341 19fa 26000000 		.4byte	.LVL419
 16342 19fe 29000000 		.4byte	.LVL420-1
 16343 1a02 0100     		.2byte	0x1
 16344 1a04 51       		.byte	0x51
ARM GAS  C:\Users\164\AppData\Local\Temp\cc3ssgoH.s 			page 327


 16345 1a05 29000000 		.4byte	.LVL420-1
 16346 1a09 48000000 		.4byte	.LFE99
 16347 1a0d 0400     		.2byte	0x4
 16348 1a0f F3       		.byte	0xf3
 16349 1a10 01       		.uleb128 0x1
 16350 1a11 50       		.byte	0x50
 16351 1a12 9F       		.byte	0x9f
 16352 1a13 00000000 		.4byte	0
 16353 1a17 00000000 		.4byte	0
 16354              	.LLST167:
 16355 1a1b 00000000 		.4byte	.LVL410
 16356 1a1f 10000000 		.4byte	.LVL413
 16357 1a23 0100     		.2byte	0x1
 16358 1a25 51       		.byte	0x51
 16359 1a26 10000000 		.4byte	.LVL413
 16360 1a2a 18000000 		.4byte	.LVL416
 16361 1a2e 0400     		.2byte	0x4
 16362 1a30 F3       		.byte	0xf3
 16363 1a31 01       		.uleb128 0x1
 16364 1a32 51       		.byte	0x51
 16365 1a33 9F       		.byte	0x9f
 16366 1a34 18000000 		.4byte	.LVL416
 16367 1a38 24000000 		.4byte	.LVL418
 16368 1a3c 0100     		.2byte	0x1
 16369 1a3e 51       		.byte	0x51
 16370 1a3f 24000000 		.4byte	.LVL418
 16371 1a43 29000000 		.4byte	.LVL420-1
 16372 1a47 0100     		.2byte	0x1
 16373 1a49 52       		.byte	0x52
 16374 1a4a 29000000 		.4byte	.LVL420-1
 16375 1a4e 40000000 		.4byte	.LVL422
 16376 1a52 0100     		.2byte	0x1
 16377 1a54 54       		.byte	0x54
 16378 1a55 40000000 		.4byte	.LVL422
 16379 1a59 48000000 		.4byte	.LFE99
 16380 1a5d 0400     		.2byte	0x4
 16381 1a5f F3       		.byte	0xf3
 16382 1a60 01       		.uleb128 0x1
 16383 1a61 51       		.byte	0x51
 16384 1a62 9F       		.byte	0x9f
 16385 1a63 00000000 		.4byte	0
 16386 1a67 00000000 		.4byte	0
 16387              	.LLST168:
 16388 1a6b 00000000 		.4byte	.LVL410
 16389 1a6f 0E000000 		.4byte	.LVL412
 16390 1a73 0100     		.2byte	0x1
 16391 1a75 52       		.byte	0x52
 16392 1a76 0E000000 		.4byte	.LVL412
 16393 1a7a 18000000 		.4byte	.LVL416
 16394 1a7e 0400     		.2byte	0x4
 16395 1a80 F3       		.byte	0xf3
 16396 1a81 01       		.uleb128 0x1
 16397 1a82 52       		.byte	0x52
 16398 1a83 9F       		.byte	0x9f
 16399 1a84 18000000 		.4byte	.LVL416
 16400 1a88 22000000 		.4byte	.LVL417
 16401 1a8c 0100     		.2byte	0x1
ARM GAS  C:\Users\164\AppData\Local\Temp\cc3ssgoH.s 			page 328


 16402 1a8e 52       		.byte	0x52
 16403 1a8f 22000000 		.4byte	.LVL417
 16404 1a93 48000000 		.4byte	.LFE99
 16405 1a97 0400     		.2byte	0x4
 16406 1a99 F3       		.byte	0xf3
 16407 1a9a 01       		.uleb128 0x1
 16408 1a9b 52       		.byte	0x52
 16409 1a9c 9F       		.byte	0x9f
 16410 1a9d 00000000 		.4byte	0
 16411 1aa1 00000000 		.4byte	0
 16412              	.LLST169:
 16413 1aa5 0C000000 		.4byte	.LVL411
 16414 1aa9 16000000 		.4byte	.LVL415
 16415 1aad 0600     		.2byte	0x6
 16416 1aaf 03       		.byte	0x3
 16417 1ab0 60000000 		.4byte	.LC5
 16418 1ab4 9F       		.byte	0x9f
 16419 1ab5 00000000 		.4byte	0
 16420 1ab9 00000000 		.4byte	0
 16421              	.LLST170:
 16422 1abd 00000000 		.4byte	.LVL423
 16423 1ac1 22000000 		.4byte	.LVL427
 16424 1ac5 0100     		.2byte	0x1
 16425 1ac7 50       		.byte	0x50
 16426 1ac8 22000000 		.4byte	.LVL427
 16427 1acc 66000000 		.4byte	.LFE94
 16428 1ad0 0100     		.2byte	0x1
 16429 1ad2 55       		.byte	0x55
 16430 1ad3 00000000 		.4byte	0
 16431 1ad7 00000000 		.4byte	0
 16432              	.LLST171:
 16433 1adb 00000000 		.4byte	.LVL423
 16434 1adf 1E000000 		.4byte	.LVL426
 16435 1ae3 0100     		.2byte	0x1
 16436 1ae5 51       		.byte	0x51
 16437 1ae6 1E000000 		.4byte	.LVL426
 16438 1aea 66000000 		.4byte	.LFE94
 16439 1aee 0100     		.2byte	0x1
 16440 1af0 56       		.byte	0x56
 16441 1af1 00000000 		.4byte	0
 16442 1af5 00000000 		.4byte	0
 16443              	.LLST172:
 16444 1af9 1C000000 		.4byte	.LVL425
 16445 1afd 52000000 		.4byte	.LVL433
 16446 1b01 0100     		.2byte	0x1
 16447 1b03 54       		.byte	0x54
 16448 1b04 60000000 		.4byte	.LVL434
 16449 1b08 66000000 		.4byte	.LFE94
 16450 1b0c 0100     		.2byte	0x1
 16451 1b0e 54       		.byte	0x54
 16452 1b0f 00000000 		.4byte	0
 16453 1b13 00000000 		.4byte	0
 16454              	.LLST173:
 16455 1b17 26000000 		.4byte	.LVL428
 16456 1b1b 3A000000 		.4byte	.LVL429
 16457 1b1f 0100     		.2byte	0x1
 16458 1b21 50       		.byte	0x50
ARM GAS  C:\Users\164\AppData\Local\Temp\cc3ssgoH.s 			page 329


 16459 1b22 3A000000 		.4byte	.LVL429
 16460 1b26 40000000 		.4byte	.LVL431
 16461 1b2a 0100     		.2byte	0x1
 16462 1b2c 58       		.byte	0x58
 16463 1b2d 40000000 		.4byte	.LVL431
 16464 1b31 4E000000 		.4byte	.LVL432
 16465 1b35 0100     		.2byte	0x1
 16466 1b37 50       		.byte	0x50
 16467 1b38 4E000000 		.4byte	.LVL432
 16468 1b3c 60000000 		.4byte	.LVL434
 16469 1b40 0100     		.2byte	0x1
 16470 1b42 58       		.byte	0x58
 16471 1b43 60000000 		.4byte	.LVL434
 16472 1b47 62000000 		.4byte	.LVL435
 16473 1b4b 0100     		.2byte	0x1
 16474 1b4d 50       		.byte	0x50
 16475 1b4e 62000000 		.4byte	.LVL435
 16476 1b52 66000000 		.4byte	.LFE94
 16477 1b56 0100     		.2byte	0x1
 16478 1b58 58       		.byte	0x58
 16479 1b59 00000000 		.4byte	0
 16480 1b5d 00000000 		.4byte	0
 16481              	.LLST174:
 16482 1b61 00000000 		.4byte	.LVL436
 16483 1b65 04000000 		.4byte	.LVL437
 16484 1b69 0100     		.2byte	0x1
 16485 1b6b 50       		.byte	0x50
 16486 1b6c 04000000 		.4byte	.LVL437
 16487 1b70 0C000000 		.4byte	.LFE104
 16488 1b74 0400     		.2byte	0x4
 16489 1b76 F3       		.byte	0xf3
 16490 1b77 01       		.uleb128 0x1
 16491 1b78 50       		.byte	0x50
 16492 1b79 9F       		.byte	0x9f
 16493 1b7a 00000000 		.4byte	0
 16494 1b7e 00000000 		.4byte	0
 16495              	.LLST175:
 16496 1b82 00000000 		.4byte	.LVL436
 16497 1b86 06000000 		.4byte	.LVL438
 16498 1b8a 0100     		.2byte	0x1
 16499 1b8c 51       		.byte	0x51
 16500 1b8d 06000000 		.4byte	.LVL438
 16501 1b91 09000000 		.4byte	.LVL439-1
 16502 1b95 0100     		.2byte	0x1
 16503 1b97 50       		.byte	0x50
 16504 1b98 09000000 		.4byte	.LVL439-1
 16505 1b9c 0C000000 		.4byte	.LFE104
 16506 1ba0 0400     		.2byte	0x4
 16507 1ba2 F3       		.byte	0xf3
 16508 1ba3 01       		.uleb128 0x1
 16509 1ba4 51       		.byte	0x51
 16510 1ba5 9F       		.byte	0x9f
 16511 1ba6 00000000 		.4byte	0
 16512 1baa 00000000 		.4byte	0
 16513              	.LLST176:
 16514 1bae 00000000 		.4byte	.LVL436
 16515 1bb2 09000000 		.4byte	.LVL439-1
ARM GAS  C:\Users\164\AppData\Local\Temp\cc3ssgoH.s 			page 330


 16516 1bb6 0100     		.2byte	0x1
 16517 1bb8 52       		.byte	0x52
 16518 1bb9 09000000 		.4byte	.LVL439-1
 16519 1bbd 0C000000 		.4byte	.LFE104
 16520 1bc1 0400     		.2byte	0x4
 16521 1bc3 F3       		.byte	0xf3
 16522 1bc4 01       		.uleb128 0x1
 16523 1bc5 52       		.byte	0x52
 16524 1bc6 9F       		.byte	0x9f
 16525 1bc7 00000000 		.4byte	0
 16526 1bcb 00000000 		.4byte	0
 16527              	.LLST177:
 16528 1bcf 00000000 		.4byte	.LVL440
 16529 1bd3 0E000000 		.4byte	.LVL442
 16530 1bd7 0100     		.2byte	0x1
 16531 1bd9 50       		.byte	0x50
 16532 1bda 0E000000 		.4byte	.LVL442
 16533 1bde 42000000 		.4byte	.LFE95
 16534 1be2 0100     		.2byte	0x1
 16535 1be4 55       		.byte	0x55
 16536 1be5 00000000 		.4byte	0
 16537 1be9 00000000 		.4byte	0
 16538              	.LLST178:
 16539 1bed 00000000 		.4byte	.LVL440
 16540 1bf1 11000000 		.4byte	.LVL443-1
 16541 1bf5 0100     		.2byte	0x1
 16542 1bf7 51       		.byte	0x51
 16543 1bf8 11000000 		.4byte	.LVL443-1
 16544 1bfc 42000000 		.4byte	.LFE95
 16545 1c00 0100     		.2byte	0x1
 16546 1c02 58       		.byte	0x58
 16547 1c03 00000000 		.4byte	0
 16548 1c07 00000000 		.4byte	0
 16549              	.LLST179:
 16550 1c0b 14000000 		.4byte	.LVL444
 16551 1c0f 1A000000 		.4byte	.LVL445
 16552 1c13 0100     		.2byte	0x1
 16553 1c15 50       		.byte	0x50
 16554 1c16 1A000000 		.4byte	.LVL445
 16555 1c1a 30000000 		.4byte	.LVL449
 16556 1c1e 0100     		.2byte	0x1
 16557 1c20 54       		.byte	0x54
 16558 1c21 3C000000 		.4byte	.LVL450
 16559 1c25 42000000 		.4byte	.LFE95
 16560 1c29 0100     		.2byte	0x1
 16561 1c2b 54       		.byte	0x54
 16562 1c2c 00000000 		.4byte	0
 16563 1c30 00000000 		.4byte	0
 16564              	.LLST180:
 16565 1c34 1E000000 		.4byte	.LVL446
 16566 1c38 28000000 		.4byte	.LVL447
 16567 1c3c 0100     		.2byte	0x1
 16568 1c3e 50       		.byte	0x50
 16569 1c3f 28000000 		.4byte	.LVL447
 16570 1c43 3C000000 		.4byte	.LVL450
 16571 1c47 0100     		.2byte	0x1
 16572 1c49 57       		.byte	0x57
ARM GAS  C:\Users\164\AppData\Local\Temp\cc3ssgoH.s 			page 331


 16573 1c4a 3C000000 		.4byte	.LVL450
 16574 1c4e 3E000000 		.4byte	.LVL451
 16575 1c52 0100     		.2byte	0x1
 16576 1c54 50       		.byte	0x50
 16577 1c55 00000000 		.4byte	0
 16578 1c59 00000000 		.4byte	0
 16579              	.LLST181:
 16580 1c5d 00000000 		.4byte	.LVL452
 16581 1c61 1A000000 		.4byte	.LVL455
 16582 1c65 0100     		.2byte	0x1
 16583 1c67 50       		.byte	0x50
 16584 1c68 1A000000 		.4byte	.LVL455
 16585 1c6c 1D000000 		.4byte	.LVL456-1
 16586 1c70 0100     		.2byte	0x1
 16587 1c72 51       		.byte	0x51
 16588 1c73 1D000000 		.4byte	.LVL456-1
 16589 1c77 94000000 		.4byte	.LFE111
 16590 1c7b 0400     		.2byte	0x4
 16591 1c7d F3       		.byte	0xf3
 16592 1c7e 01       		.uleb128 0x1
 16593 1c7f 50       		.byte	0x50
 16594 1c80 9F       		.byte	0x9f
 16595 1c81 00000000 		.4byte	0
 16596 1c85 00000000 		.4byte	0
 16597              	.LLST182:
 16598 1c89 00000000 		.4byte	.LVL452
 16599 1c8d 18000000 		.4byte	.LVL454
 16600 1c91 0100     		.2byte	0x1
 16601 1c93 51       		.byte	0x51
 16602 1c94 18000000 		.4byte	.LVL454
 16603 1c98 8A000000 		.4byte	.LVL465
 16604 1c9c 0100     		.2byte	0x1
 16605 1c9e 55       		.byte	0x55
 16606 1c9f 8A000000 		.4byte	.LVL465
 16607 1ca3 94000000 		.4byte	.LFE111
 16608 1ca7 0400     		.2byte	0x4
 16609 1ca9 F3       		.byte	0xf3
 16610 1caa 01       		.uleb128 0x1
 16611 1cab 51       		.byte	0x51
 16612 1cac 9F       		.byte	0x9f
 16613 1cad 00000000 		.4byte	0
 16614 1cb1 00000000 		.4byte	0
 16615              	.LLST183:
 16616 1cb5 00000000 		.4byte	.LVL452
 16617 1cb9 16000000 		.4byte	.LVL453
 16618 1cbd 0100     		.2byte	0x1
 16619 1cbf 52       		.byte	0x52
 16620 1cc0 16000000 		.4byte	.LVL453
 16621 1cc4 94000000 		.4byte	.LFE111
 16622 1cc8 0400     		.2byte	0x4
 16623 1cca F3       		.byte	0xf3
 16624 1ccb 01       		.uleb128 0x1
 16625 1ccc 52       		.byte	0x52
 16626 1ccd 9F       		.byte	0x9f
 16627 1cce 00000000 		.4byte	0
 16628 1cd2 00000000 		.4byte	0
 16629              	.LLST184:
ARM GAS  C:\Users\164\AppData\Local\Temp\cc3ssgoH.s 			page 332


 16630 1cd6 22000000 		.4byte	.LVL457
 16631 1cda 24000000 		.4byte	.LVL458
 16632 1cde 0200     		.2byte	0x2
 16633 1ce0 30       		.byte	0x30
 16634 1ce1 9F       		.byte	0x9f
 16635 1ce2 24000000 		.4byte	.LVL458
 16636 1ce6 8A000000 		.4byte	.LVL465
 16637 1cea 0100     		.2byte	0x1
 16638 1cec 54       		.byte	0x54
 16639 1ced 00000000 		.4byte	0
 16640 1cf1 00000000 		.4byte	0
 16641              	.LLST185:
 16642 1cf5 1E000000 		.4byte	.LVL456
 16643 1cf9 22000000 		.4byte	.LVL457
 16644 1cfd 0100     		.2byte	0x1
 16645 1cff 55       		.byte	0x55
 16646 1d00 00000000 		.4byte	0
 16647 1d04 00000000 		.4byte	0
 16648              	.LLST186:
 16649 1d08 5E000000 		.4byte	.LVL461
 16650 1d0c 62000000 		.4byte	.LVL462
 16651 1d10 0100     		.2byte	0x1
 16652 1d12 55       		.byte	0x55
 16653 1d13 00000000 		.4byte	0
 16654 1d17 00000000 		.4byte	0
 16655              	.LLST187:
 16656 1d1b 00000000 		.4byte	.LVL466
 16657 1d1f 1C000000 		.4byte	.LVL475
 16658 1d23 0100     		.2byte	0x1
 16659 1d25 50       		.byte	0x50
 16660 1d26 1C000000 		.4byte	.LVL475
 16661 1d2a 40000000 		.4byte	.LFE96
 16662 1d2e 0400     		.2byte	0x4
 16663 1d30 F3       		.byte	0xf3
 16664 1d31 01       		.uleb128 0x1
 16665 1d32 50       		.byte	0x50
 16666 1d33 9F       		.byte	0x9f
 16667 1d34 00000000 		.4byte	0
 16668 1d38 00000000 		.4byte	0
 16669              	.LLST188:
 16670 1d3c 00000000 		.4byte	.LVL466
 16671 1d40 10000000 		.4byte	.LVL470
 16672 1d44 0100     		.2byte	0x1
 16673 1d46 51       		.byte	0x51
 16674 1d47 10000000 		.4byte	.LVL470
 16675 1d4b 40000000 		.4byte	.LFE96
 16676 1d4f 0400     		.2byte	0x4
 16677 1d51 F3       		.byte	0xf3
 16678 1d52 01       		.uleb128 0x1
 16679 1d53 51       		.byte	0x51
 16680 1d54 9F       		.byte	0x9f
 16681 1d55 00000000 		.4byte	0
 16682 1d59 00000000 		.4byte	0
 16683              	.LLST189:
 16684 1d5d 00000000 		.4byte	.LVL466
 16685 1d61 1C000000 		.4byte	.LVL475
 16686 1d65 0100     		.2byte	0x1
ARM GAS  C:\Users\164\AppData\Local\Temp\cc3ssgoH.s 			page 333


 16687 1d67 52       		.byte	0x52
 16688 1d68 1C000000 		.4byte	.LVL475
 16689 1d6c 40000000 		.4byte	.LFE96
 16690 1d70 0400     		.2byte	0x4
 16691 1d72 F3       		.byte	0xf3
 16692 1d73 01       		.uleb128 0x1
 16693 1d74 52       		.byte	0x52
 16694 1d75 9F       		.byte	0x9f
 16695 1d76 00000000 		.4byte	0
 16696 1d7a 00000000 		.4byte	0
 16697              	.LLST190:
 16698 1d7e 04000000 		.4byte	.LVL467
 16699 1d82 0A000000 		.4byte	.LVL468
 16700 1d86 0100     		.2byte	0x1
 16701 1d88 50       		.byte	0x50
 16702 1d89 00000000 		.4byte	0
 16703 1d8d 00000000 		.4byte	0
 16704              	.LLST191:
 16705 1d91 0E000000 		.4byte	.LVL469
 16706 1d95 10000000 		.4byte	.LVL470
 16707 1d99 0100     		.2byte	0x1
 16708 1d9b 51       		.byte	0x51
 16709 1d9c 10000000 		.4byte	.LVL470
 16710 1da0 12000000 		.4byte	.LVL471
 16711 1da4 0400     		.2byte	0x4
 16712 1da6 F3       		.byte	0xf3
 16713 1da7 01       		.uleb128 0x1
 16714 1da8 51       		.byte	0x51
 16715 1da9 9F       		.byte	0x9f
 16716 1daa 00000000 		.4byte	0
 16717 1dae 00000000 		.4byte	0
 16718              	.LLST192:
 16719 1db2 12000000 		.4byte	.LVL471
 16720 1db6 14000000 		.4byte	.LVL472
 16721 1dba 0100     		.2byte	0x1
 16722 1dbc 50       		.byte	0x50
 16723 1dbd 00000000 		.4byte	0
 16724 1dc1 00000000 		.4byte	0
 16725              	.LLST193:
 16726 1dc5 14000000 		.4byte	.LVL472
 16727 1dc9 16000000 		.4byte	.LVL473
 16728 1dcd 0400     		.2byte	0x4
 16729 1dcf F3       		.byte	0xf3
 16730 1dd0 01       		.uleb128 0x1
 16731 1dd1 51       		.byte	0x51
 16732 1dd2 9F       		.byte	0x9f
 16733 1dd3 00000000 		.4byte	0
 16734 1dd7 00000000 		.4byte	0
 16735              	.LLST194:
 16736 1ddb 00000000 		.4byte	.LVL480
 16737 1ddf 16000000 		.4byte	.LVL484
 16738 1de3 0100     		.2byte	0x1
 16739 1de5 50       		.byte	0x50
 16740 1de6 16000000 		.4byte	.LVL484
 16741 1dea 1C000000 		.4byte	.LVL486
 16742 1dee 0400     		.2byte	0x4
 16743 1df0 F3       		.byte	0xf3
ARM GAS  C:\Users\164\AppData\Local\Temp\cc3ssgoH.s 			page 334


 16744 1df1 01       		.uleb128 0x1
 16745 1df2 50       		.byte	0x50
 16746 1df3 9F       		.byte	0x9f
 16747 1df4 1C000000 		.4byte	.LVL486
 16748 1df8 22000000 		.4byte	.LVL489
 16749 1dfc 0100     		.2byte	0x1
 16750 1dfe 50       		.byte	0x50
 16751 1dff 22000000 		.4byte	.LVL489
 16752 1e03 40000000 		.4byte	.LFE132
 16753 1e07 0400     		.2byte	0x4
 16754 1e09 F3       		.byte	0xf3
 16755 1e0a 01       		.uleb128 0x1
 16756 1e0b 50       		.byte	0x50
 16757 1e0c 9F       		.byte	0x9f
 16758 1e0d 00000000 		.4byte	0
 16759 1e11 00000000 		.4byte	0
 16760              	.LLST195:
 16761 1e15 00000000 		.4byte	.LVL480
 16762 1e19 14000000 		.4byte	.LVL483
 16763 1e1d 0100     		.2byte	0x1
 16764 1e1f 51       		.byte	0x51
 16765 1e20 14000000 		.4byte	.LVL483
 16766 1e24 1C000000 		.4byte	.LVL486
 16767 1e28 0400     		.2byte	0x4
 16768 1e2a F3       		.byte	0xf3
 16769 1e2b 01       		.uleb128 0x1
 16770 1e2c 51       		.byte	0x51
 16771 1e2d 9F       		.byte	0x9f
 16772 1e2e 1C000000 		.4byte	.LVL486
 16773 1e32 20000000 		.4byte	.LVL488
 16774 1e36 0100     		.2byte	0x1
 16775 1e38 51       		.byte	0x51
 16776 1e39 20000000 		.4byte	.LVL488
 16777 1e3d 3C000000 		.4byte	.LVL494
 16778 1e41 0100     		.2byte	0x1
 16779 1e43 54       		.byte	0x54
 16780 1e44 3C000000 		.4byte	.LVL494
 16781 1e48 40000000 		.4byte	.LFE132
 16782 1e4c 0400     		.2byte	0x4
 16783 1e4e F3       		.byte	0xf3
 16784 1e4f 01       		.uleb128 0x1
 16785 1e50 51       		.byte	0x51
 16786 1e51 9F       		.byte	0x9f
 16787 1e52 00000000 		.4byte	0
 16788 1e56 00000000 		.4byte	0
 16789              	.LLST196:
 16790 1e5a 00000000 		.4byte	.LVL480
 16791 1e5e 12000000 		.4byte	.LVL482
 16792 1e62 0100     		.2byte	0x1
 16793 1e64 52       		.byte	0x52
 16794 1e65 12000000 		.4byte	.LVL482
 16795 1e69 1C000000 		.4byte	.LVL486
 16796 1e6d 0400     		.2byte	0x4
 16797 1e6f F3       		.byte	0xf3
 16798 1e70 01       		.uleb128 0x1
 16799 1e71 52       		.byte	0x52
 16800 1e72 9F       		.byte	0x9f
ARM GAS  C:\Users\164\AppData\Local\Temp\cc3ssgoH.s 			page 335


 16801 1e73 1C000000 		.4byte	.LVL486
 16802 1e77 1E000000 		.4byte	.LVL487
 16803 1e7b 0100     		.2byte	0x1
 16804 1e7d 52       		.byte	0x52
 16805 1e7e 1E000000 		.4byte	.LVL487
 16806 1e82 40000000 		.4byte	.LFE132
 16807 1e86 0400     		.2byte	0x4
 16808 1e88 F3       		.byte	0xf3
 16809 1e89 01       		.uleb128 0x1
 16810 1e8a 52       		.byte	0x52
 16811 1e8b 9F       		.byte	0x9f
 16812 1e8c 00000000 		.4byte	0
 16813 1e90 00000000 		.4byte	0
 16814              	.LLST197:
 16815 1e94 28000000 		.4byte	.LVL491
 16816 1e98 2A000000 		.4byte	.LVL492
 16817 1e9c 0100     		.2byte	0x1
 16818 1e9e 50       		.byte	0x50
 16819 1e9f 2A000000 		.4byte	.LVL492
 16820 1ea3 3C000000 		.4byte	.LVL494
 16821 1ea7 0100     		.2byte	0x1
 16822 1ea9 55       		.byte	0x55
 16823 1eaa 00000000 		.4byte	0
 16824 1eae 00000000 		.4byte	0
 16825              	.LLST198:
 16826 1eb2 10000000 		.4byte	.LVL481
 16827 1eb6 1C000000 		.4byte	.LVL486
 16828 1eba 0600     		.2byte	0x6
 16829 1ebc 03       		.byte	0x3
 16830 1ebd 00000000 		.4byte	.LC0
 16831 1ec1 9F       		.byte	0x9f
 16832 1ec2 00000000 		.4byte	0
 16833 1ec6 00000000 		.4byte	0
 16834              	.LLST199:
 16835 1eca 00000000 		.4byte	.LVL495
 16836 1ece 12000000 		.4byte	.LVL498
 16837 1ed2 0100     		.2byte	0x1
 16838 1ed4 50       		.byte	0x50
 16839 1ed5 12000000 		.4byte	.LVL498
 16840 1ed9 15000000 		.4byte	.LVL499-1
 16841 1edd 0100     		.2byte	0x1
 16842 1edf 51       		.byte	0x51
 16843 1ee0 15000000 		.4byte	.LVL499-1
 16844 1ee4 EE010000 		.4byte	.LVL566
 16845 1ee8 0300     		.2byte	0x3
 16846 1eea 91       		.byte	0x91
 16847 1eeb 947F     		.sleb128 -108
 16848 1eed EE010000 		.4byte	.LVL566
 16849 1ef1 F8010000 		.4byte	.LFE113
 16850 1ef5 0300     		.2byte	0x3
 16851 1ef7 7D       		.byte	0x7d
 16852 1ef8 947F     		.sleb128 -108
 16853 1efa 00000000 		.4byte	0
 16854 1efe 00000000 		.4byte	0
 16855              	.LLST200:
 16856 1f02 00000000 		.4byte	.LVL495
 16857 1f06 10000000 		.4byte	.LVL497
ARM GAS  C:\Users\164\AppData\Local\Temp\cc3ssgoH.s 			page 336


 16858 1f0a 0100     		.2byte	0x1
 16859 1f0c 51       		.byte	0x51
 16860 1f0d 10000000 		.4byte	.LVL497
 16861 1f11 EE010000 		.4byte	.LVL566
 16862 1f15 0100     		.2byte	0x1
 16863 1f17 56       		.byte	0x56
 16864 1f18 EE010000 		.4byte	.LVL566
 16865 1f1c F8010000 		.4byte	.LFE113
 16866 1f20 0400     		.2byte	0x4
 16867 1f22 F3       		.byte	0xf3
 16868 1f23 01       		.uleb128 0x1
 16869 1f24 51       		.byte	0x51
 16870 1f25 9F       		.byte	0x9f
 16871 1f26 00000000 		.4byte	0
 16872 1f2a 00000000 		.4byte	0
 16873              	.LLST201:
 16874 1f2e 00000000 		.4byte	.LVL495
 16875 1f32 0E000000 		.4byte	.LVL496
 16876 1f36 0100     		.2byte	0x1
 16877 1f38 52       		.byte	0x52
 16878 1f39 0E000000 		.4byte	.LVL496
 16879 1f3d EE010000 		.4byte	.LVL566
 16880 1f41 0100     		.2byte	0x1
 16881 1f43 5B       		.byte	0x5b
 16882 1f44 EE010000 		.4byte	.LVL566
 16883 1f48 F8010000 		.4byte	.LFE113
 16884 1f4c 0400     		.2byte	0x4
 16885 1f4e F3       		.byte	0xf3
 16886 1f4f 01       		.uleb128 0x1
 16887 1f50 52       		.byte	0x52
 16888 1f51 9F       		.byte	0x9f
 16889 1f52 00000000 		.4byte	0
 16890 1f56 00000000 		.4byte	0
 16891              	.LLST202:
 16892 1f5a 20000000 		.4byte	.LVL501
 16893 1f5e 3E000000 		.4byte	.LVL505
 16894 1f62 0200     		.2byte	0x2
 16895 1f64 30       		.byte	0x30
 16896 1f65 9F       		.byte	0x9f
 16897 1f66 3E000000 		.4byte	.LVL505
 16898 1f6a 54000000 		.4byte	.LVL508
 16899 1f6e 0100     		.2byte	0x1
 16900 1f70 58       		.byte	0x58
 16901 1f71 54000000 		.4byte	.LVL508
 16902 1f75 58000000 		.4byte	.LVL509
 16903 1f79 0200     		.2byte	0x2
 16904 1f7b 30       		.byte	0x30
 16905 1f7c 9F       		.byte	0x9f
 16906 1f7d 58000000 		.4byte	.LVL509
 16907 1f81 CE010000 		.4byte	.LVL564
 16908 1f85 0100     		.2byte	0x1
 16909 1f87 58       		.byte	0x58
 16910 1f88 00000000 		.4byte	0
 16911 1f8c 00000000 		.4byte	0
 16912              	.LLST203:
 16913 1f90 C8000000 		.4byte	.LVL518
 16914 1f94 CE010000 		.4byte	.LVL564
ARM GAS  C:\Users\164\AppData\Local\Temp\cc3ssgoH.s 			page 337


 16915 1f98 0100     		.2byte	0x1
 16916 1f9a 59       		.byte	0x59
 16917 1f9b 00000000 		.4byte	0
 16918 1f9f 00000000 		.4byte	0
 16919              	.LLST204:
 16920 1fa3 C8000000 		.4byte	.LVL518
 16921 1fa7 D8000000 		.4byte	.LVL521
 16922 1fab 0200     		.2byte	0x2
 16923 1fad 30       		.byte	0x30
 16924 1fae 9F       		.byte	0x9f
 16925 1faf D8000000 		.4byte	.LVL521
 16926 1fb3 90010000 		.4byte	.LVL556
 16927 1fb7 0100     		.2byte	0x1
 16928 1fb9 54       		.byte	0x54
 16929 1fba 00000000 		.4byte	0
 16930 1fbe 00000000 		.4byte	0
 16931              	.LLST205:
 16932 1fc2 D8000000 		.4byte	.LVL521
 16933 1fc6 CE010000 		.4byte	.LVL564
 16934 1fca 0100     		.2byte	0x1
 16935 1fcc 5A       		.byte	0x5a
 16936 1fcd 00000000 		.4byte	0
 16937 1fd1 00000000 		.4byte	0
 16938              	.LLST206:
 16939 1fd5 16000000 		.4byte	.LVL499
 16940 1fd9 1A000000 		.4byte	.LVL500
 16941 1fdd 0100     		.2byte	0x1
 16942 1fdf 56       		.byte	0x56
 16943 1fe0 00000000 		.4byte	0
 16944 1fe4 00000000 		.4byte	0
 16945              	.LLST207:
 16946 1fe8 2E000000 		.4byte	.LVL502
 16947 1fec 3A000000 		.4byte	.LVL504
 16948 1ff0 0600     		.2byte	0x6
 16949 1ff2 03       		.byte	0x3
 16950 1ff3 54000000 		.4byte	.LC4
 16951 1ff7 9F       		.byte	0x9f
 16952 1ff8 00000000 		.4byte	0
 16953 1ffc 00000000 		.4byte	0
 16954              	.LLST208:
 16955 2000 9C000000 		.4byte	.LVL512
 16956 2004 A8000000 		.4byte	.LVL514
 16957 2008 0600     		.2byte	0x6
 16958 200a 03       		.byte	0x3
 16959 200b 54000000 		.4byte	.LC4
 16960 200f 9F       		.byte	0x9f
 16961 2010 00000000 		.4byte	0
 16962 2014 00000000 		.4byte	0
 16963              	.LLST209:
 16964 2018 A8000000 		.4byte	.LVL514
 16965 201c AC000000 		.4byte	.LVL515
 16966 2020 0400     		.2byte	0x4
 16967 2022 91       		.byte	0x91
 16968 2023 B87F     		.sleb128 -72
 16969 2025 9F       		.byte	0x9f
 16970 2026 00000000 		.4byte	0
 16971 202a 00000000 		.4byte	0
ARM GAS  C:\Users\164\AppData\Local\Temp\cc3ssgoH.s 			page 338


 16972              	.LLST210:
 16973 202e B2000000 		.4byte	.LVL516
 16974 2032 B4000000 		.4byte	.LVL517
 16975 2036 0400     		.2byte	0x4
 16976 2038 91       		.byte	0x91
 16977 2039 B87F     		.sleb128 -72
 16978 203b 9F       		.byte	0x9f
 16979 203c 00000000 		.4byte	0
 16980 2040 00000000 		.4byte	0
 16981              	.LLST211:
 16982 2044 C8000000 		.4byte	.LVL518
 16983 2048 CC000000 		.4byte	.LVL519
 16984 204c 0400     		.2byte	0x4
 16985 204e 91       		.byte	0x91
 16986 204f B87F     		.sleb128 -72
 16987 2051 9F       		.byte	0x9f
 16988 2052 00000000 		.4byte	0
 16989 2056 00000000 		.4byte	0
 16990              	.LLST212:
 16991 205a 10010000 		.4byte	.LVL529
 16992 205e 1E010000 		.4byte	.LVL533
 16993 2062 0100     		.2byte	0x1
 16994 2064 55       		.byte	0x55
 16995 2065 20010000 		.4byte	.LVL534
 16996 2069 2C010000 		.4byte	.LVL537
 16997 206d 0100     		.2byte	0x1
 16998 206f 55       		.byte	0x55
 16999 2070 50010000 		.4byte	.LVL544
 17000 2074 54010000 		.4byte	.LVL546
 17001 2078 0100     		.2byte	0x1
 17002 207a 50       		.byte	0x50
 17003 207b 5E010000 		.4byte	.LVL547
 17004 207f 8A010000 		.4byte	.LVL555
 17005 2083 0100     		.2byte	0x1
 17006 2085 55       		.byte	0x55
 17007 2086 00000000 		.4byte	0
 17008 208a 00000000 		.4byte	0
 17009              	.LLST213:
 17010 208e D8000000 		.4byte	.LVL521
 17011 2092 3E010000 		.4byte	.LVL541
 17012 2096 0100     		.2byte	0x1
 17013 2098 57       		.byte	0x57
 17014 2099 44010000 		.4byte	.LVL542
 17015 209d 66010000 		.4byte	.LVL549
 17016 20a1 0100     		.2byte	0x1
 17017 20a3 57       		.byte	0x57
 17018 20a4 68010000 		.4byte	.LVL550
 17019 20a8 CE010000 		.4byte	.LVL564
 17020 20ac 0100     		.2byte	0x1
 17021 20ae 57       		.byte	0x57
 17022 20af 00000000 		.4byte	0
 17023 20b3 00000000 		.4byte	0
 17024              	.LLST214:
 17025 20b7 E0000000 		.4byte	.LVL522
 17026 20bb E2000000 		.4byte	.LVL523
 17027 20bf 0100     		.2byte	0x1
 17028 20c1 56       		.byte	0x56
ARM GAS  C:\Users\164\AppData\Local\Temp\cc3ssgoH.s 			page 339


 17029 20c2 00000000 		.4byte	0
 17030 20c6 00000000 		.4byte	0
 17031              	.LLST215:
 17032 20ca EC000000 		.4byte	.LVL525
 17033 20ce F0000000 		.4byte	.LVL526
 17034 20d2 0100     		.2byte	0x1
 17035 20d4 56       		.byte	0x56
 17036 20d5 00000000 		.4byte	0
 17037 20d9 00000000 		.4byte	0
 17038              	.LLST216:
 17039 20dd FE000000 		.4byte	.LVL527
 17040 20e1 02010000 		.4byte	.LVL528
 17041 20e5 0300     		.2byte	0x3
 17042 20e7 91       		.byte	0x91
 17043 20e8 48       		.sleb128 -56
 17044 20e9 9F       		.byte	0x9f
 17045 20ea 00000000 		.4byte	0
 17046 20ee 00000000 		.4byte	0
 17047              	.LLST217:
 17048 20f2 10010000 		.4byte	.LVL529
 17049 20f6 12010000 		.4byte	.LVL530
 17050 20fa 0100     		.2byte	0x1
 17051 20fc 56       		.byte	0x56
 17052 20fd 00000000 		.4byte	0
 17053 2101 00000000 		.4byte	0
 17054              	.LLST218:
 17055 2105 20010000 		.4byte	.LVL534
 17056 2109 24010000 		.4byte	.LVL535
 17057 210d 0100     		.2byte	0x1
 17058 210f 56       		.byte	0x56
 17059 2110 00000000 		.4byte	0
 17060 2114 00000000 		.4byte	0
 17061              	.LLST219:
 17062 2118 2C010000 		.4byte	.LVL537
 17063 211c 30010000 		.4byte	.LVL538
 17064 2120 0400     		.2byte	0x4
 17065 2122 91       		.byte	0x91
 17066 2123 B87F     		.sleb128 -72
 17067 2125 9F       		.byte	0x9f
 17068 2126 00000000 		.4byte	0
 17069 212a 00000000 		.4byte	0
 17070              	.LLST220:
 17071 212e 32010000 		.4byte	.LVL539
 17072 2132 36010000 		.4byte	.LVL540
 17073 2136 0100     		.2byte	0x1
 17074 2138 56       		.byte	0x56
 17075 2139 00000000 		.4byte	0
 17076 213d 00000000 		.4byte	0
 17077              	.LLST221:
 17078 2141 62010000 		.4byte	.LVL548
 17079 2145 66010000 		.4byte	.LVL549
 17080 2149 0100     		.2byte	0x1
 17081 214b 56       		.byte	0x56
 17082 214c 00000000 		.4byte	0
 17083 2150 00000000 		.4byte	0
 17084              	.LLST222:
 17085 2154 68010000 		.4byte	.LVL550
ARM GAS  C:\Users\164\AppData\Local\Temp\cc3ssgoH.s 			page 340


 17086 2158 6C010000 		.4byte	.LVL551
 17087 215c 0100     		.2byte	0x1
 17088 215e 56       		.byte	0x56
 17089 215f 00000000 		.4byte	0
 17090 2163 00000000 		.4byte	0
 17091              	.LLST223:
 17092 2167 94010000 		.4byte	.LVL557
 17093 216b 96010000 		.4byte	.LVL558
 17094 216f 0300     		.2byte	0x3
 17095 2171 72       		.byte	0x72
 17096 2172 7F       		.sleb128 -1
 17097 2173 9F       		.byte	0x9f
 17098 2174 96010000 		.4byte	.LVL558
 17099 2178 BA010000 		.4byte	.LVL563
 17100 217c 0100     		.2byte	0x1
 17101 217e 54       		.byte	0x54
 17102 217f 00000000 		.4byte	0
 17103 2183 00000000 		.4byte	0
 17104              	.LLST224:
 17105 2187 90010000 		.4byte	.LVL556
 17106 218b 94010000 		.4byte	.LVL557
 17107 218f 0300     		.2byte	0x3
 17108 2191 91       		.byte	0x91
 17109 2192 48       		.sleb128 -56
 17110 2193 9F       		.byte	0x9f
 17111 2194 00000000 		.4byte	0
 17112 2198 00000000 		.4byte	0
 17113              	.LLST225:
 17114 219c A2010000 		.4byte	.LVL559
 17115 21a0 A6010000 		.4byte	.LVL560
 17116 21a4 0400     		.2byte	0x4
 17117 21a6 91       		.byte	0x91
 17118 21a7 A87F     		.sleb128 -88
 17119 21a9 9F       		.byte	0x9f
 17120 21aa 00000000 		.4byte	0
 17121 21ae 00000000 		.4byte	0
 17122              	.LLST226:
 17123 21b2 00000000 		.4byte	.LVL567
 17124 21b6 2E000000 		.4byte	.LVL575
 17125 21ba 0100     		.2byte	0x1
 17126 21bc 50       		.byte	0x50
 17127 21bd 2E000000 		.4byte	.LVL575
 17128 21c1 50000000 		.4byte	.LFE110
 17129 21c5 0400     		.2byte	0x4
 17130 21c7 F3       		.byte	0xf3
 17131 21c8 01       		.uleb128 0x1
 17132 21c9 50       		.byte	0x50
 17133 21ca 9F       		.byte	0x9f
 17134 21cb 00000000 		.4byte	0
 17135 21cf 00000000 		.4byte	0
 17136              	.LLST227:
 17137 21d3 00000000 		.4byte	.LVL567
 17138 21d7 2C000000 		.4byte	.LVL574
 17139 21db 0100     		.2byte	0x1
 17140 21dd 51       		.byte	0x51
 17141 21de 2C000000 		.4byte	.LVL574
 17142 21e2 50000000 		.4byte	.LFE110
ARM GAS  C:\Users\164\AppData\Local\Temp\cc3ssgoH.s 			page 341


 17143 21e6 0100     		.2byte	0x1
 17144 21e8 54       		.byte	0x54
 17145 21e9 00000000 		.4byte	0
 17146 21ed 00000000 		.4byte	0
 17147              	.LLST228:
 17148 21f1 00000000 		.4byte	.LVL567
 17149 21f5 16000000 		.4byte	.LVL568
 17150 21f9 0100     		.2byte	0x1
 17151 21fb 52       		.byte	0x52
 17152 21fc 16000000 		.4byte	.LVL568
 17153 2200 26000000 		.4byte	.LVL572
 17154 2204 0400     		.2byte	0x4
 17155 2206 F3       		.byte	0xf3
 17156 2207 01       		.uleb128 0x1
 17157 2208 52       		.byte	0x52
 17158 2209 9F       		.byte	0x9f
 17159 220a 26000000 		.4byte	.LVL572
 17160 220e 28000000 		.4byte	.LVL573
 17161 2212 0100     		.2byte	0x1
 17162 2214 52       		.byte	0x52
 17163 2215 28000000 		.4byte	.LVL573
 17164 2219 50000000 		.4byte	.LFE110
 17165 221d 0400     		.2byte	0x4
 17166 221f F3       		.byte	0xf3
 17167 2220 01       		.uleb128 0x1
 17168 2221 52       		.byte	0x52
 17169 2222 9F       		.byte	0x9f
 17170 2223 00000000 		.4byte	0
 17171 2227 00000000 		.4byte	0
 17172              	.LLST229:
 17173 222b 32000000 		.4byte	.LVL576
 17174 222f 38000000 		.4byte	.LVL578
 17175 2233 0100     		.2byte	0x1
 17176 2235 50       		.byte	0x50
 17177 2236 38000000 		.4byte	.LVL578
 17178 223a 44000000 		.4byte	.LVL580
 17179 223e 0100     		.2byte	0x1
 17180 2240 55       		.byte	0x55
 17181 2241 00000000 		.4byte	0
 17182 2245 00000000 		.4byte	0
 17183              	.LLST230:
 17184 2249 16000000 		.4byte	.LVL568
 17185 224d 26000000 		.4byte	.LVL572
 17186 2251 0100     		.2byte	0x1
 17187 2253 52       		.byte	0x52
 17188 2254 28000000 		.4byte	.LVL573
 17189 2258 31000000 		.4byte	.LVL576-1
 17190 225c 0100     		.2byte	0x1
 17191 225e 52       		.byte	0x52
 17192 225f 00000000 		.4byte	0
 17193 2263 00000000 		.4byte	0
 17194              	.LLST231:
 17195 2267 1A000000 		.4byte	.LVL569
 17196 226b 1E000000 		.4byte	.LVL570
 17197 226f 0100     		.2byte	0x1
 17198 2271 51       		.byte	0x51
 17199 2272 00000000 		.4byte	0
ARM GAS  C:\Users\164\AppData\Local\Temp\cc3ssgoH.s 			page 342


 17200 2276 00000000 		.4byte	0
 17201              	.LLST232:
 17202 227a 36000000 		.4byte	.LVL577
 17203 227e 38000000 		.4byte	.LVL578
 17204 2282 0100     		.2byte	0x1
 17205 2284 50       		.byte	0x50
 17206 2285 38000000 		.4byte	.LVL578
 17207 2289 44000000 		.4byte	.LVL580
 17208 228d 0100     		.2byte	0x1
 17209 228f 55       		.byte	0x55
 17210 2290 00000000 		.4byte	0
 17211 2294 00000000 		.4byte	0
 17212              	.LLST233:
 17213 2298 00000000 		.4byte	.LVL582
 17214 229c 1C000000 		.4byte	.LVL587
 17215 22a0 0100     		.2byte	0x1
 17216 22a2 50       		.byte	0x50
 17217 22a3 1C000000 		.4byte	.LVL587
 17218 22a7 2A000000 		.4byte	.LVL590
 17219 22ab 0100     		.2byte	0x1
 17220 22ad 58       		.byte	0x58
 17221 22ae 2A000000 		.4byte	.LVL590
 17222 22b2 2C000000 		.4byte	.LVL591
 17223 22b6 0100     		.2byte	0x1
 17224 22b8 50       		.byte	0x50
 17225 22b9 2C000000 		.4byte	.LVL591
 17226 22bd 80000000 		.4byte	.LFE97
 17227 22c1 0100     		.2byte	0x1
 17228 22c3 58       		.byte	0x58
 17229 22c4 00000000 		.4byte	0
 17230 22c8 00000000 		.4byte	0
 17231              	.LLST234:
 17232 22cc 00000000 		.4byte	.LVL582
 17233 22d0 1C000000 		.4byte	.LVL587
 17234 22d4 0100     		.2byte	0x1
 17235 22d6 51       		.byte	0x51
 17236 22d7 1C000000 		.4byte	.LVL587
 17237 22db 2A000000 		.4byte	.LVL590
 17238 22df 0100     		.2byte	0x1
 17239 22e1 59       		.byte	0x59
 17240 22e2 2A000000 		.4byte	.LVL590
 17241 22e6 2C000000 		.4byte	.LVL591
 17242 22ea 0100     		.2byte	0x1
 17243 22ec 51       		.byte	0x51
 17244 22ed 2C000000 		.4byte	.LVL591
 17245 22f1 4C000000 		.4byte	.LVL596
 17246 22f5 0100     		.2byte	0x1
 17247 22f7 59       		.byte	0x59
 17248 22f8 4C000000 		.4byte	.LVL596
 17249 22fc 80000000 		.4byte	.LFE97
 17250 2300 0400     		.2byte	0x4
 17251 2302 F3       		.byte	0xf3
 17252 2303 01       		.uleb128 0x1
 17253 2304 51       		.byte	0x51
 17254 2305 9F       		.byte	0x9f
 17255 2306 00000000 		.4byte	0
 17256 230a 00000000 		.4byte	0
ARM GAS  C:\Users\164\AppData\Local\Temp\cc3ssgoH.s 			page 343


 17257              	.LLST235:
 17258 230e 1C000000 		.4byte	.LVL587
 17259 2312 2A000000 		.4byte	.LVL590
 17260 2316 0100     		.2byte	0x1
 17261 2318 55       		.byte	0x55
 17262 2319 2C000000 		.4byte	.LVL591
 17263 231d 80000000 		.4byte	.LFE97
 17264 2321 0100     		.2byte	0x1
 17265 2323 55       		.byte	0x55
 17266 2324 00000000 		.4byte	0
 17267 2328 00000000 		.4byte	0
 17268              	.LLST236:
 17269 232c 12000000 		.4byte	.LVL586
 17270 2330 48000000 		.4byte	.LVL595
 17271 2334 0100     		.2byte	0x1
 17272 2336 54       		.byte	0x54
 17273 2337 00000000 		.4byte	0
 17274 233b 00000000 		.4byte	0
 17275              	.LLST237:
 17276 233f 08000000 		.4byte	.LVL583
 17277 2343 0C000000 		.4byte	.LVL584
 17278 2347 0100     		.2byte	0x1
 17279 2349 50       		.byte	0x50
 17280 234a 00000000 		.4byte	0
 17281 234e 00000000 		.4byte	0
 17282              	.LLST238:
 17283 2352 0C000000 		.4byte	.LVL584
 17284 2356 0E000000 		.4byte	.LVL585
 17285 235a 0100     		.2byte	0x1
 17286 235c 50       		.byte	0x50
 17287 235d 00000000 		.4byte	0
 17288 2361 00000000 		.4byte	0
 17289              	.LLST239:
 17290 2365 00000000 		.4byte	.LVL600
 17291 2369 0A000000 		.4byte	.LVL602
 17292 236d 0100     		.2byte	0x1
 17293 236f 50       		.byte	0x50
 17294 2370 0A000000 		.4byte	.LVL602
 17295 2374 32000000 		.4byte	.LFE121
 17296 2378 0400     		.2byte	0x4
 17297 237a F3       		.byte	0xf3
 17298 237b 01       		.uleb128 0x1
 17299 237c 50       		.byte	0x50
 17300 237d 9F       		.byte	0x9f
 17301 237e 00000000 		.4byte	0
 17302 2382 00000000 		.4byte	0
 17303              	.LLST240:
 17304 2386 00000000 		.4byte	.LVL600
 17305 238a 08000000 		.4byte	.LVL601
 17306 238e 0100     		.2byte	0x1
 17307 2390 51       		.byte	0x51
 17308 2391 08000000 		.4byte	.LVL601
 17309 2395 32000000 		.4byte	.LFE121
 17310 2399 0100     		.2byte	0x1
 17311 239b 54       		.byte	0x54
 17312 239c 00000000 		.4byte	0
 17313 23a0 00000000 		.4byte	0
ARM GAS  C:\Users\164\AppData\Local\Temp\cc3ssgoH.s 			page 344


 17314              	.LLST241:
 17315 23a4 00000000 		.4byte	.LVL600
 17316 23a8 0D000000 		.4byte	.LVL603-1
 17317 23ac 0100     		.2byte	0x1
 17318 23ae 52       		.byte	0x52
 17319 23af 0D000000 		.4byte	.LVL603-1
 17320 23b3 32000000 		.4byte	.LFE121
 17321 23b7 0400     		.2byte	0x4
 17322 23b9 F3       		.byte	0xf3
 17323 23ba 01       		.uleb128 0x1
 17324 23bb 52       		.byte	0x52
 17325 23bc 9F       		.byte	0x9f
 17326 23bd 00000000 		.4byte	0
 17327 23c1 00000000 		.4byte	0
 17328              	.LLST242:
 17329 23c5 00000000 		.4byte	.LVL605
 17330 23c9 0E000000 		.4byte	.LVL608
 17331 23cd 0100     		.2byte	0x1
 17332 23cf 50       		.byte	0x50
 17333 23d0 0E000000 		.4byte	.LVL608
 17334 23d4 11000000 		.4byte	.LVL609-1
 17335 23d8 0100     		.2byte	0x1
 17336 23da 51       		.byte	0x51
 17337 23db 11000000 		.4byte	.LVL609-1
 17338 23df 34000000 		.4byte	.LFE120
 17339 23e3 0400     		.2byte	0x4
 17340 23e5 F3       		.byte	0xf3
 17341 23e6 01       		.uleb128 0x1
 17342 23e7 50       		.byte	0x50
 17343 23e8 9F       		.byte	0x9f
 17344 23e9 00000000 		.4byte	0
 17345 23ed 00000000 		.4byte	0
 17346              	.LLST243:
 17347 23f1 00000000 		.4byte	.LVL605
 17348 23f5 0C000000 		.4byte	.LVL607
 17349 23f9 0100     		.2byte	0x1
 17350 23fb 51       		.byte	0x51
 17351 23fc 0C000000 		.4byte	.LVL607
 17352 2400 11000000 		.4byte	.LVL609-1
 17353 2404 0100     		.2byte	0x1
 17354 2406 52       		.byte	0x52
 17355 2407 11000000 		.4byte	.LVL609-1
 17356 240b 34000000 		.4byte	.LFE120
 17357 240f 0100     		.2byte	0x1
 17358 2411 55       		.byte	0x55
 17359 2412 00000000 		.4byte	0
 17360 2416 00000000 		.4byte	0
 17361              	.LLST244:
 17362 241a 00000000 		.4byte	.LVL605
 17363 241e 0A000000 		.4byte	.LVL606
 17364 2422 0100     		.2byte	0x1
 17365 2424 52       		.byte	0x52
 17366 2425 0A000000 		.4byte	.LVL606
 17367 2429 34000000 		.4byte	.LFE120
 17368 242d 0400     		.2byte	0x4
 17369 242f F3       		.byte	0xf3
 17370 2430 01       		.uleb128 0x1
ARM GAS  C:\Users\164\AppData\Local\Temp\cc3ssgoH.s 			page 345


 17371 2431 52       		.byte	0x52
 17372 2432 9F       		.byte	0x9f
 17373 2433 00000000 		.4byte	0
 17374 2437 00000000 		.4byte	0
 17375              	.LLST245:
 17376 243b 00000000 		.4byte	.LVL612
 17377 243f 0A000000 		.4byte	.LVL614
 17378 2443 0100     		.2byte	0x1
 17379 2445 50       		.byte	0x50
 17380 2446 0A000000 		.4byte	.LVL614
 17381 244a 32000000 		.4byte	.LFE119
 17382 244e 0400     		.2byte	0x4
 17383 2450 F3       		.byte	0xf3
 17384 2451 01       		.uleb128 0x1
 17385 2452 50       		.byte	0x50
 17386 2453 9F       		.byte	0x9f
 17387 2454 00000000 		.4byte	0
 17388 2458 00000000 		.4byte	0
 17389              	.LLST246:
 17390 245c 00000000 		.4byte	.LVL612
 17391 2460 08000000 		.4byte	.LVL613
 17392 2464 0100     		.2byte	0x1
 17393 2466 51       		.byte	0x51
 17394 2467 08000000 		.4byte	.LVL613
 17395 246b 32000000 		.4byte	.LFE119
 17396 246f 0100     		.2byte	0x1
 17397 2471 54       		.byte	0x54
 17398 2472 00000000 		.4byte	0
 17399 2476 00000000 		.4byte	0
 17400              	.LLST247:
 17401 247a 00000000 		.4byte	.LVL612
 17402 247e 0D000000 		.4byte	.LVL615-1
 17403 2482 0100     		.2byte	0x1
 17404 2484 52       		.byte	0x52
 17405 2485 0D000000 		.4byte	.LVL615-1
 17406 2489 32000000 		.4byte	.LFE119
 17407 248d 0400     		.2byte	0x4
 17408 248f F3       		.byte	0xf3
 17409 2490 01       		.uleb128 0x1
 17410 2491 52       		.byte	0x52
 17411 2492 9F       		.byte	0x9f
 17412 2493 00000000 		.4byte	0
 17413 2497 00000000 		.4byte	0
 17414              	.LLST248:
 17415 249b 00000000 		.4byte	.LVL617
 17416 249f 0E000000 		.4byte	.LVL620
 17417 24a3 0100     		.2byte	0x1
 17418 24a5 50       		.byte	0x50
 17419 24a6 0E000000 		.4byte	.LVL620
 17420 24aa 11000000 		.4byte	.LVL621-1
 17421 24ae 0100     		.2byte	0x1
 17422 24b0 51       		.byte	0x51
 17423 24b1 11000000 		.4byte	.LVL621-1
 17424 24b5 34000000 		.4byte	.LFE118
 17425 24b9 0400     		.2byte	0x4
 17426 24bb F3       		.byte	0xf3
 17427 24bc 01       		.uleb128 0x1
ARM GAS  C:\Users\164\AppData\Local\Temp\cc3ssgoH.s 			page 346


 17428 24bd 50       		.byte	0x50
 17429 24be 9F       		.byte	0x9f
 17430 24bf 00000000 		.4byte	0
 17431 24c3 00000000 		.4byte	0
 17432              	.LLST249:
 17433 24c7 00000000 		.4byte	.LVL617
 17434 24cb 0C000000 		.4byte	.LVL619
 17435 24cf 0100     		.2byte	0x1
 17436 24d1 51       		.byte	0x51
 17437 24d2 0C000000 		.4byte	.LVL619
 17438 24d6 11000000 		.4byte	.LVL621-1
 17439 24da 0100     		.2byte	0x1
 17440 24dc 52       		.byte	0x52
 17441 24dd 11000000 		.4byte	.LVL621-1
 17442 24e1 34000000 		.4byte	.LFE118
 17443 24e5 0100     		.2byte	0x1
 17444 24e7 55       		.byte	0x55
 17445 24e8 00000000 		.4byte	0
 17446 24ec 00000000 		.4byte	0
 17447              	.LLST250:
 17448 24f0 00000000 		.4byte	.LVL617
 17449 24f4 0A000000 		.4byte	.LVL618
 17450 24f8 0100     		.2byte	0x1
 17451 24fa 52       		.byte	0x52
 17452 24fb 0A000000 		.4byte	.LVL618
 17453 24ff 34000000 		.4byte	.LFE118
 17454 2503 0400     		.2byte	0x4
 17455 2505 F3       		.byte	0xf3
 17456 2506 01       		.uleb128 0x1
 17457 2507 52       		.byte	0x52
 17458 2508 9F       		.byte	0x9f
 17459 2509 00000000 		.4byte	0
 17460 250d 00000000 		.4byte	0
 17461              	.LLST251:
 17462 2511 00000000 		.4byte	.LVL624
 17463 2515 0A000000 		.4byte	.LVL626
 17464 2519 0100     		.2byte	0x1
 17465 251b 50       		.byte	0x50
 17466 251c 0A000000 		.4byte	.LVL626
 17467 2520 32000000 		.4byte	.LFE117
 17468 2524 0400     		.2byte	0x4
 17469 2526 F3       		.byte	0xf3
 17470 2527 01       		.uleb128 0x1
 17471 2528 50       		.byte	0x50
 17472 2529 9F       		.byte	0x9f
 17473 252a 00000000 		.4byte	0
 17474 252e 00000000 		.4byte	0
 17475              	.LLST252:
 17476 2532 00000000 		.4byte	.LVL624
 17477 2536 08000000 		.4byte	.LVL625
 17478 253a 0100     		.2byte	0x1
 17479 253c 51       		.byte	0x51
 17480 253d 08000000 		.4byte	.LVL625
 17481 2541 32000000 		.4byte	.LFE117
 17482 2545 0100     		.2byte	0x1
 17483 2547 54       		.byte	0x54
 17484 2548 00000000 		.4byte	0
ARM GAS  C:\Users\164\AppData\Local\Temp\cc3ssgoH.s 			page 347


 17485 254c 00000000 		.4byte	0
 17486              	.LLST253:
 17487 2550 00000000 		.4byte	.LVL624
 17488 2554 0D000000 		.4byte	.LVL627-1
 17489 2558 0100     		.2byte	0x1
 17490 255a 52       		.byte	0x52
 17491 255b 0D000000 		.4byte	.LVL627-1
 17492 255f 32000000 		.4byte	.LFE117
 17493 2563 0400     		.2byte	0x4
 17494 2565 F3       		.byte	0xf3
 17495 2566 01       		.uleb128 0x1
 17496 2567 52       		.byte	0x52
 17497 2568 9F       		.byte	0x9f
 17498 2569 00000000 		.4byte	0
 17499 256d 00000000 		.4byte	0
 17500              	.LLST254:
 17501 2571 00000000 		.4byte	.LVL629
 17502 2575 0E000000 		.4byte	.LVL632
 17503 2579 0100     		.2byte	0x1
 17504 257b 50       		.byte	0x50
 17505 257c 0E000000 		.4byte	.LVL632
 17506 2580 11000000 		.4byte	.LVL633-1
 17507 2584 0100     		.2byte	0x1
 17508 2586 51       		.byte	0x51
 17509 2587 11000000 		.4byte	.LVL633-1
 17510 258b 34000000 		.4byte	.LFE116
 17511 258f 0400     		.2byte	0x4
 17512 2591 F3       		.byte	0xf3
 17513 2592 01       		.uleb128 0x1
 17514 2593 50       		.byte	0x50
 17515 2594 9F       		.byte	0x9f
 17516 2595 00000000 		.4byte	0
 17517 2599 00000000 		.4byte	0
 17518              	.LLST255:
 17519 259d 00000000 		.4byte	.LVL629
 17520 25a1 0C000000 		.4byte	.LVL631
 17521 25a5 0100     		.2byte	0x1
 17522 25a7 51       		.byte	0x51
 17523 25a8 0C000000 		.4byte	.LVL631
 17524 25ac 11000000 		.4byte	.LVL633-1
 17525 25b0 0100     		.2byte	0x1
 17526 25b2 52       		.byte	0x52
 17527 25b3 11000000 		.4byte	.LVL633-1
 17528 25b7 34000000 		.4byte	.LFE116
 17529 25bb 0100     		.2byte	0x1
 17530 25bd 55       		.byte	0x55
 17531 25be 00000000 		.4byte	0
 17532 25c2 00000000 		.4byte	0
 17533              	.LLST256:
 17534 25c6 00000000 		.4byte	.LVL629
 17535 25ca 0A000000 		.4byte	.LVL630
 17536 25ce 0100     		.2byte	0x1
 17537 25d0 52       		.byte	0x52
 17538 25d1 0A000000 		.4byte	.LVL630
 17539 25d5 34000000 		.4byte	.LFE116
 17540 25d9 0400     		.2byte	0x4
 17541 25db F3       		.byte	0xf3
ARM GAS  C:\Users\164\AppData\Local\Temp\cc3ssgoH.s 			page 348


 17542 25dc 01       		.uleb128 0x1
 17543 25dd 52       		.byte	0x52
 17544 25de 9F       		.byte	0x9f
 17545 25df 00000000 		.4byte	0
 17546 25e3 00000000 		.4byte	0
 17547              	.LLST257:
 17548 25e7 00000000 		.4byte	.LVL636
 17549 25eb 2E000000 		.4byte	.LVL645
 17550 25ef 0100     		.2byte	0x1
 17551 25f1 50       		.byte	0x50
 17552 25f2 2E000000 		.4byte	.LVL645
 17553 25f6 30000000 		.4byte	.LVL646
 17554 25fa 0400     		.2byte	0x4
 17555 25fc F3       		.byte	0xf3
 17556 25fd 01       		.uleb128 0x1
 17557 25fe 50       		.byte	0x50
 17558 25ff 9F       		.byte	0x9f
 17559 2600 30000000 		.4byte	.LVL646
 17560 2604 32000000 		.4byte	.LVL647
 17561 2608 0100     		.2byte	0x1
 17562 260a 50       		.byte	0x50
 17563 260b 32000000 		.4byte	.LVL647
 17564 260f 36000000 		.4byte	.LFE98
 17565 2613 0400     		.2byte	0x4
 17566 2615 F3       		.byte	0xf3
 17567 2616 01       		.uleb128 0x1
 17568 2617 50       		.byte	0x50
 17569 2618 9F       		.byte	0x9f
 17570 2619 00000000 		.4byte	0
 17571 261d 00000000 		.4byte	0
 17572              	.LLST258:
 17573 2621 0C000000 		.4byte	.LVL640
 17574 2625 1E000000 		.4byte	.LVL643
 17575 2629 0100     		.2byte	0x1
 17576 262b 53       		.byte	0x53
 17577 262c 00000000 		.4byte	0
 17578 2630 00000000 		.4byte	0
 17579              	.LLST259:
 17580 2634 02000000 		.4byte	.LVL637
 17581 2638 06000000 		.4byte	.LVL638
 17582 263c 0100     		.2byte	0x1
 17583 263e 50       		.byte	0x50
 17584 263f 00000000 		.4byte	0
 17585 2643 00000000 		.4byte	0
 17586              	.LLST260:
 17587 2647 06000000 		.4byte	.LVL638
 17588 264b 08000000 		.4byte	.LVL639
 17589 264f 0100     		.2byte	0x1
 17590 2651 50       		.byte	0x50
 17591 2652 00000000 		.4byte	0
 17592 2656 00000000 		.4byte	0
 17593              	.LLST261:
 17594 265a 00000000 		.4byte	.LVL648
 17595 265e 08000000 		.4byte	.LVL649
 17596 2662 0100     		.2byte	0x1
 17597 2664 50       		.byte	0x50
 17598 2665 08000000 		.4byte	.LVL649
ARM GAS  C:\Users\164\AppData\Local\Temp\cc3ssgoH.s 			page 349


 17599 2669 30000000 		.4byte	.LFE108
 17600 266d 0400     		.2byte	0x4
 17601 266f F3       		.byte	0xf3
 17602 2670 01       		.uleb128 0x1
 17603 2671 50       		.byte	0x50
 17604 2672 9F       		.byte	0x9f
 17605 2673 00000000 		.4byte	0
 17606 2677 00000000 		.4byte	0
 17607              	.LLST262:
 17608 267b 00000000 		.4byte	.LVL648
 17609 267f 0B000000 		.4byte	.LVL650-1
 17610 2683 0100     		.2byte	0x1
 17611 2685 51       		.byte	0x51
 17612 2686 0B000000 		.4byte	.LVL650-1
 17613 268a 30000000 		.4byte	.LFE108
 17614 268e 0100     		.2byte	0x1
 17615 2690 54       		.byte	0x54
 17616 2691 00000000 		.4byte	0
 17617 2695 00000000 		.4byte	0
 17618              	.LLST263:
 17619 2699 00000000 		.4byte	.LVL648
 17620 269d 0B000000 		.4byte	.LVL650-1
 17621 26a1 0100     		.2byte	0x1
 17622 26a3 52       		.byte	0x52
 17623 26a4 0B000000 		.4byte	.LVL650-1
 17624 26a8 30000000 		.4byte	.LFE108
 17625 26ac 0400     		.2byte	0x4
 17626 26ae F3       		.byte	0xf3
 17627 26af 01       		.uleb128 0x1
 17628 26b0 52       		.byte	0x52
 17629 26b1 9F       		.byte	0x9f
 17630 26b2 00000000 		.4byte	0
 17631 26b6 00000000 		.4byte	0
 17632              	.LLST264:
 17633 26ba 00000000 		.4byte	.LVL652
 17634 26be 0E000000 		.4byte	.LVL655
 17635 26c2 0100     		.2byte	0x1
 17636 26c4 50       		.byte	0x50
 17637 26c5 0E000000 		.4byte	.LVL655
 17638 26c9 11000000 		.4byte	.LVL656-1
 17639 26cd 0100     		.2byte	0x1
 17640 26cf 51       		.byte	0x51
 17641 26d0 11000000 		.4byte	.LVL656-1
 17642 26d4 32000000 		.4byte	.LFE107
 17643 26d8 0400     		.2byte	0x4
 17644 26da F3       		.byte	0xf3
 17645 26db 01       		.uleb128 0x1
 17646 26dc 50       		.byte	0x50
 17647 26dd 9F       		.byte	0x9f
 17648 26de 00000000 		.4byte	0
 17649 26e2 00000000 		.4byte	0
 17650              	.LLST265:
 17651 26e6 00000000 		.4byte	.LVL652
 17652 26ea 0C000000 		.4byte	.LVL654
 17653 26ee 0100     		.2byte	0x1
 17654 26f0 51       		.byte	0x51
 17655 26f1 0C000000 		.4byte	.LVL654
ARM GAS  C:\Users\164\AppData\Local\Temp\cc3ssgoH.s 			page 350


 17656 26f5 11000000 		.4byte	.LVL656-1
 17657 26f9 0100     		.2byte	0x1
 17658 26fb 52       		.byte	0x52
 17659 26fc 11000000 		.4byte	.LVL656-1
 17660 2700 32000000 		.4byte	.LFE107
 17661 2704 0100     		.2byte	0x1
 17662 2706 55       		.byte	0x55
 17663 2707 00000000 		.4byte	0
 17664 270b 00000000 		.4byte	0
 17665              	.LLST266:
 17666 270f 00000000 		.4byte	.LVL652
 17667 2713 0A000000 		.4byte	.LVL653
 17668 2717 0100     		.2byte	0x1
 17669 2719 52       		.byte	0x52
 17670 271a 0A000000 		.4byte	.LVL653
 17671 271e 32000000 		.4byte	.LFE107
 17672 2722 0400     		.2byte	0x4
 17673 2724 F3       		.byte	0xf3
 17674 2725 01       		.uleb128 0x1
 17675 2726 52       		.byte	0x52
 17676 2727 9F       		.byte	0x9f
 17677 2728 00000000 		.4byte	0
 17678 272c 00000000 		.4byte	0
 17679              	.LLST267:
 17680 2730 00000000 		.4byte	.LVL659
 17681 2734 0D000000 		.4byte	.LVL660-1
 17682 2738 0100     		.2byte	0x1
 17683 273a 50       		.byte	0x50
 17684 273b 0D000000 		.4byte	.LVL660-1
 17685 273f 98010000 		.4byte	.LVL693
 17686 2743 0100     		.2byte	0x1
 17687 2745 54       		.byte	0x54
 17688 2746 98010000 		.4byte	.LVL693
 17689 274a 9C020000 		.4byte	.LFE133
 17690 274e 0400     		.2byte	0x4
 17691 2750 F3       		.byte	0xf3
 17692 2751 01       		.uleb128 0x1
 17693 2752 50       		.byte	0x50
 17694 2753 9F       		.byte	0x9f
 17695 2754 00000000 		.4byte	0
 17696 2758 00000000 		.4byte	0
 17697              		.section	.debug_aranges,"",%progbits
 17698 0000 94010000 		.4byte	0x194
 17699 0004 0200     		.2byte	0x2
 17700 0006 00000000 		.4byte	.Ldebug_info0
 17701 000a 04       		.byte	0x4
 17702 000b 00       		.byte	0
 17703 000c 0000     		.2byte	0
 17704 000e 0000     		.2byte	0
 17705 0010 00000000 		.4byte	.LFB86
 17706 0014 20000000 		.4byte	.LFE86-.LFB86
 17707 0018 00000000 		.4byte	.LFB125
 17708 001c 66000000 		.4byte	.LFE125-.LFB125
 17709 0020 00000000 		.4byte	.LFB126
 17710 0024 4A000000 		.4byte	.LFE126-.LFB126
 17711 0028 00000000 		.4byte	.LFB123
 17712 002c 12000000 		.4byte	.LFE123-.LFB123
ARM GAS  C:\Users\164\AppData\Local\Temp\cc3ssgoH.s 			page 351


 17713 0030 00000000 		.4byte	.LFB124
 17714 0034 E0000000 		.4byte	.LFE124-.LFB124
 17715 0038 00000000 		.4byte	.LFB112
 17716 003c 18000000 		.4byte	.LFE112-.LFB112
 17717 0040 00000000 		.4byte	.LFB101
 17718 0044 16000000 		.4byte	.LFE101-.LFB101
 17719 0048 00000000 		.4byte	.LFB103
 17720 004c 20000000 		.4byte	.LFE103-.LFB103
 17721 0050 00000000 		.4byte	.LFB122
 17722 0054 2E000000 		.4byte	.LFE122-.LFB122
 17723 0058 00000000 		.4byte	.LFB102
 17724 005c 2C000000 		.4byte	.LFE102-.LFB102
 17725 0060 00000000 		.4byte	.LFB130
 17726 0064 50000000 		.4byte	.LFE130-.LFB130
 17727 0068 00000000 		.4byte	.LFB131
 17728 006c 54000000 		.4byte	.LFE131-.LFB131
 17729 0070 00000000 		.4byte	.LFB127
 17730 0074 C0000000 		.4byte	.LFE127-.LFB127
 17731 0078 00000000 		.4byte	.LFB129
 17732 007c 16000000 		.4byte	.LFE129-.LFB129
 17733 0080 00000000 		.4byte	.LFB106
 17734 0084 E0000000 		.4byte	.LFE106-.LFB106
 17735 0088 00000000 		.4byte	.LFB87
 17736 008c 66000000 		.4byte	.LFE87-.LFB87
 17737 0090 00000000 		.4byte	.LFB105
 17738 0094 F0000000 		.4byte	.LFE105-.LFB105
 17739 0098 00000000 		.4byte	.LFB100
 17740 009c 88000000 		.4byte	.LFE100-.LFB100
 17741 00a0 00000000 		.4byte	.LFB88
 17742 00a4 24000000 		.4byte	.LFE88-.LFB88
 17743 00a8 00000000 		.4byte	.LFB89
 17744 00ac 32000000 		.4byte	.LFE89-.LFB89
 17745 00b0 00000000 		.4byte	.LFB114
 17746 00b4 44020000 		.4byte	.LFE114-.LFB114
 17747 00b8 00000000 		.4byte	.LFB115
 17748 00bc 20000000 		.4byte	.LFE115-.LFB115
 17749 00c0 00000000 		.4byte	.LFB90
 17750 00c4 14000000 		.4byte	.LFE90-.LFB90
 17751 00c8 00000000 		.4byte	.LFB91
 17752 00cc 18000000 		.4byte	.LFE91-.LFB91
 17753 00d0 00000000 		.4byte	.LFB92
 17754 00d4 22000000 		.4byte	.LFE92-.LFB92
 17755 00d8 00000000 		.4byte	.LFB128
 17756 00dc 3E000000 		.4byte	.LFE128-.LFB128
 17757 00e0 00000000 		.4byte	.LFB109
 17758 00e4 2C000000 		.4byte	.LFE109-.LFB109
 17759 00e8 00000000 		.4byte	.LFB93
 17760 00ec 36000000 		.4byte	.LFE93-.LFB93
 17761 00f0 00000000 		.4byte	.LFB99
 17762 00f4 48000000 		.4byte	.LFE99-.LFB99
 17763 00f8 00000000 		.4byte	.LFB94
 17764 00fc 66000000 		.4byte	.LFE94-.LFB94
 17765 0100 00000000 		.4byte	.LFB104
 17766 0104 0C000000 		.4byte	.LFE104-.LFB104
 17767 0108 00000000 		.4byte	.LFB95
 17768 010c 42000000 		.4byte	.LFE95-.LFB95
 17769 0110 00000000 		.4byte	.LFB111
ARM GAS  C:\Users\164\AppData\Local\Temp\cc3ssgoH.s 			page 352


 17770 0114 94000000 		.4byte	.LFE111-.LFB111
 17771 0118 00000000 		.4byte	.LFB96
 17772 011c 40000000 		.4byte	.LFE96-.LFB96
 17773 0120 00000000 		.4byte	.LFB132
 17774 0124 40000000 		.4byte	.LFE132-.LFB132
 17775 0128 00000000 		.4byte	.LFB113
 17776 012c F8010000 		.4byte	.LFE113-.LFB113
 17777 0130 00000000 		.4byte	.LFB110
 17778 0134 50000000 		.4byte	.LFE110-.LFB110
 17779 0138 00000000 		.4byte	.LFB97
 17780 013c 80000000 		.4byte	.LFE97-.LFB97
 17781 0140 00000000 		.4byte	.LFB121
 17782 0144 32000000 		.4byte	.LFE121-.LFB121
 17783 0148 00000000 		.4byte	.LFB120
 17784 014c 34000000 		.4byte	.LFE120-.LFB120
 17785 0150 00000000 		.4byte	.LFB119
 17786 0154 32000000 		.4byte	.LFE119-.LFB119
 17787 0158 00000000 		.4byte	.LFB118
 17788 015c 34000000 		.4byte	.LFE118-.LFB118
 17789 0160 00000000 		.4byte	.LFB117
 17790 0164 32000000 		.4byte	.LFE117-.LFB117
 17791 0168 00000000 		.4byte	.LFB116
 17792 016c 34000000 		.4byte	.LFE116-.LFB116
 17793 0170 00000000 		.4byte	.LFB98
 17794 0174 36000000 		.4byte	.LFE98-.LFB98
 17795 0178 00000000 		.4byte	.LFB108
 17796 017c 30000000 		.4byte	.LFE108-.LFB108
 17797 0180 00000000 		.4byte	.LFB107
 17798 0184 32000000 		.4byte	.LFE107-.LFB107
 17799 0188 00000000 		.4byte	.LFB133
 17800 018c 9C020000 		.4byte	.LFE133-.LFB133
 17801 0190 00000000 		.4byte	0
 17802 0194 00000000 		.4byte	0
 17803              		.section	.debug_ranges,"",%progbits
 17804              	.Ldebug_ranges0:
 17805 0000 1C000000 		.4byte	.LBB159
 17806 0004 2A000000 		.4byte	.LBE159
 17807 0008 2C000000 		.4byte	.LBB160
 17808 000c 36000000 		.4byte	.LBE160
 17809 0010 00000000 		.4byte	0
 17810 0014 00000000 		.4byte	0
 17811 0018 00000000 		.4byte	.LFB86
 17812 001c 20000000 		.4byte	.LFE86
 17813 0020 00000000 		.4byte	.LFB125
 17814 0024 66000000 		.4byte	.LFE125
 17815 0028 00000000 		.4byte	.LFB126
 17816 002c 4A000000 		.4byte	.LFE126
 17817 0030 00000000 		.4byte	.LFB123
 17818 0034 12000000 		.4byte	.LFE123
 17819 0038 00000000 		.4byte	.LFB124
 17820 003c E0000000 		.4byte	.LFE124
 17821 0040 00000000 		.4byte	.LFB112
 17822 0044 18000000 		.4byte	.LFE112
 17823 0048 00000000 		.4byte	.LFB101
 17824 004c 16000000 		.4byte	.LFE101
 17825 0050 00000000 		.4byte	.LFB103
 17826 0054 20000000 		.4byte	.LFE103
ARM GAS  C:\Users\164\AppData\Local\Temp\cc3ssgoH.s 			page 353


 17827 0058 00000000 		.4byte	.LFB122
 17828 005c 2E000000 		.4byte	.LFE122
 17829 0060 00000000 		.4byte	.LFB102
 17830 0064 2C000000 		.4byte	.LFE102
 17831 0068 00000000 		.4byte	.LFB130
 17832 006c 50000000 		.4byte	.LFE130
 17833 0070 00000000 		.4byte	.LFB131
 17834 0074 54000000 		.4byte	.LFE131
 17835 0078 00000000 		.4byte	.LFB127
 17836 007c C0000000 		.4byte	.LFE127
 17837 0080 00000000 		.4byte	.LFB129
 17838 0084 16000000 		.4byte	.LFE129
 17839 0088 00000000 		.4byte	.LFB106
 17840 008c E0000000 		.4byte	.LFE106
 17841 0090 00000000 		.4byte	.LFB87
 17842 0094 66000000 		.4byte	.LFE87
 17843 0098 00000000 		.4byte	.LFB105
 17844 009c F0000000 		.4byte	.LFE105
 17845 00a0 00000000 		.4byte	.LFB100
 17846 00a4 88000000 		.4byte	.LFE100
 17847 00a8 00000000 		.4byte	.LFB88
 17848 00ac 24000000 		.4byte	.LFE88
 17849 00b0 00000000 		.4byte	.LFB89
 17850 00b4 32000000 		.4byte	.LFE89
 17851 00b8 00000000 		.4byte	.LFB114
 17852 00bc 44020000 		.4byte	.LFE114
 17853 00c0 00000000 		.4byte	.LFB115
 17854 00c4 20000000 		.4byte	.LFE115
 17855 00c8 00000000 		.4byte	.LFB90
 17856 00cc 14000000 		.4byte	.LFE90
 17857 00d0 00000000 		.4byte	.LFB91
 17858 00d4 18000000 		.4byte	.LFE91
 17859 00d8 00000000 		.4byte	.LFB92
 17860 00dc 22000000 		.4byte	.LFE92
 17861 00e0 00000000 		.4byte	.LFB128
 17862 00e4 3E000000 		.4byte	.LFE128
 17863 00e8 00000000 		.4byte	.LFB109
 17864 00ec 2C000000 		.4byte	.LFE109
 17865 00f0 00000000 		.4byte	.LFB93
 17866 00f4 36000000 		.4byte	.LFE93
 17867 00f8 00000000 		.4byte	.LFB99
 17868 00fc 48000000 		.4byte	.LFE99
 17869 0100 00000000 		.4byte	.LFB94
 17870 0104 66000000 		.4byte	.LFE94
 17871 0108 00000000 		.4byte	.LFB104
 17872 010c 0C000000 		.4byte	.LFE104
 17873 0110 00000000 		.4byte	.LFB95
 17874 0114 42000000 		.4byte	.LFE95
 17875 0118 00000000 		.4byte	.LFB111
 17876 011c 94000000 		.4byte	.LFE111
 17877 0120 00000000 		.4byte	.LFB96
 17878 0124 40000000 		.4byte	.LFE96
 17879 0128 00000000 		.4byte	.LFB132
 17880 012c 40000000 		.4byte	.LFE132
 17881 0130 00000000 		.4byte	.LFB113
 17882 0134 F8010000 		.4byte	.LFE113
 17883 0138 00000000 		.4byte	.LFB110
ARM GAS  C:\Users\164\AppData\Local\Temp\cc3ssgoH.s 			page 354


 17884 013c 50000000 		.4byte	.LFE110
 17885 0140 00000000 		.4byte	.LFB97
 17886 0144 80000000 		.4byte	.LFE97
 17887 0148 00000000 		.4byte	.LFB121
 17888 014c 32000000 		.4byte	.LFE121
 17889 0150 00000000 		.4byte	.LFB120
 17890 0154 34000000 		.4byte	.LFE120
 17891 0158 00000000 		.4byte	.LFB119
 17892 015c 32000000 		.4byte	.LFE119
 17893 0160 00000000 		.4byte	.LFB118
 17894 0164 34000000 		.4byte	.LFE118
 17895 0168 00000000 		.4byte	.LFB117
 17896 016c 32000000 		.4byte	.LFE117
 17897 0170 00000000 		.4byte	.LFB116
 17898 0174 34000000 		.4byte	.LFE116
 17899 0178 00000000 		.4byte	.LFB98
 17900 017c 36000000 		.4byte	.LFE98
 17901 0180 00000000 		.4byte	.LFB108
 17902 0184 30000000 		.4byte	.LFE108
 17903 0188 00000000 		.4byte	.LFB107
 17904 018c 32000000 		.4byte	.LFE107
 17905 0190 00000000 		.4byte	.LFB133
 17906 0194 9C020000 		.4byte	.LFE133
 17907 0198 00000000 		.4byte	0
 17908 019c 00000000 		.4byte	0
 17909              		.section	.debug_line,"",%progbits
 17910              	.Ldebug_line0:
 17911 0000 500B0000 		.section	.debug_str,"MS",%progbits,1
 17911      02003902 
 17911      00000201 
 17911      FB0E0D00 
 17911      01010101 
 17912              	.LASF17:
 17913 0000 696E7438 		.ascii	"int8_t\000"
 17913      5F7400
 17914              	.LASF15:
 17915 0007 73697A65 		.ascii	"sizetype\000"
 17915      74797065 
 17915      00
 17916              	.LASF150:
 17917 0010 70617431 		.ascii	"pat1\000"
 17917      00
 17918              	.LASF45:
 17919 0015 4D524243 		.ascii	"MRBC_TT_SYMBOL\000"
 17919      5F54545F 
 17919      53594D42 
 17919      4F4C00
 17920              	.LASF121:
 17921 0024 666C6167 		.ascii	"flag_space\000"
 17921      5F737061 
 17921      636500
 17922              	.LASF151:
 17923 002f 73746172 		.ascii	"start_pos\000"
 17923      745F706F 
 17923      7300
 17924              	.LASF21:
 17925 0039 696E7433 		.ascii	"int32_t\000"
ARM GAS  C:\Users\164\AppData\Local\Temp\cc3ssgoH.s 			page 355


 17925      325F7400 
 17926              	.LASF217:
 17927 0041 6D726263 		.ascii	"mrbc_string_chomp\000"
 17927      5F737472 
 17927      696E675F 
 17927      63686F6D 
 17927      7000
 17928              	.LASF115:
 17929 0053 6D726263 		.ascii	"mrbc_string\000"
 17929      5F737472 
 17929      696E6700 
 17930              	.LASF66:
 17931 005f 455F4E4F 		.ascii	"E_NOTIMP_ERROR\000"
 17931      54494D50 
 17931      5F455252 
 17931      4F5200
 17932              	.LASF164:
 17933 006e 74725F6D 		.ascii	"tr_main\000"
 17933      61696E00 
 17934              	.LASF70:
 17935 0076 696E7374 		.ascii	"instance\000"
 17935      616E6365 
 17935      00
 17936              	.LASF43:
 17937 007f 4D524243 		.ascii	"MRBC_TT_FIXNUM\000"
 17937      5F54545F 
 17937      4649584E 
 17937      554D00
 17938              	.LASF249:
 17939 008e 6D726263 		.ascii	"mrbc_array_new\000"
 17939      5F617272 
 17939      61795F6E 
 17939      657700
 17940              	.LASF109:
 17941 009d 72657073 		.ascii	"reps\000"
 17941      00
 17942              	.LASF192:
 17943 00a2 6D726263 		.ascii	"mrbc_string_append\000"
 17943      5F737472 
 17943      696E675F 
 17943      61707065 
 17943      6E6400
 17944              	.LASF25:
 17945 00b5 6D726263 		.ascii	"mrbc_sym\000"
 17945      5F73796D 
 17945      00
 17946              	.LASF252:
 17947 00be 6D726263 		.ascii	"mrbc_define_method\000"
 17947      5F646566 
 17947      696E655F 
 17947      6D657468 
 17947      6F6400
 17948              	.LASF77:
 17949 00d1 73796D5F 		.ascii	"sym_id\000"
 17949      696400
 17950              	.LASF203:
 17951 00d8 7365705F 		.ascii	"sep_len\000"
ARM GAS  C:\Users\164\AppData\Local\Temp\cc3ssgoH.s 			page 356


 17951      6C656E00 
 17952              	.LASF117:
 17953 00e0 52507269 		.ascii	"RPrintfFormat\000"
 17953      6E746646 
 17953      6F726D61 
 17953      7400
 17954              	.LASF98:
 17955 00ee 524B6579 		.ascii	"RKeyValueHandle\000"
 17955      56616C75 
 17955      6548616E 
 17955      646C6500 
 17956              	.LASF113:
 17957 00fe 6E5F6172 		.ascii	"n_args\000"
 17957      677300
 17958              	.LASF208:
 17959 0105 6D726263 		.ascii	"mrbc_string_strip\000"
 17959      5F737472 
 17959      696E675F 
 17959      73747269 
 17959      7000
 17960              	.LASF103:
 17961 0117 726C656E 		.ascii	"rlen\000"
 17961      00
 17962              	.LASF238:
 17963 011c 61746F6C 		.ascii	"atol\000"
 17963      00
 17964              	.LASF124:
 17965 0121 70726563 		.ascii	"precision\000"
 17965      6973696F 
 17965      6E00
 17966              	.LASF149:
 17967 012b 70617474 		.ascii	"pattern_length\000"
 17967      65726E5F 
 17967      6C656E67 
 17967      746800
 17968              	.LASF166:
 17969 013a 635F7374 		.ascii	"c_string_tr_self\000"
 17969      72696E67 
 17969      5F74725F 
 17969      73656C66 
 17969      00
 17970              	.LASF78:
 17971 014b 73757065 		.ascii	"super\000"
 17971      7200
 17972              	.LASF183:
 17973 0151 6976616C 		.ascii	"ival\000"
 17973      00
 17974              	.LASF82:
 17975 0156 69766172 		.ascii	"ivar\000"
 17975      00
 17976              	.LASF76:
 17977 015b 52436C61 		.ascii	"RClass\000"
 17977      737300
 17978              	.LASF182:
 17979 0162 70665F62 		.ascii	"pf_bak\000"
 17979      616B00
 17980              	.LASF5:
ARM GAS  C:\Users\164\AppData\Local\Temp\cc3ssgoH.s 			page 357


 17981 0169 5F5F7569 		.ascii	"__uint8_t\000"
 17981      6E74385F 
 17981      7400
 17982              	.LASF58:
 17983 0173 455F494E 		.ascii	"E_INDEX_ERROR\000"
 17983      4445585F 
 17983      4552524F 
 17983      5200
 17984              	.LASF227:
 17985 0181 61746F66 		.ascii	"atof\000"
 17985      00
 17986              	.LASF46:
 17987 0186 4D524243 		.ascii	"MRBC_TT_CLASS\000"
 17987      5F54545F 
 17987      434C4153 
 17987      5300
 17988              	.LASF52:
 17989 0194 4D524243 		.ascii	"MRBC_TT_HASH\000"
 17989      5F54545F 
 17989      48415348 
 17989      00
 17990              	.LASF55:
 17991 01a1 455F5255 		.ascii	"E_RUNTIME_ERROR\000"
 17991      4E54494D 
 17991      455F4552 
 17991      524F5200 
 17992              	.LASF139:
 17993 01b1 6D726263 		.ascii	"mrbc_array_size\000"
 17993      5F617272 
 17993      61795F73 
 17993      697A6500 
 17994              	.LASF68:
 17995 01c1 455F4B45 		.ascii	"E_KEY_ERROR\000"
 17995      595F4552 
 17995      524F5200 
 17996              	.LASF224:
 17997 01cd 6D726263 		.ascii	"mrbc_raw_free\000"
 17997      5F726177 
 17997      5F667265 
 17997      6500
 17998              	.LASF12:
 17999 01db 6C6F6E67 		.ascii	"long int\000"
 17999      20696E74 
 17999      00
 18000              	.LASF155:
 18001 01e4 635F7374 		.ascii	"c_string_size\000"
 18001      72696E67 
 18001      5F73697A 
 18001      6500
 18002              	.LASF140:
 18003 01f2 69735F73 		.ascii	"is_space\000"
 18003      70616365 
 18003      00
 18004              	.LASF176:
 18005 01fb 635F6F62 		.ascii	"c_object_sprintf\000"
 18005      6A656374 
 18005      5F737072 
ARM GAS  C:\Users\164\AppData\Local\Temp\cc3ssgoH.s 			page 358


 18005      696E7466 
 18005      00
 18006              	.LASF47:
 18007 020c 4D524243 		.ascii	"MRBC_TT_OBJECT\000"
 18007      5F54545F 
 18007      4F424A45 
 18007      435400
 18008              	.LASF253:
 18009 021b 474E5520 		.ascii	"GNU C11 5.4.1 20160609 (release) [ARM/embedded-5-br"
 18009      43313120 
 18009      352E342E 
 18009      31203230 
 18009      31363036 
 18010 024e 616E6368 		.ascii	"anch revision 237715] -mcpu=cortex-m3 -mthumb -g -O"
 18010      20726576 
 18010      6973696F 
 18010      6E203233 
 18010      37373135 
 18011 0281 67202D66 		.ascii	"g -ffunction-sections -ffat-lto-objects\000"
 18011      66756E63 
 18011      74696F6E 
 18011      2D736563 
 18011      74696F6E 
 18012              	.LASF83:
 18013 02a9 64617461 		.ascii	"data\000"
 18013      00
 18014              	.LASF97:
 18015 02ae 6D726263 		.ascii	"mrbc_class\000"
 18015      5F636C61 
 18015      737300
 18016              	.LASF191:
 18017 02b9 635F7374 		.ascii	"c_string_add\000"
 18017      72696E67 
 18017      5F616464 
 18017      00
 18018              	.LASF3:
 18019 02c6 7369676E 		.ascii	"signed char\000"
 18019      65642063 
 18019      68617200 
 18020              	.LASF18:
 18021 02d2 75696E74 		.ascii	"uint8_t\000"
 18021      385F7400 
 18022              	.LASF209:
 18023 02da 6D6F6465 		.ascii	"mode\000"
 18023      00
 18024              	.LASF147:
 18025 02df 666C6167 		.ascii	"flag_reverse_enable\000"
 18025      5F726576 
 18025      65727365 
 18025      5F656E61 
 18025      626C6500 
 18026              	.LASF207:
 18027 02f3 4E494C5F 		.ascii	"NIL_RETURN\000"
 18027      52455455 
 18027      524E00
 18028              	.LASF119:
 18029 02fe 666C6167 		.ascii	"flag_plus\000"
ARM GAS  C:\Users\164\AppData\Local\Temp\cc3ssgoH.s 			page 359


 18029      5F706C75 
 18029      7300
 18030              	.LASF162:
 18031 0308 635F7374 		.ascii	"c_string_end_with\000"
 18031      72696E67 
 18031      5F656E64 
 18031      5F776974 
 18031      6800
 18032              	.LASF37:
 18033 031a 524F626A 		.ascii	"RObject\000"
 18033      65637400 
 18034              	.LASF6:
 18035 0322 756E7369 		.ascii	"unsigned char\000"
 18035      676E6564 
 18035      20636861 
 18035      7200
 18036              	.LASF81:
 18037 0330 7265665F 		.ascii	"ref_count\000"
 18037      636F756E 
 18037      7400
 18038              	.LASF248:
 18039 033a 6D726263 		.ascii	"mrbc_array_remove\000"
 18039      5F617272 
 18039      61795F72 
 18039      656D6F76 
 18039      6500
 18040              	.LASF237:
 18041 034c 6D726263 		.ascii	"mrbc_printf_bstr\000"
 18041      5F707269 
 18041      6E74665F 
 18041      62737472 
 18041      00
 18042              	.LASF107:
 18043 035d 706F6F6C 		.ascii	"pools\000"
 18043      7300
 18044              	.LASF198:
 18045 0363 635F7374 		.ascii	"c_string_include\000"
 18045      72696E67 
 18045      5F696E63 
 18045      6C756465 
 18045      00
 18046              	.LASF170:
 18047 0374 76616C75 		.ascii	"value\000"
 18047      6500
 18048              	.LASF220:
 18049 037a 6D726263 		.ascii	"mrbc_init_class_string\000"
 18049      5F696E69 
 18049      745F636C 
 18049      6173735F 
 18049      73747269 
 18050              	.LASF16:
 18051 0391 63686172 		.ascii	"char\000"
 18051      00
 18052              	.LASF29:
 18053 0396 70635F69 		.ascii	"pc_irep\000"
 18053      72657000 
 18054              	.LASF61:
ARM GAS  C:\Users\164\AppData\Local\Temp\cc3ssgoH.s 			page 360


 18055 039e 455F4E4F 		.ascii	"E_NOMETHOD_ERROR\000"
 18055      4D455448 
 18055      4F445F45 
 18055      52524F52 
 18055      00
 18056              	.LASF188:
 18057 03af 635F7374 		.ascii	"c_string_tr\000"
 18057      72696E67 
 18057      5F747200 
 18058              	.LASF245:
 18059 03bb 6D726263 		.ascii	"mrbc_raw_realloc\000"
 18059      5F726177 
 18059      5F726561 
 18059      6C6C6F63 
 18059      00
 18060              	.LASF221:
 18061 03cc 6D726263 		.ascii	"mrbc_class_object\000"
 18061      5F636C61 
 18061      73735F6F 
 18061      626A6563 
 18061      7400
 18062              	.LASF9:
 18063 03de 5F5F7569 		.ascii	"__uint16_t\000"
 18063      6E743136 
 18063      5F7400
 18064              	.LASF96:
 18065 03e9 6D726263 		.ascii	"mrbc_value\000"
 18065      5F76616C 
 18065      756500
 18066              	.LASF143:
 18067 03f4 74725F67 		.ascii	"tr_get_character\000"
 18067      65745F63 
 18067      68617261 
 18067      63746572 
 18067      00
 18068              	.LASF87:
 18069 0405 52417272 		.ascii	"RArray\000"
 18069      617900
 18070              	.LASF71:
 18071 040c 70726F63 		.ascii	"proc\000"
 18071      00
 18072              	.LASF28:
 18073 0411 766D5F69 		.ascii	"vm_id\000"
 18073      6400
 18074              	.LASF167:
 18075 0417 635F7374 		.ascii	"c_string_insert\000"
 18075      72696E67 
 18075      5F696E73 
 18075      65727400 
 18076              	.LASF108:
 18077 0427 7074725F 		.ascii	"ptr_to_sym\000"
 18077      746F5F73 
 18077      796D00
 18078              	.LASF172:
 18079 0432 635F7374 		.ascii	"c_string_mul\000"
 18079      72696E67 
 18079      5F6D756C 
ARM GAS  C:\Users\164\AppData\Local\Temp\cc3ssgoH.s 			page 361


 18079      00
 18080              	.LASF215:
 18081 043f 635F7374 		.ascii	"c_string_lstrip_self\000"
 18081      72696E67 
 18081      5F6C7374 
 18081      7269705F 
 18081      73656C66 
 18082              	.LASF173:
 18083 0454 6D726263 		.ascii	"mrbc_string_new\000"
 18083      5F737472 
 18083      696E675F 
 18083      6E657700 
 18084              	.LASF177:
 18085 0464 4255465F 		.ascii	"BUF_INC_STEP\000"
 18085      494E435F 
 18085      53544550 
 18085      00
 18086              	.LASF53:
 18087 0471 6D726263 		.ascii	"mrbc_vtype\000"
 18087      5F767479 
 18087      706500
 18088              	.LASF72:
 18089 047c 61727261 		.ascii	"array\000"
 18089      7900
 18090              	.LASF201:
 18091 0482 6C696D69 		.ascii	"limit\000"
 18091      7400
 18092              	.LASF114:
 18093 0488 6D726263 		.ascii	"mrbc_callinfo\000"
 18093      5F63616C 
 18093      6C696E66 
 18093      6F00
 18094              	.LASF130:
 18095 0496 666C6167 		.ascii	"flag_reverse\000"
 18095      5F726576 
 18095      65727365 
 18095      00
 18096              	.LASF189:
 18097 04a3 635F7374 		.ascii	"c_string_dup\000"
 18097      72696E67 
 18097      5F647570 
 18097      00
 18098              	.LASF60:
 18099 04b0 455F4E41 		.ascii	"E_NAME_ERROR\000"
 18099      4D455F45 
 18099      52524F52 
 18099      00
 18100              	.LASF126:
 18101 04bd 6275665F 		.ascii	"buf_end\000"
 18101      656E6400 
 18102              	.LASF184:
 18103 04c5 635F6F62 		.ascii	"c_object_printf\000"
 18103      6A656374 
 18103      5F707269 
 18103      6E746600 
 18104              	.LASF247:
 18105 04d5 6D726263 		.ascii	"mrbc_array_get\000"
ARM GAS  C:\Users\164\AppData\Local\Temp\cc3ssgoH.s 			page 362


 18105      5F617272 
 18105      61795F67 
 18105      657400
 18106              	.LASF186:
 18107 04e4 6D726263 		.ascii	"mrbc_string_clear_vm_id\000"
 18107      5F737472 
 18107      696E675F 
 18107      636C6561 
 18107      725F766D 
 18108              	.LASF206:
 18109 04fc 696E6465 		.ascii	"index\000"
 18109      7800
 18110              	.LASF129:
 18111 0502 74725F70 		.ascii	"tr_pattern\000"
 18111      61747465 
 18111      726E00
 18112              	.LASF49:
 18113 050d 4D524243 		.ascii	"MRBC_TT_ARRAY\000"
 18113      5F54545F 
 18113      41525241 
 18113      5900
 18114              	.LASF254:
 18115 051b 635F7374 		.ascii	"c_string.c\000"
 18115      72696E67 
 18115      2E6300
 18116              	.LASF41:
 18117 0526 4D524243 		.ascii	"MRBC_TT_FALSE\000"
 18117      5F54545F 
 18117      46414C53 
 18117      4500
 18118              	.LASF13:
 18119 0534 6C6F6E67 		.ascii	"long unsigned int\000"
 18119      20756E73 
 18119      69676E65 
 18119      6420696E 
 18119      7400
 18120              	.LASF239:
 18121 0546 6D726263 		.ascii	"mrbc_printf_int\000"
 18121      5F707269 
 18121      6E74665F 
 18121      696E7400 
 18122              	.LASF178:
 18123 0556 666F726D 		.ascii	"format\000"
 18123      617400
 18124              	.LASF234:
 18125 055d 636F6E73 		.ascii	"console_printf\000"
 18125      6F6C655F 
 18125      7072696E 
 18125      746600
 18126              	.LASF136:
 18127 056c 6D726263 		.ascii	"mrbc_printf_init\000"
 18127      5F707269 
 18127      6E74665F 
 18127      696E6974 
 18127      00
 18128              	.LASF160:
 18129 057d 636F6E73 		.ascii	"console_print\000"
ARM GAS  C:\Users\164\AppData\Local\Temp\cc3ssgoH.s 			page 363


 18129      6F6C655F 
 18129      7072696E 
 18129      7400
 18130              	.LASF90:
 18131 058b 52537472 		.ascii	"RString\000"
 18131      696E6700 
 18132              	.LASF89:
 18133 0593 6E5F7374 		.ascii	"n_stored\000"
 18133      6F726564 
 18133      00
 18134              	.LASF228:
 18135 059c 6D726263 		.ascii	"mrbc_symbol_new\000"
 18135      5F73796D 
 18135      626F6C5F 
 18135      6E657700 
 18136              	.LASF218:
 18137 05ac 635F7374 		.ascii	"c_string_chomp_self\000"
 18137      72696E67 
 18137      5F63686F 
 18137      6D705F73 
 18137      656C6600 
 18138              	.LASF27:
 18139 05c0 69726570 		.ascii	"irep\000"
 18139      00
 18140              	.LASF104:
 18141 05c5 696C656E 		.ascii	"ilen\000"
 18141      00
 18142              	.LASF193:
 18143 05ca 635F7374 		.ascii	"c_string_append\000"
 18143      72696E67 
 18143      5F617070 
 18143      656E6400 
 18144              	.LASF88:
 18145 05da 64617461 		.ascii	"data_size\000"
 18145      5F73697A 
 18145      6500
 18146              	.LASF92:
 18147 05e4 5252616E 		.ascii	"RRange\000"
 18147      676500
 18148              	.LASF204:
 18149 05eb 53504C49 		.ascii	"SPLIT_ITEM\000"
 18149      545F4954 
 18149      454D00
 18150              	.LASF154:
 18151 05f6 61726763 		.ascii	"argc\000"
 18151      00
 18152              	.LASF132:
 18153 05fb 6D726263 		.ascii	"mrbc_string_cstr\000"
 18153      5F737472 
 18153      696E675F 
 18153      63737472 
 18153      00
 18154              	.LASF156:
 18155 060c 635F7374 		.ascii	"c_string_to_f\000"
 18155      72696E67 
 18155      5F746F5F 
 18155      6600
ARM GAS  C:\Users\164\AppData\Local\Temp\cc3ssgoH.s 			page 364


 18156              	.LASF48:
 18157 061a 4D524243 		.ascii	"MRBC_TT_PROC\000"
 18157      5F54545F 
 18157      50524F43 
 18157      00
 18158              	.LASF153:
 18159 0627 635F7374 		.ascii	"c_string_ord\000"
 18159      72696E67 
 18159      5F6F7264 
 18159      00
 18160              	.LASF79:
 18161 0634 70726F63 		.ascii	"procs\000"
 18161      7300
 18162              	.LASF38:
 18163 063a 4D524243 		.ascii	"MRBC_TT_HANDLE\000"
 18163      5F54545F 
 18163      48414E44 
 18163      4C4500
 18164              	.LASF194:
 18165 0649 6D726263 		.ascii	"mrbc_string_append_cstr\000"
 18165      5F737472 
 18165      696E675F 
 18165      61707065 
 18165      6E645F63 
 18166              	.LASF222:
 18167 0661 6D726263 		.ascii	"mrbc_class_string\000"
 18167      5F636C61 
 18167      73735F73 
 18167      7472696E 
 18167      6700
 18168              	.LASF31:
 18169 0673 63757272 		.ascii	"current_regs\000"
 18169      656E745F 
 18169      72656773 
 18169      00
 18170              	.LASF1:
 18171 0680 6C6F6E67 		.ascii	"long long int\000"
 18171      206C6F6E 
 18171      6720696E 
 18171      7400
 18172              	.LASF123:
 18173 068e 77696474 		.ascii	"width\000"
 18173      6800
 18174              	.LASF236:
 18175 0694 73796D69 		.ascii	"symid_to_str\000"
 18175      645F746F 
 18175      5F737472 
 18175      00
 18176              	.LASF205:
 18177 06a1 635F7374 		.ascii	"c_string_index\000"
 18177      72696E67 
 18177      5F696E64 
 18177      657800
 18178              	.LASF56:
 18179 06b0 455F5459 		.ascii	"E_TYPE_ERROR\000"
 18179      50455F45 
 18179      52524F52 
ARM GAS  C:\Users\164\AppData\Local\Temp\cc3ssgoH.s 			page 365


 18179      00
 18180              	.LASF197:
 18181 06bd 7472795F 		.ascii	"try_cnt\000"
 18181      636E7400 
 18182              	.LASF24:
 18183 06c5 646F7562 		.ascii	"double\000"
 18183      6C6500
 18184              	.LASF213:
 18185 06cc 635F7374 		.ascii	"c_string_rstrip_self\000"
 18185      72696E67 
 18185      5F727374 
 18185      7269705F 
 18185      73656C66 
 18186              	.LASF216:
 18187 06e1 635F7374 		.ascii	"c_string_lstrip\000"
 18187      72696E67 
 18187      5F6C7374 
 18187      72697000 
 18188              	.LASF223:
 18189 06f1 49544D5F 		.ascii	"ITM_RxBuffer\000"
 18189      52784275 
 18189      66666572 
 18189      00
 18190              	.LASF232:
 18191 06fe 6D656D6D 		.ascii	"memmove\000"
 18191      6F766500 
 18192              	.LASF80:
 18193 0706 52496E73 		.ascii	"RInstance\000"
 18193      74616E63 
 18193      6500
 18194              	.LASF67:
 18195 0710 455F464C 		.ascii	"E_FLOATDOMAIN_ERROR\000"
 18195      4F415444 
 18195      4F4D4149 
 18195      4E5F4552 
 18195      524F5200 
 18196              	.LASF116:
 18197 0724 666C6F61 		.ascii	"float\000"
 18197      7400
 18198              	.LASF195:
 18199 072a 635F7374 		.ascii	"c_string_inspect\000"
 18199      72696E67 
 18199      5F696E73 
 18199      70656374 
 18199      00
 18200              	.LASF73:
 18201 073b 73747269 		.ascii	"string\000"
 18201      6E6700
 18202              	.LASF0:
 18203 0742 756E7369 		.ascii	"unsigned int\000"
 18203      676E6564 
 18203      20696E74 
 18203      00
 18204              	.LASF51:
 18205 074f 4D524243 		.ascii	"MRBC_TT_RANGE\000"
 18205      5F54545F 
 18205      52414E47 
ARM GAS  C:\Users\164\AppData\Local\Temp\cc3ssgoH.s 			page 366


 18205      4500
 18206              	.LASF179:
 18207 075d 6275666C 		.ascii	"buflen\000"
 18207      656E00
 18208              	.LASF225:
 18209 0764 6D726263 		.ascii	"mrbc_alloc\000"
 18209      5F616C6C 
 18209      6F6300
 18210              	.LASF165:
 18211 076f 666C6167 		.ascii	"flag_changed\000"
 18211      5F636861 
 18211      6E676564 
 18211      00
 18212              	.LASF142:
 18213 077c 6E5F7375 		.ascii	"n_sum\000"
 18213      6D00
 18214              	.LASF174:
 18215 0782 6D726263 		.ascii	"mrbc_string_new_cstr\000"
 18215      5F737472 
 18215      696E675F 
 18215      6E65775F 
 18215      63737472 
 18216              	.LASF211:
 18217 0797 635F7374 		.ascii	"c_string_strip_self\000"
 18217      72696E67 
 18217      5F737472 
 18217      69705F73 
 18217      656C6600 
 18218              	.LASF137:
 18219 07ab 6D726263 		.ascii	"mrbc_printf_end\000"
 18219      5F707269 
 18219      6E74665F 
 18219      656E6400 
 18220              	.LASF163:
 18221 07bb 6F666673 		.ascii	"offset\000"
 18221      657400
 18222              	.LASF169:
 18223 07c2 6C656E32 		.ascii	"len2\000"
 18223      00
 18224              	.LASF168:
 18225 07c7 6C656E31 		.ascii	"len1\000"
 18225      00
 18226              	.LASF93:
 18227 07cc 52486173 		.ascii	"RHash\000"
 18227      6800
 18228              	.LASF35:
 18229 07d2 666C6167 		.ascii	"flag_preemption\000"
 18229      5F707265 
 18229      656D7074 
 18229      696F6E00 
 18230              	.LASF185:
 18231 07e2 6D726263 		.ascii	"mrbc_string_delete\000"
 18231      5F737472 
 18231      696E675F 
 18231      64656C65 
 18231      746500
 18232              	.LASF244:
ARM GAS  C:\Users\164\AppData\Local\Temp\cc3ssgoH.s 			page 367


 18233 07f5 6D726263 		.ascii	"mrbc_set_vm_id\000"
 18233      5F736574 
 18233      5F766D5F 
 18233      696400
 18234              	.LASF62:
 18235 0804 455F5343 		.ascii	"E_SCRIPT_ERROR\000"
 18235      52495054 
 18235      5F455252 
 18235      4F5200
 18236              	.LASF152:
 18237 0813 74725F66 		.ascii	"tr_free_pattern\000"
 18237      7265655F 
 18237      70617474 
 18237      65726E00 
 18238              	.LASF133:
 18239 0823 6D726263 		.ascii	"mrbc_printf_str\000"
 18239      5F707269 
 18239      6E74665F 
 18239      73747200 
 18240              	.LASF144:
 18241 0833 6E5F7468 		.ascii	"n_th\000"
 18241      00
 18242              	.LASF118:
 18243 0838 74797065 		.ascii	"type\000"
 18243      00
 18244              	.LASF120:
 18245 083d 666C6167 		.ascii	"flag_minus\000"
 18245      5F6D696E 
 18245      757300
 18246              	.LASF2:
 18247 0848 6C6F6E67 		.ascii	"long double\000"
 18247      20646F75 
 18247      626C6500 
 18248              	.LASF233:
 18249 0854 6D726263 		.ascii	"mrbc_realloc\000"
 18249      5F726561 
 18249      6C6C6F63 
 18249      00
 18250              	.LASF141:
 18251 0861 74725F66 		.ascii	"tr_find_character\000"
 18251      696E645F 
 18251      63686172 
 18251      61637465 
 18251      7200
 18252              	.LASF180:
 18253 0873 52455455 		.ascii	"RETURN_NIL\000"
 18253      524E5F4E 
 18253      494C00
 18254              	.LASF196:
 18255 087e 6D726263 		.ascii	"mrbc_string_index\000"
 18255      5F737472 
 18255      696E675F 
 18255      696E6465 
 18255      7800
 18256              	.LASF69:
 18257 0890 68616E64 		.ascii	"handle\000"
 18257      6C6500
ARM GAS  C:\Users\164\AppData\Local\Temp\cc3ssgoH.s 			page 368


 18258              	.LASF210:
 18259 0897 6E65775F 		.ascii	"new_size\000"
 18259      73697A65 
 18259      00
 18260              	.LASF202:
 18261 08a0 666C6167 		.ascii	"flag_strip\000"
 18261      5F737472 
 18261      697000
 18262              	.LASF190:
 18263 08ab 6D726263 		.ascii	"mrbc_string_add\000"
 18263      5F737472 
 18263      696E675F 
 18263      61646400 
 18264              	.LASF4:
 18265 08bb 5F5F696E 		.ascii	"__int8_t\000"
 18265      74385F74 
 18265      00
 18266              	.LASF54:
 18267 08c4 455F4E4F 		.ascii	"E_NOMEMORY_ERROR\000"
 18267      4D454D4F 
 18267      52595F45 
 18267      52524F52 
 18267      00
 18268              	.LASF229:
 18269 08d5 6D726263 		.ascii	"mrbc_atoi\000"
 18269      5F61746F 
 18269      6900
 18270              	.LASF42:
 18271 08df 4D524243 		.ascii	"MRBC_TT_TRUE\000"
 18271      5F54545F 
 18271      54525545 
 18271      00
 18272              	.LASF91:
 18273 08ec 73697A65 		.ascii	"size\000"
 18273      00
 18274              	.LASF14:
 18275 08f1 6C6F6E67 		.ascii	"long long unsigned int\000"
 18275      206C6F6E 
 18275      6720756E 
 18275      7369676E 
 18275      65642069 
 18276              	.LASF50:
 18277 0908 4D524243 		.ascii	"MRBC_TT_STRING\000"
 18277      5F54545F 
 18277      53545249 
 18277      4E4700
 18278              	.LASF22:
 18279 0917 6D726263 		.ascii	"mrbc_int\000"
 18279      5F696E74 
 18279      00
 18280              	.LASF85:
 18281 0920 635F6675 		.ascii	"c_func\000"
 18281      6E6300
 18282              	.LASF20:
 18283 0927 75696E74 		.ascii	"uint16_t\000"
 18283      31365F74 
 18283      00
ARM GAS  C:\Users\164\AppData\Local\Temp\cc3ssgoH.s 			page 369


 18284              	.LASF199:
 18285 0930 635F7374 		.ascii	"c_string_split\000"
 18285      72696E67 
 18285      5F73706C 
 18285      697400
 18286              	.LASF131:
 18287 093f 6D726263 		.ascii	"mrbc_string_size\000"
 18287      5F737472 
 18287      696E675F 
 18287      73697A65 
 18287      00
 18288              	.LASF135:
 18289 0950 6D726263 		.ascii	"mrbc_printf_len\000"
 18289      5F707269 
 18289      6E74665F 
 18289      6C656E00 
 18290              	.LASF36:
 18291 0960 666C6167 		.ascii	"flag_need_memfree\000"
 18291      5F6E6565 
 18291      645F6D65 
 18291      6D667265 
 18291      6500
 18292              	.LASF34:
 18293 0972 6572726F 		.ascii	"error_code\000"
 18293      725F636F 
 18293      646500
 18294              	.LASF7:
 18295 097d 5F5F696E 		.ascii	"__int16_t\000"
 18295      7431365F 
 18295      7400
 18296              	.LASF30:
 18297 0987 72656773 		.ascii	"regs\000"
 18297      00
 18298              	.LASF122:
 18299 098c 666C6167 		.ascii	"flag_zero\000"
 18299      5F7A6572 
 18299      6F00
 18300              	.LASF100:
 18301 0996 49524550 		.ascii	"IREP\000"
 18301      00
 18302              	.LASF242:
 18303 099b 6D726263 		.ascii	"mrbc_printf_float\000"
 18303      5F707269 
 18303      6E74665F 
 18303      666C6F61 
 18303      7400
 18304              	.LASF105:
 18305 09ad 706C656E 		.ascii	"plen\000"
 18305      00
 18306              	.LASF106:
 18307 09b2 636F6465 		.ascii	"code\000"
 18307      00
 18308              	.LASF64:
 18309 09b7 455F4C4F 		.ascii	"E_LOCALJUMP_ERROR\000"
 18309      43414C4A 
 18309      554D505F 
 18309      4552524F 
ARM GAS  C:\Users\164\AppData\Local\Temp\cc3ssgoH.s 			page 370


 18309      5200
 18310              	.LASF226:
 18311 09c9 6D726263 		.ascii	"mrbc_dec_ref_counter\000"
 18311      5F646563 
 18311      5F726566 
 18311      5F636F75 
 18311      6E746572 
 18312              	.LASF231:
 18313 09de 6D656D63 		.ascii	"memcmp\000"
 18313      6D7000
 18314              	.LASF161:
 18315 09e5 635F7374 		.ascii	"c_string_start_with\000"
 18315      72696E67 
 18315      5F737461 
 18315      72745F77 
 18315      69746800 
 18316              	.LASF65:
 18317 09f9 455F5245 		.ascii	"E_REGEXP_ERROR\000"
 18317      47455850 
 18317      5F455252 
 18317      4F5200
 18318              	.LASF59:
 18319 0a08 455F5241 		.ascii	"E_RANGE_ERROR\000"
 18319      4E47455F 
 18319      4552524F 
 18319      5200
 18320              	.LASF111:
 18321 0a16 43414C4C 		.ascii	"CALLINFO\000"
 18321      494E464F 
 18321      00
 18322              	.LASF127:
 18323 0a1f 66737472 		.ascii	"fstr\000"
 18323      00
 18324              	.LASF8:
 18325 0a24 73686F72 		.ascii	"short int\000"
 18325      7420696E 
 18325      7400
 18326              	.LASF240:
 18327 0a2e 6D726263 		.ascii	"mrbc_printf_main\000"
 18327      5F707269 
 18327      6E74665F 
 18327      6D61696E 
 18327      00
 18328              	.LASF246:
 18329 0a3f 6D726263 		.ascii	"mrbc_array_push\000"
 18329      5F617272 
 18329      61795F70 
 18329      75736800 
 18330              	.LASF148:
 18331 0a4f 70617474 		.ascii	"pattern\000"
 18331      65726E00 
 18332              	.LASF99:
 18333 0a57 66756E63 		.ascii	"func\000"
 18333      00
 18334              	.LASF74:
 18335 0a5c 72616E67 		.ascii	"range\000"
 18335      6500
ARM GAS  C:\Users\164\AppData\Local\Temp\cc3ssgoH.s 			page 371


 18336              	.LASF145:
 18337 0a62 74725F70 		.ascii	"tr_parse_pattern\000"
 18337      61727365 
 18337      5F706174 
 18337      7465726E 
 18337      00
 18338              	.LASF146:
 18339 0a73 765F7061 		.ascii	"v_pattern\000"
 18339      74746572 
 18339      6E00
 18340              	.LASF40:
 18341 0a7d 4D524243 		.ascii	"MRBC_TT_NIL\000"
 18341      5F54545F 
 18341      4E494C00 
 18342              	.LASF134:
 18343 0a89 6D726263 		.ascii	"mrbc_symbol_cstr\000"
 18343      5F73796D 
 18343      626F6C5F 
 18343      63737472 
 18343      00
 18344              	.LASF243:
 18345 0a9a 6D726263 		.ascii	"mrbc_printf_replace_buffer\000"
 18345      5F707269 
 18345      6E74665F 
 18345      7265706C 
 18345      6163655F 
 18346              	.LASF19:
 18347 0ab5 696E7431 		.ascii	"int16_t\000"
 18347      365F7400 
 18348              	.LASF128:
 18349 0abd 6D726263 		.ascii	"mrbc_printf\000"
 18349      5F707269 
 18349      6E746600 
 18350              	.LASF95:
 18351 0ac9 6D726263 		.ascii	"mrbc_object\000"
 18351      5F6F626A 
 18351      65637400 
 18352              	.LASF187:
 18353 0ad5 6D726263 		.ascii	"mrbc_string_dup\000"
 18353      5F737472 
 18353      696E675F 
 18353      64757000 
 18354              	.LASF157:
 18355 0ae5 635F7374 		.ascii	"c_string_to_sym\000"
 18355      72696E67 
 18355      5F746F5F 
 18355      73796D00 
 18356              	.LASF138:
 18357 0af5 636F6E73 		.ascii	"console_nprint\000"
 18357      6F6C655F 
 18357      6E707269 
 18357      6E7400
 18358              	.LASF181:
 18359 0b04 494E4352 		.ascii	"INCREASE_BUFFER\000"
 18359      45415345 
 18359      5F425546 
 18359      46455200 
ARM GAS  C:\Users\164\AppData\Local\Temp\cc3ssgoH.s 			page 372


 18360              	.LASF175:
 18361 0b14 6D726263 		.ascii	"mrbc_string_new_alloc\000"
 18361      5F737472 
 18361      696E675F 
 18361      6E65775F 
 18361      616C6C6F 
 18362              	.LASF26:
 18363 0b2a 6D726263 		.ascii	"mrbc_func_t\000"
 18363      5F66756E 
 18363      635F7400 
 18364              	.LASF235:
 18365 0b36 7374726C 		.ascii	"strlen\000"
 18365      656E00
 18366              	.LASF214:
 18367 0b3d 635F7374 		.ascii	"c_string_rstrip\000"
 18367      72696E67 
 18367      5F727374 
 18367      72697000 
 18368              	.LASF256:
 18369 0b4d 6D656D63 		.ascii	"memcpy\000"
 18369      707900
 18370              	.LASF171:
 18371 0b54 635F7374 		.ascii	"c_string_slice\000"
 18371      72696E67 
 18371      5F736C69 
 18371      636500
 18372              	.LASF219:
 18373 0b63 635F7374 		.ascii	"c_string_chomp\000"
 18373      72696E67 
 18373      5F63686F 
 18373      6D7000
 18374              	.LASF57:
 18375 0b72 455F4152 		.ascii	"E_ARGUMENT_ERROR\000"
 18375      47554D45 
 18375      4E545F45 
 18375      52524F52 
 18375      00
 18376              	.LASF102:
 18377 0b83 6E726567 		.ascii	"nregs\000"
 18377      7300
 18378              	.LASF94:
 18379 0b89 6D72625F 		.ascii	"mrb_value\000"
 18379      76616C75 
 18379      6500
 18380              	.LASF241:
 18381 0b93 6D726263 		.ascii	"mrbc_printf_char\000"
 18381      5F707269 
 18381      6E74665F 
 18381      63686172 
 18381      00
 18382              	.LASF200:
 18383 0ba4 444F4E45 		.ascii	"DONE\000"
 18383      00
 18384              	.LASF63:
 18385 0ba9 455F5359 		.ascii	"E_SYNTAX_ERROR\000"
 18385      4E544158 
 18385      5F455252 
ARM GAS  C:\Users\164\AppData\Local\Temp\cc3ssgoH.s 			page 373


 18385      4F5200
 18386              	.LASF10:
 18387 0bb8 73686F72 		.ascii	"short unsigned int\000"
 18387      7420756E 
 18387      7369676E 
 18387      65642069 
 18387      6E7400
 18388              	.LASF250:
 18389 0bcb 6D726263 		.ascii	"mrbc_dup\000"
 18389      5F647570 
 18389      00
 18390              	.LASF255:
 18391 0bd4 433A5C55 		.ascii	"C:\\Users\\164\\Desktop\\github\\mcmc\\Design01.cyd"
 18391      73657273 
 18391      5C313634 
 18391      5C446573 
 18391      6B746F70 
 18392 0c01 736E00   		.ascii	"sn\000"
 18393              	.LASF159:
 18394 0c04 62617365 		.ascii	"base\000"
 18394      00
 18395              	.LASF212:
 18396 0c09 635F7374 		.ascii	"c_string_strip\000"
 18396      72696E67 
 18396      5F737472 
 18396      697000
 18397              	.LASF33:
 18398 0c18 74617267 		.ascii	"target_class\000"
 18398      65745F63 
 18398      6C617373 
 18398      00
 18399              	.LASF84:
 18400 0c25 5250726F 		.ascii	"RProc\000"
 18400      6300
 18401              	.LASF11:
 18402 0c2b 5F5F696E 		.ascii	"__int32_t\000"
 18402      7433325F 
 18402      7400
 18403              	.LASF23:
 18404 0c35 6D726263 		.ascii	"mrbc_float\000"
 18404      5F666C6F 
 18404      617400
 18405              	.LASF230:
 18406 0c40 68616C5F 		.ascii	"hal_write\000"
 18406      77726974 
 18406      6500
 18407              	.LASF75:
 18408 0c4a 68617368 		.ascii	"hash\000"
 18408      00
 18409              	.LASF39:
 18410 0c4f 4D524243 		.ascii	"MRBC_TT_EMPTY\000"
 18410      5F54545F 
 18410      454D5054 
 18410      5900
 18411              	.LASF101:
 18412 0c5d 6E6C6F63 		.ascii	"nlocals\000"
 18412      616C7300 
ARM GAS  C:\Users\164\AppData\Local\Temp\cc3ssgoH.s 			page 374


 18413              	.LASF86:
 18414 0c65 6E657874 		.ascii	"next\000"
 18414      00
 18415              	.LASF32:
 18416 0c6a 63616C6C 		.ascii	"callinfo_tail\000"
 18416      696E666F 
 18416      5F746169 
 18416      6C00
 18417              	.LASF125:
 18418 0c78 52507269 		.ascii	"RPrintf\000"
 18418      6E746600 
 18419              	.LASF158:
 18420 0c80 635F7374 		.ascii	"c_string_to_i\000"
 18420      72696E67 
 18420      5F746F5F 
 18420      6900
 18421              	.LASF112:
 18422 0c8e 70726576 		.ascii	"prev\000"
 18422      00
 18423              	.LASF44:
 18424 0c93 4D524243 		.ascii	"MRBC_TT_FLOAT\000"
 18424      5F54545F 
 18424      464C4F41 
 18424      5400
 18425              	.LASF251:
 18426 0ca1 6D726263 		.ascii	"mrbc_define_class\000"
 18426      5F646566 
 18426      696E655F 
 18426      636C6173 
 18426      7300
 18427              	.LASF110:
 18428 0cb3 6D726263 		.ascii	"mrbc_irep\000"
 18428      5F697265 
 18428      7000
 18429              		.ident	"GCC: (GNU Tools for ARM Embedded Processors) 5.4.1 20160609 (release) [ARM/embedded-5-bran
