ARM GAS  C:\Users\164\AppData\Local\Temp\ccELK2nm.s 			page 1


   1              		.syntax unified
   2              		.cpu cortex-m3
   3              		.fpu softvfp
   4              		.eabi_attribute 20, 1
   5              		.eabi_attribute 21, 1
   6              		.eabi_attribute 23, 3
   7              		.eabi_attribute 24, 1
   8              		.eabi_attribute 25, 1
   9              		.eabi_attribute 26, 1
  10              		.eabi_attribute 30, 1
  11              		.eabi_attribute 34, 1
  12              		.eabi_attribute 18, 4
  13              		.thumb
  14              		.syntax unified
  15              		.file	"c_uart.c"
  16              		.text
  17              	.Ltext0:
  18              		.cfi_sections	.debug_frame
  19              		.section	.text.isr_UART_1_Tx,"ax",%progbits
  20              		.align	2
  21              		.global	isr_UART_1_Tx
  22              		.thumb
  23              		.thumb_func
  24              		.type	isr_UART_1_Tx, %function
  25              	isr_UART_1_Tx:
  26              	.LFB73:
  27              		.file 1 "..\\..\\mruby_c2\\Design01.cydsn\\c_uart.c"
   1:..\..\mruby_c2\Design01.cydsn/c_uart.c **** /*! @file
   2:..\..\mruby_c2\Design01.cydsn/c_uart.c ****   @brief
   3:..\..\mruby_c2\Design01.cydsn/c_uart.c ****   UART class for Cypress PSoC5LP
   4:..\..\mruby_c2\Design01.cydsn/c_uart.c **** 
   5:..\..\mruby_c2\Design01.cydsn/c_uart.c ****   <pre>
   6:..\..\mruby_c2\Design01.cydsn/c_uart.c ****   Copyright (C) 2018 Kyushu Institute of Technology.
   7:..\..\mruby_c2\Design01.cydsn/c_uart.c ****   Copyright (C) 2018 Shimane IT Open-Innovation Center.
   8:..\..\mruby_c2\Design01.cydsn/c_uart.c **** 
   9:..\..\mruby_c2\Design01.cydsn/c_uart.c ****   This file is distributed under BSD 3-Clause License.
  10:..\..\mruby_c2\Design01.cydsn/c_uart.c **** 
  11:..\..\mruby_c2\Design01.cydsn/c_uart.c ****   (Usage)
  12:..\..\mruby_c2\Design01.cydsn/c_uart.c ****   PSoC Creator で、以下の通りUARTデバイスを設置
  13:..\..\mruby_c2\Design01.cydsn/c_uart.c ****     * Communication > UARTデバイス配置
  14:..\..\mruby_c2\Design01.cydsn/c_uart.c ****     * Configureダイアログを開く
  15:..\..\mruby_c2\Design01.cydsn/c_uart.c ****     * Nameが"UART_1"であることを確認
  16:..\..\mruby_c2\Design01.cydsn/c_uart.c ****     * 通信速度等のパラメータ設定
  17:..\..\mruby_c2\Design01.cydsn/c_uart.c ****     * 同ダイアログAdvancedタブのInterruptを、"RX- On Byte Received"と
  18:..\..\mruby_c2\Design01.cydsn/c_uart.c ****       "TX - On TX Complete"にチェックを入れる
  19:..\..\mruby_c2\Design01.cydsn/c_uart.c ****     * System > Interrupt デバイスを2つ配置
  20:..\..\mruby_c2\Design01.cydsn/c_uart.c ****     * UARTのtx_interruptとrx_interruptに接続
  21:..\..\mruby_c2\Design01.cydsn/c_uart.c ****     * 名前をそれぞれ、"isr_UART_1_Tx"と、"isr_UART_1_Rx"に変更
  22:..\..\mruby_c2\Design01.cydsn/c_uart.c **** 
  23:..\..\mruby_c2\Design01.cydsn/c_uart.c ****   main.cに、以下の記述を追加。
  24:..\..\mruby_c2\Design01.cydsn/c_uart.c ****     #include <c_uart.h>
  25:..\..\mruby_c2\Design01.cydsn/c_uart.c ****     mrbc_init_class_uart(0);
  26:..\..\mruby_c2\Design01.cydsn/c_uart.c **** 
  27:..\..\mruby_c2\Design01.cydsn/c_uart.c ****   必要に応じて、UART_SIZE_RXFIFOマクロに、一行最大文字列を定義する。
  28:..\..\mruby_c2\Design01.cydsn/c_uart.c ****   デフォルトは、128bytes。
  29:..\..\mruby_c2\Design01.cydsn/c_uart.c **** 
  30:..\..\mruby_c2\Design01.cydsn/c_uart.c **** 
ARM GAS  C:\Users\164\AppData\Local\Temp\ccELK2nm.s 			page 2


  31:..\..\mruby_c2\Design01.cydsn/c_uart.c ****   (on Ruby)
  32:..\..\mruby_c2\Design01.cydsn/c_uart.c ****     uart1 = UART.new()
  33:..\..\mruby_c2\Design01.cydsn/c_uart.c ****     uart.puts( "STRING\r\n" )
  34:..\..\mruby_c2\Design01.cydsn/c_uart.c ****     s = uart.gets()
  35:..\..\mruby_c2\Design01.cydsn/c_uart.c **** 
  36:..\..\mruby_c2\Design01.cydsn/c_uart.c ****   </pre>
  37:..\..\mruby_c2\Design01.cydsn/c_uart.c **** */
  38:..\..\mruby_c2\Design01.cydsn/c_uart.c **** 
  39:..\..\mruby_c2\Design01.cydsn/c_uart.c **** 
  40:..\..\mruby_c2\Design01.cydsn/c_uart.c **** #include "vm_config.h"
  41:..\..\mruby_c2\Design01.cydsn/c_uart.c **** #include <stdint.h>
  42:..\..\mruby_c2\Design01.cydsn/c_uart.c **** #include <project.h>	// auto generated by PSoC Creator.
  43:..\..\mruby_c2\Design01.cydsn/c_uart.c **** 
  44:..\..\mruby_c2\Design01.cydsn/c_uart.c **** #include "value.h"
  45:..\..\mruby_c2\Design01.cydsn/c_uart.c **** #include "alloc.h"
  46:..\..\mruby_c2\Design01.cydsn/c_uart.c **** #include "static.h"
  47:..\..\mruby_c2\Design01.cydsn/c_uart.c **** #include "class.h"
  48:..\..\mruby_c2\Design01.cydsn/c_uart.c **** #include "c_string.h"
  49:..\..\mruby_c2\Design01.cydsn/c_uart.c **** 
  50:..\..\mruby_c2\Design01.cydsn/c_uart.c **** #include "uart2.h"
  51:..\..\mruby_c2\Design01.cydsn/c_uart.c **** 
  52:..\..\mruby_c2\Design01.cydsn/c_uart.c **** 
  53:..\..\mruby_c2\Design01.cydsn/c_uart.c **** //================================================================
  54:..\..\mruby_c2\Design01.cydsn/c_uart.c **** /*! UART用設定
  55:..\..\mruby_c2\Design01.cydsn/c_uart.c **** */
  56:..\..\mruby_c2\Design01.cydsn/c_uart.c **** #define NUM_UART 1
  57:..\..\mruby_c2\Design01.cydsn/c_uart.c **** UART_HANDLE uh[NUM_UART];
  58:..\..\mruby_c2\Design01.cydsn/c_uart.c **** UART_ISR( &uh[0], UART_1 );
  28              		.loc 1 58 0
  29              		.cfi_startproc
  30              		@ args = 0, pretend = 0, frame = 0
  31              		@ frame_needed = 0, uses_anonymous_args = 0
  32 0000 08B5     		push	{r3, lr}
  33              		.cfi_def_cfa_offset 8
  34              		.cfi_offset 3, -8
  35              		.cfi_offset 14, -4
  36              		.loc 1 58 0
  37 0002 0248     		ldr	r0, .L3
  38 0004 FFF7FEFF 		bl	uart_isr_tx
  39              	.LVL0:
  40 0008 08BD     		pop	{r3, pc}
  41              	.L4:
  42 000a 00BF     		.align	2
  43              	.L3:
  44 000c 00000000 		.word	uh
  45              		.cfi_endproc
  46              	.LFE73:
  47              		.size	isr_UART_1_Tx, .-isr_UART_1_Tx
  48              		.section	.text.isr_UART_1_Rx,"ax",%progbits
  49              		.align	2
  50              		.global	isr_UART_1_Rx
  51              		.thumb
  52              		.thumb_func
  53              		.type	isr_UART_1_Rx, %function
  54              	isr_UART_1_Rx:
  55              	.LFB74:
  56              		.loc 1 58 0
ARM GAS  C:\Users\164\AppData\Local\Temp\ccELK2nm.s 			page 3


  57              		.cfi_startproc
  58              		@ args = 0, pretend = 0, frame = 0
  59              		@ frame_needed = 0, uses_anonymous_args = 0
  60 0000 08B5     		push	{r3, lr}
  61              		.cfi_def_cfa_offset 8
  62              		.cfi_offset 3, -8
  63              		.cfi_offset 14, -4
  64              		.loc 1 58 0
  65 0002 0248     		ldr	r0, .L7
  66 0004 FFF7FEFF 		bl	uart_isr_rx
  67              	.LVL1:
  68 0008 08BD     		pop	{r3, pc}
  69              	.L8:
  70 000a 00BF     		.align	2
  71              	.L7:
  72 000c 00000000 		.word	uh
  73              		.cfi_endproc
  74              	.LFE74:
  75              		.size	isr_UART_1_Rx, .-isr_UART_1_Rx
  76              		.section	.text.c_uart_clear_rx_buffer,"ax",%progbits
  77              		.align	2
  78              		.thumb
  79              		.thumb_func
  80              		.type	c_uart_clear_rx_buffer, %function
  81              	c_uart_clear_rx_buffer:
  82              	.LFB81:
  59:..\..\mruby_c2\Design01.cydsn/c_uart.c **** // UART_ISR( &uh[1], UART_2 );
  60:..\..\mruby_c2\Design01.cydsn/c_uart.c **** 
  61:..\..\mruby_c2\Design01.cydsn/c_uart.c **** 
  62:..\..\mruby_c2\Design01.cydsn/c_uart.c **** //================================================================
  63:..\..\mruby_c2\Design01.cydsn/c_uart.c **** /*! UART constructor
  64:..\..\mruby_c2\Design01.cydsn/c_uart.c **** */
  65:..\..\mruby_c2\Design01.cydsn/c_uart.c **** static void c_uart_new(mrb_vm *vm, mrb_value v[], int argc)
  66:..\..\mruby_c2\Design01.cydsn/c_uart.c **** {
  67:..\..\mruby_c2\Design01.cydsn/c_uart.c ****   static int num = 0;
  68:..\..\mruby_c2\Design01.cydsn/c_uart.c **** 
  69:..\..\mruby_c2\Design01.cydsn/c_uart.c ****   if( num >= NUM_UART ) {
  70:..\..\mruby_c2\Design01.cydsn/c_uart.c ****     *v = mrb_nil_value();
  71:..\..\mruby_c2\Design01.cydsn/c_uart.c ****     return;
  72:..\..\mruby_c2\Design01.cydsn/c_uart.c ****   }
  73:..\..\mruby_c2\Design01.cydsn/c_uart.c **** 
  74:..\..\mruby_c2\Design01.cydsn/c_uart.c ****   *v = mrbc_instance_new(vm, v->cls, sizeof(UART_HANDLE *));
  75:..\..\mruby_c2\Design01.cydsn/c_uart.c ****   *((UART_HANDLE **)v->instance->data) = &uh[num++];
  76:..\..\mruby_c2\Design01.cydsn/c_uart.c **** }
  77:..\..\mruby_c2\Design01.cydsn/c_uart.c **** 
  78:..\..\mruby_c2\Design01.cydsn/c_uart.c **** 
  79:..\..\mruby_c2\Design01.cydsn/c_uart.c **** //================================================================
  80:..\..\mruby_c2\Design01.cydsn/c_uart.c **** /*! read
  81:..\..\mruby_c2\Design01.cydsn/c_uart.c ****   s = $uart.read(n)
  82:..\..\mruby_c2\Design01.cydsn/c_uart.c **** */
  83:..\..\mruby_c2\Design01.cydsn/c_uart.c **** static void c_uart_read(mrb_vm *vm, mrb_value v[], int argc)
  84:..\..\mruby_c2\Design01.cydsn/c_uart.c **** {
  85:..\..\mruby_c2\Design01.cydsn/c_uart.c ****   mrb_value ret;
  86:..\..\mruby_c2\Design01.cydsn/c_uart.c ****   UART_HANDLE *handle = *(UART_HANDLE **)v->instance->data;
  87:..\..\mruby_c2\Design01.cydsn/c_uart.c ****   int need_length = GET_INT_ARG(1);
  88:..\..\mruby_c2\Design01.cydsn/c_uart.c **** 
  89:..\..\mruby_c2\Design01.cydsn/c_uart.c ****   if( uart_bytes_available(handle) < need_length ) {
ARM GAS  C:\Users\164\AppData\Local\Temp\ccELK2nm.s 			page 4


  90:..\..\mruby_c2\Design01.cydsn/c_uart.c ****     ret = mrb_nil_value();
  91:..\..\mruby_c2\Design01.cydsn/c_uart.c ****     goto DONE;
  92:..\..\mruby_c2\Design01.cydsn/c_uart.c ****   }
  93:..\..\mruby_c2\Design01.cydsn/c_uart.c **** 
  94:..\..\mruby_c2\Design01.cydsn/c_uart.c ****   char *buf = mrbc_alloc( vm, need_length + 1 );
  95:..\..\mruby_c2\Design01.cydsn/c_uart.c ****   uart_read( handle, buf, need_length );
  96:..\..\mruby_c2\Design01.cydsn/c_uart.c **** 
  97:..\..\mruby_c2\Design01.cydsn/c_uart.c ****   ret = mrbc_string_new_alloc( vm, buf, need_length );
  98:..\..\mruby_c2\Design01.cydsn/c_uart.c **** 
  99:..\..\mruby_c2\Design01.cydsn/c_uart.c ****  DONE:
 100:..\..\mruby_c2\Design01.cydsn/c_uart.c ****   SET_RETURN(ret);
 101:..\..\mruby_c2\Design01.cydsn/c_uart.c **** }
 102:..\..\mruby_c2\Design01.cydsn/c_uart.c **** 
 103:..\..\mruby_c2\Design01.cydsn/c_uart.c **** 
 104:..\..\mruby_c2\Design01.cydsn/c_uart.c **** //================================================================
 105:..\..\mruby_c2\Design01.cydsn/c_uart.c **** /*! write
 106:..\..\mruby_c2\Design01.cydsn/c_uart.c ****   $uart.write(s)
 107:..\..\mruby_c2\Design01.cydsn/c_uart.c **** */
 108:..\..\mruby_c2\Design01.cydsn/c_uart.c **** static void c_uart_write(mrb_vm *vm, mrb_value v[], int argc)
 109:..\..\mruby_c2\Design01.cydsn/c_uart.c **** {
 110:..\..\mruby_c2\Design01.cydsn/c_uart.c ****   UART_HANDLE *handle = *(UART_HANDLE **)v->instance->data;
 111:..\..\mruby_c2\Design01.cydsn/c_uart.c **** 
 112:..\..\mruby_c2\Design01.cydsn/c_uart.c ****   switch( v[1].tt ) {
 113:..\..\mruby_c2\Design01.cydsn/c_uart.c ****   case MRB_TT_STRING: {
 114:..\..\mruby_c2\Design01.cydsn/c_uart.c ****     int n = uart_write( handle,
 115:..\..\mruby_c2\Design01.cydsn/c_uart.c **** 			mrbc_string_cstr(&v[1]), mrbc_string_size(&v[1]) );
 116:..\..\mruby_c2\Design01.cydsn/c_uart.c ****     SET_INT_RETURN(n);
 117:..\..\mruby_c2\Design01.cydsn/c_uart.c ****   } break;
 118:..\..\mruby_c2\Design01.cydsn/c_uart.c **** 
 119:..\..\mruby_c2\Design01.cydsn/c_uart.c ****   default:
 120:..\..\mruby_c2\Design01.cydsn/c_uart.c ****     SET_NIL_RETURN();
 121:..\..\mruby_c2\Design01.cydsn/c_uart.c ****     break;
 122:..\..\mruby_c2\Design01.cydsn/c_uart.c ****   }
 123:..\..\mruby_c2\Design01.cydsn/c_uart.c **** }
 124:..\..\mruby_c2\Design01.cydsn/c_uart.c **** 
 125:..\..\mruby_c2\Design01.cydsn/c_uart.c **** 
 126:..\..\mruby_c2\Design01.cydsn/c_uart.c **** //================================================================
 127:..\..\mruby_c2\Design01.cydsn/c_uart.c **** /*! gets
 128:..\..\mruby_c2\Design01.cydsn/c_uart.c **** */
 129:..\..\mruby_c2\Design01.cydsn/c_uart.c **** static void c_uart_gets(mrb_vm *vm, mrb_value v[], int argc)
 130:..\..\mruby_c2\Design01.cydsn/c_uart.c **** {
 131:..\..\mruby_c2\Design01.cydsn/c_uart.c ****   mrb_value ret;
 132:..\..\mruby_c2\Design01.cydsn/c_uart.c ****   UART_HANDLE *handle = *(UART_HANDLE **)v->instance->data;
 133:..\..\mruby_c2\Design01.cydsn/c_uart.c **** 
 134:..\..\mruby_c2\Design01.cydsn/c_uart.c ****   if( !uart_can_read_line( handle ) ) {
 135:..\..\mruby_c2\Design01.cydsn/c_uart.c ****     ret = mrb_nil_value();
 136:..\..\mruby_c2\Design01.cydsn/c_uart.c ****     goto DONE;
 137:..\..\mruby_c2\Design01.cydsn/c_uart.c ****   }
 138:..\..\mruby_c2\Design01.cydsn/c_uart.c **** 
 139:..\..\mruby_c2\Design01.cydsn/c_uart.c ****   int len = uart_bytes_available( handle ) + 1;
 140:..\..\mruby_c2\Design01.cydsn/c_uart.c ****   char *buf = mrbc_alloc( vm, len );
 141:..\..\mruby_c2\Design01.cydsn/c_uart.c **** 
 142:..\..\mruby_c2\Design01.cydsn/c_uart.c ****   len = uart_gets( handle, buf, len );
 143:..\..\mruby_c2\Design01.cydsn/c_uart.c ****   mrbc_realloc( vm, buf, len );
 144:..\..\mruby_c2\Design01.cydsn/c_uart.c **** 
 145:..\..\mruby_c2\Design01.cydsn/c_uart.c ****   ret = mrbc_string_new_alloc( vm, buf, len );
 146:..\..\mruby_c2\Design01.cydsn/c_uart.c **** 
ARM GAS  C:\Users\164\AppData\Local\Temp\ccELK2nm.s 			page 5


 147:..\..\mruby_c2\Design01.cydsn/c_uart.c ****  DONE:
 148:..\..\mruby_c2\Design01.cydsn/c_uart.c ****   SET_RETURN(ret);
 149:..\..\mruby_c2\Design01.cydsn/c_uart.c **** }
 150:..\..\mruby_c2\Design01.cydsn/c_uart.c **** 
 151:..\..\mruby_c2\Design01.cydsn/c_uart.c **** 
 152:..\..\mruby_c2\Design01.cydsn/c_uart.c **** //================================================================
 153:..\..\mruby_c2\Design01.cydsn/c_uart.c **** /*! puts
 154:..\..\mruby_c2\Design01.cydsn/c_uart.c **** */
 155:..\..\mruby_c2\Design01.cydsn/c_uart.c **** static void c_uart_puts(mrb_vm *vm, mrb_value v[], int argc)
 156:..\..\mruby_c2\Design01.cydsn/c_uart.c **** {
 157:..\..\mruby_c2\Design01.cydsn/c_uart.c ****   char *s = NULL;
 158:..\..\mruby_c2\Design01.cydsn/c_uart.c ****   switch( v[1].tt ) {
 159:..\..\mruby_c2\Design01.cydsn/c_uart.c ****   case MRB_TT_STRING: {
 160:..\..\mruby_c2\Design01.cydsn/c_uart.c ****     s = mrbc_string_cstr(&v[1]);
 161:..\..\mruby_c2\Design01.cydsn/c_uart.c ****   } break;
 162:..\..\mruby_c2\Design01.cydsn/c_uart.c **** 
 163:..\..\mruby_c2\Design01.cydsn/c_uart.c ****   default:
 164:..\..\mruby_c2\Design01.cydsn/c_uart.c ****     break;
 165:..\..\mruby_c2\Design01.cydsn/c_uart.c ****   }
 166:..\..\mruby_c2\Design01.cydsn/c_uart.c **** 
 167:..\..\mruby_c2\Design01.cydsn/c_uart.c ****   if( s ) {
 168:..\..\mruby_c2\Design01.cydsn/c_uart.c ****     UART_HANDLE *handle = *(UART_HANDLE **)v->instance->data;
 169:..\..\mruby_c2\Design01.cydsn/c_uart.c ****     uart_puts( handle, s );
 170:..\..\mruby_c2\Design01.cydsn/c_uart.c ****   }
 171:..\..\mruby_c2\Design01.cydsn/c_uart.c **** }
 172:..\..\mruby_c2\Design01.cydsn/c_uart.c **** 
 173:..\..\mruby_c2\Design01.cydsn/c_uart.c **** 
 174:..\..\mruby_c2\Design01.cydsn/c_uart.c **** //================================================================
 175:..\..\mruby_c2\Design01.cydsn/c_uart.c **** /*! clear_tx_buffer
 176:..\..\mruby_c2\Design01.cydsn/c_uart.c **** */
 177:..\..\mruby_c2\Design01.cydsn/c_uart.c **** static void c_uart_clear_tx_buffer(mrb_vm *vm, mrb_value v[], int argc)
 178:..\..\mruby_c2\Design01.cydsn/c_uart.c **** {
 179:..\..\mruby_c2\Design01.cydsn/c_uart.c ****   UART_HANDLE *handle = *(UART_HANDLE **)v->instance->data;
 180:..\..\mruby_c2\Design01.cydsn/c_uart.c ****   uart_clear_tx_buffer( handle );
 181:..\..\mruby_c2\Design01.cydsn/c_uart.c **** }
 182:..\..\mruby_c2\Design01.cydsn/c_uart.c **** 
 183:..\..\mruby_c2\Design01.cydsn/c_uart.c **** 
 184:..\..\mruby_c2\Design01.cydsn/c_uart.c **** //================================================================
 185:..\..\mruby_c2\Design01.cydsn/c_uart.c **** /*! clear_rx_buffer
 186:..\..\mruby_c2\Design01.cydsn/c_uart.c **** */
 187:..\..\mruby_c2\Design01.cydsn/c_uart.c **** static void c_uart_clear_rx_buffer(mrb_vm *vm, mrb_value v[], int argc)
 188:..\..\mruby_c2\Design01.cydsn/c_uart.c **** {
  83              		.loc 1 188 0
  84              		.cfi_startproc
  85              		@ args = 0, pretend = 0, frame = 0
  86              		@ frame_needed = 0, uses_anonymous_args = 0
  87              	.LVL2:
  88 0000 08B5     		push	{r3, lr}
  89              		.cfi_def_cfa_offset 8
  90              		.cfi_offset 3, -8
  91              		.cfi_offset 14, -4
 189:..\..\mruby_c2\Design01.cydsn/c_uart.c ****   UART_HANDLE *handle = *(UART_HANDLE **)v->instance->data;
  92              		.loc 1 189 0
  93 0002 8B68     		ldr	r3, [r1, #8]
  94              	.LVL3:
 190:..\..\mruby_c2\Design01.cydsn/c_uart.c ****   uart_clear_rx_buffer( handle );
  95              		.loc 1 190 0
ARM GAS  C:\Users\164\AppData\Local\Temp\ccELK2nm.s 			page 6


  96 0004 D868     		ldr	r0, [r3, #12]
  97              	.LVL4:
  98 0006 FFF7FEFF 		bl	uart_clear_rx_buffer
  99              	.LVL5:
 100 000a 08BD     		pop	{r3, pc}
 101              		.cfi_endproc
 102              	.LFE81:
 103              		.size	c_uart_clear_rx_buffer, .-c_uart_clear_rx_buffer
 104              		.section	.text.c_uart_clear_tx_buffer,"ax",%progbits
 105              		.align	2
 106              		.thumb
 107              		.thumb_func
 108              		.type	c_uart_clear_tx_buffer, %function
 109              	c_uart_clear_tx_buffer:
 110              	.LFB80:
 178:..\..\mruby_c2\Design01.cydsn/c_uart.c ****   UART_HANDLE *handle = *(UART_HANDLE **)v->instance->data;
 111              		.loc 1 178 0
 112              		.cfi_startproc
 113              		@ args = 0, pretend = 0, frame = 0
 114              		@ frame_needed = 0, uses_anonymous_args = 0
 115              	.LVL6:
 116 0000 08B5     		push	{r3, lr}
 117              		.cfi_def_cfa_offset 8
 118              		.cfi_offset 3, -8
 119              		.cfi_offset 14, -4
 179:..\..\mruby_c2\Design01.cydsn/c_uart.c ****   uart_clear_tx_buffer( handle );
 120              		.loc 1 179 0
 121 0002 8B68     		ldr	r3, [r1, #8]
 122              	.LVL7:
 180:..\..\mruby_c2\Design01.cydsn/c_uart.c **** }
 123              		.loc 1 180 0
 124 0004 D868     		ldr	r0, [r3, #12]
 125              	.LVL8:
 126 0006 FFF7FEFF 		bl	uart_clear_tx_buffer
 127              	.LVL9:
 128 000a 08BD     		pop	{r3, pc}
 129              		.cfi_endproc
 130              	.LFE80:
 131              		.size	c_uart_clear_tx_buffer, .-c_uart_clear_tx_buffer
 132              		.section	.text.c_uart_puts,"ax",%progbits
 133              		.align	2
 134              		.thumb
 135              		.thumb_func
 136              		.type	c_uart_puts, %function
 137              	c_uart_puts:
 138              	.LFB79:
 156:..\..\mruby_c2\Design01.cydsn/c_uart.c ****   char *s = NULL;
 139              		.loc 1 156 0
 140              		.cfi_startproc
 141              		@ args = 0, pretend = 0, frame = 0
 142              		@ frame_needed = 0, uses_anonymous_args = 0
 143              	.LVL10:
 144 0000 08B5     		push	{r3, lr}
 145              		.cfi_def_cfa_offset 8
 146              		.cfi_offset 3, -8
 147              		.cfi_offset 14, -4
 148              	.LVL11:
ARM GAS  C:\Users\164\AppData\Local\Temp\ccELK2nm.s 			page 7


 158:..\..\mruby_c2\Design01.cydsn/c_uart.c ****   case MRB_TT_STRING: {
 149              		.loc 1 158 0
 150 0002 91F91030 		ldrsb	r3, [r1, #16]
 151 0006 172B     		cmp	r3, #23
 152 0008 02D1     		bne	.L18
 153              	.LVL12:
 154              	.LBB16:
 155              	.LBB17:
 156              		.file 2 "..\\..\\mruby_c2\\Design01.cydsn\\c_string.h"
   1:..\..\mruby_c2\Design01.cydsn/c_string.h **** /*! @file
   2:..\..\mruby_c2\Design01.cydsn/c_string.h ****   @brief
   3:..\..\mruby_c2\Design01.cydsn/c_string.h ****   mruby/c String object
   4:..\..\mruby_c2\Design01.cydsn/c_string.h **** 
   5:..\..\mruby_c2\Design01.cydsn/c_string.h ****   <pre>
   6:..\..\mruby_c2\Design01.cydsn/c_string.h ****   Copyright (C) 2015-2018 Kyushu Institute of Technology.
   7:..\..\mruby_c2\Design01.cydsn/c_string.h ****   Copyright (C) 2015-2018 Shimane IT Open-Innovation Center.
   8:..\..\mruby_c2\Design01.cydsn/c_string.h **** 
   9:..\..\mruby_c2\Design01.cydsn/c_string.h ****   This file is distributed under BSD 3-Clause License.
  10:..\..\mruby_c2\Design01.cydsn/c_string.h **** 
  11:..\..\mruby_c2\Design01.cydsn/c_string.h ****   </pre>
  12:..\..\mruby_c2\Design01.cydsn/c_string.h **** */
  13:..\..\mruby_c2\Design01.cydsn/c_string.h **** 
  14:..\..\mruby_c2\Design01.cydsn/c_string.h **** #ifndef MRBC_SRC_C_STRING_H_
  15:..\..\mruby_c2\Design01.cydsn/c_string.h **** #define MRBC_SRC_C_STRING_H_
  16:..\..\mruby_c2\Design01.cydsn/c_string.h **** 
  17:..\..\mruby_c2\Design01.cydsn/c_string.h **** #include <stdint.h>
  18:..\..\mruby_c2\Design01.cydsn/c_string.h **** #include <string.h>
  19:..\..\mruby_c2\Design01.cydsn/c_string.h **** #include "value.h"
  20:..\..\mruby_c2\Design01.cydsn/c_string.h **** 
  21:..\..\mruby_c2\Design01.cydsn/c_string.h **** #ifdef __cplusplus
  22:..\..\mruby_c2\Design01.cydsn/c_string.h **** extern "C" {
  23:..\..\mruby_c2\Design01.cydsn/c_string.h **** #endif
  24:..\..\mruby_c2\Design01.cydsn/c_string.h **** 
  25:..\..\mruby_c2\Design01.cydsn/c_string.h **** //================================================================
  26:..\..\mruby_c2\Design01.cydsn/c_string.h **** /*!@brief
  27:..\..\mruby_c2\Design01.cydsn/c_string.h ****   Define String handle.
  28:..\..\mruby_c2\Design01.cydsn/c_string.h **** */
  29:..\..\mruby_c2\Design01.cydsn/c_string.h **** typedef struct RString {
  30:..\..\mruby_c2\Design01.cydsn/c_string.h ****   MRBC_OBJECT_HEADER;
  31:..\..\mruby_c2\Design01.cydsn/c_string.h **** 
  32:..\..\mruby_c2\Design01.cydsn/c_string.h ****   uint16_t size;	//!< string length.
  33:..\..\mruby_c2\Design01.cydsn/c_string.h ****   uint8_t *data;	//!< pointer to allocated buffer.
  34:..\..\mruby_c2\Design01.cydsn/c_string.h **** 
  35:..\..\mruby_c2\Design01.cydsn/c_string.h **** } mrb_string;
  36:..\..\mruby_c2\Design01.cydsn/c_string.h **** 
  37:..\..\mruby_c2\Design01.cydsn/c_string.h **** 
  38:..\..\mruby_c2\Design01.cydsn/c_string.h **** struct VM;
  39:..\..\mruby_c2\Design01.cydsn/c_string.h **** 
  40:..\..\mruby_c2\Design01.cydsn/c_string.h **** mrb_value mrbc_string_new(struct VM *vm, const void *src, int len);
  41:..\..\mruby_c2\Design01.cydsn/c_string.h **** mrb_value mrbc_string_new_cstr(struct VM *vm, const char *src);
  42:..\..\mruby_c2\Design01.cydsn/c_string.h **** mrb_value mrbc_string_new_alloc(struct VM *vm, void *buf, int len);
  43:..\..\mruby_c2\Design01.cydsn/c_string.h **** void mrbc_string_delete(mrb_value *str);
  44:..\..\mruby_c2\Design01.cydsn/c_string.h **** void mrbc_string_clear_vm_id(mrb_value *str);
  45:..\..\mruby_c2\Design01.cydsn/c_string.h **** mrb_value mrbc_string_dup(struct VM *vm, mrb_value *s1);
  46:..\..\mruby_c2\Design01.cydsn/c_string.h **** mrb_value mrbc_string_add(struct VM *vm, mrb_value *s1, mrb_value *s2);
  47:..\..\mruby_c2\Design01.cydsn/c_string.h **** int mrbc_string_append(mrb_value *s1, mrb_value *s2);
  48:..\..\mruby_c2\Design01.cydsn/c_string.h **** int mrbc_string_index(mrb_value *src, mrb_value *pattern, int offset);
ARM GAS  C:\Users\164\AppData\Local\Temp\ccELK2nm.s 			page 8


  49:..\..\mruby_c2\Design01.cydsn/c_string.h **** int mrbc_string_strip(mrb_value *src, int mode);
  50:..\..\mruby_c2\Design01.cydsn/c_string.h **** int mrbc_string_chomp(mrb_value *src);
  51:..\..\mruby_c2\Design01.cydsn/c_string.h **** void mrbc_init_class_string(struct VM *vm);
  52:..\..\mruby_c2\Design01.cydsn/c_string.h **** 
  53:..\..\mruby_c2\Design01.cydsn/c_string.h **** 
  54:..\..\mruby_c2\Design01.cydsn/c_string.h **** //================================================================
  55:..\..\mruby_c2\Design01.cydsn/c_string.h **** /*! compare
  56:..\..\mruby_c2\Design01.cydsn/c_string.h **** */
  57:..\..\mruby_c2\Design01.cydsn/c_string.h **** static inline int mrbc_string_compare(const mrb_value *v1, const mrb_value *v2)
  58:..\..\mruby_c2\Design01.cydsn/c_string.h **** {
  59:..\..\mruby_c2\Design01.cydsn/c_string.h ****   int len = (v1->string->size < v2->string->size) ?
  60:..\..\mruby_c2\Design01.cydsn/c_string.h ****     v1->string->size : v2->string->size;
  61:..\..\mruby_c2\Design01.cydsn/c_string.h **** 
  62:..\..\mruby_c2\Design01.cydsn/c_string.h ****   int res = memcmp(v1->string->data, v2->string->data, len);
  63:..\..\mruby_c2\Design01.cydsn/c_string.h ****   if( res != 0 ) return res;
  64:..\..\mruby_c2\Design01.cydsn/c_string.h **** 
  65:..\..\mruby_c2\Design01.cydsn/c_string.h ****   return v1->string->size - v2->string->size;
  66:..\..\mruby_c2\Design01.cydsn/c_string.h **** }
  67:..\..\mruby_c2\Design01.cydsn/c_string.h **** 
  68:..\..\mruby_c2\Design01.cydsn/c_string.h **** //================================================================
  69:..\..\mruby_c2\Design01.cydsn/c_string.h **** /*! get size
  70:..\..\mruby_c2\Design01.cydsn/c_string.h **** */
  71:..\..\mruby_c2\Design01.cydsn/c_string.h **** static inline int mrbc_string_size(const mrb_value *str)
  72:..\..\mruby_c2\Design01.cydsn/c_string.h **** {
  73:..\..\mruby_c2\Design01.cydsn/c_string.h ****   return str->string->size;
  74:..\..\mruby_c2\Design01.cydsn/c_string.h **** }
  75:..\..\mruby_c2\Design01.cydsn/c_string.h **** 
  76:..\..\mruby_c2\Design01.cydsn/c_string.h **** //================================================================
  77:..\..\mruby_c2\Design01.cydsn/c_string.h **** /*! get c-language string (char *)
  78:..\..\mruby_c2\Design01.cydsn/c_string.h **** */
  79:..\..\mruby_c2\Design01.cydsn/c_string.h **** static inline char * mrbc_string_cstr(const mrb_value *v)
  80:..\..\mruby_c2\Design01.cydsn/c_string.h **** {
  81:..\..\mruby_c2\Design01.cydsn/c_string.h ****   return (char*)v->string->data;
 157              		.loc 2 81 0
 158 000a 8B69     		ldr	r3, [r1, #24]
 159 000c 9A68     		ldr	r2, [r3, #8]
 160              	.LVL13:
 161              	.LBE17:
 162              	.LBE16:
 161:..\..\mruby_c2\Design01.cydsn/c_uart.c **** 
 163              		.loc 1 161 0
 164 000e 00E0     		b	.L14
 165              	.LVL14:
 166              	.L18:
 157:..\..\mruby_c2\Design01.cydsn/c_uart.c ****   switch( v[1].tt ) {
 167              		.loc 1 157 0
 168 0010 0022     		movs	r2, #0
 169              	.LVL15:
 170              	.L14:
 167:..\..\mruby_c2\Design01.cydsn/c_uart.c ****     UART_HANDLE *handle = *(UART_HANDLE **)v->instance->data;
 171              		.loc 1 167 0
 172 0012 22B1     		cbz	r2, .L13
 173              	.LBB18:
 168:..\..\mruby_c2\Design01.cydsn/c_uart.c ****     uart_puts( handle, s );
 174              		.loc 1 168 0
 175 0014 8B68     		ldr	r3, [r1, #8]
 176              	.LVL16:
ARM GAS  C:\Users\164\AppData\Local\Temp\ccELK2nm.s 			page 9


 169:..\..\mruby_c2\Design01.cydsn/c_uart.c ****   }
 177              		.loc 1 169 0
 178 0016 1146     		mov	r1, r2
 179              	.LVL17:
 180 0018 D868     		ldr	r0, [r3, #12]
 181              	.LVL18:
 182 001a FFF7FEFF 		bl	uart_puts
 183              	.LVL19:
 184              	.L13:
 185 001e 08BD     		pop	{r3, pc}
 186              	.LBE18:
 187              		.cfi_endproc
 188              	.LFE79:
 189              		.size	c_uart_puts, .-c_uart_puts
 190              		.section	.text.c_uart_gets,"ax",%progbits
 191              		.align	2
 192              		.thumb
 193              		.thumb_func
 194              		.type	c_uart_gets, %function
 195              	c_uart_gets:
 196              	.LFB78:
 130:..\..\mruby_c2\Design01.cydsn/c_uart.c ****   mrb_value ret;
 197              		.loc 1 130 0
 198              		.cfi_startproc
 199              		@ args = 0, pretend = 0, frame = 48
 200              		@ frame_needed = 0, uses_anonymous_args = 0
 201              	.LVL20:
 202 0000 2DE9F041 		push	{r4, r5, r6, r7, r8, lr}
 203              		.cfi_def_cfa_offset 24
 204              		.cfi_offset 4, -24
 205              		.cfi_offset 5, -20
 206              		.cfi_offset 6, -16
 207              		.cfi_offset 7, -12
 208              		.cfi_offset 8, -8
 209              		.cfi_offset 14, -4
 210 0004 8CB0     		sub	sp, sp, #48
 211              		.cfi_def_cfa_offset 72
 212 0006 0646     		mov	r6, r0
 213 0008 0C46     		mov	r4, r1
 132:..\..\mruby_c2\Design01.cydsn/c_uart.c **** 
 214              		.loc 1 132 0
 215 000a 8B68     		ldr	r3, [r1, #8]
 216 000c DD68     		ldr	r5, [r3, #12]
 217              	.LVL21:
 134:..\..\mruby_c2\Design01.cydsn/c_uart.c ****     ret = mrb_nil_value();
 218              		.loc 1 134 0
 219 000e 2846     		mov	r0, r5
 220              	.LVL22:
 221 0010 FFF7FEFF 		bl	uart_can_read_line
 222              	.LVL23:
 223 0014 68B9     		cbnz	r0, .L21
 224              	.LBB19:
 225              	.LBB20:
 226              		.file 3 "..\\..\\mruby_c2\\Design01.cydsn\\value.h"
   1:..\..\mruby_c2\Design01.cydsn/value.h **** /*! @file
   2:..\..\mruby_c2\Design01.cydsn/value.h ****   @brief
   3:..\..\mruby_c2\Design01.cydsn/value.h ****   mruby/c value definitions
ARM GAS  C:\Users\164\AppData\Local\Temp\ccELK2nm.s 			page 10


   4:..\..\mruby_c2\Design01.cydsn/value.h **** 
   5:..\..\mruby_c2\Design01.cydsn/value.h ****   <pre>
   6:..\..\mruby_c2\Design01.cydsn/value.h ****   Copyright (C) 2015-2018 Kyushu Institute of Technology.
   7:..\..\mruby_c2\Design01.cydsn/value.h ****   Copyright (C) 2015-2018 Shimane IT Open-Innovation Center.
   8:..\..\mruby_c2\Design01.cydsn/value.h **** 
   9:..\..\mruby_c2\Design01.cydsn/value.h ****   This file is distributed under BSD 3-Clause License.
  10:..\..\mruby_c2\Design01.cydsn/value.h **** 
  11:..\..\mruby_c2\Design01.cydsn/value.h **** 
  12:..\..\mruby_c2\Design01.cydsn/value.h ****   </pre>
  13:..\..\mruby_c2\Design01.cydsn/value.h **** */
  14:..\..\mruby_c2\Design01.cydsn/value.h **** 
  15:..\..\mruby_c2\Design01.cydsn/value.h **** #ifndef MRBC_SRC_VALUE_H_
  16:..\..\mruby_c2\Design01.cydsn/value.h **** #define MRBC_SRC_VALUE_H_
  17:..\..\mruby_c2\Design01.cydsn/value.h **** 
  18:..\..\mruby_c2\Design01.cydsn/value.h **** #include <stdint.h>
  19:..\..\mruby_c2\Design01.cydsn/value.h **** 
  20:..\..\mruby_c2\Design01.cydsn/value.h **** #ifdef __cplusplus
  21:..\..\mruby_c2\Design01.cydsn/value.h **** extern "C" {
  22:..\..\mruby_c2\Design01.cydsn/value.h **** #endif
  23:..\..\mruby_c2\Design01.cydsn/value.h **** 
  24:..\..\mruby_c2\Design01.cydsn/value.h **** 
  25:..\..\mruby_c2\Design01.cydsn/value.h **** // mrb types
  26:..\..\mruby_c2\Design01.cydsn/value.h **** //typedef float mrb_float;
  27:..\..\mruby_c2\Design01.cydsn/value.h **** //typedef int32_t mrb_int;
  28:..\..\mruby_c2\Design01.cydsn/value.h **** typedef int16_t mrb_sym;
  29:..\..\mruby_c2\Design01.cydsn/value.h **** 
  30:..\..\mruby_c2\Design01.cydsn/value.h **** /* aspec access ? */
  31:..\..\mruby_c2\Design01.cydsn/value.h **** #define MRB_ASPEC_REQ(a)          (((a) >> 18) & 0x1f)
  32:..\..\mruby_c2\Design01.cydsn/value.h **** #define MRB_ASPEC_OPT(a)          (((a) >> 13) & 0x1f)
  33:..\..\mruby_c2\Design01.cydsn/value.h **** #define MRB_ASPEC_REST(a)         (((a) >> 12) & 0x1)
  34:..\..\mruby_c2\Design01.cydsn/value.h **** #define MRB_ASPEC_POST(a)         (((a) >> 7) & 0x1f)
  35:..\..\mruby_c2\Design01.cydsn/value.h **** 
  36:..\..\mruby_c2\Design01.cydsn/value.h **** #define MRBC_OBJECT_HEADER \
  37:..\..\mruby_c2\Design01.cydsn/value.h ****   uint16_t ref_count; \
  38:..\..\mruby_c2\Design01.cydsn/value.h ****   mrb_vtype tt : 8  // TODO: for debug use only.
  39:..\..\mruby_c2\Design01.cydsn/value.h **** 
  40:..\..\mruby_c2\Design01.cydsn/value.h **** 
  41:..\..\mruby_c2\Design01.cydsn/value.h **** struct VM;
  42:..\..\mruby_c2\Design01.cydsn/value.h **** struct IREP;
  43:..\..\mruby_c2\Design01.cydsn/value.h **** struct RObject;
  44:..\..\mruby_c2\Design01.cydsn/value.h **** typedef void (*mrb_func_t)(struct VM *vm, struct RObject *v, int argc);
  45:..\..\mruby_c2\Design01.cydsn/value.h **** 
  46:..\..\mruby_c2\Design01.cydsn/value.h **** 
  47:..\..\mruby_c2\Design01.cydsn/value.h **** //================================================================
  48:..\..\mruby_c2\Design01.cydsn/value.h **** /*!@brief
  49:..\..\mruby_c2\Design01.cydsn/value.h ****   define the value type.
  50:..\..\mruby_c2\Design01.cydsn/value.h **** */
  51:..\..\mruby_c2\Design01.cydsn/value.h **** typedef enum {
  52:..\..\mruby_c2\Design01.cydsn/value.h ****   /* internal use */
  53:..\..\mruby_c2\Design01.cydsn/value.h ****   MRB_TT_HANDLE = -1,
  54:..\..\mruby_c2\Design01.cydsn/value.h ****   /* primitive */
  55:..\..\mruby_c2\Design01.cydsn/value.h ****   MRB_TT_EMPTY = 0,
  56:..\..\mruby_c2\Design01.cydsn/value.h ****   MRB_TT_NIL,
  57:..\..\mruby_c2\Design01.cydsn/value.h ****   MRB_TT_FALSE,		// (note) true/false threshold. see op_jmpif
  58:..\..\mruby_c2\Design01.cydsn/value.h **** 
  59:..\..\mruby_c2\Design01.cydsn/value.h ****   MRB_TT_TRUE,
  60:..\..\mruby_c2\Design01.cydsn/value.h ****   MRB_TT_FIXNUM,
ARM GAS  C:\Users\164\AppData\Local\Temp\ccELK2nm.s 			page 11


  61:..\..\mruby_c2\Design01.cydsn/value.h ****   MRB_TT_FLOAT,
  62:..\..\mruby_c2\Design01.cydsn/value.h ****   MRB_TT_SYMBOL,
  63:..\..\mruby_c2\Design01.cydsn/value.h ****   MRB_TT_CLASS,
  64:..\..\mruby_c2\Design01.cydsn/value.h **** 
  65:..\..\mruby_c2\Design01.cydsn/value.h ****   /* non-primitive */
  66:..\..\mruby_c2\Design01.cydsn/value.h ****   MRB_TT_OBJECT = 20,
  67:..\..\mruby_c2\Design01.cydsn/value.h ****   MRB_TT_PROC,
  68:..\..\mruby_c2\Design01.cydsn/value.h ****   MRB_TT_ARRAY,
  69:..\..\mruby_c2\Design01.cydsn/value.h ****   MRB_TT_STRING,
  70:..\..\mruby_c2\Design01.cydsn/value.h ****   MRB_TT_RANGE,
  71:..\..\mruby_c2\Design01.cydsn/value.h ****   MRB_TT_HASH,
  72:..\..\mruby_c2\Design01.cydsn/value.h **** 
  73:..\..\mruby_c2\Design01.cydsn/value.h **** } mrb_vtype;
  74:..\..\mruby_c2\Design01.cydsn/value.h **** 
  75:..\..\mruby_c2\Design01.cydsn/value.h **** 
  76:..\..\mruby_c2\Design01.cydsn/value.h **** //================================================================
  77:..\..\mruby_c2\Design01.cydsn/value.h **** /*!@brief
  78:..\..\mruby_c2\Design01.cydsn/value.h ****   define the error code. (BETA TEST)
  79:..\..\mruby_c2\Design01.cydsn/value.h **** */
  80:..\..\mruby_c2\Design01.cydsn/value.h **** typedef enum {
  81:..\..\mruby_c2\Design01.cydsn/value.h ****   E_NOMEMORY_ERROR = 1,
  82:..\..\mruby_c2\Design01.cydsn/value.h ****   E_RUNTIME_ERROR,
  83:..\..\mruby_c2\Design01.cydsn/value.h ****   E_TYPE_ERROR,
  84:..\..\mruby_c2\Design01.cydsn/value.h ****   E_ARGUMENT_ERROR,
  85:..\..\mruby_c2\Design01.cydsn/value.h ****   E_INDEX_ERROR,
  86:..\..\mruby_c2\Design01.cydsn/value.h ****   E_RANGE_ERROR,
  87:..\..\mruby_c2\Design01.cydsn/value.h ****   E_NAME_ERROR,
  88:..\..\mruby_c2\Design01.cydsn/value.h ****   E_NOMETHOD_ERROR,
  89:..\..\mruby_c2\Design01.cydsn/value.h ****   E_SCRIPT_ERROR,
  90:..\..\mruby_c2\Design01.cydsn/value.h ****   E_SYNTAX_ERROR,
  91:..\..\mruby_c2\Design01.cydsn/value.h ****   E_LOCALJUMP_ERROR,
  92:..\..\mruby_c2\Design01.cydsn/value.h ****   E_REGEXP_ERROR,
  93:..\..\mruby_c2\Design01.cydsn/value.h ****   E_NOTIMP_ERROR,
  94:..\..\mruby_c2\Design01.cydsn/value.h ****   E_FLOATDOMAIN_ERROR,
  95:..\..\mruby_c2\Design01.cydsn/value.h ****   E_KEY_ERROR,
  96:..\..\mruby_c2\Design01.cydsn/value.h **** } mrb_error_code;
  97:..\..\mruby_c2\Design01.cydsn/value.h **** 
  98:..\..\mruby_c2\Design01.cydsn/value.h **** 
  99:..\..\mruby_c2\Design01.cydsn/value.h **** 
 100:..\..\mruby_c2\Design01.cydsn/value.h **** //================================================================
 101:..\..\mruby_c2\Design01.cydsn/value.h **** /*!@brief
 102:..\..\mruby_c2\Design01.cydsn/value.h ****   mruby/c value object.
 103:..\..\mruby_c2\Design01.cydsn/value.h **** */
 104:..\..\mruby_c2\Design01.cydsn/value.h **** typedef struct RObject {
 105:..\..\mruby_c2\Design01.cydsn/value.h ****   mrb_vtype tt : 8;
 106:..\..\mruby_c2\Design01.cydsn/value.h ****   union {
 107:..\..\mruby_c2\Design01.cydsn/value.h ****     int32_t i;			// MRB_TT_FIXNUM, SYMBOL
 108:..\..\mruby_c2\Design01.cydsn/value.h **** #if MRBC_USE_FLOAT
 109:..\..\mruby_c2\Design01.cydsn/value.h ****     double d;			// MRB_TT_FLOAT
 110:..\..\mruby_c2\Design01.cydsn/value.h **** #endif
 111:..\..\mruby_c2\Design01.cydsn/value.h ****     struct RClass *cls;		// MRB_TT_CLASS
 112:..\..\mruby_c2\Design01.cydsn/value.h ****     struct RObject *handle;	// handle to objects
 113:..\..\mruby_c2\Design01.cydsn/value.h ****     struct RInstance *instance;	// MRB_TT_OBJECT
 114:..\..\mruby_c2\Design01.cydsn/value.h ****     struct RProc *proc;		// MRB_TT_PROC
 115:..\..\mruby_c2\Design01.cydsn/value.h ****     struct RArray *array;	// MRB_TT_ARRAY
 116:..\..\mruby_c2\Design01.cydsn/value.h ****     struct RString *string;	// MRB_TT_STRING
 117:..\..\mruby_c2\Design01.cydsn/value.h ****     const char *str;		// C-string (only loader use.)
ARM GAS  C:\Users\164\AppData\Local\Temp\ccELK2nm.s 			page 12


 118:..\..\mruby_c2\Design01.cydsn/value.h ****     struct RRange *range;	// MRB_TT_RANGE
 119:..\..\mruby_c2\Design01.cydsn/value.h ****     struct RHash *hash;		// MRB_TT_HASH
 120:..\..\mruby_c2\Design01.cydsn/value.h ****   };
 121:..\..\mruby_c2\Design01.cydsn/value.h **** } mrb_object;
 122:..\..\mruby_c2\Design01.cydsn/value.h **** typedef struct RObject mrb_value;
 123:..\..\mruby_c2\Design01.cydsn/value.h **** 
 124:..\..\mruby_c2\Design01.cydsn/value.h **** 
 125:..\..\mruby_c2\Design01.cydsn/value.h **** //================================================================
 126:..\..\mruby_c2\Design01.cydsn/value.h **** /*!@brief
 127:..\..\mruby_c2\Design01.cydsn/value.h ****   mruby/c class object.
 128:..\..\mruby_c2\Design01.cydsn/value.h **** */
 129:..\..\mruby_c2\Design01.cydsn/value.h **** typedef struct RClass {
 130:..\..\mruby_c2\Design01.cydsn/value.h ****   mrb_sym sym_id;	// class name
 131:..\..\mruby_c2\Design01.cydsn/value.h **** #ifdef MRBC_DEBUG
 132:..\..\mruby_c2\Design01.cydsn/value.h ****   const char *names;	// for debug. delete soon.
 133:..\..\mruby_c2\Design01.cydsn/value.h **** #endif
 134:..\..\mruby_c2\Design01.cydsn/value.h ****   struct RClass *super;	// mrbc_class[super]
 135:..\..\mruby_c2\Design01.cydsn/value.h ****   struct RProc *procs;	// mrbc_proc[rprocs], linked list
 136:..\..\mruby_c2\Design01.cydsn/value.h **** } mrb_class;
 137:..\..\mruby_c2\Design01.cydsn/value.h **** 
 138:..\..\mruby_c2\Design01.cydsn/value.h **** 
 139:..\..\mruby_c2\Design01.cydsn/value.h **** //================================================================
 140:..\..\mruby_c2\Design01.cydsn/value.h **** /*!@brief
 141:..\..\mruby_c2\Design01.cydsn/value.h ****   mruby/c instance object.
 142:..\..\mruby_c2\Design01.cydsn/value.h **** */
 143:..\..\mruby_c2\Design01.cydsn/value.h **** typedef struct RInstance {
 144:..\..\mruby_c2\Design01.cydsn/value.h ****   MRBC_OBJECT_HEADER;
 145:..\..\mruby_c2\Design01.cydsn/value.h **** 
 146:..\..\mruby_c2\Design01.cydsn/value.h ****   struct RClass *cls;
 147:..\..\mruby_c2\Design01.cydsn/value.h ****   struct RKeyValueHandle *ivar;
 148:..\..\mruby_c2\Design01.cydsn/value.h ****   uint8_t data[];
 149:..\..\mruby_c2\Design01.cydsn/value.h **** } mrb_instance;
 150:..\..\mruby_c2\Design01.cydsn/value.h **** 
 151:..\..\mruby_c2\Design01.cydsn/value.h **** 
 152:..\..\mruby_c2\Design01.cydsn/value.h **** //================================================================
 153:..\..\mruby_c2\Design01.cydsn/value.h **** /*!@brief
 154:..\..\mruby_c2\Design01.cydsn/value.h ****   mruby/c proc object.
 155:..\..\mruby_c2\Design01.cydsn/value.h **** */
 156:..\..\mruby_c2\Design01.cydsn/value.h **** typedef struct RProc {
 157:..\..\mruby_c2\Design01.cydsn/value.h ****   MRBC_OBJECT_HEADER;
 158:..\..\mruby_c2\Design01.cydsn/value.h **** 
 159:..\..\mruby_c2\Design01.cydsn/value.h ****   unsigned int c_func : 1;	// 0:IREP, 1:C Func
 160:..\..\mruby_c2\Design01.cydsn/value.h ****   mrb_sym sym_id;
 161:..\..\mruby_c2\Design01.cydsn/value.h **** #ifdef MRBC_DEBUG
 162:..\..\mruby_c2\Design01.cydsn/value.h ****   const char *names;		// for debug; delete soon
 163:..\..\mruby_c2\Design01.cydsn/value.h **** #endif
 164:..\..\mruby_c2\Design01.cydsn/value.h ****   struct RProc *next;
 165:..\..\mruby_c2\Design01.cydsn/value.h ****   union {
 166:..\..\mruby_c2\Design01.cydsn/value.h ****     struct IREP *irep;
 167:..\..\mruby_c2\Design01.cydsn/value.h ****     mrb_func_t func;
 168:..\..\mruby_c2\Design01.cydsn/value.h ****   };
 169:..\..\mruby_c2\Design01.cydsn/value.h **** } mrb_proc;
 170:..\..\mruby_c2\Design01.cydsn/value.h **** 
 171:..\..\mruby_c2\Design01.cydsn/value.h **** 
 172:..\..\mruby_c2\Design01.cydsn/value.h **** 
 173:..\..\mruby_c2\Design01.cydsn/value.h **** // for C call
 174:..\..\mruby_c2\Design01.cydsn/value.h **** #define SET_INT_RETURN(n)	(mrbc_release(v), v[0].tt=MRB_TT_FIXNUM, v[0].i=(n))
ARM GAS  C:\Users\164\AppData\Local\Temp\ccELK2nm.s 			page 13


 175:..\..\mruby_c2\Design01.cydsn/value.h **** #define SET_NIL_RETURN()	(mrbc_release(v), v[0].tt=MRB_TT_NIL)
 176:..\..\mruby_c2\Design01.cydsn/value.h **** #define SET_FLOAT_RETURN(n)	(mrbc_release(v), v[0].tt=MRB_TT_FLOAT, v[0].d=(n))
 177:..\..\mruby_c2\Design01.cydsn/value.h **** #define SET_FALSE_RETURN()	(mrbc_release(v), v[0].tt=MRB_TT_FALSE)
 178:..\..\mruby_c2\Design01.cydsn/value.h **** #define SET_TRUE_RETURN()	(mrbc_release(v), v[0].tt=MRB_TT_TRUE)
 179:..\..\mruby_c2\Design01.cydsn/value.h **** #define SET_RETURN(n)		(mrbc_release(v), v[0]=(n))
 180:..\..\mruby_c2\Design01.cydsn/value.h **** 
 181:..\..\mruby_c2\Design01.cydsn/value.h **** #define GET_TT_ARG(n)		(v[(n)].tt)
 182:..\..\mruby_c2\Design01.cydsn/value.h **** #define GET_INT_ARG(n)		(v[(n)].i)
 183:..\..\mruby_c2\Design01.cydsn/value.h **** #define GET_ARY_ARG(n)		(v[(n)])
 184:..\..\mruby_c2\Design01.cydsn/value.h **** #define GET_ARG(n)		(v[(n)])
 185:..\..\mruby_c2\Design01.cydsn/value.h **** #define GET_FLOAT_ARG(n)	(v[(n)].d)
 186:..\..\mruby_c2\Design01.cydsn/value.h **** #define GET_STRING_ARG(n)	(v[(n)].string->data)
 187:..\..\mruby_c2\Design01.cydsn/value.h **** 
 188:..\..\mruby_c2\Design01.cydsn/value.h **** 
 189:..\..\mruby_c2\Design01.cydsn/value.h **** 
 190:..\..\mruby_c2\Design01.cydsn/value.h **** mrb_object *mrbc_obj_alloc(struct VM *vm, mrb_vtype tt);
 191:..\..\mruby_c2\Design01.cydsn/value.h **** mrb_proc *mrbc_rproc_alloc(struct VM *vm, const char *name);
 192:..\..\mruby_c2\Design01.cydsn/value.h **** int mrbc_compare(const mrb_value *v1, const mrb_value *v2);
 193:..\..\mruby_c2\Design01.cydsn/value.h **** void mrbc_dup(mrb_value *v);
 194:..\..\mruby_c2\Design01.cydsn/value.h **** void mrbc_release(mrb_value *v);
 195:..\..\mruby_c2\Design01.cydsn/value.h **** void mrbc_dec_ref_counter(mrb_value *v);
 196:..\..\mruby_c2\Design01.cydsn/value.h **** void mrbc_clear_vm_id(mrb_value *v);
 197:..\..\mruby_c2\Design01.cydsn/value.h **** int32_t mrbc_atoi(const char *s, int base);
 198:..\..\mruby_c2\Design01.cydsn/value.h **** struct IREP *mrbc_irep_alloc(struct VM *vm);
 199:..\..\mruby_c2\Design01.cydsn/value.h **** void mrbc_irep_free(struct IREP *irep);
 200:..\..\mruby_c2\Design01.cydsn/value.h **** mrb_value mrbc_instance_new(struct VM *vm, mrb_class *cls, int size);
 201:..\..\mruby_c2\Design01.cydsn/value.h **** void mrbc_instance_delete(mrb_value *v);
 202:..\..\mruby_c2\Design01.cydsn/value.h **** void mrbc_instance_setiv(mrb_object *obj, mrb_sym sym_id, mrb_value *v);
 203:..\..\mruby_c2\Design01.cydsn/value.h **** mrb_value mrbc_instance_getiv(mrb_object *obj, mrb_sym sym_id);
 204:..\..\mruby_c2\Design01.cydsn/value.h **** 
 205:..\..\mruby_c2\Design01.cydsn/value.h **** 
 206:..\..\mruby_c2\Design01.cydsn/value.h **** 
 207:..\..\mruby_c2\Design01.cydsn/value.h **** //================================================================
 208:..\..\mruby_c2\Design01.cydsn/value.h **** /*!@brief
 209:..\..\mruby_c2\Design01.cydsn/value.h ****   Returns a fixnum in mruby/c.
 210:..\..\mruby_c2\Design01.cydsn/value.h **** 
 211:..\..\mruby_c2\Design01.cydsn/value.h ****   @param  n	int value
 212:..\..\mruby_c2\Design01.cydsn/value.h ****   @return	mrb_value of type fixnum.
 213:..\..\mruby_c2\Design01.cydsn/value.h **** */
 214:..\..\mruby_c2\Design01.cydsn/value.h **** static inline mrb_value mrb_fixnum_value( int32_t n )
 215:..\..\mruby_c2\Design01.cydsn/value.h **** {
 216:..\..\mruby_c2\Design01.cydsn/value.h ****   mrb_value value = {.tt = MRB_TT_FIXNUM};
 217:..\..\mruby_c2\Design01.cydsn/value.h ****   value.i = n;
 218:..\..\mruby_c2\Design01.cydsn/value.h ****   return value;
 219:..\..\mruby_c2\Design01.cydsn/value.h **** }
 220:..\..\mruby_c2\Design01.cydsn/value.h **** 
 221:..\..\mruby_c2\Design01.cydsn/value.h **** 
 222:..\..\mruby_c2\Design01.cydsn/value.h **** #if MRBC_USE_FLOAT
 223:..\..\mruby_c2\Design01.cydsn/value.h **** //================================================================
 224:..\..\mruby_c2\Design01.cydsn/value.h **** /*!@brief
 225:..\..\mruby_c2\Design01.cydsn/value.h ****   Returns a float in mruby/c.
 226:..\..\mruby_c2\Design01.cydsn/value.h **** 
 227:..\..\mruby_c2\Design01.cydsn/value.h ****   @param  n	dluble value
 228:..\..\mruby_c2\Design01.cydsn/value.h ****   @return	mrb_value of type float.
 229:..\..\mruby_c2\Design01.cydsn/value.h **** */
 230:..\..\mruby_c2\Design01.cydsn/value.h **** static inline mrb_value mrb_float_value( double n )
 231:..\..\mruby_c2\Design01.cydsn/value.h **** {
ARM GAS  C:\Users\164\AppData\Local\Temp\ccELK2nm.s 			page 14


 232:..\..\mruby_c2\Design01.cydsn/value.h ****   mrb_value value = {.tt = MRB_TT_FLOAT};
 233:..\..\mruby_c2\Design01.cydsn/value.h ****   value.d = n;
 234:..\..\mruby_c2\Design01.cydsn/value.h ****   return value;
 235:..\..\mruby_c2\Design01.cydsn/value.h **** }
 236:..\..\mruby_c2\Design01.cydsn/value.h **** #endif
 237:..\..\mruby_c2\Design01.cydsn/value.h **** 
 238:..\..\mruby_c2\Design01.cydsn/value.h **** 
 239:..\..\mruby_c2\Design01.cydsn/value.h **** //================================================================
 240:..\..\mruby_c2\Design01.cydsn/value.h **** /*!@brief
 241:..\..\mruby_c2\Design01.cydsn/value.h ****   Returns a nil in mruby/c.
 242:..\..\mruby_c2\Design01.cydsn/value.h **** 
 243:..\..\mruby_c2\Design01.cydsn/value.h ****   @return	mrb_value of type nil.
 244:..\..\mruby_c2\Design01.cydsn/value.h **** */
 245:..\..\mruby_c2\Design01.cydsn/value.h **** static inline mrb_value mrb_nil_value(void)
 246:..\..\mruby_c2\Design01.cydsn/value.h **** {
 247:..\..\mruby_c2\Design01.cydsn/value.h ****   mrb_value value = {.tt = MRB_TT_NIL};
 227              		.loc 3 247 0
 228 0016 04AB     		add	r3, sp, #16
 229 0018 0022     		movs	r2, #0
 230 001a 0492     		str	r2, [sp, #16]
 231 001c 0592     		str	r2, [sp, #20]
 232 001e 0692     		str	r2, [sp, #24]
 233 0020 0792     		str	r2, [sp, #28]
 234 0022 0122     		movs	r2, #1
 235 0024 8DF81020 		strb	r2, [sp, #16]
 248:..\..\mruby_c2\Design01.cydsn/value.h ****   return value;
 236              		.loc 3 248 0
 237 0028 0FCB     		ldmia	r3, {r0, r1, r2, r3}
 238 002a 0CAD     		add	r5, sp, #48
 239              	.LVL24:
 240 002c 05E90F00 		stmdb	r5, {r0, r1, r2, r3}
 241 0030 1FE0     		b	.L22
 242              	.LVL25:
 243              	.L21:
 244              	.LBE20:
 245              	.LBE19:
 139:..\..\mruby_c2\Design01.cydsn/c_uart.c ****   char *buf = mrbc_alloc( vm, len );
 246              		.loc 1 139 0
 247 0032 2846     		mov	r0, r5
 248 0034 FFF7FEFF 		bl	uart_bytes_available
 249              	.LVL26:
 250 0038 00F10108 		add	r8, r0, #1
 251              	.LVL27:
 140:..\..\mruby_c2\Design01.cydsn/c_uart.c **** 
 252              		.loc 1 140 0
 253 003c 4146     		mov	r1, r8
 254 003e 3046     		mov	r0, r6
 255 0040 FFF7FEFF 		bl	mrbc_alloc
 256              	.LVL28:
 257 0044 0746     		mov	r7, r0
 258              	.LVL29:
 142:..\..\mruby_c2\Design01.cydsn/c_uart.c ****   mrbc_realloc( vm, buf, len );
 259              		.loc 1 142 0
 260 0046 4246     		mov	r2, r8
 261 0048 0146     		mov	r1, r0
 262 004a 2846     		mov	r0, r5
 263              	.LVL30:
ARM GAS  C:\Users\164\AppData\Local\Temp\ccELK2nm.s 			page 15


 264 004c FFF7FEFF 		bl	uart_gets
 265              	.LVL31:
 266 0050 8046     		mov	r8, r0
 267              	.LVL32:
 143:..\..\mruby_c2\Design01.cydsn/c_uart.c **** 
 268              		.loc 1 143 0
 269 0052 0246     		mov	r2, r0
 270 0054 3946     		mov	r1, r7
 271 0056 3046     		mov	r0, r6
 272              	.LVL33:
 273 0058 FFF7FEFF 		bl	mrbc_realloc
 274              	.LVL34:
 145:..\..\mruby_c2\Design01.cydsn/c_uart.c **** 
 275              		.loc 1 145 0
 276 005c 4346     		mov	r3, r8
 277 005e 3A46     		mov	r2, r7
 278 0060 3146     		mov	r1, r6
 279 0062 6846     		mov	r0, sp
 280 0064 FFF7FEFF 		bl	mrbc_string_new_alloc
 281              	.LVL35:
 282 0068 9DE80F00 		ldmia	sp, {r0, r1, r2, r3}
 283 006c 0CAD     		add	r5, sp, #48
 284              	.LVL36:
 285 006e 05E90F00 		stmdb	r5, {r0, r1, r2, r3}
 286              	.LVL37:
 287              	.L22:
 148:..\..\mruby_c2\Design01.cydsn/c_uart.c **** }
 288              		.loc 1 148 0
 289 0072 2046     		mov	r0, r4
 290 0074 FFF7FEFF 		bl	mrbc_release
 291              	.LVL38:
 292 0078 0CAB     		add	r3, sp, #48
 293 007a 13E90F00 		ldmdb	r3, {r0, r1, r2, r3}
 294 007e 84E80F00 		stmia	r4, {r0, r1, r2, r3}
 149:..\..\mruby_c2\Design01.cydsn/c_uart.c **** 
 295              		.loc 1 149 0
 296 0082 0CB0     		add	sp, sp, #48
 297              		.cfi_def_cfa_offset 24
 298              		@ sp needed
 299 0084 BDE8F081 		pop	{r4, r5, r6, r7, r8, pc}
 300              		.cfi_endproc
 301              	.LFE78:
 302              		.size	c_uart_gets, .-c_uart_gets
 303              		.section	.text.c_uart_write,"ax",%progbits
 304              		.align	2
 305              		.thumb
 306              		.thumb_func
 307              		.type	c_uart_write, %function
 308              	c_uart_write:
 309              	.LFB77:
 109:..\..\mruby_c2\Design01.cydsn/c_uart.c ****   UART_HANDLE *handle = *(UART_HANDLE **)v->instance->data;
 310              		.loc 1 109 0
 311              		.cfi_startproc
 312              		@ args = 0, pretend = 0, frame = 0
 313              		@ frame_needed = 0, uses_anonymous_args = 0
 314              	.LVL39:
 315 0000 38B5     		push	{r3, r4, r5, lr}
ARM GAS  C:\Users\164\AppData\Local\Temp\ccELK2nm.s 			page 16


 316              		.cfi_def_cfa_offset 16
 317              		.cfi_offset 3, -16
 318              		.cfi_offset 4, -12
 319              		.cfi_offset 5, -8
 320              		.cfi_offset 14, -4
 321 0002 0C46     		mov	r4, r1
 110:..\..\mruby_c2\Design01.cydsn/c_uart.c **** 
 322              		.loc 1 110 0
 323 0004 8B68     		ldr	r3, [r1, #8]
 324 0006 D868     		ldr	r0, [r3, #12]
 325              	.LVL40:
 112:..\..\mruby_c2\Design01.cydsn/c_uart.c ****   case MRB_TT_STRING: {
 326              		.loc 1 112 0
 327 0008 91F91030 		ldrsb	r3, [r1, #16]
 328 000c 172B     		cmp	r3, #23
 329 000e 0CD1     		bne	.L28
 330              	.LVL41:
 331              	.LBB21:
 332              	.LBB22:
 333              	.LBB23:
 334              		.loc 2 81 0
 335 0010 8B69     		ldr	r3, [r1, #24]
 336              	.LVL42:
 337              	.LBE23:
 338              	.LBE22:
 114:..\..\mruby_c2\Design01.cydsn/c_uart.c **** 			mrbc_string_cstr(&v[1]), mrbc_string_size(&v[1]) );
 339              		.loc 1 114 0
 340 0012 9A88     		ldrh	r2, [r3, #4]
 341              	.LVL43:
 342 0014 9968     		ldr	r1, [r3, #8]
 343              	.LVL44:
 344 0016 FFF7FEFF 		bl	uart_write
 345              	.LVL45:
 346 001a 0546     		mov	r5, r0
 347              	.LVL46:
 116:..\..\mruby_c2\Design01.cydsn/c_uart.c ****   } break;
 348              		.loc 1 116 0
 349 001c 2046     		mov	r0, r4
 350              	.LVL47:
 351 001e FFF7FEFF 		bl	mrbc_release
 352              	.LVL48:
 353 0022 0423     		movs	r3, #4
 354 0024 2370     		strb	r3, [r4]
 355 0026 A560     		str	r5, [r4, #8]
 356              	.LBE21:
 117:..\..\mruby_c2\Design01.cydsn/c_uart.c **** 
 357              		.loc 1 117 0
 358 0028 38BD     		pop	{r3, r4, r5, pc}
 359              	.LVL49:
 360              	.L28:
 120:..\..\mruby_c2\Design01.cydsn/c_uart.c ****     break;
 361              		.loc 1 120 0
 362 002a 0846     		mov	r0, r1
 363              	.LVL50:
 364 002c FFF7FEFF 		bl	mrbc_release
 365              	.LVL51:
 366 0030 0123     		movs	r3, #1
ARM GAS  C:\Users\164\AppData\Local\Temp\ccELK2nm.s 			page 17


 367 0032 2370     		strb	r3, [r4]
 368 0034 38BD     		pop	{r3, r4, r5, pc}
 369              		.cfi_endproc
 370              	.LFE77:
 371              		.size	c_uart_write, .-c_uart_write
 372 0036 00BF     		.section	.text.c_uart_read,"ax",%progbits
 373              		.align	2
 374              		.thumb
 375              		.thumb_func
 376              		.type	c_uart_read, %function
 377              	c_uart_read:
 378              	.LFB76:
  84:..\..\mruby_c2\Design01.cydsn/c_uart.c ****   mrb_value ret;
 379              		.loc 1 84 0
 380              		.cfi_startproc
 381              		@ args = 0, pretend = 0, frame = 48
 382              		@ frame_needed = 0, uses_anonymous_args = 0
 383              	.LVL52:
 384 0000 2DE9F041 		push	{r4, r5, r6, r7, r8, lr}
 385              		.cfi_def_cfa_offset 24
 386              		.cfi_offset 4, -24
 387              		.cfi_offset 5, -20
 388              		.cfi_offset 6, -16
 389              		.cfi_offset 7, -12
 390              		.cfi_offset 8, -8
 391              		.cfi_offset 14, -4
 392 0004 8CB0     		sub	sp, sp, #48
 393              		.cfi_def_cfa_offset 72
 394 0006 0746     		mov	r7, r0
 395 0008 0C46     		mov	r4, r1
  86:..\..\mruby_c2\Design01.cydsn/c_uart.c ****   int need_length = GET_INT_ARG(1);
 396              		.loc 1 86 0
 397 000a 8B68     		ldr	r3, [r1, #8]
 398 000c DE68     		ldr	r6, [r3, #12]
 399              	.LVL53:
  87:..\..\mruby_c2\Design01.cydsn/c_uart.c **** 
 400              		.loc 1 87 0
 401 000e 8D69     		ldr	r5, [r1, #24]
 402              	.LVL54:
  89:..\..\mruby_c2\Design01.cydsn/c_uart.c ****     ret = mrb_nil_value();
 403              		.loc 1 89 0
 404 0010 3046     		mov	r0, r6
 405              	.LVL55:
 406 0012 FFF7FEFF 		bl	uart_bytes_available
 407              	.LVL56:
 408 0016 8542     		cmp	r5, r0
 409 0018 0DDD     		ble	.L31
 410              	.LBB24:
 411              	.LBB25:
 247:..\..\mruby_c2\Design01.cydsn/value.h ****   return value;
 412              		.loc 3 247 0
 413 001a 04AB     		add	r3, sp, #16
 414 001c 0022     		movs	r2, #0
 415 001e 0492     		str	r2, [sp, #16]
 416 0020 0592     		str	r2, [sp, #20]
 417 0022 0692     		str	r2, [sp, #24]
 418 0024 0792     		str	r2, [sp, #28]
ARM GAS  C:\Users\164\AppData\Local\Temp\ccELK2nm.s 			page 18


 419 0026 0122     		movs	r2, #1
 420 0028 8DF81020 		strb	r2, [sp, #16]
 421              		.loc 3 248 0
 422 002c 0FCB     		ldmia	r3, {r0, r1, r2, r3}
 423 002e 0CAD     		add	r5, sp, #48
 424              	.LVL57:
 425 0030 05E90F00 		stmdb	r5, {r0, r1, r2, r3}
 426 0034 14E0     		b	.L32
 427              	.LVL58:
 428              	.L31:
 429              	.LBE25:
 430              	.LBE24:
  94:..\..\mruby_c2\Design01.cydsn/c_uart.c ****   uart_read( handle, buf, need_length );
 431              		.loc 1 94 0
 432 0036 691C     		adds	r1, r5, #1
 433 0038 3846     		mov	r0, r7
 434 003a FFF7FEFF 		bl	mrbc_alloc
 435              	.LVL59:
 436 003e 8046     		mov	r8, r0
 437              	.LVL60:
  95:..\..\mruby_c2\Design01.cydsn/c_uart.c **** 
 438              		.loc 1 95 0
 439 0040 2A46     		mov	r2, r5
 440 0042 0146     		mov	r1, r0
 441 0044 3046     		mov	r0, r6
 442              	.LVL61:
 443 0046 FFF7FEFF 		bl	uart_read
 444              	.LVL62:
  97:..\..\mruby_c2\Design01.cydsn/c_uart.c **** 
 445              		.loc 1 97 0
 446 004a 2B46     		mov	r3, r5
 447 004c 4246     		mov	r2, r8
 448 004e 3946     		mov	r1, r7
 449 0050 6846     		mov	r0, sp
 450 0052 FFF7FEFF 		bl	mrbc_string_new_alloc
 451              	.LVL63:
 452 0056 9DE80F00 		ldmia	sp, {r0, r1, r2, r3}
 453 005a 0CAD     		add	r5, sp, #48
 454              	.LVL64:
 455 005c 05E90F00 		stmdb	r5, {r0, r1, r2, r3}
 456              	.LVL65:
 457              	.L32:
 100:..\..\mruby_c2\Design01.cydsn/c_uart.c **** }
 458              		.loc 1 100 0
 459 0060 2046     		mov	r0, r4
 460 0062 FFF7FEFF 		bl	mrbc_release
 461              	.LVL66:
 462 0066 0CAB     		add	r3, sp, #48
 463 0068 13E90F00 		ldmdb	r3, {r0, r1, r2, r3}
 464 006c 84E80F00 		stmia	r4, {r0, r1, r2, r3}
 101:..\..\mruby_c2\Design01.cydsn/c_uart.c **** 
 465              		.loc 1 101 0
 466 0070 0CB0     		add	sp, sp, #48
 467              		.cfi_def_cfa_offset 24
 468              		@ sp needed
 469 0072 BDE8F081 		pop	{r4, r5, r6, r7, r8, pc}
 470              		.cfi_endproc
ARM GAS  C:\Users\164\AppData\Local\Temp\ccELK2nm.s 			page 19


 471              	.LFE76:
 472              		.size	c_uart_read, .-c_uart_read
 473 0076 00BF     		.section	.text.c_uart_new,"ax",%progbits
 474              		.align	2
 475              		.thumb
 476              		.thumb_func
 477              		.type	c_uart_new, %function
 478              	c_uart_new:
 479              	.LFB75:
  66:..\..\mruby_c2\Design01.cydsn/c_uart.c ****   static int num = 0;
 480              		.loc 1 66 0
 481              		.cfi_startproc
 482              		@ args = 0, pretend = 0, frame = 48
 483              		@ frame_needed = 0, uses_anonymous_args = 0
 484              	.LVL67:
 485 0000 30B5     		push	{r4, r5, lr}
 486              		.cfi_def_cfa_offset 12
 487              		.cfi_offset 4, -12
 488              		.cfi_offset 5, -8
 489              		.cfi_offset 14, -4
 490 0002 8DB0     		sub	sp, sp, #52
 491              		.cfi_def_cfa_offset 64
 492 0004 0D46     		mov	r5, r1
  69:..\..\mruby_c2\Design01.cydsn/c_uart.c ****     *v = mrb_nil_value();
 493              		.loc 1 69 0
 494 0006 144B     		ldr	r3, .L38
 495 0008 1B68     		ldr	r3, [r3]
 496 000a 002B     		cmp	r3, #0
 497 000c 0FDD     		ble	.L35
 498              	.LBB26:
 499              	.LBB27:
 247:..\..\mruby_c2\Design01.cydsn/value.h ****   return value;
 500              		.loc 3 247 0
 501 000e 04AB     		add	r3, sp, #16
 502 0010 0022     		movs	r2, #0
 503              	.LVL68:
 504 0012 0492     		str	r2, [sp, #16]
 505 0014 0592     		str	r2, [sp, #20]
 506 0016 0692     		str	r2, [sp, #24]
 507 0018 0792     		str	r2, [sp, #28]
 508 001a 0122     		movs	r2, #1
 509 001c 8DF81020 		strb	r2, [sp, #16]
 510              		.loc 3 248 0
 511 0020 08AC     		add	r4, sp, #32
 512 0022 0FCB     		ldmia	r3, {r0, r1, r2, r3}
 513              	.LVL69:
 514 0024 84E80F00 		stmia	r4, {r0, r1, r2, r3}
 515              	.LBE27:
 516              	.LBE26:
  70:..\..\mruby_c2\Design01.cydsn/c_uart.c ****     return;
 517              		.loc 1 70 0
 518 0028 85E80F00 		stmia	r5, {r0, r1, r2, r3}
  71:..\..\mruby_c2\Design01.cydsn/c_uart.c ****   }
 519              		.loc 1 71 0
 520 002c 12E0     		b	.L34
 521              	.LVL70:
 522              	.L35:
ARM GAS  C:\Users\164\AppData\Local\Temp\ccELK2nm.s 			page 20


 523 002e 0146     		mov	r1, r0
 524              	.LVL71:
  74:..\..\mruby_c2\Design01.cydsn/c_uart.c ****   *((UART_HANDLE **)v->instance->data) = &uh[num++];
 525              		.loc 1 74 0
 526 0030 0423     		movs	r3, #4
 527 0032 AA68     		ldr	r2, [r5, #8]
 528              	.LVL72:
 529 0034 6846     		mov	r0, sp
 530              	.LVL73:
 531 0036 FFF7FEFF 		bl	mrbc_instance_new
 532              	.LVL74:
 533 003a 9DE80F00 		ldmia	sp, {r0, r1, r2, r3}
 534 003e 85E80F00 		stmia	r5, {r0, r1, r2, r3}
  75:..\..\mruby_c2\Design01.cydsn/c_uart.c **** }
 535              		.loc 1 75 0
 536 0042 0549     		ldr	r1, .L38
 537 0044 0B68     		ldr	r3, [r1]
 538 0046 581C     		adds	r0, r3, #1
 539 0048 0860     		str	r0, [r1]
 540 004a 0449     		ldr	r1, .L38+4
 541 004c B420     		movs	r0, #180
 542 004e 00FB0313 		mla	r3, r0, r3, r1
 543 0052 D360     		str	r3, [r2, #12]
 544              	.L34:
  76:..\..\mruby_c2\Design01.cydsn/c_uart.c **** 
 545              		.loc 1 76 0
 546 0054 0DB0     		add	sp, sp, #52
 547              		.cfi_def_cfa_offset 12
 548              		@ sp needed
 549 0056 30BD     		pop	{r4, r5, pc}
 550              	.LVL75:
 551              	.L39:
 552              		.align	2
 553              	.L38:
 554 0058 00000000 		.word	.LANCHOR0
 555 005c 00000000 		.word	uh
 556              		.cfi_endproc
 557              	.LFE75:
 558              		.size	c_uart_new, .-c_uart_new
 559              		.section	.text.mrbc_init_class_uart,"ax",%progbits
 560              		.align	2
 561              		.global	mrbc_init_class_uart
 562              		.thumb
 563              		.thumb_func
 564              		.type	mrbc_init_class_uart, %function
 565              	mrbc_init_class_uart:
 566              	.LFB82:
 191:..\..\mruby_c2\Design01.cydsn/c_uart.c **** }
 192:..\..\mruby_c2\Design01.cydsn/c_uart.c **** 
 193:..\..\mruby_c2\Design01.cydsn/c_uart.c **** 
 194:..\..\mruby_c2\Design01.cydsn/c_uart.c **** //================================================================
 195:..\..\mruby_c2\Design01.cydsn/c_uart.c **** /*! initialize
 196:..\..\mruby_c2\Design01.cydsn/c_uart.c **** */
 197:..\..\mruby_c2\Design01.cydsn/c_uart.c **** void mrbc_init_class_uart(struct VM *vm)
 198:..\..\mruby_c2\Design01.cydsn/c_uart.c **** {
 567              		.loc 1 198 0
 568              		.cfi_startproc
ARM GAS  C:\Users\164\AppData\Local\Temp\ccELK2nm.s 			page 21


 569              		@ args = 0, pretend = 0, frame = 0
 570              		@ frame_needed = 0, uses_anonymous_args = 0
 571              	.LVL76:
 572 0000 10B5     		push	{r4, lr}
 573              		.cfi_def_cfa_offset 8
 574              		.cfi_offset 4, -8
 575              		.cfi_offset 14, -4
 576 0002 88B0     		sub	sp, sp, #32
 577              		.cfi_def_cfa_offset 40
 199:..\..\mruby_c2\Design01.cydsn/c_uart.c ****   // start physical device
 200:..\..\mruby_c2\Design01.cydsn/c_uart.c ****   uart_init( &uh[0], UART_1 );
 578              		.loc 1 200 0
 579 0004 264B     		ldr	r3, .L42
 580 0006 0693     		str	r3, [sp, #24]
 581 0008 264B     		ldr	r3, .L42+4
 582 000a 0593     		str	r3, [sp, #20]
 583 000c 264B     		ldr	r3, .L42+8
 584 000e 0493     		str	r3, [sp, #16]
 585 0010 264B     		ldr	r3, .L42+12
 586 0012 0393     		str	r3, [sp, #12]
 587 0014 264B     		ldr	r3, .L42+16
 588 0016 0293     		str	r3, [sp, #8]
 589 0018 264B     		ldr	r3, .L42+20
 590 001a 0193     		str	r3, [sp, #4]
 591 001c 264B     		ldr	r3, .L42+24
 592 001e 0093     		str	r3, [sp]
 593 0020 264B     		ldr	r3, .L42+28
 594 0022 2022     		movs	r2, #32
 595 0024 0121     		movs	r1, #1
 596 0026 2648     		ldr	r0, .L42+32
 597              	.LVL77:
 598 0028 FFF7FEFF 		bl	uart_init_m
 599              	.LVL78:
 600 002c 2548     		ldr	r0, .L42+36
 601 002e FFF7FEFF 		bl	isr_UART_1_Tx_StartEx
 602              	.LVL79:
 603 0032 2548     		ldr	r0, .L42+40
 604 0034 FFF7FEFF 		bl	isr_UART_1_Rx_StartEx
 605              	.LVL80:
 201:..\..\mruby_c2\Design01.cydsn/c_uart.c ****   // uart_init( &uh[1], UART_2 );
 202:..\..\mruby_c2\Design01.cydsn/c_uart.c **** 
 203:..\..\mruby_c2\Design01.cydsn/c_uart.c ****   // define class and methods.
 204:..\..\mruby_c2\Design01.cydsn/c_uart.c ****   mrb_class *uart;
 205:..\..\mruby_c2\Design01.cydsn/c_uart.c ****   uart = mrbc_define_class(0, "UART",	mrbc_class_object);
 606              		.loc 1 205 0
 607 0038 244B     		ldr	r3, .L42+44
 608 003a 1A68     		ldr	r2, [r3]
 609 003c 2449     		ldr	r1, .L42+48
 610 003e 0020     		movs	r0, #0
 611 0040 FFF7FEFF 		bl	mrbc_define_class
 612              	.LVL81:
 613 0044 0446     		mov	r4, r0
 614              	.LVL82:
 206:..\..\mruby_c2\Design01.cydsn/c_uart.c ****   mrbc_define_method(0, uart, "new",	c_uart_new);
 615              		.loc 1 206 0
 616 0046 234B     		ldr	r3, .L42+52
 617 0048 234A     		ldr	r2, .L42+56
ARM GAS  C:\Users\164\AppData\Local\Temp\ccELK2nm.s 			page 22


 618 004a 0146     		mov	r1, r0
 619 004c 0020     		movs	r0, #0
 620              	.LVL83:
 621 004e FFF7FEFF 		bl	mrbc_define_method
 622              	.LVL84:
 207:..\..\mruby_c2\Design01.cydsn/c_uart.c ****   mrbc_define_method(0, uart, "read",	c_uart_read);
 623              		.loc 1 207 0
 624 0052 224B     		ldr	r3, .L42+60
 625 0054 224A     		ldr	r2, .L42+64
 626 0056 2146     		mov	r1, r4
 627 0058 0020     		movs	r0, #0
 628 005a FFF7FEFF 		bl	mrbc_define_method
 629              	.LVL85:
 208:..\..\mruby_c2\Design01.cydsn/c_uart.c ****   mrbc_define_method(0, uart, "write",	c_uart_write);
 630              		.loc 1 208 0
 631 005e 214B     		ldr	r3, .L42+68
 632 0060 214A     		ldr	r2, .L42+72
 633 0062 2146     		mov	r1, r4
 634 0064 0020     		movs	r0, #0
 635 0066 FFF7FEFF 		bl	mrbc_define_method
 636              	.LVL86:
 209:..\..\mruby_c2\Design01.cydsn/c_uart.c ****   mrbc_define_method(0, uart, "gets",	c_uart_gets);
 637              		.loc 1 209 0
 638 006a 204B     		ldr	r3, .L42+76
 639 006c 204A     		ldr	r2, .L42+80
 640 006e 2146     		mov	r1, r4
 641 0070 0020     		movs	r0, #0
 642 0072 FFF7FEFF 		bl	mrbc_define_method
 643              	.LVL87:
 210:..\..\mruby_c2\Design01.cydsn/c_uart.c ****   mrbc_define_method(0, uart, "puts",	c_uart_puts);
 644              		.loc 1 210 0
 645 0076 1F4B     		ldr	r3, .L42+84
 646 0078 1F4A     		ldr	r2, .L42+88
 647 007a 2146     		mov	r1, r4
 648 007c 0020     		movs	r0, #0
 649 007e FFF7FEFF 		bl	mrbc_define_method
 650              	.LVL88:
 211:..\..\mruby_c2\Design01.cydsn/c_uart.c ****   mrbc_define_method(0, uart, "clear_tx_buffer", c_uart_clear_tx_buffer);
 651              		.loc 1 211 0
 652 0082 1E4B     		ldr	r3, .L42+92
 653 0084 1E4A     		ldr	r2, .L42+96
 654 0086 2146     		mov	r1, r4
 655 0088 0020     		movs	r0, #0
 656 008a FFF7FEFF 		bl	mrbc_define_method
 657              	.LVL89:
 212:..\..\mruby_c2\Design01.cydsn/c_uart.c ****   mrbc_define_method(0, uart, "clear_rx_buffer", c_uart_clear_rx_buffer);
 658              		.loc 1 212 0
 659 008e 1D4B     		ldr	r3, .L42+100
 660 0090 1D4A     		ldr	r2, .L42+104
 661 0092 2146     		mov	r1, r4
 662 0094 0020     		movs	r0, #0
 663 0096 FFF7FEFF 		bl	mrbc_define_method
 664              	.LVL90:
 213:..\..\mruby_c2\Design01.cydsn/c_uart.c **** }
 665              		.loc 1 213 0
 666 009a 08B0     		add	sp, sp, #32
 667              		.cfi_def_cfa_offset 8
ARM GAS  C:\Users\164\AppData\Local\Temp\ccELK2nm.s 			page 23


 668              		@ sp needed
 669 009c 10BD     		pop	{r4, pc}
 670              	.LVL91:
 671              	.L43:
 672 009e 00BF     		.align	2
 673              	.L42:
 674 00a0 00000000 		.word	UART_1_ReadRxData
 675 00a4 00000000 		.word	UART_1_WriteTxData
 676 00a8 00000000 		.word	UART_1_ReadRxStatus
 677 00ac 00000000 		.word	UART_1_ReadTxStatus
 678 00b0 00000000 		.word	UART_1_ClearRxBuffer
 679 00b4 00000000 		.word	UART_1_ClearTxBuffer
 680 00b8 00000000 		.word	UART_1_Stop
 681 00bc 00000000 		.word	UART_1_Start
 682 00c0 00000000 		.word	uh
 683 00c4 00000000 		.word	isr_UART_1_Tx
 684 00c8 00000000 		.word	isr_UART_1_Rx
 685 00cc 00000000 		.word	mrbc_class_object
 686 00d0 00000000 		.word	.LC0
 687 00d4 00000000 		.word	c_uart_new
 688 00d8 08000000 		.word	.LC1
 689 00dc 00000000 		.word	c_uart_read
 690 00e0 0C000000 		.word	.LC2
 691 00e4 00000000 		.word	c_uart_write
 692 00e8 14000000 		.word	.LC3
 693 00ec 00000000 		.word	c_uart_gets
 694 00f0 1C000000 		.word	.LC4
 695 00f4 00000000 		.word	c_uart_puts
 696 00f8 24000000 		.word	.LC5
 697 00fc 00000000 		.word	c_uart_clear_tx_buffer
 698 0100 2C000000 		.word	.LC6
 699 0104 00000000 		.word	c_uart_clear_rx_buffer
 700 0108 3C000000 		.word	.LC7
 701              		.cfi_endproc
 702              	.LFE82:
 703              		.size	mrbc_init_class_uart, .-mrbc_init_class_uart
 704              		.comm	uh,180,4
 705              		.section	.rodata.str1.4,"aMS",%progbits,1
 706              		.align	2
 707              	.LC0:
 708 0000 55415254 		.ascii	"UART\000"
 708      00
 709 0005 000000   		.space	3
 710              	.LC1:
 711 0008 6E657700 		.ascii	"new\000"
 712              	.LC2:
 713 000c 72656164 		.ascii	"read\000"
 713      00
 714 0011 000000   		.space	3
 715              	.LC3:
 716 0014 77726974 		.ascii	"write\000"
 716      6500
 717 001a 0000     		.space	2
 718              	.LC4:
 719 001c 67657473 		.ascii	"gets\000"
 719      00
 720 0021 000000   		.space	3
ARM GAS  C:\Users\164\AppData\Local\Temp\ccELK2nm.s 			page 24


 721              	.LC5:
 722 0024 70757473 		.ascii	"puts\000"
 722      00
 723 0029 000000   		.space	3
 724              	.LC6:
 725 002c 636C6561 		.ascii	"clear_tx_buffer\000"
 725      725F7478 
 725      5F627566 
 725      66657200 
 726              	.LC7:
 727 003c 636C6561 		.ascii	"clear_rx_buffer\000"
 727      725F7278 
 727      5F627566 
 727      66657200 
 728              		.bss
 729              		.align	2
 730              		.set	.LANCHOR0,. + 0
 731              		.type	num.7083, %object
 732              		.size	num.7083, 4
 733              	num.7083:
 734 0000 00000000 		.space	4
 735              		.text
 736              	.Letext0:
 737              		.file 4 "c:\\program files (x86)\\cypress\\psoc creator\\4.2\\psoc creator\\import\\gnu\\arm\\5.4.
 738              		.file 5 "c:\\program files (x86)\\cypress\\psoc creator\\4.2\\psoc creator\\import\\gnu\\arm\\5.4.
 739              		.file 6 "Generated_Source\\PSoC5/cytypes.h"
 740              		.file 7 "..\\..\\mruby_c2\\Design01.cydsn\\vm.h"
 741              		.file 8 "..\\..\\mruby_c2\\Design01.cydsn\\uart2.h"
 742              		.file 9 "Generated_Source\\PSoC5/core_cm3.h"
 743              		.file 10 "..\\..\\mruby_c2\\Design01.cydsn\\static.h"
 744              		.file 11 "..\\..\\mruby_c2\\Design01.cydsn\\alloc.h"
 745              		.file 12 "Generated_Source\\PSoC5/isr_UART_1_Tx.h"
 746              		.file 13 "Generated_Source\\PSoC5/isr_UART_1_Rx.h"
 747              		.file 14 "..\\..\\mruby_c2\\Design01.cydsn\\class.h"
 748              		.section	.debug_info,"",%progbits
 749              	.Ldebug_info0:
 750 0000 E10F0000 		.4byte	0xfe1
 751 0004 0400     		.2byte	0x4
 752 0006 00000000 		.4byte	.Ldebug_abbrev0
 753 000a 04       		.byte	0x4
 754 000b 01       		.uleb128 0x1
 755 000c 67020000 		.4byte	.LASF157
 756 0010 0C       		.byte	0xc
 757 0011 82010000 		.4byte	.LASF158
 758 0015 46060000 		.4byte	.LASF159
 759 0019 00000000 		.4byte	.Ldebug_ranges0+0
 760 001d 00000000 		.4byte	0
 761 0021 00000000 		.4byte	.Ldebug_line0
 762 0025 02       		.uleb128 0x2
 763 0026 D1040000 		.4byte	.LASF0
 764 002a 04       		.byte	0x4
 765 002b 1B       		.byte	0x1b
 766 002c 30000000 		.4byte	0x30
 767 0030 03       		.uleb128 0x3
 768 0031 01       		.byte	0x1
 769 0032 06       		.byte	0x6
 770 0033 F9060000 		.4byte	.LASF2
ARM GAS  C:\Users\164\AppData\Local\Temp\ccELK2nm.s 			page 25


 771 0037 02       		.uleb128 0x2
 772 0038 8C050000 		.4byte	.LASF1
 773 003c 04       		.byte	0x4
 774 003d 1D       		.byte	0x1d
 775 003e 42000000 		.4byte	0x42
 776 0042 03       		.uleb128 0x3
 777 0043 01       		.byte	0x1
 778 0044 08       		.byte	0x8
 779 0045 2C060000 		.4byte	.LASF3
 780 0049 02       		.uleb128 0x2
 781 004a 52040000 		.4byte	.LASF4
 782 004e 04       		.byte	0x4
 783 004f 29       		.byte	0x29
 784 0050 54000000 		.4byte	0x54
 785 0054 03       		.uleb128 0x3
 786 0055 02       		.byte	0x2
 787 0056 05       		.byte	0x5
 788 0057 31050000 		.4byte	.LASF5
 789 005b 02       		.uleb128 0x2
 790 005c E9010000 		.4byte	.LASF6
 791 0060 04       		.byte	0x4
 792 0061 2B       		.byte	0x2b
 793 0062 66000000 		.4byte	0x66
 794 0066 03       		.uleb128 0x3
 795 0067 02       		.byte	0x2
 796 0068 07       		.byte	0x7
 797 0069 05070000 		.4byte	.LASF7
 798 006d 02       		.uleb128 0x2
 799 006e 99000000 		.4byte	.LASF8
 800 0072 04       		.byte	0x4
 801 0073 3F       		.byte	0x3f
 802 0074 78000000 		.4byte	0x78
 803 0078 03       		.uleb128 0x3
 804 0079 04       		.byte	0x4
 805 007a 05       		.byte	0x5
 806 007b 5C050000 		.4byte	.LASF9
 807 007f 03       		.uleb128 0x3
 808 0080 04       		.byte	0x4
 809 0081 07       		.byte	0x7
 810 0082 CC050000 		.4byte	.LASF10
 811 0086 03       		.uleb128 0x3
 812 0087 08       		.byte	0x8
 813 0088 05       		.byte	0x5
 814 0089 2A040000 		.4byte	.LASF11
 815 008d 03       		.uleb128 0x3
 816 008e 08       		.byte	0x8
 817 008f 07       		.byte	0x7
 818 0090 A9010000 		.4byte	.LASF12
 819 0094 04       		.uleb128 0x4
 820 0095 04       		.byte	0x4
 821 0096 05       		.byte	0x5
 822 0097 696E7400 		.ascii	"int\000"
 823 009b 03       		.uleb128 0x3
 824 009c 04       		.byte	0x4
 825 009d 07       		.byte	0x7
 826 009e 71000000 		.4byte	.LASF13
 827 00a2 02       		.uleb128 0x2
ARM GAS  C:\Users\164\AppData\Local\Temp\ccELK2nm.s 			page 26


 828 00a3 2F010000 		.4byte	.LASF14
 829 00a7 05       		.byte	0x5
 830 00a8 14       		.byte	0x14
 831 00a9 25000000 		.4byte	0x25
 832 00ad 02       		.uleb128 0x2
 833 00ae EE030000 		.4byte	.LASF15
 834 00b2 05       		.byte	0x5
 835 00b3 18       		.byte	0x18
 836 00b4 37000000 		.4byte	0x37
 837 00b8 02       		.uleb128 0x2
 838 00b9 6C010000 		.4byte	.LASF16
 839 00bd 05       		.byte	0x5
 840 00be 20       		.byte	0x20
 841 00bf 49000000 		.4byte	0x49
 842 00c3 02       		.uleb128 0x2
 843 00c4 13050000 		.4byte	.LASF17
 844 00c8 05       		.byte	0x5
 845 00c9 24       		.byte	0x24
 846 00ca 5B000000 		.4byte	0x5b
 847 00ce 02       		.uleb128 0x2
 848 00cf E8050000 		.4byte	.LASF18
 849 00d3 05       		.byte	0x5
 850 00d4 2C       		.byte	0x2c
 851 00d5 6D000000 		.4byte	0x6d
 852 00d9 05       		.uleb128 0x5
 853 00da 3D070000 		.4byte	.LASF19
 854 00de 06       		.byte	0x6
 855 00df E401     		.2byte	0x1e4
 856 00e1 42000000 		.4byte	0x42
 857 00e5 03       		.uleb128 0x3
 858 00e6 04       		.byte	0x4
 859 00e7 04       		.byte	0x4
 860 00e8 48010000 		.4byte	.LASF20
 861 00ec 03       		.uleb128 0x3
 862 00ed 08       		.byte	0x8
 863 00ee 04       		.byte	0x4
 864 00ef 43070000 		.4byte	.LASF21
 865 00f3 03       		.uleb128 0x3
 866 00f4 01       		.byte	0x1
 867 00f5 08       		.byte	0x8
 868 00f6 AC030000 		.4byte	.LASF22
 869 00fa 06       		.uleb128 0x6
 870 00fb 04       		.byte	0x4
 871 00fc 00010000 		.4byte	0x100
 872 0100 07       		.uleb128 0x7
 873 0101 03       		.uleb128 0x3
 874 0102 08       		.byte	0x8
 875 0103 04       		.byte	0x4
 876 0104 07050000 		.4byte	.LASF23
 877 0108 03       		.uleb128 0x3
 878 0109 04       		.byte	0x4
 879 010a 07       		.byte	0x7
 880 010b C3050000 		.4byte	.LASF24
 881 010f 06       		.uleb128 0x6
 882 0110 04       		.byte	0x4
 883 0111 F3000000 		.4byte	0xf3
 884 0115 06       		.uleb128 0x6
ARM GAS  C:\Users\164\AppData\Local\Temp\ccELK2nm.s 			page 27


 885 0116 04       		.byte	0x4
 886 0117 1B010000 		.4byte	0x11b
 887 011b 08       		.uleb128 0x8
 888 011c F3000000 		.4byte	0xf3
 889 0120 09       		.uleb128 0x9
 890 0121 C3000000 		.4byte	0xc3
 891 0125 02       		.uleb128 0x2
 892 0126 1C050000 		.4byte	.LASF25
 893 012a 03       		.byte	0x3
 894 012b 1C       		.byte	0x1c
 895 012c B8000000 		.4byte	0xb8
 896 0130 02       		.uleb128 0x2
 897 0131 27030000 		.4byte	.LASF26
 898 0135 03       		.byte	0x3
 899 0136 2C       		.byte	0x2c
 900 0137 3B010000 		.4byte	0x13b
 901 013b 06       		.uleb128 0x6
 902 013c 04       		.byte	0x4
 903 013d 41010000 		.4byte	0x141
 904 0141 0A       		.uleb128 0xa
 905 0142 56010000 		.4byte	0x156
 906 0146 0B       		.uleb128 0xb
 907 0147 56010000 		.4byte	0x156
 908 014b 0B       		.uleb128 0xb
 909 014c 0B020000 		.4byte	0x20b
 910 0150 0B       		.uleb128 0xb
 911 0151 94000000 		.4byte	0x94
 912 0155 00       		.byte	0
 913 0156 06       		.uleb128 0x6
 914 0157 04       		.byte	0x4
 915 0158 5C010000 		.4byte	0x15c
 916 015c 0C       		.uleb128 0xc
 917 015d 564D00   		.ascii	"VM\000"
 918 0160 400E     		.2byte	0xe40
 919 0162 07       		.byte	0x7
 920 0163 40       		.byte	0x40
 921 0164 0B020000 		.4byte	0x20b
 922 0168 0D       		.uleb128 0xd
 923 0169 A3000000 		.4byte	.LASF27
 924 016d 07       		.byte	0x7
 925 016e 41       		.byte	0x41
 926 016f AE050000 		.4byte	0x5ae
 927 0173 00       		.byte	0
 928 0174 0D       		.uleb128 0xd
 929 0175 01020000 		.4byte	.LASF28
 930 0179 07       		.byte	0x7
 931 017a 43       		.byte	0x43
 932 017b AD000000 		.4byte	0xad
 933 017f 04       		.byte	0x4
 934 0180 0E       		.uleb128 0xe
 935 0181 6D726200 		.ascii	"mrb\000"
 936 0185 07       		.byte	0x7
 937 0186 44       		.byte	0x44
 938 0187 CB050000 		.4byte	0x5cb
 939 018b 08       		.byte	0x8
 940 018c 0D       		.uleb128 0xd
 941 018d 5F020000 		.4byte	.LASF29
ARM GAS  C:\Users\164\AppData\Local\Temp\ccELK2nm.s 			page 28


 942 0191 07       		.byte	0x7
 943 0192 46       		.byte	0x46
 944 0193 AE050000 		.4byte	0x5ae
 945 0197 0C       		.byte	0xc
 946 0198 0E       		.uleb128 0xe
 947 0199 706300   		.ascii	"pc\000"
 948 019c 07       		.byte	0x7
 949 019d 47       		.byte	0x47
 950 019e C3000000 		.4byte	0xc3
 951 01a2 10       		.byte	0x10
 952 01a3 0D       		.uleb128 0xd
 953 01a4 FF000000 		.4byte	.LASF30
 954 01a8 07       		.byte	0x7
 955 01a9 4A       		.byte	0x4a
 956 01aa D6050000 		.4byte	0x5d6
 957 01ae 18       		.byte	0x18
 958 01af 0F       		.uleb128 0xf
 959 01b0 22010000 		.4byte	.LASF31
 960 01b4 07       		.byte	0x7
 961 01b5 4B       		.byte	0x4b
 962 01b6 B4050000 		.4byte	0x5b4
 963 01ba 5806     		.2byte	0x658
 964 01bc 0F       		.uleb128 0xf
 965 01bd 11040000 		.4byte	.LASF32
 966 01c1 07       		.byte	0x7
 967 01c2 4C       		.byte	0x4c
 968 01c3 C3000000 		.4byte	0xc3
 969 01c7 5C06     		.2byte	0x65c
 970 01c9 0F       		.uleb128 0xf
 971 01ca 07020000 		.4byte	.LASF33
 972 01ce 07       		.byte	0x7
 973 01cf 4D       		.byte	0x4d
 974 01d0 E6050000 		.4byte	0x5e6
 975 01d4 6006     		.2byte	0x660
 976 01d6 0F       		.uleb128 0xf
 977 01d7 F6030000 		.4byte	.LASF34
 978 01db 07       		.byte	0x7
 979 01dc 4F       		.byte	0x4f
 980 01dd BA050000 		.4byte	0x5ba
 981 01e1 300E     		.2byte	0xe30
 982 01e3 0F       		.uleb128 0xf
 983 01e4 B4060000 		.4byte	.LASF35
 984 01e8 07       		.byte	0x7
 985 01e9 51       		.byte	0x51
 986 01ea CE000000 		.4byte	0xce
 987 01ee 340E     		.2byte	0xe34
 988 01f0 0F       		.uleb128 0xf
 989 01f1 C6060000 		.4byte	.LASF36
 990 01f5 07       		.byte	0x7
 991 01f6 53       		.byte	0x53
 992 01f7 F6050000 		.4byte	0x5f6
 993 01fb 380E     		.2byte	0xe38
 994 01fd 0F       		.uleb128 0xf
 995 01fe 7D030000 		.4byte	.LASF37
 996 0202 07       		.byte	0x7
 997 0203 54       		.byte	0x54
 998 0204 A2000000 		.4byte	0xa2
ARM GAS  C:\Users\164\AppData\Local\Temp\ccELK2nm.s 			page 29


 999 0208 390E     		.2byte	0xe39
 1000 020a 00       		.byte	0
 1001 020b 06       		.uleb128 0x6
 1002 020c 04       		.byte	0x4
 1003 020d 11020000 		.4byte	0x211
 1004 0211 10       		.uleb128 0x10
 1005 0212 6A050000 		.4byte	.LASF38
 1006 0216 10       		.byte	0x10
 1007 0217 03       		.byte	0x3
 1008 0218 68       		.byte	0x68
 1009 0219 32020000 		.4byte	0x232
 1010 021d 11       		.uleb128 0x11
 1011 021e 747400   		.ascii	"tt\000"
 1012 0221 03       		.byte	0x3
 1013 0222 69       		.byte	0x69
 1014 0223 99020000 		.4byte	0x299
 1015 0227 01       		.byte	0x1
 1016 0228 08       		.byte	0x8
 1017 0229 00       		.byte	0
 1018 022a 00       		.byte	0
 1019 022b 12       		.uleb128 0x12
 1020 022c A4020000 		.4byte	0x2a4
 1021 0230 08       		.byte	0x8
 1022 0231 00       		.byte	0
 1023 0232 13       		.uleb128 0x13
 1024 0233 01       		.byte	0x1
 1025 0234 30000000 		.4byte	0x30
 1026 0238 03       		.byte	0x3
 1027 0239 33       		.byte	0x33
 1028 023a 99020000 		.4byte	0x299
 1029 023e 14       		.uleb128 0x14
 1030 023f 63070000 		.4byte	.LASF39
 1031 0243 7F       		.sleb128 -1
 1032 0244 15       		.uleb128 0x15
 1033 0245 8F040000 		.4byte	.LASF40
 1034 0249 00       		.byte	0
 1035 024a 15       		.uleb128 0x15
 1036 024b 11010000 		.4byte	.LASF41
 1037 024f 01       		.byte	0x1
 1038 0250 15       		.uleb128 0x15
 1039 0251 EC040000 		.4byte	.LASF42
 1040 0255 02       		.byte	0x2
 1041 0256 15       		.uleb128 0x15
 1042 0257 DA040000 		.4byte	.LASF43
 1043 025b 03       		.byte	0x3
 1044 025c 15       		.uleb128 0x15
 1045 025d 74010000 		.4byte	.LASF44
 1046 0261 04       		.byte	0x4
 1047 0262 15       		.uleb128 0x15
 1048 0263 7E070000 		.4byte	.LASF45
 1049 0267 05       		.byte	0x5
 1050 0268 15       		.uleb128 0x15
 1051 0269 41000000 		.4byte	.LASF46
 1052 026d 06       		.byte	0x6
 1053 026e 15       		.uleb128 0x15
 1054 026f 24050000 		.4byte	.LASF47
 1055 0273 07       		.byte	0x7
ARM GAS  C:\Users\164\AppData\Local\Temp\ccELK2nm.s 			page 30


 1056 0274 15       		.uleb128 0x15
 1057 0275 48020000 		.4byte	.LASF48
 1058 0279 14       		.byte	0x14
 1059 027a 15       		.uleb128 0x15
 1060 027b ED060000 		.4byte	.LASF49
 1061 027f 15       		.byte	0x15
 1062 0280 15       		.uleb128 0x15
 1063 0281 67030000 		.4byte	.LASF50
 1064 0285 16       		.byte	0x16
 1065 0286 15       		.uleb128 0x15
 1066 0287 3F030000 		.4byte	.LASF51
 1067 028b 17       		.byte	0x17
 1068 028c 15       		.uleb128 0x15
 1069 028d DC030000 		.4byte	.LASF52
 1070 0291 18       		.byte	0x18
 1071 0292 15       		.uleb128 0x15
 1072 0293 FA050000 		.4byte	.LASF53
 1073 0297 19       		.byte	0x19
 1074 0298 00       		.byte	0
 1075 0299 02       		.uleb128 0x2
 1076 029a 8F000000 		.4byte	.LASF54
 1077 029e 03       		.byte	0x3
 1078 029f 49       		.byte	0x49
 1079 02a0 32020000 		.4byte	0x232
 1080 02a4 16       		.uleb128 0x16
 1081 02a5 08       		.byte	0x8
 1082 02a6 03       		.byte	0x3
 1083 02a7 6A       		.byte	0x6a
 1084 02a8 22030000 		.4byte	0x322
 1085 02ac 17       		.uleb128 0x17
 1086 02ad 6900     		.ascii	"i\000"
 1087 02af 03       		.byte	0x3
 1088 02b0 6B       		.byte	0x6b
 1089 02b1 CE000000 		.4byte	0xce
 1090 02b5 17       		.uleb128 0x17
 1091 02b6 6400     		.ascii	"d\000"
 1092 02b8 03       		.byte	0x3
 1093 02b9 6D       		.byte	0x6d
 1094 02ba EC000000 		.4byte	0xec
 1095 02be 17       		.uleb128 0x17
 1096 02bf 636C7300 		.ascii	"cls\000"
 1097 02c3 03       		.byte	0x3
 1098 02c4 6F       		.byte	0x6f
 1099 02c5 53030000 		.4byte	0x353
 1100 02c9 18       		.uleb128 0x18
 1101 02ca 18070000 		.4byte	.LASF55
 1102 02ce 03       		.byte	0x3
 1103 02cf 70       		.byte	0x70
 1104 02d0 0B020000 		.4byte	0x20b
 1105 02d4 18       		.uleb128 0x18
 1106 02d5 56020000 		.4byte	.LASF56
 1107 02d9 03       		.byte	0x3
 1108 02da 71       		.byte	0x71
 1109 02db A4030000 		.4byte	0x3a4
 1110 02df 18       		.uleb128 0x18
 1111 02e0 BE050000 		.4byte	.LASF57
 1112 02e4 03       		.byte	0x3
ARM GAS  C:\Users\164\AppData\Local\Temp\ccELK2nm.s 			page 31


 1113 02e5 72       		.byte	0x72
 1114 02e6 FE030000 		.4byte	0x3fe
 1115 02ea 18       		.uleb128 0x18
 1116 02eb E6040000 		.4byte	.LASF58
 1117 02ef 03       		.byte	0x3
 1118 02f0 73       		.byte	0x73
 1119 02f1 09040000 		.4byte	0x409
 1120 02f5 18       		.uleb128 0x18
 1121 02f6 D5030000 		.4byte	.LASF59
 1122 02fa 03       		.byte	0x3
 1123 02fb 74       		.byte	0x74
 1124 02fc 4E040000 		.4byte	0x44e
 1125 0300 17       		.uleb128 0x17
 1126 0301 73747200 		.ascii	"str\000"
 1127 0305 03       		.byte	0x3
 1128 0306 75       		.byte	0x75
 1129 0307 15010000 		.4byte	0x115
 1130 030b 18       		.uleb128 0x18
 1131 030c 9C040000 		.4byte	.LASF60
 1132 0310 03       		.byte	0x3
 1133 0311 76       		.byte	0x76
 1134 0312 59040000 		.4byte	0x459
 1135 0316 18       		.uleb128 0x18
 1136 0317 65050000 		.4byte	.LASF61
 1137 031b 03       		.byte	0x3
 1138 031c 77       		.byte	0x77
 1139 031d 64040000 		.4byte	0x464
 1140 0321 00       		.byte	0
 1141 0322 10       		.uleb128 0x10
 1142 0323 41010000 		.4byte	.LASF62
 1143 0327 0C       		.byte	0xc
 1144 0328 03       		.byte	0x3
 1145 0329 81       		.byte	0x81
 1146 032a 53030000 		.4byte	0x353
 1147 032e 0D       		.uleb128 0xd
 1148 032f 38040000 		.4byte	.LASF63
 1149 0333 03       		.byte	0x3
 1150 0334 82       		.byte	0x82
 1151 0335 25010000 		.4byte	0x125
 1152 0339 00       		.byte	0
 1153 033a 0D       		.uleb128 0xd
 1154 033b CF030000 		.4byte	.LASF64
 1155 033f 03       		.byte	0x3
 1156 0340 86       		.byte	0x86
 1157 0341 53030000 		.4byte	0x353
 1158 0345 04       		.byte	0x4
 1159 0346 0D       		.uleb128 0xd
 1160 0347 0A030000 		.4byte	.LASF65
 1161 034b 03       		.byte	0x3
 1162 034c 87       		.byte	0x87
 1163 034d FE030000 		.4byte	0x3fe
 1164 0351 08       		.byte	0x8
 1165 0352 00       		.byte	0
 1166 0353 06       		.uleb128 0x6
 1167 0354 04       		.byte	0x4
 1168 0355 22030000 		.4byte	0x322
 1169 0359 10       		.uleb128 0x10
ARM GAS  C:\Users\164\AppData\Local\Temp\ccELK2nm.s 			page 32


 1170 035a A2040000 		.4byte	.LASF66
 1171 035e 0C       		.byte	0xc
 1172 035f 03       		.byte	0x3
 1173 0360 8F       		.byte	0x8f
 1174 0361 A4030000 		.4byte	0x3a4
 1175 0365 0D       		.uleb128 0xd
 1176 0366 55000000 		.4byte	.LASF67
 1177 036a 03       		.byte	0x3
 1178 036b 90       		.byte	0x90
 1179 036c C3000000 		.4byte	0xc3
 1180 0370 00       		.byte	0
 1181 0371 11       		.uleb128 0x11
 1182 0372 747400   		.ascii	"tt\000"
 1183 0375 03       		.byte	0x3
 1184 0376 90       		.byte	0x90
 1185 0377 99020000 		.4byte	0x299
 1186 037b 01       		.byte	0x1
 1187 037c 08       		.byte	0x8
 1188 037d 00       		.byte	0
 1189 037e 02       		.byte	0x2
 1190 037f 0E       		.uleb128 0xe
 1191 0380 636C7300 		.ascii	"cls\000"
 1192 0384 03       		.byte	0x3
 1193 0385 92       		.byte	0x92
 1194 0386 53030000 		.4byte	0x353
 1195 038a 04       		.byte	0x4
 1196 038b 0D       		.uleb128 0xd
 1197 038c CA030000 		.4byte	.LASF68
 1198 0390 03       		.byte	0x3
 1199 0391 93       		.byte	0x93
 1200 0392 90040000 		.4byte	0x490
 1201 0396 08       		.byte	0x8
 1202 0397 0D       		.uleb128 0xd
 1203 0398 E9030000 		.4byte	.LASF69
 1204 039c 03       		.byte	0x3
 1205 039d 94       		.byte	0x94
 1206 039e 96040000 		.4byte	0x496
 1207 03a2 0C       		.byte	0xc
 1208 03a3 00       		.byte	0
 1209 03a4 06       		.uleb128 0x6
 1210 03a5 04       		.byte	0x4
 1211 03a6 59030000 		.4byte	0x359
 1212 03aa 10       		.uleb128 0x10
 1213 03ab EF000000 		.4byte	.LASF70
 1214 03af 10       		.byte	0x10
 1215 03b0 03       		.byte	0x3
 1216 03b1 9C       		.byte	0x9c
 1217 03b2 FE030000 		.4byte	0x3fe
 1218 03b6 0D       		.uleb128 0xd
 1219 03b7 55000000 		.4byte	.LASF67
 1220 03bb 03       		.byte	0x3
 1221 03bc 9D       		.byte	0x9d
 1222 03bd C3000000 		.4byte	0xc3
 1223 03c1 00       		.byte	0
 1224 03c2 11       		.uleb128 0x11
 1225 03c3 747400   		.ascii	"tt\000"
 1226 03c6 03       		.byte	0x3
ARM GAS  C:\Users\164\AppData\Local\Temp\ccELK2nm.s 			page 33


 1227 03c7 9D       		.byte	0x9d
 1228 03c8 99020000 		.4byte	0x299
 1229 03cc 01       		.byte	0x1
 1230 03cd 08       		.byte	0x8
 1231 03ce 00       		.byte	0
 1232 03cf 02       		.byte	0x2
 1233 03d0 19       		.uleb128 0x19
 1234 03d1 BF060000 		.4byte	.LASF71
 1235 03d5 03       		.byte	0x3
 1236 03d6 9F       		.byte	0x9f
 1237 03d7 9B000000 		.4byte	0x9b
 1238 03db 04       		.byte	0x4
 1239 03dc 01       		.byte	0x1
 1240 03dd 07       		.byte	0x7
 1241 03de 00       		.byte	0
 1242 03df 0D       		.uleb128 0xd
 1243 03e0 38040000 		.4byte	.LASF63
 1244 03e4 03       		.byte	0x3
 1245 03e5 A0       		.byte	0xa0
 1246 03e6 25010000 		.4byte	0x125
 1247 03ea 04       		.byte	0x4
 1248 03eb 0D       		.uleb128 0xd
 1249 03ec 7E000000 		.4byte	.LASF72
 1250 03f0 03       		.byte	0x3
 1251 03f1 A4       		.byte	0xa4
 1252 03f2 FE030000 		.4byte	0x3fe
 1253 03f6 08       		.byte	0x8
 1254 03f7 12       		.uleb128 0x12
 1255 03f8 A5040000 		.4byte	0x4a5
 1256 03fc 0C       		.byte	0xc
 1257 03fd 00       		.byte	0
 1258 03fe 06       		.uleb128 0x6
 1259 03ff 04       		.byte	0x4
 1260 0400 AA030000 		.4byte	0x3aa
 1261 0404 1A       		.uleb128 0x1a
 1262 0405 2C070000 		.4byte	.LASF75
 1263 0409 06       		.uleb128 0x6
 1264 040a 04       		.byte	0x4
 1265 040b 04040000 		.4byte	0x404
 1266 040f 10       		.uleb128 0x10
 1267 0410 B6050000 		.4byte	.LASF73
 1268 0414 0C       		.byte	0xc
 1269 0415 02       		.byte	0x2
 1270 0416 1D       		.byte	0x1d
 1271 0417 4E040000 		.4byte	0x44e
 1272 041b 0D       		.uleb128 0xd
 1273 041c 55000000 		.4byte	.LASF67
 1274 0420 02       		.byte	0x2
 1275 0421 1E       		.byte	0x1e
 1276 0422 C3000000 		.4byte	0xc3
 1277 0426 00       		.byte	0
 1278 0427 11       		.uleb128 0x11
 1279 0428 747400   		.ascii	"tt\000"
 1280 042b 02       		.byte	0x2
 1281 042c 1E       		.byte	0x1e
 1282 042d 99020000 		.4byte	0x299
 1283 0431 01       		.byte	0x1
ARM GAS  C:\Users\164\AppData\Local\Temp\ccELK2nm.s 			page 34


 1284 0432 08       		.byte	0x8
 1285 0433 00       		.byte	0
 1286 0434 02       		.byte	0x2
 1287 0435 0D       		.uleb128 0xd
 1288 0436 8A040000 		.4byte	.LASF74
 1289 043a 02       		.byte	0x2
 1290 043b 20       		.byte	0x20
 1291 043c C3000000 		.4byte	0xc3
 1292 0440 04       		.byte	0x4
 1293 0441 0D       		.uleb128 0xd
 1294 0442 E9030000 		.4byte	.LASF69
 1295 0446 02       		.byte	0x2
 1296 0447 21       		.byte	0x21
 1297 0448 43050000 		.4byte	0x543
 1298 044c 08       		.byte	0x8
 1299 044d 00       		.byte	0
 1300 044e 06       		.uleb128 0x6
 1301 044f 04       		.byte	0x4
 1302 0450 0F040000 		.4byte	0x40f
 1303 0454 1A       		.uleb128 0x1a
 1304 0455 77070000 		.4byte	.LASF76
 1305 0459 06       		.uleb128 0x6
 1306 045a 04       		.byte	0x4
 1307 045b 54040000 		.4byte	0x454
 1308 045f 1A       		.uleb128 0x1a
 1309 0460 4F000000 		.4byte	.LASF77
 1310 0464 06       		.uleb128 0x6
 1311 0465 04       		.byte	0x4
 1312 0466 5F040000 		.4byte	0x45f
 1313 046a 02       		.uleb128 0x2
 1314 046b CD010000 		.4byte	.LASF78
 1315 046f 03       		.byte	0x3
 1316 0470 79       		.byte	0x79
 1317 0471 11020000 		.4byte	0x211
 1318 0475 02       		.uleb128 0x2
 1319 0476 F5020000 		.4byte	.LASF79
 1320 047a 03       		.byte	0x3
 1321 047b 7A       		.byte	0x7a
 1322 047c 11020000 		.4byte	0x211
 1323 0480 02       		.uleb128 0x2
 1324 0481 DE050000 		.4byte	.LASF80
 1325 0485 03       		.byte	0x3
 1326 0486 88       		.byte	0x88
 1327 0487 22030000 		.4byte	0x322
 1328 048b 1A       		.uleb128 0x1a
 1329 048c B3000000 		.4byte	.LASF81
 1330 0490 06       		.uleb128 0x6
 1331 0491 04       		.byte	0x4
 1332 0492 8B040000 		.4byte	0x48b
 1333 0496 1B       		.uleb128 0x1b
 1334 0497 AD000000 		.4byte	0xad
 1335 049b A5040000 		.4byte	0x4a5
 1336 049f 1C       		.uleb128 0x1c
 1337 04a0 08010000 		.4byte	0x108
 1338 04a4 00       		.byte	0
 1339 04a5 16       		.uleb128 0x16
 1340 04a6 04       		.byte	0x4
ARM GAS  C:\Users\164\AppData\Local\Temp\ccELK2nm.s 			page 35


 1341 04a7 03       		.byte	0x3
 1342 04a8 A5       		.byte	0xa5
 1343 04a9 C4040000 		.4byte	0x4c4
 1344 04ad 18       		.uleb128 0x18
 1345 04ae A3000000 		.4byte	.LASF27
 1346 04b2 03       		.byte	0x3
 1347 04b3 A6       		.byte	0xa6
 1348 04b4 3D050000 		.4byte	0x53d
 1349 04b8 18       		.uleb128 0x18
 1350 04b9 F5000000 		.4byte	.LASF82
 1351 04bd 03       		.byte	0x3
 1352 04be A7       		.byte	0xa7
 1353 04bf 30010000 		.4byte	0x130
 1354 04c3 00       		.byte	0
 1355 04c4 10       		.uleb128 0x10
 1356 04c5 F5050000 		.4byte	.LASF83
 1357 04c9 1C       		.byte	0x1c
 1358 04ca 07       		.byte	0x7
 1359 04cb 20       		.byte	0x20
 1360 04cc 3D050000 		.4byte	0x53d
 1361 04d0 0D       		.uleb128 0xd
 1362 04d1 10020000 		.4byte	.LASF84
 1363 04d5 07       		.byte	0x7
 1364 04d6 21       		.byte	0x21
 1365 04d7 C3000000 		.4byte	0xc3
 1366 04db 00       		.byte	0
 1367 04dc 0D       		.uleb128 0xd
 1368 04dd FF020000 		.4byte	.LASF85
 1369 04e1 07       		.byte	0x7
 1370 04e2 22       		.byte	0x22
 1371 04e3 C3000000 		.4byte	0xc3
 1372 04e7 02       		.byte	0x2
 1373 04e8 0D       		.uleb128 0xd
 1374 04e9 F0050000 		.4byte	.LASF86
 1375 04ed 07       		.byte	0x7
 1376 04ee 23       		.byte	0x23
 1377 04ef C3000000 		.4byte	0xc3
 1378 04f3 04       		.byte	0x4
 1379 04f4 0D       		.uleb128 0xd
 1380 04f5 87050000 		.4byte	.LASF87
 1381 04f9 07       		.byte	0x7
 1382 04fa 24       		.byte	0x24
 1383 04fb C3000000 		.4byte	0xc3
 1384 04ff 06       		.byte	0x6
 1385 0500 0D       		.uleb128 0xd
 1386 0501 9B050000 		.4byte	.LASF88
 1387 0505 07       		.byte	0x7
 1388 0506 25       		.byte	0x25
 1389 0507 C3000000 		.4byte	0xc3
 1390 050b 08       		.byte	0x8
 1391 050c 0D       		.uleb128 0xd
 1392 050d 4D030000 		.4byte	.LASF89
 1393 0511 07       		.byte	0x7
 1394 0512 27       		.byte	0x27
 1395 0513 43050000 		.4byte	0x543
 1396 0517 0C       		.byte	0xc
 1397 0518 0D       		.uleb128 0xd
ARM GAS  C:\Users\164\AppData\Local\Temp\ccELK2nm.s 			page 36


 1398 0519 1C010000 		.4byte	.LASF90
 1399 051d 07       		.byte	0x7
 1400 051e 28       		.byte	0x28
 1401 051f 49050000 		.4byte	0x549
 1402 0523 10       		.byte	0x10
 1403 0524 0D       		.uleb128 0xd
 1404 0525 8F030000 		.4byte	.LASF91
 1405 0529 07       		.byte	0x7
 1406 052a 29       		.byte	0x29
 1407 052b 43050000 		.4byte	0x543
 1408 052f 14       		.byte	0x14
 1409 0530 0D       		.uleb128 0xd
 1410 0531 96050000 		.4byte	.LASF92
 1411 0535 07       		.byte	0x7
 1412 0536 2A       		.byte	0x2a
 1413 0537 55050000 		.4byte	0x555
 1414 053b 18       		.byte	0x18
 1415 053c 00       		.byte	0
 1416 053d 06       		.uleb128 0x6
 1417 053e 04       		.byte	0x4
 1418 053f C4040000 		.4byte	0x4c4
 1419 0543 06       		.uleb128 0x6
 1420 0544 04       		.byte	0x4
 1421 0545 AD000000 		.4byte	0xad
 1422 0549 06       		.uleb128 0x6
 1423 054a 04       		.byte	0x4
 1424 054b 4F050000 		.4byte	0x54f
 1425 054f 06       		.uleb128 0x6
 1426 0550 04       		.byte	0x4
 1427 0551 6A040000 		.4byte	0x46a
 1428 0555 06       		.uleb128 0x6
 1429 0556 04       		.byte	0x4
 1430 0557 3D050000 		.4byte	0x53d
 1431 055b 02       		.uleb128 0x2
 1432 055c 74030000 		.4byte	.LASF93
 1433 0560 07       		.byte	0x7
 1434 0561 2C       		.byte	0x2c
 1435 0562 C4040000 		.4byte	0x4c4
 1436 0566 10       		.uleb128 0x10
 1437 0567 1E030000 		.4byte	.LASF94
 1438 056b 14       		.byte	0x14
 1439 056c 07       		.byte	0x7
 1440 056d 33       		.byte	0x33
 1441 056e AE050000 		.4byte	0x5ae
 1442 0572 0D       		.uleb128 0xd
 1443 0573 5F020000 		.4byte	.LASF29
 1444 0577 07       		.byte	0x7
 1445 0578 34       		.byte	0x34
 1446 0579 AE050000 		.4byte	0x5ae
 1447 057d 00       		.byte	0
 1448 057e 0E       		.uleb128 0xe
 1449 057f 706300   		.ascii	"pc\000"
 1450 0582 07       		.byte	0x7
 1451 0583 35       		.byte	0x35
 1452 0584 C3000000 		.4byte	0xc3
 1453 0588 04       		.byte	0x4
 1454 0589 0D       		.uleb128 0xd
ARM GAS  C:\Users\164\AppData\Local\Temp\ccELK2nm.s 			page 37


 1455 058a 22010000 		.4byte	.LASF31
 1456 058e 07       		.byte	0x7
 1457 058f 36       		.byte	0x36
 1458 0590 B4050000 		.4byte	0x5b4
 1459 0594 08       		.byte	0x8
 1460 0595 0D       		.uleb128 0xd
 1461 0596 F6030000 		.4byte	.LASF34
 1462 059a 07       		.byte	0x7
 1463 059b 37       		.byte	0x37
 1464 059c BA050000 		.4byte	0x5ba
 1465 05a0 0C       		.byte	0xc
 1466 05a1 0D       		.uleb128 0xd
 1467 05a2 83000000 		.4byte	.LASF95
 1468 05a6 07       		.byte	0x7
 1469 05a7 38       		.byte	0x38
 1470 05a8 AD000000 		.4byte	0xad
 1471 05ac 10       		.byte	0x10
 1472 05ad 00       		.byte	0
 1473 05ae 06       		.uleb128 0x6
 1474 05af 04       		.byte	0x4
 1475 05b0 5B050000 		.4byte	0x55b
 1476 05b4 06       		.uleb128 0x6
 1477 05b5 04       		.byte	0x4
 1478 05b6 75040000 		.4byte	0x475
 1479 05ba 06       		.uleb128 0x6
 1480 05bb 04       		.byte	0x4
 1481 05bc 80040000 		.4byte	0x480
 1482 05c0 02       		.uleb128 0x2
 1483 05c1 1F070000 		.4byte	.LASF96
 1484 05c5 07       		.byte	0x7
 1485 05c6 39       		.byte	0x39
 1486 05c7 66050000 		.4byte	0x566
 1487 05cb 06       		.uleb128 0x6
 1488 05cc 04       		.byte	0x4
 1489 05cd D1050000 		.4byte	0x5d1
 1490 05d1 08       		.uleb128 0x8
 1491 05d2 AD000000 		.4byte	0xad
 1492 05d6 1B       		.uleb128 0x1b
 1493 05d7 75040000 		.4byte	0x475
 1494 05db E6050000 		.4byte	0x5e6
 1495 05df 1D       		.uleb128 0x1d
 1496 05e0 08010000 		.4byte	0x108
 1497 05e4 63       		.byte	0x63
 1498 05e5 00       		.byte	0
 1499 05e6 1B       		.uleb128 0x1b
 1500 05e7 C0050000 		.4byte	0x5c0
 1501 05eb F6050000 		.4byte	0x5f6
 1502 05ef 1D       		.uleb128 0x1d
 1503 05f0 08010000 		.4byte	0x108
 1504 05f4 63       		.byte	0x63
 1505 05f5 00       		.byte	0
 1506 05f6 09       		.uleb128 0x9
 1507 05f7 A2000000 		.4byte	0xa2
 1508 05fb 02       		.uleb128 0x2
 1509 05fc 3A060000 		.4byte	.LASF97
 1510 0600 07       		.byte	0x7
 1511 0601 55       		.byte	0x55
ARM GAS  C:\Users\164\AppData\Local\Temp\ccELK2nm.s 			page 38


 1512 0602 5C010000 		.4byte	0x15c
 1513 0606 10       		.uleb128 0x10
 1514 0607 BF040000 		.4byte	.LASF98
 1515 060b B4       		.byte	0xb4
 1516 060c 08       		.byte	0x8
 1517 060d 74       		.byte	0x74
 1518 060e F7060000 		.4byte	0x6f7
 1519 0612 0D       		.uleb128 0xd
 1520 0613 8A060000 		.4byte	.LASF99
 1521 0617 08       		.byte	0x8
 1522 0618 77       		.byte	0x77
 1523 0619 15010000 		.4byte	0x115
 1524 061d 00       		.byte	0
 1525 061e 0D       		.uleb128 0xd
 1526 061f 36010000 		.4byte	.LASF100
 1527 0623 08       		.byte	0x8
 1528 0624 78       		.byte	0x78
 1529 0625 C3000000 		.4byte	0xc3
 1530 0629 04       		.byte	0x4
 1531 062a 0D       		.uleb128 0xd
 1532 062b D6060000 		.4byte	.LASF101
 1533 062f 08       		.byte	0x8
 1534 0630 79       		.byte	0x79
 1535 0631 20010000 		.4byte	0x120
 1536 0635 06       		.byte	0x6
 1537 0636 0D       		.uleb128 0xd
 1538 0637 8B070000 		.4byte	.LASF102
 1539 063b 08       		.byte	0x8
 1540 063c 7A       		.byte	0x7a
 1541 063d F7060000 		.4byte	0x6f7
 1542 0641 08       		.byte	0x8
 1543 0642 0D       		.uleb128 0xd
 1544 0643 FA000000 		.4byte	.LASF103
 1545 0647 08       		.byte	0x8
 1546 0648 7B       		.byte	0x7b
 1547 0649 AD000000 		.4byte	0xad
 1548 064d 09       		.byte	0x9
 1549 064e 0D       		.uleb128 0xd
 1550 064f 6A040000 		.4byte	.LASF104
 1551 0653 08       		.byte	0x8
 1552 0654 7E       		.byte	0x7e
 1553 0655 B8000000 		.4byte	0xb8
 1554 0659 0A       		.byte	0xa
 1555 065a 0D       		.uleb128 0xd
 1556 065b CB040000 		.4byte	.LASF105
 1557 065f 08       		.byte	0x8
 1558 0660 7F       		.byte	0x7f
 1559 0661 20010000 		.4byte	0x120
 1560 0665 0C       		.byte	0xc
 1561 0666 0D       		.uleb128 0xd
 1562 0667 4A070000 		.4byte	.LASF106
 1563 066b 08       		.byte	0x8
 1564 066c 80       		.byte	0x80
 1565 066d 20010000 		.4byte	0x120
 1566 0671 0E       		.byte	0xe
 1567 0672 0D       		.uleb128 0xd
 1568 0673 50070000 		.4byte	.LASF107
ARM GAS  C:\Users\164\AppData\Local\Temp\ccELK2nm.s 			page 39


 1569 0677 08       		.byte	0x8
 1570 0678 81       		.byte	0x81
 1571 0679 0C070000 		.4byte	0x70c
 1572 067d 10       		.byte	0x10
 1573 067e 0D       		.uleb128 0xd
 1574 067f 1C060000 		.4byte	.LASF108
 1575 0683 08       		.byte	0x8
 1576 0684 84       		.byte	0x84
 1577 0685 AD000000 		.4byte	0xad
 1578 0689 90       		.byte	0x90
 1579 068a 0D       		.uleb128 0xd
 1580 068b DA000000 		.4byte	.LASF109
 1581 068f 08       		.byte	0x8
 1582 0690 85       		.byte	0x85
 1583 0691 AD000000 		.4byte	0xad
 1584 0695 91       		.byte	0x91
 1585 0696 0D       		.uleb128 0xd
 1586 0697 16000000 		.4byte	.LASF110
 1587 069b 08       		.byte	0x8
 1588 069c 88       		.byte	0x88
 1589 069d FA000000 		.4byte	0xfa
 1590 06a1 94       		.byte	0x94
 1591 06a2 0D       		.uleb128 0xd
 1592 06a3 41060000 		.4byte	.LASF111
 1593 06a7 08       		.byte	0x8
 1594 06a8 89       		.byte	0x89
 1595 06a9 FA000000 		.4byte	0xfa
 1596 06ad 98       		.byte	0x98
 1597 06ae 0D       		.uleb128 0xd
 1598 06af 18020000 		.4byte	.LASF112
 1599 06b3 08       		.byte	0x8
 1600 06b4 8A       		.byte	0x8a
 1601 06b5 FA000000 		.4byte	0xfa
 1602 06b9 9C       		.byte	0x9c
 1603 06ba 0D       		.uleb128 0xd
 1604 06bb 5C040000 		.4byte	.LASF113
 1605 06bf 08       		.byte	0x8
 1606 06c0 8B       		.byte	0x8b
 1607 06c1 FA000000 		.4byte	0xfa
 1608 06c5 A0       		.byte	0xa0
 1609 06c6 0D       		.uleb128 0xd
 1610 06c7 B1030000 		.4byte	.LASF114
 1611 06cb 08       		.byte	0x8
 1612 06cc 8C       		.byte	0x8c
 1613 06cd 16070000 		.4byte	0x716
 1614 06d1 A4       		.byte	0xa4
 1615 06d2 0D       		.uleb128 0xd
 1616 06d3 04010000 		.4byte	.LASF115
 1617 06d7 08       		.byte	0x8
 1618 06d8 8D       		.byte	0x8d
 1619 06d9 16070000 		.4byte	0x716
 1620 06dd A8       		.byte	0xa8
 1621 06de 0D       		.uleb128 0xd
 1622 06df AA050000 		.4byte	.LASF116
 1623 06e3 08       		.byte	0x8
 1624 06e4 8E       		.byte	0x8e
 1625 06e5 27070000 		.4byte	0x727
ARM GAS  C:\Users\164\AppData\Local\Temp\ccELK2nm.s 			page 40


 1626 06e9 AC       		.byte	0xac
 1627 06ea 0D       		.uleb128 0xd
 1628 06eb 92060000 		.4byte	.LASF117
 1629 06ef 08       		.byte	0x8
 1630 06f0 8F       		.byte	0x8f
 1631 06f1 16070000 		.4byte	0x716
 1632 06f5 B0       		.byte	0xb0
 1633 06f6 00       		.byte	0
 1634 06f7 09       		.uleb128 0x9
 1635 06f8 F3000000 		.4byte	0xf3
 1636 06fc 1B       		.uleb128 0x1b
 1637 06fd F7060000 		.4byte	0x6f7
 1638 0701 0C070000 		.4byte	0x70c
 1639 0705 1D       		.uleb128 0x1d
 1640 0706 08010000 		.4byte	0x108
 1641 070a 7F       		.byte	0x7f
 1642 070b 00       		.byte	0
 1643 070c 09       		.uleb128 0x9
 1644 070d FC060000 		.4byte	0x6fc
 1645 0711 1E       		.uleb128 0x1e
 1646 0712 AD000000 		.4byte	0xad
 1647 0716 06       		.uleb128 0x6
 1648 0717 04       		.byte	0x4
 1649 0718 11070000 		.4byte	0x711
 1650 071c 0A       		.uleb128 0xa
 1651 071d 27070000 		.4byte	0x727
 1652 0721 0B       		.uleb128 0xb
 1653 0722 AD000000 		.4byte	0xad
 1654 0726 00       		.byte	0
 1655 0727 06       		.uleb128 0x6
 1656 0728 04       		.byte	0x4
 1657 0729 1C070000 		.4byte	0x71c
 1658 072d 02       		.uleb128 0x2
 1659 072e BF040000 		.4byte	.LASF98
 1660 0732 08       		.byte	0x8
 1661 0733 90       		.byte	0x90
 1662 0734 06060000 		.4byte	0x606
 1663 0738 1F       		.uleb128 0x1f
 1664 0739 D8010000 		.4byte	.LASF118
 1665 073d 02       		.byte	0x2
 1666 073e 4F       		.byte	0x4f
 1667 073f 0F010000 		.4byte	0x10f
 1668 0743 03       		.byte	0x3
 1669 0744 52070000 		.4byte	0x752
 1670 0748 20       		.uleb128 0x20
 1671 0749 7600     		.ascii	"v\000"
 1672 074b 02       		.byte	0x2
 1673 074c 4F       		.byte	0x4f
 1674 074d 52070000 		.4byte	0x752
 1675 0751 00       		.byte	0
 1676 0752 06       		.uleb128 0x6
 1677 0753 04       		.byte	0x4
 1678 0754 58070000 		.4byte	0x758
 1679 0758 08       		.uleb128 0x8
 1680 0759 75040000 		.4byte	0x475
 1681 075d 1F       		.uleb128 0x1f
 1682 075e F9040000 		.4byte	.LASF119
ARM GAS  C:\Users\164\AppData\Local\Temp\ccELK2nm.s 			page 41


 1683 0762 03       		.byte	0x3
 1684 0763 F5       		.byte	0xf5
 1685 0764 75040000 		.4byte	0x475
 1686 0768 03       		.byte	0x3
 1687 0769 79070000 		.4byte	0x779
 1688 076d 21       		.uleb128 0x21
 1689 076e 71070000 		.4byte	.LASF160
 1690 0772 03       		.byte	0x3
 1691 0773 F7       		.byte	0xf7
 1692 0774 75040000 		.4byte	0x475
 1693 0778 00       		.byte	0
 1694 0779 1F       		.uleb128 0x1f
 1695 077a DC060000 		.4byte	.LASF120
 1696 077e 02       		.byte	0x2
 1697 077f 47       		.byte	0x47
 1698 0780 94000000 		.4byte	0x94
 1699 0784 03       		.byte	0x3
 1700 0785 95070000 		.4byte	0x795
 1701 0789 20       		.uleb128 0x20
 1702 078a 73747200 		.ascii	"str\000"
 1703 078e 02       		.byte	0x2
 1704 078f 47       		.byte	0x47
 1705 0790 52070000 		.4byte	0x752
 1706 0794 00       		.byte	0
 1707 0795 22       		.uleb128 0x22
 1708 0796 03040000 		.4byte	.LASF121
 1709 079a 01       		.byte	0x1
 1710 079b 3A       		.byte	0x3a
 1711 079c 00000000 		.4byte	.LFB73
 1712 07a0 10000000 		.4byte	.LFE73-.LFB73
 1713 07a4 01       		.uleb128 0x1
 1714 07a5 9C       		.byte	0x9c
 1715 07a6 BE070000 		.4byte	0x7be
 1716 07aa 23       		.uleb128 0x23
 1717 07ab 08000000 		.4byte	.LVL0
 1718 07af 080F0000 		.4byte	0xf08
 1719 07b3 24       		.uleb128 0x24
 1720 07b4 01       		.uleb128 0x1
 1721 07b5 50       		.byte	0x50
 1722 07b6 05       		.uleb128 0x5
 1723 07b7 03       		.byte	0x3
 1724 07b8 00000000 		.4byte	uh
 1725 07bc 00       		.byte	0
 1726 07bd 00       		.byte	0
 1727 07be 22       		.uleb128 0x22
 1728 07bf 10030000 		.4byte	.LASF122
 1729 07c3 01       		.byte	0x1
 1730 07c4 3A       		.byte	0x3a
 1731 07c5 00000000 		.4byte	.LFB74
 1732 07c9 10000000 		.4byte	.LFE74-.LFB74
 1733 07cd 01       		.uleb128 0x1
 1734 07ce 9C       		.byte	0x9c
 1735 07cf E7070000 		.4byte	0x7e7
 1736 07d3 23       		.uleb128 0x23
 1737 07d4 08000000 		.4byte	.LVL1
 1738 07d8 130F0000 		.4byte	0xf13
 1739 07dc 24       		.uleb128 0x24
ARM GAS  C:\Users\164\AppData\Local\Temp\ccELK2nm.s 			page 42


 1740 07dd 01       		.uleb128 0x1
 1741 07de 50       		.byte	0x50
 1742 07df 05       		.uleb128 0x5
 1743 07e0 03       		.byte	0x3
 1744 07e1 00000000 		.4byte	uh
 1745 07e5 00       		.byte	0
 1746 07e6 00       		.byte	0
 1747 07e7 25       		.uleb128 0x25
 1748 07e8 C3000000 		.4byte	.LASF124
 1749 07ec 01       		.byte	0x1
 1750 07ed BB       		.byte	0xbb
 1751 07ee 00000000 		.4byte	.LFB81
 1752 07f2 0C000000 		.4byte	.LFE81-.LFB81
 1753 07f6 01       		.uleb128 0x1
 1754 07f7 9C       		.byte	0x9c
 1755 07f8 3F080000 		.4byte	0x83f
 1756 07fc 26       		.uleb128 0x26
 1757 07fd 766D00   		.ascii	"vm\000"
 1758 0800 01       		.byte	0x1
 1759 0801 BB       		.byte	0xbb
 1760 0802 3F080000 		.4byte	0x83f
 1761 0806 00000000 		.4byte	.LLST0
 1762 080a 26       		.uleb128 0x26
 1763 080b 7600     		.ascii	"v\000"
 1764 080d 01       		.byte	0x1
 1765 080e BB       		.byte	0xbb
 1766 080f B4050000 		.4byte	0x5b4
 1767 0813 21000000 		.4byte	.LLST1
 1768 0817 27       		.uleb128 0x27
 1769 0818 8A000000 		.4byte	.LASF123
 1770 081c 01       		.byte	0x1
 1771 081d BB       		.byte	0xbb
 1772 081e 94000000 		.4byte	0x94
 1773 0822 42000000 		.4byte	.LLST2
 1774 0826 28       		.uleb128 0x28
 1775 0827 18070000 		.4byte	.LASF55
 1776 082b 01       		.byte	0x1
 1777 082c BD       		.byte	0xbd
 1778 082d 45080000 		.4byte	0x845
 1779 0831 63000000 		.4byte	.LLST3
 1780 0835 29       		.uleb128 0x29
 1781 0836 0A000000 		.4byte	.LVL5
 1782 083a 1E0F0000 		.4byte	0xf1e
 1783 083e 00       		.byte	0
 1784 083f 06       		.uleb128 0x6
 1785 0840 04       		.byte	0x4
 1786 0841 FB050000 		.4byte	0x5fb
 1787 0845 06       		.uleb128 0x6
 1788 0846 04       		.byte	0x4
 1789 0847 2D070000 		.4byte	0x72d
 1790 084b 25       		.uleb128 0x25
 1791 084c 45050000 		.4byte	.LASF125
 1792 0850 01       		.byte	0x1
 1793 0851 B1       		.byte	0xb1
 1794 0852 00000000 		.4byte	.LFB80
 1795 0856 0C000000 		.4byte	.LFE80-.LFB80
 1796 085a 01       		.uleb128 0x1
ARM GAS  C:\Users\164\AppData\Local\Temp\ccELK2nm.s 			page 43


 1797 085b 9C       		.byte	0x9c
 1798 085c A3080000 		.4byte	0x8a3
 1799 0860 26       		.uleb128 0x26
 1800 0861 766D00   		.ascii	"vm\000"
 1801 0864 01       		.byte	0x1
 1802 0865 B1       		.byte	0xb1
 1803 0866 3F080000 		.4byte	0x83f
 1804 086a 77000000 		.4byte	.LLST4
 1805 086e 26       		.uleb128 0x26
 1806 086f 7600     		.ascii	"v\000"
 1807 0871 01       		.byte	0x1
 1808 0872 B1       		.byte	0xb1
 1809 0873 B4050000 		.4byte	0x5b4
 1810 0877 98000000 		.4byte	.LLST5
 1811 087b 27       		.uleb128 0x27
 1812 087c 8A000000 		.4byte	.LASF123
 1813 0880 01       		.byte	0x1
 1814 0881 B1       		.byte	0xb1
 1815 0882 94000000 		.4byte	0x94
 1816 0886 B9000000 		.4byte	.LLST6
 1817 088a 28       		.uleb128 0x28
 1818 088b 18070000 		.4byte	.LASF55
 1819 088f 01       		.byte	0x1
 1820 0890 B3       		.byte	0xb3
 1821 0891 45080000 		.4byte	0x845
 1822 0895 DA000000 		.4byte	.LLST7
 1823 0899 29       		.uleb128 0x29
 1824 089a 0A000000 		.4byte	.LVL9
 1825 089e 290F0000 		.4byte	0xf29
 1826 08a2 00       		.byte	0
 1827 08a3 25       		.uleb128 0x25
 1828 08a4 BE030000 		.4byte	.LASF126
 1829 08a8 01       		.byte	0x1
 1830 08a9 9B       		.byte	0x9b
 1831 08aa 00000000 		.4byte	.LFB79
 1832 08ae 20000000 		.4byte	.LFE79-.LFB79
 1833 08b2 01       		.uleb128 0x1
 1834 08b3 9C       		.byte	0x9c
 1835 08b4 2F090000 		.4byte	0x92f
 1836 08b8 26       		.uleb128 0x26
 1837 08b9 766D00   		.ascii	"vm\000"
 1838 08bc 01       		.byte	0x1
 1839 08bd 9B       		.byte	0x9b
 1840 08be 3F080000 		.4byte	0x83f
 1841 08c2 EE000000 		.4byte	.LLST8
 1842 08c6 26       		.uleb128 0x26
 1843 08c7 7600     		.ascii	"v\000"
 1844 08c9 01       		.byte	0x1
 1845 08ca 9B       		.byte	0x9b
 1846 08cb B4050000 		.4byte	0x5b4
 1847 08cf 0F010000 		.4byte	.LLST9
 1848 08d3 27       		.uleb128 0x27
 1849 08d4 8A000000 		.4byte	.LASF123
 1850 08d8 01       		.byte	0x1
 1851 08d9 9B       		.byte	0x9b
 1852 08da 94000000 		.4byte	0x94
 1853 08de 30010000 		.4byte	.LLST10
ARM GAS  C:\Users\164\AppData\Local\Temp\ccELK2nm.s 			page 44


 1854 08e2 2A       		.uleb128 0x2a
 1855 08e3 7300     		.ascii	"s\000"
 1856 08e5 01       		.byte	0x1
 1857 08e6 9D       		.byte	0x9d
 1858 08e7 0F010000 		.4byte	0x10f
 1859 08eb 6A010000 		.4byte	.LLST11
 1860 08ef 2B       		.uleb128 0x2b
 1861 08f0 38070000 		.4byte	0x738
 1862 08f4 0A000000 		.4byte	.LBB16
 1863 08f8 04000000 		.4byte	.LBE16-.LBB16
 1864 08fc 01       		.byte	0x1
 1865 08fd A0       		.byte	0xa0
 1866 08fe 0C090000 		.4byte	0x90c
 1867 0902 2C       		.uleb128 0x2c
 1868 0903 48070000 		.4byte	0x748
 1869 0907 95010000 		.4byte	.LLST12
 1870 090b 00       		.byte	0
 1871 090c 2D       		.uleb128 0x2d
 1872 090d 14000000 		.4byte	.LBB18
 1873 0911 0C000000 		.4byte	.LBE18-.LBB18
 1874 0915 28       		.uleb128 0x28
 1875 0916 18070000 		.4byte	.LASF55
 1876 091a 01       		.byte	0x1
 1877 091b A8       		.byte	0xa8
 1878 091c 45080000 		.4byte	0x845
 1879 0920 AA010000 		.4byte	.LLST13
 1880 0924 29       		.uleb128 0x29
 1881 0925 1E000000 		.4byte	.LVL19
 1882 0929 340F0000 		.4byte	0xf34
 1883 092d 00       		.byte	0
 1884 092e 00       		.byte	0
 1885 092f 25       		.uleb128 0x25
 1886 0930 A8060000 		.4byte	.LASF127
 1887 0934 01       		.byte	0x1
 1888 0935 81       		.byte	0x81
 1889 0936 00000000 		.4byte	.LFB78
 1890 093a 88000000 		.4byte	.LFE78-.LFB78
 1891 093e 01       		.uleb128 0x1
 1892 093f 9C       		.byte	0x9c
 1893 0940 930A0000 		.4byte	0xa93
 1894 0944 26       		.uleb128 0x26
 1895 0945 766D00   		.ascii	"vm\000"
 1896 0948 01       		.byte	0x1
 1897 0949 81       		.byte	0x81
 1898 094a 3F080000 		.4byte	0x83f
 1899 094e BE010000 		.4byte	.LLST14
 1900 0952 26       		.uleb128 0x26
 1901 0953 7600     		.ascii	"v\000"
 1902 0955 01       		.byte	0x1
 1903 0956 81       		.byte	0x81
 1904 0957 B4050000 		.4byte	0x5b4
 1905 095b DC010000 		.4byte	.LLST15
 1906 095f 27       		.uleb128 0x27
 1907 0960 8A000000 		.4byte	.LASF123
 1908 0964 01       		.byte	0x1
 1909 0965 81       		.byte	0x81
 1910 0966 94000000 		.4byte	0x94
ARM GAS  C:\Users\164\AppData\Local\Temp\ccELK2nm.s 			page 45


 1911 096a FA010000 		.4byte	.LLST16
 1912 096e 2E       		.uleb128 0x2e
 1913 096f 72657400 		.ascii	"ret\000"
 1914 0973 01       		.byte	0x1
 1915 0974 83       		.byte	0x83
 1916 0975 75040000 		.4byte	0x475
 1917 0979 02       		.uleb128 0x2
 1918 097a 91       		.byte	0x91
 1919 097b 58       		.sleb128 -40
 1920 097c 28       		.uleb128 0x28
 1921 097d 18070000 		.4byte	.LASF55
 1922 0981 01       		.byte	0x1
 1923 0982 84       		.byte	0x84
 1924 0983 45080000 		.4byte	0x845
 1925 0987 1B020000 		.4byte	.LLST17
 1926 098b 2F       		.uleb128 0x2f
 1927 098c 05030000 		.4byte	.LASF131
 1928 0990 01       		.byte	0x1
 1929 0991 93       		.byte	0x93
 1930 0992 72000000 		.4byte	.L22
 1931 0996 2A       		.uleb128 0x2a
 1932 0997 6C656E00 		.ascii	"len\000"
 1933 099b 01       		.byte	0x1
 1934 099c 8B       		.byte	0x8b
 1935 099d 94000000 		.4byte	0x94
 1936 09a1 39020000 		.4byte	.LLST18
 1937 09a5 2A       		.uleb128 0x2a
 1938 09a6 62756600 		.ascii	"buf\000"
 1939 09aa 01       		.byte	0x1
 1940 09ab 8C       		.byte	0x8c
 1941 09ac 0F010000 		.4byte	0x10f
 1942 09b0 6D020000 		.4byte	.LLST19
 1943 09b4 2B       		.uleb128 0x2b
 1944 09b5 5D070000 		.4byte	0x75d
 1945 09b9 16000000 		.4byte	.LBB19
 1946 09bd 1C000000 		.4byte	.LBE19-.LBB19
 1947 09c1 01       		.byte	0x1
 1948 09c2 87       		.byte	0x87
 1949 09c3 DA090000 		.4byte	0x9da
 1950 09c7 2D       		.uleb128 0x2d
 1951 09c8 16000000 		.4byte	.LBB20
 1952 09cc 1C000000 		.4byte	.LBE20-.LBB20
 1953 09d0 30       		.uleb128 0x30
 1954 09d1 6D070000 		.4byte	0x76d
 1955 09d5 02       		.uleb128 0x2
 1956 09d6 91       		.byte	0x91
 1957 09d7 48       		.sleb128 -56
 1958 09d8 00       		.byte	0
 1959 09d9 00       		.byte	0
 1960 09da 31       		.uleb128 0x31
 1961 09db 14000000 		.4byte	.LVL23
 1962 09df 3F0F0000 		.4byte	0xf3f
 1963 09e3 EE090000 		.4byte	0x9ee
 1964 09e7 24       		.uleb128 0x24
 1965 09e8 01       		.uleb128 0x1
 1966 09e9 50       		.byte	0x50
 1967 09ea 02       		.uleb128 0x2
ARM GAS  C:\Users\164\AppData\Local\Temp\ccELK2nm.s 			page 46


 1968 09eb 75       		.byte	0x75
 1969 09ec 00       		.sleb128 0
 1970 09ed 00       		.byte	0
 1971 09ee 31       		.uleb128 0x31
 1972 09ef 38000000 		.4byte	.LVL26
 1973 09f3 4A0F0000 		.4byte	0xf4a
 1974 09f7 020A0000 		.4byte	0xa02
 1975 09fb 24       		.uleb128 0x24
 1976 09fc 01       		.uleb128 0x1
 1977 09fd 50       		.byte	0x50
 1978 09fe 02       		.uleb128 0x2
 1979 09ff 75       		.byte	0x75
 1980 0a00 00       		.sleb128 0
 1981 0a01 00       		.byte	0
 1982 0a02 31       		.uleb128 0x31
 1983 0a03 44000000 		.4byte	.LVL28
 1984 0a07 550F0000 		.4byte	0xf55
 1985 0a0b 1C0A0000 		.4byte	0xa1c
 1986 0a0f 24       		.uleb128 0x24
 1987 0a10 01       		.uleb128 0x1
 1988 0a11 50       		.byte	0x50
 1989 0a12 02       		.uleb128 0x2
 1990 0a13 76       		.byte	0x76
 1991 0a14 00       		.sleb128 0
 1992 0a15 24       		.uleb128 0x24
 1993 0a16 01       		.uleb128 0x1
 1994 0a17 51       		.byte	0x51
 1995 0a18 02       		.uleb128 0x2
 1996 0a19 78       		.byte	0x78
 1997 0a1a 00       		.sleb128 0
 1998 0a1b 00       		.byte	0
 1999 0a1c 31       		.uleb128 0x31
 2000 0a1d 50000000 		.4byte	.LVL31
 2001 0a21 600F0000 		.4byte	0xf60
 2002 0a25 3C0A0000 		.4byte	0xa3c
 2003 0a29 24       		.uleb128 0x24
 2004 0a2a 01       		.uleb128 0x1
 2005 0a2b 50       		.byte	0x50
 2006 0a2c 02       		.uleb128 0x2
 2007 0a2d 75       		.byte	0x75
 2008 0a2e 00       		.sleb128 0
 2009 0a2f 24       		.uleb128 0x24
 2010 0a30 01       		.uleb128 0x1
 2011 0a31 51       		.byte	0x51
 2012 0a32 02       		.uleb128 0x2
 2013 0a33 77       		.byte	0x77
 2014 0a34 00       		.sleb128 0
 2015 0a35 24       		.uleb128 0x24
 2016 0a36 01       		.uleb128 0x1
 2017 0a37 52       		.byte	0x52
 2018 0a38 02       		.uleb128 0x2
 2019 0a39 78       		.byte	0x78
 2020 0a3a 00       		.sleb128 0
 2021 0a3b 00       		.byte	0
 2022 0a3c 31       		.uleb128 0x31
 2023 0a3d 5C000000 		.4byte	.LVL34
 2024 0a41 6B0F0000 		.4byte	0xf6b
ARM GAS  C:\Users\164\AppData\Local\Temp\ccELK2nm.s 			page 47


 2025 0a45 5C0A0000 		.4byte	0xa5c
 2026 0a49 24       		.uleb128 0x24
 2027 0a4a 01       		.uleb128 0x1
 2028 0a4b 50       		.byte	0x50
 2029 0a4c 02       		.uleb128 0x2
 2030 0a4d 76       		.byte	0x76
 2031 0a4e 00       		.sleb128 0
 2032 0a4f 24       		.uleb128 0x24
 2033 0a50 01       		.uleb128 0x1
 2034 0a51 51       		.byte	0x51
 2035 0a52 02       		.uleb128 0x2
 2036 0a53 77       		.byte	0x77
 2037 0a54 00       		.sleb128 0
 2038 0a55 24       		.uleb128 0x24
 2039 0a56 01       		.uleb128 0x1
 2040 0a57 52       		.byte	0x52
 2041 0a58 02       		.uleb128 0x2
 2042 0a59 78       		.byte	0x78
 2043 0a5a 00       		.sleb128 0
 2044 0a5b 00       		.byte	0
 2045 0a5c 31       		.uleb128 0x31
 2046 0a5d 68000000 		.4byte	.LVL35
 2047 0a61 760F0000 		.4byte	0xf76
 2048 0a65 820A0000 		.4byte	0xa82
 2049 0a69 24       		.uleb128 0x24
 2050 0a6a 01       		.uleb128 0x1
 2051 0a6b 50       		.byte	0x50
 2052 0a6c 02       		.uleb128 0x2
 2053 0a6d 7D       		.byte	0x7d
 2054 0a6e 00       		.sleb128 0
 2055 0a6f 24       		.uleb128 0x24
 2056 0a70 01       		.uleb128 0x1
 2057 0a71 51       		.byte	0x51
 2058 0a72 02       		.uleb128 0x2
 2059 0a73 76       		.byte	0x76
 2060 0a74 00       		.sleb128 0
 2061 0a75 24       		.uleb128 0x24
 2062 0a76 01       		.uleb128 0x1
 2063 0a77 52       		.byte	0x52
 2064 0a78 02       		.uleb128 0x2
 2065 0a79 77       		.byte	0x77
 2066 0a7a 00       		.sleb128 0
 2067 0a7b 24       		.uleb128 0x24
 2068 0a7c 01       		.uleb128 0x1
 2069 0a7d 53       		.byte	0x53
 2070 0a7e 02       		.uleb128 0x2
 2071 0a7f 78       		.byte	0x78
 2072 0a80 00       		.sleb128 0
 2073 0a81 00       		.byte	0
 2074 0a82 23       		.uleb128 0x23
 2075 0a83 78000000 		.4byte	.LVL38
 2076 0a87 810F0000 		.4byte	0xf81
 2077 0a8b 24       		.uleb128 0x24
 2078 0a8c 01       		.uleb128 0x1
 2079 0a8d 50       		.byte	0x50
 2080 0a8e 02       		.uleb128 0x2
 2081 0a8f 74       		.byte	0x74
ARM GAS  C:\Users\164\AppData\Local\Temp\ccELK2nm.s 			page 48


 2082 0a90 00       		.sleb128 0
 2083 0a91 00       		.byte	0
 2084 0a92 00       		.byte	0
 2085 0a93 25       		.uleb128 0x25
 2086 0a94 F4010000 		.4byte	.LASF128
 2087 0a98 01       		.byte	0x1
 2088 0a99 6C       		.byte	0x6c
 2089 0a9a 00000000 		.4byte	.LFB77
 2090 0a9e 36000000 		.4byte	.LFE77-.LFB77
 2091 0aa2 01       		.uleb128 0x1
 2092 0aa3 9C       		.byte	0x9c
 2093 0aa4 430B0000 		.4byte	0xb43
 2094 0aa8 26       		.uleb128 0x26
 2095 0aa9 766D00   		.ascii	"vm\000"
 2096 0aac 01       		.byte	0x1
 2097 0aad 6C       		.byte	0x6c
 2098 0aae 3F080000 		.4byte	0x83f
 2099 0ab2 96020000 		.4byte	.LLST20
 2100 0ab6 26       		.uleb128 0x26
 2101 0ab7 7600     		.ascii	"v\000"
 2102 0ab9 01       		.byte	0x1
 2103 0aba 6C       		.byte	0x6c
 2104 0abb B4050000 		.4byte	0x5b4
 2105 0abf B7020000 		.4byte	.LLST21
 2106 0ac3 27       		.uleb128 0x27
 2107 0ac4 8A000000 		.4byte	.LASF123
 2108 0ac8 01       		.byte	0x1
 2109 0ac9 6C       		.byte	0x6c
 2110 0aca 94000000 		.4byte	0x94
 2111 0ace EB020000 		.4byte	.LLST22
 2112 0ad2 28       		.uleb128 0x28
 2113 0ad3 18070000 		.4byte	.LASF55
 2114 0ad7 01       		.byte	0x1
 2115 0ad8 6E       		.byte	0x6e
 2116 0ad9 45080000 		.4byte	0x845
 2117 0add 25030000 		.4byte	.LLST23
 2118 0ae1 32       		.uleb128 0x32
 2119 0ae2 10000000 		.4byte	.LBB21
 2120 0ae6 18000000 		.4byte	.LBE21-.LBB21
 2121 0aea 320B0000 		.4byte	0xb32
 2122 0aee 2A       		.uleb128 0x2a
 2123 0aef 6E00     		.ascii	"n\000"
 2124 0af1 01       		.byte	0x1
 2125 0af2 72       		.byte	0x72
 2126 0af3 94000000 		.4byte	0x94
 2127 0af7 52030000 		.4byte	.LLST24
 2128 0afb 2B       		.uleb128 0x2b
 2129 0afc 38070000 		.4byte	0x738
 2130 0b00 10000000 		.4byte	.LBB22
 2131 0b04 02000000 		.4byte	.LBE22-.LBB22
 2132 0b08 01       		.byte	0x1
 2133 0b09 73       		.byte	0x73
 2134 0b0a 180B0000 		.4byte	0xb18
 2135 0b0e 2C       		.uleb128 0x2c
 2136 0b0f 48070000 		.4byte	0x748
 2137 0b13 70030000 		.4byte	.LLST25
 2138 0b17 00       		.byte	0
ARM GAS  C:\Users\164\AppData\Local\Temp\ccELK2nm.s 			page 49


 2139 0b18 29       		.uleb128 0x29
 2140 0b19 1A000000 		.4byte	.LVL45
 2141 0b1d 8C0F0000 		.4byte	0xf8c
 2142 0b21 23       		.uleb128 0x23
 2143 0b22 22000000 		.4byte	.LVL48
 2144 0b26 810F0000 		.4byte	0xf81
 2145 0b2a 24       		.uleb128 0x24
 2146 0b2b 01       		.uleb128 0x1
 2147 0b2c 50       		.byte	0x50
 2148 0b2d 02       		.uleb128 0x2
 2149 0b2e 74       		.byte	0x74
 2150 0b2f 00       		.sleb128 0
 2151 0b30 00       		.byte	0
 2152 0b31 00       		.byte	0
 2153 0b32 23       		.uleb128 0x23
 2154 0b33 30000000 		.4byte	.LVL51
 2155 0b37 810F0000 		.4byte	0xf81
 2156 0b3b 24       		.uleb128 0x24
 2157 0b3c 01       		.uleb128 0x1
 2158 0b3d 50       		.byte	0x50
 2159 0b3e 02       		.uleb128 0x2
 2160 0b3f 74       		.byte	0x74
 2161 0b40 00       		.sleb128 0
 2162 0b41 00       		.byte	0
 2163 0b42 00       		.byte	0
 2164 0b43 25       		.uleb128 0x25
 2165 0b44 57070000 		.4byte	.LASF129
 2166 0b48 01       		.byte	0x1
 2167 0b49 53       		.byte	0x53
 2168 0b4a 00000000 		.4byte	.LFB76
 2169 0b4e 76000000 		.4byte	.LFE76-.LFB76
 2170 0b52 01       		.uleb128 0x1
 2171 0b53 9C       		.byte	0x9c
 2172 0b54 710C0000 		.4byte	0xc71
 2173 0b58 26       		.uleb128 0x26
 2174 0b59 766D00   		.ascii	"vm\000"
 2175 0b5c 01       		.byte	0x1
 2176 0b5d 53       		.byte	0x53
 2177 0b5e 3F080000 		.4byte	0x83f
 2178 0b62 85030000 		.4byte	.LLST26
 2179 0b66 26       		.uleb128 0x26
 2180 0b67 7600     		.ascii	"v\000"
 2181 0b69 01       		.byte	0x1
 2182 0b6a 53       		.byte	0x53
 2183 0b6b B4050000 		.4byte	0x5b4
 2184 0b6f A3030000 		.4byte	.LLST27
 2185 0b73 27       		.uleb128 0x27
 2186 0b74 8A000000 		.4byte	.LASF123
 2187 0b78 01       		.byte	0x1
 2188 0b79 53       		.byte	0x53
 2189 0b7a 94000000 		.4byte	0x94
 2190 0b7e C1030000 		.4byte	.LLST28
 2191 0b82 2E       		.uleb128 0x2e
 2192 0b83 72657400 		.ascii	"ret\000"
 2193 0b87 01       		.byte	0x1
 2194 0b88 55       		.byte	0x55
 2195 0b89 75040000 		.4byte	0x475
ARM GAS  C:\Users\164\AppData\Local\Temp\ccELK2nm.s 			page 50


 2196 0b8d 02       		.uleb128 0x2
 2197 0b8e 91       		.byte	0x91
 2198 0b8f 58       		.sleb128 -40
 2199 0b90 33       		.uleb128 0x33
 2200 0b91 18070000 		.4byte	.LASF55
 2201 0b95 01       		.byte	0x1
 2202 0b96 56       		.byte	0x56
 2203 0b97 45080000 		.4byte	0x845
 2204 0b9b 01       		.uleb128 0x1
 2205 0b9c 56       		.byte	0x56
 2206 0b9d 28       		.uleb128 0x28
 2207 0b9e 60010000 		.4byte	.LASF130
 2208 0ba2 01       		.byte	0x1
 2209 0ba3 57       		.byte	0x57
 2210 0ba4 94000000 		.4byte	0x94
 2211 0ba8 E2030000 		.4byte	.LLST29
 2212 0bac 2F       		.uleb128 0x2f
 2213 0bad 05030000 		.4byte	.LASF131
 2214 0bb1 01       		.byte	0x1
 2215 0bb2 63       		.byte	0x63
 2216 0bb3 60000000 		.4byte	.L32
 2217 0bb7 2A       		.uleb128 0x2a
 2218 0bb8 62756600 		.ascii	"buf\000"
 2219 0bbc 01       		.byte	0x1
 2220 0bbd 5E       		.byte	0x5e
 2221 0bbe 0F010000 		.4byte	0x10f
 2222 0bc2 00040000 		.4byte	.LLST30
 2223 0bc6 2B       		.uleb128 0x2b
 2224 0bc7 5D070000 		.4byte	0x75d
 2225 0bcb 1A000000 		.4byte	.LBB24
 2226 0bcf 1C000000 		.4byte	.LBE24-.LBB24
 2227 0bd3 01       		.byte	0x1
 2228 0bd4 5A       		.byte	0x5a
 2229 0bd5 EC0B0000 		.4byte	0xbec
 2230 0bd9 2D       		.uleb128 0x2d
 2231 0bda 1A000000 		.4byte	.LBB25
 2232 0bde 1C000000 		.4byte	.LBE25-.LBB25
 2233 0be2 30       		.uleb128 0x30
 2234 0be3 6D070000 		.4byte	0x76d
 2235 0be7 02       		.uleb128 0x2
 2236 0be8 91       		.byte	0x91
 2237 0be9 48       		.sleb128 -56
 2238 0bea 00       		.byte	0
 2239 0beb 00       		.byte	0
 2240 0bec 31       		.uleb128 0x31
 2241 0bed 16000000 		.4byte	.LVL56
 2242 0bf1 4A0F0000 		.4byte	0xf4a
 2243 0bf5 000C0000 		.4byte	0xc00
 2244 0bf9 24       		.uleb128 0x24
 2245 0bfa 01       		.uleb128 0x1
 2246 0bfb 50       		.byte	0x50
 2247 0bfc 02       		.uleb128 0x2
 2248 0bfd 76       		.byte	0x76
 2249 0bfe 00       		.sleb128 0
 2250 0bff 00       		.byte	0
 2251 0c00 31       		.uleb128 0x31
 2252 0c01 3E000000 		.4byte	.LVL59
ARM GAS  C:\Users\164\AppData\Local\Temp\ccELK2nm.s 			page 51


 2253 0c05 550F0000 		.4byte	0xf55
 2254 0c09 1A0C0000 		.4byte	0xc1a
 2255 0c0d 24       		.uleb128 0x24
 2256 0c0e 01       		.uleb128 0x1
 2257 0c0f 50       		.byte	0x50
 2258 0c10 02       		.uleb128 0x2
 2259 0c11 77       		.byte	0x77
 2260 0c12 00       		.sleb128 0
 2261 0c13 24       		.uleb128 0x24
 2262 0c14 01       		.uleb128 0x1
 2263 0c15 51       		.byte	0x51
 2264 0c16 02       		.uleb128 0x2
 2265 0c17 75       		.byte	0x75
 2266 0c18 01       		.sleb128 1
 2267 0c19 00       		.byte	0
 2268 0c1a 31       		.uleb128 0x31
 2269 0c1b 4A000000 		.4byte	.LVL62
 2270 0c1f 970F0000 		.4byte	0xf97
 2271 0c23 3A0C0000 		.4byte	0xc3a
 2272 0c27 24       		.uleb128 0x24
 2273 0c28 01       		.uleb128 0x1
 2274 0c29 50       		.byte	0x50
 2275 0c2a 02       		.uleb128 0x2
 2276 0c2b 76       		.byte	0x76
 2277 0c2c 00       		.sleb128 0
 2278 0c2d 24       		.uleb128 0x24
 2279 0c2e 01       		.uleb128 0x1
 2280 0c2f 51       		.byte	0x51
 2281 0c30 02       		.uleb128 0x2
 2282 0c31 78       		.byte	0x78
 2283 0c32 00       		.sleb128 0
 2284 0c33 24       		.uleb128 0x24
 2285 0c34 01       		.uleb128 0x1
 2286 0c35 52       		.byte	0x52
 2287 0c36 02       		.uleb128 0x2
 2288 0c37 75       		.byte	0x75
 2289 0c38 00       		.sleb128 0
 2290 0c39 00       		.byte	0
 2291 0c3a 31       		.uleb128 0x31
 2292 0c3b 56000000 		.4byte	.LVL63
 2293 0c3f 760F0000 		.4byte	0xf76
 2294 0c43 600C0000 		.4byte	0xc60
 2295 0c47 24       		.uleb128 0x24
 2296 0c48 01       		.uleb128 0x1
 2297 0c49 50       		.byte	0x50
 2298 0c4a 02       		.uleb128 0x2
 2299 0c4b 7D       		.byte	0x7d
 2300 0c4c 00       		.sleb128 0
 2301 0c4d 24       		.uleb128 0x24
 2302 0c4e 01       		.uleb128 0x1
 2303 0c4f 51       		.byte	0x51
 2304 0c50 02       		.uleb128 0x2
 2305 0c51 77       		.byte	0x77
 2306 0c52 00       		.sleb128 0
 2307 0c53 24       		.uleb128 0x24
 2308 0c54 01       		.uleb128 0x1
 2309 0c55 52       		.byte	0x52
ARM GAS  C:\Users\164\AppData\Local\Temp\ccELK2nm.s 			page 52


 2310 0c56 02       		.uleb128 0x2
 2311 0c57 78       		.byte	0x78
 2312 0c58 00       		.sleb128 0
 2313 0c59 24       		.uleb128 0x24
 2314 0c5a 01       		.uleb128 0x1
 2315 0c5b 53       		.byte	0x53
 2316 0c5c 02       		.uleb128 0x2
 2317 0c5d 75       		.byte	0x75
 2318 0c5e 00       		.sleb128 0
 2319 0c5f 00       		.byte	0
 2320 0c60 23       		.uleb128 0x23
 2321 0c61 66000000 		.4byte	.LVL66
 2322 0c65 810F0000 		.4byte	0xf81
 2323 0c69 24       		.uleb128 0x24
 2324 0c6a 01       		.uleb128 0x1
 2325 0c6b 50       		.byte	0x50
 2326 0c6c 02       		.uleb128 0x2
 2327 0c6d 74       		.byte	0x74
 2328 0c6e 00       		.sleb128 0
 2329 0c6f 00       		.byte	0
 2330 0c70 00       		.byte	0
 2331 0c71 25       		.uleb128 0x25
 2332 0c72 A8000000 		.4byte	.LASF132
 2333 0c76 01       		.byte	0x1
 2334 0c77 41       		.byte	0x41
 2335 0c78 00000000 		.4byte	.LFB75
 2336 0c7c 60000000 		.4byte	.LFE75-.LFB75
 2337 0c80 01       		.uleb128 0x1
 2338 0c81 9C       		.byte	0x9c
 2339 0c82 040D0000 		.4byte	0xd04
 2340 0c86 26       		.uleb128 0x26
 2341 0c87 766D00   		.ascii	"vm\000"
 2342 0c8a 01       		.byte	0x1
 2343 0c8b 41       		.byte	0x41
 2344 0c8c 3F080000 		.4byte	0x83f
 2345 0c90 29040000 		.4byte	.LLST31
 2346 0c94 26       		.uleb128 0x26
 2347 0c95 7600     		.ascii	"v\000"
 2348 0c97 01       		.byte	0x1
 2349 0c98 41       		.byte	0x41
 2350 0c99 B4050000 		.4byte	0x5b4
 2351 0c9d 6E040000 		.4byte	.LLST32
 2352 0ca1 27       		.uleb128 0x27
 2353 0ca2 8A000000 		.4byte	.LASF123
 2354 0ca6 01       		.byte	0x1
 2355 0ca7 41       		.byte	0x41
 2356 0ca8 94000000 		.4byte	0x94
 2357 0cac B0040000 		.4byte	.LLST33
 2358 0cb0 2E       		.uleb128 0x2e
 2359 0cb1 6E756D00 		.ascii	"num\000"
 2360 0cb5 01       		.byte	0x1
 2361 0cb6 43       		.byte	0x43
 2362 0cb7 94000000 		.4byte	0x94
 2363 0cbb 05       		.uleb128 0x5
 2364 0cbc 03       		.byte	0x3
 2365 0cbd 00000000 		.4byte	num.7083
 2366 0cc1 2B       		.uleb128 0x2b
ARM GAS  C:\Users\164\AppData\Local\Temp\ccELK2nm.s 			page 53


 2367 0cc2 5D070000 		.4byte	0x75d
 2368 0cc6 0E000000 		.4byte	.LBB26
 2369 0cca 1A000000 		.4byte	.LBE26-.LBB26
 2370 0cce 01       		.byte	0x1
 2371 0ccf 46       		.byte	0x46
 2372 0cd0 E70C0000 		.4byte	0xce7
 2373 0cd4 2D       		.uleb128 0x2d
 2374 0cd5 0E000000 		.4byte	.LBB27
 2375 0cd9 1A000000 		.4byte	.LBE27-.LBB27
 2376 0cdd 30       		.uleb128 0x30
 2377 0cde 6D070000 		.4byte	0x76d
 2378 0ce2 02       		.uleb128 0x2
 2379 0ce3 91       		.byte	0x91
 2380 0ce4 50       		.sleb128 -48
 2381 0ce5 00       		.byte	0
 2382 0ce6 00       		.byte	0
 2383 0ce7 23       		.uleb128 0x23
 2384 0ce8 3A000000 		.4byte	.LVL74
 2385 0cec A20F0000 		.4byte	0xfa2
 2386 0cf0 24       		.uleb128 0x24
 2387 0cf1 01       		.uleb128 0x1
 2388 0cf2 50       		.byte	0x50
 2389 0cf3 02       		.uleb128 0x2
 2390 0cf4 7D       		.byte	0x7d
 2391 0cf5 00       		.sleb128 0
 2392 0cf6 24       		.uleb128 0x24
 2393 0cf7 01       		.uleb128 0x1
 2394 0cf8 51       		.byte	0x51
 2395 0cf9 03       		.uleb128 0x3
 2396 0cfa F3       		.byte	0xf3
 2397 0cfb 01       		.uleb128 0x1
 2398 0cfc 50       		.byte	0x50
 2399 0cfd 24       		.uleb128 0x24
 2400 0cfe 01       		.uleb128 0x1
 2401 0cff 53       		.byte	0x53
 2402 0d00 01       		.uleb128 0x1
 2403 0d01 34       		.byte	0x34
 2404 0d02 00       		.byte	0
 2405 0d03 00       		.byte	0
 2406 0d04 22       		.uleb128 0x22
 2407 0d05 52030000 		.4byte	.LASF133
 2408 0d09 01       		.byte	0x1
 2409 0d0a C5       		.byte	0xc5
 2410 0d0b 00000000 		.4byte	.LFB82
 2411 0d0f 0C010000 		.4byte	.LFE82-.LFB82
 2412 0d13 01       		.uleb128 0x1
 2413 0d14 9C       		.byte	0x9c
 2414 0d15 CC0E0000 		.4byte	0xecc
 2415 0d19 26       		.uleb128 0x26
 2416 0d1a 766D00   		.ascii	"vm\000"
 2417 0d1d 01       		.byte	0x1
 2418 0d1e C5       		.byte	0xc5
 2419 0d1f 56010000 		.4byte	0x156
 2420 0d23 EA040000 		.4byte	.LLST34
 2421 0d27 28       		.uleb128 0x28
 2422 0d28 3C000000 		.4byte	.LASF134
 2423 0d2c 01       		.byte	0x1
ARM GAS  C:\Users\164\AppData\Local\Temp\ccELK2nm.s 			page 54


 2424 0d2d CC       		.byte	0xcc
 2425 0d2e BA050000 		.4byte	0x5ba
 2426 0d32 0B050000 		.4byte	.LLST35
 2427 0d36 31       		.uleb128 0x31
 2428 0d37 2C000000 		.4byte	.LVL78
 2429 0d3b AD0F0000 		.4byte	0xfad
 2430 0d3f 580D0000 		.4byte	0xd58
 2431 0d43 24       		.uleb128 0x24
 2432 0d44 01       		.uleb128 0x1
 2433 0d45 50       		.byte	0x50
 2434 0d46 05       		.uleb128 0x5
 2435 0d47 03       		.byte	0x3
 2436 0d48 00000000 		.4byte	uh
 2437 0d4c 24       		.uleb128 0x24
 2438 0d4d 01       		.uleb128 0x1
 2439 0d4e 51       		.byte	0x51
 2440 0d4f 01       		.uleb128 0x1
 2441 0d50 31       		.byte	0x31
 2442 0d51 24       		.uleb128 0x24
 2443 0d52 01       		.uleb128 0x1
 2444 0d53 52       		.byte	0x52
 2445 0d54 02       		.uleb128 0x2
 2446 0d55 08       		.byte	0x8
 2447 0d56 20       		.byte	0x20
 2448 0d57 00       		.byte	0
 2449 0d58 31       		.uleb128 0x31
 2450 0d59 32000000 		.4byte	.LVL79
 2451 0d5d B80F0000 		.4byte	0xfb8
 2452 0d61 6F0D0000 		.4byte	0xd6f
 2453 0d65 24       		.uleb128 0x24
 2454 0d66 01       		.uleb128 0x1
 2455 0d67 50       		.byte	0x50
 2456 0d68 05       		.uleb128 0x5
 2457 0d69 03       		.byte	0x3
 2458 0d6a 00000000 		.4byte	isr_UART_1_Tx
 2459 0d6e 00       		.byte	0
 2460 0d6f 31       		.uleb128 0x31
 2461 0d70 38000000 		.4byte	.LVL80
 2462 0d74 C30F0000 		.4byte	0xfc3
 2463 0d78 860D0000 		.4byte	0xd86
 2464 0d7c 24       		.uleb128 0x24
 2465 0d7d 01       		.uleb128 0x1
 2466 0d7e 50       		.byte	0x50
 2467 0d7f 05       		.uleb128 0x5
 2468 0d80 03       		.byte	0x3
 2469 0d81 00000000 		.4byte	isr_UART_1_Rx
 2470 0d85 00       		.byte	0
 2471 0d86 31       		.uleb128 0x31
 2472 0d87 44000000 		.4byte	.LVL81
 2473 0d8b CE0F0000 		.4byte	0xfce
 2474 0d8f A20D0000 		.4byte	0xda2
 2475 0d93 24       		.uleb128 0x24
 2476 0d94 01       		.uleb128 0x1
 2477 0d95 50       		.byte	0x50
 2478 0d96 01       		.uleb128 0x1
 2479 0d97 30       		.byte	0x30
 2480 0d98 24       		.uleb128 0x24
ARM GAS  C:\Users\164\AppData\Local\Temp\ccELK2nm.s 			page 55


 2481 0d99 01       		.uleb128 0x1
 2482 0d9a 51       		.byte	0x51
 2483 0d9b 05       		.uleb128 0x5
 2484 0d9c 03       		.byte	0x3
 2485 0d9d 00000000 		.4byte	.LC0
 2486 0da1 00       		.byte	0
 2487 0da2 31       		.uleb128 0x31
 2488 0da3 52000000 		.4byte	.LVL84
 2489 0da7 D90F0000 		.4byte	0xfd9
 2490 0dab CD0D0000 		.4byte	0xdcd
 2491 0daf 24       		.uleb128 0x24
 2492 0db0 01       		.uleb128 0x1
 2493 0db1 50       		.byte	0x50
 2494 0db2 01       		.uleb128 0x1
 2495 0db3 30       		.byte	0x30
 2496 0db4 24       		.uleb128 0x24
 2497 0db5 01       		.uleb128 0x1
 2498 0db6 51       		.byte	0x51
 2499 0db7 02       		.uleb128 0x2
 2500 0db8 74       		.byte	0x74
 2501 0db9 00       		.sleb128 0
 2502 0dba 24       		.uleb128 0x24
 2503 0dbb 01       		.uleb128 0x1
 2504 0dbc 52       		.byte	0x52
 2505 0dbd 05       		.uleb128 0x5
 2506 0dbe 03       		.byte	0x3
 2507 0dbf 08000000 		.4byte	.LC1
 2508 0dc3 24       		.uleb128 0x24
 2509 0dc4 01       		.uleb128 0x1
 2510 0dc5 53       		.byte	0x53
 2511 0dc6 05       		.uleb128 0x5
 2512 0dc7 03       		.byte	0x3
 2513 0dc8 00000000 		.4byte	c_uart_new
 2514 0dcc 00       		.byte	0
 2515 0dcd 31       		.uleb128 0x31
 2516 0dce 5E000000 		.4byte	.LVL85
 2517 0dd2 D90F0000 		.4byte	0xfd9
 2518 0dd6 F80D0000 		.4byte	0xdf8
 2519 0dda 24       		.uleb128 0x24
 2520 0ddb 01       		.uleb128 0x1
 2521 0ddc 50       		.byte	0x50
 2522 0ddd 01       		.uleb128 0x1
 2523 0dde 30       		.byte	0x30
 2524 0ddf 24       		.uleb128 0x24
 2525 0de0 01       		.uleb128 0x1
 2526 0de1 51       		.byte	0x51
 2527 0de2 02       		.uleb128 0x2
 2528 0de3 74       		.byte	0x74
 2529 0de4 00       		.sleb128 0
 2530 0de5 24       		.uleb128 0x24
 2531 0de6 01       		.uleb128 0x1
 2532 0de7 52       		.byte	0x52
 2533 0de8 05       		.uleb128 0x5
 2534 0de9 03       		.byte	0x3
 2535 0dea 0C000000 		.4byte	.LC2
 2536 0dee 24       		.uleb128 0x24
 2537 0def 01       		.uleb128 0x1
ARM GAS  C:\Users\164\AppData\Local\Temp\ccELK2nm.s 			page 56


 2538 0df0 53       		.byte	0x53
 2539 0df1 05       		.uleb128 0x5
 2540 0df2 03       		.byte	0x3
 2541 0df3 00000000 		.4byte	c_uart_read
 2542 0df7 00       		.byte	0
 2543 0df8 31       		.uleb128 0x31
 2544 0df9 6A000000 		.4byte	.LVL86
 2545 0dfd D90F0000 		.4byte	0xfd9
 2546 0e01 230E0000 		.4byte	0xe23
 2547 0e05 24       		.uleb128 0x24
 2548 0e06 01       		.uleb128 0x1
 2549 0e07 50       		.byte	0x50
 2550 0e08 01       		.uleb128 0x1
 2551 0e09 30       		.byte	0x30
 2552 0e0a 24       		.uleb128 0x24
 2553 0e0b 01       		.uleb128 0x1
 2554 0e0c 51       		.byte	0x51
 2555 0e0d 02       		.uleb128 0x2
 2556 0e0e 74       		.byte	0x74
 2557 0e0f 00       		.sleb128 0
 2558 0e10 24       		.uleb128 0x24
 2559 0e11 01       		.uleb128 0x1
 2560 0e12 52       		.byte	0x52
 2561 0e13 05       		.uleb128 0x5
 2562 0e14 03       		.byte	0x3
 2563 0e15 14000000 		.4byte	.LC3
 2564 0e19 24       		.uleb128 0x24
 2565 0e1a 01       		.uleb128 0x1
 2566 0e1b 53       		.byte	0x53
 2567 0e1c 05       		.uleb128 0x5
 2568 0e1d 03       		.byte	0x3
 2569 0e1e 00000000 		.4byte	c_uart_write
 2570 0e22 00       		.byte	0
 2571 0e23 31       		.uleb128 0x31
 2572 0e24 76000000 		.4byte	.LVL87
 2573 0e28 D90F0000 		.4byte	0xfd9
 2574 0e2c 4E0E0000 		.4byte	0xe4e
 2575 0e30 24       		.uleb128 0x24
 2576 0e31 01       		.uleb128 0x1
 2577 0e32 50       		.byte	0x50
 2578 0e33 01       		.uleb128 0x1
 2579 0e34 30       		.byte	0x30
 2580 0e35 24       		.uleb128 0x24
 2581 0e36 01       		.uleb128 0x1
 2582 0e37 51       		.byte	0x51
 2583 0e38 02       		.uleb128 0x2
 2584 0e39 74       		.byte	0x74
 2585 0e3a 00       		.sleb128 0
 2586 0e3b 24       		.uleb128 0x24
 2587 0e3c 01       		.uleb128 0x1
 2588 0e3d 52       		.byte	0x52
 2589 0e3e 05       		.uleb128 0x5
 2590 0e3f 03       		.byte	0x3
 2591 0e40 1C000000 		.4byte	.LC4
 2592 0e44 24       		.uleb128 0x24
 2593 0e45 01       		.uleb128 0x1
 2594 0e46 53       		.byte	0x53
ARM GAS  C:\Users\164\AppData\Local\Temp\ccELK2nm.s 			page 57


 2595 0e47 05       		.uleb128 0x5
 2596 0e48 03       		.byte	0x3
 2597 0e49 00000000 		.4byte	c_uart_gets
 2598 0e4d 00       		.byte	0
 2599 0e4e 31       		.uleb128 0x31
 2600 0e4f 82000000 		.4byte	.LVL88
 2601 0e53 D90F0000 		.4byte	0xfd9
 2602 0e57 790E0000 		.4byte	0xe79
 2603 0e5b 24       		.uleb128 0x24
 2604 0e5c 01       		.uleb128 0x1
 2605 0e5d 50       		.byte	0x50
 2606 0e5e 01       		.uleb128 0x1
 2607 0e5f 30       		.byte	0x30
 2608 0e60 24       		.uleb128 0x24
 2609 0e61 01       		.uleb128 0x1
 2610 0e62 51       		.byte	0x51
 2611 0e63 02       		.uleb128 0x2
 2612 0e64 74       		.byte	0x74
 2613 0e65 00       		.sleb128 0
 2614 0e66 24       		.uleb128 0x24
 2615 0e67 01       		.uleb128 0x1
 2616 0e68 52       		.byte	0x52
 2617 0e69 05       		.uleb128 0x5
 2618 0e6a 03       		.byte	0x3
 2619 0e6b 24000000 		.4byte	.LC5
 2620 0e6f 24       		.uleb128 0x24
 2621 0e70 01       		.uleb128 0x1
 2622 0e71 53       		.byte	0x53
 2623 0e72 05       		.uleb128 0x5
 2624 0e73 03       		.byte	0x3
 2625 0e74 00000000 		.4byte	c_uart_puts
 2626 0e78 00       		.byte	0
 2627 0e79 31       		.uleb128 0x31
 2628 0e7a 8E000000 		.4byte	.LVL89
 2629 0e7e D90F0000 		.4byte	0xfd9
 2630 0e82 A40E0000 		.4byte	0xea4
 2631 0e86 24       		.uleb128 0x24
 2632 0e87 01       		.uleb128 0x1
 2633 0e88 50       		.byte	0x50
 2634 0e89 01       		.uleb128 0x1
 2635 0e8a 30       		.byte	0x30
 2636 0e8b 24       		.uleb128 0x24
 2637 0e8c 01       		.uleb128 0x1
 2638 0e8d 51       		.byte	0x51
 2639 0e8e 02       		.uleb128 0x2
 2640 0e8f 74       		.byte	0x74
 2641 0e90 00       		.sleb128 0
 2642 0e91 24       		.uleb128 0x24
 2643 0e92 01       		.uleb128 0x1
 2644 0e93 52       		.byte	0x52
 2645 0e94 05       		.uleb128 0x5
 2646 0e95 03       		.byte	0x3
 2647 0e96 2C000000 		.4byte	.LC6
 2648 0e9a 24       		.uleb128 0x24
 2649 0e9b 01       		.uleb128 0x1
 2650 0e9c 53       		.byte	0x53
 2651 0e9d 05       		.uleb128 0x5
ARM GAS  C:\Users\164\AppData\Local\Temp\ccELK2nm.s 			page 58


 2652 0e9e 03       		.byte	0x3
 2653 0e9f 00000000 		.4byte	c_uart_clear_tx_buffer
 2654 0ea3 00       		.byte	0
 2655 0ea4 23       		.uleb128 0x23
 2656 0ea5 9A000000 		.4byte	.LVL90
 2657 0ea9 D90F0000 		.4byte	0xfd9
 2658 0ead 24       		.uleb128 0x24
 2659 0eae 01       		.uleb128 0x1
 2660 0eaf 50       		.byte	0x50
 2661 0eb0 01       		.uleb128 0x1
 2662 0eb1 30       		.byte	0x30
 2663 0eb2 24       		.uleb128 0x24
 2664 0eb3 01       		.uleb128 0x1
 2665 0eb4 51       		.byte	0x51
 2666 0eb5 02       		.uleb128 0x2
 2667 0eb6 74       		.byte	0x74
 2668 0eb7 00       		.sleb128 0
 2669 0eb8 24       		.uleb128 0x24
 2670 0eb9 01       		.uleb128 0x1
 2671 0eba 52       		.byte	0x52
 2672 0ebb 05       		.uleb128 0x5
 2673 0ebc 03       		.byte	0x3
 2674 0ebd 3C000000 		.4byte	.LC7
 2675 0ec1 24       		.uleb128 0x24
 2676 0ec2 01       		.uleb128 0x1
 2677 0ec3 53       		.byte	0x53
 2678 0ec4 05       		.uleb128 0x5
 2679 0ec5 03       		.byte	0x3
 2680 0ec6 00000000 		.4byte	c_uart_clear_rx_buffer
 2681 0eca 00       		.byte	0
 2682 0ecb 00       		.byte	0
 2683 0ecc 34       		.uleb128 0x34
 2684 0ecd 32030000 		.4byte	.LASF135
 2685 0ed1 09       		.byte	0x9
 2686 0ed2 1207     		.2byte	0x712
 2687 0ed4 D80E0000 		.4byte	0xed8
 2688 0ed8 09       		.uleb128 0x9
 2689 0ed9 CE000000 		.4byte	0xce
 2690 0edd 35       		.uleb128 0x35
 2691 0ede 5F000000 		.4byte	.LASF136
 2692 0ee2 0A       		.byte	0xa
 2693 0ee3 21       		.byte	0x21
 2694 0ee4 BA050000 		.4byte	0x5ba
 2695 0ee8 1B       		.uleb128 0x1b
 2696 0ee9 2D070000 		.4byte	0x72d
 2697 0eed F80E0000 		.4byte	0xef8
 2698 0ef1 1D       		.uleb128 0x1d
 2699 0ef2 08010000 		.4byte	0x108
 2700 0ef6 00       		.byte	0
 2701 0ef7 00       		.byte	0
 2702 0ef8 36       		.uleb128 0x36
 2703 0ef9 756800   		.ascii	"uh\000"
 2704 0efc 01       		.byte	0x1
 2705 0efd 39       		.byte	0x39
 2706 0efe E80E0000 		.4byte	0xee8
 2707 0f02 05       		.uleb128 0x5
 2708 0f03 03       		.byte	0x3
ARM GAS  C:\Users\164\AppData\Local\Temp\ccELK2nm.s 			page 59


 2709 0f04 00000000 		.4byte	uh
 2710 0f08 37       		.uleb128 0x37
 2711 0f09 9C070000 		.4byte	.LASF137
 2712 0f0d 9C070000 		.4byte	.LASF137
 2713 0f11 08       		.byte	0x8
 2714 0f12 95       		.byte	0x95
 2715 0f13 37       		.uleb128 0x37
 2716 0f14 7E060000 		.4byte	.LASF138
 2717 0f18 7E060000 		.4byte	.LASF138
 2718 0f1c 08       		.byte	0x8
 2719 0f1d 96       		.byte	0x96
 2720 0f1e 37       		.uleb128 0x37
 2721 0f1f 72050000 		.4byte	.LASF139
 2722 0f23 72050000 		.4byte	.LASF139
 2723 0f27 08       		.byte	0x8
 2724 0f28 A4       		.byte	0xa4
 2725 0f29 37       		.uleb128 0x37
 2726 0f2a 33020000 		.4byte	.LASF140
 2727 0f2e 33020000 		.4byte	.LASF140
 2728 0f32 08       		.byte	0x8
 2729 0f33 A3       		.byte	0xa3
 2730 0f34 37       		.uleb128 0x37
 2731 0f35 33070000 		.4byte	.LASF141
 2732 0f39 33070000 		.4byte	.LASF141
 2733 0f3d 08       		.byte	0x8
 2734 0f3e A7       		.byte	0xa7
 2735 0f3f 37       		.uleb128 0x37
 2736 0f40 AC040000 		.4byte	.LASF142
 2737 0f44 AC040000 		.4byte	.LASF142
 2738 0f48 08       		.byte	0x8
 2739 0f49 AF       		.byte	0xaf
 2740 0f4a 37       		.uleb128 0x37
 2741 0f4b 27000000 		.4byte	.LASF143
 2742 0f4f 27000000 		.4byte	.LASF143
 2743 0f53 08       		.byte	0x8
 2744 0f54 AE       		.byte	0xae
 2745 0f55 37       		.uleb128 0x37
 2746 0f56 9D060000 		.4byte	.LASF144
 2747 0f5a 9D060000 		.4byte	.LASF144
 2748 0f5e 0B       		.byte	0xb
 2749 0f5f 1F       		.byte	0x1f
 2750 0f60 37       		.uleb128 0x37
 2751 0f61 3B050000 		.4byte	.LASF145
 2752 0f65 3B050000 		.4byte	.LASF145
 2753 0f69 08       		.byte	0x8
 2754 0f6a A8       		.byte	0xa8
 2755 0f6b 37       		.uleb128 0x37
 2756 0f6c C0010000 		.4byte	.LASF146
 2757 0f70 C0010000 		.4byte	.LASF146
 2758 0f74 0B       		.byte	0xb
 2759 0f75 20       		.byte	0x20
 2760 0f76 37       		.uleb128 0x37
 2761 0f77 06060000 		.4byte	.LASF147
 2762 0f7b 06060000 		.4byte	.LASF147
 2763 0f7f 02       		.byte	0x2
 2764 0f80 2A       		.byte	0x2a
 2765 0f81 37       		.uleb128 0x37
ARM GAS  C:\Users\164\AppData\Local\Temp\ccELK2nm.s 			page 60


 2766 0f82 26020000 		.4byte	.LASF148
 2767 0f86 26020000 		.4byte	.LASF148
 2768 0f8a 03       		.byte	0x3
 2769 0f8b C2       		.byte	0xc2
 2770 0f8c 37       		.uleb128 0x37
 2771 0f8d 1C000000 		.4byte	.LASF149
 2772 0f91 1C000000 		.4byte	.LASF149
 2773 0f95 08       		.byte	0x8
 2774 0f96 A5       		.byte	0xa5
 2775 0f97 37       		.uleb128 0x37
 2776 0f98 A0050000 		.4byte	.LASF150
 2777 0f9c A0050000 		.4byte	.LASF150
 2778 0fa0 08       		.byte	0x8
 2779 0fa1 A6       		.byte	0xa6
 2780 0fa2 37       		.uleb128 0x37
 2781 0fa3 9A030000 		.4byte	.LASF151
 2782 0fa7 9A030000 		.4byte	.LASF151
 2783 0fab 03       		.byte	0x3
 2784 0fac C8       		.byte	0xc8
 2785 0fad 37       		.uleb128 0x37
 2786 0fae 1E040000 		.4byte	.LASF152
 2787 0fb2 1E040000 		.4byte	.LASF152
 2788 0fb6 08       		.byte	0x8
 2789 0fb7 97       		.byte	0x97
 2790 0fb8 37       		.uleb128 0x37
 2791 0fb9 74040000 		.4byte	.LASF153
 2792 0fbd 74040000 		.4byte	.LASF153
 2793 0fc1 0C       		.byte	0xc
 2794 0fc2 18       		.byte	0x18
 2795 0fc3 37       		.uleb128 0x37
 2796 0fc4 00000000 		.4byte	.LASF154
 2797 0fc8 00000000 		.4byte	.LASF154
 2798 0fcc 0D       		.byte	0xd
 2799 0fcd 18       		.byte	0x18
 2800 0fce 37       		.uleb128 0x37
 2801 0fcf 4E010000 		.4byte	.LASF155
 2802 0fd3 4E010000 		.4byte	.LASF155
 2803 0fd7 0E       		.byte	0xe
 2804 0fd8 1E       		.byte	0x1e
 2805 0fd9 37       		.uleb128 0x37
 2806 0fda 3F040000 		.4byte	.LASF156
 2807 0fde 3F040000 		.4byte	.LASF156
 2808 0fe2 0E       		.byte	0xe
 2809 0fe3 1F       		.byte	0x1f
 2810 0fe4 00       		.byte	0
 2811              		.section	.debug_abbrev,"",%progbits
 2812              	.Ldebug_abbrev0:
 2813 0000 01       		.uleb128 0x1
 2814 0001 11       		.uleb128 0x11
 2815 0002 01       		.byte	0x1
 2816 0003 25       		.uleb128 0x25
 2817 0004 0E       		.uleb128 0xe
 2818 0005 13       		.uleb128 0x13
 2819 0006 0B       		.uleb128 0xb
 2820 0007 03       		.uleb128 0x3
 2821 0008 0E       		.uleb128 0xe
 2822 0009 1B       		.uleb128 0x1b
ARM GAS  C:\Users\164\AppData\Local\Temp\ccELK2nm.s 			page 61


 2823 000a 0E       		.uleb128 0xe
 2824 000b 55       		.uleb128 0x55
 2825 000c 17       		.uleb128 0x17
 2826 000d 11       		.uleb128 0x11
 2827 000e 01       		.uleb128 0x1
 2828 000f 10       		.uleb128 0x10
 2829 0010 17       		.uleb128 0x17
 2830 0011 00       		.byte	0
 2831 0012 00       		.byte	0
 2832 0013 02       		.uleb128 0x2
 2833 0014 16       		.uleb128 0x16
 2834 0015 00       		.byte	0
 2835 0016 03       		.uleb128 0x3
 2836 0017 0E       		.uleb128 0xe
 2837 0018 3A       		.uleb128 0x3a
 2838 0019 0B       		.uleb128 0xb
 2839 001a 3B       		.uleb128 0x3b
 2840 001b 0B       		.uleb128 0xb
 2841 001c 49       		.uleb128 0x49
 2842 001d 13       		.uleb128 0x13
 2843 001e 00       		.byte	0
 2844 001f 00       		.byte	0
 2845 0020 03       		.uleb128 0x3
 2846 0021 24       		.uleb128 0x24
 2847 0022 00       		.byte	0
 2848 0023 0B       		.uleb128 0xb
 2849 0024 0B       		.uleb128 0xb
 2850 0025 3E       		.uleb128 0x3e
 2851 0026 0B       		.uleb128 0xb
 2852 0027 03       		.uleb128 0x3
 2853 0028 0E       		.uleb128 0xe
 2854 0029 00       		.byte	0
 2855 002a 00       		.byte	0
 2856 002b 04       		.uleb128 0x4
 2857 002c 24       		.uleb128 0x24
 2858 002d 00       		.byte	0
 2859 002e 0B       		.uleb128 0xb
 2860 002f 0B       		.uleb128 0xb
 2861 0030 3E       		.uleb128 0x3e
 2862 0031 0B       		.uleb128 0xb
 2863 0032 03       		.uleb128 0x3
 2864 0033 08       		.uleb128 0x8
 2865 0034 00       		.byte	0
 2866 0035 00       		.byte	0
 2867 0036 05       		.uleb128 0x5
 2868 0037 16       		.uleb128 0x16
 2869 0038 00       		.byte	0
 2870 0039 03       		.uleb128 0x3
 2871 003a 0E       		.uleb128 0xe
 2872 003b 3A       		.uleb128 0x3a
 2873 003c 0B       		.uleb128 0xb
 2874 003d 3B       		.uleb128 0x3b
 2875 003e 05       		.uleb128 0x5
 2876 003f 49       		.uleb128 0x49
 2877 0040 13       		.uleb128 0x13
 2878 0041 00       		.byte	0
 2879 0042 00       		.byte	0
ARM GAS  C:\Users\164\AppData\Local\Temp\ccELK2nm.s 			page 62


 2880 0043 06       		.uleb128 0x6
 2881 0044 0F       		.uleb128 0xf
 2882 0045 00       		.byte	0
 2883 0046 0B       		.uleb128 0xb
 2884 0047 0B       		.uleb128 0xb
 2885 0048 49       		.uleb128 0x49
 2886 0049 13       		.uleb128 0x13
 2887 004a 00       		.byte	0
 2888 004b 00       		.byte	0
 2889 004c 07       		.uleb128 0x7
 2890 004d 15       		.uleb128 0x15
 2891 004e 00       		.byte	0
 2892 004f 27       		.uleb128 0x27
 2893 0050 19       		.uleb128 0x19
 2894 0051 00       		.byte	0
 2895 0052 00       		.byte	0
 2896 0053 08       		.uleb128 0x8
 2897 0054 26       		.uleb128 0x26
 2898 0055 00       		.byte	0
 2899 0056 49       		.uleb128 0x49
 2900 0057 13       		.uleb128 0x13
 2901 0058 00       		.byte	0
 2902 0059 00       		.byte	0
 2903 005a 09       		.uleb128 0x9
 2904 005b 35       		.uleb128 0x35
 2905 005c 00       		.byte	0
 2906 005d 49       		.uleb128 0x49
 2907 005e 13       		.uleb128 0x13
 2908 005f 00       		.byte	0
 2909 0060 00       		.byte	0
 2910 0061 0A       		.uleb128 0xa
 2911 0062 15       		.uleb128 0x15
 2912 0063 01       		.byte	0x1
 2913 0064 27       		.uleb128 0x27
 2914 0065 19       		.uleb128 0x19
 2915 0066 01       		.uleb128 0x1
 2916 0067 13       		.uleb128 0x13
 2917 0068 00       		.byte	0
 2918 0069 00       		.byte	0
 2919 006a 0B       		.uleb128 0xb
 2920 006b 05       		.uleb128 0x5
 2921 006c 00       		.byte	0
 2922 006d 49       		.uleb128 0x49
 2923 006e 13       		.uleb128 0x13
 2924 006f 00       		.byte	0
 2925 0070 00       		.byte	0
 2926 0071 0C       		.uleb128 0xc
 2927 0072 13       		.uleb128 0x13
 2928 0073 01       		.byte	0x1
 2929 0074 03       		.uleb128 0x3
 2930 0075 08       		.uleb128 0x8
 2931 0076 0B       		.uleb128 0xb
 2932 0077 05       		.uleb128 0x5
 2933 0078 3A       		.uleb128 0x3a
 2934 0079 0B       		.uleb128 0xb
 2935 007a 3B       		.uleb128 0x3b
 2936 007b 0B       		.uleb128 0xb
ARM GAS  C:\Users\164\AppData\Local\Temp\ccELK2nm.s 			page 63


 2937 007c 01       		.uleb128 0x1
 2938 007d 13       		.uleb128 0x13
 2939 007e 00       		.byte	0
 2940 007f 00       		.byte	0
 2941 0080 0D       		.uleb128 0xd
 2942 0081 0D       		.uleb128 0xd
 2943 0082 00       		.byte	0
 2944 0083 03       		.uleb128 0x3
 2945 0084 0E       		.uleb128 0xe
 2946 0085 3A       		.uleb128 0x3a
 2947 0086 0B       		.uleb128 0xb
 2948 0087 3B       		.uleb128 0x3b
 2949 0088 0B       		.uleb128 0xb
 2950 0089 49       		.uleb128 0x49
 2951 008a 13       		.uleb128 0x13
 2952 008b 38       		.uleb128 0x38
 2953 008c 0B       		.uleb128 0xb
 2954 008d 00       		.byte	0
 2955 008e 00       		.byte	0
 2956 008f 0E       		.uleb128 0xe
 2957 0090 0D       		.uleb128 0xd
 2958 0091 00       		.byte	0
 2959 0092 03       		.uleb128 0x3
 2960 0093 08       		.uleb128 0x8
 2961 0094 3A       		.uleb128 0x3a
 2962 0095 0B       		.uleb128 0xb
 2963 0096 3B       		.uleb128 0x3b
 2964 0097 0B       		.uleb128 0xb
 2965 0098 49       		.uleb128 0x49
 2966 0099 13       		.uleb128 0x13
 2967 009a 38       		.uleb128 0x38
 2968 009b 0B       		.uleb128 0xb
 2969 009c 00       		.byte	0
 2970 009d 00       		.byte	0
 2971 009e 0F       		.uleb128 0xf
 2972 009f 0D       		.uleb128 0xd
 2973 00a0 00       		.byte	0
 2974 00a1 03       		.uleb128 0x3
 2975 00a2 0E       		.uleb128 0xe
 2976 00a3 3A       		.uleb128 0x3a
 2977 00a4 0B       		.uleb128 0xb
 2978 00a5 3B       		.uleb128 0x3b
 2979 00a6 0B       		.uleb128 0xb
 2980 00a7 49       		.uleb128 0x49
 2981 00a8 13       		.uleb128 0x13
 2982 00a9 38       		.uleb128 0x38
 2983 00aa 05       		.uleb128 0x5
 2984 00ab 00       		.byte	0
 2985 00ac 00       		.byte	0
 2986 00ad 10       		.uleb128 0x10
 2987 00ae 13       		.uleb128 0x13
 2988 00af 01       		.byte	0x1
 2989 00b0 03       		.uleb128 0x3
 2990 00b1 0E       		.uleb128 0xe
 2991 00b2 0B       		.uleb128 0xb
 2992 00b3 0B       		.uleb128 0xb
 2993 00b4 3A       		.uleb128 0x3a
ARM GAS  C:\Users\164\AppData\Local\Temp\ccELK2nm.s 			page 64


 2994 00b5 0B       		.uleb128 0xb
 2995 00b6 3B       		.uleb128 0x3b
 2996 00b7 0B       		.uleb128 0xb
 2997 00b8 01       		.uleb128 0x1
 2998 00b9 13       		.uleb128 0x13
 2999 00ba 00       		.byte	0
 3000 00bb 00       		.byte	0
 3001 00bc 11       		.uleb128 0x11
 3002 00bd 0D       		.uleb128 0xd
 3003 00be 00       		.byte	0
 3004 00bf 03       		.uleb128 0x3
 3005 00c0 08       		.uleb128 0x8
 3006 00c1 3A       		.uleb128 0x3a
 3007 00c2 0B       		.uleb128 0xb
 3008 00c3 3B       		.uleb128 0x3b
 3009 00c4 0B       		.uleb128 0xb
 3010 00c5 49       		.uleb128 0x49
 3011 00c6 13       		.uleb128 0x13
 3012 00c7 0B       		.uleb128 0xb
 3013 00c8 0B       		.uleb128 0xb
 3014 00c9 0D       		.uleb128 0xd
 3015 00ca 0B       		.uleb128 0xb
 3016 00cb 0C       		.uleb128 0xc
 3017 00cc 0B       		.uleb128 0xb
 3018 00cd 38       		.uleb128 0x38
 3019 00ce 0B       		.uleb128 0xb
 3020 00cf 00       		.byte	0
 3021 00d0 00       		.byte	0
 3022 00d1 12       		.uleb128 0x12
 3023 00d2 0D       		.uleb128 0xd
 3024 00d3 00       		.byte	0
 3025 00d4 49       		.uleb128 0x49
 3026 00d5 13       		.uleb128 0x13
 3027 00d6 38       		.uleb128 0x38
 3028 00d7 0B       		.uleb128 0xb
 3029 00d8 00       		.byte	0
 3030 00d9 00       		.byte	0
 3031 00da 13       		.uleb128 0x13
 3032 00db 04       		.uleb128 0x4
 3033 00dc 01       		.byte	0x1
 3034 00dd 0B       		.uleb128 0xb
 3035 00de 0B       		.uleb128 0xb
 3036 00df 49       		.uleb128 0x49
 3037 00e0 13       		.uleb128 0x13
 3038 00e1 3A       		.uleb128 0x3a
 3039 00e2 0B       		.uleb128 0xb
 3040 00e3 3B       		.uleb128 0x3b
 3041 00e4 0B       		.uleb128 0xb
 3042 00e5 01       		.uleb128 0x1
 3043 00e6 13       		.uleb128 0x13
 3044 00e7 00       		.byte	0
 3045 00e8 00       		.byte	0
 3046 00e9 14       		.uleb128 0x14
 3047 00ea 28       		.uleb128 0x28
 3048 00eb 00       		.byte	0
 3049 00ec 03       		.uleb128 0x3
 3050 00ed 0E       		.uleb128 0xe
ARM GAS  C:\Users\164\AppData\Local\Temp\ccELK2nm.s 			page 65


 3051 00ee 1C       		.uleb128 0x1c
 3052 00ef 0D       		.uleb128 0xd
 3053 00f0 00       		.byte	0
 3054 00f1 00       		.byte	0
 3055 00f2 15       		.uleb128 0x15
 3056 00f3 28       		.uleb128 0x28
 3057 00f4 00       		.byte	0
 3058 00f5 03       		.uleb128 0x3
 3059 00f6 0E       		.uleb128 0xe
 3060 00f7 1C       		.uleb128 0x1c
 3061 00f8 0B       		.uleb128 0xb
 3062 00f9 00       		.byte	0
 3063 00fa 00       		.byte	0
 3064 00fb 16       		.uleb128 0x16
 3065 00fc 17       		.uleb128 0x17
 3066 00fd 01       		.byte	0x1
 3067 00fe 0B       		.uleb128 0xb
 3068 00ff 0B       		.uleb128 0xb
 3069 0100 3A       		.uleb128 0x3a
 3070 0101 0B       		.uleb128 0xb
 3071 0102 3B       		.uleb128 0x3b
 3072 0103 0B       		.uleb128 0xb
 3073 0104 01       		.uleb128 0x1
 3074 0105 13       		.uleb128 0x13
 3075 0106 00       		.byte	0
 3076 0107 00       		.byte	0
 3077 0108 17       		.uleb128 0x17
 3078 0109 0D       		.uleb128 0xd
 3079 010a 00       		.byte	0
 3080 010b 03       		.uleb128 0x3
 3081 010c 08       		.uleb128 0x8
 3082 010d 3A       		.uleb128 0x3a
 3083 010e 0B       		.uleb128 0xb
 3084 010f 3B       		.uleb128 0x3b
 3085 0110 0B       		.uleb128 0xb
 3086 0111 49       		.uleb128 0x49
 3087 0112 13       		.uleb128 0x13
 3088 0113 00       		.byte	0
 3089 0114 00       		.byte	0
 3090 0115 18       		.uleb128 0x18
 3091 0116 0D       		.uleb128 0xd
 3092 0117 00       		.byte	0
 3093 0118 03       		.uleb128 0x3
 3094 0119 0E       		.uleb128 0xe
 3095 011a 3A       		.uleb128 0x3a
 3096 011b 0B       		.uleb128 0xb
 3097 011c 3B       		.uleb128 0x3b
 3098 011d 0B       		.uleb128 0xb
 3099 011e 49       		.uleb128 0x49
 3100 011f 13       		.uleb128 0x13
 3101 0120 00       		.byte	0
 3102 0121 00       		.byte	0
 3103 0122 19       		.uleb128 0x19
 3104 0123 0D       		.uleb128 0xd
 3105 0124 00       		.byte	0
 3106 0125 03       		.uleb128 0x3
 3107 0126 0E       		.uleb128 0xe
ARM GAS  C:\Users\164\AppData\Local\Temp\ccELK2nm.s 			page 66


 3108 0127 3A       		.uleb128 0x3a
 3109 0128 0B       		.uleb128 0xb
 3110 0129 3B       		.uleb128 0x3b
 3111 012a 0B       		.uleb128 0xb
 3112 012b 49       		.uleb128 0x49
 3113 012c 13       		.uleb128 0x13
 3114 012d 0B       		.uleb128 0xb
 3115 012e 0B       		.uleb128 0xb
 3116 012f 0D       		.uleb128 0xd
 3117 0130 0B       		.uleb128 0xb
 3118 0131 0C       		.uleb128 0xc
 3119 0132 0B       		.uleb128 0xb
 3120 0133 38       		.uleb128 0x38
 3121 0134 0B       		.uleb128 0xb
 3122 0135 00       		.byte	0
 3123 0136 00       		.byte	0
 3124 0137 1A       		.uleb128 0x1a
 3125 0138 13       		.uleb128 0x13
 3126 0139 00       		.byte	0
 3127 013a 03       		.uleb128 0x3
 3128 013b 0E       		.uleb128 0xe
 3129 013c 3C       		.uleb128 0x3c
 3130 013d 19       		.uleb128 0x19
 3131 013e 00       		.byte	0
 3132 013f 00       		.byte	0
 3133 0140 1B       		.uleb128 0x1b
 3134 0141 01       		.uleb128 0x1
 3135 0142 01       		.byte	0x1
 3136 0143 49       		.uleb128 0x49
 3137 0144 13       		.uleb128 0x13
 3138 0145 01       		.uleb128 0x1
 3139 0146 13       		.uleb128 0x13
 3140 0147 00       		.byte	0
 3141 0148 00       		.byte	0
 3142 0149 1C       		.uleb128 0x1c
 3143 014a 21       		.uleb128 0x21
 3144 014b 00       		.byte	0
 3145 014c 49       		.uleb128 0x49
 3146 014d 13       		.uleb128 0x13
 3147 014e 00       		.byte	0
 3148 014f 00       		.byte	0
 3149 0150 1D       		.uleb128 0x1d
 3150 0151 21       		.uleb128 0x21
 3151 0152 00       		.byte	0
 3152 0153 49       		.uleb128 0x49
 3153 0154 13       		.uleb128 0x13
 3154 0155 2F       		.uleb128 0x2f
 3155 0156 0B       		.uleb128 0xb
 3156 0157 00       		.byte	0
 3157 0158 00       		.byte	0
 3158 0159 1E       		.uleb128 0x1e
 3159 015a 15       		.uleb128 0x15
 3160 015b 00       		.byte	0
 3161 015c 27       		.uleb128 0x27
 3162 015d 19       		.uleb128 0x19
 3163 015e 49       		.uleb128 0x49
 3164 015f 13       		.uleb128 0x13
ARM GAS  C:\Users\164\AppData\Local\Temp\ccELK2nm.s 			page 67


 3165 0160 00       		.byte	0
 3166 0161 00       		.byte	0
 3167 0162 1F       		.uleb128 0x1f
 3168 0163 2E       		.uleb128 0x2e
 3169 0164 01       		.byte	0x1
 3170 0165 03       		.uleb128 0x3
 3171 0166 0E       		.uleb128 0xe
 3172 0167 3A       		.uleb128 0x3a
 3173 0168 0B       		.uleb128 0xb
 3174 0169 3B       		.uleb128 0x3b
 3175 016a 0B       		.uleb128 0xb
 3176 016b 27       		.uleb128 0x27
 3177 016c 19       		.uleb128 0x19
 3178 016d 49       		.uleb128 0x49
 3179 016e 13       		.uleb128 0x13
 3180 016f 20       		.uleb128 0x20
 3181 0170 0B       		.uleb128 0xb
 3182 0171 01       		.uleb128 0x1
 3183 0172 13       		.uleb128 0x13
 3184 0173 00       		.byte	0
 3185 0174 00       		.byte	0
 3186 0175 20       		.uleb128 0x20
 3187 0176 05       		.uleb128 0x5
 3188 0177 00       		.byte	0
 3189 0178 03       		.uleb128 0x3
 3190 0179 08       		.uleb128 0x8
 3191 017a 3A       		.uleb128 0x3a
 3192 017b 0B       		.uleb128 0xb
 3193 017c 3B       		.uleb128 0x3b
 3194 017d 0B       		.uleb128 0xb
 3195 017e 49       		.uleb128 0x49
 3196 017f 13       		.uleb128 0x13
 3197 0180 00       		.byte	0
 3198 0181 00       		.byte	0
 3199 0182 21       		.uleb128 0x21
 3200 0183 34       		.uleb128 0x34
 3201 0184 00       		.byte	0
 3202 0185 03       		.uleb128 0x3
 3203 0186 0E       		.uleb128 0xe
 3204 0187 3A       		.uleb128 0x3a
 3205 0188 0B       		.uleb128 0xb
 3206 0189 3B       		.uleb128 0x3b
 3207 018a 0B       		.uleb128 0xb
 3208 018b 49       		.uleb128 0x49
 3209 018c 13       		.uleb128 0x13
 3210 018d 00       		.byte	0
 3211 018e 00       		.byte	0
 3212 018f 22       		.uleb128 0x22
 3213 0190 2E       		.uleb128 0x2e
 3214 0191 01       		.byte	0x1
 3215 0192 3F       		.uleb128 0x3f
 3216 0193 19       		.uleb128 0x19
 3217 0194 03       		.uleb128 0x3
 3218 0195 0E       		.uleb128 0xe
 3219 0196 3A       		.uleb128 0x3a
 3220 0197 0B       		.uleb128 0xb
 3221 0198 3B       		.uleb128 0x3b
ARM GAS  C:\Users\164\AppData\Local\Temp\ccELK2nm.s 			page 68


 3222 0199 0B       		.uleb128 0xb
 3223 019a 27       		.uleb128 0x27
 3224 019b 19       		.uleb128 0x19
 3225 019c 11       		.uleb128 0x11
 3226 019d 01       		.uleb128 0x1
 3227 019e 12       		.uleb128 0x12
 3228 019f 06       		.uleb128 0x6
 3229 01a0 40       		.uleb128 0x40
 3230 01a1 18       		.uleb128 0x18
 3231 01a2 9742     		.uleb128 0x2117
 3232 01a4 19       		.uleb128 0x19
 3233 01a5 01       		.uleb128 0x1
 3234 01a6 13       		.uleb128 0x13
 3235 01a7 00       		.byte	0
 3236 01a8 00       		.byte	0
 3237 01a9 23       		.uleb128 0x23
 3238 01aa 898201   		.uleb128 0x4109
 3239 01ad 01       		.byte	0x1
 3240 01ae 11       		.uleb128 0x11
 3241 01af 01       		.uleb128 0x1
 3242 01b0 31       		.uleb128 0x31
 3243 01b1 13       		.uleb128 0x13
 3244 01b2 00       		.byte	0
 3245 01b3 00       		.byte	0
 3246 01b4 24       		.uleb128 0x24
 3247 01b5 8A8201   		.uleb128 0x410a
 3248 01b8 00       		.byte	0
 3249 01b9 02       		.uleb128 0x2
 3250 01ba 18       		.uleb128 0x18
 3251 01bb 9142     		.uleb128 0x2111
 3252 01bd 18       		.uleb128 0x18
 3253 01be 00       		.byte	0
 3254 01bf 00       		.byte	0
 3255 01c0 25       		.uleb128 0x25
 3256 01c1 2E       		.uleb128 0x2e
 3257 01c2 01       		.byte	0x1
 3258 01c3 03       		.uleb128 0x3
 3259 01c4 0E       		.uleb128 0xe
 3260 01c5 3A       		.uleb128 0x3a
 3261 01c6 0B       		.uleb128 0xb
 3262 01c7 3B       		.uleb128 0x3b
 3263 01c8 0B       		.uleb128 0xb
 3264 01c9 27       		.uleb128 0x27
 3265 01ca 19       		.uleb128 0x19
 3266 01cb 11       		.uleb128 0x11
 3267 01cc 01       		.uleb128 0x1
 3268 01cd 12       		.uleb128 0x12
 3269 01ce 06       		.uleb128 0x6
 3270 01cf 40       		.uleb128 0x40
 3271 01d0 18       		.uleb128 0x18
 3272 01d1 9742     		.uleb128 0x2117
 3273 01d3 19       		.uleb128 0x19
 3274 01d4 01       		.uleb128 0x1
 3275 01d5 13       		.uleb128 0x13
 3276 01d6 00       		.byte	0
 3277 01d7 00       		.byte	0
 3278 01d8 26       		.uleb128 0x26
ARM GAS  C:\Users\164\AppData\Local\Temp\ccELK2nm.s 			page 69


 3279 01d9 05       		.uleb128 0x5
 3280 01da 00       		.byte	0
 3281 01db 03       		.uleb128 0x3
 3282 01dc 08       		.uleb128 0x8
 3283 01dd 3A       		.uleb128 0x3a
 3284 01de 0B       		.uleb128 0xb
 3285 01df 3B       		.uleb128 0x3b
 3286 01e0 0B       		.uleb128 0xb
 3287 01e1 49       		.uleb128 0x49
 3288 01e2 13       		.uleb128 0x13
 3289 01e3 02       		.uleb128 0x2
 3290 01e4 17       		.uleb128 0x17
 3291 01e5 00       		.byte	0
 3292 01e6 00       		.byte	0
 3293 01e7 27       		.uleb128 0x27
 3294 01e8 05       		.uleb128 0x5
 3295 01e9 00       		.byte	0
 3296 01ea 03       		.uleb128 0x3
 3297 01eb 0E       		.uleb128 0xe
 3298 01ec 3A       		.uleb128 0x3a
 3299 01ed 0B       		.uleb128 0xb
 3300 01ee 3B       		.uleb128 0x3b
 3301 01ef 0B       		.uleb128 0xb
 3302 01f0 49       		.uleb128 0x49
 3303 01f1 13       		.uleb128 0x13
 3304 01f2 02       		.uleb128 0x2
 3305 01f3 17       		.uleb128 0x17
 3306 01f4 00       		.byte	0
 3307 01f5 00       		.byte	0
 3308 01f6 28       		.uleb128 0x28
 3309 01f7 34       		.uleb128 0x34
 3310 01f8 00       		.byte	0
 3311 01f9 03       		.uleb128 0x3
 3312 01fa 0E       		.uleb128 0xe
 3313 01fb 3A       		.uleb128 0x3a
 3314 01fc 0B       		.uleb128 0xb
 3315 01fd 3B       		.uleb128 0x3b
 3316 01fe 0B       		.uleb128 0xb
 3317 01ff 49       		.uleb128 0x49
 3318 0200 13       		.uleb128 0x13
 3319 0201 02       		.uleb128 0x2
 3320 0202 17       		.uleb128 0x17
 3321 0203 00       		.byte	0
 3322 0204 00       		.byte	0
 3323 0205 29       		.uleb128 0x29
 3324 0206 898201   		.uleb128 0x4109
 3325 0209 00       		.byte	0
 3326 020a 11       		.uleb128 0x11
 3327 020b 01       		.uleb128 0x1
 3328 020c 31       		.uleb128 0x31
 3329 020d 13       		.uleb128 0x13
 3330 020e 00       		.byte	0
 3331 020f 00       		.byte	0
 3332 0210 2A       		.uleb128 0x2a
 3333 0211 34       		.uleb128 0x34
 3334 0212 00       		.byte	0
 3335 0213 03       		.uleb128 0x3
ARM GAS  C:\Users\164\AppData\Local\Temp\ccELK2nm.s 			page 70


 3336 0214 08       		.uleb128 0x8
 3337 0215 3A       		.uleb128 0x3a
 3338 0216 0B       		.uleb128 0xb
 3339 0217 3B       		.uleb128 0x3b
 3340 0218 0B       		.uleb128 0xb
 3341 0219 49       		.uleb128 0x49
 3342 021a 13       		.uleb128 0x13
 3343 021b 02       		.uleb128 0x2
 3344 021c 17       		.uleb128 0x17
 3345 021d 00       		.byte	0
 3346 021e 00       		.byte	0
 3347 021f 2B       		.uleb128 0x2b
 3348 0220 1D       		.uleb128 0x1d
 3349 0221 01       		.byte	0x1
 3350 0222 31       		.uleb128 0x31
 3351 0223 13       		.uleb128 0x13
 3352 0224 11       		.uleb128 0x11
 3353 0225 01       		.uleb128 0x1
 3354 0226 12       		.uleb128 0x12
 3355 0227 06       		.uleb128 0x6
 3356 0228 58       		.uleb128 0x58
 3357 0229 0B       		.uleb128 0xb
 3358 022a 59       		.uleb128 0x59
 3359 022b 0B       		.uleb128 0xb
 3360 022c 01       		.uleb128 0x1
 3361 022d 13       		.uleb128 0x13
 3362 022e 00       		.byte	0
 3363 022f 00       		.byte	0
 3364 0230 2C       		.uleb128 0x2c
 3365 0231 05       		.uleb128 0x5
 3366 0232 00       		.byte	0
 3367 0233 31       		.uleb128 0x31
 3368 0234 13       		.uleb128 0x13
 3369 0235 02       		.uleb128 0x2
 3370 0236 17       		.uleb128 0x17
 3371 0237 00       		.byte	0
 3372 0238 00       		.byte	0
 3373 0239 2D       		.uleb128 0x2d
 3374 023a 0B       		.uleb128 0xb
 3375 023b 01       		.byte	0x1
 3376 023c 11       		.uleb128 0x11
 3377 023d 01       		.uleb128 0x1
 3378 023e 12       		.uleb128 0x12
 3379 023f 06       		.uleb128 0x6
 3380 0240 00       		.byte	0
 3381 0241 00       		.byte	0
 3382 0242 2E       		.uleb128 0x2e
 3383 0243 34       		.uleb128 0x34
 3384 0244 00       		.byte	0
 3385 0245 03       		.uleb128 0x3
 3386 0246 08       		.uleb128 0x8
 3387 0247 3A       		.uleb128 0x3a
 3388 0248 0B       		.uleb128 0xb
 3389 0249 3B       		.uleb128 0x3b
 3390 024a 0B       		.uleb128 0xb
 3391 024b 49       		.uleb128 0x49
 3392 024c 13       		.uleb128 0x13
ARM GAS  C:\Users\164\AppData\Local\Temp\ccELK2nm.s 			page 71


 3393 024d 02       		.uleb128 0x2
 3394 024e 18       		.uleb128 0x18
 3395 024f 00       		.byte	0
 3396 0250 00       		.byte	0
 3397 0251 2F       		.uleb128 0x2f
 3398 0252 0A       		.uleb128 0xa
 3399 0253 00       		.byte	0
 3400 0254 03       		.uleb128 0x3
 3401 0255 0E       		.uleb128 0xe
 3402 0256 3A       		.uleb128 0x3a
 3403 0257 0B       		.uleb128 0xb
 3404 0258 3B       		.uleb128 0x3b
 3405 0259 0B       		.uleb128 0xb
 3406 025a 11       		.uleb128 0x11
 3407 025b 01       		.uleb128 0x1
 3408 025c 00       		.byte	0
 3409 025d 00       		.byte	0
 3410 025e 30       		.uleb128 0x30
 3411 025f 34       		.uleb128 0x34
 3412 0260 00       		.byte	0
 3413 0261 31       		.uleb128 0x31
 3414 0262 13       		.uleb128 0x13
 3415 0263 02       		.uleb128 0x2
 3416 0264 18       		.uleb128 0x18
 3417 0265 00       		.byte	0
 3418 0266 00       		.byte	0
 3419 0267 31       		.uleb128 0x31
 3420 0268 898201   		.uleb128 0x4109
 3421 026b 01       		.byte	0x1
 3422 026c 11       		.uleb128 0x11
 3423 026d 01       		.uleb128 0x1
 3424 026e 31       		.uleb128 0x31
 3425 026f 13       		.uleb128 0x13
 3426 0270 01       		.uleb128 0x1
 3427 0271 13       		.uleb128 0x13
 3428 0272 00       		.byte	0
 3429 0273 00       		.byte	0
 3430 0274 32       		.uleb128 0x32
 3431 0275 0B       		.uleb128 0xb
 3432 0276 01       		.byte	0x1
 3433 0277 11       		.uleb128 0x11
 3434 0278 01       		.uleb128 0x1
 3435 0279 12       		.uleb128 0x12
 3436 027a 06       		.uleb128 0x6
 3437 027b 01       		.uleb128 0x1
 3438 027c 13       		.uleb128 0x13
 3439 027d 00       		.byte	0
 3440 027e 00       		.byte	0
 3441 027f 33       		.uleb128 0x33
 3442 0280 34       		.uleb128 0x34
 3443 0281 00       		.byte	0
 3444 0282 03       		.uleb128 0x3
 3445 0283 0E       		.uleb128 0xe
 3446 0284 3A       		.uleb128 0x3a
 3447 0285 0B       		.uleb128 0xb
 3448 0286 3B       		.uleb128 0x3b
 3449 0287 0B       		.uleb128 0xb
ARM GAS  C:\Users\164\AppData\Local\Temp\ccELK2nm.s 			page 72


 3450 0288 49       		.uleb128 0x49
 3451 0289 13       		.uleb128 0x13
 3452 028a 02       		.uleb128 0x2
 3453 028b 18       		.uleb128 0x18
 3454 028c 00       		.byte	0
 3455 028d 00       		.byte	0
 3456 028e 34       		.uleb128 0x34
 3457 028f 34       		.uleb128 0x34
 3458 0290 00       		.byte	0
 3459 0291 03       		.uleb128 0x3
 3460 0292 0E       		.uleb128 0xe
 3461 0293 3A       		.uleb128 0x3a
 3462 0294 0B       		.uleb128 0xb
 3463 0295 3B       		.uleb128 0x3b
 3464 0296 05       		.uleb128 0x5
 3465 0297 49       		.uleb128 0x49
 3466 0298 13       		.uleb128 0x13
 3467 0299 3F       		.uleb128 0x3f
 3468 029a 19       		.uleb128 0x19
 3469 029b 3C       		.uleb128 0x3c
 3470 029c 19       		.uleb128 0x19
 3471 029d 00       		.byte	0
 3472 029e 00       		.byte	0
 3473 029f 35       		.uleb128 0x35
 3474 02a0 34       		.uleb128 0x34
 3475 02a1 00       		.byte	0
 3476 02a2 03       		.uleb128 0x3
 3477 02a3 0E       		.uleb128 0xe
 3478 02a4 3A       		.uleb128 0x3a
 3479 02a5 0B       		.uleb128 0xb
 3480 02a6 3B       		.uleb128 0x3b
 3481 02a7 0B       		.uleb128 0xb
 3482 02a8 49       		.uleb128 0x49
 3483 02a9 13       		.uleb128 0x13
 3484 02aa 3F       		.uleb128 0x3f
 3485 02ab 19       		.uleb128 0x19
 3486 02ac 3C       		.uleb128 0x3c
 3487 02ad 19       		.uleb128 0x19
 3488 02ae 00       		.byte	0
 3489 02af 00       		.byte	0
 3490 02b0 36       		.uleb128 0x36
 3491 02b1 34       		.uleb128 0x34
 3492 02b2 00       		.byte	0
 3493 02b3 03       		.uleb128 0x3
 3494 02b4 08       		.uleb128 0x8
 3495 02b5 3A       		.uleb128 0x3a
 3496 02b6 0B       		.uleb128 0xb
 3497 02b7 3B       		.uleb128 0x3b
 3498 02b8 0B       		.uleb128 0xb
 3499 02b9 49       		.uleb128 0x49
 3500 02ba 13       		.uleb128 0x13
 3501 02bb 3F       		.uleb128 0x3f
 3502 02bc 19       		.uleb128 0x19
 3503 02bd 02       		.uleb128 0x2
 3504 02be 18       		.uleb128 0x18
 3505 02bf 00       		.byte	0
 3506 02c0 00       		.byte	0
ARM GAS  C:\Users\164\AppData\Local\Temp\ccELK2nm.s 			page 73


 3507 02c1 37       		.uleb128 0x37
 3508 02c2 2E       		.uleb128 0x2e
 3509 02c3 00       		.byte	0
 3510 02c4 3F       		.uleb128 0x3f
 3511 02c5 19       		.uleb128 0x19
 3512 02c6 3C       		.uleb128 0x3c
 3513 02c7 19       		.uleb128 0x19
 3514 02c8 6E       		.uleb128 0x6e
 3515 02c9 0E       		.uleb128 0xe
 3516 02ca 03       		.uleb128 0x3
 3517 02cb 0E       		.uleb128 0xe
 3518 02cc 3A       		.uleb128 0x3a
 3519 02cd 0B       		.uleb128 0xb
 3520 02ce 3B       		.uleb128 0x3b
 3521 02cf 0B       		.uleb128 0xb
 3522 02d0 00       		.byte	0
 3523 02d1 00       		.byte	0
 3524 02d2 00       		.byte	0
 3525              		.section	.debug_loc,"",%progbits
 3526              	.Ldebug_loc0:
 3527              	.LLST0:
 3528 0000 00000000 		.4byte	.LVL2
 3529 0004 06000000 		.4byte	.LVL4
 3530 0008 0100     		.2byte	0x1
 3531 000a 50       		.byte	0x50
 3532 000b 06000000 		.4byte	.LVL4
 3533 000f 0C000000 		.4byte	.LFE81
 3534 0013 0400     		.2byte	0x4
 3535 0015 F3       		.byte	0xf3
 3536 0016 01       		.uleb128 0x1
 3537 0017 50       		.byte	0x50
 3538 0018 9F       		.byte	0x9f
 3539 0019 00000000 		.4byte	0
 3540 001d 00000000 		.4byte	0
 3541              	.LLST1:
 3542 0021 00000000 		.4byte	.LVL2
 3543 0025 09000000 		.4byte	.LVL5-1
 3544 0029 0100     		.2byte	0x1
 3545 002b 51       		.byte	0x51
 3546 002c 09000000 		.4byte	.LVL5-1
 3547 0030 0C000000 		.4byte	.LFE81
 3548 0034 0400     		.2byte	0x4
 3549 0036 F3       		.byte	0xf3
 3550 0037 01       		.uleb128 0x1
 3551 0038 51       		.byte	0x51
 3552 0039 9F       		.byte	0x9f
 3553 003a 00000000 		.4byte	0
 3554 003e 00000000 		.4byte	0
 3555              	.LLST2:
 3556 0042 00000000 		.4byte	.LVL2
 3557 0046 09000000 		.4byte	.LVL5-1
 3558 004a 0100     		.2byte	0x1
 3559 004c 52       		.byte	0x52
 3560 004d 09000000 		.4byte	.LVL5-1
 3561 0051 0C000000 		.4byte	.LFE81
 3562 0055 0400     		.2byte	0x4
 3563 0057 F3       		.byte	0xf3
ARM GAS  C:\Users\164\AppData\Local\Temp\ccELK2nm.s 			page 74


 3564 0058 01       		.uleb128 0x1
 3565 0059 52       		.byte	0x52
 3566 005a 9F       		.byte	0x9f
 3567 005b 00000000 		.4byte	0
 3568 005f 00000000 		.4byte	0
 3569              	.LLST3:
 3570 0063 04000000 		.4byte	.LVL3
 3571 0067 09000000 		.4byte	.LVL5-1
 3572 006b 0200     		.2byte	0x2
 3573 006d 73       		.byte	0x73
 3574 006e 0C       		.sleb128 12
 3575 006f 00000000 		.4byte	0
 3576 0073 00000000 		.4byte	0
 3577              	.LLST4:
 3578 0077 00000000 		.4byte	.LVL6
 3579 007b 06000000 		.4byte	.LVL8
 3580 007f 0100     		.2byte	0x1
 3581 0081 50       		.byte	0x50
 3582 0082 06000000 		.4byte	.LVL8
 3583 0086 0C000000 		.4byte	.LFE80
 3584 008a 0400     		.2byte	0x4
 3585 008c F3       		.byte	0xf3
 3586 008d 01       		.uleb128 0x1
 3587 008e 50       		.byte	0x50
 3588 008f 9F       		.byte	0x9f
 3589 0090 00000000 		.4byte	0
 3590 0094 00000000 		.4byte	0
 3591              	.LLST5:
 3592 0098 00000000 		.4byte	.LVL6
 3593 009c 09000000 		.4byte	.LVL9-1
 3594 00a0 0100     		.2byte	0x1
 3595 00a2 51       		.byte	0x51
 3596 00a3 09000000 		.4byte	.LVL9-1
 3597 00a7 0C000000 		.4byte	.LFE80
 3598 00ab 0400     		.2byte	0x4
 3599 00ad F3       		.byte	0xf3
 3600 00ae 01       		.uleb128 0x1
 3601 00af 51       		.byte	0x51
 3602 00b0 9F       		.byte	0x9f
 3603 00b1 00000000 		.4byte	0
 3604 00b5 00000000 		.4byte	0
 3605              	.LLST6:
 3606 00b9 00000000 		.4byte	.LVL6
 3607 00bd 09000000 		.4byte	.LVL9-1
 3608 00c1 0100     		.2byte	0x1
 3609 00c3 52       		.byte	0x52
 3610 00c4 09000000 		.4byte	.LVL9-1
 3611 00c8 0C000000 		.4byte	.LFE80
 3612 00cc 0400     		.2byte	0x4
 3613 00ce F3       		.byte	0xf3
 3614 00cf 01       		.uleb128 0x1
 3615 00d0 52       		.byte	0x52
 3616 00d1 9F       		.byte	0x9f
 3617 00d2 00000000 		.4byte	0
 3618 00d6 00000000 		.4byte	0
 3619              	.LLST7:
 3620 00da 04000000 		.4byte	.LVL7
ARM GAS  C:\Users\164\AppData\Local\Temp\ccELK2nm.s 			page 75


 3621 00de 09000000 		.4byte	.LVL9-1
 3622 00e2 0200     		.2byte	0x2
 3623 00e4 73       		.byte	0x73
 3624 00e5 0C       		.sleb128 12
 3625 00e6 00000000 		.4byte	0
 3626 00ea 00000000 		.4byte	0
 3627              	.LLST8:
 3628 00ee 00000000 		.4byte	.LVL10
 3629 00f2 1A000000 		.4byte	.LVL18
 3630 00f6 0100     		.2byte	0x1
 3631 00f8 50       		.byte	0x50
 3632 00f9 1A000000 		.4byte	.LVL18
 3633 00fd 20000000 		.4byte	.LFE79
 3634 0101 0400     		.2byte	0x4
 3635 0103 F3       		.byte	0xf3
 3636 0104 01       		.uleb128 0x1
 3637 0105 50       		.byte	0x50
 3638 0106 9F       		.byte	0x9f
 3639 0107 00000000 		.4byte	0
 3640 010b 00000000 		.4byte	0
 3641              	.LLST9:
 3642 010f 00000000 		.4byte	.LVL10
 3643 0113 18000000 		.4byte	.LVL17
 3644 0117 0100     		.2byte	0x1
 3645 0119 51       		.byte	0x51
 3646 011a 18000000 		.4byte	.LVL17
 3647 011e 20000000 		.4byte	.LFE79
 3648 0122 0400     		.2byte	0x4
 3649 0124 F3       		.byte	0xf3
 3650 0125 01       		.uleb128 0x1
 3651 0126 51       		.byte	0x51
 3652 0127 9F       		.byte	0x9f
 3653 0128 00000000 		.4byte	0
 3654 012c 00000000 		.4byte	0
 3655              	.LLST10:
 3656 0130 00000000 		.4byte	.LVL10
 3657 0134 0E000000 		.4byte	.LVL13
 3658 0138 0100     		.2byte	0x1
 3659 013a 52       		.byte	0x52
 3660 013b 0E000000 		.4byte	.LVL13
 3661 013f 10000000 		.4byte	.LVL14
 3662 0143 0400     		.2byte	0x4
 3663 0145 F3       		.byte	0xf3
 3664 0146 01       		.uleb128 0x1
 3665 0147 52       		.byte	0x52
 3666 0148 9F       		.byte	0x9f
 3667 0149 10000000 		.4byte	.LVL14
 3668 014d 12000000 		.4byte	.LVL15
 3669 0151 0100     		.2byte	0x1
 3670 0153 52       		.byte	0x52
 3671 0154 12000000 		.4byte	.LVL15
 3672 0158 20000000 		.4byte	.LFE79
 3673 015c 0400     		.2byte	0x4
 3674 015e F3       		.byte	0xf3
 3675 015f 01       		.uleb128 0x1
 3676 0160 52       		.byte	0x52
 3677 0161 9F       		.byte	0x9f
ARM GAS  C:\Users\164\AppData\Local\Temp\ccELK2nm.s 			page 76


 3678 0162 00000000 		.4byte	0
 3679 0166 00000000 		.4byte	0
 3680              	.LLST11:
 3681 016a 02000000 		.4byte	.LVL11
 3682 016e 0E000000 		.4byte	.LVL13
 3683 0172 0200     		.2byte	0x2
 3684 0174 30       		.byte	0x30
 3685 0175 9F       		.byte	0x9f
 3686 0176 10000000 		.4byte	.LVL14
 3687 017a 12000000 		.4byte	.LVL15
 3688 017e 0200     		.2byte	0x2
 3689 0180 30       		.byte	0x30
 3690 0181 9F       		.byte	0x9f
 3691 0182 12000000 		.4byte	.LVL15
 3692 0186 1D000000 		.4byte	.LVL19-1
 3693 018a 0100     		.2byte	0x1
 3694 018c 52       		.byte	0x52
 3695 018d 00000000 		.4byte	0
 3696 0191 00000000 		.4byte	0
 3697              	.LLST12:
 3698 0195 0A000000 		.4byte	.LVL12
 3699 0199 0E000000 		.4byte	.LVL13
 3700 019d 0300     		.2byte	0x3
 3701 019f 71       		.byte	0x71
 3702 01a0 10       		.sleb128 16
 3703 01a1 9F       		.byte	0x9f
 3704 01a2 00000000 		.4byte	0
 3705 01a6 00000000 		.4byte	0
 3706              	.LLST13:
 3707 01aa 16000000 		.4byte	.LVL16
 3708 01ae 1D000000 		.4byte	.LVL19-1
 3709 01b2 0200     		.2byte	0x2
 3710 01b4 73       		.byte	0x73
 3711 01b5 0C       		.sleb128 12
 3712 01b6 00000000 		.4byte	0
 3713 01ba 00000000 		.4byte	0
 3714              	.LLST14:
 3715 01be 00000000 		.4byte	.LVL20
 3716 01c2 10000000 		.4byte	.LVL22
 3717 01c6 0100     		.2byte	0x1
 3718 01c8 50       		.byte	0x50
 3719 01c9 10000000 		.4byte	.LVL22
 3720 01cd 88000000 		.4byte	.LFE78
 3721 01d1 0100     		.2byte	0x1
 3722 01d3 56       		.byte	0x56
 3723 01d4 00000000 		.4byte	0
 3724 01d8 00000000 		.4byte	0
 3725              	.LLST15:
 3726 01dc 00000000 		.4byte	.LVL20
 3727 01e0 13000000 		.4byte	.LVL23-1
 3728 01e4 0100     		.2byte	0x1
 3729 01e6 51       		.byte	0x51
 3730 01e7 13000000 		.4byte	.LVL23-1
 3731 01eb 88000000 		.4byte	.LFE78
 3732 01ef 0100     		.2byte	0x1
 3733 01f1 54       		.byte	0x54
 3734 01f2 00000000 		.4byte	0
ARM GAS  C:\Users\164\AppData\Local\Temp\ccELK2nm.s 			page 77


 3735 01f6 00000000 		.4byte	0
 3736              	.LLST16:
 3737 01fa 00000000 		.4byte	.LVL20
 3738 01fe 13000000 		.4byte	.LVL23-1
 3739 0202 0100     		.2byte	0x1
 3740 0204 52       		.byte	0x52
 3741 0205 13000000 		.4byte	.LVL23-1
 3742 0209 88000000 		.4byte	.LFE78
 3743 020d 0400     		.2byte	0x4
 3744 020f F3       		.byte	0xf3
 3745 0210 01       		.uleb128 0x1
 3746 0211 52       		.byte	0x52
 3747 0212 9F       		.byte	0x9f
 3748 0213 00000000 		.4byte	0
 3749 0217 00000000 		.4byte	0
 3750              	.LLST17:
 3751 021b 0E000000 		.4byte	.LVL21
 3752 021f 2C000000 		.4byte	.LVL24
 3753 0223 0100     		.2byte	0x1
 3754 0225 55       		.byte	0x55
 3755 0226 32000000 		.4byte	.LVL25
 3756 022a 6E000000 		.4byte	.LVL36
 3757 022e 0100     		.2byte	0x1
 3758 0230 55       		.byte	0x55
 3759 0231 00000000 		.4byte	0
 3760 0235 00000000 		.4byte	0
 3761              	.LLST18:
 3762 0239 3C000000 		.4byte	.LVL27
 3763 023d 52000000 		.4byte	.LVL32
 3764 0241 0100     		.2byte	0x1
 3765 0243 58       		.byte	0x58
 3766 0244 52000000 		.4byte	.LVL32
 3767 0248 58000000 		.4byte	.LVL33
 3768 024c 0100     		.2byte	0x1
 3769 024e 50       		.byte	0x50
 3770 024f 58000000 		.4byte	.LVL33
 3771 0253 5B000000 		.4byte	.LVL34-1
 3772 0257 0100     		.2byte	0x1
 3773 0259 52       		.byte	0x52
 3774 025a 5B000000 		.4byte	.LVL34-1
 3775 025e 72000000 		.4byte	.LVL37
 3776 0262 0100     		.2byte	0x1
 3777 0264 58       		.byte	0x58
 3778 0265 00000000 		.4byte	0
 3779 0269 00000000 		.4byte	0
 3780              	.LLST19:
 3781 026d 46000000 		.4byte	.LVL29
 3782 0271 4C000000 		.4byte	.LVL30
 3783 0275 0100     		.2byte	0x1
 3784 0277 50       		.byte	0x50
 3785 0278 4C000000 		.4byte	.LVL30
 3786 027c 4F000000 		.4byte	.LVL31-1
 3787 0280 0100     		.2byte	0x1
 3788 0282 51       		.byte	0x51
 3789 0283 4F000000 		.4byte	.LVL31-1
 3790 0287 72000000 		.4byte	.LVL37
 3791 028b 0100     		.2byte	0x1
ARM GAS  C:\Users\164\AppData\Local\Temp\ccELK2nm.s 			page 78


 3792 028d 57       		.byte	0x57
 3793 028e 00000000 		.4byte	0
 3794 0292 00000000 		.4byte	0
 3795              	.LLST20:
 3796 0296 00000000 		.4byte	.LVL39
 3797 029a 08000000 		.4byte	.LVL40
 3798 029e 0100     		.2byte	0x1
 3799 02a0 50       		.byte	0x50
 3800 02a1 08000000 		.4byte	.LVL40
 3801 02a5 36000000 		.4byte	.LFE77
 3802 02a9 0400     		.2byte	0x4
 3803 02ab F3       		.byte	0xf3
 3804 02ac 01       		.uleb128 0x1
 3805 02ad 50       		.byte	0x50
 3806 02ae 9F       		.byte	0x9f
 3807 02af 00000000 		.4byte	0
 3808 02b3 00000000 		.4byte	0
 3809              	.LLST21:
 3810 02b7 00000000 		.4byte	.LVL39
 3811 02bb 16000000 		.4byte	.LVL44
 3812 02bf 0100     		.2byte	0x1
 3813 02c1 51       		.byte	0x51
 3814 02c2 16000000 		.4byte	.LVL44
 3815 02c6 2A000000 		.4byte	.LVL49
 3816 02ca 0100     		.2byte	0x1
 3817 02cc 54       		.byte	0x54
 3818 02cd 2A000000 		.4byte	.LVL49
 3819 02d1 2F000000 		.4byte	.LVL51-1
 3820 02d5 0100     		.2byte	0x1
 3821 02d7 51       		.byte	0x51
 3822 02d8 2F000000 		.4byte	.LVL51-1
 3823 02dc 36000000 		.4byte	.LFE77
 3824 02e0 0100     		.2byte	0x1
 3825 02e2 54       		.byte	0x54
 3826 02e3 00000000 		.4byte	0
 3827 02e7 00000000 		.4byte	0
 3828              	.LLST22:
 3829 02eb 00000000 		.4byte	.LVL39
 3830 02ef 14000000 		.4byte	.LVL43
 3831 02f3 0100     		.2byte	0x1
 3832 02f5 52       		.byte	0x52
 3833 02f6 14000000 		.4byte	.LVL43
 3834 02fa 2A000000 		.4byte	.LVL49
 3835 02fe 0400     		.2byte	0x4
 3836 0300 F3       		.byte	0xf3
 3837 0301 01       		.uleb128 0x1
 3838 0302 52       		.byte	0x52
 3839 0303 9F       		.byte	0x9f
 3840 0304 2A000000 		.4byte	.LVL49
 3841 0308 2F000000 		.4byte	.LVL51-1
 3842 030c 0100     		.2byte	0x1
 3843 030e 52       		.byte	0x52
 3844 030f 2F000000 		.4byte	.LVL51-1
 3845 0313 36000000 		.4byte	.LFE77
 3846 0317 0400     		.2byte	0x4
 3847 0319 F3       		.byte	0xf3
 3848 031a 01       		.uleb128 0x1
ARM GAS  C:\Users\164\AppData\Local\Temp\ccELK2nm.s 			page 79


 3849 031b 52       		.byte	0x52
 3850 031c 9F       		.byte	0x9f
 3851 031d 00000000 		.4byte	0
 3852 0321 00000000 		.4byte	0
 3853              	.LLST23:
 3854 0325 08000000 		.4byte	.LVL40
 3855 0329 19000000 		.4byte	.LVL45-1
 3856 032d 0100     		.2byte	0x1
 3857 032f 50       		.byte	0x50
 3858 0330 2A000000 		.4byte	.LVL49
 3859 0334 2C000000 		.4byte	.LVL50
 3860 0338 0100     		.2byte	0x1
 3861 033a 50       		.byte	0x50
 3862 033b 2C000000 		.4byte	.LVL50
 3863 033f 2F000000 		.4byte	.LVL51-1
 3864 0343 0500     		.2byte	0x5
 3865 0345 71       		.byte	0x71
 3866 0346 08       		.sleb128 8
 3867 0347 06       		.byte	0x6
 3868 0348 23       		.byte	0x23
 3869 0349 0C       		.uleb128 0xc
 3870 034a 00000000 		.4byte	0
 3871 034e 00000000 		.4byte	0
 3872              	.LLST24:
 3873 0352 1C000000 		.4byte	.LVL46
 3874 0356 1E000000 		.4byte	.LVL47
 3875 035a 0100     		.2byte	0x1
 3876 035c 50       		.byte	0x50
 3877 035d 1E000000 		.4byte	.LVL47
 3878 0361 2A000000 		.4byte	.LVL49
 3879 0365 0100     		.2byte	0x1
 3880 0367 55       		.byte	0x55
 3881 0368 00000000 		.4byte	0
 3882 036c 00000000 		.4byte	0
 3883              	.LLST25:
 3884 0370 10000000 		.4byte	.LVL41
 3885 0374 12000000 		.4byte	.LVL42
 3886 0378 0300     		.2byte	0x3
 3887 037a 71       		.byte	0x71
 3888 037b 10       		.sleb128 16
 3889 037c 9F       		.byte	0x9f
 3890 037d 00000000 		.4byte	0
 3891 0381 00000000 		.4byte	0
 3892              	.LLST26:
 3893 0385 00000000 		.4byte	.LVL52
 3894 0389 12000000 		.4byte	.LVL55
 3895 038d 0100     		.2byte	0x1
 3896 038f 50       		.byte	0x50
 3897 0390 12000000 		.4byte	.LVL55
 3898 0394 76000000 		.4byte	.LFE76
 3899 0398 0100     		.2byte	0x1
 3900 039a 57       		.byte	0x57
 3901 039b 00000000 		.4byte	0
 3902 039f 00000000 		.4byte	0
 3903              	.LLST27:
 3904 03a3 00000000 		.4byte	.LVL52
 3905 03a7 15000000 		.4byte	.LVL56-1
ARM GAS  C:\Users\164\AppData\Local\Temp\ccELK2nm.s 			page 80


 3906 03ab 0100     		.2byte	0x1
 3907 03ad 51       		.byte	0x51
 3908 03ae 15000000 		.4byte	.LVL56-1
 3909 03b2 76000000 		.4byte	.LFE76
 3910 03b6 0100     		.2byte	0x1
 3911 03b8 54       		.byte	0x54
 3912 03b9 00000000 		.4byte	0
 3913 03bd 00000000 		.4byte	0
 3914              	.LLST28:
 3915 03c1 00000000 		.4byte	.LVL52
 3916 03c5 15000000 		.4byte	.LVL56-1
 3917 03c9 0100     		.2byte	0x1
 3918 03cb 52       		.byte	0x52
 3919 03cc 15000000 		.4byte	.LVL56-1
 3920 03d0 76000000 		.4byte	.LFE76
 3921 03d4 0400     		.2byte	0x4
 3922 03d6 F3       		.byte	0xf3
 3923 03d7 01       		.uleb128 0x1
 3924 03d8 52       		.byte	0x52
 3925 03d9 9F       		.byte	0x9f
 3926 03da 00000000 		.4byte	0
 3927 03de 00000000 		.4byte	0
 3928              	.LLST29:
 3929 03e2 10000000 		.4byte	.LVL54
 3930 03e6 30000000 		.4byte	.LVL57
 3931 03ea 0100     		.2byte	0x1
 3932 03ec 55       		.byte	0x55
 3933 03ed 36000000 		.4byte	.LVL58
 3934 03f1 5C000000 		.4byte	.LVL64
 3935 03f5 0100     		.2byte	0x1
 3936 03f7 55       		.byte	0x55
 3937 03f8 00000000 		.4byte	0
 3938 03fc 00000000 		.4byte	0
 3939              	.LLST30:
 3940 0400 40000000 		.4byte	.LVL60
 3941 0404 46000000 		.4byte	.LVL61
 3942 0408 0100     		.2byte	0x1
 3943 040a 50       		.byte	0x50
 3944 040b 46000000 		.4byte	.LVL61
 3945 040f 49000000 		.4byte	.LVL62-1
 3946 0413 0100     		.2byte	0x1
 3947 0415 51       		.byte	0x51
 3948 0416 49000000 		.4byte	.LVL62-1
 3949 041a 60000000 		.4byte	.LVL65
 3950 041e 0100     		.2byte	0x1
 3951 0420 58       		.byte	0x58
 3952 0421 00000000 		.4byte	0
 3953 0425 00000000 		.4byte	0
 3954              	.LLST31:
 3955 0429 00000000 		.4byte	.LVL67
 3956 042d 24000000 		.4byte	.LVL69
 3957 0431 0100     		.2byte	0x1
 3958 0433 50       		.byte	0x50
 3959 0434 24000000 		.4byte	.LVL69
 3960 0438 2E000000 		.4byte	.LVL70
 3961 043c 0400     		.2byte	0x4
 3962 043e F3       		.byte	0xf3
ARM GAS  C:\Users\164\AppData\Local\Temp\ccELK2nm.s 			page 81


 3963 043f 01       		.uleb128 0x1
 3964 0440 50       		.byte	0x50
 3965 0441 9F       		.byte	0x9f
 3966 0442 2E000000 		.4byte	.LVL70
 3967 0446 36000000 		.4byte	.LVL73
 3968 044a 0100     		.2byte	0x1
 3969 044c 50       		.byte	0x50
 3970 044d 36000000 		.4byte	.LVL73
 3971 0451 39000000 		.4byte	.LVL74-1
 3972 0455 0100     		.2byte	0x1
 3973 0457 51       		.byte	0x51
 3974 0458 39000000 		.4byte	.LVL74-1
 3975 045c 60000000 		.4byte	.LFE75
 3976 0460 0400     		.2byte	0x4
 3977 0462 F3       		.byte	0xf3
 3978 0463 01       		.uleb128 0x1
 3979 0464 50       		.byte	0x50
 3980 0465 9F       		.byte	0x9f
 3981 0466 00000000 		.4byte	0
 3982 046a 00000000 		.4byte	0
 3983              	.LLST32:
 3984 046e 00000000 		.4byte	.LVL67
 3985 0472 24000000 		.4byte	.LVL69
 3986 0476 0100     		.2byte	0x1
 3987 0478 51       		.byte	0x51
 3988 0479 24000000 		.4byte	.LVL69
 3989 047d 2E000000 		.4byte	.LVL70
 3990 0481 0100     		.2byte	0x1
 3991 0483 55       		.byte	0x55
 3992 0484 2E000000 		.4byte	.LVL70
 3993 0488 30000000 		.4byte	.LVL71
 3994 048c 0100     		.2byte	0x1
 3995 048e 51       		.byte	0x51
 3996 048f 30000000 		.4byte	.LVL71
 3997 0493 58000000 		.4byte	.LVL75
 3998 0497 0100     		.2byte	0x1
 3999 0499 55       		.byte	0x55
 4000 049a 58000000 		.4byte	.LVL75
 4001 049e 60000000 		.4byte	.LFE75
 4002 04a2 0400     		.2byte	0x4
 4003 04a4 F3       		.byte	0xf3
 4004 04a5 01       		.uleb128 0x1
 4005 04a6 51       		.byte	0x51
 4006 04a7 9F       		.byte	0x9f
 4007 04a8 00000000 		.4byte	0
 4008 04ac 00000000 		.4byte	0
 4009              	.LLST33:
 4010 04b0 00000000 		.4byte	.LVL67
 4011 04b4 12000000 		.4byte	.LVL68
 4012 04b8 0100     		.2byte	0x1
 4013 04ba 52       		.byte	0x52
 4014 04bb 12000000 		.4byte	.LVL68
 4015 04bf 2E000000 		.4byte	.LVL70
 4016 04c3 0400     		.2byte	0x4
 4017 04c5 F3       		.byte	0xf3
 4018 04c6 01       		.uleb128 0x1
 4019 04c7 52       		.byte	0x52
ARM GAS  C:\Users\164\AppData\Local\Temp\ccELK2nm.s 			page 82


 4020 04c8 9F       		.byte	0x9f
 4021 04c9 2E000000 		.4byte	.LVL70
 4022 04cd 34000000 		.4byte	.LVL72
 4023 04d1 0100     		.2byte	0x1
 4024 04d3 52       		.byte	0x52
 4025 04d4 34000000 		.4byte	.LVL72
 4026 04d8 60000000 		.4byte	.LFE75
 4027 04dc 0400     		.2byte	0x4
 4028 04de F3       		.byte	0xf3
 4029 04df 01       		.uleb128 0x1
 4030 04e0 52       		.byte	0x52
 4031 04e1 9F       		.byte	0x9f
 4032 04e2 00000000 		.4byte	0
 4033 04e6 00000000 		.4byte	0
 4034              	.LLST34:
 4035 04ea 00000000 		.4byte	.LVL76
 4036 04ee 28000000 		.4byte	.LVL77
 4037 04f2 0100     		.2byte	0x1
 4038 04f4 50       		.byte	0x50
 4039 04f5 28000000 		.4byte	.LVL77
 4040 04f9 0C010000 		.4byte	.LFE82
 4041 04fd 0400     		.2byte	0x4
 4042 04ff F3       		.byte	0xf3
 4043 0500 01       		.uleb128 0x1
 4044 0501 50       		.byte	0x50
 4045 0502 9F       		.byte	0x9f
 4046 0503 00000000 		.4byte	0
 4047 0507 00000000 		.4byte	0
 4048              	.LLST35:
 4049 050b 46000000 		.4byte	.LVL82
 4050 050f 4E000000 		.4byte	.LVL83
 4051 0513 0100     		.2byte	0x1
 4052 0515 50       		.byte	0x50
 4053 0516 4E000000 		.4byte	.LVL83
 4054 051a 51000000 		.4byte	.LVL84-1
 4055 051e 0100     		.2byte	0x1
 4056 0520 51       		.byte	0x51
 4057 0521 51000000 		.4byte	.LVL84-1
 4058 0525 9E000000 		.4byte	.LVL91
 4059 0529 0100     		.2byte	0x1
 4060 052b 54       		.byte	0x54
 4061 052c 00000000 		.4byte	0
 4062 0530 00000000 		.4byte	0
 4063              		.section	.debug_aranges,"",%progbits
 4064 0000 64000000 		.4byte	0x64
 4065 0004 0200     		.2byte	0x2
 4066 0006 00000000 		.4byte	.Ldebug_info0
 4067 000a 04       		.byte	0x4
 4068 000b 00       		.byte	0
 4069 000c 0000     		.2byte	0
 4070 000e 0000     		.2byte	0
 4071 0010 00000000 		.4byte	.LFB73
 4072 0014 10000000 		.4byte	.LFE73-.LFB73
 4073 0018 00000000 		.4byte	.LFB74
 4074 001c 10000000 		.4byte	.LFE74-.LFB74
 4075 0020 00000000 		.4byte	.LFB81
 4076 0024 0C000000 		.4byte	.LFE81-.LFB81
ARM GAS  C:\Users\164\AppData\Local\Temp\ccELK2nm.s 			page 83


 4077 0028 00000000 		.4byte	.LFB80
 4078 002c 0C000000 		.4byte	.LFE80-.LFB80
 4079 0030 00000000 		.4byte	.LFB79
 4080 0034 20000000 		.4byte	.LFE79-.LFB79
 4081 0038 00000000 		.4byte	.LFB78
 4082 003c 88000000 		.4byte	.LFE78-.LFB78
 4083 0040 00000000 		.4byte	.LFB77
 4084 0044 36000000 		.4byte	.LFE77-.LFB77
 4085 0048 00000000 		.4byte	.LFB76
 4086 004c 76000000 		.4byte	.LFE76-.LFB76
 4087 0050 00000000 		.4byte	.LFB75
 4088 0054 60000000 		.4byte	.LFE75-.LFB75
 4089 0058 00000000 		.4byte	.LFB82
 4090 005c 0C010000 		.4byte	.LFE82-.LFB82
 4091 0060 00000000 		.4byte	0
 4092 0064 00000000 		.4byte	0
 4093              		.section	.debug_ranges,"",%progbits
 4094              	.Ldebug_ranges0:
 4095 0000 00000000 		.4byte	.LFB73
 4096 0004 10000000 		.4byte	.LFE73
 4097 0008 00000000 		.4byte	.LFB74
 4098 000c 10000000 		.4byte	.LFE74
 4099 0010 00000000 		.4byte	.LFB81
 4100 0014 0C000000 		.4byte	.LFE81
 4101 0018 00000000 		.4byte	.LFB80
 4102 001c 0C000000 		.4byte	.LFE80
 4103 0020 00000000 		.4byte	.LFB79
 4104 0024 20000000 		.4byte	.LFE79
 4105 0028 00000000 		.4byte	.LFB78
 4106 002c 88000000 		.4byte	.LFE78
 4107 0030 00000000 		.4byte	.LFB77
 4108 0034 36000000 		.4byte	.LFE77
 4109 0038 00000000 		.4byte	.LFB76
 4110 003c 76000000 		.4byte	.LFE76
 4111 0040 00000000 		.4byte	.LFB75
 4112 0044 60000000 		.4byte	.LFE75
 4113 0048 00000000 		.4byte	.LFB82
 4114 004c 0C010000 		.4byte	.LFE82
 4115 0050 00000000 		.4byte	0
 4116 0054 00000000 		.4byte	0
 4117              		.section	.debug_line,"",%progbits
 4118              	.Ldebug_line0:
 4119 0000 F2020000 		.section	.debug_str,"MS",%progbits,1
 4119      0200E001 
 4119      00000201 
 4119      FB0E0D00 
 4119      01010101 
 4120              	.LASF154:
 4121 0000 6973725F 		.ascii	"isr_UART_1_Rx_StartEx\000"
 4121      55415254 
 4121      5F315F52 
 4121      785F5374 
 4121      61727445 
 4122              	.LASF110:
 4123 0016 53746172 		.ascii	"Start\000"
 4123      7400
 4124              	.LASF149:
ARM GAS  C:\Users\164\AppData\Local\Temp\ccELK2nm.s 			page 84


 4125 001c 75617274 		.ascii	"uart_write\000"
 4125      5F777269 
 4125      746500
 4126              	.LASF143:
 4127 0027 75617274 		.ascii	"uart_bytes_available\000"
 4127      5F627974 
 4127      65735F61 
 4127      7661696C 
 4127      61626C65 
 4128              	.LASF134:
 4129 003c 75617274 		.ascii	"uart\000"
 4129      00
 4130              	.LASF46:
 4131 0041 4D52425F 		.ascii	"MRB_TT_SYMBOL\000"
 4131      54545F53 
 4131      594D424F 
 4131      4C00
 4132              	.LASF77:
 4133 004f 52486173 		.ascii	"RHash\000"
 4133      6800
 4134              	.LASF67:
 4135 0055 7265665F 		.ascii	"ref_count\000"
 4135      636F756E 
 4135      7400
 4136              	.LASF136:
 4137 005f 6D726263 		.ascii	"mrbc_class_object\000"
 4137      5F636C61 
 4137      73735F6F 
 4137      626A6563 
 4137      7400
 4138              	.LASF13:
 4139 0071 756E7369 		.ascii	"unsigned int\000"
 4139      676E6564 
 4139      20696E74 
 4139      00
 4140              	.LASF72:
 4141 007e 6E657874 		.ascii	"next\000"
 4141      00
 4142              	.LASF95:
 4143 0083 6E5F6172 		.ascii	"n_args\000"
 4143      677300
 4144              	.LASF123:
 4145 008a 61726763 		.ascii	"argc\000"
 4145      00
 4146              	.LASF54:
 4147 008f 6D72625F 		.ascii	"mrb_vtype\000"
 4147      76747970 
 4147      6500
 4148              	.LASF8:
 4149 0099 5F5F696E 		.ascii	"__int32_t\000"
 4149      7433325F 
 4149      7400
 4150              	.LASF27:
 4151 00a3 69726570 		.ascii	"irep\000"
 4151      00
 4152              	.LASF132:
 4153 00a8 635F7561 		.ascii	"c_uart_new\000"
ARM GAS  C:\Users\164\AppData\Local\Temp\ccELK2nm.s 			page 85


 4153      72745F6E 
 4153      657700
 4154              	.LASF81:
 4155 00b3 524B6579 		.ascii	"RKeyValueHandle\000"
 4155      56616C75 
 4155      6548616E 
 4155      646C6500 
 4156              	.LASF124:
 4157 00c3 635F7561 		.ascii	"c_uart_clear_rx_buffer\000"
 4157      72745F63 
 4157      6C656172 
 4157      5F72785F 
 4157      62756666 
 4158              	.LASF109:
 4159 00da 52585F53 		.ascii	"RX_STS_FIFO_NOTEMPTY\000"
 4159      54535F46 
 4159      49464F5F 
 4159      4E4F5445 
 4159      4D505459 
 4160              	.LASF70:
 4161 00ef 5250726F 		.ascii	"RProc\000"
 4161      6300
 4162              	.LASF82:
 4163 00f5 66756E63 		.ascii	"func\000"
 4163      00
 4164              	.LASF103:
 4165 00fa 6D6F6465 		.ascii	"mode\000"
 4165      00
 4166              	.LASF30:
 4167 00ff 72656773 		.ascii	"regs\000"
 4167      00
 4168              	.LASF115:
 4169 0104 52656164 		.ascii	"ReadTxStatus\000"
 4169      54785374 
 4169      61747573 
 4169      00
 4170              	.LASF41:
 4171 0111 4D52425F 		.ascii	"MRB_TT_NIL\000"
 4171      54545F4E 
 4171      494C00
 4172              	.LASF90:
 4173 011c 706F6F6C 		.ascii	"pools\000"
 4173      7300
 4174              	.LASF31:
 4175 0122 63757272 		.ascii	"current_regs\000"
 4175      656E745F 
 4175      72656773 
 4175      00
 4176              	.LASF14:
 4177 012f 696E7438 		.ascii	"int8_t\000"
 4177      5F7400
 4178              	.LASF100:
 4179 0136 73697A65 		.ascii	"size_txbuf\000"
 4179      5F747862 
 4179      756600
 4180              	.LASF62:
 4181 0141 52436C61 		.ascii	"RClass\000"
ARM GAS  C:\Users\164\AppData\Local\Temp\ccELK2nm.s 			page 86


 4181      737300
 4182              	.LASF20:
 4183 0148 666C6F61 		.ascii	"float\000"
 4183      7400
 4184              	.LASF155:
 4185 014e 6D726263 		.ascii	"mrbc_define_class\000"
 4185      5F646566 
 4185      696E655F 
 4185      636C6173 
 4185      7300
 4186              	.LASF130:
 4187 0160 6E656564 		.ascii	"need_length\000"
 4187      5F6C656E 
 4187      67746800 
 4188              	.LASF16:
 4189 016c 696E7431 		.ascii	"int16_t\000"
 4189      365F7400 
 4190              	.LASF44:
 4191 0174 4D52425F 		.ascii	"MRB_TT_FIXNUM\000"
 4191      54545F46 
 4191      49584E55 
 4191      4D00
 4192              	.LASF158:
 4193 0182 2E2E5C2E 		.ascii	"..\\..\\mruby_c2\\Design01.cydsn\\c_uart.c\000"
 4193      2E5C6D72 
 4193      7562795F 
 4193      63325C44 
 4193      65736967 
 4194              	.LASF12:
 4195 01a9 6C6F6E67 		.ascii	"long long unsigned int\000"
 4195      206C6F6E 
 4195      6720756E 
 4195      7369676E 
 4195      65642069 
 4196              	.LASF146:
 4197 01c0 6D726263 		.ascii	"mrbc_realloc\000"
 4197      5F726561 
 4197      6C6C6F63 
 4197      00
 4198              	.LASF78:
 4199 01cd 6D72625F 		.ascii	"mrb_object\000"
 4199      6F626A65 
 4199      637400
 4200              	.LASF118:
 4201 01d8 6D726263 		.ascii	"mrbc_string_cstr\000"
 4201      5F737472 
 4201      696E675F 
 4201      63737472 
 4201      00
 4202              	.LASF6:
 4203 01e9 5F5F7569 		.ascii	"__uint16_t\000"
 4203      6E743136 
 4203      5F7400
 4204              	.LASF128:
 4205 01f4 635F7561 		.ascii	"c_uart_write\000"
 4205      72745F77 
 4205      72697465 
ARM GAS  C:\Users\164\AppData\Local\Temp\ccELK2nm.s 			page 87


 4205      00
 4206              	.LASF28:
 4207 0201 766D5F69 		.ascii	"vm_id\000"
 4207      6400
 4208              	.LASF33:
 4209 0207 63616C6C 		.ascii	"callinfo\000"
 4209      696E666F 
 4209      00
 4210              	.LASF84:
 4211 0210 6E6C6F63 		.ascii	"nlocals\000"
 4211      616C7300 
 4212              	.LASF112:
 4213 0218 436C6561 		.ascii	"ClearTxBuffer\000"
 4213      72547842 
 4213      75666665 
 4213      7200
 4214              	.LASF148:
 4215 0226 6D726263 		.ascii	"mrbc_release\000"
 4215      5F72656C 
 4215      65617365 
 4215      00
 4216              	.LASF140:
 4217 0233 75617274 		.ascii	"uart_clear_tx_buffer\000"
 4217      5F636C65 
 4217      61725F74 
 4217      785F6275 
 4217      66666572 
 4218              	.LASF48:
 4219 0248 4D52425F 		.ascii	"MRB_TT_OBJECT\000"
 4219      54545F4F 
 4219      424A4543 
 4219      5400
 4220              	.LASF56:
 4221 0256 696E7374 		.ascii	"instance\000"
 4221      616E6365 
 4221      00
 4222              	.LASF29:
 4223 025f 70635F69 		.ascii	"pc_irep\000"
 4223      72657000 
 4224              	.LASF157:
 4225 0267 474E5520 		.ascii	"GNU C11 5.4.1 20160609 (release) [ARM/embedded-5-br"
 4225      43313120 
 4225      352E342E 
 4225      31203230 
 4225      31363036 
 4226 029a 616E6368 		.ascii	"anch revision 237715] -mcpu=cortex-m3 -mthumb -g -O"
 4226      20726576 
 4226      6973696F 
 4226      6E203233 
 4226      37373135 
 4227 02cd 67202D66 		.ascii	"g -ffunction-sections -ffat-lto-objects\000"
 4227      66756E63 
 4227      74696F6E 
 4227      2D736563 
 4227      74696F6E 
 4228              	.LASF79:
 4229 02f5 6D72625F 		.ascii	"mrb_value\000"
ARM GAS  C:\Users\164\AppData\Local\Temp\ccELK2nm.s 			page 88


 4229      76616C75 
 4229      6500
 4230              	.LASF85:
 4231 02ff 6E726567 		.ascii	"nregs\000"
 4231      7300
 4232              	.LASF131:
 4233 0305 444F4E45 		.ascii	"DONE\000"
 4233      00
 4234              	.LASF65:
 4235 030a 70726F63 		.ascii	"procs\000"
 4235      7300
 4236              	.LASF122:
 4237 0310 6973725F 		.ascii	"isr_UART_1_Rx\000"
 4237      55415254 
 4237      5F315F52 
 4237      7800
 4238              	.LASF94:
 4239 031e 43414C4C 		.ascii	"CALLINFO\000"
 4239      494E464F 
 4239      00
 4240              	.LASF26:
 4241 0327 6D72625F 		.ascii	"mrb_func_t\000"
 4241      66756E63 
 4241      5F7400
 4242              	.LASF135:
 4243 0332 49544D5F 		.ascii	"ITM_RxBuffer\000"
 4243      52784275 
 4243      66666572 
 4243      00
 4244              	.LASF51:
 4245 033f 4D52425F 		.ascii	"MRB_TT_STRING\000"
 4245      54545F53 
 4245      5452494E 
 4245      4700
 4246              	.LASF89:
 4247 034d 636F6465 		.ascii	"code\000"
 4247      00
 4248              	.LASF133:
 4249 0352 6D726263 		.ascii	"mrbc_init_class_uart\000"
 4249      5F696E69 
 4249      745F636C 
 4249      6173735F 
 4249      75617274 
 4250              	.LASF50:
 4251 0367 4D52425F 		.ascii	"MRB_TT_ARRAY\000"
 4251      54545F41 
 4251      52524159 
 4251      00
 4252              	.LASF93:
 4253 0374 6D72625F 		.ascii	"mrb_irep\000"
 4253      69726570 
 4253      00
 4254              	.LASF37:
 4255 037d 666C6167 		.ascii	"flag_need_memfree\000"
 4255      5F6E6565 
 4255      645F6D65 
 4255      6D667265 
ARM GAS  C:\Users\164\AppData\Local\Temp\ccELK2nm.s 			page 89


 4255      6500
 4256              	.LASF91:
 4257 038f 7074725F 		.ascii	"ptr_to_sym\000"
 4257      746F5F73 
 4257      796D00
 4258              	.LASF151:
 4259 039a 6D726263 		.ascii	"mrbc_instance_new\000"
 4259      5F696E73 
 4259      74616E63 
 4259      655F6E65 
 4259      7700
 4260              	.LASF22:
 4261 03ac 63686172 		.ascii	"char\000"
 4261      00
 4262              	.LASF114:
 4263 03b1 52656164 		.ascii	"ReadRxStatus\000"
 4263      52785374 
 4263      61747573 
 4263      00
 4264              	.LASF126:
 4265 03be 635F7561 		.ascii	"c_uart_puts\000"
 4265      72745F70 
 4265      75747300 
 4266              	.LASF68:
 4267 03ca 69766172 		.ascii	"ivar\000"
 4267      00
 4268              	.LASF64:
 4269 03cf 73757065 		.ascii	"super\000"
 4269      7200
 4270              	.LASF59:
 4271 03d5 73747269 		.ascii	"string\000"
 4271      6E6700
 4272              	.LASF52:
 4273 03dc 4D52425F 		.ascii	"MRB_TT_RANGE\000"
 4273      54545F52 
 4273      414E4745 
 4273      00
 4274              	.LASF69:
 4275 03e9 64617461 		.ascii	"data\000"
 4275      00
 4276              	.LASF15:
 4277 03ee 75696E74 		.ascii	"uint8_t\000"
 4277      385F7400 
 4278              	.LASF34:
 4279 03f6 74617267 		.ascii	"target_class\000"
 4279      65745F63 
 4279      6C617373 
 4279      00
 4280              	.LASF121:
 4281 0403 6973725F 		.ascii	"isr_UART_1_Tx\000"
 4281      55415254 
 4281      5F315F54 
 4281      7800
 4282              	.LASF32:
 4283 0411 63616C6C 		.ascii	"callinfo_top\000"
 4283      696E666F 
 4283      5F746F70 
ARM GAS  C:\Users\164\AppData\Local\Temp\ccELK2nm.s 			page 90


 4283      00
 4284              	.LASF152:
 4285 041e 75617274 		.ascii	"uart_init_m\000"
 4285      5F696E69 
 4285      745F6D00 
 4286              	.LASF11:
 4287 042a 6C6F6E67 		.ascii	"long long int\000"
 4287      206C6F6E 
 4287      6720696E 
 4287      7400
 4288              	.LASF63:
 4289 0438 73796D5F 		.ascii	"sym_id\000"
 4289      696400
 4290              	.LASF156:
 4291 043f 6D726263 		.ascii	"mrbc_define_method\000"
 4291      5F646566 
 4291      696E655F 
 4291      6D657468 
 4291      6F6400
 4292              	.LASF4:
 4293 0452 5F5F696E 		.ascii	"__int16_t\000"
 4293      7431365F 
 4293      7400
 4294              	.LASF113:
 4295 045c 436C6561 		.ascii	"ClearRxBuffer\000"
 4295      72527842 
 4295      75666665 
 4295      7200
 4296              	.LASF104:
 4297 046a 64656C69 		.ascii	"delimiter\000"
 4297      6D697465 
 4297      7200
 4298              	.LASF153:
 4299 0474 6973725F 		.ascii	"isr_UART_1_Tx_StartEx\000"
 4299      55415254 
 4299      5F315F54 
 4299      785F5374 
 4299      61727445 
 4300              	.LASF74:
 4301 048a 73697A65 		.ascii	"size\000"
 4301      00
 4302              	.LASF40:
 4303 048f 4D52425F 		.ascii	"MRB_TT_EMPTY\000"
 4303      54545F45 
 4303      4D505459 
 4303      00
 4304              	.LASF60:
 4305 049c 72616E67 		.ascii	"range\000"
 4305      6500
 4306              	.LASF66:
 4307 04a2 52496E73 		.ascii	"RInstance\000"
 4307      74616E63 
 4307      6500
 4308              	.LASF142:
 4309 04ac 75617274 		.ascii	"uart_can_read_line\000"
 4309      5F63616E 
 4309      5F726561 
ARM GAS  C:\Users\164\AppData\Local\Temp\ccELK2nm.s 			page 91


 4309      645F6C69 
 4309      6E6500
 4310              	.LASF98:
 4311 04bf 55415254 		.ascii	"UART_HANDLE\000"
 4311      5F48414E 
 4311      444C4500 
 4312              	.LASF105:
 4313 04cb 72785F72 		.ascii	"rx_rd\000"
 4313      6400
 4314              	.LASF0:
 4315 04d1 5F5F696E 		.ascii	"__int8_t\000"
 4315      74385F74 
 4315      00
 4316              	.LASF43:
 4317 04da 4D52425F 		.ascii	"MRB_TT_TRUE\000"
 4317      54545F54 
 4317      52554500 
 4318              	.LASF58:
 4319 04e6 61727261 		.ascii	"array\000"
 4319      7900
 4320              	.LASF42:
 4321 04ec 4D52425F 		.ascii	"MRB_TT_FALSE\000"
 4321      54545F46 
 4321      414C5345 
 4321      00
 4322              	.LASF119:
 4323 04f9 6D72625F 		.ascii	"mrb_nil_value\000"
 4323      6E696C5F 
 4323      76616C75 
 4323      6500
 4324              	.LASF23:
 4325 0507 6C6F6E67 		.ascii	"long double\000"
 4325      20646F75 
 4325      626C6500 
 4326              	.LASF17:
 4327 0513 75696E74 		.ascii	"uint16_t\000"
 4327      31365F74 
 4327      00
 4328              	.LASF25:
 4329 051c 6D72625F 		.ascii	"mrb_sym\000"
 4329      73796D00 
 4330              	.LASF47:
 4331 0524 4D52425F 		.ascii	"MRB_TT_CLASS\000"
 4331      54545F43 
 4331      4C415353 
 4331      00
 4332              	.LASF5:
 4333 0531 73686F72 		.ascii	"short int\000"
 4333      7420696E 
 4333      7400
 4334              	.LASF145:
 4335 053b 75617274 		.ascii	"uart_gets\000"
 4335      5F676574 
 4335      7300
 4336              	.LASF125:
 4337 0545 635F7561 		.ascii	"c_uart_clear_tx_buffer\000"
 4337      72745F63 
ARM GAS  C:\Users\164\AppData\Local\Temp\ccELK2nm.s 			page 92


 4337      6C656172 
 4337      5F74785F 
 4337      62756666 
 4338              	.LASF9:
 4339 055c 6C6F6E67 		.ascii	"long int\000"
 4339      20696E74 
 4339      00
 4340              	.LASF61:
 4341 0565 68617368 		.ascii	"hash\000"
 4341      00
 4342              	.LASF38:
 4343 056a 524F626A 		.ascii	"RObject\000"
 4343      65637400 
 4344              	.LASF139:
 4345 0572 75617274 		.ascii	"uart_clear_rx_buffer\000"
 4345      5F636C65 
 4345      61725F72 
 4345      785F6275 
 4345      66666572 
 4346              	.LASF87:
 4347 0587 696C656E 		.ascii	"ilen\000"
 4347      00
 4348              	.LASF1:
 4349 058c 5F5F7569 		.ascii	"__uint8_t\000"
 4349      6E74385F 
 4349      7400
 4350              	.LASF92:
 4351 0596 72657073 		.ascii	"reps\000"
 4351      00
 4352              	.LASF88:
 4353 059b 706C656E 		.ascii	"plen\000"
 4353      00
 4354              	.LASF150:
 4355 05a0 75617274 		.ascii	"uart_read\000"
 4355      5F726561 
 4355      6400
 4356              	.LASF116:
 4357 05aa 57726974 		.ascii	"WriteTxData\000"
 4357      65547844 
 4357      61746100 
 4358              	.LASF73:
 4359 05b6 52537472 		.ascii	"RString\000"
 4359      696E6700 
 4360              	.LASF57:
 4361 05be 70726F63 		.ascii	"proc\000"
 4361      00
 4362              	.LASF24:
 4363 05c3 73697A65 		.ascii	"sizetype\000"
 4363      74797065 
 4363      00
 4364              	.LASF10:
 4365 05cc 6C6F6E67 		.ascii	"long unsigned int\000"
 4365      20756E73 
 4365      69676E65 
 4365      6420696E 
 4365      7400
 4366              	.LASF80:
ARM GAS  C:\Users\164\AppData\Local\Temp\ccELK2nm.s 			page 93


 4367 05de 6D72625F 		.ascii	"mrb_class\000"
 4367      636C6173 
 4367      7300
 4368              	.LASF18:
 4369 05e8 696E7433 		.ascii	"int32_t\000"
 4369      325F7400 
 4370              	.LASF86:
 4371 05f0 726C656E 		.ascii	"rlen\000"
 4371      00
 4372              	.LASF83:
 4373 05f5 49524550 		.ascii	"IREP\000"
 4373      00
 4374              	.LASF53:
 4375 05fa 4D52425F 		.ascii	"MRB_TT_HASH\000"
 4375      54545F48 
 4375      41534800 
 4376              	.LASF147:
 4377 0606 6D726263 		.ascii	"mrbc_string_new_alloc\000"
 4377      5F737472 
 4377      696E675F 
 4377      6E65775F 
 4377      616C6C6F 
 4378              	.LASF108:
 4379 061c 54585F53 		.ascii	"TX_STS_COMPLETE\000"
 4379      54535F43 
 4379      4F4D504C 
 4379      45544500 
 4380              	.LASF3:
 4381 062c 756E7369 		.ascii	"unsigned char\000"
 4381      676E6564 
 4381      20636861 
 4381      7200
 4382              	.LASF97:
 4383 063a 6D72625F 		.ascii	"mrb_vm\000"
 4383      766D00
 4384              	.LASF111:
 4385 0641 53746F70 		.ascii	"Stop\000"
 4385      00
 4386              	.LASF159:
 4387 0646 433A5C55 		.ascii	"C:\\Users\\164\\Documents\\PSoC Creator\\mcmc\\Desi"
 4387      73657273 
 4387      5C313634 
 4387      5C446F63 
 4387      756D656E 
 4388 0673 676E3031 		.ascii	"gn01.cydsn\000"
 4388      2E637964 
 4388      736E00
 4389              	.LASF138:
 4390 067e 75617274 		.ascii	"uart_isr_rx\000"
 4390      5F697372 
 4390      5F727800 
 4391              	.LASF99:
 4392 068a 705F7478 		.ascii	"p_txbuf\000"
 4392      62756600 
 4393              	.LASF117:
 4394 0692 52656164 		.ascii	"ReadRxData\000"
 4394      52784461 
ARM GAS  C:\Users\164\AppData\Local\Temp\ccELK2nm.s 			page 94


 4394      746100
 4395              	.LASF144:
 4396 069d 6D726263 		.ascii	"mrbc_alloc\000"
 4396      5F616C6C 
 4396      6F6300
 4397              	.LASF127:
 4398 06a8 635F7561 		.ascii	"c_uart_gets\000"
 4398      72745F67 
 4398      65747300 
 4399              	.LASF35:
 4400 06b4 6572726F 		.ascii	"error_code\000"
 4400      725F636F 
 4400      646500
 4401              	.LASF71:
 4402 06bf 635F6675 		.ascii	"c_func\000"
 4402      6E6300
 4403              	.LASF36:
 4404 06c6 666C6167 		.ascii	"flag_preemption\000"
 4404      5F707265 
 4404      656D7074 
 4404      696F6E00 
 4405              	.LASF101:
 4406 06d6 74785F72 		.ascii	"tx_rd\000"
 4406      6400
 4407              	.LASF120:
 4408 06dc 6D726263 		.ascii	"mrbc_string_size\000"
 4408      5F737472 
 4408      696E675F 
 4408      73697A65 
 4408      00
 4409              	.LASF49:
 4410 06ed 4D52425F 		.ascii	"MRB_TT_PROC\000"
 4410      54545F50 
 4410      524F4300 
 4411              	.LASF2:
 4412 06f9 7369676E 		.ascii	"signed char\000"
 4412      65642063 
 4412      68617200 
 4413              	.LASF7:
 4414 0705 73686F72 		.ascii	"short unsigned int\000"
 4414      7420756E 
 4414      7369676E 
 4414      65642069 
 4414      6E7400
 4415              	.LASF55:
 4416 0718 68616E64 		.ascii	"handle\000"
 4416      6C6500
 4417              	.LASF96:
 4418 071f 6D72625F 		.ascii	"mrb_callinfo\000"
 4418      63616C6C 
 4418      696E666F 
 4418      00
 4419              	.LASF75:
 4420 072c 52417272 		.ascii	"RArray\000"
 4420      617900
 4421              	.LASF141:
 4422 0733 75617274 		.ascii	"uart_puts\000"
ARM GAS  C:\Users\164\AppData\Local\Temp\ccELK2nm.s 			page 95


 4422      5F707574 
 4422      7300
 4423              	.LASF19:
 4424 073d 75696E74 		.ascii	"uint8\000"
 4424      3800
 4425              	.LASF21:
 4426 0743 646F7562 		.ascii	"double\000"
 4426      6C6500
 4427              	.LASF106:
 4428 074a 72785F77 		.ascii	"rx_wr\000"
 4428      7200
 4429              	.LASF107:
 4430 0750 72786669 		.ascii	"rxfifo\000"
 4430      666F00
 4431              	.LASF129:
 4432 0757 635F7561 		.ascii	"c_uart_read\000"
 4432      72745F72 
 4432      65616400 
 4433              	.LASF39:
 4434 0763 4D52425F 		.ascii	"MRB_TT_HANDLE\000"
 4434      54545F48 
 4434      414E444C 
 4434      4500
 4435              	.LASF160:
 4436 0771 76616C75 		.ascii	"value\000"
 4436      6500
 4437              	.LASF76:
 4438 0777 5252616E 		.ascii	"RRange\000"
 4438      676500
 4439              	.LASF45:
 4440 077e 4D52425F 		.ascii	"MRB_TT_FLOAT\000"
 4440      54545F46 
 4440      4C4F4154 
 4440      00
 4441              	.LASF102:
 4442 078b 666C6167 		.ascii	"flag_tx_finished\000"
 4442      5F74785F 
 4442      66696E69 
 4442      73686564 
 4442      00
 4443              	.LASF137:
 4444 079c 75617274 		.ascii	"uart_isr_tx\000"
 4444      5F697372 
 4444      5F747800 
 4445              		.ident	"GCC: (GNU Tools for ARM Embedded Processors) 5.4.1 20160609 (release) [ARM/embedded-5-bran
