ARM GAS  C:\Users\164\AppData\Local\Temp\ccwvZXmi.s 			page 1


   1              		.syntax unified
   2              		.cpu cortex-m3
   3              		.fpu softvfp
   4              		.eabi_attribute 20, 1
   5              		.eabi_attribute 21, 1
   6              		.eabi_attribute 23, 3
   7              		.eabi_attribute 24, 1
   8              		.eabi_attribute 25, 1
   9              		.eabi_attribute 26, 1
  10              		.eabi_attribute 30, 1
  11              		.eabi_attribute 34, 1
  12              		.eabi_attribute 18, 4
  13              		.thumb
  14              		.syntax unified
  15              		.file	"c_uart.c"
  16              		.text
  17              	.Ltext0:
  18              		.cfi_sections	.debug_frame
  19              		.section	.text.isr_UART_1_Tx,"ax",%progbits
  20              		.align	2
  21              		.global	isr_UART_1_Tx
  22              		.thumb
  23              		.thumb_func
  24              		.type	isr_UART_1_Tx, %function
  25              	isr_UART_1_Tx:
  26              	.LFB76:
  27              		.file 1 "c_uart.c"
   1:c_uart.c      **** /*! @file
   2:c_uart.c      ****   @brief
   3:c_uart.c      ****   UART class for Cypress PSoC5LP
   4:c_uart.c      **** 
   5:c_uart.c      ****   <pre>
   6:c_uart.c      ****   Copyright (C) 2018 Kyushu Institute of Technology.
   7:c_uart.c      ****   Copyright (C) 2018 Shimane IT Open-Innovation Center.
   8:c_uart.c      **** 
   9:c_uart.c      ****   This file is distributed under BSD 3-Clause License.
  10:c_uart.c      **** 
  11:c_uart.c      ****   (Usage)
  12:c_uart.c      ****   PSoC Creator で、以下の通りUARTデバイスを設置
  13:c_uart.c      ****     * Communication > UARTデバイス配置
  14:c_uart.c      ****     * Configureダイアログを開く
  15:c_uart.c      ****     * Nameが"UART_1"であることを確認
  16:c_uart.c      ****     * 通信速度等のパラメータ設定
  17:c_uart.c      ****     * 同ダイアログAdvancedタブのInterruptを、"RX- On Byte Received"と
  18:c_uart.c      ****       "TX - On TX Complete"にチェックを入れる
  19:c_uart.c      ****     * System > Interrupt デバイスを2つ配置
  20:c_uart.c      ****     * UARTのtx_interruptとrx_interruptに接続
  21:c_uart.c      ****     * 名前をそれぞれ、"isr_UART_1_Tx"と、"isr_UART_1_Rx"に変更
  22:c_uart.c      **** 
  23:c_uart.c      ****   main.cに、以下の記述を追加。
  24:c_uart.c      ****     #include <c_uart.h>
  25:c_uart.c      ****     mrbc_init_class_uart(0);
  26:c_uart.c      **** 
  27:c_uart.c      ****   必要に応じて、UART_SIZE_RXFIFOマクロに、一行最大文字列を定義する。
  28:c_uart.c      ****   デフォルトは、128bytes。
  29:c_uart.c      **** 
  30:c_uart.c      **** 
ARM GAS  C:\Users\164\AppData\Local\Temp\ccwvZXmi.s 			page 2


  31:c_uart.c      ****   (on Ruby)
  32:c_uart.c      ****     uart1 = UART.new()
  33:c_uart.c      ****     uart.puts( "STRING\r\n" )
  34:c_uart.c      ****     s = uart.gets()
  35:c_uart.c      **** 
  36:c_uart.c      ****   </pre>
  37:c_uart.c      **** */
  38:c_uart.c      **** 
  39:c_uart.c      **** 
  40:c_uart.c      **** #include "vm_config.h"
  41:c_uart.c      **** #include <stdint.h>
  42:c_uart.c      **** #include <project.h>	// auto generated by PSoC Creator.
  43:c_uart.c      **** 
  44:c_uart.c      **** #include "value.h"
  45:c_uart.c      **** #include "alloc.h"
  46:c_uart.c      **** #include "static.h"
  47:c_uart.c      **** #include "class.h"
  48:c_uart.c      **** #include "c_string.h"
  49:c_uart.c      **** 
  50:c_uart.c      **** #include "uart2.h"
  51:c_uart.c      **** 
  52:c_uart.c      **** 
  53:c_uart.c      **** //================================================================
  54:c_uart.c      **** /*! UART用設定
  55:c_uart.c      **** */
  56:c_uart.c      **** #define NUM_UART 1
  57:c_uart.c      **** UART_HANDLE uh[NUM_UART];
  58:c_uart.c      **** UART_ISR( &uh[0], UART_1 );
  28              		.loc 1 58 0
  29              		.cfi_startproc
  30              		@ args = 0, pretend = 0, frame = 0
  31              		@ frame_needed = 0, uses_anonymous_args = 0
  32 0000 08B5     		push	{r3, lr}
  33              		.cfi_def_cfa_offset 8
  34              		.cfi_offset 3, -8
  35              		.cfi_offset 14, -4
  36              		.loc 1 58 0
  37 0002 0248     		ldr	r0, .L3
  38 0004 FFF7FEFF 		bl	uart_isr_tx
  39              	.LVL0:
  40 0008 08BD     		pop	{r3, pc}
  41              	.L4:
  42 000a 00BF     		.align	2
  43              	.L3:
  44 000c 00000000 		.word	uh
  45              		.cfi_endproc
  46              	.LFE76:
  47              		.size	isr_UART_1_Tx, .-isr_UART_1_Tx
  48              		.section	.text.isr_UART_1_Rx,"ax",%progbits
  49              		.align	2
  50              		.global	isr_UART_1_Rx
  51              		.thumb
  52              		.thumb_func
  53              		.type	isr_UART_1_Rx, %function
  54              	isr_UART_1_Rx:
  55              	.LFB77:
  56              		.loc 1 58 0
ARM GAS  C:\Users\164\AppData\Local\Temp\ccwvZXmi.s 			page 3


  57              		.cfi_startproc
  58              		@ args = 0, pretend = 0, frame = 0
  59              		@ frame_needed = 0, uses_anonymous_args = 0
  60 0000 08B5     		push	{r3, lr}
  61              		.cfi_def_cfa_offset 8
  62              		.cfi_offset 3, -8
  63              		.cfi_offset 14, -4
  64              		.loc 1 58 0
  65 0002 0248     		ldr	r0, .L7
  66 0004 FFF7FEFF 		bl	uart_isr_rx
  67              	.LVL1:
  68 0008 08BD     		pop	{r3, pc}
  69              	.L8:
  70 000a 00BF     		.align	2
  71              	.L7:
  72 000c 00000000 		.word	uh
  73              		.cfi_endproc
  74              	.LFE77:
  75              		.size	isr_UART_1_Rx, .-isr_UART_1_Rx
  76              		.section	.text.c_uart_clear_rx_buffer,"ax",%progbits
  77              		.align	2
  78              		.thumb
  79              		.thumb_func
  80              		.type	c_uart_clear_rx_buffer, %function
  81              	c_uart_clear_rx_buffer:
  82              	.LFB84:
  59:c_uart.c      **** // UART_ISR( &uh[1], UART_2 );
  60:c_uart.c      **** 
  61:c_uart.c      **** 
  62:c_uart.c      **** //================================================================
  63:c_uart.c      **** /*! UART constructor
  64:c_uart.c      **** */
  65:c_uart.c      **** static void c_uart_new(mrb_vm *vm, mrb_value v[], int argc)
  66:c_uart.c      **** {
  67:c_uart.c      ****   static int num = 0;
  68:c_uart.c      **** 
  69:c_uart.c      ****   if( num >= NUM_UART ) {
  70:c_uart.c      ****     *v = mrb_nil_value();
  71:c_uart.c      ****     return;
  72:c_uart.c      ****   }
  73:c_uart.c      **** 
  74:c_uart.c      ****   *v = mrbc_instance_new(vm, v->cls, sizeof(UART_HANDLE *));
  75:c_uart.c      ****   *((UART_HANDLE **)v->instance->data) = &uh[num++];
  76:c_uart.c      **** }
  77:c_uart.c      **** 
  78:c_uart.c      **** 
  79:c_uart.c      **** //================================================================
  80:c_uart.c      **** /*! read
  81:c_uart.c      ****   s = $uart.read(n)
  82:c_uart.c      **** */
  83:c_uart.c      **** static void c_uart_read(mrb_vm *vm, mrb_value v[], int argc)
  84:c_uart.c      **** {
  85:c_uart.c      ****   mrb_value ret;
  86:c_uart.c      ****   UART_HANDLE *handle = *(UART_HANDLE **)v->instance->data;
  87:c_uart.c      ****   int need_length = GET_INT_ARG(1);
  88:c_uart.c      **** 
  89:c_uart.c      ****   if( uart_bytes_available(handle) < need_length ) {
ARM GAS  C:\Users\164\AppData\Local\Temp\ccwvZXmi.s 			page 4


  90:c_uart.c      ****     ret = mrb_nil_value();
  91:c_uart.c      ****     goto DONE;
  92:c_uart.c      ****   }
  93:c_uart.c      **** 
  94:c_uart.c      ****   char *buf = mrbc_alloc( vm, need_length + 1 );
  95:c_uart.c      ****   uart_read( handle, buf, need_length );
  96:c_uart.c      **** 
  97:c_uart.c      ****   ret = mrbc_string_new_alloc( vm, buf, need_length );
  98:c_uart.c      **** 
  99:c_uart.c      ****  DONE:
 100:c_uart.c      ****   SET_RETURN(ret);
 101:c_uart.c      **** }
 102:c_uart.c      **** 
 103:c_uart.c      **** 
 104:c_uart.c      **** //================================================================
 105:c_uart.c      **** /*! write
 106:c_uart.c      ****   $uart.write(s)
 107:c_uart.c      **** */
 108:c_uart.c      **** static void c_uart_write(mrb_vm *vm, mrb_value v[], int argc)
 109:c_uart.c      **** {
 110:c_uart.c      ****   UART_HANDLE *handle = *(UART_HANDLE **)v->instance->data;
 111:c_uart.c      **** 
 112:c_uart.c      ****   switch( v[1].tt ) {
 113:c_uart.c      ****   case MRBC_TT_STRING: {
 114:c_uart.c      ****     int n = uart_write( handle,
 115:c_uart.c      **** 			mrbc_string_cstr(&v[1]), mrbc_string_size(&v[1]) );
 116:c_uart.c      ****     SET_INT_RETURN(n);
 117:c_uart.c      ****   } break;
 118:c_uart.c      **** 
 119:c_uart.c      ****   default:
 120:c_uart.c      ****     SET_NIL_RETURN();
 121:c_uart.c      ****     break;
 122:c_uart.c      ****   }
 123:c_uart.c      **** }
 124:c_uart.c      **** 
 125:c_uart.c      **** 
 126:c_uart.c      **** //================================================================
 127:c_uart.c      **** /*! gets
 128:c_uart.c      **** */
 129:c_uart.c      **** static void c_uart_gets(mrb_vm *vm, mrb_value v[], int argc)
 130:c_uart.c      **** {
 131:c_uart.c      ****   mrb_value ret;
 132:c_uart.c      ****   UART_HANDLE *handle = *(UART_HANDLE **)v->instance->data;
 133:c_uart.c      **** 
 134:c_uart.c      ****   if( !uart_can_read_line( handle ) ) {
 135:c_uart.c      ****     ret = mrb_nil_value();
 136:c_uart.c      ****     goto DONE;
 137:c_uart.c      ****   }
 138:c_uart.c      **** 
 139:c_uart.c      ****   int len = uart_bytes_available( handle ) + 1;
 140:c_uart.c      ****   char *buf = mrbc_alloc( vm, len );
 141:c_uart.c      **** 
 142:c_uart.c      ****   len = uart_gets( handle, buf, len );
 143:c_uart.c      ****   mrbc_realloc( vm, buf, len );
 144:c_uart.c      **** 
 145:c_uart.c      ****   ret = mrbc_string_new_alloc( vm, buf, len );
 146:c_uart.c      **** 
ARM GAS  C:\Users\164\AppData\Local\Temp\ccwvZXmi.s 			page 5


 147:c_uart.c      ****  DONE:
 148:c_uart.c      ****   SET_RETURN(ret);
 149:c_uart.c      **** }
 150:c_uart.c      **** 
 151:c_uart.c      **** 
 152:c_uart.c      **** //================================================================
 153:c_uart.c      **** /*! puts
 154:c_uart.c      **** */
 155:c_uart.c      **** static void c_uart_puts(mrb_vm *vm, mrb_value v[], int argc)
 156:c_uart.c      **** {
 157:c_uart.c      ****   char *s = NULL;
 158:c_uart.c      ****   switch( v[1].tt ) {
 159:c_uart.c      ****   case MRBC_TT_STRING: {
 160:c_uart.c      ****     s = mrbc_string_cstr(&v[1]);
 161:c_uart.c      ****   } break;
 162:c_uart.c      **** 
 163:c_uart.c      ****   default:
 164:c_uart.c      ****     break;
 165:c_uart.c      ****   }
 166:c_uart.c      **** 
 167:c_uart.c      ****   if( s ) {
 168:c_uart.c      ****     UART_HANDLE *handle = *(UART_HANDLE **)v->instance->data;
 169:c_uart.c      ****     uart_puts( handle, s );
 170:c_uart.c      ****   }
 171:c_uart.c      **** }
 172:c_uart.c      **** 
 173:c_uart.c      **** 
 174:c_uart.c      **** //================================================================
 175:c_uart.c      **** /*! clear_tx_buffer
 176:c_uart.c      **** */
 177:c_uart.c      **** static void c_uart_clear_tx_buffer(mrb_vm *vm, mrb_value v[], int argc)
 178:c_uart.c      **** {
 179:c_uart.c      ****   UART_HANDLE *handle = *(UART_HANDLE **)v->instance->data;
 180:c_uart.c      ****   uart_clear_tx_buffer( handle );
 181:c_uart.c      **** }
 182:c_uart.c      **** 
 183:c_uart.c      **** 
 184:c_uart.c      **** //================================================================
 185:c_uart.c      **** /*! clear_rx_buffer
 186:c_uart.c      **** */
 187:c_uart.c      **** static void c_uart_clear_rx_buffer(mrb_vm *vm, mrb_value v[], int argc)
 188:c_uart.c      **** {
  83              		.loc 1 188 0
  84              		.cfi_startproc
  85              		@ args = 0, pretend = 0, frame = 0
  86              		@ frame_needed = 0, uses_anonymous_args = 0
  87              	.LVL2:
  88 0000 08B5     		push	{r3, lr}
  89              		.cfi_def_cfa_offset 8
  90              		.cfi_offset 3, -8
  91              		.cfi_offset 14, -4
 189:c_uart.c      ****   UART_HANDLE *handle = *(UART_HANDLE **)v->instance->data;
  92              		.loc 1 189 0
  93 0002 8B68     		ldr	r3, [r1, #8]
  94              	.LVL3:
 190:c_uart.c      ****   uart_clear_rx_buffer( handle );
  95              		.loc 1 190 0
ARM GAS  C:\Users\164\AppData\Local\Temp\ccwvZXmi.s 			page 6


  96 0004 D868     		ldr	r0, [r3, #12]
  97              	.LVL4:
  98 0006 FFF7FEFF 		bl	uart_clear_rx_buffer
  99              	.LVL5:
 100 000a 08BD     		pop	{r3, pc}
 101              		.cfi_endproc
 102              	.LFE84:
 103              		.size	c_uart_clear_rx_buffer, .-c_uart_clear_rx_buffer
 104              		.section	.text.c_uart_clear_tx_buffer,"ax",%progbits
 105              		.align	2
 106              		.thumb
 107              		.thumb_func
 108              		.type	c_uart_clear_tx_buffer, %function
 109              	c_uart_clear_tx_buffer:
 110              	.LFB83:
 178:c_uart.c      ****   UART_HANDLE *handle = *(UART_HANDLE **)v->instance->data;
 111              		.loc 1 178 0
 112              		.cfi_startproc
 113              		@ args = 0, pretend = 0, frame = 0
 114              		@ frame_needed = 0, uses_anonymous_args = 0
 115              	.LVL6:
 116 0000 08B5     		push	{r3, lr}
 117              		.cfi_def_cfa_offset 8
 118              		.cfi_offset 3, -8
 119              		.cfi_offset 14, -4
 179:c_uart.c      ****   uart_clear_tx_buffer( handle );
 120              		.loc 1 179 0
 121 0002 8B68     		ldr	r3, [r1, #8]
 122              	.LVL7:
 180:c_uart.c      **** }
 123              		.loc 1 180 0
 124 0004 D868     		ldr	r0, [r3, #12]
 125              	.LVL8:
 126 0006 FFF7FEFF 		bl	uart_clear_tx_buffer
 127              	.LVL9:
 128 000a 08BD     		pop	{r3, pc}
 129              		.cfi_endproc
 130              	.LFE83:
 131              		.size	c_uart_clear_tx_buffer, .-c_uart_clear_tx_buffer
 132              		.section	.text.c_uart_puts,"ax",%progbits
 133              		.align	2
 134              		.thumb
 135              		.thumb_func
 136              		.type	c_uart_puts, %function
 137              	c_uart_puts:
 138              	.LFB82:
 156:c_uart.c      ****   char *s = NULL;
 139              		.loc 1 156 0
 140              		.cfi_startproc
 141              		@ args = 0, pretend = 0, frame = 0
 142              		@ frame_needed = 0, uses_anonymous_args = 0
 143              	.LVL10:
 144 0000 08B5     		push	{r3, lr}
 145              		.cfi_def_cfa_offset 8
 146              		.cfi_offset 3, -8
 147              		.cfi_offset 14, -4
 148              	.LVL11:
ARM GAS  C:\Users\164\AppData\Local\Temp\ccwvZXmi.s 			page 7


 158:c_uart.c      ****   case MRBC_TT_STRING: {
 149              		.loc 1 158 0
 150 0002 91F91030 		ldrsb	r3, [r1, #16]
 151 0006 172B     		cmp	r3, #23
 152 0008 02D1     		bne	.L18
 153              	.LVL12:
 154              	.LBB19:
 155              	.LBB20:
 156              		.file 2 "c_string.h"
   1:c_string.h    **** /*! @file
   2:c_string.h    ****   @brief
   3:c_string.h    ****   mruby/c String object
   4:c_string.h    **** 
   5:c_string.h    ****   <pre>
   6:c_string.h    ****   Copyright (C) 2015-2018 Kyushu Institute of Technology.
   7:c_string.h    ****   Copyright (C) 2015-2018 Shimane IT Open-Innovation Center.
   8:c_string.h    **** 
   9:c_string.h    ****   This file is distributed under BSD 3-Clause License.
  10:c_string.h    **** 
  11:c_string.h    ****   </pre>
  12:c_string.h    **** */
  13:c_string.h    **** 
  14:c_string.h    **** #ifndef MRBC_SRC_C_STRING_H_
  15:c_string.h    **** #define MRBC_SRC_C_STRING_H_
  16:c_string.h    **** 
  17:c_string.h    **** #include <stdint.h>
  18:c_string.h    **** #include <string.h>
  19:c_string.h    **** #include "value.h"
  20:c_string.h    **** 
  21:c_string.h    **** #ifdef __cplusplus
  22:c_string.h    **** extern "C" {
  23:c_string.h    **** #endif
  24:c_string.h    **** 
  25:c_string.h    **** //================================================================
  26:c_string.h    **** /*!@brief
  27:c_string.h    ****   Define String handle.
  28:c_string.h    **** */
  29:c_string.h    **** typedef struct RString {
  30:c_string.h    ****   MRBC_OBJECT_HEADER;
  31:c_string.h    **** 
  32:c_string.h    ****   uint16_t size;	//!< string length.
  33:c_string.h    ****   uint8_t *data;	//!< pointer to allocated buffer.
  34:c_string.h    **** 
  35:c_string.h    **** } mrbc_string;
  36:c_string.h    **** 
  37:c_string.h    **** 
  38:c_string.h    **** mrbc_value mrbc_string_new(struct VM *vm, const void *src, int len);
  39:c_string.h    **** mrbc_value mrbc_string_new_cstr(struct VM *vm, const char *src);
  40:c_string.h    **** mrbc_value mrbc_string_new_alloc(struct VM *vm, void *buf, int len);
  41:c_string.h    **** void mrbc_string_delete(mrbc_value *str);
  42:c_string.h    **** void mrbc_string_clear_vm_id(mrbc_value *str);
  43:c_string.h    **** mrbc_value mrbc_string_dup(struct VM *vm, mrbc_value *s1);
  44:c_string.h    **** mrbc_value mrbc_string_add(struct VM *vm, const mrbc_value *s1, const mrbc_value *s2);
  45:c_string.h    **** int mrbc_string_append(mrbc_value *s1, const mrbc_value *s2);
  46:c_string.h    **** int mrbc_string_append_cstr(mrbc_value *s1, const char *s2);
  47:c_string.h    **** int mrbc_string_index(const mrbc_value *src, const mrbc_value *pattern, int offset);
  48:c_string.h    **** int mrbc_string_strip(mrbc_value *src, int mode);
ARM GAS  C:\Users\164\AppData\Local\Temp\ccwvZXmi.s 			page 8


  49:c_string.h    **** int mrbc_string_chomp(mrbc_value *src);
  50:c_string.h    **** void mrbc_init_class_string(struct VM *vm);
  51:c_string.h    **** 
  52:c_string.h    **** 
  53:c_string.h    **** //================================================================
  54:c_string.h    **** /*! compare
  55:c_string.h    **** */
  56:c_string.h    **** static inline int mrbc_string_compare(const mrbc_value *v1, const mrbc_value *v2)
  57:c_string.h    **** {
  58:c_string.h    ****   int len = (v1->string->size < v2->string->size) ?
  59:c_string.h    ****     v1->string->size : v2->string->size;
  60:c_string.h    **** 
  61:c_string.h    ****   int res = memcmp(v1->string->data, v2->string->data, len);
  62:c_string.h    ****   if( res != 0 ) return res;
  63:c_string.h    **** 
  64:c_string.h    ****   return v1->string->size - v2->string->size;
  65:c_string.h    **** }
  66:c_string.h    **** 
  67:c_string.h    **** //================================================================
  68:c_string.h    **** /*! get size
  69:c_string.h    **** */
  70:c_string.h    **** static inline int mrbc_string_size(const mrbc_value *str)
  71:c_string.h    **** {
  72:c_string.h    ****   return str->string->size;
  73:c_string.h    **** }
  74:c_string.h    **** 
  75:c_string.h    **** //================================================================
  76:c_string.h    **** /*! get c-language string (char *)
  77:c_string.h    **** */
  78:c_string.h    **** static inline char * mrbc_string_cstr(const mrbc_value *v)
  79:c_string.h    **** {
  80:c_string.h    ****   return (char*)v->string->data;
 157              		.loc 2 80 0
 158 000a 8B69     		ldr	r3, [r1, #24]
 159 000c 9A68     		ldr	r2, [r3, #8]
 160              	.LVL13:
 161              	.LBE20:
 162              	.LBE19:
 161:c_uart.c      **** 
 163              		.loc 1 161 0
 164 000e 00E0     		b	.L14
 165              	.LVL14:
 166              	.L18:
 157:c_uart.c      ****   switch( v[1].tt ) {
 167              		.loc 1 157 0
 168 0010 0022     		movs	r2, #0
 169              	.LVL15:
 170              	.L14:
 167:c_uart.c      ****     UART_HANDLE *handle = *(UART_HANDLE **)v->instance->data;
 171              		.loc 1 167 0
 172 0012 22B1     		cbz	r2, .L13
 173              	.LBB21:
 168:c_uart.c      ****     uart_puts( handle, s );
 174              		.loc 1 168 0
 175 0014 8B68     		ldr	r3, [r1, #8]
 176              	.LVL16:
 169:c_uart.c      ****   }
ARM GAS  C:\Users\164\AppData\Local\Temp\ccwvZXmi.s 			page 9


 177              		.loc 1 169 0
 178 0016 1146     		mov	r1, r2
 179              	.LVL17:
 180 0018 D868     		ldr	r0, [r3, #12]
 181              	.LVL18:
 182 001a FFF7FEFF 		bl	uart_puts
 183              	.LVL19:
 184              	.L13:
 185 001e 08BD     		pop	{r3, pc}
 186              	.LBE21:
 187              		.cfi_endproc
 188              	.LFE82:
 189              		.size	c_uart_puts, .-c_uart_puts
 190              		.section	.text.c_uart_gets,"ax",%progbits
 191              		.align	2
 192              		.thumb
 193              		.thumb_func
 194              		.type	c_uart_gets, %function
 195              	c_uart_gets:
 196              	.LFB81:
 130:c_uart.c      ****   mrb_value ret;
 197              		.loc 1 130 0
 198              		.cfi_startproc
 199              		@ args = 0, pretend = 0, frame = 48
 200              		@ frame_needed = 0, uses_anonymous_args = 0
 201              	.LVL20:
 202 0000 2DE9F041 		push	{r4, r5, r6, r7, r8, lr}
 203              		.cfi_def_cfa_offset 24
 204              		.cfi_offset 4, -24
 205              		.cfi_offset 5, -20
 206              		.cfi_offset 6, -16
 207              		.cfi_offset 7, -12
 208              		.cfi_offset 8, -8
 209              		.cfi_offset 14, -4
 210 0004 8CB0     		sub	sp, sp, #48
 211              		.cfi_def_cfa_offset 72
 212 0006 0646     		mov	r6, r0
 213 0008 0D46     		mov	r5, r1
 132:c_uart.c      **** 
 214              		.loc 1 132 0
 215 000a 8B68     		ldr	r3, [r1, #8]
 216 000c DC68     		ldr	r4, [r3, #12]
 217              	.LVL21:
 134:c_uart.c      ****     ret = mrb_nil_value();
 218              		.loc 1 134 0
 219 000e 2046     		mov	r0, r4
 220              	.LVL22:
 221 0010 FFF7FEFF 		bl	uart_can_read_line
 222              	.LVL23:
 223 0014 68B9     		cbnz	r0, .L21
 224              	.LBB22:
 225              	.LBB23:
 226              		.file 3 "value.h"
   1:value.h       **** /*! @file
   2:value.h       ****   @brief
   3:value.h       ****   mruby/c value definitions
   4:value.h       **** 
ARM GAS  C:\Users\164\AppData\Local\Temp\ccwvZXmi.s 			page 10


   5:value.h       ****   <pre>
   6:value.h       ****   Copyright (C) 2015-2018 Kyushu Institute of Technology.
   7:value.h       ****   Copyright (C) 2015-2018 Shimane IT Open-Innovation Center.
   8:value.h       **** 
   9:value.h       ****   This file is distributed under BSD 3-Clause License.
  10:value.h       **** 
  11:value.h       **** 
  12:value.h       ****   </pre>
  13:value.h       **** */
  14:value.h       **** 
  15:value.h       **** #ifndef MRBC_SRC_VALUE_H_
  16:value.h       **** #define MRBC_SRC_VALUE_H_
  17:value.h       **** 
  18:value.h       **** #include <stdint.h>
  19:value.h       **** 
  20:value.h       **** #ifdef __cplusplus
  21:value.h       **** extern "C" {
  22:value.h       **** #endif
  23:value.h       **** 
  24:value.h       **** 
  25:value.h       **** // mrbc types
  26:value.h       **** typedef int32_t mrbc_int;
  27:value.h       **** typedef double mrbc_float;
  28:value.h       **** typedef int16_t mrbc_sym;
  29:value.h       **** 
  30:value.h       **** /* aspec access ? */
  31:value.h       **** #define MRB_ASPEC_REQ(a)          (((a) >> 18) & 0x1f)
  32:value.h       **** #define MRB_ASPEC_OPT(a)          (((a) >> 13) & 0x1f)
  33:value.h       **** #define MRB_ASPEC_REST(a)         (((a) >> 12) & 0x1)
  34:value.h       **** #define MRB_ASPEC_POST(a)         (((a) >> 7) & 0x1f)
  35:value.h       **** 
  36:value.h       **** #define MRBC_OBJECT_HEADER \
  37:value.h       ****   uint16_t ref_count; \
  38:value.h       ****   mrbc_vtype tt : 8  // TODO: for debug use only.
  39:value.h       **** 
  40:value.h       **** 
  41:value.h       **** struct VM;
  42:value.h       **** struct IREP;
  43:value.h       **** struct RObject;
  44:value.h       **** typedef void (*mrbc_func_t)(struct VM *vm, struct RObject *v, int argc);
  45:value.h       **** 
  46:value.h       **** 
  47:value.h       **** //================================================================
  48:value.h       **** /*!@brief
  49:value.h       ****   define the value type.
  50:value.h       **** */
  51:value.h       **** typedef enum {
  52:value.h       ****   /* internal use */
  53:value.h       ****   MRBC_TT_HANDLE = -1,
  54:value.h       ****   /* primitive */
  55:value.h       ****   MRBC_TT_EMPTY = 0,
  56:value.h       ****   MRBC_TT_NIL,
  57:value.h       ****   MRBC_TT_FALSE,		// (note) true/false threshold. see op_jmpif
  58:value.h       **** 
  59:value.h       ****   MRBC_TT_TRUE,
  60:value.h       ****   MRBC_TT_FIXNUM,
  61:value.h       ****   MRBC_TT_FLOAT,
ARM GAS  C:\Users\164\AppData\Local\Temp\ccwvZXmi.s 			page 11


  62:value.h       ****   MRBC_TT_SYMBOL,
  63:value.h       ****   MRBC_TT_CLASS,
  64:value.h       **** 
  65:value.h       ****   /* non-primitive */
  66:value.h       ****   MRBC_TT_OBJECT = 20,
  67:value.h       ****   MRBC_TT_PROC,
  68:value.h       ****   MRBC_TT_ARRAY,
  69:value.h       ****   MRBC_TT_STRING,
  70:value.h       ****   MRBC_TT_RANGE,
  71:value.h       ****   MRBC_TT_HASH,
  72:value.h       **** 
  73:value.h       **** } mrbc_vtype;
  74:value.h       **** 
  75:value.h       **** 
  76:value.h       **** //================================================================
  77:value.h       **** /*!@brief
  78:value.h       ****   define the error code. (BETA TEST)
  79:value.h       **** */
  80:value.h       **** typedef enum {
  81:value.h       ****   E_NOMEMORY_ERROR = 1,
  82:value.h       ****   E_RUNTIME_ERROR,
  83:value.h       ****   E_TYPE_ERROR,
  84:value.h       ****   E_ARGUMENT_ERROR,
  85:value.h       ****   E_INDEX_ERROR,
  86:value.h       ****   E_RANGE_ERROR,
  87:value.h       ****   E_NAME_ERROR,
  88:value.h       ****   E_NOMETHOD_ERROR,
  89:value.h       ****   E_SCRIPT_ERROR,
  90:value.h       ****   E_SYNTAX_ERROR,
  91:value.h       ****   E_LOCALJUMP_ERROR,
  92:value.h       ****   E_REGEXP_ERROR,
  93:value.h       ****   E_NOTIMP_ERROR,
  94:value.h       ****   E_FLOATDOMAIN_ERROR,
  95:value.h       ****   E_KEY_ERROR,
  96:value.h       **** } mrbc_error_code;
  97:value.h       **** 
  98:value.h       **** 
  99:value.h       **** 
 100:value.h       **** //================================================================
 101:value.h       **** /*!@brief
 102:value.h       ****   mruby/c value object.
 103:value.h       **** */
 104:value.h       **** struct RObject {
 105:value.h       ****   mrbc_vtype tt : 8;
 106:value.h       ****   union {
 107:value.h       ****     mrbc_int i;			// MRBC_TT_FIXNUM, SYMBOL
 108:value.h       **** #if MRBC_USE_FLOAT
 109:value.h       ****     mrbc_float d;		// MRBC_TT_FLOAT
 110:value.h       **** #endif
 111:value.h       ****     struct RClass *cls;		// MRBC_TT_CLASS
 112:value.h       ****     struct RObject *handle;	// handle to objects
 113:value.h       ****     struct RInstance *instance;	// MRBC_TT_OBJECT
 114:value.h       ****     struct RProc *proc;		// MRBC_TT_PROC
 115:value.h       ****     struct RArray *array;	// MRBC_TT_ARRAY
 116:value.h       ****     struct RString *string;	// MRBC_TT_STRING
 117:value.h       ****     const char *str;		// C-string (only loader use.)
 118:value.h       ****     struct RRange *range;	// MRBC_TT_RANGE
ARM GAS  C:\Users\164\AppData\Local\Temp\ccwvZXmi.s 			page 12


 119:value.h       ****     struct RHash *hash;		// MRBC_TT_HASH
 120:value.h       ****   };
 121:value.h       **** };
 122:value.h       **** typedef struct RObject mrb_object;	// not recommended.
 123:value.h       **** typedef struct RObject mrb_value;	// not recommended.
 124:value.h       **** typedef struct RObject mrbc_object;
 125:value.h       **** typedef struct RObject mrbc_value;
 126:value.h       **** 
 127:value.h       **** 
 128:value.h       **** //================================================================
 129:value.h       **** /*!@brief
 130:value.h       ****   mruby/c class object.
 131:value.h       **** */
 132:value.h       **** typedef struct RClass {
 133:value.h       ****   mrbc_sym sym_id;	// class name
 134:value.h       **** #ifdef MRBC_DEBUG
 135:value.h       ****   const char *names;	// for debug. delete soon.
 136:value.h       **** #endif
 137:value.h       ****   struct RClass *super;	// mrbc_class[super]
 138:value.h       ****   struct RProc *procs;	// mrbc_proc[rprocs], linked list
 139:value.h       **** } mrbc_class;
 140:value.h       **** typedef struct RClass mrb_class;
 141:value.h       **** 
 142:value.h       **** 
 143:value.h       **** //================================================================
 144:value.h       **** /*!@brief
 145:value.h       ****   mruby/c instance object.
 146:value.h       **** */
 147:value.h       **** typedef struct RInstance {
 148:value.h       ****   MRBC_OBJECT_HEADER;
 149:value.h       **** 
 150:value.h       ****   struct RClass *cls;
 151:value.h       ****   struct RKeyValueHandle *ivar;
 152:value.h       ****   uint8_t data[];
 153:value.h       **** } mrbc_instance;
 154:value.h       **** typedef struct RInstance mrb_instance;
 155:value.h       **** 
 156:value.h       **** 
 157:value.h       **** //================================================================
 158:value.h       **** /*!@brief
 159:value.h       ****   mruby/c proc object.
 160:value.h       **** */
 161:value.h       **** typedef struct RProc {
 162:value.h       ****   MRBC_OBJECT_HEADER;
 163:value.h       **** 
 164:value.h       ****   unsigned int c_func : 1;	// 0:IREP, 1:C Func
 165:value.h       ****   mrbc_sym sym_id;
 166:value.h       **** #ifdef MRBC_DEBUG
 167:value.h       ****   const char *names;		// for debug; delete soon
 168:value.h       **** #endif
 169:value.h       ****   struct RProc *next;
 170:value.h       ****   union {
 171:value.h       ****     struct IREP *irep;
 172:value.h       ****     mrbc_func_t func;
 173:value.h       ****   };
 174:value.h       **** } mrbc_proc;
 175:value.h       **** typedef struct RProc mrb_proc;
ARM GAS  C:\Users\164\AppData\Local\Temp\ccwvZXmi.s 			page 13


 176:value.h       **** 
 177:value.h       **** 
 178:value.h       **** 
 179:value.h       **** // for C call
 180:value.h       **** #define SET_RETURN(n)		do { mrbc_value nnn = (n); \
 181:value.h       ****     mrbc_dec_ref_counter(v); v[0] = nnn; } while(0)
 182:value.h       **** #define SET_NIL_RETURN()	do { \
 183:value.h       ****     mrbc_dec_ref_counter(v); v[0].tt = MRBC_TT_NIL; } while(0)
 184:value.h       **** #define SET_FALSE_RETURN()	do { \
 185:value.h       ****     mrbc_dec_ref_counter(v); v[0].tt = MRBC_TT_FALSE; } while(0)
 186:value.h       **** #define SET_TRUE_RETURN()	do { \
 187:value.h       ****     mrbc_dec_ref_counter(v); v[0].tt = MRBC_TT_TRUE; } while(0)
 188:value.h       **** #define SET_BOOL_RETURN(n)	do { \
 189:value.h       ****     mrbc_dec_ref_counter(v); v[0].tt = (n)?MRBC_TT_TRUE:MRBC_TT_FALSE; } while(0)
 190:value.h       **** #define SET_INT_RETURN(n)	do { mrbc_int nnn = (n);		\
 191:value.h       ****     mrbc_dec_ref_counter(v); v[0].tt = MRBC_TT_FIXNUM; v[0].i = nnn; } while(0)
 192:value.h       **** #define SET_FLOAT_RETURN(n)	do { mrbc_float nnn = (n); \
 193:value.h       ****     mrbc_dec_ref_counter(v); v[0].tt = MRBC_TT_FLOAT; v[0].d = nnn; } while(0)
 194:value.h       **** 
 195:value.h       **** #define GET_TT_ARG(n)		(v[(n)].tt)
 196:value.h       **** #define GET_INT_ARG(n)		(v[(n)].i)
 197:value.h       **** #define GET_ARY_ARG(n)		(v[(n)])
 198:value.h       **** #define GET_ARG(n)		(v[(n)])
 199:value.h       **** #define GET_FLOAT_ARG(n)	(v[(n)].d)
 200:value.h       **** #define GET_STRING_ARG(n)	(v[(n)].string->data)
 201:value.h       **** 
 202:value.h       **** #define mrbc_fixnum_value(n)	((mrbc_value){.tt = MRBC_TT_FIXNUM, .i=(n)})
 203:value.h       **** #define mrbc_float_value(n)	((mrbc_value){.tt = MRBC_TT_FLOAT, .d=(n)})
 204:value.h       **** #define mrbc_nil_value()	((mrbc_value){.tt = MRBC_TT_NIL})
 205:value.h       **** #define mrbc_true_value()	((mrbc_value){.tt = MRBC_TT_TRUE})
 206:value.h       **** #define mrbc_false_value()	((mrbc_value){.tt = MRBC_TT_FALSE})
 207:value.h       **** #define mrbc_bool_value(n)	((mrbc_value){.tt = (n)?MRBC_TT_TRUE:MRBC_TT_FALSE})
 208:value.h       **** 
 209:value.h       **** mrbc_object *mrbc_obj_alloc(struct VM *vm, mrbc_vtype tt);
 210:value.h       **** mrbc_proc *mrbc_rproc_alloc(struct VM *vm, const char *name);
 211:value.h       **** int mrbc_compare(const mrbc_value *v1, const mrbc_value *v2);
 212:value.h       **** int mrbc_obj_is_kind_of( const mrbc_value *obj, const mrb_class *cls );
 213:value.h       **** void mrbc_dup(mrbc_value *v);
 214:value.h       **** void mrbc_release(mrbc_value *v);
 215:value.h       **** void mrbc_dec_ref_counter(mrbc_value *v);
 216:value.h       **** void mrbc_clear_vm_id(mrbc_value *v);
 217:value.h       **** mrbc_int mrbc_atoi(const char *s, int base);
 218:value.h       **** struct IREP *mrbc_irep_alloc(struct VM *vm);
 219:value.h       **** void mrbc_irep_free(struct IREP *irep);
 220:value.h       **** mrbc_value mrbc_instance_new(struct VM *vm, mrbc_class *cls, int size);
 221:value.h       **** void mrbc_instance_delete(mrbc_value *v);
 222:value.h       **** void mrbc_instance_setiv(mrbc_object *obj, mrbc_sym sym_id, mrbc_value *v);
 223:value.h       **** mrbc_value mrbc_instance_getiv(mrbc_object *obj, mrbc_sym sym_id);
 224:value.h       **** 
 225:value.h       **** 
 226:value.h       **** // (mruby compatible functions.)
 227:value.h       **** 
 228:value.h       **** //================================================================
 229:value.h       **** /*!@brief
 230:value.h       ****   Returns a fixnum in mruby/c.
 231:value.h       **** 
 232:value.h       ****   @param  n	int value
ARM GAS  C:\Users\164\AppData\Local\Temp\ccwvZXmi.s 			page 14


 233:value.h       ****   @return	mrbc_value of type fixnum.
 234:value.h       **** */
 235:value.h       **** static inline mrbc_value mrb_fixnum_value( mrbc_int n )
 236:value.h       **** {
 237:value.h       ****   mrbc_value value = {.tt = MRBC_TT_FIXNUM};
 238:value.h       ****   value.i = n;
 239:value.h       ****   return value;
 240:value.h       **** }
 241:value.h       **** 
 242:value.h       **** 
 243:value.h       **** #if MRBC_USE_FLOAT
 244:value.h       **** //================================================================
 245:value.h       **** /*!@brief
 246:value.h       ****   Returns a float in mruby/c.
 247:value.h       **** 
 248:value.h       ****   @param  n	dluble value
 249:value.h       ****   @return	mrbc_value of type float.
 250:value.h       **** */
 251:value.h       **** static inline mrbc_value mrb_float_value( mrbc_float n )
 252:value.h       **** {
 253:value.h       ****   mrbc_value value = {.tt = MRBC_TT_FLOAT};
 254:value.h       ****   value.d = n;
 255:value.h       ****   return value;
 256:value.h       **** }
 257:value.h       **** #endif
 258:value.h       **** 
 259:value.h       **** 
 260:value.h       **** //================================================================
 261:value.h       **** /*!@brief
 262:value.h       ****   Returns a nil in mruby/c.
 263:value.h       **** 
 264:value.h       ****   @return	mrbc_value of type nil.
 265:value.h       **** */
 266:value.h       **** static inline mrbc_value mrb_nil_value(void)
 267:value.h       **** {
 268:value.h       ****   mrbc_value value = {.tt = MRBC_TT_NIL};
 227              		.loc 3 268 0
 228 0016 04AB     		add	r3, sp, #16
 229 0018 0022     		movs	r2, #0
 230 001a 0492     		str	r2, [sp, #16]
 231 001c 0592     		str	r2, [sp, #20]
 232 001e 0692     		str	r2, [sp, #24]
 233 0020 0792     		str	r2, [sp, #28]
 234 0022 0122     		movs	r2, #1
 235 0024 8DF81020 		strb	r2, [sp, #16]
 269:value.h       ****   return value;
 236              		.loc 3 269 0
 237 0028 0FCB     		ldmia	r3, {r0, r1, r2, r3}
 238 002a 0CAC     		add	r4, sp, #48
 239              	.LVL24:
 240 002c 04E90F00 		stmdb	r4, {r0, r1, r2, r3}
 241 0030 1FE0     		b	.L22
 242              	.LVL25:
 243              	.L21:
 244              	.LBE23:
 245              	.LBE22:
 139:c_uart.c      ****   char *buf = mrbc_alloc( vm, len );
ARM GAS  C:\Users\164\AppData\Local\Temp\ccwvZXmi.s 			page 15


 246              		.loc 1 139 0
 247 0032 2046     		mov	r0, r4
 248 0034 FFF7FEFF 		bl	uart_bytes_available
 249              	.LVL26:
 250 0038 00F10108 		add	r8, r0, #1
 251              	.LVL27:
 140:c_uart.c      **** 
 252              		.loc 1 140 0
 253 003c 4146     		mov	r1, r8
 254 003e 3046     		mov	r0, r6
 255 0040 FFF7FEFF 		bl	mrbc_alloc
 256              	.LVL28:
 257 0044 0746     		mov	r7, r0
 258              	.LVL29:
 142:c_uart.c      ****   mrbc_realloc( vm, buf, len );
 259              		.loc 1 142 0
 260 0046 4246     		mov	r2, r8
 261 0048 0146     		mov	r1, r0
 262 004a 2046     		mov	r0, r4
 263              	.LVL30:
 264 004c FFF7FEFF 		bl	uart_gets
 265              	.LVL31:
 266 0050 8046     		mov	r8, r0
 267              	.LVL32:
 143:c_uart.c      **** 
 268              		.loc 1 143 0
 269 0052 0246     		mov	r2, r0
 270 0054 3946     		mov	r1, r7
 271 0056 3046     		mov	r0, r6
 272              	.LVL33:
 273 0058 FFF7FEFF 		bl	mrbc_realloc
 274              	.LVL34:
 145:c_uart.c      **** 
 275              		.loc 1 145 0
 276 005c 4346     		mov	r3, r8
 277 005e 3A46     		mov	r2, r7
 278 0060 3146     		mov	r1, r6
 279 0062 6846     		mov	r0, sp
 280 0064 FFF7FEFF 		bl	mrbc_string_new_alloc
 281              	.LVL35:
 282 0068 9DE80F00 		ldmia	sp, {r0, r1, r2, r3}
 283 006c 0CAC     		add	r4, sp, #48
 284              	.LVL36:
 285 006e 04E90F00 		stmdb	r4, {r0, r1, r2, r3}
 286              	.LVL37:
 287              	.L22:
 288              	.LBB24:
 148:c_uart.c      **** }
 289              		.loc 1 148 0
 290 0072 04AC     		add	r4, sp, #16
 291 0074 0CAB     		add	r3, sp, #48
 292 0076 13E90F00 		ldmdb	r3, {r0, r1, r2, r3}
 293 007a 84E80F00 		stmia	r4, {r0, r1, r2, r3}
 294 007e 2846     		mov	r0, r5
 295 0080 FFF7FEFF 		bl	mrbc_dec_ref_counter
 296              	.LVL38:
 297 0084 94E80F00 		ldmia	r4, {r0, r1, r2, r3}
ARM GAS  C:\Users\164\AppData\Local\Temp\ccwvZXmi.s 			page 16


 298 0088 85E80F00 		stmia	r5, {r0, r1, r2, r3}
 299              	.LBE24:
 149:c_uart.c      **** 
 300              		.loc 1 149 0
 301 008c 0CB0     		add	sp, sp, #48
 302              		.cfi_def_cfa_offset 24
 303              		@ sp needed
 304 008e BDE8F081 		pop	{r4, r5, r6, r7, r8, pc}
 305              		.cfi_endproc
 306              	.LFE81:
 307              		.size	c_uart_gets, .-c_uart_gets
 308 0092 00BF     		.section	.text.c_uart_write,"ax",%progbits
 309              		.align	2
 310              		.thumb
 311              		.thumb_func
 312              		.type	c_uart_write, %function
 313              	c_uart_write:
 314              	.LFB80:
 109:c_uart.c      ****   UART_HANDLE *handle = *(UART_HANDLE **)v->instance->data;
 315              		.loc 1 109 0
 316              		.cfi_startproc
 317              		@ args = 0, pretend = 0, frame = 0
 318              		@ frame_needed = 0, uses_anonymous_args = 0
 319              	.LVL39:
 320 0000 38B5     		push	{r3, r4, r5, lr}
 321              		.cfi_def_cfa_offset 16
 322              		.cfi_offset 3, -16
 323              		.cfi_offset 4, -12
 324              		.cfi_offset 5, -8
 325              		.cfi_offset 14, -4
 326 0002 0C46     		mov	r4, r1
 110:c_uart.c      **** 
 327              		.loc 1 110 0
 328 0004 8B68     		ldr	r3, [r1, #8]
 329 0006 D868     		ldr	r0, [r3, #12]
 330              	.LVL40:
 112:c_uart.c      ****   case MRBC_TT_STRING: {
 331              		.loc 1 112 0
 332 0008 91F91030 		ldrsb	r3, [r1, #16]
 333 000c 172B     		cmp	r3, #23
 334 000e 0CD1     		bne	.L28
 335              	.LVL41:
 336              	.LBB25:
 337              	.LBB26:
 338              	.LBB27:
 339              		.loc 2 80 0
 340 0010 8B69     		ldr	r3, [r1, #24]
 341              	.LVL42:
 342              	.LBE27:
 343              	.LBE26:
 114:c_uart.c      **** 			mrbc_string_cstr(&v[1]), mrbc_string_size(&v[1]) );
 344              		.loc 1 114 0
 345 0012 9A88     		ldrh	r2, [r3, #4]
 346              	.LVL43:
 347 0014 9968     		ldr	r1, [r3, #8]
 348              	.LVL44:
 349 0016 FFF7FEFF 		bl	uart_write
ARM GAS  C:\Users\164\AppData\Local\Temp\ccwvZXmi.s 			page 17


 350              	.LVL45:
 351 001a 0546     		mov	r5, r0
 352              	.LVL46:
 353              	.LBB28:
 116:c_uart.c      ****   } break;
 354              		.loc 1 116 0
 355 001c 2046     		mov	r0, r4
 356              	.LVL47:
 357 001e FFF7FEFF 		bl	mrbc_dec_ref_counter
 358              	.LVL48:
 359 0022 0423     		movs	r3, #4
 360 0024 2370     		strb	r3, [r4]
 361 0026 A560     		str	r5, [r4, #8]
 362              	.LBE28:
 363              	.LBE25:
 117:c_uart.c      **** 
 364              		.loc 1 117 0
 365 0028 38BD     		pop	{r3, r4, r5, pc}
 366              	.LVL49:
 367              	.L28:
 120:c_uart.c      ****     break;
 368              		.loc 1 120 0
 369 002a 0846     		mov	r0, r1
 370              	.LVL50:
 371 002c FFF7FEFF 		bl	mrbc_dec_ref_counter
 372              	.LVL51:
 373 0030 0123     		movs	r3, #1
 374 0032 2370     		strb	r3, [r4]
 375 0034 38BD     		pop	{r3, r4, r5, pc}
 376              		.cfi_endproc
 377              	.LFE80:
 378              		.size	c_uart_write, .-c_uart_write
 379 0036 00BF     		.section	.text.c_uart_read,"ax",%progbits
 380              		.align	2
 381              		.thumb
 382              		.thumb_func
 383              		.type	c_uart_read, %function
 384              	c_uart_read:
 385              	.LFB79:
  84:c_uart.c      ****   mrb_value ret;
 386              		.loc 1 84 0
 387              		.cfi_startproc
 388              		@ args = 0, pretend = 0, frame = 48
 389              		@ frame_needed = 0, uses_anonymous_args = 0
 390              	.LVL52:
 391 0000 2DE9F041 		push	{r4, r5, r6, r7, r8, lr}
 392              		.cfi_def_cfa_offset 24
 393              		.cfi_offset 4, -24
 394              		.cfi_offset 5, -20
 395              		.cfi_offset 6, -16
 396              		.cfi_offset 7, -12
 397              		.cfi_offset 8, -8
 398              		.cfi_offset 14, -4
 399 0004 8CB0     		sub	sp, sp, #48
 400              		.cfi_def_cfa_offset 72
 401 0006 0746     		mov	r7, r0
 402 0008 0D46     		mov	r5, r1
ARM GAS  C:\Users\164\AppData\Local\Temp\ccwvZXmi.s 			page 18


  86:c_uart.c      ****   int need_length = GET_INT_ARG(1);
 403              		.loc 1 86 0
 404 000a 8B68     		ldr	r3, [r1, #8]
 405 000c DE68     		ldr	r6, [r3, #12]
 406              	.LVL53:
  87:c_uart.c      **** 
 407              		.loc 1 87 0
 408 000e 8C69     		ldr	r4, [r1, #24]
 409              	.LVL54:
  89:c_uart.c      ****     ret = mrb_nil_value();
 410              		.loc 1 89 0
 411 0010 3046     		mov	r0, r6
 412              	.LVL55:
 413 0012 FFF7FEFF 		bl	uart_bytes_available
 414              	.LVL56:
 415 0016 8442     		cmp	r4, r0
 416 0018 0DDD     		ble	.L31
 417              	.LBB29:
 418              	.LBB30:
 268:value.h       ****   return value;
 419              		.loc 3 268 0
 420 001a 04AB     		add	r3, sp, #16
 421 001c 0022     		movs	r2, #0
 422 001e 0492     		str	r2, [sp, #16]
 423 0020 0592     		str	r2, [sp, #20]
 424 0022 0692     		str	r2, [sp, #24]
 425 0024 0792     		str	r2, [sp, #28]
 426 0026 0122     		movs	r2, #1
 427 0028 8DF81020 		strb	r2, [sp, #16]
 428              		.loc 3 269 0
 429 002c 0FCB     		ldmia	r3, {r0, r1, r2, r3}
 430 002e 0CAC     		add	r4, sp, #48
 431              	.LVL57:
 432 0030 04E90F00 		stmdb	r4, {r0, r1, r2, r3}
 433 0034 14E0     		b	.L32
 434              	.LVL58:
 435              	.L31:
 436              	.LBE30:
 437              	.LBE29:
  94:c_uart.c      ****   uart_read( handle, buf, need_length );
 438              		.loc 1 94 0
 439 0036 611C     		adds	r1, r4, #1
 440 0038 3846     		mov	r0, r7
 441 003a FFF7FEFF 		bl	mrbc_alloc
 442              	.LVL59:
 443 003e 8046     		mov	r8, r0
 444              	.LVL60:
  95:c_uart.c      **** 
 445              		.loc 1 95 0
 446 0040 2246     		mov	r2, r4
 447 0042 0146     		mov	r1, r0
 448 0044 3046     		mov	r0, r6
 449              	.LVL61:
 450 0046 FFF7FEFF 		bl	uart_read
 451              	.LVL62:
  97:c_uart.c      **** 
 452              		.loc 1 97 0
ARM GAS  C:\Users\164\AppData\Local\Temp\ccwvZXmi.s 			page 19


 453 004a 2346     		mov	r3, r4
 454 004c 4246     		mov	r2, r8
 455 004e 3946     		mov	r1, r7
 456 0050 6846     		mov	r0, sp
 457 0052 FFF7FEFF 		bl	mrbc_string_new_alloc
 458              	.LVL63:
 459 0056 9DE80F00 		ldmia	sp, {r0, r1, r2, r3}
 460 005a 0CAC     		add	r4, sp, #48
 461              	.LVL64:
 462 005c 04E90F00 		stmdb	r4, {r0, r1, r2, r3}
 463              	.LVL65:
 464              	.L32:
 465              	.LBB31:
 100:c_uart.c      **** }
 466              		.loc 1 100 0
 467 0060 04AC     		add	r4, sp, #16
 468 0062 0CAB     		add	r3, sp, #48
 469 0064 13E90F00 		ldmdb	r3, {r0, r1, r2, r3}
 470 0068 84E80F00 		stmia	r4, {r0, r1, r2, r3}
 471 006c 2846     		mov	r0, r5
 472 006e FFF7FEFF 		bl	mrbc_dec_ref_counter
 473              	.LVL66:
 474 0072 94E80F00 		ldmia	r4, {r0, r1, r2, r3}
 475 0076 85E80F00 		stmia	r5, {r0, r1, r2, r3}
 476              	.LBE31:
 101:c_uart.c      **** 
 477              		.loc 1 101 0
 478 007a 0CB0     		add	sp, sp, #48
 479              		.cfi_def_cfa_offset 24
 480              		@ sp needed
 481 007c BDE8F081 		pop	{r4, r5, r6, r7, r8, pc}
 482              		.cfi_endproc
 483              	.LFE79:
 484              		.size	c_uart_read, .-c_uart_read
 485              		.section	.text.c_uart_new,"ax",%progbits
 486              		.align	2
 487              		.thumb
 488              		.thumb_func
 489              		.type	c_uart_new, %function
 490              	c_uart_new:
 491              	.LFB78:
  66:c_uart.c      ****   static int num = 0;
 492              		.loc 1 66 0
 493              		.cfi_startproc
 494              		@ args = 0, pretend = 0, frame = 48
 495              		@ frame_needed = 0, uses_anonymous_args = 0
 496              	.LVL67:
 497 0000 30B5     		push	{r4, r5, lr}
 498              		.cfi_def_cfa_offset 12
 499              		.cfi_offset 4, -12
 500              		.cfi_offset 5, -8
 501              		.cfi_offset 14, -4
 502 0002 8DB0     		sub	sp, sp, #52
 503              		.cfi_def_cfa_offset 64
 504 0004 0D46     		mov	r5, r1
  69:c_uart.c      ****     *v = mrb_nil_value();
 505              		.loc 1 69 0
ARM GAS  C:\Users\164\AppData\Local\Temp\ccwvZXmi.s 			page 20


 506 0006 144B     		ldr	r3, .L38
 507 0008 1B68     		ldr	r3, [r3]
 508 000a 002B     		cmp	r3, #0
 509 000c 0FDD     		ble	.L35
 510              	.LBB32:
 511              	.LBB33:
 268:value.h       ****   return value;
 512              		.loc 3 268 0
 513 000e 04AB     		add	r3, sp, #16
 514 0010 0022     		movs	r2, #0
 515              	.LVL68:
 516 0012 0492     		str	r2, [sp, #16]
 517 0014 0592     		str	r2, [sp, #20]
 518 0016 0692     		str	r2, [sp, #24]
 519 0018 0792     		str	r2, [sp, #28]
 520 001a 0122     		movs	r2, #1
 521 001c 8DF81020 		strb	r2, [sp, #16]
 522              		.loc 3 269 0
 523 0020 08AC     		add	r4, sp, #32
 524 0022 0FCB     		ldmia	r3, {r0, r1, r2, r3}
 525              	.LVL69:
 526 0024 84E80F00 		stmia	r4, {r0, r1, r2, r3}
 527              	.LBE33:
 528              	.LBE32:
  70:c_uart.c      ****     return;
 529              		.loc 1 70 0
 530 0028 85E80F00 		stmia	r5, {r0, r1, r2, r3}
  71:c_uart.c      ****   }
 531              		.loc 1 71 0
 532 002c 12E0     		b	.L34
 533              	.LVL70:
 534              	.L35:
 535 002e 0146     		mov	r1, r0
 536              	.LVL71:
  74:c_uart.c      ****   *((UART_HANDLE **)v->instance->data) = &uh[num++];
 537              		.loc 1 74 0
 538 0030 0423     		movs	r3, #4
 539 0032 AA68     		ldr	r2, [r5, #8]
 540              	.LVL72:
 541 0034 6846     		mov	r0, sp
 542              	.LVL73:
 543 0036 FFF7FEFF 		bl	mrbc_instance_new
 544              	.LVL74:
 545 003a 9DE80F00 		ldmia	sp, {r0, r1, r2, r3}
 546 003e 85E80F00 		stmia	r5, {r0, r1, r2, r3}
  75:c_uart.c      **** }
 547              		.loc 1 75 0
 548 0042 0549     		ldr	r1, .L38
 549 0044 0B68     		ldr	r3, [r1]
 550 0046 581C     		adds	r0, r3, #1
 551 0048 0860     		str	r0, [r1]
 552 004a 0449     		ldr	r1, .L38+4
 553 004c B420     		movs	r0, #180
 554 004e 00FB0313 		mla	r3, r0, r3, r1
 555 0052 D360     		str	r3, [r2, #12]
 556              	.L34:
  76:c_uart.c      **** 
ARM GAS  C:\Users\164\AppData\Local\Temp\ccwvZXmi.s 			page 21


 557              		.loc 1 76 0
 558 0054 0DB0     		add	sp, sp, #52
 559              		.cfi_def_cfa_offset 12
 560              		@ sp needed
 561 0056 30BD     		pop	{r4, r5, pc}
 562              	.LVL75:
 563              	.L39:
 564              		.align	2
 565              	.L38:
 566 0058 00000000 		.word	.LANCHOR0
 567 005c 00000000 		.word	uh
 568              		.cfi_endproc
 569              	.LFE78:
 570              		.size	c_uart_new, .-c_uart_new
 571              		.section	.text.mrbc_init_class_uart,"ax",%progbits
 572              		.align	2
 573              		.global	mrbc_init_class_uart
 574              		.thumb
 575              		.thumb_func
 576              		.type	mrbc_init_class_uart, %function
 577              	mrbc_init_class_uart:
 578              	.LFB85:
 191:c_uart.c      **** }
 192:c_uart.c      **** 
 193:c_uart.c      **** 
 194:c_uart.c      **** //================================================================
 195:c_uart.c      **** /*! initialize
 196:c_uart.c      **** */
 197:c_uart.c      **** void mrbc_init_class_uart(struct VM *vm)
 198:c_uart.c      **** {
 579              		.loc 1 198 0
 580              		.cfi_startproc
 581              		@ args = 0, pretend = 0, frame = 0
 582              		@ frame_needed = 0, uses_anonymous_args = 0
 583              	.LVL76:
 584 0000 10B5     		push	{r4, lr}
 585              		.cfi_def_cfa_offset 8
 586              		.cfi_offset 4, -8
 587              		.cfi_offset 14, -4
 588 0002 88B0     		sub	sp, sp, #32
 589              		.cfi_def_cfa_offset 40
 199:c_uart.c      ****   // start physical device
 200:c_uart.c      ****   uart_init( &uh[0], UART_1 );
 590              		.loc 1 200 0
 591 0004 264B     		ldr	r3, .L42
 592 0006 0693     		str	r3, [sp, #24]
 593 0008 264B     		ldr	r3, .L42+4
 594 000a 0593     		str	r3, [sp, #20]
 595 000c 264B     		ldr	r3, .L42+8
 596 000e 0493     		str	r3, [sp, #16]
 597 0010 264B     		ldr	r3, .L42+12
 598 0012 0393     		str	r3, [sp, #12]
 599 0014 264B     		ldr	r3, .L42+16
 600 0016 0293     		str	r3, [sp, #8]
 601 0018 264B     		ldr	r3, .L42+20
 602 001a 0193     		str	r3, [sp, #4]
 603 001c 264B     		ldr	r3, .L42+24
ARM GAS  C:\Users\164\AppData\Local\Temp\ccwvZXmi.s 			page 22


 604 001e 0093     		str	r3, [sp]
 605 0020 264B     		ldr	r3, .L42+28
 606 0022 2022     		movs	r2, #32
 607 0024 0121     		movs	r1, #1
 608 0026 2648     		ldr	r0, .L42+32
 609              	.LVL77:
 610 0028 FFF7FEFF 		bl	uart_init_m
 611              	.LVL78:
 612 002c 2548     		ldr	r0, .L42+36
 613 002e FFF7FEFF 		bl	isr_UART_1_Tx_StartEx
 614              	.LVL79:
 615 0032 2548     		ldr	r0, .L42+40
 616 0034 FFF7FEFF 		bl	isr_UART_1_Rx_StartEx
 617              	.LVL80:
 201:c_uart.c      ****   // uart_init( &uh[1], UART_2 );
 202:c_uart.c      **** 
 203:c_uart.c      ****   // define class and methods.
 204:c_uart.c      ****   mrb_class *uart;
 205:c_uart.c      ****   uart = mrbc_define_class(0, "UART",	mrbc_class_object);
 618              		.loc 1 205 0
 619 0038 244B     		ldr	r3, .L42+44
 620 003a 1A68     		ldr	r2, [r3]
 621 003c 2449     		ldr	r1, .L42+48
 622 003e 0020     		movs	r0, #0
 623 0040 FFF7FEFF 		bl	mrbc_define_class
 624              	.LVL81:
 625 0044 0446     		mov	r4, r0
 626              	.LVL82:
 206:c_uart.c      ****   mrbc_define_method(0, uart, "new",	c_uart_new);
 627              		.loc 1 206 0
 628 0046 234B     		ldr	r3, .L42+52
 629 0048 234A     		ldr	r2, .L42+56
 630 004a 0146     		mov	r1, r0
 631 004c 0020     		movs	r0, #0
 632              	.LVL83:
 633 004e FFF7FEFF 		bl	mrbc_define_method
 634              	.LVL84:
 207:c_uart.c      ****   mrbc_define_method(0, uart, "read",	c_uart_read);
 635              		.loc 1 207 0
 636 0052 224B     		ldr	r3, .L42+60
 637 0054 224A     		ldr	r2, .L42+64
 638 0056 2146     		mov	r1, r4
 639 0058 0020     		movs	r0, #0
 640 005a FFF7FEFF 		bl	mrbc_define_method
 641              	.LVL85:
 208:c_uart.c      ****   mrbc_define_method(0, uart, "write",	c_uart_write);
 642              		.loc 1 208 0
 643 005e 214B     		ldr	r3, .L42+68
 644 0060 214A     		ldr	r2, .L42+72
 645 0062 2146     		mov	r1, r4
 646 0064 0020     		movs	r0, #0
 647 0066 FFF7FEFF 		bl	mrbc_define_method
 648              	.LVL86:
 209:c_uart.c      ****   mrbc_define_method(0, uart, "gets",	c_uart_gets);
 649              		.loc 1 209 0
 650 006a 204B     		ldr	r3, .L42+76
 651 006c 204A     		ldr	r2, .L42+80
ARM GAS  C:\Users\164\AppData\Local\Temp\ccwvZXmi.s 			page 23


 652 006e 2146     		mov	r1, r4
 653 0070 0020     		movs	r0, #0
 654 0072 FFF7FEFF 		bl	mrbc_define_method
 655              	.LVL87:
 210:c_uart.c      ****   mrbc_define_method(0, uart, "puts",	c_uart_puts);
 656              		.loc 1 210 0
 657 0076 1F4B     		ldr	r3, .L42+84
 658 0078 1F4A     		ldr	r2, .L42+88
 659 007a 2146     		mov	r1, r4
 660 007c 0020     		movs	r0, #0
 661 007e FFF7FEFF 		bl	mrbc_define_method
 662              	.LVL88:
 211:c_uart.c      ****   mrbc_define_method(0, uart, "clear_tx_buffer", c_uart_clear_tx_buffer);
 663              		.loc 1 211 0
 664 0082 1E4B     		ldr	r3, .L42+92
 665 0084 1E4A     		ldr	r2, .L42+96
 666 0086 2146     		mov	r1, r4
 667 0088 0020     		movs	r0, #0
 668 008a FFF7FEFF 		bl	mrbc_define_method
 669              	.LVL89:
 212:c_uart.c      ****   mrbc_define_method(0, uart, "clear_rx_buffer", c_uart_clear_rx_buffer);
 670              		.loc 1 212 0
 671 008e 1D4B     		ldr	r3, .L42+100
 672 0090 1D4A     		ldr	r2, .L42+104
 673 0092 2146     		mov	r1, r4
 674 0094 0020     		movs	r0, #0
 675 0096 FFF7FEFF 		bl	mrbc_define_method
 676              	.LVL90:
 213:c_uart.c      **** }
 677              		.loc 1 213 0
 678 009a 08B0     		add	sp, sp, #32
 679              		.cfi_def_cfa_offset 8
 680              		@ sp needed
 681 009c 10BD     		pop	{r4, pc}
 682              	.LVL91:
 683              	.L43:
 684 009e 00BF     		.align	2
 685              	.L42:
 686 00a0 00000000 		.word	UART_1_ReadRxData
 687 00a4 00000000 		.word	UART_1_WriteTxData
 688 00a8 00000000 		.word	UART_1_ReadRxStatus
 689 00ac 00000000 		.word	UART_1_ReadTxStatus
 690 00b0 00000000 		.word	UART_1_ClearRxBuffer
 691 00b4 00000000 		.word	UART_1_ClearTxBuffer
 692 00b8 00000000 		.word	UART_1_Stop
 693 00bc 00000000 		.word	UART_1_Start
 694 00c0 00000000 		.word	uh
 695 00c4 00000000 		.word	isr_UART_1_Tx
 696 00c8 00000000 		.word	isr_UART_1_Rx
 697 00cc 00000000 		.word	mrbc_class_object
 698 00d0 00000000 		.word	.LC0
 699 00d4 00000000 		.word	c_uart_new
 700 00d8 08000000 		.word	.LC1
 701 00dc 00000000 		.word	c_uart_read
 702 00e0 0C000000 		.word	.LC2
 703 00e4 00000000 		.word	c_uart_write
 704 00e8 14000000 		.word	.LC3
ARM GAS  C:\Users\164\AppData\Local\Temp\ccwvZXmi.s 			page 24


 705 00ec 00000000 		.word	c_uart_gets
 706 00f0 1C000000 		.word	.LC4
 707 00f4 00000000 		.word	c_uart_puts
 708 00f8 24000000 		.word	.LC5
 709 00fc 00000000 		.word	c_uart_clear_tx_buffer
 710 0100 2C000000 		.word	.LC6
 711 0104 00000000 		.word	c_uart_clear_rx_buffer
 712 0108 3C000000 		.word	.LC7
 713              		.cfi_endproc
 714              	.LFE85:
 715              		.size	mrbc_init_class_uart, .-mrbc_init_class_uart
 716              		.comm	uh,180,4
 717              		.section	.rodata.str1.4,"aMS",%progbits,1
 718              		.align	2
 719              	.LC0:
 720 0000 55415254 		.ascii	"UART\000"
 720      00
 721 0005 000000   		.space	3
 722              	.LC1:
 723 0008 6E657700 		.ascii	"new\000"
 724              	.LC2:
 725 000c 72656164 		.ascii	"read\000"
 725      00
 726 0011 000000   		.space	3
 727              	.LC3:
 728 0014 77726974 		.ascii	"write\000"
 728      6500
 729 001a 0000     		.space	2
 730              	.LC4:
 731 001c 67657473 		.ascii	"gets\000"
 731      00
 732 0021 000000   		.space	3
 733              	.LC5:
 734 0024 70757473 		.ascii	"puts\000"
 734      00
 735 0029 000000   		.space	3
 736              	.LC6:
 737 002c 636C6561 		.ascii	"clear_tx_buffer\000"
 737      725F7478 
 737      5F627566 
 737      66657200 
 738              	.LC7:
 739 003c 636C6561 		.ascii	"clear_rx_buffer\000"
 739      725F7278 
 739      5F627566 
 739      66657200 
 740              		.bss
 741              		.align	2
 742              		.set	.LANCHOR0,. + 0
 743              		.type	num.7063, %object
 744              		.size	num.7063, 4
 745              	num.7063:
 746 0000 00000000 		.space	4
 747              		.text
 748              	.Letext0:
 749              		.file 4 "c:\\program files (x86)\\cypress\\psoc creator\\4.2\\psoc creator\\import\\gnu\\arm\\5.4.
 750              		.file 5 "c:\\program files (x86)\\cypress\\psoc creator\\4.2\\psoc creator\\import\\gnu\\arm\\5.4.
ARM GAS  C:\Users\164\AppData\Local\Temp\ccwvZXmi.s 			page 25


 751              		.file 6 "Generated_Source\\PSoC5/cytypes.h"
 752              		.file 7 "vm.h"
 753              		.file 8 "uart2.h"
 754              		.file 9 "Generated_Source\\PSoC5/core_cm3.h"
 755              		.file 10 "static.h"
 756              		.file 11 "alloc.h"
 757              		.file 12 "Generated_Source\\PSoC5/isr_UART_1_Tx.h"
 758              		.file 13 "Generated_Source\\PSoC5/isr_UART_1_Rx.h"
 759              		.file 14 "class.h"
 760              		.section	.debug_info,"",%progbits
 761              	.Ldebug_info0:
 762 0000 63100000 		.4byte	0x1063
 763 0004 0400     		.2byte	0x4
 764 0006 00000000 		.4byte	.Ldebug_abbrev0
 765 000a 04       		.byte	0x4
 766 000b 01       		.uleb128 0x1
 767 000c 53020000 		.4byte	.LASF161
 768 0010 0C       		.byte	0xc
 769 0011 4A020000 		.4byte	.LASF162
 770 0015 E6030000 		.4byte	.LASF163
 771 0019 00000000 		.4byte	.Ldebug_ranges0+0
 772 001d 00000000 		.4byte	0
 773 0021 00000000 		.4byte	.Ldebug_line0
 774 0025 02       		.uleb128 0x2
 775 0026 F8040000 		.4byte	.LASF0
 776 002a 04       		.byte	0x4
 777 002b 1B       		.byte	0x1b
 778 002c 30000000 		.4byte	0x30
 779 0030 03       		.uleb128 0x3
 780 0031 01       		.byte	0x1
 781 0032 06       		.byte	0x6
 782 0033 29070000 		.4byte	.LASF2
 783 0037 02       		.uleb128 0x2
 784 0038 C6050000 		.4byte	.LASF1
 785 003c 04       		.byte	0x4
 786 003d 1D       		.byte	0x1d
 787 003e 42000000 		.4byte	0x42
 788 0042 03       		.uleb128 0x3
 789 0043 01       		.byte	0x1
 790 0044 08       		.byte	0x8
 791 0045 77060000 		.4byte	.LASF3
 792 0049 02       		.uleb128 0x2
 793 004a 71040000 		.4byte	.LASF4
 794 004e 04       		.byte	0x4
 795 004f 29       		.byte	0x29
 796 0050 54000000 		.4byte	0x54
 797 0054 03       		.uleb128 0x3
 798 0055 02       		.byte	0x2
 799 0056 05       		.byte	0x5
 800 0057 45050000 		.4byte	.LASF5
 801 005b 02       		.uleb128 0x2
 802 005c E5010000 		.4byte	.LASF6
 803 0060 04       		.byte	0x4
 804 0061 2B       		.byte	0x2b
 805 0062 66000000 		.4byte	0x66
 806 0066 03       		.uleb128 0x3
 807 0067 02       		.byte	0x2
ARM GAS  C:\Users\164\AppData\Local\Temp\ccwvZXmi.s 			page 26


 808 0068 07       		.byte	0x7
 809 0069 35070000 		.4byte	.LASF7
 810 006d 02       		.uleb128 0x2
 811 006e B4000000 		.4byte	.LASF8
 812 0072 04       		.byte	0x4
 813 0073 3F       		.byte	0x3f
 814 0074 78000000 		.4byte	0x78
 815 0078 03       		.uleb128 0x3
 816 0079 04       		.byte	0x4
 817 007a 05       		.byte	0x5
 818 007b 7E050000 		.4byte	.LASF9
 819 007f 03       		.uleb128 0x3
 820 0080 04       		.byte	0x4
 821 0081 07       		.byte	0x7
 822 0082 19060000 		.4byte	.LASF10
 823 0086 03       		.uleb128 0x3
 824 0087 08       		.byte	0x8
 825 0088 05       		.byte	0x5
 826 0089 30040000 		.4byte	.LASF11
 827 008d 03       		.uleb128 0x3
 828 008e 08       		.byte	0x8
 829 008f 07       		.byte	0x7
 830 0090 9C010000 		.4byte	.LASF12
 831 0094 04       		.uleb128 0x4
 832 0095 04       		.byte	0x4
 833 0096 05       		.byte	0x5
 834 0097 696E7400 		.ascii	"int\000"
 835 009b 03       		.uleb128 0x3
 836 009c 04       		.byte	0x4
 837 009d 07       		.byte	0x7
 838 009e 7D000000 		.4byte	.LASF13
 839 00a2 02       		.uleb128 0x2
 840 00a3 48010000 		.4byte	.LASF14
 841 00a7 05       		.byte	0x5
 842 00a8 14       		.byte	0x14
 843 00a9 25000000 		.4byte	0x25
 844 00ad 02       		.uleb128 0x2
 845 00ae D1030000 		.4byte	.LASF15
 846 00b2 05       		.byte	0x5
 847 00b3 18       		.byte	0x18
 848 00b4 37000000 		.4byte	0x37
 849 00b8 02       		.uleb128 0x2
 850 00b9 85010000 		.4byte	.LASF16
 851 00bd 05       		.byte	0x5
 852 00be 20       		.byte	0x20
 853 00bf 49000000 		.4byte	0x49
 854 00c3 02       		.uleb128 0x2
 855 00c4 21050000 		.4byte	.LASF17
 856 00c8 05       		.byte	0x5
 857 00c9 24       		.byte	0x24
 858 00ca 5B000000 		.4byte	0x5b
 859 00ce 02       		.uleb128 0x2
 860 00cf 35060000 		.4byte	.LASF18
 861 00d3 05       		.byte	0x5
 862 00d4 2C       		.byte	0x2c
 863 00d5 6D000000 		.4byte	0x6d
 864 00d9 05       		.uleb128 0x5
ARM GAS  C:\Users\164\AppData\Local\Temp\ccwvZXmi.s 			page 27


 865 00da 69070000 		.4byte	.LASF19
 866 00de 06       		.byte	0x6
 867 00df E401     		.2byte	0x1e4
 868 00e1 42000000 		.4byte	0x42
 869 00e5 03       		.uleb128 0x3
 870 00e6 04       		.byte	0x4
 871 00e7 04       		.byte	0x4
 872 00e8 61010000 		.4byte	.LASF20
 873 00ec 03       		.uleb128 0x3
 874 00ed 08       		.byte	0x8
 875 00ee 04       		.byte	0x4
 876 00ef 6F070000 		.4byte	.LASF21
 877 00f3 03       		.uleb128 0x3
 878 00f4 01       		.byte	0x1
 879 00f5 08       		.byte	0x8
 880 00f6 69030000 		.4byte	.LASF22
 881 00fa 06       		.uleb128 0x6
 882 00fb 04       		.byte	0x4
 883 00fc 00010000 		.4byte	0x100
 884 0100 07       		.uleb128 0x7
 885 0101 03       		.uleb128 0x3
 886 0102 08       		.byte	0x8
 887 0103 04       		.byte	0x4
 888 0104 15050000 		.4byte	.LASF23
 889 0108 03       		.uleb128 0x3
 890 0109 04       		.byte	0x4
 891 010a 07       		.byte	0x7
 892 010b 10060000 		.4byte	.LASF24
 893 010f 06       		.uleb128 0x6
 894 0110 04       		.byte	0x4
 895 0111 F3000000 		.4byte	0xf3
 896 0115 06       		.uleb128 0x6
 897 0116 04       		.byte	0x4
 898 0117 1B010000 		.4byte	0x11b
 899 011b 08       		.uleb128 0x8
 900 011c F3000000 		.4byte	0xf3
 901 0120 09       		.uleb128 0x9
 902 0121 C3000000 		.4byte	0xc3
 903 0125 02       		.uleb128 0x2
 904 0126 B3010000 		.4byte	.LASF25
 905 012a 03       		.byte	0x3
 906 012b 1A       		.byte	0x1a
 907 012c CE000000 		.4byte	0xce
 908 0130 02       		.uleb128 0x2
 909 0131 95030000 		.4byte	.LASF26
 910 0135 03       		.byte	0x3
 911 0136 1B       		.byte	0x1b
 912 0137 EC000000 		.4byte	0xec
 913 013b 02       		.uleb128 0x2
 914 013c 56070000 		.4byte	.LASF27
 915 0140 03       		.byte	0x3
 916 0141 1C       		.byte	0x1c
 917 0142 B8000000 		.4byte	0xb8
 918 0146 02       		.uleb128 0x2
 919 0147 47000000 		.4byte	.LASF28
 920 014b 03       		.byte	0x3
 921 014c 2C       		.byte	0x2c
ARM GAS  C:\Users\164\AppData\Local\Temp\ccwvZXmi.s 			page 28


 922 014d 51010000 		.4byte	0x151
 923 0151 06       		.uleb128 0x6
 924 0152 04       		.byte	0x4
 925 0153 57010000 		.4byte	0x157
 926 0157 0A       		.uleb128 0xa
 927 0158 6C010000 		.4byte	0x16c
 928 015c 0B       		.uleb128 0xb
 929 015d 6C010000 		.4byte	0x16c
 930 0161 0B       		.uleb128 0xb
 931 0162 14020000 		.4byte	0x214
 932 0166 0B       		.uleb128 0xb
 933 0167 94000000 		.4byte	0x94
 934 016b 00       		.byte	0
 935 016c 06       		.uleb128 0x6
 936 016d 04       		.byte	0x4
 937 016e 72010000 		.4byte	0x172
 938 0172 0C       		.uleb128 0xc
 939 0173 564D00   		.ascii	"VM\000"
 940 0176 7006     		.2byte	0x670
 941 0178 07       		.byte	0x7
 942 0179 43       		.byte	0x43
 943 017a 14020000 		.4byte	0x214
 944 017e 0D       		.uleb128 0xd
 945 017f BE000000 		.4byte	.LASF29
 946 0183 07       		.byte	0x7
 947 0184 44       		.byte	0x44
 948 0185 DF050000 		.4byte	0x5df
 949 0189 00       		.byte	0
 950 018a 0D       		.uleb128 0xd
 951 018b FD010000 		.4byte	.LASF30
 952 018f 07       		.byte	0x7
 953 0190 46       		.byte	0x46
 954 0191 AD000000 		.4byte	0xad
 955 0195 04       		.byte	0x4
 956 0196 0E       		.uleb128 0xe
 957 0197 6D726200 		.ascii	"mrb\000"
 958 019b 07       		.byte	0x7
 959 019c 47       		.byte	0x47
 960 019d FC050000 		.4byte	0x5fc
 961 01a1 08       		.byte	0x8
 962 01a2 0D       		.uleb128 0xd
 963 01a3 42020000 		.4byte	.LASF31
 964 01a7 07       		.byte	0x7
 965 01a8 49       		.byte	0x49
 966 01a9 DF050000 		.4byte	0x5df
 967 01ad 0C       		.byte	0xc
 968 01ae 0E       		.uleb128 0xe
 969 01af 706300   		.ascii	"pc\000"
 970 01b2 07       		.byte	0x7
 971 01b3 4A       		.byte	0x4a
 972 01b4 C3000000 		.4byte	0xc3
 973 01b8 10       		.byte	0x10
 974 01b9 0D       		.uleb128 0xd
 975 01ba 14010000 		.4byte	.LASF32
 976 01be 07       		.byte	0x7
 977 01bf 4D       		.byte	0x4d
 978 01c0 07060000 		.4byte	0x607
ARM GAS  C:\Users\164\AppData\Local\Temp\ccwvZXmi.s 			page 29


 979 01c4 18       		.byte	0x18
 980 01c5 0F       		.uleb128 0xf
 981 01c6 3B010000 		.4byte	.LASF33
 982 01ca 07       		.byte	0x7
 983 01cb 4E       		.byte	0x4e
 984 01cc E5050000 		.4byte	0x5e5
 985 01d0 5806     		.2byte	0x658
 986 01d2 0F       		.uleb128 0xf
 987 01d3 2A050000 		.4byte	.LASF34
 988 01d7 07       		.byte	0x7
 989 01d8 4F       		.byte	0x4f
 990 01d9 17060000 		.4byte	0x617
 991 01dd 5C06     		.2byte	0x65c
 992 01df 0F       		.uleb128 0xf
 993 01e0 D9030000 		.4byte	.LASF35
 994 01e4 07       		.byte	0x7
 995 01e5 51       		.byte	0x51
 996 01e6 EB050000 		.4byte	0x5eb
 997 01ea 6006     		.2byte	0x660
 998 01ec 0F       		.uleb128 0xf
 999 01ed F0060000 		.4byte	.LASF36
 1000 01f1 07       		.byte	0x7
 1001 01f2 53       		.byte	0x53
 1002 01f3 CE000000 		.4byte	0xce
 1003 01f7 6406     		.2byte	0x664
 1004 01f9 0F       		.uleb128 0xf
 1005 01fa 02070000 		.4byte	.LASF37
 1006 01fe 07       		.byte	0x7
 1007 01ff 55       		.byte	0x55
 1008 0200 1D060000 		.4byte	0x61d
 1009 0204 6806     		.2byte	0x668
 1010 0206 0F       		.uleb128 0xf
 1011 0207 3A030000 		.4byte	.LASF38
 1012 020b 07       		.byte	0x7
 1013 020c 56       		.byte	0x56
 1014 020d A2000000 		.4byte	0xa2
 1015 0211 6906     		.2byte	0x669
 1016 0213 00       		.byte	0
 1017 0214 06       		.uleb128 0x6
 1018 0215 04       		.byte	0x4
 1019 0216 1A020000 		.4byte	0x21a
 1020 021a 10       		.uleb128 0x10
 1021 021b 8C050000 		.4byte	.LASF39
 1022 021f 10       		.byte	0x10
 1023 0220 03       		.byte	0x3
 1024 0221 68       		.byte	0x68
 1025 0222 3B020000 		.4byte	0x23b
 1026 0226 11       		.uleb128 0x11
 1027 0227 747400   		.ascii	"tt\000"
 1028 022a 03       		.byte	0x3
 1029 022b 69       		.byte	0x69
 1030 022c A2020000 		.4byte	0x2a2
 1031 0230 01       		.byte	0x1
 1032 0231 08       		.byte	0x8
 1033 0232 00       		.byte	0
 1034 0233 00       		.byte	0
 1035 0234 12       		.uleb128 0x12
ARM GAS  C:\Users\164\AppData\Local\Temp\ccwvZXmi.s 			page 30


 1036 0235 AD020000 		.4byte	0x2ad
 1037 0239 08       		.byte	0x8
 1038 023a 00       		.byte	0
 1039 023b 13       		.uleb128 0x13
 1040 023c 01       		.byte	0x1
 1041 023d 30000000 		.4byte	0x30
 1042 0241 03       		.byte	0x3
 1043 0242 33       		.byte	0x33
 1044 0243 A2020000 		.4byte	0x2a2
 1045 0247 14       		.uleb128 0x14
 1046 0248 26010000 		.4byte	.LASF40
 1047 024c 7F       		.sleb128 -1
 1048 024d 15       		.uleb128 0x15
 1049 024e 8F000000 		.4byte	.LASF41
 1050 0252 00       		.byte	0
 1051 0253 15       		.uleb128 0x15
 1052 0254 B7030000 		.4byte	.LASF42
 1053 0258 01       		.byte	0x1
 1054 0259 15       		.uleb128 0x15
 1055 025a 70050000 		.4byte	.LASF43
 1056 025e 02       		.byte	0x2
 1057 025f 15       		.uleb128 0x15
 1058 0260 38050000 		.4byte	.LASF44
 1059 0264 03       		.byte	0x3
 1060 0265 15       		.uleb128 0x15
 1061 0266 7B040000 		.4byte	.LASF45
 1062 026a 04       		.byte	0x4
 1063 026b 15       		.uleb128 0x15
 1064 026c 53000000 		.4byte	.LASF46
 1065 0270 05       		.byte	0x5
 1066 0271 15       		.uleb128 0x15
 1067 0272 8D010000 		.4byte	.LASF47
 1068 0276 06       		.byte	0x6
 1069 0277 15       		.uleb128 0x15
 1070 0278 AE050000 		.4byte	.LASF48
 1071 027c 07       		.byte	0x7
 1072 027d 15       		.uleb128 0x15
 1073 027e E3040000 		.4byte	.LASF49
 1074 0282 14       		.byte	0x14
 1075 0283 15       		.uleb128 0x15
 1076 0284 7C070000 		.4byte	.LASF50
 1077 0288 15       		.byte	0x15
 1078 0289 15       		.uleb128 0x15
 1079 028a C3030000 		.4byte	.LASF51
 1080 028e 16       		.byte	0x16
 1081 028f 15       		.uleb128 0x15
 1082 0290 B5040000 		.4byte	.LASF52
 1083 0294 17       		.byte	0x17
 1084 0295 15       		.uleb128 0x15
 1085 0296 50040000 		.4byte	.LASF53
 1086 029a 18       		.byte	0x18
 1087 029b 15       		.uleb128 0x15
 1088 029c AD060000 		.4byte	.LASF54
 1089 02a0 19       		.byte	0x19
 1090 02a1 00       		.byte	0
 1091 02a2 02       		.uleb128 0x2
 1092 02a3 2E020000 		.4byte	.LASF55
ARM GAS  C:\Users\164\AppData\Local\Temp\ccwvZXmi.s 			page 31


 1093 02a7 03       		.byte	0x3
 1094 02a8 49       		.byte	0x49
 1095 02a9 3B020000 		.4byte	0x23b
 1096 02ad 16       		.uleb128 0x16
 1097 02ae 08       		.byte	0x8
 1098 02af 03       		.byte	0x3
 1099 02b0 6A       		.byte	0x6a
 1100 02b1 2B030000 		.4byte	0x32b
 1101 02b5 17       		.uleb128 0x17
 1102 02b6 6900     		.ascii	"i\000"
 1103 02b8 03       		.byte	0x3
 1104 02b9 6B       		.byte	0x6b
 1105 02ba 25010000 		.4byte	0x125
 1106 02be 17       		.uleb128 0x17
 1107 02bf 6400     		.ascii	"d\000"
 1108 02c1 03       		.byte	0x3
 1109 02c2 6D       		.byte	0x6d
 1110 02c3 30010000 		.4byte	0x130
 1111 02c7 17       		.uleb128 0x17
 1112 02c8 636C7300 		.ascii	"cls\000"
 1113 02cc 03       		.byte	0x3
 1114 02cd 6F       		.byte	0x6f
 1115 02ce 5C030000 		.4byte	0x35c
 1116 02d2 18       		.uleb128 0x18
 1117 02d3 48070000 		.4byte	.LASF56
 1118 02d7 03       		.byte	0x3
 1119 02d8 70       		.byte	0x70
 1120 02d9 14020000 		.4byte	0x214
 1121 02dd 18       		.uleb128 0x18
 1122 02de 39020000 		.4byte	.LASF57
 1123 02e2 03       		.byte	0x3
 1124 02e3 71       		.byte	0x71
 1125 02e4 AD030000 		.4byte	0x3ad
 1126 02e8 18       		.uleb128 0x18
 1127 02e9 0B060000 		.4byte	.LASF58
 1128 02ed 03       		.byte	0x3
 1129 02ee 72       		.byte	0x72
 1130 02ef 07040000 		.4byte	0x407
 1131 02f3 18       		.uleb128 0x18
 1132 02f4 01050000 		.4byte	.LASF59
 1133 02f8 03       		.byte	0x3
 1134 02f9 73       		.byte	0x73
 1135 02fa 12040000 		.4byte	0x412
 1136 02fe 18       		.uleb128 0x18
 1137 02ff AB030000 		.4byte	.LASF60
 1138 0303 03       		.byte	0x3
 1139 0304 74       		.byte	0x74
 1140 0305 57040000 		.4byte	0x457
 1141 0309 17       		.uleb128 0x17
 1142 030a 73747200 		.ascii	"str\000"
 1143 030e 03       		.byte	0x3
 1144 030f 75       		.byte	0x75
 1145 0310 15010000 		.4byte	0x115
 1146 0314 18       		.uleb128 0x18
 1147 0315 AF040000 		.4byte	.LASF61
 1148 0319 03       		.byte	0x3
 1149 031a 76       		.byte	0x76
ARM GAS  C:\Users\164\AppData\Local\Temp\ccwvZXmi.s 			page 32


 1150 031b 62040000 		.4byte	0x462
 1151 031f 18       		.uleb128 0x18
 1152 0320 87050000 		.4byte	.LASF62
 1153 0324 03       		.byte	0x3
 1154 0325 77       		.byte	0x77
 1155 0326 6D040000 		.4byte	0x46d
 1156 032a 00       		.byte	0
 1157 032b 10       		.uleb128 0x10
 1158 032c 5A010000 		.4byte	.LASF63
 1159 0330 0C       		.byte	0xc
 1160 0331 03       		.byte	0x3
 1161 0332 84       		.byte	0x84
 1162 0333 5C030000 		.4byte	0x35c
 1163 0337 0D       		.uleb128 0xd
 1164 0338 49040000 		.4byte	.LASF64
 1165 033c 03       		.byte	0x3
 1166 033d 85       		.byte	0x85
 1167 033e 3B010000 		.4byte	0x13b
 1168 0342 00       		.byte	0
 1169 0343 0D       		.uleb128 0xd
 1170 0344 A5030000 		.4byte	.LASF65
 1171 0348 03       		.byte	0x3
 1172 0349 89       		.byte	0x89
 1173 034a 5C030000 		.4byte	0x35c
 1174 034e 04       		.byte	0x4
 1175 034f 0D       		.uleb128 0xd
 1176 0350 F6020000 		.4byte	.LASF66
 1177 0354 03       		.byte	0x3
 1178 0355 8A       		.byte	0x8a
 1179 0356 07040000 		.4byte	0x407
 1180 035a 08       		.byte	0x8
 1181 035b 00       		.byte	0
 1182 035c 06       		.uleb128 0x6
 1183 035d 04       		.byte	0x4
 1184 035e 2B030000 		.4byte	0x32b
 1185 0362 10       		.uleb128 0x10
 1186 0363 47060000 		.4byte	.LASF67
 1187 0367 0C       		.byte	0xc
 1188 0368 03       		.byte	0x3
 1189 0369 93       		.byte	0x93
 1190 036a AD030000 		.4byte	0x3ad
 1191 036e 0D       		.uleb128 0xd
 1192 036f 61000000 		.4byte	.LASF68
 1193 0373 03       		.byte	0x3
 1194 0374 94       		.byte	0x94
 1195 0375 C3000000 		.4byte	0xc3
 1196 0379 00       		.byte	0
 1197 037a 11       		.uleb128 0x11
 1198 037b 747400   		.ascii	"tt\000"
 1199 037e 03       		.byte	0x3
 1200 037f 94       		.byte	0x94
 1201 0380 A2020000 		.4byte	0x2a2
 1202 0384 01       		.byte	0x1
 1203 0385 08       		.byte	0x8
 1204 0386 00       		.byte	0
 1205 0387 02       		.byte	0x2
 1206 0388 0E       		.uleb128 0xe
ARM GAS  C:\Users\164\AppData\Local\Temp\ccwvZXmi.s 			page 33


 1207 0389 636C7300 		.ascii	"cls\000"
 1208 038d 03       		.byte	0x3
 1209 038e 96       		.byte	0x96
 1210 038f 5C030000 		.4byte	0x35c
 1211 0393 04       		.byte	0x4
 1212 0394 0D       		.uleb128 0xd
 1213 0395 A0030000 		.4byte	.LASF69
 1214 0399 03       		.byte	0x3
 1215 039a 97       		.byte	0x97
 1216 039b AF040000 		.4byte	0x4af
 1217 039f 08       		.byte	0x8
 1218 03a0 0D       		.uleb128 0xd
 1219 03a1 B2030000 		.4byte	.LASF70
 1220 03a5 03       		.byte	0x3
 1221 03a6 98       		.byte	0x98
 1222 03a7 B5040000 		.4byte	0x4b5
 1223 03ab 0C       		.byte	0xc
 1224 03ac 00       		.byte	0
 1225 03ad 06       		.uleb128 0x6
 1226 03ae 04       		.byte	0x4
 1227 03af 62030000 		.4byte	0x362
 1228 03b3 10       		.uleb128 0x10
 1229 03b4 FF000000 		.4byte	.LASF71
 1230 03b8 10       		.byte	0x10
 1231 03b9 03       		.byte	0x3
 1232 03ba A1       		.byte	0xa1
 1233 03bb 07040000 		.4byte	0x407
 1234 03bf 0D       		.uleb128 0xd
 1235 03c0 61000000 		.4byte	.LASF68
 1236 03c4 03       		.byte	0x3
 1237 03c5 A2       		.byte	0xa2
 1238 03c6 C3000000 		.4byte	0xc3
 1239 03ca 00       		.byte	0
 1240 03cb 11       		.uleb128 0x11
 1241 03cc 747400   		.ascii	"tt\000"
 1242 03cf 03       		.byte	0x3
 1243 03d0 A2       		.byte	0xa2
 1244 03d1 A2020000 		.4byte	0x2a2
 1245 03d5 01       		.byte	0x1
 1246 03d6 08       		.byte	0x8
 1247 03d7 00       		.byte	0
 1248 03d8 02       		.byte	0x2
 1249 03d9 19       		.uleb128 0x19
 1250 03da FB060000 		.4byte	.LASF72
 1251 03de 03       		.byte	0x3
 1252 03df A4       		.byte	0xa4
 1253 03e0 9B000000 		.4byte	0x9b
 1254 03e4 04       		.byte	0x4
 1255 03e5 01       		.byte	0x1
 1256 03e6 07       		.byte	0x7
 1257 03e7 00       		.byte	0
 1258 03e8 0D       		.uleb128 0xd
 1259 03e9 49040000 		.4byte	.LASF64
 1260 03ed 03       		.byte	0x3
 1261 03ee A5       		.byte	0xa5
 1262 03ef 3B010000 		.4byte	0x13b
 1263 03f3 04       		.byte	0x4
ARM GAS  C:\Users\164\AppData\Local\Temp\ccwvZXmi.s 			page 34


 1264 03f4 0D       		.uleb128 0xd
 1265 03f5 8A000000 		.4byte	.LASF73
 1266 03f9 03       		.byte	0x3
 1267 03fa A9       		.byte	0xa9
 1268 03fb 07040000 		.4byte	0x407
 1269 03ff 08       		.byte	0x8
 1270 0400 12       		.uleb128 0x12
 1271 0401 C4040000 		.4byte	0x4c4
 1272 0405 0C       		.byte	0xc
 1273 0406 00       		.byte	0
 1274 0407 06       		.uleb128 0x6
 1275 0408 04       		.byte	0x4
 1276 0409 B3030000 		.4byte	0x3b3
 1277 040d 1A       		.uleb128 0x1a
 1278 040e 4F070000 		.4byte	.LASF76
 1279 0412 06       		.uleb128 0x6
 1280 0413 04       		.byte	0x4
 1281 0414 0D040000 		.4byte	0x40d
 1282 0418 10       		.uleb128 0x10
 1283 0419 F0050000 		.4byte	.LASF74
 1284 041d 0C       		.byte	0xc
 1285 041e 02       		.byte	0x2
 1286 041f 1D       		.byte	0x1d
 1287 0420 57040000 		.4byte	0x457
 1288 0424 0D       		.uleb128 0xd
 1289 0425 61000000 		.4byte	.LASF68
 1290 0429 02       		.byte	0x2
 1291 042a 1E       		.byte	0x1e
 1292 042b C3000000 		.4byte	0xc3
 1293 042f 00       		.byte	0
 1294 0430 11       		.uleb128 0x11
 1295 0431 747400   		.ascii	"tt\000"
 1296 0434 02       		.byte	0x2
 1297 0435 1E       		.byte	0x1e
 1298 0436 A2020000 		.4byte	0x2a2
 1299 043a 01       		.byte	0x1
 1300 043b 08       		.byte	0x8
 1301 043c 00       		.byte	0
 1302 043d 02       		.byte	0x2
 1303 043e 0D       		.uleb128 0xd
 1304 043f AA040000 		.4byte	.LASF75
 1305 0443 02       		.byte	0x2
 1306 0444 20       		.byte	0x20
 1307 0445 C3000000 		.4byte	0xc3
 1308 0449 04       		.byte	0x4
 1309 044a 0D       		.uleb128 0xd
 1310 044b B2030000 		.4byte	.LASF70
 1311 044f 02       		.byte	0x2
 1312 0450 21       		.byte	0x21
 1313 0451 62050000 		.4byte	0x562
 1314 0455 08       		.byte	0x8
 1315 0456 00       		.byte	0
 1316 0457 06       		.uleb128 0x6
 1317 0458 04       		.byte	0x4
 1318 0459 18040000 		.4byte	0x418
 1319 045d 1A       		.uleb128 0x1a
 1320 045e A2070000 		.4byte	.LASF77
ARM GAS  C:\Users\164\AppData\Local\Temp\ccwvZXmi.s 			page 35


 1321 0462 06       		.uleb128 0x6
 1322 0463 04       		.byte	0x4
 1323 0464 5D040000 		.4byte	0x45d
 1324 0468 1A       		.uleb128 0x1a
 1325 0469 41000000 		.4byte	.LASF78
 1326 046d 06       		.uleb128 0x6
 1327 046e 04       		.byte	0x4
 1328 046f 68040000 		.4byte	0x468
 1329 0473 02       		.uleb128 0x2
 1330 0474 E1020000 		.4byte	.LASF79
 1331 0478 03       		.byte	0x3
 1332 0479 7B       		.byte	0x7b
 1333 047a 1A020000 		.4byte	0x21a
 1334 047e 02       		.uleb128 0x2
 1335 047f 8C060000 		.4byte	.LASF80
 1336 0483 03       		.byte	0x3
 1337 0484 7C       		.byte	0x7c
 1338 0485 1A020000 		.4byte	0x21a
 1339 0489 02       		.uleb128 0x2
 1340 048a 3E040000 		.4byte	.LASF81
 1341 048e 03       		.byte	0x3
 1342 048f 7D       		.byte	0x7d
 1343 0490 1A020000 		.4byte	0x21a
 1344 0494 02       		.uleb128 0x2
 1345 0495 A9000000 		.4byte	.LASF82
 1346 0499 03       		.byte	0x3
 1347 049a 8B       		.byte	0x8b
 1348 049b 2B030000 		.4byte	0x32b
 1349 049f 02       		.uleb128 0x2
 1350 04a0 2B060000 		.4byte	.LASF83
 1351 04a4 03       		.byte	0x3
 1352 04a5 8C       		.byte	0x8c
 1353 04a6 2B030000 		.4byte	0x32b
 1354 04aa 1A       		.uleb128 0x1a
 1355 04ab C3000000 		.4byte	.LASF84
 1356 04af 06       		.uleb128 0x6
 1357 04b0 04       		.byte	0x4
 1358 04b1 AA040000 		.4byte	0x4aa
 1359 04b5 1B       		.uleb128 0x1b
 1360 04b6 AD000000 		.4byte	0xad
 1361 04ba C4040000 		.4byte	0x4c4
 1362 04be 1C       		.uleb128 0x1c
 1363 04bf 08010000 		.4byte	0x108
 1364 04c3 00       		.byte	0
 1365 04c4 16       		.uleb128 0x16
 1366 04c5 04       		.byte	0x4
 1367 04c6 03       		.byte	0x3
 1368 04c7 AA       		.byte	0xaa
 1369 04c8 E3040000 		.4byte	0x4e3
 1370 04cc 18       		.uleb128 0x18
 1371 04cd BE000000 		.4byte	.LASF29
 1372 04d1 03       		.byte	0x3
 1373 04d2 AB       		.byte	0xab
 1374 04d3 5C050000 		.4byte	0x55c
 1375 04d7 18       		.uleb128 0x18
 1376 04d8 05010000 		.4byte	.LASF85
 1377 04dc 03       		.byte	0x3
ARM GAS  C:\Users\164\AppData\Local\Temp\ccwvZXmi.s 			page 36


 1378 04dd AC       		.byte	0xac
 1379 04de 46010000 		.4byte	0x146
 1380 04e2 00       		.byte	0
 1381 04e3 10       		.uleb128 0x10
 1382 04e4 42060000 		.4byte	.LASF86
 1383 04e8 1C       		.byte	0x1c
 1384 04e9 07       		.byte	0x7
 1385 04ea 20       		.byte	0x20
 1386 04eb 5C050000 		.4byte	0x55c
 1387 04ef 0D       		.uleb128 0xd
 1388 04f0 03020000 		.4byte	.LASF87
 1389 04f4 07       		.byte	0x7
 1390 04f5 21       		.byte	0x21
 1391 04f6 C3000000 		.4byte	0xc3
 1392 04fa 00       		.byte	0
 1393 04fb 0D       		.uleb128 0xd
 1394 04fc EB020000 		.4byte	.LASF88
 1395 0500 07       		.byte	0x7
 1396 0501 22       		.byte	0x22
 1397 0502 C3000000 		.4byte	0xc3
 1398 0506 02       		.byte	0x2
 1399 0507 0D       		.uleb128 0xd
 1400 0508 3D060000 		.4byte	.LASF89
 1401 050c 07       		.byte	0x7
 1402 050d 23       		.byte	0x23
 1403 050e C3000000 		.4byte	0xc3
 1404 0512 04       		.byte	0x4
 1405 0513 0D       		.uleb128 0xd
 1406 0514 A9050000 		.4byte	.LASF90
 1407 0518 07       		.byte	0x7
 1408 0519 24       		.byte	0x24
 1409 051a C3000000 		.4byte	0xc3
 1410 051e 06       		.byte	0x6
 1411 051f 0D       		.uleb128 0xd
 1412 0520 D5050000 		.4byte	.LASF91
 1413 0524 07       		.byte	0x7
 1414 0525 25       		.byte	0x25
 1415 0526 C3000000 		.4byte	0xc3
 1416 052a 08       		.byte	0x8
 1417 052b 0D       		.uleb128 0xd
 1418 052c 20030000 		.4byte	.LASF92
 1419 0530 07       		.byte	0x7
 1420 0531 27       		.byte	0x27
 1421 0532 62050000 		.4byte	0x562
 1422 0536 0C       		.byte	0xc
 1423 0537 0D       		.uleb128 0xd
 1424 0538 35010000 		.4byte	.LASF93
 1425 053c 07       		.byte	0x7
 1426 053d 28       		.byte	0x28
 1427 053e 68050000 		.4byte	0x568
 1428 0542 10       		.byte	0x10
 1429 0543 0D       		.uleb128 0xd
 1430 0544 4C030000 		.4byte	.LASF94
 1431 0548 07       		.byte	0x7
 1432 0549 29       		.byte	0x29
 1433 054a 62050000 		.4byte	0x562
 1434 054e 14       		.byte	0x14
ARM GAS  C:\Users\164\AppData\Local\Temp\ccwvZXmi.s 			page 37


 1435 054f 0D       		.uleb128 0xd
 1436 0550 D0050000 		.4byte	.LASF95
 1437 0554 07       		.byte	0x7
 1438 0555 2A       		.byte	0x2a
 1439 0556 74050000 		.4byte	0x574
 1440 055a 18       		.byte	0x18
 1441 055b 00       		.byte	0
 1442 055c 06       		.uleb128 0x6
 1443 055d 04       		.byte	0x4
 1444 055e E3040000 		.4byte	0x4e3
 1445 0562 06       		.uleb128 0x6
 1446 0563 04       		.byte	0x4
 1447 0564 AD000000 		.4byte	0xad
 1448 0568 06       		.uleb128 0x6
 1449 0569 04       		.byte	0x4
 1450 056a 6E050000 		.4byte	0x56e
 1451 056e 06       		.uleb128 0x6
 1452 056f 04       		.byte	0x4
 1453 0570 7E040000 		.4byte	0x47e
 1454 0574 06       		.uleb128 0x6
 1455 0575 04       		.byte	0x4
 1456 0576 5C050000 		.4byte	0x55c
 1457 057a 02       		.uleb128 0x2
 1458 057b BC050000 		.4byte	.LASF96
 1459 057f 07       		.byte	0x7
 1460 0580 2C       		.byte	0x2c
 1461 0581 E3040000 		.4byte	0x4e3
 1462 0585 10       		.uleb128 0x10
 1463 0586 0A030000 		.4byte	.LASF97
 1464 058a 18       		.byte	0x18
 1465 058b 07       		.byte	0x7
 1466 058c 34       		.byte	0x34
 1467 058d D9050000 		.4byte	0x5d9
 1468 0591 0D       		.uleb128 0xd
 1469 0592 0F010000 		.4byte	.LASF98
 1470 0596 07       		.byte	0x7
 1471 0597 35       		.byte	0x35
 1472 0598 D9050000 		.4byte	0x5d9
 1473 059c 00       		.byte	0
 1474 059d 0D       		.uleb128 0xd
 1475 059e 42020000 		.4byte	.LASF31
 1476 05a2 07       		.byte	0x7
 1477 05a3 36       		.byte	0x36
 1478 05a4 DF050000 		.4byte	0x5df
 1479 05a8 04       		.byte	0x4
 1480 05a9 0E       		.uleb128 0xe
 1481 05aa 706300   		.ascii	"pc\000"
 1482 05ad 07       		.byte	0x7
 1483 05ae 37       		.byte	0x37
 1484 05af C3000000 		.4byte	0xc3
 1485 05b3 08       		.byte	0x8
 1486 05b4 0D       		.uleb128 0xd
 1487 05b5 3B010000 		.4byte	.LASF33
 1488 05b9 07       		.byte	0x7
 1489 05ba 38       		.byte	0x38
 1490 05bb E5050000 		.4byte	0x5e5
 1491 05bf 0C       		.byte	0xc
ARM GAS  C:\Users\164\AppData\Local\Temp\ccwvZXmi.s 			page 38


 1492 05c0 0D       		.uleb128 0xd
 1493 05c1 D9030000 		.4byte	.LASF35
 1494 05c5 07       		.byte	0x7
 1495 05c6 39       		.byte	0x39
 1496 05c7 EB050000 		.4byte	0x5eb
 1497 05cb 10       		.byte	0x10
 1498 05cc 0D       		.uleb128 0xd
 1499 05cd 9D000000 		.4byte	.LASF99
 1500 05d1 07       		.byte	0x7
 1501 05d2 3A       		.byte	0x3a
 1502 05d3 AD000000 		.4byte	0xad
 1503 05d7 14       		.byte	0x14
 1504 05d8 00       		.byte	0
 1505 05d9 06       		.uleb128 0x6
 1506 05da 04       		.byte	0x4
 1507 05db 85050000 		.4byte	0x585
 1508 05df 06       		.uleb128 0x6
 1509 05e0 04       		.byte	0x4
 1510 05e1 7A050000 		.4byte	0x57a
 1511 05e5 06       		.uleb128 0x6
 1512 05e6 04       		.byte	0x4
 1513 05e7 89040000 		.4byte	0x489
 1514 05eb 06       		.uleb128 0x6
 1515 05ec 04       		.byte	0x4
 1516 05ed 94040000 		.4byte	0x494
 1517 05f1 02       		.uleb128 0x2
 1518 05f2 FD050000 		.4byte	.LASF100
 1519 05f6 07       		.byte	0x7
 1520 05f7 3B       		.byte	0x3b
 1521 05f8 85050000 		.4byte	0x585
 1522 05fc 06       		.uleb128 0x6
 1523 05fd 04       		.byte	0x4
 1524 05fe 02060000 		.4byte	0x602
 1525 0602 08       		.uleb128 0x8
 1526 0603 AD000000 		.4byte	0xad
 1527 0607 1B       		.uleb128 0x1b
 1528 0608 89040000 		.4byte	0x489
 1529 060c 17060000 		.4byte	0x617
 1530 0610 1D       		.uleb128 0x1d
 1531 0611 08010000 		.4byte	0x108
 1532 0615 63       		.byte	0x63
 1533 0616 00       		.byte	0
 1534 0617 06       		.uleb128 0x6
 1535 0618 04       		.byte	0x4
 1536 0619 F1050000 		.4byte	0x5f1
 1537 061d 09       		.uleb128 0x9
 1538 061e A2000000 		.4byte	0xa2
 1539 0622 02       		.uleb128 0x2
 1540 0623 85060000 		.4byte	.LASF101
 1541 0627 07       		.byte	0x7
 1542 0628 58       		.byte	0x58
 1543 0629 72010000 		.4byte	0x172
 1544 062d 10       		.uleb128 0x10
 1545 062e D7040000 		.4byte	.LASF102
 1546 0632 B4       		.byte	0xb4
 1547 0633 08       		.byte	0x8
 1548 0634 74       		.byte	0x74
ARM GAS  C:\Users\164\AppData\Local\Temp\ccwvZXmi.s 			page 39


 1549 0635 1E070000 		.4byte	0x71e
 1550 0639 0D       		.uleb128 0xd
 1551 063a C6060000 		.4byte	.LASF103
 1552 063e 08       		.byte	0x8
 1553 063f 77       		.byte	0x77
 1554 0640 15010000 		.4byte	0x115
 1555 0644 00       		.byte	0
 1556 0645 0D       		.uleb128 0xd
 1557 0646 4F010000 		.4byte	.LASF104
 1558 064a 08       		.byte	0x8
 1559 064b 78       		.byte	0x78
 1560 064c C3000000 		.4byte	0xc3
 1561 0650 04       		.byte	0x4
 1562 0651 0D       		.uleb128 0xd
 1563 0652 12070000 		.4byte	.LASF105
 1564 0656 08       		.byte	0x8
 1565 0657 79       		.byte	0x79
 1566 0658 20010000 		.4byte	0x120
 1567 065c 06       		.byte	0x6
 1568 065d 0D       		.uleb128 0xd
 1569 065e A9070000 		.4byte	.LASF106
 1570 0662 08       		.byte	0x8
 1571 0663 7A       		.byte	0x7a
 1572 0664 1E070000 		.4byte	0x71e
 1573 0668 08       		.byte	0x8
 1574 0669 0D       		.uleb128 0xd
 1575 066a 0A010000 		.4byte	.LASF107
 1576 066e 08       		.byte	0x8
 1577 066f 7B       		.byte	0x7b
 1578 0670 AD000000 		.4byte	0xad
 1579 0674 09       		.byte	0x9
 1580 0675 0D       		.uleb128 0xd
 1581 0676 8A040000 		.4byte	.LASF108
 1582 067a 08       		.byte	0x8
 1583 067b 7E       		.byte	0x7e
 1584 067c B8000000 		.4byte	0xb8
 1585 0680 0A       		.byte	0xa
 1586 0681 0D       		.uleb128 0xd
 1587 0682 F2040000 		.4byte	.LASF109
 1588 0686 08       		.byte	0x8
 1589 0687 7F       		.byte	0x7f
 1590 0688 20010000 		.4byte	0x120
 1591 068c 0C       		.byte	0xc
 1592 068d 0D       		.uleb128 0xd
 1593 068e 76070000 		.4byte	.LASF110
 1594 0692 08       		.byte	0x8
 1595 0693 80       		.byte	0x80
 1596 0694 20010000 		.4byte	0x120
 1597 0698 0E       		.byte	0xe
 1598 0699 0D       		.uleb128 0xd
 1599 069a 89070000 		.4byte	.LASF111
 1600 069e 08       		.byte	0x8
 1601 069f 81       		.byte	0x81
 1602 06a0 33070000 		.4byte	0x733
 1603 06a4 10       		.byte	0x10
 1604 06a5 0D       		.uleb128 0xd
 1605 06a6 67060000 		.4byte	.LASF112
ARM GAS  C:\Users\164\AppData\Local\Temp\ccwvZXmi.s 			page 40


 1606 06aa 08       		.byte	0x8
 1607 06ab 84       		.byte	0x84
 1608 06ac AD000000 		.4byte	0xad
 1609 06b0 90       		.byte	0x90
 1610 06b1 0D       		.uleb128 0xd
 1611 06b2 EA000000 		.4byte	.LASF113
 1612 06b6 08       		.byte	0x8
 1613 06b7 85       		.byte	0x85
 1614 06b8 AD000000 		.4byte	0xad
 1615 06bc 91       		.byte	0x91
 1616 06bd 0D       		.uleb128 0xd
 1617 06be 16000000 		.4byte	.LASF114
 1618 06c2 08       		.byte	0x8
 1619 06c3 88       		.byte	0x88
 1620 06c4 FA000000 		.4byte	0xfa
 1621 06c8 94       		.byte	0x94
 1622 06c9 0D       		.uleb128 0xd
 1623 06ca F8050000 		.4byte	.LASF115
 1624 06ce 08       		.byte	0x8
 1625 06cf 89       		.byte	0x89
 1626 06d0 FA000000 		.4byte	0xfa
 1627 06d4 98       		.byte	0x98
 1628 06d5 0D       		.uleb128 0xd
 1629 06d6 0B020000 		.4byte	.LASF116
 1630 06da 08       		.byte	0x8
 1631 06db 8A       		.byte	0x8a
 1632 06dc FA000000 		.4byte	0xfa
 1633 06e0 9C       		.byte	0x9c
 1634 06e1 0D       		.uleb128 0xd
 1635 06e2 6E030000 		.4byte	.LASF117
 1636 06e6 08       		.byte	0x8
 1637 06e7 8B       		.byte	0x8b
 1638 06e8 FA000000 		.4byte	0xfa
 1639 06ec A0       		.byte	0xa0
 1640 06ed 0D       		.uleb128 0xd
 1641 06ee 7C030000 		.4byte	.LASF118
 1642 06f2 08       		.byte	0x8
 1643 06f3 8C       		.byte	0x8c
 1644 06f4 3D070000 		.4byte	0x73d
 1645 06f8 A4       		.byte	0xa4
 1646 06f9 0D       		.uleb128 0xd
 1647 06fa 19010000 		.4byte	.LASF119
 1648 06fe 08       		.byte	0x8
 1649 06ff 8D       		.byte	0x8d
 1650 0700 3D070000 		.4byte	0x73d
 1651 0704 A8       		.byte	0xa8
 1652 0705 0D       		.uleb128 0xd
 1653 0706 E4050000 		.4byte	.LASF120
 1654 070a 08       		.byte	0x8
 1655 070b 8E       		.byte	0x8e
 1656 070c 4E070000 		.4byte	0x74e
 1657 0710 AC       		.byte	0xac
 1658 0711 0D       		.uleb128 0xd
 1659 0712 CE060000 		.4byte	.LASF121
 1660 0716 08       		.byte	0x8
 1661 0717 8F       		.byte	0x8f
 1662 0718 3D070000 		.4byte	0x73d
ARM GAS  C:\Users\164\AppData\Local\Temp\ccwvZXmi.s 			page 41


 1663 071c B0       		.byte	0xb0
 1664 071d 00       		.byte	0
 1665 071e 09       		.uleb128 0x9
 1666 071f F3000000 		.4byte	0xf3
 1667 0723 1B       		.uleb128 0x1b
 1668 0724 1E070000 		.4byte	0x71e
 1669 0728 33070000 		.4byte	0x733
 1670 072c 1D       		.uleb128 0x1d
 1671 072d 08010000 		.4byte	0x108
 1672 0731 7F       		.byte	0x7f
 1673 0732 00       		.byte	0
 1674 0733 09       		.uleb128 0x9
 1675 0734 23070000 		.4byte	0x723
 1676 0738 1E       		.uleb128 0x1e
 1677 0739 AD000000 		.4byte	0xad
 1678 073d 06       		.uleb128 0x6
 1679 073e 04       		.byte	0x4
 1680 073f 38070000 		.4byte	0x738
 1681 0743 0A       		.uleb128 0xa
 1682 0744 4E070000 		.4byte	0x74e
 1683 0748 0B       		.uleb128 0xb
 1684 0749 AD000000 		.4byte	0xad
 1685 074d 00       		.byte	0
 1686 074e 06       		.uleb128 0x6
 1687 074f 04       		.byte	0x4
 1688 0750 43070000 		.4byte	0x743
 1689 0754 02       		.uleb128 0x2
 1690 0755 D7040000 		.4byte	.LASF102
 1691 0759 08       		.byte	0x8
 1692 075a 90       		.byte	0x90
 1693 075b 2D060000 		.4byte	0x62d
 1694 075f 1F       		.uleb128 0x1f
 1695 0760 D4010000 		.4byte	.LASF122
 1696 0764 02       		.byte	0x2
 1697 0765 4E       		.byte	0x4e
 1698 0766 0F010000 		.4byte	0x10f
 1699 076a 03       		.byte	0x3
 1700 076b 79070000 		.4byte	0x779
 1701 076f 20       		.uleb128 0x20
 1702 0770 7600     		.ascii	"v\000"
 1703 0772 02       		.byte	0x2
 1704 0773 4E       		.byte	0x4e
 1705 0774 79070000 		.4byte	0x779
 1706 0778 00       		.byte	0
 1707 0779 06       		.uleb128 0x6
 1708 077a 04       		.byte	0x4
 1709 077b 7F070000 		.4byte	0x77f
 1710 077f 08       		.uleb128 0x8
 1711 0780 89040000 		.4byte	0x489
 1712 0784 21       		.uleb128 0x21
 1713 0785 07050000 		.4byte	.LASF123
 1714 0789 03       		.byte	0x3
 1715 078a 0A01     		.2byte	0x10a
 1716 078c 89040000 		.4byte	0x489
 1717 0790 03       		.byte	0x3
 1718 0791 A2070000 		.4byte	0x7a2
 1719 0795 22       		.uleb128 0x22
ARM GAS  C:\Users\164\AppData\Local\Temp\ccwvZXmi.s 			page 42


 1720 0796 9C070000 		.4byte	.LASF164
 1721 079a 03       		.byte	0x3
 1722 079b 0C01     		.2byte	0x10c
 1723 079d 89040000 		.4byte	0x489
 1724 07a1 00       		.byte	0
 1725 07a2 1F       		.uleb128 0x1f
 1726 07a3 18070000 		.4byte	.LASF124
 1727 07a7 02       		.byte	0x2
 1728 07a8 46       		.byte	0x46
 1729 07a9 94000000 		.4byte	0x94
 1730 07ad 03       		.byte	0x3
 1731 07ae BE070000 		.4byte	0x7be
 1732 07b2 20       		.uleb128 0x20
 1733 07b3 73747200 		.ascii	"str\000"
 1734 07b7 02       		.byte	0x2
 1735 07b8 46       		.byte	0x46
 1736 07b9 79070000 		.4byte	0x779
 1737 07bd 00       		.byte	0
 1738 07be 23       		.uleb128 0x23
 1739 07bf 16040000 		.4byte	.LASF125
 1740 07c3 01       		.byte	0x1
 1741 07c4 3A       		.byte	0x3a
 1742 07c5 00000000 		.4byte	.LFB76
 1743 07c9 10000000 		.4byte	.LFE76-.LFB76
 1744 07cd 01       		.uleb128 0x1
 1745 07ce 9C       		.byte	0x9c
 1746 07cf E7070000 		.4byte	0x7e7
 1747 07d3 24       		.uleb128 0x24
 1748 07d4 08000000 		.4byte	.LVL0
 1749 07d8 8A0F0000 		.4byte	0xf8a
 1750 07dc 25       		.uleb128 0x25
 1751 07dd 01       		.uleb128 0x1
 1752 07de 50       		.byte	0x50
 1753 07df 05       		.uleb128 0x5
 1754 07e0 03       		.byte	0x3
 1755 07e1 00000000 		.4byte	uh
 1756 07e5 00       		.byte	0
 1757 07e6 00       		.byte	0
 1758 07e7 23       		.uleb128 0x23
 1759 07e8 FC020000 		.4byte	.LASF126
 1760 07ec 01       		.byte	0x1
 1761 07ed 3A       		.byte	0x3a
 1762 07ee 00000000 		.4byte	.LFB77
 1763 07f2 10000000 		.4byte	.LFE77-.LFB77
 1764 07f6 01       		.uleb128 0x1
 1765 07f7 9C       		.byte	0x9c
 1766 07f8 10080000 		.4byte	0x810
 1767 07fc 24       		.uleb128 0x24
 1768 07fd 08000000 		.4byte	.LVL1
 1769 0801 950F0000 		.4byte	0xf95
 1770 0805 25       		.uleb128 0x25
 1771 0806 01       		.uleb128 0x1
 1772 0807 50       		.byte	0x50
 1773 0808 05       		.uleb128 0x5
 1774 0809 03       		.byte	0x3
 1775 080a 00000000 		.4byte	uh
 1776 080e 00       		.byte	0
ARM GAS  C:\Users\164\AppData\Local\Temp\ccwvZXmi.s 			page 43


 1777 080f 00       		.byte	0
 1778 0810 26       		.uleb128 0x26
 1779 0811 D3000000 		.4byte	.LASF128
 1780 0815 01       		.byte	0x1
 1781 0816 BB       		.byte	0xbb
 1782 0817 00000000 		.4byte	.LFB84
 1783 081b 0C000000 		.4byte	.LFE84-.LFB84
 1784 081f 01       		.uleb128 0x1
 1785 0820 9C       		.byte	0x9c
 1786 0821 68080000 		.4byte	0x868
 1787 0825 27       		.uleb128 0x27
 1788 0826 766D00   		.ascii	"vm\000"
 1789 0829 01       		.byte	0x1
 1790 082a BB       		.byte	0xbb
 1791 082b 68080000 		.4byte	0x868
 1792 082f 00000000 		.4byte	.LLST0
 1793 0833 27       		.uleb128 0x27
 1794 0834 7600     		.ascii	"v\000"
 1795 0836 01       		.byte	0x1
 1796 0837 BB       		.byte	0xbb
 1797 0838 6E080000 		.4byte	0x86e
 1798 083c 21000000 		.4byte	.LLST1
 1799 0840 28       		.uleb128 0x28
 1800 0841 A4000000 		.4byte	.LASF127
 1801 0845 01       		.byte	0x1
 1802 0846 BB       		.byte	0xbb
 1803 0847 94000000 		.4byte	0x94
 1804 084b 42000000 		.4byte	.LLST2
 1805 084f 29       		.uleb128 0x29
 1806 0850 48070000 		.4byte	.LASF56
 1807 0854 01       		.byte	0x1
 1808 0855 BD       		.byte	0xbd
 1809 0856 74080000 		.4byte	0x874
 1810 085a 63000000 		.4byte	.LLST3
 1811 085e 2A       		.uleb128 0x2a
 1812 085f 0A000000 		.4byte	.LVL5
 1813 0863 A00F0000 		.4byte	0xfa0
 1814 0867 00       		.byte	0
 1815 0868 06       		.uleb128 0x6
 1816 0869 04       		.byte	0x4
 1817 086a 22060000 		.4byte	0x622
 1818 086e 06       		.uleb128 0x6
 1819 086f 04       		.byte	0x4
 1820 0870 73040000 		.4byte	0x473
 1821 0874 06       		.uleb128 0x6
 1822 0875 04       		.byte	0x4
 1823 0876 54070000 		.4byte	0x754
 1824 087a 26       		.uleb128 0x26
 1825 087b 59050000 		.4byte	.LASF129
 1826 087f 01       		.byte	0x1
 1827 0880 B1       		.byte	0xb1
 1828 0881 00000000 		.4byte	.LFB83
 1829 0885 0C000000 		.4byte	.LFE83-.LFB83
 1830 0889 01       		.uleb128 0x1
 1831 088a 9C       		.byte	0x9c
 1832 088b D2080000 		.4byte	0x8d2
 1833 088f 27       		.uleb128 0x27
ARM GAS  C:\Users\164\AppData\Local\Temp\ccwvZXmi.s 			page 44


 1834 0890 766D00   		.ascii	"vm\000"
 1835 0893 01       		.byte	0x1
 1836 0894 B1       		.byte	0xb1
 1837 0895 68080000 		.4byte	0x868
 1838 0899 77000000 		.4byte	.LLST4
 1839 089d 27       		.uleb128 0x27
 1840 089e 7600     		.ascii	"v\000"
 1841 08a0 01       		.byte	0x1
 1842 08a1 B1       		.byte	0xb1
 1843 08a2 6E080000 		.4byte	0x86e
 1844 08a6 98000000 		.4byte	.LLST5
 1845 08aa 28       		.uleb128 0x28
 1846 08ab A4000000 		.4byte	.LASF127
 1847 08af 01       		.byte	0x1
 1848 08b0 B1       		.byte	0xb1
 1849 08b1 94000000 		.4byte	0x94
 1850 08b5 B9000000 		.4byte	.LLST6
 1851 08b9 29       		.uleb128 0x29
 1852 08ba 48070000 		.4byte	.LASF56
 1853 08be 01       		.byte	0x1
 1854 08bf B3       		.byte	0xb3
 1855 08c0 74080000 		.4byte	0x874
 1856 08c4 DA000000 		.4byte	.LLST7
 1857 08c8 2A       		.uleb128 0x2a
 1858 08c9 0A000000 		.4byte	.LVL9
 1859 08cd AB0F0000 		.4byte	0xfab
 1860 08d1 00       		.byte	0
 1861 08d2 26       		.uleb128 0x26
 1862 08d3 89030000 		.4byte	.LASF130
 1863 08d7 01       		.byte	0x1
 1864 08d8 9B       		.byte	0x9b
 1865 08d9 00000000 		.4byte	.LFB82
 1866 08dd 20000000 		.4byte	.LFE82-.LFB82
 1867 08e1 01       		.uleb128 0x1
 1868 08e2 9C       		.byte	0x9c
 1869 08e3 5E090000 		.4byte	0x95e
 1870 08e7 27       		.uleb128 0x27
 1871 08e8 766D00   		.ascii	"vm\000"
 1872 08eb 01       		.byte	0x1
 1873 08ec 9B       		.byte	0x9b
 1874 08ed 68080000 		.4byte	0x868
 1875 08f1 EE000000 		.4byte	.LLST8
 1876 08f5 27       		.uleb128 0x27
 1877 08f6 7600     		.ascii	"v\000"
 1878 08f8 01       		.byte	0x1
 1879 08f9 9B       		.byte	0x9b
 1880 08fa 6E080000 		.4byte	0x86e
 1881 08fe 0F010000 		.4byte	.LLST9
 1882 0902 28       		.uleb128 0x28
 1883 0903 A4000000 		.4byte	.LASF127
 1884 0907 01       		.byte	0x1
 1885 0908 9B       		.byte	0x9b
 1886 0909 94000000 		.4byte	0x94
 1887 090d 30010000 		.4byte	.LLST10
 1888 0911 2B       		.uleb128 0x2b
 1889 0912 7300     		.ascii	"s\000"
 1890 0914 01       		.byte	0x1
ARM GAS  C:\Users\164\AppData\Local\Temp\ccwvZXmi.s 			page 45


 1891 0915 9D       		.byte	0x9d
 1892 0916 0F010000 		.4byte	0x10f
 1893 091a 6A010000 		.4byte	.LLST11
 1894 091e 2C       		.uleb128 0x2c
 1895 091f 5F070000 		.4byte	0x75f
 1896 0923 0A000000 		.4byte	.LBB19
 1897 0927 04000000 		.4byte	.LBE19-.LBB19
 1898 092b 01       		.byte	0x1
 1899 092c A0       		.byte	0xa0
 1900 092d 3B090000 		.4byte	0x93b
 1901 0931 2D       		.uleb128 0x2d
 1902 0932 6F070000 		.4byte	0x76f
 1903 0936 95010000 		.4byte	.LLST12
 1904 093a 00       		.byte	0
 1905 093b 2E       		.uleb128 0x2e
 1906 093c 14000000 		.4byte	.LBB21
 1907 0940 0C000000 		.4byte	.LBE21-.LBB21
 1908 0944 29       		.uleb128 0x29
 1909 0945 48070000 		.4byte	.LASF56
 1910 0949 01       		.byte	0x1
 1911 094a A8       		.byte	0xa8
 1912 094b 74080000 		.4byte	0x874
 1913 094f AA010000 		.4byte	.LLST13
 1914 0953 2A       		.uleb128 0x2a
 1915 0954 1E000000 		.4byte	.LVL19
 1916 0958 B60F0000 		.4byte	0xfb6
 1917 095c 00       		.byte	0
 1918 095d 00       		.byte	0
 1919 095e 26       		.uleb128 0x26
 1920 095f E4060000 		.4byte	.LASF131
 1921 0963 01       		.byte	0x1
 1922 0964 81       		.byte	0x81
 1923 0965 00000000 		.4byte	.LFB81
 1924 0969 92000000 		.4byte	.LFE81-.LFB81
 1925 096d 01       		.uleb128 0x1
 1926 096e 9C       		.byte	0x9c
 1927 096f DA0A0000 		.4byte	0xada
 1928 0973 27       		.uleb128 0x27
 1929 0974 766D00   		.ascii	"vm\000"
 1930 0977 01       		.byte	0x1
 1931 0978 81       		.byte	0x81
 1932 0979 68080000 		.4byte	0x868
 1933 097d BE010000 		.4byte	.LLST14
 1934 0981 27       		.uleb128 0x27
 1935 0982 7600     		.ascii	"v\000"
 1936 0984 01       		.byte	0x1
 1937 0985 81       		.byte	0x81
 1938 0986 6E080000 		.4byte	0x86e
 1939 098a DC010000 		.4byte	.LLST15
 1940 098e 28       		.uleb128 0x28
 1941 098f A4000000 		.4byte	.LASF127
 1942 0993 01       		.byte	0x1
 1943 0994 81       		.byte	0x81
 1944 0995 94000000 		.4byte	0x94
 1945 0999 FA010000 		.4byte	.LLST16
 1946 099d 2F       		.uleb128 0x2f
 1947 099e 72657400 		.ascii	"ret\000"
ARM GAS  C:\Users\164\AppData\Local\Temp\ccwvZXmi.s 			page 46


 1948 09a2 01       		.byte	0x1
 1949 09a3 83       		.byte	0x83
 1950 09a4 73040000 		.4byte	0x473
 1951 09a8 02       		.uleb128 0x2
 1952 09a9 91       		.byte	0x91
 1953 09aa 58       		.sleb128 -40
 1954 09ab 29       		.uleb128 0x29
 1955 09ac 48070000 		.4byte	.LASF56
 1956 09b0 01       		.byte	0x1
 1957 09b1 84       		.byte	0x84
 1958 09b2 74080000 		.4byte	0x874
 1959 09b6 1B020000 		.4byte	.LLST17
 1960 09ba 30       		.uleb128 0x30
 1961 09bb F1020000 		.4byte	.LASF135
 1962 09bf 01       		.byte	0x1
 1963 09c0 93       		.byte	0x93
 1964 09c1 72000000 		.4byte	.L22
 1965 09c5 2B       		.uleb128 0x2b
 1966 09c6 6C656E00 		.ascii	"len\000"
 1967 09ca 01       		.byte	0x1
 1968 09cb 8B       		.byte	0x8b
 1969 09cc 94000000 		.4byte	0x94
 1970 09d0 39020000 		.4byte	.LLST18
 1971 09d4 2B       		.uleb128 0x2b
 1972 09d5 62756600 		.ascii	"buf\000"
 1973 09d9 01       		.byte	0x1
 1974 09da 8C       		.byte	0x8c
 1975 09db 0F010000 		.4byte	0x10f
 1976 09df 6D020000 		.4byte	.LLST19
 1977 09e3 2C       		.uleb128 0x2c
 1978 09e4 84070000 		.4byte	0x784
 1979 09e8 16000000 		.4byte	.LBB22
 1980 09ec 1C000000 		.4byte	.LBE22-.LBB22
 1981 09f0 01       		.byte	0x1
 1982 09f1 87       		.byte	0x87
 1983 09f2 090A0000 		.4byte	0xa09
 1984 09f6 2E       		.uleb128 0x2e
 1985 09f7 16000000 		.4byte	.LBB23
 1986 09fb 1C000000 		.4byte	.LBE23-.LBB23
 1987 09ff 31       		.uleb128 0x31
 1988 0a00 95070000 		.4byte	0x795
 1989 0a04 02       		.uleb128 0x2
 1990 0a05 91       		.byte	0x91
 1991 0a06 48       		.sleb128 -56
 1992 0a07 00       		.byte	0
 1993 0a08 00       		.byte	0
 1994 0a09 32       		.uleb128 0x32
 1995 0a0a 72000000 		.4byte	.LBB24
 1996 0a0e 1A000000 		.4byte	.LBE24-.LBB24
 1997 0a12 350A0000 		.4byte	0xa35
 1998 0a16 2F       		.uleb128 0x2f
 1999 0a17 6E6E6E00 		.ascii	"nnn\000"
 2000 0a1b 01       		.byte	0x1
 2001 0a1c 94       		.byte	0x94
 2002 0a1d 89040000 		.4byte	0x489
 2003 0a21 02       		.uleb128 0x2
 2004 0a22 91       		.byte	0x91
ARM GAS  C:\Users\164\AppData\Local\Temp\ccwvZXmi.s 			page 47


 2005 0a23 48       		.sleb128 -56
 2006 0a24 24       		.uleb128 0x24
 2007 0a25 84000000 		.4byte	.LVL38
 2008 0a29 C10F0000 		.4byte	0xfc1
 2009 0a2d 25       		.uleb128 0x25
 2010 0a2e 01       		.uleb128 0x1
 2011 0a2f 50       		.byte	0x50
 2012 0a30 02       		.uleb128 0x2
 2013 0a31 75       		.byte	0x75
 2014 0a32 00       		.sleb128 0
 2015 0a33 00       		.byte	0
 2016 0a34 00       		.byte	0
 2017 0a35 33       		.uleb128 0x33
 2018 0a36 14000000 		.4byte	.LVL23
 2019 0a3a CC0F0000 		.4byte	0xfcc
 2020 0a3e 490A0000 		.4byte	0xa49
 2021 0a42 25       		.uleb128 0x25
 2022 0a43 01       		.uleb128 0x1
 2023 0a44 50       		.byte	0x50
 2024 0a45 02       		.uleb128 0x2
 2025 0a46 74       		.byte	0x74
 2026 0a47 00       		.sleb128 0
 2027 0a48 00       		.byte	0
 2028 0a49 33       		.uleb128 0x33
 2029 0a4a 38000000 		.4byte	.LVL26
 2030 0a4e D70F0000 		.4byte	0xfd7
 2031 0a52 5D0A0000 		.4byte	0xa5d
 2032 0a56 25       		.uleb128 0x25
 2033 0a57 01       		.uleb128 0x1
 2034 0a58 50       		.byte	0x50
 2035 0a59 02       		.uleb128 0x2
 2036 0a5a 74       		.byte	0x74
 2037 0a5b 00       		.sleb128 0
 2038 0a5c 00       		.byte	0
 2039 0a5d 33       		.uleb128 0x33
 2040 0a5e 44000000 		.4byte	.LVL28
 2041 0a62 E20F0000 		.4byte	0xfe2
 2042 0a66 770A0000 		.4byte	0xa77
 2043 0a6a 25       		.uleb128 0x25
 2044 0a6b 01       		.uleb128 0x1
 2045 0a6c 50       		.byte	0x50
 2046 0a6d 02       		.uleb128 0x2
 2047 0a6e 76       		.byte	0x76
 2048 0a6f 00       		.sleb128 0
 2049 0a70 25       		.uleb128 0x25
 2050 0a71 01       		.uleb128 0x1
 2051 0a72 51       		.byte	0x51
 2052 0a73 02       		.uleb128 0x2
 2053 0a74 78       		.byte	0x78
 2054 0a75 00       		.sleb128 0
 2055 0a76 00       		.byte	0
 2056 0a77 33       		.uleb128 0x33
 2057 0a78 50000000 		.4byte	.LVL31
 2058 0a7c ED0F0000 		.4byte	0xfed
 2059 0a80 970A0000 		.4byte	0xa97
 2060 0a84 25       		.uleb128 0x25
 2061 0a85 01       		.uleb128 0x1
ARM GAS  C:\Users\164\AppData\Local\Temp\ccwvZXmi.s 			page 48


 2062 0a86 50       		.byte	0x50
 2063 0a87 02       		.uleb128 0x2
 2064 0a88 74       		.byte	0x74
 2065 0a89 00       		.sleb128 0
 2066 0a8a 25       		.uleb128 0x25
 2067 0a8b 01       		.uleb128 0x1
 2068 0a8c 51       		.byte	0x51
 2069 0a8d 02       		.uleb128 0x2
 2070 0a8e 77       		.byte	0x77
 2071 0a8f 00       		.sleb128 0
 2072 0a90 25       		.uleb128 0x25
 2073 0a91 01       		.uleb128 0x1
 2074 0a92 52       		.byte	0x52
 2075 0a93 02       		.uleb128 0x2
 2076 0a94 78       		.byte	0x78
 2077 0a95 00       		.sleb128 0
 2078 0a96 00       		.byte	0
 2079 0a97 33       		.uleb128 0x33
 2080 0a98 5C000000 		.4byte	.LVL34
 2081 0a9c F80F0000 		.4byte	0xff8
 2082 0aa0 B70A0000 		.4byte	0xab7
 2083 0aa4 25       		.uleb128 0x25
 2084 0aa5 01       		.uleb128 0x1
 2085 0aa6 50       		.byte	0x50
 2086 0aa7 02       		.uleb128 0x2
 2087 0aa8 76       		.byte	0x76
 2088 0aa9 00       		.sleb128 0
 2089 0aaa 25       		.uleb128 0x25
 2090 0aab 01       		.uleb128 0x1
 2091 0aac 51       		.byte	0x51
 2092 0aad 02       		.uleb128 0x2
 2093 0aae 77       		.byte	0x77
 2094 0aaf 00       		.sleb128 0
 2095 0ab0 25       		.uleb128 0x25
 2096 0ab1 01       		.uleb128 0x1
 2097 0ab2 52       		.byte	0x52
 2098 0ab3 02       		.uleb128 0x2
 2099 0ab4 78       		.byte	0x78
 2100 0ab5 00       		.sleb128 0
 2101 0ab6 00       		.byte	0
 2102 0ab7 24       		.uleb128 0x24
 2103 0ab8 68000000 		.4byte	.LVL35
 2104 0abc 03100000 		.4byte	0x1003
 2105 0ac0 25       		.uleb128 0x25
 2106 0ac1 01       		.uleb128 0x1
 2107 0ac2 50       		.byte	0x50
 2108 0ac3 02       		.uleb128 0x2
 2109 0ac4 7D       		.byte	0x7d
 2110 0ac5 00       		.sleb128 0
 2111 0ac6 25       		.uleb128 0x25
 2112 0ac7 01       		.uleb128 0x1
 2113 0ac8 51       		.byte	0x51
 2114 0ac9 02       		.uleb128 0x2
 2115 0aca 76       		.byte	0x76
 2116 0acb 00       		.sleb128 0
 2117 0acc 25       		.uleb128 0x25
 2118 0acd 01       		.uleb128 0x1
ARM GAS  C:\Users\164\AppData\Local\Temp\ccwvZXmi.s 			page 49


 2119 0ace 52       		.byte	0x52
 2120 0acf 02       		.uleb128 0x2
 2121 0ad0 77       		.byte	0x77
 2122 0ad1 00       		.sleb128 0
 2123 0ad2 25       		.uleb128 0x25
 2124 0ad3 01       		.uleb128 0x1
 2125 0ad4 53       		.byte	0x53
 2126 0ad5 02       		.uleb128 0x2
 2127 0ad6 78       		.byte	0x78
 2128 0ad7 00       		.sleb128 0
 2129 0ad8 00       		.byte	0
 2130 0ad9 00       		.byte	0
 2131 0ada 26       		.uleb128 0x26
 2132 0adb F0010000 		.4byte	.LASF132
 2133 0adf 01       		.byte	0x1
 2134 0ae0 6C       		.byte	0x6c
 2135 0ae1 00000000 		.4byte	.LFB80
 2136 0ae5 36000000 		.4byte	.LFE80-.LFB80
 2137 0ae9 01       		.uleb128 0x1
 2138 0aea 9C       		.byte	0x9c
 2139 0aeb A70B0000 		.4byte	0xba7
 2140 0aef 27       		.uleb128 0x27
 2141 0af0 766D00   		.ascii	"vm\000"
 2142 0af3 01       		.byte	0x1
 2143 0af4 6C       		.byte	0x6c
 2144 0af5 68080000 		.4byte	0x868
 2145 0af9 96020000 		.4byte	.LLST20
 2146 0afd 27       		.uleb128 0x27
 2147 0afe 7600     		.ascii	"v\000"
 2148 0b00 01       		.byte	0x1
 2149 0b01 6C       		.byte	0x6c
 2150 0b02 6E080000 		.4byte	0x86e
 2151 0b06 B7020000 		.4byte	.LLST21
 2152 0b0a 28       		.uleb128 0x28
 2153 0b0b A4000000 		.4byte	.LASF127
 2154 0b0f 01       		.byte	0x1
 2155 0b10 6C       		.byte	0x6c
 2156 0b11 94000000 		.4byte	0x94
 2157 0b15 EB020000 		.4byte	.LLST22
 2158 0b19 29       		.uleb128 0x29
 2159 0b1a 48070000 		.4byte	.LASF56
 2160 0b1e 01       		.byte	0x1
 2161 0b1f 6E       		.byte	0x6e
 2162 0b20 74080000 		.4byte	0x874
 2163 0b24 25030000 		.4byte	.LLST23
 2164 0b28 32       		.uleb128 0x32
 2165 0b29 10000000 		.4byte	.LBB25
 2166 0b2d 18000000 		.4byte	.LBE25-.LBB25
 2167 0b31 960B0000 		.4byte	0xb96
 2168 0b35 2B       		.uleb128 0x2b
 2169 0b36 6E00     		.ascii	"n\000"
 2170 0b38 01       		.byte	0x1
 2171 0b39 72       		.byte	0x72
 2172 0b3a 94000000 		.4byte	0x94
 2173 0b3e 52030000 		.4byte	.LLST24
 2174 0b42 2C       		.uleb128 0x2c
 2175 0b43 5F070000 		.4byte	0x75f
ARM GAS  C:\Users\164\AppData\Local\Temp\ccwvZXmi.s 			page 50


 2176 0b47 10000000 		.4byte	.LBB26
 2177 0b4b 02000000 		.4byte	.LBE26-.LBB26
 2178 0b4f 01       		.byte	0x1
 2179 0b50 73       		.byte	0x73
 2180 0b51 5F0B0000 		.4byte	0xb5f
 2181 0b55 2D       		.uleb128 0x2d
 2182 0b56 6F070000 		.4byte	0x76f
 2183 0b5a 70030000 		.4byte	.LLST25
 2184 0b5e 00       		.byte	0
 2185 0b5f 32       		.uleb128 0x32
 2186 0b60 1C000000 		.4byte	.LBB28
 2187 0b64 0C000000 		.4byte	.LBE28-.LBB28
 2188 0b68 8C0B0000 		.4byte	0xb8c
 2189 0b6c 2B       		.uleb128 0x2b
 2190 0b6d 6E6E6E00 		.ascii	"nnn\000"
 2191 0b71 01       		.byte	0x1
 2192 0b72 74       		.byte	0x74
 2193 0b73 25010000 		.4byte	0x125
 2194 0b77 52030000 		.4byte	.LLST24
 2195 0b7b 24       		.uleb128 0x24
 2196 0b7c 22000000 		.4byte	.LVL48
 2197 0b80 C10F0000 		.4byte	0xfc1
 2198 0b84 25       		.uleb128 0x25
 2199 0b85 01       		.uleb128 0x1
 2200 0b86 50       		.byte	0x50
 2201 0b87 02       		.uleb128 0x2
 2202 0b88 74       		.byte	0x74
 2203 0b89 00       		.sleb128 0
 2204 0b8a 00       		.byte	0
 2205 0b8b 00       		.byte	0
 2206 0b8c 2A       		.uleb128 0x2a
 2207 0b8d 1A000000 		.4byte	.LVL45
 2208 0b91 0E100000 		.4byte	0x100e
 2209 0b95 00       		.byte	0
 2210 0b96 24       		.uleb128 0x24
 2211 0b97 30000000 		.4byte	.LVL51
 2212 0b9b C10F0000 		.4byte	0xfc1
 2213 0b9f 25       		.uleb128 0x25
 2214 0ba0 01       		.uleb128 0x1
 2215 0ba1 50       		.byte	0x50
 2216 0ba2 02       		.uleb128 0x2
 2217 0ba3 74       		.byte	0x74
 2218 0ba4 00       		.sleb128 0
 2219 0ba5 00       		.byte	0
 2220 0ba6 00       		.byte	0
 2221 0ba7 26       		.uleb128 0x26
 2222 0ba8 90070000 		.4byte	.LASF133
 2223 0bac 01       		.byte	0x1
 2224 0bad 53       		.byte	0x53
 2225 0bae 00000000 		.4byte	.LFB79
 2226 0bb2 80000000 		.4byte	.LFE79-.LFB79
 2227 0bb6 01       		.uleb128 0x1
 2228 0bb7 9C       		.byte	0x9c
 2229 0bb8 ED0C0000 		.4byte	0xced
 2230 0bbc 27       		.uleb128 0x27
 2231 0bbd 766D00   		.ascii	"vm\000"
 2232 0bc0 01       		.byte	0x1
ARM GAS  C:\Users\164\AppData\Local\Temp\ccwvZXmi.s 			page 51


 2233 0bc1 53       		.byte	0x53
 2234 0bc2 68080000 		.4byte	0x868
 2235 0bc6 85030000 		.4byte	.LLST27
 2236 0bca 27       		.uleb128 0x27
 2237 0bcb 7600     		.ascii	"v\000"
 2238 0bcd 01       		.byte	0x1
 2239 0bce 53       		.byte	0x53
 2240 0bcf 6E080000 		.4byte	0x86e
 2241 0bd3 A3030000 		.4byte	.LLST28
 2242 0bd7 28       		.uleb128 0x28
 2243 0bd8 A4000000 		.4byte	.LASF127
 2244 0bdc 01       		.byte	0x1
 2245 0bdd 53       		.byte	0x53
 2246 0bde 94000000 		.4byte	0x94
 2247 0be2 C1030000 		.4byte	.LLST29
 2248 0be6 2F       		.uleb128 0x2f
 2249 0be7 72657400 		.ascii	"ret\000"
 2250 0beb 01       		.byte	0x1
 2251 0bec 55       		.byte	0x55
 2252 0bed 73040000 		.4byte	0x473
 2253 0bf1 02       		.uleb128 0x2
 2254 0bf2 91       		.byte	0x91
 2255 0bf3 58       		.sleb128 -40
 2256 0bf4 34       		.uleb128 0x34
 2257 0bf5 48070000 		.4byte	.LASF56
 2258 0bf9 01       		.byte	0x1
 2259 0bfa 56       		.byte	0x56
 2260 0bfb 74080000 		.4byte	0x874
 2261 0bff 01       		.uleb128 0x1
 2262 0c00 56       		.byte	0x56
 2263 0c01 29       		.uleb128 0x29
 2264 0c02 79010000 		.4byte	.LASF134
 2265 0c06 01       		.byte	0x1
 2266 0c07 57       		.byte	0x57
 2267 0c08 94000000 		.4byte	0x94
 2268 0c0c E2030000 		.4byte	.LLST30
 2269 0c10 30       		.uleb128 0x30
 2270 0c11 F1020000 		.4byte	.LASF135
 2271 0c15 01       		.byte	0x1
 2272 0c16 63       		.byte	0x63
 2273 0c17 60000000 		.4byte	.L32
 2274 0c1b 2B       		.uleb128 0x2b
 2275 0c1c 62756600 		.ascii	"buf\000"
 2276 0c20 01       		.byte	0x1
 2277 0c21 5E       		.byte	0x5e
 2278 0c22 0F010000 		.4byte	0x10f
 2279 0c26 00040000 		.4byte	.LLST31
 2280 0c2a 2C       		.uleb128 0x2c
 2281 0c2b 84070000 		.4byte	0x784
 2282 0c2f 1A000000 		.4byte	.LBB29
 2283 0c33 1C000000 		.4byte	.LBE29-.LBB29
 2284 0c37 01       		.byte	0x1
 2285 0c38 5A       		.byte	0x5a
 2286 0c39 500C0000 		.4byte	0xc50
 2287 0c3d 2E       		.uleb128 0x2e
 2288 0c3e 1A000000 		.4byte	.LBB30
 2289 0c42 1C000000 		.4byte	.LBE30-.LBB30
ARM GAS  C:\Users\164\AppData\Local\Temp\ccwvZXmi.s 			page 52


 2290 0c46 31       		.uleb128 0x31
 2291 0c47 95070000 		.4byte	0x795
 2292 0c4b 02       		.uleb128 0x2
 2293 0c4c 91       		.byte	0x91
 2294 0c4d 48       		.sleb128 -56
 2295 0c4e 00       		.byte	0
 2296 0c4f 00       		.byte	0
 2297 0c50 32       		.uleb128 0x32
 2298 0c51 60000000 		.4byte	.LBB31
 2299 0c55 1A000000 		.4byte	.LBE31-.LBB31
 2300 0c59 7C0C0000 		.4byte	0xc7c
 2301 0c5d 2F       		.uleb128 0x2f
 2302 0c5e 6E6E6E00 		.ascii	"nnn\000"
 2303 0c62 01       		.byte	0x1
 2304 0c63 64       		.byte	0x64
 2305 0c64 89040000 		.4byte	0x489
 2306 0c68 02       		.uleb128 0x2
 2307 0c69 91       		.byte	0x91
 2308 0c6a 48       		.sleb128 -56
 2309 0c6b 24       		.uleb128 0x24
 2310 0c6c 72000000 		.4byte	.LVL66
 2311 0c70 C10F0000 		.4byte	0xfc1
 2312 0c74 25       		.uleb128 0x25
 2313 0c75 01       		.uleb128 0x1
 2314 0c76 50       		.byte	0x50
 2315 0c77 02       		.uleb128 0x2
 2316 0c78 75       		.byte	0x75
 2317 0c79 00       		.sleb128 0
 2318 0c7a 00       		.byte	0
 2319 0c7b 00       		.byte	0
 2320 0c7c 33       		.uleb128 0x33
 2321 0c7d 16000000 		.4byte	.LVL56
 2322 0c81 D70F0000 		.4byte	0xfd7
 2323 0c85 900C0000 		.4byte	0xc90
 2324 0c89 25       		.uleb128 0x25
 2325 0c8a 01       		.uleb128 0x1
 2326 0c8b 50       		.byte	0x50
 2327 0c8c 02       		.uleb128 0x2
 2328 0c8d 76       		.byte	0x76
 2329 0c8e 00       		.sleb128 0
 2330 0c8f 00       		.byte	0
 2331 0c90 33       		.uleb128 0x33
 2332 0c91 3E000000 		.4byte	.LVL59
 2333 0c95 E20F0000 		.4byte	0xfe2
 2334 0c99 AA0C0000 		.4byte	0xcaa
 2335 0c9d 25       		.uleb128 0x25
 2336 0c9e 01       		.uleb128 0x1
 2337 0c9f 50       		.byte	0x50
 2338 0ca0 02       		.uleb128 0x2
 2339 0ca1 77       		.byte	0x77
 2340 0ca2 00       		.sleb128 0
 2341 0ca3 25       		.uleb128 0x25
 2342 0ca4 01       		.uleb128 0x1
 2343 0ca5 51       		.byte	0x51
 2344 0ca6 02       		.uleb128 0x2
 2345 0ca7 74       		.byte	0x74
 2346 0ca8 01       		.sleb128 1
ARM GAS  C:\Users\164\AppData\Local\Temp\ccwvZXmi.s 			page 53


 2347 0ca9 00       		.byte	0
 2348 0caa 33       		.uleb128 0x33
 2349 0cab 4A000000 		.4byte	.LVL62
 2350 0caf 19100000 		.4byte	0x1019
 2351 0cb3 CA0C0000 		.4byte	0xcca
 2352 0cb7 25       		.uleb128 0x25
 2353 0cb8 01       		.uleb128 0x1
 2354 0cb9 50       		.byte	0x50
 2355 0cba 02       		.uleb128 0x2
 2356 0cbb 76       		.byte	0x76
 2357 0cbc 00       		.sleb128 0
 2358 0cbd 25       		.uleb128 0x25
 2359 0cbe 01       		.uleb128 0x1
 2360 0cbf 51       		.byte	0x51
 2361 0cc0 02       		.uleb128 0x2
 2362 0cc1 78       		.byte	0x78
 2363 0cc2 00       		.sleb128 0
 2364 0cc3 25       		.uleb128 0x25
 2365 0cc4 01       		.uleb128 0x1
 2366 0cc5 52       		.byte	0x52
 2367 0cc6 02       		.uleb128 0x2
 2368 0cc7 74       		.byte	0x74
 2369 0cc8 00       		.sleb128 0
 2370 0cc9 00       		.byte	0
 2371 0cca 24       		.uleb128 0x24
 2372 0ccb 56000000 		.4byte	.LVL63
 2373 0ccf 03100000 		.4byte	0x1003
 2374 0cd3 25       		.uleb128 0x25
 2375 0cd4 01       		.uleb128 0x1
 2376 0cd5 50       		.byte	0x50
 2377 0cd6 02       		.uleb128 0x2
 2378 0cd7 7D       		.byte	0x7d
 2379 0cd8 00       		.sleb128 0
 2380 0cd9 25       		.uleb128 0x25
 2381 0cda 01       		.uleb128 0x1
 2382 0cdb 51       		.byte	0x51
 2383 0cdc 02       		.uleb128 0x2
 2384 0cdd 77       		.byte	0x77
 2385 0cde 00       		.sleb128 0
 2386 0cdf 25       		.uleb128 0x25
 2387 0ce0 01       		.uleb128 0x1
 2388 0ce1 52       		.byte	0x52
 2389 0ce2 02       		.uleb128 0x2
 2390 0ce3 78       		.byte	0x78
 2391 0ce4 00       		.sleb128 0
 2392 0ce5 25       		.uleb128 0x25
 2393 0ce6 01       		.uleb128 0x1
 2394 0ce7 53       		.byte	0x53
 2395 0ce8 02       		.uleb128 0x2
 2396 0ce9 74       		.byte	0x74
 2397 0cea 00       		.sleb128 0
 2398 0ceb 00       		.byte	0
 2399 0cec 00       		.byte	0
 2400 0ced 26       		.uleb128 0x26
 2401 0cee C9010000 		.4byte	.LASF136
 2402 0cf2 01       		.byte	0x1
 2403 0cf3 41       		.byte	0x41
ARM GAS  C:\Users\164\AppData\Local\Temp\ccwvZXmi.s 			page 54


 2404 0cf4 00000000 		.4byte	.LFB78
 2405 0cf8 60000000 		.4byte	.LFE78-.LFB78
 2406 0cfc 01       		.uleb128 0x1
 2407 0cfd 9C       		.byte	0x9c
 2408 0cfe 800D0000 		.4byte	0xd80
 2409 0d02 27       		.uleb128 0x27
 2410 0d03 766D00   		.ascii	"vm\000"
 2411 0d06 01       		.byte	0x1
 2412 0d07 41       		.byte	0x41
 2413 0d08 68080000 		.4byte	0x868
 2414 0d0c 29040000 		.4byte	.LLST32
 2415 0d10 27       		.uleb128 0x27
 2416 0d11 7600     		.ascii	"v\000"
 2417 0d13 01       		.byte	0x1
 2418 0d14 41       		.byte	0x41
 2419 0d15 6E080000 		.4byte	0x86e
 2420 0d19 6E040000 		.4byte	.LLST33
 2421 0d1d 28       		.uleb128 0x28
 2422 0d1e A4000000 		.4byte	.LASF127
 2423 0d22 01       		.byte	0x1
 2424 0d23 41       		.byte	0x41
 2425 0d24 94000000 		.4byte	0x94
 2426 0d28 B0040000 		.4byte	.LLST34
 2427 0d2c 2F       		.uleb128 0x2f
 2428 0d2d 6E756D00 		.ascii	"num\000"
 2429 0d31 01       		.byte	0x1
 2430 0d32 43       		.byte	0x43
 2431 0d33 94000000 		.4byte	0x94
 2432 0d37 05       		.uleb128 0x5
 2433 0d38 03       		.byte	0x3
 2434 0d39 00000000 		.4byte	num.7063
 2435 0d3d 2C       		.uleb128 0x2c
 2436 0d3e 84070000 		.4byte	0x784
 2437 0d42 0E000000 		.4byte	.LBB32
 2438 0d46 1A000000 		.4byte	.LBE32-.LBB32
 2439 0d4a 01       		.byte	0x1
 2440 0d4b 46       		.byte	0x46
 2441 0d4c 630D0000 		.4byte	0xd63
 2442 0d50 2E       		.uleb128 0x2e
 2443 0d51 0E000000 		.4byte	.LBB33
 2444 0d55 1A000000 		.4byte	.LBE33-.LBB33
 2445 0d59 31       		.uleb128 0x31
 2446 0d5a 95070000 		.4byte	0x795
 2447 0d5e 02       		.uleb128 0x2
 2448 0d5f 91       		.byte	0x91
 2449 0d60 50       		.sleb128 -48
 2450 0d61 00       		.byte	0
 2451 0d62 00       		.byte	0
 2452 0d63 24       		.uleb128 0x24
 2453 0d64 3A000000 		.4byte	.LVL74
 2454 0d68 24100000 		.4byte	0x1024
 2455 0d6c 25       		.uleb128 0x25
 2456 0d6d 01       		.uleb128 0x1
 2457 0d6e 50       		.byte	0x50
 2458 0d6f 02       		.uleb128 0x2
 2459 0d70 7D       		.byte	0x7d
 2460 0d71 00       		.sleb128 0
ARM GAS  C:\Users\164\AppData\Local\Temp\ccwvZXmi.s 			page 55


 2461 0d72 25       		.uleb128 0x25
 2462 0d73 01       		.uleb128 0x1
 2463 0d74 51       		.byte	0x51
 2464 0d75 03       		.uleb128 0x3
 2465 0d76 F3       		.byte	0xf3
 2466 0d77 01       		.uleb128 0x1
 2467 0d78 50       		.byte	0x50
 2468 0d79 25       		.uleb128 0x25
 2469 0d7a 01       		.uleb128 0x1
 2470 0d7b 53       		.byte	0x53
 2471 0d7c 01       		.uleb128 0x1
 2472 0d7d 34       		.byte	0x34
 2473 0d7e 00       		.byte	0
 2474 0d7f 00       		.byte	0
 2475 0d80 23       		.uleb128 0x23
 2476 0d81 25030000 		.4byte	.LASF137
 2477 0d85 01       		.byte	0x1
 2478 0d86 C5       		.byte	0xc5
 2479 0d87 00000000 		.4byte	.LFB85
 2480 0d8b 0C010000 		.4byte	.LFE85-.LFB85
 2481 0d8f 01       		.uleb128 0x1
 2482 0d90 9C       		.byte	0x9c
 2483 0d91 480F0000 		.4byte	0xf48
 2484 0d95 27       		.uleb128 0x27
 2485 0d96 766D00   		.ascii	"vm\000"
 2486 0d99 01       		.byte	0x1
 2487 0d9a C5       		.byte	0xc5
 2488 0d9b 6C010000 		.4byte	0x16c
 2489 0d9f EA040000 		.4byte	.LLST35
 2490 0da3 29       		.uleb128 0x29
 2491 0da4 3C000000 		.4byte	.LASF138
 2492 0da8 01       		.byte	0x1
 2493 0da9 CC       		.byte	0xcc
 2494 0daa 480F0000 		.4byte	0xf48
 2495 0dae 0B050000 		.4byte	.LLST36
 2496 0db2 33       		.uleb128 0x33
 2497 0db3 2C000000 		.4byte	.LVL78
 2498 0db7 2F100000 		.4byte	0x102f
 2499 0dbb D40D0000 		.4byte	0xdd4
 2500 0dbf 25       		.uleb128 0x25
 2501 0dc0 01       		.uleb128 0x1
 2502 0dc1 50       		.byte	0x50
 2503 0dc2 05       		.uleb128 0x5
 2504 0dc3 03       		.byte	0x3
 2505 0dc4 00000000 		.4byte	uh
 2506 0dc8 25       		.uleb128 0x25
 2507 0dc9 01       		.uleb128 0x1
 2508 0dca 51       		.byte	0x51
 2509 0dcb 01       		.uleb128 0x1
 2510 0dcc 31       		.byte	0x31
 2511 0dcd 25       		.uleb128 0x25
 2512 0dce 01       		.uleb128 0x1
 2513 0dcf 52       		.byte	0x52
 2514 0dd0 02       		.uleb128 0x2
 2515 0dd1 08       		.byte	0x8
 2516 0dd2 20       		.byte	0x20
 2517 0dd3 00       		.byte	0
ARM GAS  C:\Users\164\AppData\Local\Temp\ccwvZXmi.s 			page 56


 2518 0dd4 33       		.uleb128 0x33
 2519 0dd5 32000000 		.4byte	.LVL79
 2520 0dd9 3A100000 		.4byte	0x103a
 2521 0ddd EB0D0000 		.4byte	0xdeb
 2522 0de1 25       		.uleb128 0x25
 2523 0de2 01       		.uleb128 0x1
 2524 0de3 50       		.byte	0x50
 2525 0de4 05       		.uleb128 0x5
 2526 0de5 03       		.byte	0x3
 2527 0de6 00000000 		.4byte	isr_UART_1_Tx
 2528 0dea 00       		.byte	0
 2529 0deb 33       		.uleb128 0x33
 2530 0dec 38000000 		.4byte	.LVL80
 2531 0df0 45100000 		.4byte	0x1045
 2532 0df4 020E0000 		.4byte	0xe02
 2533 0df8 25       		.uleb128 0x25
 2534 0df9 01       		.uleb128 0x1
 2535 0dfa 50       		.byte	0x50
 2536 0dfb 05       		.uleb128 0x5
 2537 0dfc 03       		.byte	0x3
 2538 0dfd 00000000 		.4byte	isr_UART_1_Rx
 2539 0e01 00       		.byte	0
 2540 0e02 33       		.uleb128 0x33
 2541 0e03 44000000 		.4byte	.LVL81
 2542 0e07 50100000 		.4byte	0x1050
 2543 0e0b 1E0E0000 		.4byte	0xe1e
 2544 0e0f 25       		.uleb128 0x25
 2545 0e10 01       		.uleb128 0x1
 2546 0e11 50       		.byte	0x50
 2547 0e12 01       		.uleb128 0x1
 2548 0e13 30       		.byte	0x30
 2549 0e14 25       		.uleb128 0x25
 2550 0e15 01       		.uleb128 0x1
 2551 0e16 51       		.byte	0x51
 2552 0e17 05       		.uleb128 0x5
 2553 0e18 03       		.byte	0x3
 2554 0e19 00000000 		.4byte	.LC0
 2555 0e1d 00       		.byte	0
 2556 0e1e 33       		.uleb128 0x33
 2557 0e1f 52000000 		.4byte	.LVL84
 2558 0e23 5B100000 		.4byte	0x105b
 2559 0e27 490E0000 		.4byte	0xe49
 2560 0e2b 25       		.uleb128 0x25
 2561 0e2c 01       		.uleb128 0x1
 2562 0e2d 50       		.byte	0x50
 2563 0e2e 01       		.uleb128 0x1
 2564 0e2f 30       		.byte	0x30
 2565 0e30 25       		.uleb128 0x25
 2566 0e31 01       		.uleb128 0x1
 2567 0e32 51       		.byte	0x51
 2568 0e33 02       		.uleb128 0x2
 2569 0e34 74       		.byte	0x74
 2570 0e35 00       		.sleb128 0
 2571 0e36 25       		.uleb128 0x25
 2572 0e37 01       		.uleb128 0x1
 2573 0e38 52       		.byte	0x52
 2574 0e39 05       		.uleb128 0x5
ARM GAS  C:\Users\164\AppData\Local\Temp\ccwvZXmi.s 			page 57


 2575 0e3a 03       		.byte	0x3
 2576 0e3b 08000000 		.4byte	.LC1
 2577 0e3f 25       		.uleb128 0x25
 2578 0e40 01       		.uleb128 0x1
 2579 0e41 53       		.byte	0x53
 2580 0e42 05       		.uleb128 0x5
 2581 0e43 03       		.byte	0x3
 2582 0e44 00000000 		.4byte	c_uart_new
 2583 0e48 00       		.byte	0
 2584 0e49 33       		.uleb128 0x33
 2585 0e4a 5E000000 		.4byte	.LVL85
 2586 0e4e 5B100000 		.4byte	0x105b
 2587 0e52 740E0000 		.4byte	0xe74
 2588 0e56 25       		.uleb128 0x25
 2589 0e57 01       		.uleb128 0x1
 2590 0e58 50       		.byte	0x50
 2591 0e59 01       		.uleb128 0x1
 2592 0e5a 30       		.byte	0x30
 2593 0e5b 25       		.uleb128 0x25
 2594 0e5c 01       		.uleb128 0x1
 2595 0e5d 51       		.byte	0x51
 2596 0e5e 02       		.uleb128 0x2
 2597 0e5f 74       		.byte	0x74
 2598 0e60 00       		.sleb128 0
 2599 0e61 25       		.uleb128 0x25
 2600 0e62 01       		.uleb128 0x1
 2601 0e63 52       		.byte	0x52
 2602 0e64 05       		.uleb128 0x5
 2603 0e65 03       		.byte	0x3
 2604 0e66 0C000000 		.4byte	.LC2
 2605 0e6a 25       		.uleb128 0x25
 2606 0e6b 01       		.uleb128 0x1
 2607 0e6c 53       		.byte	0x53
 2608 0e6d 05       		.uleb128 0x5
 2609 0e6e 03       		.byte	0x3
 2610 0e6f 00000000 		.4byte	c_uart_read
 2611 0e73 00       		.byte	0
 2612 0e74 33       		.uleb128 0x33
 2613 0e75 6A000000 		.4byte	.LVL86
 2614 0e79 5B100000 		.4byte	0x105b
 2615 0e7d 9F0E0000 		.4byte	0xe9f
 2616 0e81 25       		.uleb128 0x25
 2617 0e82 01       		.uleb128 0x1
 2618 0e83 50       		.byte	0x50
 2619 0e84 01       		.uleb128 0x1
 2620 0e85 30       		.byte	0x30
 2621 0e86 25       		.uleb128 0x25
 2622 0e87 01       		.uleb128 0x1
 2623 0e88 51       		.byte	0x51
 2624 0e89 02       		.uleb128 0x2
 2625 0e8a 74       		.byte	0x74
 2626 0e8b 00       		.sleb128 0
 2627 0e8c 25       		.uleb128 0x25
 2628 0e8d 01       		.uleb128 0x1
 2629 0e8e 52       		.byte	0x52
 2630 0e8f 05       		.uleb128 0x5
 2631 0e90 03       		.byte	0x3
ARM GAS  C:\Users\164\AppData\Local\Temp\ccwvZXmi.s 			page 58


 2632 0e91 14000000 		.4byte	.LC3
 2633 0e95 25       		.uleb128 0x25
 2634 0e96 01       		.uleb128 0x1
 2635 0e97 53       		.byte	0x53
 2636 0e98 05       		.uleb128 0x5
 2637 0e99 03       		.byte	0x3
 2638 0e9a 00000000 		.4byte	c_uart_write
 2639 0e9e 00       		.byte	0
 2640 0e9f 33       		.uleb128 0x33
 2641 0ea0 76000000 		.4byte	.LVL87
 2642 0ea4 5B100000 		.4byte	0x105b
 2643 0ea8 CA0E0000 		.4byte	0xeca
 2644 0eac 25       		.uleb128 0x25
 2645 0ead 01       		.uleb128 0x1
 2646 0eae 50       		.byte	0x50
 2647 0eaf 01       		.uleb128 0x1
 2648 0eb0 30       		.byte	0x30
 2649 0eb1 25       		.uleb128 0x25
 2650 0eb2 01       		.uleb128 0x1
 2651 0eb3 51       		.byte	0x51
 2652 0eb4 02       		.uleb128 0x2
 2653 0eb5 74       		.byte	0x74
 2654 0eb6 00       		.sleb128 0
 2655 0eb7 25       		.uleb128 0x25
 2656 0eb8 01       		.uleb128 0x1
 2657 0eb9 52       		.byte	0x52
 2658 0eba 05       		.uleb128 0x5
 2659 0ebb 03       		.byte	0x3
 2660 0ebc 1C000000 		.4byte	.LC4
 2661 0ec0 25       		.uleb128 0x25
 2662 0ec1 01       		.uleb128 0x1
 2663 0ec2 53       		.byte	0x53
 2664 0ec3 05       		.uleb128 0x5
 2665 0ec4 03       		.byte	0x3
 2666 0ec5 00000000 		.4byte	c_uart_gets
 2667 0ec9 00       		.byte	0
 2668 0eca 33       		.uleb128 0x33
 2669 0ecb 82000000 		.4byte	.LVL88
 2670 0ecf 5B100000 		.4byte	0x105b
 2671 0ed3 F50E0000 		.4byte	0xef5
 2672 0ed7 25       		.uleb128 0x25
 2673 0ed8 01       		.uleb128 0x1
 2674 0ed9 50       		.byte	0x50
 2675 0eda 01       		.uleb128 0x1
 2676 0edb 30       		.byte	0x30
 2677 0edc 25       		.uleb128 0x25
 2678 0edd 01       		.uleb128 0x1
 2679 0ede 51       		.byte	0x51
 2680 0edf 02       		.uleb128 0x2
 2681 0ee0 74       		.byte	0x74
 2682 0ee1 00       		.sleb128 0
 2683 0ee2 25       		.uleb128 0x25
 2684 0ee3 01       		.uleb128 0x1
 2685 0ee4 52       		.byte	0x52
 2686 0ee5 05       		.uleb128 0x5
 2687 0ee6 03       		.byte	0x3
 2688 0ee7 24000000 		.4byte	.LC5
ARM GAS  C:\Users\164\AppData\Local\Temp\ccwvZXmi.s 			page 59


 2689 0eeb 25       		.uleb128 0x25
 2690 0eec 01       		.uleb128 0x1
 2691 0eed 53       		.byte	0x53
 2692 0eee 05       		.uleb128 0x5
 2693 0eef 03       		.byte	0x3
 2694 0ef0 00000000 		.4byte	c_uart_puts
 2695 0ef4 00       		.byte	0
 2696 0ef5 33       		.uleb128 0x33
 2697 0ef6 8E000000 		.4byte	.LVL89
 2698 0efa 5B100000 		.4byte	0x105b
 2699 0efe 200F0000 		.4byte	0xf20
 2700 0f02 25       		.uleb128 0x25
 2701 0f03 01       		.uleb128 0x1
 2702 0f04 50       		.byte	0x50
 2703 0f05 01       		.uleb128 0x1
 2704 0f06 30       		.byte	0x30
 2705 0f07 25       		.uleb128 0x25
 2706 0f08 01       		.uleb128 0x1
 2707 0f09 51       		.byte	0x51
 2708 0f0a 02       		.uleb128 0x2
 2709 0f0b 74       		.byte	0x74
 2710 0f0c 00       		.sleb128 0
 2711 0f0d 25       		.uleb128 0x25
 2712 0f0e 01       		.uleb128 0x1
 2713 0f0f 52       		.byte	0x52
 2714 0f10 05       		.uleb128 0x5
 2715 0f11 03       		.byte	0x3
 2716 0f12 2C000000 		.4byte	.LC6
 2717 0f16 25       		.uleb128 0x25
 2718 0f17 01       		.uleb128 0x1
 2719 0f18 53       		.byte	0x53
 2720 0f19 05       		.uleb128 0x5
 2721 0f1a 03       		.byte	0x3
 2722 0f1b 00000000 		.4byte	c_uart_clear_tx_buffer
 2723 0f1f 00       		.byte	0
 2724 0f20 24       		.uleb128 0x24
 2725 0f21 9A000000 		.4byte	.LVL90
 2726 0f25 5B100000 		.4byte	0x105b
 2727 0f29 25       		.uleb128 0x25
 2728 0f2a 01       		.uleb128 0x1
 2729 0f2b 50       		.byte	0x50
 2730 0f2c 01       		.uleb128 0x1
 2731 0f2d 30       		.byte	0x30
 2732 0f2e 25       		.uleb128 0x25
 2733 0f2f 01       		.uleb128 0x1
 2734 0f30 51       		.byte	0x51
 2735 0f31 02       		.uleb128 0x2
 2736 0f32 74       		.byte	0x74
 2737 0f33 00       		.sleb128 0
 2738 0f34 25       		.uleb128 0x25
 2739 0f35 01       		.uleb128 0x1
 2740 0f36 52       		.byte	0x52
 2741 0f37 05       		.uleb128 0x5
 2742 0f38 03       		.byte	0x3
 2743 0f39 3C000000 		.4byte	.LC7
 2744 0f3d 25       		.uleb128 0x25
 2745 0f3e 01       		.uleb128 0x1
ARM GAS  C:\Users\164\AppData\Local\Temp\ccwvZXmi.s 			page 60


 2746 0f3f 53       		.byte	0x53
 2747 0f40 05       		.uleb128 0x5
 2748 0f41 03       		.byte	0x3
 2749 0f42 00000000 		.4byte	c_uart_clear_rx_buffer
 2750 0f46 00       		.byte	0
 2751 0f47 00       		.byte	0
 2752 0f48 06       		.uleb128 0x6
 2753 0f49 04       		.byte	0x4
 2754 0f4a 9F040000 		.4byte	0x49f
 2755 0f4e 35       		.uleb128 0x35
 2756 0f4f 13030000 		.4byte	.LASF139
 2757 0f53 09       		.byte	0x9
 2758 0f54 1207     		.2byte	0x712
 2759 0f56 5A0F0000 		.4byte	0xf5a
 2760 0f5a 09       		.uleb128 0x9
 2761 0f5b CE000000 		.4byte	0xce
 2762 0f5f 36       		.uleb128 0x36
 2763 0f60 6B000000 		.4byte	.LASF140
 2764 0f64 0A       		.byte	0xa
 2765 0f65 1A       		.byte	0x1a
 2766 0f66 EB050000 		.4byte	0x5eb
 2767 0f6a 1B       		.uleb128 0x1b
 2768 0f6b 54070000 		.4byte	0x754
 2769 0f6f 7A0F0000 		.4byte	0xf7a
 2770 0f73 1D       		.uleb128 0x1d
 2771 0f74 08010000 		.4byte	0x108
 2772 0f78 00       		.byte	0
 2773 0f79 00       		.byte	0
 2774 0f7a 37       		.uleb128 0x37
 2775 0f7b 756800   		.ascii	"uh\000"
 2776 0f7e 01       		.byte	0x1
 2777 0f7f 39       		.byte	0x39
 2778 0f80 6A0F0000 		.4byte	0xf6a
 2779 0f84 05       		.uleb128 0x5
 2780 0f85 03       		.byte	0x3
 2781 0f86 00000000 		.4byte	uh
 2782 0f8a 38       		.uleb128 0x38
 2783 0f8b BA070000 		.4byte	.LASF141
 2784 0f8f BA070000 		.4byte	.LASF141
 2785 0f93 08       		.byte	0x8
 2786 0f94 95       		.byte	0x95
 2787 0f95 38       		.uleb128 0x38
 2788 0f96 BA060000 		.4byte	.LASF142
 2789 0f9a BA060000 		.4byte	.LASF142
 2790 0f9e 08       		.byte	0x8
 2791 0f9f 96       		.byte	0x96
 2792 0fa0 38       		.uleb128 0x38
 2793 0fa1 94050000 		.4byte	.LASF143
 2794 0fa5 94050000 		.4byte	.LASF143
 2795 0fa9 08       		.byte	0x8
 2796 0faa A4       		.byte	0xa4
 2797 0fab 38       		.uleb128 0x38
 2798 0fac 19020000 		.4byte	.LASF144
 2799 0fb0 19020000 		.4byte	.LASF144
 2800 0fb4 08       		.byte	0x8
 2801 0fb5 A3       		.byte	0xa3
 2802 0fb6 38       		.uleb128 0x38
ARM GAS  C:\Users\164\AppData\Local\Temp\ccwvZXmi.s 			page 61


 2803 0fb7 5F070000 		.4byte	.LASF145
 2804 0fbb 5F070000 		.4byte	.LASF145
 2805 0fbf 08       		.byte	0x8
 2806 0fc0 A7       		.byte	0xa7
 2807 0fc1 38       		.uleb128 0x38
 2808 0fc2 98060000 		.4byte	.LASF146
 2809 0fc6 98060000 		.4byte	.LASF146
 2810 0fca 03       		.byte	0x3
 2811 0fcb D7       		.byte	0xd7
 2812 0fcc 38       		.uleb128 0x38
 2813 0fcd C4040000 		.4byte	.LASF147
 2814 0fd1 C4040000 		.4byte	.LASF147
 2815 0fd5 08       		.byte	0x8
 2816 0fd6 AF       		.byte	0xaf
 2817 0fd7 38       		.uleb128 0x38
 2818 0fd8 27000000 		.4byte	.LASF148
 2819 0fdc 27000000 		.4byte	.LASF148
 2820 0fe0 08       		.byte	0x8
 2821 0fe1 AE       		.byte	0xae
 2822 0fe2 38       		.uleb128 0x38
 2823 0fe3 D9060000 		.4byte	.LASF149
 2824 0fe7 D9060000 		.4byte	.LASF149
 2825 0feb 0B       		.byte	0xb
 2826 0fec 1D       		.byte	0x1d
 2827 0fed 38       		.uleb128 0x38
 2828 0fee 4F050000 		.4byte	.LASF150
 2829 0ff2 4F050000 		.4byte	.LASF150
 2830 0ff6 08       		.byte	0x8
 2831 0ff7 A8       		.byte	0xa8
 2832 0ff8 38       		.uleb128 0x38
 2833 0ff9 BC010000 		.4byte	.LASF151
 2834 0ffd BC010000 		.4byte	.LASF151
 2835 1001 0B       		.byte	0xb
 2836 1002 1E       		.byte	0x1e
 2837 1003 38       		.uleb128 0x38
 2838 1004 51060000 		.4byte	.LASF152
 2839 1008 51060000 		.4byte	.LASF152
 2840 100c 02       		.byte	0x2
 2841 100d 28       		.byte	0x28
 2842 100e 38       		.uleb128 0x38
 2843 100f 1C000000 		.4byte	.LASF153
 2844 1013 1C000000 		.4byte	.LASF153
 2845 1017 08       		.byte	0x8
 2846 1018 A5       		.byte	0xa5
 2847 1019 38       		.uleb128 0x38
 2848 101a DA050000 		.4byte	.LASF154
 2849 101e DA050000 		.4byte	.LASF154
 2850 1022 08       		.byte	0x8
 2851 1023 A6       		.byte	0xa6
 2852 1024 38       		.uleb128 0x38
 2853 1025 57030000 		.4byte	.LASF155
 2854 1029 57030000 		.4byte	.LASF155
 2855 102d 03       		.byte	0x3
 2856 102e DC       		.byte	0xdc
 2857 102f 38       		.uleb128 0x38
 2858 1030 24040000 		.4byte	.LASF156
 2859 1034 24040000 		.4byte	.LASF156
ARM GAS  C:\Users\164\AppData\Local\Temp\ccwvZXmi.s 			page 62


 2860 1038 08       		.byte	0x8
 2861 1039 97       		.byte	0x97
 2862 103a 38       		.uleb128 0x38
 2863 103b 94040000 		.4byte	.LASF157
 2864 103f 94040000 		.4byte	.LASF157
 2865 1043 0C       		.byte	0xc
 2866 1044 18       		.byte	0x18
 2867 1045 38       		.uleb128 0x38
 2868 1046 00000000 		.4byte	.LASF158
 2869 104a 00000000 		.4byte	.LASF158
 2870 104e 0D       		.byte	0xd
 2871 104f 18       		.byte	0x18
 2872 1050 38       		.uleb128 0x38
 2873 1051 67010000 		.4byte	.LASF159
 2874 1055 67010000 		.4byte	.LASF159
 2875 1059 0E       		.byte	0xe
 2876 105a 1C       		.byte	0x1c
 2877 105b 38       		.uleb128 0x38
 2878 105c 5E040000 		.4byte	.LASF160
 2879 1060 5E040000 		.4byte	.LASF160
 2880 1064 0E       		.byte	0xe
 2881 1065 1E       		.byte	0x1e
 2882 1066 00       		.byte	0
 2883              		.section	.debug_abbrev,"",%progbits
 2884              	.Ldebug_abbrev0:
 2885 0000 01       		.uleb128 0x1
 2886 0001 11       		.uleb128 0x11
 2887 0002 01       		.byte	0x1
 2888 0003 25       		.uleb128 0x25
 2889 0004 0E       		.uleb128 0xe
 2890 0005 13       		.uleb128 0x13
 2891 0006 0B       		.uleb128 0xb
 2892 0007 03       		.uleb128 0x3
 2893 0008 0E       		.uleb128 0xe
 2894 0009 1B       		.uleb128 0x1b
 2895 000a 0E       		.uleb128 0xe
 2896 000b 55       		.uleb128 0x55
 2897 000c 17       		.uleb128 0x17
 2898 000d 11       		.uleb128 0x11
 2899 000e 01       		.uleb128 0x1
 2900 000f 10       		.uleb128 0x10
 2901 0010 17       		.uleb128 0x17
 2902 0011 00       		.byte	0
 2903 0012 00       		.byte	0
 2904 0013 02       		.uleb128 0x2
 2905 0014 16       		.uleb128 0x16
 2906 0015 00       		.byte	0
 2907 0016 03       		.uleb128 0x3
 2908 0017 0E       		.uleb128 0xe
 2909 0018 3A       		.uleb128 0x3a
 2910 0019 0B       		.uleb128 0xb
 2911 001a 3B       		.uleb128 0x3b
 2912 001b 0B       		.uleb128 0xb
 2913 001c 49       		.uleb128 0x49
 2914 001d 13       		.uleb128 0x13
 2915 001e 00       		.byte	0
 2916 001f 00       		.byte	0
ARM GAS  C:\Users\164\AppData\Local\Temp\ccwvZXmi.s 			page 63


 2917 0020 03       		.uleb128 0x3
 2918 0021 24       		.uleb128 0x24
 2919 0022 00       		.byte	0
 2920 0023 0B       		.uleb128 0xb
 2921 0024 0B       		.uleb128 0xb
 2922 0025 3E       		.uleb128 0x3e
 2923 0026 0B       		.uleb128 0xb
 2924 0027 03       		.uleb128 0x3
 2925 0028 0E       		.uleb128 0xe
 2926 0029 00       		.byte	0
 2927 002a 00       		.byte	0
 2928 002b 04       		.uleb128 0x4
 2929 002c 24       		.uleb128 0x24
 2930 002d 00       		.byte	0
 2931 002e 0B       		.uleb128 0xb
 2932 002f 0B       		.uleb128 0xb
 2933 0030 3E       		.uleb128 0x3e
 2934 0031 0B       		.uleb128 0xb
 2935 0032 03       		.uleb128 0x3
 2936 0033 08       		.uleb128 0x8
 2937 0034 00       		.byte	0
 2938 0035 00       		.byte	0
 2939 0036 05       		.uleb128 0x5
 2940 0037 16       		.uleb128 0x16
 2941 0038 00       		.byte	0
 2942 0039 03       		.uleb128 0x3
 2943 003a 0E       		.uleb128 0xe
 2944 003b 3A       		.uleb128 0x3a
 2945 003c 0B       		.uleb128 0xb
 2946 003d 3B       		.uleb128 0x3b
 2947 003e 05       		.uleb128 0x5
 2948 003f 49       		.uleb128 0x49
 2949 0040 13       		.uleb128 0x13
 2950 0041 00       		.byte	0
 2951 0042 00       		.byte	0
 2952 0043 06       		.uleb128 0x6
 2953 0044 0F       		.uleb128 0xf
 2954 0045 00       		.byte	0
 2955 0046 0B       		.uleb128 0xb
 2956 0047 0B       		.uleb128 0xb
 2957 0048 49       		.uleb128 0x49
 2958 0049 13       		.uleb128 0x13
 2959 004a 00       		.byte	0
 2960 004b 00       		.byte	0
 2961 004c 07       		.uleb128 0x7
 2962 004d 15       		.uleb128 0x15
 2963 004e 00       		.byte	0
 2964 004f 27       		.uleb128 0x27
 2965 0050 19       		.uleb128 0x19
 2966 0051 00       		.byte	0
 2967 0052 00       		.byte	0
 2968 0053 08       		.uleb128 0x8
 2969 0054 26       		.uleb128 0x26
 2970 0055 00       		.byte	0
 2971 0056 49       		.uleb128 0x49
 2972 0057 13       		.uleb128 0x13
 2973 0058 00       		.byte	0
ARM GAS  C:\Users\164\AppData\Local\Temp\ccwvZXmi.s 			page 64


 2974 0059 00       		.byte	0
 2975 005a 09       		.uleb128 0x9
 2976 005b 35       		.uleb128 0x35
 2977 005c 00       		.byte	0
 2978 005d 49       		.uleb128 0x49
 2979 005e 13       		.uleb128 0x13
 2980 005f 00       		.byte	0
 2981 0060 00       		.byte	0
 2982 0061 0A       		.uleb128 0xa
 2983 0062 15       		.uleb128 0x15
 2984 0063 01       		.byte	0x1
 2985 0064 27       		.uleb128 0x27
 2986 0065 19       		.uleb128 0x19
 2987 0066 01       		.uleb128 0x1
 2988 0067 13       		.uleb128 0x13
 2989 0068 00       		.byte	0
 2990 0069 00       		.byte	0
 2991 006a 0B       		.uleb128 0xb
 2992 006b 05       		.uleb128 0x5
 2993 006c 00       		.byte	0
 2994 006d 49       		.uleb128 0x49
 2995 006e 13       		.uleb128 0x13
 2996 006f 00       		.byte	0
 2997 0070 00       		.byte	0
 2998 0071 0C       		.uleb128 0xc
 2999 0072 13       		.uleb128 0x13
 3000 0073 01       		.byte	0x1
 3001 0074 03       		.uleb128 0x3
 3002 0075 08       		.uleb128 0x8
 3003 0076 0B       		.uleb128 0xb
 3004 0077 05       		.uleb128 0x5
 3005 0078 3A       		.uleb128 0x3a
 3006 0079 0B       		.uleb128 0xb
 3007 007a 3B       		.uleb128 0x3b
 3008 007b 0B       		.uleb128 0xb
 3009 007c 01       		.uleb128 0x1
 3010 007d 13       		.uleb128 0x13
 3011 007e 00       		.byte	0
 3012 007f 00       		.byte	0
 3013 0080 0D       		.uleb128 0xd
 3014 0081 0D       		.uleb128 0xd
 3015 0082 00       		.byte	0
 3016 0083 03       		.uleb128 0x3
 3017 0084 0E       		.uleb128 0xe
 3018 0085 3A       		.uleb128 0x3a
 3019 0086 0B       		.uleb128 0xb
 3020 0087 3B       		.uleb128 0x3b
 3021 0088 0B       		.uleb128 0xb
 3022 0089 49       		.uleb128 0x49
 3023 008a 13       		.uleb128 0x13
 3024 008b 38       		.uleb128 0x38
 3025 008c 0B       		.uleb128 0xb
 3026 008d 00       		.byte	0
 3027 008e 00       		.byte	0
 3028 008f 0E       		.uleb128 0xe
 3029 0090 0D       		.uleb128 0xd
 3030 0091 00       		.byte	0
ARM GAS  C:\Users\164\AppData\Local\Temp\ccwvZXmi.s 			page 65


 3031 0092 03       		.uleb128 0x3
 3032 0093 08       		.uleb128 0x8
 3033 0094 3A       		.uleb128 0x3a
 3034 0095 0B       		.uleb128 0xb
 3035 0096 3B       		.uleb128 0x3b
 3036 0097 0B       		.uleb128 0xb
 3037 0098 49       		.uleb128 0x49
 3038 0099 13       		.uleb128 0x13
 3039 009a 38       		.uleb128 0x38
 3040 009b 0B       		.uleb128 0xb
 3041 009c 00       		.byte	0
 3042 009d 00       		.byte	0
 3043 009e 0F       		.uleb128 0xf
 3044 009f 0D       		.uleb128 0xd
 3045 00a0 00       		.byte	0
 3046 00a1 03       		.uleb128 0x3
 3047 00a2 0E       		.uleb128 0xe
 3048 00a3 3A       		.uleb128 0x3a
 3049 00a4 0B       		.uleb128 0xb
 3050 00a5 3B       		.uleb128 0x3b
 3051 00a6 0B       		.uleb128 0xb
 3052 00a7 49       		.uleb128 0x49
 3053 00a8 13       		.uleb128 0x13
 3054 00a9 38       		.uleb128 0x38
 3055 00aa 05       		.uleb128 0x5
 3056 00ab 00       		.byte	0
 3057 00ac 00       		.byte	0
 3058 00ad 10       		.uleb128 0x10
 3059 00ae 13       		.uleb128 0x13
 3060 00af 01       		.byte	0x1
 3061 00b0 03       		.uleb128 0x3
 3062 00b1 0E       		.uleb128 0xe
 3063 00b2 0B       		.uleb128 0xb
 3064 00b3 0B       		.uleb128 0xb
 3065 00b4 3A       		.uleb128 0x3a
 3066 00b5 0B       		.uleb128 0xb
 3067 00b6 3B       		.uleb128 0x3b
 3068 00b7 0B       		.uleb128 0xb
 3069 00b8 01       		.uleb128 0x1
 3070 00b9 13       		.uleb128 0x13
 3071 00ba 00       		.byte	0
 3072 00bb 00       		.byte	0
 3073 00bc 11       		.uleb128 0x11
 3074 00bd 0D       		.uleb128 0xd
 3075 00be 00       		.byte	0
 3076 00bf 03       		.uleb128 0x3
 3077 00c0 08       		.uleb128 0x8
 3078 00c1 3A       		.uleb128 0x3a
 3079 00c2 0B       		.uleb128 0xb
 3080 00c3 3B       		.uleb128 0x3b
 3081 00c4 0B       		.uleb128 0xb
 3082 00c5 49       		.uleb128 0x49
 3083 00c6 13       		.uleb128 0x13
 3084 00c7 0B       		.uleb128 0xb
 3085 00c8 0B       		.uleb128 0xb
 3086 00c9 0D       		.uleb128 0xd
 3087 00ca 0B       		.uleb128 0xb
ARM GAS  C:\Users\164\AppData\Local\Temp\ccwvZXmi.s 			page 66


 3088 00cb 0C       		.uleb128 0xc
 3089 00cc 0B       		.uleb128 0xb
 3090 00cd 38       		.uleb128 0x38
 3091 00ce 0B       		.uleb128 0xb
 3092 00cf 00       		.byte	0
 3093 00d0 00       		.byte	0
 3094 00d1 12       		.uleb128 0x12
 3095 00d2 0D       		.uleb128 0xd
 3096 00d3 00       		.byte	0
 3097 00d4 49       		.uleb128 0x49
 3098 00d5 13       		.uleb128 0x13
 3099 00d6 38       		.uleb128 0x38
 3100 00d7 0B       		.uleb128 0xb
 3101 00d8 00       		.byte	0
 3102 00d9 00       		.byte	0
 3103 00da 13       		.uleb128 0x13
 3104 00db 04       		.uleb128 0x4
 3105 00dc 01       		.byte	0x1
 3106 00dd 0B       		.uleb128 0xb
 3107 00de 0B       		.uleb128 0xb
 3108 00df 49       		.uleb128 0x49
 3109 00e0 13       		.uleb128 0x13
 3110 00e1 3A       		.uleb128 0x3a
 3111 00e2 0B       		.uleb128 0xb
 3112 00e3 3B       		.uleb128 0x3b
 3113 00e4 0B       		.uleb128 0xb
 3114 00e5 01       		.uleb128 0x1
 3115 00e6 13       		.uleb128 0x13
 3116 00e7 00       		.byte	0
 3117 00e8 00       		.byte	0
 3118 00e9 14       		.uleb128 0x14
 3119 00ea 28       		.uleb128 0x28
 3120 00eb 00       		.byte	0
 3121 00ec 03       		.uleb128 0x3
 3122 00ed 0E       		.uleb128 0xe
 3123 00ee 1C       		.uleb128 0x1c
 3124 00ef 0D       		.uleb128 0xd
 3125 00f0 00       		.byte	0
 3126 00f1 00       		.byte	0
 3127 00f2 15       		.uleb128 0x15
 3128 00f3 28       		.uleb128 0x28
 3129 00f4 00       		.byte	0
 3130 00f5 03       		.uleb128 0x3
 3131 00f6 0E       		.uleb128 0xe
 3132 00f7 1C       		.uleb128 0x1c
 3133 00f8 0B       		.uleb128 0xb
 3134 00f9 00       		.byte	0
 3135 00fa 00       		.byte	0
 3136 00fb 16       		.uleb128 0x16
 3137 00fc 17       		.uleb128 0x17
 3138 00fd 01       		.byte	0x1
 3139 00fe 0B       		.uleb128 0xb
 3140 00ff 0B       		.uleb128 0xb
 3141 0100 3A       		.uleb128 0x3a
 3142 0101 0B       		.uleb128 0xb
 3143 0102 3B       		.uleb128 0x3b
 3144 0103 0B       		.uleb128 0xb
ARM GAS  C:\Users\164\AppData\Local\Temp\ccwvZXmi.s 			page 67


 3145 0104 01       		.uleb128 0x1
 3146 0105 13       		.uleb128 0x13
 3147 0106 00       		.byte	0
 3148 0107 00       		.byte	0
 3149 0108 17       		.uleb128 0x17
 3150 0109 0D       		.uleb128 0xd
 3151 010a 00       		.byte	0
 3152 010b 03       		.uleb128 0x3
 3153 010c 08       		.uleb128 0x8
 3154 010d 3A       		.uleb128 0x3a
 3155 010e 0B       		.uleb128 0xb
 3156 010f 3B       		.uleb128 0x3b
 3157 0110 0B       		.uleb128 0xb
 3158 0111 49       		.uleb128 0x49
 3159 0112 13       		.uleb128 0x13
 3160 0113 00       		.byte	0
 3161 0114 00       		.byte	0
 3162 0115 18       		.uleb128 0x18
 3163 0116 0D       		.uleb128 0xd
 3164 0117 00       		.byte	0
 3165 0118 03       		.uleb128 0x3
 3166 0119 0E       		.uleb128 0xe
 3167 011a 3A       		.uleb128 0x3a
 3168 011b 0B       		.uleb128 0xb
 3169 011c 3B       		.uleb128 0x3b
 3170 011d 0B       		.uleb128 0xb
 3171 011e 49       		.uleb128 0x49
 3172 011f 13       		.uleb128 0x13
 3173 0120 00       		.byte	0
 3174 0121 00       		.byte	0
 3175 0122 19       		.uleb128 0x19
 3176 0123 0D       		.uleb128 0xd
 3177 0124 00       		.byte	0
 3178 0125 03       		.uleb128 0x3
 3179 0126 0E       		.uleb128 0xe
 3180 0127 3A       		.uleb128 0x3a
 3181 0128 0B       		.uleb128 0xb
 3182 0129 3B       		.uleb128 0x3b
 3183 012a 0B       		.uleb128 0xb
 3184 012b 49       		.uleb128 0x49
 3185 012c 13       		.uleb128 0x13
 3186 012d 0B       		.uleb128 0xb
 3187 012e 0B       		.uleb128 0xb
 3188 012f 0D       		.uleb128 0xd
 3189 0130 0B       		.uleb128 0xb
 3190 0131 0C       		.uleb128 0xc
 3191 0132 0B       		.uleb128 0xb
 3192 0133 38       		.uleb128 0x38
 3193 0134 0B       		.uleb128 0xb
 3194 0135 00       		.byte	0
 3195 0136 00       		.byte	0
 3196 0137 1A       		.uleb128 0x1a
 3197 0138 13       		.uleb128 0x13
 3198 0139 00       		.byte	0
 3199 013a 03       		.uleb128 0x3
 3200 013b 0E       		.uleb128 0xe
 3201 013c 3C       		.uleb128 0x3c
ARM GAS  C:\Users\164\AppData\Local\Temp\ccwvZXmi.s 			page 68


 3202 013d 19       		.uleb128 0x19
 3203 013e 00       		.byte	0
 3204 013f 00       		.byte	0
 3205 0140 1B       		.uleb128 0x1b
 3206 0141 01       		.uleb128 0x1
 3207 0142 01       		.byte	0x1
 3208 0143 49       		.uleb128 0x49
 3209 0144 13       		.uleb128 0x13
 3210 0145 01       		.uleb128 0x1
 3211 0146 13       		.uleb128 0x13
 3212 0147 00       		.byte	0
 3213 0148 00       		.byte	0
 3214 0149 1C       		.uleb128 0x1c
 3215 014a 21       		.uleb128 0x21
 3216 014b 00       		.byte	0
 3217 014c 49       		.uleb128 0x49
 3218 014d 13       		.uleb128 0x13
 3219 014e 00       		.byte	0
 3220 014f 00       		.byte	0
 3221 0150 1D       		.uleb128 0x1d
 3222 0151 21       		.uleb128 0x21
 3223 0152 00       		.byte	0
 3224 0153 49       		.uleb128 0x49
 3225 0154 13       		.uleb128 0x13
 3226 0155 2F       		.uleb128 0x2f
 3227 0156 0B       		.uleb128 0xb
 3228 0157 00       		.byte	0
 3229 0158 00       		.byte	0
 3230 0159 1E       		.uleb128 0x1e
 3231 015a 15       		.uleb128 0x15
 3232 015b 00       		.byte	0
 3233 015c 27       		.uleb128 0x27
 3234 015d 19       		.uleb128 0x19
 3235 015e 49       		.uleb128 0x49
 3236 015f 13       		.uleb128 0x13
 3237 0160 00       		.byte	0
 3238 0161 00       		.byte	0
 3239 0162 1F       		.uleb128 0x1f
 3240 0163 2E       		.uleb128 0x2e
 3241 0164 01       		.byte	0x1
 3242 0165 03       		.uleb128 0x3
 3243 0166 0E       		.uleb128 0xe
 3244 0167 3A       		.uleb128 0x3a
 3245 0168 0B       		.uleb128 0xb
 3246 0169 3B       		.uleb128 0x3b
 3247 016a 0B       		.uleb128 0xb
 3248 016b 27       		.uleb128 0x27
 3249 016c 19       		.uleb128 0x19
 3250 016d 49       		.uleb128 0x49
 3251 016e 13       		.uleb128 0x13
 3252 016f 20       		.uleb128 0x20
 3253 0170 0B       		.uleb128 0xb
 3254 0171 01       		.uleb128 0x1
 3255 0172 13       		.uleb128 0x13
 3256 0173 00       		.byte	0
 3257 0174 00       		.byte	0
 3258 0175 20       		.uleb128 0x20
ARM GAS  C:\Users\164\AppData\Local\Temp\ccwvZXmi.s 			page 69


 3259 0176 05       		.uleb128 0x5
 3260 0177 00       		.byte	0
 3261 0178 03       		.uleb128 0x3
 3262 0179 08       		.uleb128 0x8
 3263 017a 3A       		.uleb128 0x3a
 3264 017b 0B       		.uleb128 0xb
 3265 017c 3B       		.uleb128 0x3b
 3266 017d 0B       		.uleb128 0xb
 3267 017e 49       		.uleb128 0x49
 3268 017f 13       		.uleb128 0x13
 3269 0180 00       		.byte	0
 3270 0181 00       		.byte	0
 3271 0182 21       		.uleb128 0x21
 3272 0183 2E       		.uleb128 0x2e
 3273 0184 01       		.byte	0x1
 3274 0185 03       		.uleb128 0x3
 3275 0186 0E       		.uleb128 0xe
 3276 0187 3A       		.uleb128 0x3a
 3277 0188 0B       		.uleb128 0xb
 3278 0189 3B       		.uleb128 0x3b
 3279 018a 05       		.uleb128 0x5
 3280 018b 27       		.uleb128 0x27
 3281 018c 19       		.uleb128 0x19
 3282 018d 49       		.uleb128 0x49
 3283 018e 13       		.uleb128 0x13
 3284 018f 20       		.uleb128 0x20
 3285 0190 0B       		.uleb128 0xb
 3286 0191 01       		.uleb128 0x1
 3287 0192 13       		.uleb128 0x13
 3288 0193 00       		.byte	0
 3289 0194 00       		.byte	0
 3290 0195 22       		.uleb128 0x22
 3291 0196 34       		.uleb128 0x34
 3292 0197 00       		.byte	0
 3293 0198 03       		.uleb128 0x3
 3294 0199 0E       		.uleb128 0xe
 3295 019a 3A       		.uleb128 0x3a
 3296 019b 0B       		.uleb128 0xb
 3297 019c 3B       		.uleb128 0x3b
 3298 019d 05       		.uleb128 0x5
 3299 019e 49       		.uleb128 0x49
 3300 019f 13       		.uleb128 0x13
 3301 01a0 00       		.byte	0
 3302 01a1 00       		.byte	0
 3303 01a2 23       		.uleb128 0x23
 3304 01a3 2E       		.uleb128 0x2e
 3305 01a4 01       		.byte	0x1
 3306 01a5 3F       		.uleb128 0x3f
 3307 01a6 19       		.uleb128 0x19
 3308 01a7 03       		.uleb128 0x3
 3309 01a8 0E       		.uleb128 0xe
 3310 01a9 3A       		.uleb128 0x3a
 3311 01aa 0B       		.uleb128 0xb
 3312 01ab 3B       		.uleb128 0x3b
 3313 01ac 0B       		.uleb128 0xb
 3314 01ad 27       		.uleb128 0x27
 3315 01ae 19       		.uleb128 0x19
ARM GAS  C:\Users\164\AppData\Local\Temp\ccwvZXmi.s 			page 70


 3316 01af 11       		.uleb128 0x11
 3317 01b0 01       		.uleb128 0x1
 3318 01b1 12       		.uleb128 0x12
 3319 01b2 06       		.uleb128 0x6
 3320 01b3 40       		.uleb128 0x40
 3321 01b4 18       		.uleb128 0x18
 3322 01b5 9742     		.uleb128 0x2117
 3323 01b7 19       		.uleb128 0x19
 3324 01b8 01       		.uleb128 0x1
 3325 01b9 13       		.uleb128 0x13
 3326 01ba 00       		.byte	0
 3327 01bb 00       		.byte	0
 3328 01bc 24       		.uleb128 0x24
 3329 01bd 898201   		.uleb128 0x4109
 3330 01c0 01       		.byte	0x1
 3331 01c1 11       		.uleb128 0x11
 3332 01c2 01       		.uleb128 0x1
 3333 01c3 31       		.uleb128 0x31
 3334 01c4 13       		.uleb128 0x13
 3335 01c5 00       		.byte	0
 3336 01c6 00       		.byte	0
 3337 01c7 25       		.uleb128 0x25
 3338 01c8 8A8201   		.uleb128 0x410a
 3339 01cb 00       		.byte	0
 3340 01cc 02       		.uleb128 0x2
 3341 01cd 18       		.uleb128 0x18
 3342 01ce 9142     		.uleb128 0x2111
 3343 01d0 18       		.uleb128 0x18
 3344 01d1 00       		.byte	0
 3345 01d2 00       		.byte	0
 3346 01d3 26       		.uleb128 0x26
 3347 01d4 2E       		.uleb128 0x2e
 3348 01d5 01       		.byte	0x1
 3349 01d6 03       		.uleb128 0x3
 3350 01d7 0E       		.uleb128 0xe
 3351 01d8 3A       		.uleb128 0x3a
 3352 01d9 0B       		.uleb128 0xb
 3353 01da 3B       		.uleb128 0x3b
 3354 01db 0B       		.uleb128 0xb
 3355 01dc 27       		.uleb128 0x27
 3356 01dd 19       		.uleb128 0x19
 3357 01de 11       		.uleb128 0x11
 3358 01df 01       		.uleb128 0x1
 3359 01e0 12       		.uleb128 0x12
 3360 01e1 06       		.uleb128 0x6
 3361 01e2 40       		.uleb128 0x40
 3362 01e3 18       		.uleb128 0x18
 3363 01e4 9742     		.uleb128 0x2117
 3364 01e6 19       		.uleb128 0x19
 3365 01e7 01       		.uleb128 0x1
 3366 01e8 13       		.uleb128 0x13
 3367 01e9 00       		.byte	0
 3368 01ea 00       		.byte	0
 3369 01eb 27       		.uleb128 0x27
 3370 01ec 05       		.uleb128 0x5
 3371 01ed 00       		.byte	0
 3372 01ee 03       		.uleb128 0x3
ARM GAS  C:\Users\164\AppData\Local\Temp\ccwvZXmi.s 			page 71


 3373 01ef 08       		.uleb128 0x8
 3374 01f0 3A       		.uleb128 0x3a
 3375 01f1 0B       		.uleb128 0xb
 3376 01f2 3B       		.uleb128 0x3b
 3377 01f3 0B       		.uleb128 0xb
 3378 01f4 49       		.uleb128 0x49
 3379 01f5 13       		.uleb128 0x13
 3380 01f6 02       		.uleb128 0x2
 3381 01f7 17       		.uleb128 0x17
 3382 01f8 00       		.byte	0
 3383 01f9 00       		.byte	0
 3384 01fa 28       		.uleb128 0x28
 3385 01fb 05       		.uleb128 0x5
 3386 01fc 00       		.byte	0
 3387 01fd 03       		.uleb128 0x3
 3388 01fe 0E       		.uleb128 0xe
 3389 01ff 3A       		.uleb128 0x3a
 3390 0200 0B       		.uleb128 0xb
 3391 0201 3B       		.uleb128 0x3b
 3392 0202 0B       		.uleb128 0xb
 3393 0203 49       		.uleb128 0x49
 3394 0204 13       		.uleb128 0x13
 3395 0205 02       		.uleb128 0x2
 3396 0206 17       		.uleb128 0x17
 3397 0207 00       		.byte	0
 3398 0208 00       		.byte	0
 3399 0209 29       		.uleb128 0x29
 3400 020a 34       		.uleb128 0x34
 3401 020b 00       		.byte	0
 3402 020c 03       		.uleb128 0x3
 3403 020d 0E       		.uleb128 0xe
 3404 020e 3A       		.uleb128 0x3a
 3405 020f 0B       		.uleb128 0xb
 3406 0210 3B       		.uleb128 0x3b
 3407 0211 0B       		.uleb128 0xb
 3408 0212 49       		.uleb128 0x49
 3409 0213 13       		.uleb128 0x13
 3410 0214 02       		.uleb128 0x2
 3411 0215 17       		.uleb128 0x17
 3412 0216 00       		.byte	0
 3413 0217 00       		.byte	0
 3414 0218 2A       		.uleb128 0x2a
 3415 0219 898201   		.uleb128 0x4109
 3416 021c 00       		.byte	0
 3417 021d 11       		.uleb128 0x11
 3418 021e 01       		.uleb128 0x1
 3419 021f 31       		.uleb128 0x31
 3420 0220 13       		.uleb128 0x13
 3421 0221 00       		.byte	0
 3422 0222 00       		.byte	0
 3423 0223 2B       		.uleb128 0x2b
 3424 0224 34       		.uleb128 0x34
 3425 0225 00       		.byte	0
 3426 0226 03       		.uleb128 0x3
 3427 0227 08       		.uleb128 0x8
 3428 0228 3A       		.uleb128 0x3a
 3429 0229 0B       		.uleb128 0xb
ARM GAS  C:\Users\164\AppData\Local\Temp\ccwvZXmi.s 			page 72


 3430 022a 3B       		.uleb128 0x3b
 3431 022b 0B       		.uleb128 0xb
 3432 022c 49       		.uleb128 0x49
 3433 022d 13       		.uleb128 0x13
 3434 022e 02       		.uleb128 0x2
 3435 022f 17       		.uleb128 0x17
 3436 0230 00       		.byte	0
 3437 0231 00       		.byte	0
 3438 0232 2C       		.uleb128 0x2c
 3439 0233 1D       		.uleb128 0x1d
 3440 0234 01       		.byte	0x1
 3441 0235 31       		.uleb128 0x31
 3442 0236 13       		.uleb128 0x13
 3443 0237 11       		.uleb128 0x11
 3444 0238 01       		.uleb128 0x1
 3445 0239 12       		.uleb128 0x12
 3446 023a 06       		.uleb128 0x6
 3447 023b 58       		.uleb128 0x58
 3448 023c 0B       		.uleb128 0xb
 3449 023d 59       		.uleb128 0x59
 3450 023e 0B       		.uleb128 0xb
 3451 023f 01       		.uleb128 0x1
 3452 0240 13       		.uleb128 0x13
 3453 0241 00       		.byte	0
 3454 0242 00       		.byte	0
 3455 0243 2D       		.uleb128 0x2d
 3456 0244 05       		.uleb128 0x5
 3457 0245 00       		.byte	0
 3458 0246 31       		.uleb128 0x31
 3459 0247 13       		.uleb128 0x13
 3460 0248 02       		.uleb128 0x2
 3461 0249 17       		.uleb128 0x17
 3462 024a 00       		.byte	0
 3463 024b 00       		.byte	0
 3464 024c 2E       		.uleb128 0x2e
 3465 024d 0B       		.uleb128 0xb
 3466 024e 01       		.byte	0x1
 3467 024f 11       		.uleb128 0x11
 3468 0250 01       		.uleb128 0x1
 3469 0251 12       		.uleb128 0x12
 3470 0252 06       		.uleb128 0x6
 3471 0253 00       		.byte	0
 3472 0254 00       		.byte	0
 3473 0255 2F       		.uleb128 0x2f
 3474 0256 34       		.uleb128 0x34
 3475 0257 00       		.byte	0
 3476 0258 03       		.uleb128 0x3
 3477 0259 08       		.uleb128 0x8
 3478 025a 3A       		.uleb128 0x3a
 3479 025b 0B       		.uleb128 0xb
 3480 025c 3B       		.uleb128 0x3b
 3481 025d 0B       		.uleb128 0xb
 3482 025e 49       		.uleb128 0x49
 3483 025f 13       		.uleb128 0x13
 3484 0260 02       		.uleb128 0x2
 3485 0261 18       		.uleb128 0x18
 3486 0262 00       		.byte	0
ARM GAS  C:\Users\164\AppData\Local\Temp\ccwvZXmi.s 			page 73


 3487 0263 00       		.byte	0
 3488 0264 30       		.uleb128 0x30
 3489 0265 0A       		.uleb128 0xa
 3490 0266 00       		.byte	0
 3491 0267 03       		.uleb128 0x3
 3492 0268 0E       		.uleb128 0xe
 3493 0269 3A       		.uleb128 0x3a
 3494 026a 0B       		.uleb128 0xb
 3495 026b 3B       		.uleb128 0x3b
 3496 026c 0B       		.uleb128 0xb
 3497 026d 11       		.uleb128 0x11
 3498 026e 01       		.uleb128 0x1
 3499 026f 00       		.byte	0
 3500 0270 00       		.byte	0
 3501 0271 31       		.uleb128 0x31
 3502 0272 34       		.uleb128 0x34
 3503 0273 00       		.byte	0
 3504 0274 31       		.uleb128 0x31
 3505 0275 13       		.uleb128 0x13
 3506 0276 02       		.uleb128 0x2
 3507 0277 18       		.uleb128 0x18
 3508 0278 00       		.byte	0
 3509 0279 00       		.byte	0
 3510 027a 32       		.uleb128 0x32
 3511 027b 0B       		.uleb128 0xb
 3512 027c 01       		.byte	0x1
 3513 027d 11       		.uleb128 0x11
 3514 027e 01       		.uleb128 0x1
 3515 027f 12       		.uleb128 0x12
 3516 0280 06       		.uleb128 0x6
 3517 0281 01       		.uleb128 0x1
 3518 0282 13       		.uleb128 0x13
 3519 0283 00       		.byte	0
 3520 0284 00       		.byte	0
 3521 0285 33       		.uleb128 0x33
 3522 0286 898201   		.uleb128 0x4109
 3523 0289 01       		.byte	0x1
 3524 028a 11       		.uleb128 0x11
 3525 028b 01       		.uleb128 0x1
 3526 028c 31       		.uleb128 0x31
 3527 028d 13       		.uleb128 0x13
 3528 028e 01       		.uleb128 0x1
 3529 028f 13       		.uleb128 0x13
 3530 0290 00       		.byte	0
 3531 0291 00       		.byte	0
 3532 0292 34       		.uleb128 0x34
 3533 0293 34       		.uleb128 0x34
 3534 0294 00       		.byte	0
 3535 0295 03       		.uleb128 0x3
 3536 0296 0E       		.uleb128 0xe
 3537 0297 3A       		.uleb128 0x3a
 3538 0298 0B       		.uleb128 0xb
 3539 0299 3B       		.uleb128 0x3b
 3540 029a 0B       		.uleb128 0xb
 3541 029b 49       		.uleb128 0x49
 3542 029c 13       		.uleb128 0x13
 3543 029d 02       		.uleb128 0x2
ARM GAS  C:\Users\164\AppData\Local\Temp\ccwvZXmi.s 			page 74


 3544 029e 18       		.uleb128 0x18
 3545 029f 00       		.byte	0
 3546 02a0 00       		.byte	0
 3547 02a1 35       		.uleb128 0x35
 3548 02a2 34       		.uleb128 0x34
 3549 02a3 00       		.byte	0
 3550 02a4 03       		.uleb128 0x3
 3551 02a5 0E       		.uleb128 0xe
 3552 02a6 3A       		.uleb128 0x3a
 3553 02a7 0B       		.uleb128 0xb
 3554 02a8 3B       		.uleb128 0x3b
 3555 02a9 05       		.uleb128 0x5
 3556 02aa 49       		.uleb128 0x49
 3557 02ab 13       		.uleb128 0x13
 3558 02ac 3F       		.uleb128 0x3f
 3559 02ad 19       		.uleb128 0x19
 3560 02ae 3C       		.uleb128 0x3c
 3561 02af 19       		.uleb128 0x19
 3562 02b0 00       		.byte	0
 3563 02b1 00       		.byte	0
 3564 02b2 36       		.uleb128 0x36
 3565 02b3 34       		.uleb128 0x34
 3566 02b4 00       		.byte	0
 3567 02b5 03       		.uleb128 0x3
 3568 02b6 0E       		.uleb128 0xe
 3569 02b7 3A       		.uleb128 0x3a
 3570 02b8 0B       		.uleb128 0xb
 3571 02b9 3B       		.uleb128 0x3b
 3572 02ba 0B       		.uleb128 0xb
 3573 02bb 49       		.uleb128 0x49
 3574 02bc 13       		.uleb128 0x13
 3575 02bd 3F       		.uleb128 0x3f
 3576 02be 19       		.uleb128 0x19
 3577 02bf 3C       		.uleb128 0x3c
 3578 02c0 19       		.uleb128 0x19
 3579 02c1 00       		.byte	0
 3580 02c2 00       		.byte	0
 3581 02c3 37       		.uleb128 0x37
 3582 02c4 34       		.uleb128 0x34
 3583 02c5 00       		.byte	0
 3584 02c6 03       		.uleb128 0x3
 3585 02c7 08       		.uleb128 0x8
 3586 02c8 3A       		.uleb128 0x3a
 3587 02c9 0B       		.uleb128 0xb
 3588 02ca 3B       		.uleb128 0x3b
 3589 02cb 0B       		.uleb128 0xb
 3590 02cc 49       		.uleb128 0x49
 3591 02cd 13       		.uleb128 0x13
 3592 02ce 3F       		.uleb128 0x3f
 3593 02cf 19       		.uleb128 0x19
 3594 02d0 02       		.uleb128 0x2
 3595 02d1 18       		.uleb128 0x18
 3596 02d2 00       		.byte	0
 3597 02d3 00       		.byte	0
 3598 02d4 38       		.uleb128 0x38
 3599 02d5 2E       		.uleb128 0x2e
 3600 02d6 00       		.byte	0
ARM GAS  C:\Users\164\AppData\Local\Temp\ccwvZXmi.s 			page 75


 3601 02d7 3F       		.uleb128 0x3f
 3602 02d8 19       		.uleb128 0x19
 3603 02d9 3C       		.uleb128 0x3c
 3604 02da 19       		.uleb128 0x19
 3605 02db 6E       		.uleb128 0x6e
 3606 02dc 0E       		.uleb128 0xe
 3607 02dd 03       		.uleb128 0x3
 3608 02de 0E       		.uleb128 0xe
 3609 02df 3A       		.uleb128 0x3a
 3610 02e0 0B       		.uleb128 0xb
 3611 02e1 3B       		.uleb128 0x3b
 3612 02e2 0B       		.uleb128 0xb
 3613 02e3 00       		.byte	0
 3614 02e4 00       		.byte	0
 3615 02e5 00       		.byte	0
 3616              		.section	.debug_loc,"",%progbits
 3617              	.Ldebug_loc0:
 3618              	.LLST0:
 3619 0000 00000000 		.4byte	.LVL2
 3620 0004 06000000 		.4byte	.LVL4
 3621 0008 0100     		.2byte	0x1
 3622 000a 50       		.byte	0x50
 3623 000b 06000000 		.4byte	.LVL4
 3624 000f 0C000000 		.4byte	.LFE84
 3625 0013 0400     		.2byte	0x4
 3626 0015 F3       		.byte	0xf3
 3627 0016 01       		.uleb128 0x1
 3628 0017 50       		.byte	0x50
 3629 0018 9F       		.byte	0x9f
 3630 0019 00000000 		.4byte	0
 3631 001d 00000000 		.4byte	0
 3632              	.LLST1:
 3633 0021 00000000 		.4byte	.LVL2
 3634 0025 09000000 		.4byte	.LVL5-1
 3635 0029 0100     		.2byte	0x1
 3636 002b 51       		.byte	0x51
 3637 002c 09000000 		.4byte	.LVL5-1
 3638 0030 0C000000 		.4byte	.LFE84
 3639 0034 0400     		.2byte	0x4
 3640 0036 F3       		.byte	0xf3
 3641 0037 01       		.uleb128 0x1
 3642 0038 51       		.byte	0x51
 3643 0039 9F       		.byte	0x9f
 3644 003a 00000000 		.4byte	0
 3645 003e 00000000 		.4byte	0
 3646              	.LLST2:
 3647 0042 00000000 		.4byte	.LVL2
 3648 0046 09000000 		.4byte	.LVL5-1
 3649 004a 0100     		.2byte	0x1
 3650 004c 52       		.byte	0x52
 3651 004d 09000000 		.4byte	.LVL5-1
 3652 0051 0C000000 		.4byte	.LFE84
 3653 0055 0400     		.2byte	0x4
 3654 0057 F3       		.byte	0xf3
 3655 0058 01       		.uleb128 0x1
 3656 0059 52       		.byte	0x52
 3657 005a 9F       		.byte	0x9f
ARM GAS  C:\Users\164\AppData\Local\Temp\ccwvZXmi.s 			page 76


 3658 005b 00000000 		.4byte	0
 3659 005f 00000000 		.4byte	0
 3660              	.LLST3:
 3661 0063 04000000 		.4byte	.LVL3
 3662 0067 09000000 		.4byte	.LVL5-1
 3663 006b 0200     		.2byte	0x2
 3664 006d 73       		.byte	0x73
 3665 006e 0C       		.sleb128 12
 3666 006f 00000000 		.4byte	0
 3667 0073 00000000 		.4byte	0
 3668              	.LLST4:
 3669 0077 00000000 		.4byte	.LVL6
 3670 007b 06000000 		.4byte	.LVL8
 3671 007f 0100     		.2byte	0x1
 3672 0081 50       		.byte	0x50
 3673 0082 06000000 		.4byte	.LVL8
 3674 0086 0C000000 		.4byte	.LFE83
 3675 008a 0400     		.2byte	0x4
 3676 008c F3       		.byte	0xf3
 3677 008d 01       		.uleb128 0x1
 3678 008e 50       		.byte	0x50
 3679 008f 9F       		.byte	0x9f
 3680 0090 00000000 		.4byte	0
 3681 0094 00000000 		.4byte	0
 3682              	.LLST5:
 3683 0098 00000000 		.4byte	.LVL6
 3684 009c 09000000 		.4byte	.LVL9-1
 3685 00a0 0100     		.2byte	0x1
 3686 00a2 51       		.byte	0x51
 3687 00a3 09000000 		.4byte	.LVL9-1
 3688 00a7 0C000000 		.4byte	.LFE83
 3689 00ab 0400     		.2byte	0x4
 3690 00ad F3       		.byte	0xf3
 3691 00ae 01       		.uleb128 0x1
 3692 00af 51       		.byte	0x51
 3693 00b0 9F       		.byte	0x9f
 3694 00b1 00000000 		.4byte	0
 3695 00b5 00000000 		.4byte	0
 3696              	.LLST6:
 3697 00b9 00000000 		.4byte	.LVL6
 3698 00bd 09000000 		.4byte	.LVL9-1
 3699 00c1 0100     		.2byte	0x1
 3700 00c3 52       		.byte	0x52
 3701 00c4 09000000 		.4byte	.LVL9-1
 3702 00c8 0C000000 		.4byte	.LFE83
 3703 00cc 0400     		.2byte	0x4
 3704 00ce F3       		.byte	0xf3
 3705 00cf 01       		.uleb128 0x1
 3706 00d0 52       		.byte	0x52
 3707 00d1 9F       		.byte	0x9f
 3708 00d2 00000000 		.4byte	0
 3709 00d6 00000000 		.4byte	0
 3710              	.LLST7:
 3711 00da 04000000 		.4byte	.LVL7
 3712 00de 09000000 		.4byte	.LVL9-1
 3713 00e2 0200     		.2byte	0x2
 3714 00e4 73       		.byte	0x73
ARM GAS  C:\Users\164\AppData\Local\Temp\ccwvZXmi.s 			page 77


 3715 00e5 0C       		.sleb128 12
 3716 00e6 00000000 		.4byte	0
 3717 00ea 00000000 		.4byte	0
 3718              	.LLST8:
 3719 00ee 00000000 		.4byte	.LVL10
 3720 00f2 1A000000 		.4byte	.LVL18
 3721 00f6 0100     		.2byte	0x1
 3722 00f8 50       		.byte	0x50
 3723 00f9 1A000000 		.4byte	.LVL18
 3724 00fd 20000000 		.4byte	.LFE82
 3725 0101 0400     		.2byte	0x4
 3726 0103 F3       		.byte	0xf3
 3727 0104 01       		.uleb128 0x1
 3728 0105 50       		.byte	0x50
 3729 0106 9F       		.byte	0x9f
 3730 0107 00000000 		.4byte	0
 3731 010b 00000000 		.4byte	0
 3732              	.LLST9:
 3733 010f 00000000 		.4byte	.LVL10
 3734 0113 18000000 		.4byte	.LVL17
 3735 0117 0100     		.2byte	0x1
 3736 0119 51       		.byte	0x51
 3737 011a 18000000 		.4byte	.LVL17
 3738 011e 20000000 		.4byte	.LFE82
 3739 0122 0400     		.2byte	0x4
 3740 0124 F3       		.byte	0xf3
 3741 0125 01       		.uleb128 0x1
 3742 0126 51       		.byte	0x51
 3743 0127 9F       		.byte	0x9f
 3744 0128 00000000 		.4byte	0
 3745 012c 00000000 		.4byte	0
 3746              	.LLST10:
 3747 0130 00000000 		.4byte	.LVL10
 3748 0134 0E000000 		.4byte	.LVL13
 3749 0138 0100     		.2byte	0x1
 3750 013a 52       		.byte	0x52
 3751 013b 0E000000 		.4byte	.LVL13
 3752 013f 10000000 		.4byte	.LVL14
 3753 0143 0400     		.2byte	0x4
 3754 0145 F3       		.byte	0xf3
 3755 0146 01       		.uleb128 0x1
 3756 0147 52       		.byte	0x52
 3757 0148 9F       		.byte	0x9f
 3758 0149 10000000 		.4byte	.LVL14
 3759 014d 12000000 		.4byte	.LVL15
 3760 0151 0100     		.2byte	0x1
 3761 0153 52       		.byte	0x52
 3762 0154 12000000 		.4byte	.LVL15
 3763 0158 20000000 		.4byte	.LFE82
 3764 015c 0400     		.2byte	0x4
 3765 015e F3       		.byte	0xf3
 3766 015f 01       		.uleb128 0x1
 3767 0160 52       		.byte	0x52
 3768 0161 9F       		.byte	0x9f
 3769 0162 00000000 		.4byte	0
 3770 0166 00000000 		.4byte	0
 3771              	.LLST11:
ARM GAS  C:\Users\164\AppData\Local\Temp\ccwvZXmi.s 			page 78


 3772 016a 02000000 		.4byte	.LVL11
 3773 016e 0E000000 		.4byte	.LVL13
 3774 0172 0200     		.2byte	0x2
 3775 0174 30       		.byte	0x30
 3776 0175 9F       		.byte	0x9f
 3777 0176 10000000 		.4byte	.LVL14
 3778 017a 12000000 		.4byte	.LVL15
 3779 017e 0200     		.2byte	0x2
 3780 0180 30       		.byte	0x30
 3781 0181 9F       		.byte	0x9f
 3782 0182 12000000 		.4byte	.LVL15
 3783 0186 1D000000 		.4byte	.LVL19-1
 3784 018a 0100     		.2byte	0x1
 3785 018c 52       		.byte	0x52
 3786 018d 00000000 		.4byte	0
 3787 0191 00000000 		.4byte	0
 3788              	.LLST12:
 3789 0195 0A000000 		.4byte	.LVL12
 3790 0199 0E000000 		.4byte	.LVL13
 3791 019d 0300     		.2byte	0x3
 3792 019f 71       		.byte	0x71
 3793 01a0 10       		.sleb128 16
 3794 01a1 9F       		.byte	0x9f
 3795 01a2 00000000 		.4byte	0
 3796 01a6 00000000 		.4byte	0
 3797              	.LLST13:
 3798 01aa 16000000 		.4byte	.LVL16
 3799 01ae 1D000000 		.4byte	.LVL19-1
 3800 01b2 0200     		.2byte	0x2
 3801 01b4 73       		.byte	0x73
 3802 01b5 0C       		.sleb128 12
 3803 01b6 00000000 		.4byte	0
 3804 01ba 00000000 		.4byte	0
 3805              	.LLST14:
 3806 01be 00000000 		.4byte	.LVL20
 3807 01c2 10000000 		.4byte	.LVL22
 3808 01c6 0100     		.2byte	0x1
 3809 01c8 50       		.byte	0x50
 3810 01c9 10000000 		.4byte	.LVL22
 3811 01cd 92000000 		.4byte	.LFE81
 3812 01d1 0100     		.2byte	0x1
 3813 01d3 56       		.byte	0x56
 3814 01d4 00000000 		.4byte	0
 3815 01d8 00000000 		.4byte	0
 3816              	.LLST15:
 3817 01dc 00000000 		.4byte	.LVL20
 3818 01e0 13000000 		.4byte	.LVL23-1
 3819 01e4 0100     		.2byte	0x1
 3820 01e6 51       		.byte	0x51
 3821 01e7 13000000 		.4byte	.LVL23-1
 3822 01eb 92000000 		.4byte	.LFE81
 3823 01ef 0100     		.2byte	0x1
 3824 01f1 55       		.byte	0x55
 3825 01f2 00000000 		.4byte	0
 3826 01f6 00000000 		.4byte	0
 3827              	.LLST16:
 3828 01fa 00000000 		.4byte	.LVL20
ARM GAS  C:\Users\164\AppData\Local\Temp\ccwvZXmi.s 			page 79


 3829 01fe 13000000 		.4byte	.LVL23-1
 3830 0202 0100     		.2byte	0x1
 3831 0204 52       		.byte	0x52
 3832 0205 13000000 		.4byte	.LVL23-1
 3833 0209 92000000 		.4byte	.LFE81
 3834 020d 0400     		.2byte	0x4
 3835 020f F3       		.byte	0xf3
 3836 0210 01       		.uleb128 0x1
 3837 0211 52       		.byte	0x52
 3838 0212 9F       		.byte	0x9f
 3839 0213 00000000 		.4byte	0
 3840 0217 00000000 		.4byte	0
 3841              	.LLST17:
 3842 021b 0E000000 		.4byte	.LVL21
 3843 021f 2C000000 		.4byte	.LVL24
 3844 0223 0100     		.2byte	0x1
 3845 0225 54       		.byte	0x54
 3846 0226 32000000 		.4byte	.LVL25
 3847 022a 6E000000 		.4byte	.LVL36
 3848 022e 0100     		.2byte	0x1
 3849 0230 54       		.byte	0x54
 3850 0231 00000000 		.4byte	0
 3851 0235 00000000 		.4byte	0
 3852              	.LLST18:
 3853 0239 3C000000 		.4byte	.LVL27
 3854 023d 52000000 		.4byte	.LVL32
 3855 0241 0100     		.2byte	0x1
 3856 0243 58       		.byte	0x58
 3857 0244 52000000 		.4byte	.LVL32
 3858 0248 58000000 		.4byte	.LVL33
 3859 024c 0100     		.2byte	0x1
 3860 024e 50       		.byte	0x50
 3861 024f 58000000 		.4byte	.LVL33
 3862 0253 5B000000 		.4byte	.LVL34-1
 3863 0257 0100     		.2byte	0x1
 3864 0259 52       		.byte	0x52
 3865 025a 5B000000 		.4byte	.LVL34-1
 3866 025e 72000000 		.4byte	.LVL37
 3867 0262 0100     		.2byte	0x1
 3868 0264 58       		.byte	0x58
 3869 0265 00000000 		.4byte	0
 3870 0269 00000000 		.4byte	0
 3871              	.LLST19:
 3872 026d 46000000 		.4byte	.LVL29
 3873 0271 4C000000 		.4byte	.LVL30
 3874 0275 0100     		.2byte	0x1
 3875 0277 50       		.byte	0x50
 3876 0278 4C000000 		.4byte	.LVL30
 3877 027c 4F000000 		.4byte	.LVL31-1
 3878 0280 0100     		.2byte	0x1
 3879 0282 51       		.byte	0x51
 3880 0283 4F000000 		.4byte	.LVL31-1
 3881 0287 72000000 		.4byte	.LVL37
 3882 028b 0100     		.2byte	0x1
 3883 028d 57       		.byte	0x57
 3884 028e 00000000 		.4byte	0
 3885 0292 00000000 		.4byte	0
ARM GAS  C:\Users\164\AppData\Local\Temp\ccwvZXmi.s 			page 80


 3886              	.LLST20:
 3887 0296 00000000 		.4byte	.LVL39
 3888 029a 08000000 		.4byte	.LVL40
 3889 029e 0100     		.2byte	0x1
 3890 02a0 50       		.byte	0x50
 3891 02a1 08000000 		.4byte	.LVL40
 3892 02a5 36000000 		.4byte	.LFE80
 3893 02a9 0400     		.2byte	0x4
 3894 02ab F3       		.byte	0xf3
 3895 02ac 01       		.uleb128 0x1
 3896 02ad 50       		.byte	0x50
 3897 02ae 9F       		.byte	0x9f
 3898 02af 00000000 		.4byte	0
 3899 02b3 00000000 		.4byte	0
 3900              	.LLST21:
 3901 02b7 00000000 		.4byte	.LVL39
 3902 02bb 16000000 		.4byte	.LVL44
 3903 02bf 0100     		.2byte	0x1
 3904 02c1 51       		.byte	0x51
 3905 02c2 16000000 		.4byte	.LVL44
 3906 02c6 2A000000 		.4byte	.LVL49
 3907 02ca 0100     		.2byte	0x1
 3908 02cc 54       		.byte	0x54
 3909 02cd 2A000000 		.4byte	.LVL49
 3910 02d1 2F000000 		.4byte	.LVL51-1
 3911 02d5 0100     		.2byte	0x1
 3912 02d7 51       		.byte	0x51
 3913 02d8 2F000000 		.4byte	.LVL51-1
 3914 02dc 36000000 		.4byte	.LFE80
 3915 02e0 0100     		.2byte	0x1
 3916 02e2 54       		.byte	0x54
 3917 02e3 00000000 		.4byte	0
 3918 02e7 00000000 		.4byte	0
 3919              	.LLST22:
 3920 02eb 00000000 		.4byte	.LVL39
 3921 02ef 14000000 		.4byte	.LVL43
 3922 02f3 0100     		.2byte	0x1
 3923 02f5 52       		.byte	0x52
 3924 02f6 14000000 		.4byte	.LVL43
 3925 02fa 2A000000 		.4byte	.LVL49
 3926 02fe 0400     		.2byte	0x4
 3927 0300 F3       		.byte	0xf3
 3928 0301 01       		.uleb128 0x1
 3929 0302 52       		.byte	0x52
 3930 0303 9F       		.byte	0x9f
 3931 0304 2A000000 		.4byte	.LVL49
 3932 0308 2F000000 		.4byte	.LVL51-1
 3933 030c 0100     		.2byte	0x1
 3934 030e 52       		.byte	0x52
 3935 030f 2F000000 		.4byte	.LVL51-1
 3936 0313 36000000 		.4byte	.LFE80
 3937 0317 0400     		.2byte	0x4
 3938 0319 F3       		.byte	0xf3
 3939 031a 01       		.uleb128 0x1
 3940 031b 52       		.byte	0x52
 3941 031c 9F       		.byte	0x9f
 3942 031d 00000000 		.4byte	0
ARM GAS  C:\Users\164\AppData\Local\Temp\ccwvZXmi.s 			page 81


 3943 0321 00000000 		.4byte	0
 3944              	.LLST23:
 3945 0325 08000000 		.4byte	.LVL40
 3946 0329 19000000 		.4byte	.LVL45-1
 3947 032d 0100     		.2byte	0x1
 3948 032f 50       		.byte	0x50
 3949 0330 2A000000 		.4byte	.LVL49
 3950 0334 2C000000 		.4byte	.LVL50
 3951 0338 0100     		.2byte	0x1
 3952 033a 50       		.byte	0x50
 3953 033b 2C000000 		.4byte	.LVL50
 3954 033f 2F000000 		.4byte	.LVL51-1
 3955 0343 0500     		.2byte	0x5
 3956 0345 71       		.byte	0x71
 3957 0346 08       		.sleb128 8
 3958 0347 06       		.byte	0x6
 3959 0348 23       		.byte	0x23
 3960 0349 0C       		.uleb128 0xc
 3961 034a 00000000 		.4byte	0
 3962 034e 00000000 		.4byte	0
 3963              	.LLST24:
 3964 0352 1C000000 		.4byte	.LVL46
 3965 0356 1E000000 		.4byte	.LVL47
 3966 035a 0100     		.2byte	0x1
 3967 035c 50       		.byte	0x50
 3968 035d 1E000000 		.4byte	.LVL47
 3969 0361 2A000000 		.4byte	.LVL49
 3970 0365 0100     		.2byte	0x1
 3971 0367 55       		.byte	0x55
 3972 0368 00000000 		.4byte	0
 3973 036c 00000000 		.4byte	0
 3974              	.LLST25:
 3975 0370 10000000 		.4byte	.LVL41
 3976 0374 12000000 		.4byte	.LVL42
 3977 0378 0300     		.2byte	0x3
 3978 037a 71       		.byte	0x71
 3979 037b 10       		.sleb128 16
 3980 037c 9F       		.byte	0x9f
 3981 037d 00000000 		.4byte	0
 3982 0381 00000000 		.4byte	0
 3983              	.LLST27:
 3984 0385 00000000 		.4byte	.LVL52
 3985 0389 12000000 		.4byte	.LVL55
 3986 038d 0100     		.2byte	0x1
 3987 038f 50       		.byte	0x50
 3988 0390 12000000 		.4byte	.LVL55
 3989 0394 80000000 		.4byte	.LFE79
 3990 0398 0100     		.2byte	0x1
 3991 039a 57       		.byte	0x57
 3992 039b 00000000 		.4byte	0
 3993 039f 00000000 		.4byte	0
 3994              	.LLST28:
 3995 03a3 00000000 		.4byte	.LVL52
 3996 03a7 15000000 		.4byte	.LVL56-1
 3997 03ab 0100     		.2byte	0x1
 3998 03ad 51       		.byte	0x51
 3999 03ae 15000000 		.4byte	.LVL56-1
ARM GAS  C:\Users\164\AppData\Local\Temp\ccwvZXmi.s 			page 82


 4000 03b2 80000000 		.4byte	.LFE79
 4001 03b6 0100     		.2byte	0x1
 4002 03b8 55       		.byte	0x55
 4003 03b9 00000000 		.4byte	0
 4004 03bd 00000000 		.4byte	0
 4005              	.LLST29:
 4006 03c1 00000000 		.4byte	.LVL52
 4007 03c5 15000000 		.4byte	.LVL56-1
 4008 03c9 0100     		.2byte	0x1
 4009 03cb 52       		.byte	0x52
 4010 03cc 15000000 		.4byte	.LVL56-1
 4011 03d0 80000000 		.4byte	.LFE79
 4012 03d4 0400     		.2byte	0x4
 4013 03d6 F3       		.byte	0xf3
 4014 03d7 01       		.uleb128 0x1
 4015 03d8 52       		.byte	0x52
 4016 03d9 9F       		.byte	0x9f
 4017 03da 00000000 		.4byte	0
 4018 03de 00000000 		.4byte	0
 4019              	.LLST30:
 4020 03e2 10000000 		.4byte	.LVL54
 4021 03e6 30000000 		.4byte	.LVL57
 4022 03ea 0100     		.2byte	0x1
 4023 03ec 54       		.byte	0x54
 4024 03ed 36000000 		.4byte	.LVL58
 4025 03f1 5C000000 		.4byte	.LVL64
 4026 03f5 0100     		.2byte	0x1
 4027 03f7 54       		.byte	0x54
 4028 03f8 00000000 		.4byte	0
 4029 03fc 00000000 		.4byte	0
 4030              	.LLST31:
 4031 0400 40000000 		.4byte	.LVL60
 4032 0404 46000000 		.4byte	.LVL61
 4033 0408 0100     		.2byte	0x1
 4034 040a 50       		.byte	0x50
 4035 040b 46000000 		.4byte	.LVL61
 4036 040f 49000000 		.4byte	.LVL62-1
 4037 0413 0100     		.2byte	0x1
 4038 0415 51       		.byte	0x51
 4039 0416 49000000 		.4byte	.LVL62-1
 4040 041a 60000000 		.4byte	.LVL65
 4041 041e 0100     		.2byte	0x1
 4042 0420 58       		.byte	0x58
 4043 0421 00000000 		.4byte	0
 4044 0425 00000000 		.4byte	0
 4045              	.LLST32:
 4046 0429 00000000 		.4byte	.LVL67
 4047 042d 24000000 		.4byte	.LVL69
 4048 0431 0100     		.2byte	0x1
 4049 0433 50       		.byte	0x50
 4050 0434 24000000 		.4byte	.LVL69
 4051 0438 2E000000 		.4byte	.LVL70
 4052 043c 0400     		.2byte	0x4
 4053 043e F3       		.byte	0xf3
 4054 043f 01       		.uleb128 0x1
 4055 0440 50       		.byte	0x50
 4056 0441 9F       		.byte	0x9f
ARM GAS  C:\Users\164\AppData\Local\Temp\ccwvZXmi.s 			page 83


 4057 0442 2E000000 		.4byte	.LVL70
 4058 0446 36000000 		.4byte	.LVL73
 4059 044a 0100     		.2byte	0x1
 4060 044c 50       		.byte	0x50
 4061 044d 36000000 		.4byte	.LVL73
 4062 0451 39000000 		.4byte	.LVL74-1
 4063 0455 0100     		.2byte	0x1
 4064 0457 51       		.byte	0x51
 4065 0458 39000000 		.4byte	.LVL74-1
 4066 045c 60000000 		.4byte	.LFE78
 4067 0460 0400     		.2byte	0x4
 4068 0462 F3       		.byte	0xf3
 4069 0463 01       		.uleb128 0x1
 4070 0464 50       		.byte	0x50
 4071 0465 9F       		.byte	0x9f
 4072 0466 00000000 		.4byte	0
 4073 046a 00000000 		.4byte	0
 4074              	.LLST33:
 4075 046e 00000000 		.4byte	.LVL67
 4076 0472 24000000 		.4byte	.LVL69
 4077 0476 0100     		.2byte	0x1
 4078 0478 51       		.byte	0x51
 4079 0479 24000000 		.4byte	.LVL69
 4080 047d 2E000000 		.4byte	.LVL70
 4081 0481 0100     		.2byte	0x1
 4082 0483 55       		.byte	0x55
 4083 0484 2E000000 		.4byte	.LVL70
 4084 0488 30000000 		.4byte	.LVL71
 4085 048c 0100     		.2byte	0x1
 4086 048e 51       		.byte	0x51
 4087 048f 30000000 		.4byte	.LVL71
 4088 0493 58000000 		.4byte	.LVL75
 4089 0497 0100     		.2byte	0x1
 4090 0499 55       		.byte	0x55
 4091 049a 58000000 		.4byte	.LVL75
 4092 049e 60000000 		.4byte	.LFE78
 4093 04a2 0400     		.2byte	0x4
 4094 04a4 F3       		.byte	0xf3
 4095 04a5 01       		.uleb128 0x1
 4096 04a6 51       		.byte	0x51
 4097 04a7 9F       		.byte	0x9f
 4098 04a8 00000000 		.4byte	0
 4099 04ac 00000000 		.4byte	0
 4100              	.LLST34:
 4101 04b0 00000000 		.4byte	.LVL67
 4102 04b4 12000000 		.4byte	.LVL68
 4103 04b8 0100     		.2byte	0x1
 4104 04ba 52       		.byte	0x52
 4105 04bb 12000000 		.4byte	.LVL68
 4106 04bf 2E000000 		.4byte	.LVL70
 4107 04c3 0400     		.2byte	0x4
 4108 04c5 F3       		.byte	0xf3
 4109 04c6 01       		.uleb128 0x1
 4110 04c7 52       		.byte	0x52
 4111 04c8 9F       		.byte	0x9f
 4112 04c9 2E000000 		.4byte	.LVL70
 4113 04cd 34000000 		.4byte	.LVL72
ARM GAS  C:\Users\164\AppData\Local\Temp\ccwvZXmi.s 			page 84


 4114 04d1 0100     		.2byte	0x1
 4115 04d3 52       		.byte	0x52
 4116 04d4 34000000 		.4byte	.LVL72
 4117 04d8 60000000 		.4byte	.LFE78
 4118 04dc 0400     		.2byte	0x4
 4119 04de F3       		.byte	0xf3
 4120 04df 01       		.uleb128 0x1
 4121 04e0 52       		.byte	0x52
 4122 04e1 9F       		.byte	0x9f
 4123 04e2 00000000 		.4byte	0
 4124 04e6 00000000 		.4byte	0
 4125              	.LLST35:
 4126 04ea 00000000 		.4byte	.LVL76
 4127 04ee 28000000 		.4byte	.LVL77
 4128 04f2 0100     		.2byte	0x1
 4129 04f4 50       		.byte	0x50
 4130 04f5 28000000 		.4byte	.LVL77
 4131 04f9 0C010000 		.4byte	.LFE85
 4132 04fd 0400     		.2byte	0x4
 4133 04ff F3       		.byte	0xf3
 4134 0500 01       		.uleb128 0x1
 4135 0501 50       		.byte	0x50
 4136 0502 9F       		.byte	0x9f
 4137 0503 00000000 		.4byte	0
 4138 0507 00000000 		.4byte	0
 4139              	.LLST36:
 4140 050b 46000000 		.4byte	.LVL82
 4141 050f 4E000000 		.4byte	.LVL83
 4142 0513 0100     		.2byte	0x1
 4143 0515 50       		.byte	0x50
 4144 0516 4E000000 		.4byte	.LVL83
 4145 051a 51000000 		.4byte	.LVL84-1
 4146 051e 0100     		.2byte	0x1
 4147 0520 51       		.byte	0x51
 4148 0521 51000000 		.4byte	.LVL84-1
 4149 0525 9E000000 		.4byte	.LVL91
 4150 0529 0100     		.2byte	0x1
 4151 052b 54       		.byte	0x54
 4152 052c 00000000 		.4byte	0
 4153 0530 00000000 		.4byte	0
 4154              		.section	.debug_aranges,"",%progbits
 4155 0000 64000000 		.4byte	0x64
 4156 0004 0200     		.2byte	0x2
 4157 0006 00000000 		.4byte	.Ldebug_info0
 4158 000a 04       		.byte	0x4
 4159 000b 00       		.byte	0
 4160 000c 0000     		.2byte	0
 4161 000e 0000     		.2byte	0
 4162 0010 00000000 		.4byte	.LFB76
 4163 0014 10000000 		.4byte	.LFE76-.LFB76
 4164 0018 00000000 		.4byte	.LFB77
 4165 001c 10000000 		.4byte	.LFE77-.LFB77
 4166 0020 00000000 		.4byte	.LFB84
 4167 0024 0C000000 		.4byte	.LFE84-.LFB84
 4168 0028 00000000 		.4byte	.LFB83
 4169 002c 0C000000 		.4byte	.LFE83-.LFB83
 4170 0030 00000000 		.4byte	.LFB82
ARM GAS  C:\Users\164\AppData\Local\Temp\ccwvZXmi.s 			page 85


 4171 0034 20000000 		.4byte	.LFE82-.LFB82
 4172 0038 00000000 		.4byte	.LFB81
 4173 003c 92000000 		.4byte	.LFE81-.LFB81
 4174 0040 00000000 		.4byte	.LFB80
 4175 0044 36000000 		.4byte	.LFE80-.LFB80
 4176 0048 00000000 		.4byte	.LFB79
 4177 004c 80000000 		.4byte	.LFE79-.LFB79
 4178 0050 00000000 		.4byte	.LFB78
 4179 0054 60000000 		.4byte	.LFE78-.LFB78
 4180 0058 00000000 		.4byte	.LFB85
 4181 005c 0C010000 		.4byte	.LFE85-.LFB85
 4182 0060 00000000 		.4byte	0
 4183 0064 00000000 		.4byte	0
 4184              		.section	.debug_ranges,"",%progbits
 4185              	.Ldebug_ranges0:
 4186 0000 00000000 		.4byte	.LFB76
 4187 0004 10000000 		.4byte	.LFE76
 4188 0008 00000000 		.4byte	.LFB77
 4189 000c 10000000 		.4byte	.LFE77
 4190 0010 00000000 		.4byte	.LFB84
 4191 0014 0C000000 		.4byte	.LFE84
 4192 0018 00000000 		.4byte	.LFB83
 4193 001c 0C000000 		.4byte	.LFE83
 4194 0020 00000000 		.4byte	.LFB82
 4195 0024 20000000 		.4byte	.LFE82
 4196 0028 00000000 		.4byte	.LFB81
 4197 002c 92000000 		.4byte	.LFE81
 4198 0030 00000000 		.4byte	.LFB80
 4199 0034 36000000 		.4byte	.LFE80
 4200 0038 00000000 		.4byte	.LFB79
 4201 003c 80000000 		.4byte	.LFE79
 4202 0040 00000000 		.4byte	.LFB78
 4203 0044 60000000 		.4byte	.LFE78
 4204 0048 00000000 		.4byte	.LFB85
 4205 004c 0C010000 		.4byte	.LFE85
 4206 0050 00000000 		.4byte	0
 4207 0054 00000000 		.4byte	0
 4208              		.section	.debug_line,"",%progbits
 4209              	.Ldebug_line0:
 4210 0000 D4020000 		.section	.debug_str,"MS",%progbits,1
 4210      0200C201 
 4210      00000201 
 4210      FB0E0D00 
 4210      01010101 
 4211              	.LASF158:
 4212 0000 6973725F 		.ascii	"isr_UART_1_Rx_StartEx\000"
 4212      55415254 
 4212      5F315F52 
 4212      785F5374 
 4212      61727445 
 4213              	.LASF114:
 4214 0016 53746172 		.ascii	"Start\000"
 4214      7400
 4215              	.LASF153:
 4216 001c 75617274 		.ascii	"uart_write\000"
 4216      5F777269 
 4216      746500
ARM GAS  C:\Users\164\AppData\Local\Temp\ccwvZXmi.s 			page 86


 4217              	.LASF148:
 4218 0027 75617274 		.ascii	"uart_bytes_available\000"
 4218      5F627974 
 4218      65735F61 
 4218      7661696C 
 4218      61626C65 
 4219              	.LASF138:
 4220 003c 75617274 		.ascii	"uart\000"
 4220      00
 4221              	.LASF78:
 4222 0041 52486173 		.ascii	"RHash\000"
 4222      6800
 4223              	.LASF28:
 4224 0047 6D726263 		.ascii	"mrbc_func_t\000"
 4224      5F66756E 
 4224      635F7400 
 4225              	.LASF46:
 4226 0053 4D524243 		.ascii	"MRBC_TT_FLOAT\000"
 4226      5F54545F 
 4226      464C4F41 
 4226      5400
 4227              	.LASF68:
 4228 0061 7265665F 		.ascii	"ref_count\000"
 4228      636F756E 
 4228      7400
 4229              	.LASF140:
 4230 006b 6D726263 		.ascii	"mrbc_class_object\000"
 4230      5F636C61 
 4230      73735F6F 
 4230      626A6563 
 4230      7400
 4231              	.LASF13:
 4232 007d 756E7369 		.ascii	"unsigned int\000"
 4232      676E6564 
 4232      20696E74 
 4232      00
 4233              	.LASF73:
 4234 008a 6E657874 		.ascii	"next\000"
 4234      00
 4235              	.LASF41:
 4236 008f 4D524243 		.ascii	"MRBC_TT_EMPTY\000"
 4236      5F54545F 
 4236      454D5054 
 4236      5900
 4237              	.LASF99:
 4238 009d 6E5F6172 		.ascii	"n_args\000"
 4238      677300
 4239              	.LASF127:
 4240 00a4 61726763 		.ascii	"argc\000"
 4240      00
 4241              	.LASF82:
 4242 00a9 6D726263 		.ascii	"mrbc_class\000"
 4242      5F636C61 
 4242      737300
 4243              	.LASF8:
 4244 00b4 5F5F696E 		.ascii	"__int32_t\000"
 4244      7433325F 
ARM GAS  C:\Users\164\AppData\Local\Temp\ccwvZXmi.s 			page 87


 4244      7400
 4245              	.LASF29:
 4246 00be 69726570 		.ascii	"irep\000"
 4246      00
 4247              	.LASF84:
 4248 00c3 524B6579 		.ascii	"RKeyValueHandle\000"
 4248      56616C75 
 4248      6548616E 
 4248      646C6500 
 4249              	.LASF128:
 4250 00d3 635F7561 		.ascii	"c_uart_clear_rx_buffer\000"
 4250      72745F63 
 4250      6C656172 
 4250      5F72785F 
 4250      62756666 
 4251              	.LASF113:
 4252 00ea 52585F53 		.ascii	"RX_STS_FIFO_NOTEMPTY\000"
 4252      54535F46 
 4252      49464F5F 
 4252      4E4F5445 
 4252      4D505459 
 4253              	.LASF71:
 4254 00ff 5250726F 		.ascii	"RProc\000"
 4254      6300
 4255              	.LASF85:
 4256 0105 66756E63 		.ascii	"func\000"
 4256      00
 4257              	.LASF107:
 4258 010a 6D6F6465 		.ascii	"mode\000"
 4258      00
 4259              	.LASF98:
 4260 010f 70726576 		.ascii	"prev\000"
 4260      00
 4261              	.LASF32:
 4262 0114 72656773 		.ascii	"regs\000"
 4262      00
 4263              	.LASF119:
 4264 0119 52656164 		.ascii	"ReadTxStatus\000"
 4264      54785374 
 4264      61747573 
 4264      00
 4265              	.LASF40:
 4266 0126 4D524243 		.ascii	"MRBC_TT_HANDLE\000"
 4266      5F54545F 
 4266      48414E44 
 4266      4C4500
 4267              	.LASF93:
 4268 0135 706F6F6C 		.ascii	"pools\000"
 4268      7300
 4269              	.LASF33:
 4270 013b 63757272 		.ascii	"current_regs\000"
 4270      656E745F 
 4270      72656773 
 4270      00
 4271              	.LASF14:
 4272 0148 696E7438 		.ascii	"int8_t\000"
 4272      5F7400
ARM GAS  C:\Users\164\AppData\Local\Temp\ccwvZXmi.s 			page 88


 4273              	.LASF104:
 4274 014f 73697A65 		.ascii	"size_txbuf\000"
 4274      5F747862 
 4274      756600
 4275              	.LASF63:
 4276 015a 52436C61 		.ascii	"RClass\000"
 4276      737300
 4277              	.LASF20:
 4278 0161 666C6F61 		.ascii	"float\000"
 4278      7400
 4279              	.LASF159:
 4280 0167 6D726263 		.ascii	"mrbc_define_class\000"
 4280      5F646566 
 4280      696E655F 
 4280      636C6173 
 4280      7300
 4281              	.LASF134:
 4282 0179 6E656564 		.ascii	"need_length\000"
 4282      5F6C656E 
 4282      67746800 
 4283              	.LASF16:
 4284 0185 696E7431 		.ascii	"int16_t\000"
 4284      365F7400 
 4285              	.LASF47:
 4286 018d 4D524243 		.ascii	"MRBC_TT_SYMBOL\000"
 4286      5F54545F 
 4286      53594D42 
 4286      4F4C00
 4287              	.LASF12:
 4288 019c 6C6F6E67 		.ascii	"long long unsigned int\000"
 4288      206C6F6E 
 4288      6720756E 
 4288      7369676E 
 4288      65642069 
 4289              	.LASF25:
 4290 01b3 6D726263 		.ascii	"mrbc_int\000"
 4290      5F696E74 
 4290      00
 4291              	.LASF151:
 4292 01bc 6D726263 		.ascii	"mrbc_realloc\000"
 4292      5F726561 
 4292      6C6C6F63 
 4292      00
 4293              	.LASF136:
 4294 01c9 635F7561 		.ascii	"c_uart_new\000"
 4294      72745F6E 
 4294      657700
 4295              	.LASF122:
 4296 01d4 6D726263 		.ascii	"mrbc_string_cstr\000"
 4296      5F737472 
 4296      696E675F 
 4296      63737472 
 4296      00
 4297              	.LASF6:
 4298 01e5 5F5F7569 		.ascii	"__uint16_t\000"
 4298      6E743136 
 4298      5F7400
ARM GAS  C:\Users\164\AppData\Local\Temp\ccwvZXmi.s 			page 89


 4299              	.LASF132:
 4300 01f0 635F7561 		.ascii	"c_uart_write\000"
 4300      72745F77 
 4300      72697465 
 4300      00
 4301              	.LASF30:
 4302 01fd 766D5F69 		.ascii	"vm_id\000"
 4302      6400
 4303              	.LASF87:
 4304 0203 6E6C6F63 		.ascii	"nlocals\000"
 4304      616C7300 
 4305              	.LASF116:
 4306 020b 436C6561 		.ascii	"ClearTxBuffer\000"
 4306      72547842 
 4306      75666665 
 4306      7200
 4307              	.LASF144:
 4308 0219 75617274 		.ascii	"uart_clear_tx_buffer\000"
 4308      5F636C65 
 4308      61725F74 
 4308      785F6275 
 4308      66666572 
 4309              	.LASF55:
 4310 022e 6D726263 		.ascii	"mrbc_vtype\000"
 4310      5F767479 
 4310      706500
 4311              	.LASF57:
 4312 0239 696E7374 		.ascii	"instance\000"
 4312      616E6365 
 4312      00
 4313              	.LASF31:
 4314 0242 70635F69 		.ascii	"pc_irep\000"
 4314      72657000 
 4315              	.LASF162:
 4316 024a 635F7561 		.ascii	"c_uart.c\000"
 4316      72742E63 
 4316      00
 4317              	.LASF161:
 4318 0253 474E5520 		.ascii	"GNU C11 5.4.1 20160609 (release) [ARM/embedded-5-br"
 4318      43313120 
 4318      352E342E 
 4318      31203230 
 4318      31363036 
 4319 0286 616E6368 		.ascii	"anch revision 237715] -mcpu=cortex-m3 -mthumb -g -O"
 4319      20726576 
 4319      6973696F 
 4319      6E203233 
 4319      37373135 
 4320 02b9 67202D66 		.ascii	"g -ffunction-sections -ffat-lto-objects\000"
 4320      66756E63 
 4320      74696F6E 
 4320      2D736563 
 4320      74696F6E 
 4321              	.LASF79:
 4322 02e1 6D72625F 		.ascii	"mrb_value\000"
 4322      76616C75 
 4322      6500
ARM GAS  C:\Users\164\AppData\Local\Temp\ccwvZXmi.s 			page 90


 4323              	.LASF88:
 4324 02eb 6E726567 		.ascii	"nregs\000"
 4324      7300
 4325              	.LASF135:
 4326 02f1 444F4E45 		.ascii	"DONE\000"
 4326      00
 4327              	.LASF66:
 4328 02f6 70726F63 		.ascii	"procs\000"
 4328      7300
 4329              	.LASF126:
 4330 02fc 6973725F 		.ascii	"isr_UART_1_Rx\000"
 4330      55415254 
 4330      5F315F52 
 4330      7800
 4331              	.LASF97:
 4332 030a 43414C4C 		.ascii	"CALLINFO\000"
 4332      494E464F 
 4332      00
 4333              	.LASF139:
 4334 0313 49544D5F 		.ascii	"ITM_RxBuffer\000"
 4334      52784275 
 4334      66666572 
 4334      00
 4335              	.LASF92:
 4336 0320 636F6465 		.ascii	"code\000"
 4336      00
 4337              	.LASF137:
 4338 0325 6D726263 		.ascii	"mrbc_init_class_uart\000"
 4338      5F696E69 
 4338      745F636C 
 4338      6173735F 
 4338      75617274 
 4339              	.LASF38:
 4340 033a 666C6167 		.ascii	"flag_need_memfree\000"
 4340      5F6E6565 
 4340      645F6D65 
 4340      6D667265 
 4340      6500
 4341              	.LASF94:
 4342 034c 7074725F 		.ascii	"ptr_to_sym\000"
 4342      746F5F73 
 4342      796D00
 4343              	.LASF155:
 4344 0357 6D726263 		.ascii	"mrbc_instance_new\000"
 4344      5F696E73 
 4344      74616E63 
 4344      655F6E65 
 4344      7700
 4345              	.LASF22:
 4346 0369 63686172 		.ascii	"char\000"
 4346      00
 4347              	.LASF117:
 4348 036e 436C6561 		.ascii	"ClearRxBuffer\000"
 4348      72527842 
 4348      75666665 
 4348      7200
 4349              	.LASF118:
ARM GAS  C:\Users\164\AppData\Local\Temp\ccwvZXmi.s 			page 91


 4350 037c 52656164 		.ascii	"ReadRxStatus\000"
 4350      52785374 
 4350      61747573 
 4350      00
 4351              	.LASF130:
 4352 0389 635F7561 		.ascii	"c_uart_puts\000"
 4352      72745F70 
 4352      75747300 
 4353              	.LASF26:
 4354 0395 6D726263 		.ascii	"mrbc_float\000"
 4354      5F666C6F 
 4354      617400
 4355              	.LASF69:
 4356 03a0 69766172 		.ascii	"ivar\000"
 4356      00
 4357              	.LASF65:
 4358 03a5 73757065 		.ascii	"super\000"
 4358      7200
 4359              	.LASF60:
 4360 03ab 73747269 		.ascii	"string\000"
 4360      6E6700
 4361              	.LASF70:
 4362 03b2 64617461 		.ascii	"data\000"
 4362      00
 4363              	.LASF42:
 4364 03b7 4D524243 		.ascii	"MRBC_TT_NIL\000"
 4364      5F54545F 
 4364      4E494C00 
 4365              	.LASF51:
 4366 03c3 4D524243 		.ascii	"MRBC_TT_ARRAY\000"
 4366      5F54545F 
 4366      41525241 
 4366      5900
 4367              	.LASF15:
 4368 03d1 75696E74 		.ascii	"uint8_t\000"
 4368      385F7400 
 4369              	.LASF35:
 4370 03d9 74617267 		.ascii	"target_class\000"
 4370      65745F63 
 4370      6C617373 
 4370      00
 4371              	.LASF163:
 4372 03e6 433A5C55 		.ascii	"C:\\Users\\164\\Desktop\\github\\mcmc\\Design01.cyd"
 4372      73657273 
 4372      5C313634 
 4372      5C446573 
 4372      6B746F70 
 4373 0413 736E00   		.ascii	"sn\000"
 4374              	.LASF125:
 4375 0416 6973725F 		.ascii	"isr_UART_1_Tx\000"
 4375      55415254 
 4375      5F315F54 
 4375      7800
 4376              	.LASF156:
 4377 0424 75617274 		.ascii	"uart_init_m\000"
 4377      5F696E69 
 4377      745F6D00 
ARM GAS  C:\Users\164\AppData\Local\Temp\ccwvZXmi.s 			page 92


 4378              	.LASF11:
 4379 0430 6C6F6E67 		.ascii	"long long int\000"
 4379      206C6F6E 
 4379      6720696E 
 4379      7400
 4380              	.LASF81:
 4381 043e 6D726263 		.ascii	"mrbc_value\000"
 4381      5F76616C 
 4381      756500
 4382              	.LASF64:
 4383 0449 73796D5F 		.ascii	"sym_id\000"
 4383      696400
 4384              	.LASF53:
 4385 0450 4D524243 		.ascii	"MRBC_TT_RANGE\000"
 4385      5F54545F 
 4385      52414E47 
 4385      4500
 4386              	.LASF160:
 4387 045e 6D726263 		.ascii	"mrbc_define_method\000"
 4387      5F646566 
 4387      696E655F 
 4387      6D657468 
 4387      6F6400
 4388              	.LASF4:
 4389 0471 5F5F696E 		.ascii	"__int16_t\000"
 4389      7431365F 
 4389      7400
 4390              	.LASF45:
 4391 047b 4D524243 		.ascii	"MRBC_TT_FIXNUM\000"
 4391      5F54545F 
 4391      4649584E 
 4391      554D00
 4392              	.LASF108:
 4393 048a 64656C69 		.ascii	"delimiter\000"
 4393      6D697465 
 4393      7200
 4394              	.LASF157:
 4395 0494 6973725F 		.ascii	"isr_UART_1_Tx_StartEx\000"
 4395      55415254 
 4395      5F315F54 
 4395      785F5374 
 4395      61727445 
 4396              	.LASF75:
 4397 04aa 73697A65 		.ascii	"size\000"
 4397      00
 4398              	.LASF61:
 4399 04af 72616E67 		.ascii	"range\000"
 4399      6500
 4400              	.LASF52:
 4401 04b5 4D524243 		.ascii	"MRBC_TT_STRING\000"
 4401      5F54545F 
 4401      53545249 
 4401      4E4700
 4402              	.LASF147:
 4403 04c4 75617274 		.ascii	"uart_can_read_line\000"
 4403      5F63616E 
 4403      5F726561 
ARM GAS  C:\Users\164\AppData\Local\Temp\ccwvZXmi.s 			page 93


 4403      645F6C69 
 4403      6E6500
 4404              	.LASF102:
 4405 04d7 55415254 		.ascii	"UART_HANDLE\000"
 4405      5F48414E 
 4405      444C4500 
 4406              	.LASF49:
 4407 04e3 4D524243 		.ascii	"MRBC_TT_OBJECT\000"
 4407      5F54545F 
 4407      4F424A45 
 4407      435400
 4408              	.LASF109:
 4409 04f2 72785F72 		.ascii	"rx_rd\000"
 4409      6400
 4410              	.LASF0:
 4411 04f8 5F5F696E 		.ascii	"__int8_t\000"
 4411      74385F74 
 4411      00
 4412              	.LASF59:
 4413 0501 61727261 		.ascii	"array\000"
 4413      7900
 4414              	.LASF123:
 4415 0507 6D72625F 		.ascii	"mrb_nil_value\000"
 4415      6E696C5F 
 4415      76616C75 
 4415      6500
 4416              	.LASF23:
 4417 0515 6C6F6E67 		.ascii	"long double\000"
 4417      20646F75 
 4417      626C6500 
 4418              	.LASF17:
 4419 0521 75696E74 		.ascii	"uint16_t\000"
 4419      31365F74 
 4419      00
 4420              	.LASF34:
 4421 052a 63616C6C 		.ascii	"callinfo_tail\000"
 4421      696E666F 
 4421      5F746169 
 4421      6C00
 4422              	.LASF44:
 4423 0538 4D524243 		.ascii	"MRBC_TT_TRUE\000"
 4423      5F54545F 
 4423      54525545 
 4423      00
 4424              	.LASF5:
 4425 0545 73686F72 		.ascii	"short int\000"
 4425      7420696E 
 4425      7400
 4426              	.LASF150:
 4427 054f 75617274 		.ascii	"uart_gets\000"
 4427      5F676574 
 4427      7300
 4428              	.LASF129:
 4429 0559 635F7561 		.ascii	"c_uart_clear_tx_buffer\000"
 4429      72745F63 
 4429      6C656172 
 4429      5F74785F 
ARM GAS  C:\Users\164\AppData\Local\Temp\ccwvZXmi.s 			page 94


 4429      62756666 
 4430              	.LASF43:
 4431 0570 4D524243 		.ascii	"MRBC_TT_FALSE\000"
 4431      5F54545F 
 4431      46414C53 
 4431      4500
 4432              	.LASF9:
 4433 057e 6C6F6E67 		.ascii	"long int\000"
 4433      20696E74 
 4433      00
 4434              	.LASF62:
 4435 0587 68617368 		.ascii	"hash\000"
 4435      00
 4436              	.LASF39:
 4437 058c 524F626A 		.ascii	"RObject\000"
 4437      65637400 
 4438              	.LASF143:
 4439 0594 75617274 		.ascii	"uart_clear_rx_buffer\000"
 4439      5F636C65 
 4439      61725F72 
 4439      785F6275 
 4439      66666572 
 4440              	.LASF90:
 4441 05a9 696C656E 		.ascii	"ilen\000"
 4441      00
 4442              	.LASF48:
 4443 05ae 4D524243 		.ascii	"MRBC_TT_CLASS\000"
 4443      5F54545F 
 4443      434C4153 
 4443      5300
 4444              	.LASF96:
 4445 05bc 6D726263 		.ascii	"mrbc_irep\000"
 4445      5F697265 
 4445      7000
 4446              	.LASF1:
 4447 05c6 5F5F7569 		.ascii	"__uint8_t\000"
 4447      6E74385F 
 4447      7400
 4448              	.LASF95:
 4449 05d0 72657073 		.ascii	"reps\000"
 4449      00
 4450              	.LASF91:
 4451 05d5 706C656E 		.ascii	"plen\000"
 4451      00
 4452              	.LASF154:
 4453 05da 75617274 		.ascii	"uart_read\000"
 4453      5F726561 
 4453      6400
 4454              	.LASF120:
 4455 05e4 57726974 		.ascii	"WriteTxData\000"
 4455      65547844 
 4455      61746100 
 4456              	.LASF74:
 4457 05f0 52537472 		.ascii	"RString\000"
 4457      696E6700 
 4458              	.LASF115:
 4459 05f8 53746F70 		.ascii	"Stop\000"
ARM GAS  C:\Users\164\AppData\Local\Temp\ccwvZXmi.s 			page 95


 4459      00
 4460              	.LASF100:
 4461 05fd 6D726263 		.ascii	"mrbc_callinfo\000"
 4461      5F63616C 
 4461      6C696E66 
 4461      6F00
 4462              	.LASF58:
 4463 060b 70726F63 		.ascii	"proc\000"
 4463      00
 4464              	.LASF24:
 4465 0610 73697A65 		.ascii	"sizetype\000"
 4465      74797065 
 4465      00
 4466              	.LASF10:
 4467 0619 6C6F6E67 		.ascii	"long unsigned int\000"
 4467      20756E73 
 4467      69676E65 
 4467      6420696E 
 4467      7400
 4468              	.LASF83:
 4469 062b 6D72625F 		.ascii	"mrb_class\000"
 4469      636C6173 
 4469      7300
 4470              	.LASF18:
 4471 0635 696E7433 		.ascii	"int32_t\000"
 4471      325F7400 
 4472              	.LASF89:
 4473 063d 726C656E 		.ascii	"rlen\000"
 4473      00
 4474              	.LASF86:
 4475 0642 49524550 		.ascii	"IREP\000"
 4475      00
 4476              	.LASF67:
 4477 0647 52496E73 		.ascii	"RInstance\000"
 4477      74616E63 
 4477      6500
 4478              	.LASF152:
 4479 0651 6D726263 		.ascii	"mrbc_string_new_alloc\000"
 4479      5F737472 
 4479      696E675F 
 4479      6E65775F 
 4479      616C6C6F 
 4480              	.LASF112:
 4481 0667 54585F53 		.ascii	"TX_STS_COMPLETE\000"
 4481      54535F43 
 4481      4F4D504C 
 4481      45544500 
 4482              	.LASF3:
 4483 0677 756E7369 		.ascii	"unsigned char\000"
 4483      676E6564 
 4483      20636861 
 4483      7200
 4484              	.LASF101:
 4485 0685 6D72625F 		.ascii	"mrb_vm\000"
 4485      766D00
 4486              	.LASF80:
 4487 068c 6D726263 		.ascii	"mrbc_object\000"
ARM GAS  C:\Users\164\AppData\Local\Temp\ccwvZXmi.s 			page 96


 4487      5F6F626A 
 4487      65637400 
 4488              	.LASF146:
 4489 0698 6D726263 		.ascii	"mrbc_dec_ref_counter\000"
 4489      5F646563 
 4489      5F726566 
 4489      5F636F75 
 4489      6E746572 
 4490              	.LASF54:
 4491 06ad 4D524243 		.ascii	"MRBC_TT_HASH\000"
 4491      5F54545F 
 4491      48415348 
 4491      00
 4492              	.LASF142:
 4493 06ba 75617274 		.ascii	"uart_isr_rx\000"
 4493      5F697372 
 4493      5F727800 
 4494              	.LASF103:
 4495 06c6 705F7478 		.ascii	"p_txbuf\000"
 4495      62756600 
 4496              	.LASF121:
 4497 06ce 52656164 		.ascii	"ReadRxData\000"
 4497      52784461 
 4497      746100
 4498              	.LASF149:
 4499 06d9 6D726263 		.ascii	"mrbc_alloc\000"
 4499      5F616C6C 
 4499      6F6300
 4500              	.LASF131:
 4501 06e4 635F7561 		.ascii	"c_uart_gets\000"
 4501      72745F67 
 4501      65747300 
 4502              	.LASF36:
 4503 06f0 6572726F 		.ascii	"error_code\000"
 4503      725F636F 
 4503      646500
 4504              	.LASF72:
 4505 06fb 635F6675 		.ascii	"c_func\000"
 4505      6E6300
 4506              	.LASF37:
 4507 0702 666C6167 		.ascii	"flag_preemption\000"
 4507      5F707265 
 4507      656D7074 
 4507      696F6E00 
 4508              	.LASF105:
 4509 0712 74785F72 		.ascii	"tx_rd\000"
 4509      6400
 4510              	.LASF124:
 4511 0718 6D726263 		.ascii	"mrbc_string_size\000"
 4511      5F737472 
 4511      696E675F 
 4511      73697A65 
 4511      00
 4512              	.LASF2:
 4513 0729 7369676E 		.ascii	"signed char\000"
 4513      65642063 
 4513      68617200 
ARM GAS  C:\Users\164\AppData\Local\Temp\ccwvZXmi.s 			page 97


 4514              	.LASF7:
 4515 0735 73686F72 		.ascii	"short unsigned int\000"
 4515      7420756E 
 4515      7369676E 
 4515      65642069 
 4515      6E7400
 4516              	.LASF56:
 4517 0748 68616E64 		.ascii	"handle\000"
 4517      6C6500
 4518              	.LASF76:
 4519 074f 52417272 		.ascii	"RArray\000"
 4519      617900
 4520              	.LASF27:
 4521 0756 6D726263 		.ascii	"mrbc_sym\000"
 4521      5F73796D 
 4521      00
 4522              	.LASF145:
 4523 075f 75617274 		.ascii	"uart_puts\000"
 4523      5F707574 
 4523      7300
 4524              	.LASF19:
 4525 0769 75696E74 		.ascii	"uint8\000"
 4525      3800
 4526              	.LASF21:
 4527 076f 646F7562 		.ascii	"double\000"
 4527      6C6500
 4528              	.LASF110:
 4529 0776 72785F77 		.ascii	"rx_wr\000"
 4529      7200
 4530              	.LASF50:
 4531 077c 4D524243 		.ascii	"MRBC_TT_PROC\000"
 4531      5F54545F 
 4531      50524F43 
 4531      00
 4532              	.LASF111:
 4533 0789 72786669 		.ascii	"rxfifo\000"
 4533      666F00
 4534              	.LASF133:
 4535 0790 635F7561 		.ascii	"c_uart_read\000"
 4535      72745F72 
 4535      65616400 
 4536              	.LASF164:
 4537 079c 76616C75 		.ascii	"value\000"
 4537      6500
 4538              	.LASF77:
 4539 07a2 5252616E 		.ascii	"RRange\000"
 4539      676500
 4540              	.LASF106:
 4541 07a9 666C6167 		.ascii	"flag_tx_finished\000"
 4541      5F74785F 
 4541      66696E69 
 4541      73686564 
 4541      00
 4542              	.LASF141:
 4543 07ba 75617274 		.ascii	"uart_isr_tx\000"
 4543      5F697372 
 4543      5F747800 
ARM GAS  C:\Users\164\AppData\Local\Temp\ccwvZXmi.s 			page 98


 4544              		.ident	"GCC: (GNU Tools for ARM Embedded Processors) 5.4.1 20160609 (release) [ARM/embedded-5-bran
