ARM GAS  C:\Users\164\AppData\Local\Temp\ccELK2nm.s 			page 1


   1              		.syntax unified
   2              		.cpu cortex-m3
   3              		.fpu softvfp
   4              		.eabi_attribute 20, 1
   5              		.eabi_attribute 21, 1
   6              		.eabi_attribute 23, 3
   7              		.eabi_attribute 24, 1
   8              		.eabi_attribute 25, 1
   9              		.eabi_attribute 26, 1
  10              		.eabi_attribute 30, 1
  11              		.eabi_attribute 34, 1
  12              		.eabi_attribute 18, 4
  13              		.thumb
  14              		.syntax unified
  15              		.file	"c_uart.c"
  16              		.text
  17              	.Ltext0:
  18              		.cfi_sections	.debug_frame
  19              		.section	.text.isr_UART_1_Tx,"ax",%progbits
  20              		.align	2
  21              		.global	isr_UART_1_Tx
  22              		.thumb
  23              		.thumb_func
  24              		.type	isr_UART_1_Tx, %function
  25              	isr_UART_1_Tx:
  26              	.LFB73:
  27              		.file 1 "..\\..\\mruby_c2\\Design01.cydsn\\c_uart.c"
   1:..\..\mruby_c2\Design01.cydsn/c_uart.c **** /*! @file
   2:..\..\mruby_c2\Design01.cydsn/c_uart.c ****   @brief
   3:..\..\mruby_c2\Design01.cydsn/c_uart.c ****   UART class for Cypress PSoC5LP
   4:..\..\mruby_c2\Design01.cydsn/c_uart.c **** 
   5:..\..\mruby_c2\Design01.cydsn/c_uart.c ****   <pre>
   6:..\..\mruby_c2\Design01.cydsn/c_uart.c ****   Copyright (C) 2018 Kyushu Institute of Technology.
   7:..\..\mruby_c2\Design01.cydsn/c_uart.c ****   Copyright (C) 2018 Shimane IT Open-Innovation Center.
   8:..\..\mruby_c2\Design01.cydsn/c_uart.c **** 
   9:..\..\mruby_c2\Design01.cydsn/c_uart.c ****   This file is distributed under BSD 3-Clause License.
  10:..\..\mruby_c2\Design01.cydsn/c_uart.c **** 
  11:..\..\mruby_c2\Design01.cydsn/c_uart.c ****   (Usage)
  12:..\..\mruby_c2\Design01.cydsn/c_uart.c ****   PSoC Creator で、以下の通りUARTデバイスを設置
  13:..\..\mruby_c2\Design01.cydsn/c_uart.c ****     * Communication > UARTデバイス配置
  14:..\..\mruby_c2\Design01.cydsn/c_uart.c ****     * Configureダイアログを開く
  15:..\..\mruby_c2\Design01.cydsn/c_uart.c ****     * Nameが"UART_1"であることを確認
  16:..\..\mruby_c2\Design01.cydsn/c_uart.c ****     * 通信速度等のパラメータ設定
  17:..\..\mruby_c2\Design01.cydsn/c_uart.c ****     * 同ダイアログAdvancedタブのInterruptを、"RX- On Byte Received"と
  18:..\..\mruby_c2\Design01.cydsn/c_uart.c ****       "TX - On TX Complete"にチェックを入れる
  19:..\..\mruby_c2\Design01.cydsn/c_uart.c ****     * System > Interrupt デバイスを2つ配置
  20:..\..\mruby_c2\Design01.cydsn/c_uart.c ****     * UARTのtx_interruptとrx_interruptに接続
  21:..\..\mruby_c2\Design01.cydsn/c_uart.c ****     * 名前をそれぞれ、"isr_UART_1_Tx"と、"isr_UART_1_Rx"に変更
  22:..\..\mruby_c2\Design01.cydsn/c_uart.c **** 
  23:..\..\mruby_c2\Design01.cydsn/c_uart.c ****   main.cに、以下の記述を追加。
  24:..\..\mruby_c2\Design01.cydsn/c_uart.c ****     #include <c_uart.h>
  25:..\..\mruby_c2\Design01.cydsn/c_uart.c ****     mrbc_init_class_uart(0);
  26:..\..\mruby_c2\Design01.cydsn/c_uart.c **** 
  27:..\..\mruby_c2\Design01.cydsn/c_uart.c ****   必要に応じて、UART_SIZE_RXFIFOマクロに、一行最大文字列を定義する。
  28:..\..\mruby_c2\Design01.cydsn/c_uart.c ****   デフォルトは、128bytes。
  29:..\..\mruby_c2\Design01.cydsn/c_uart.c **** 
  30:..\..\mruby_c2\Design01.cydsn/c_uart.c **** 
ARM GAS  C:\Users\164\AppData\Local\Temp\ccELK2nm.s 			page 2


  31:..\..\mruby_c2\Design01.cydsn/c_uart.c ****   (on Ruby)
  32:..\..\mruby_c2\Design01.cydsn/c_uart.c ****     uart1 = UART.new()
  33:..\..\mruby_c2\Design01.cydsn/c_uart.c ****     uart.puts( "STRING\r\n" )
  34:..\..\mruby_c2\Design01.cydsn/c_uart.c ****     s = uart.gets()
  35:..\..\mruby_c2\Design01.cydsn/c_uart.c **** 
  36:..\..\mruby_c2\Design01.cydsn/c_uart.c ****   </pre>
  37:..\..\mruby_c2\Design01.cydsn/c_uart.c **** */
  38:..\..\mruby_c2\Design01.cydsn/c_uart.c **** 
  39:..\..\mruby_c2\Design01.cydsn/c_uart.c **** 
  40:..\..\mruby_c2\Design01.cydsn/c_uart.c **** #include "vm_config.h"
  41:..\..\mruby_c2\Design01.cydsn/c_uart.c **** #include <stdint.h>
  42:..\..\mruby_c2\Design01.cydsn/c_uart.c **** #include <project.h>	// auto generated by PSoC Creator.
  43:..\..\mruby_c2\Design01.cydsn/c_uart.c **** 
  44:..\..\mruby_c2\Design01.cydsn/c_uart.c **** #include "value.h"
  45:..\..\mruby_c2\Design01.cydsn/c_uart.c **** #include "alloc.h"
  46:..\..\mruby_c2\Design01.cydsn/c_uart.c **** #include "static.h"
  47:..\..\mruby_c2\Design01.cydsn/c_uart.c **** #include "class.h"
  48:..\..\mruby_c2\Design01.cydsn/c_uart.c **** #include "c_string.h"
  49:..\..\mruby_c2\Design01.cydsn/c_uart.c **** 
  50:..\..\mruby_c2\Design01.cydsn/c_uart.c **** #include "uart2.h"
  51:..\..\mruby_c2\Design01.cydsn/c_uart.c **** 
  52:..\..\mruby_c2\Design01.cydsn/c_uart.c **** 
  53:..\..\mruby_c2\Design01.cydsn/c_uart.c **** //================================================================
  54:..\..\mruby_c2\Design01.cydsn/c_uart.c **** /*! UART用設定
  55:..\..\mruby_c2\Design01.cydsn/c_uart.c **** */
  56:..\..\mruby_c2\Design01.cydsn/c_uart.c **** #define NUM_UART 1
  57:..\..\mruby_c2\Design01.cydsn/c_uart.c **** UART_HANDLE uh[NUM_UART];
  58:..\..\mruby_c2\Design01.cydsn/c_uart.c **** UART_ISR( &uh[0], UART_1 );
  28              		.loc 1 58 0
  29              		.cfi_startproc
  30              		@ args = 0, pretend = 0, frame = 0
  31              		@ frame_needed = 0, uses_anonymous_args = 0
  32 0000 08B5     		push	{r3, lr}
  33              		.cfi_def_cfa_offset 8
  34              		.cfi_offset 3, -8
  35              		.cfi_offset 14, -4
  36              		.loc 1 58 0
  37 0002 0248     		ldr	r0, .L3
  38 0004 FFF7FEFF 		bl	uart_isr_tx
  39              	.LVL0:
  40 0008 08BD     		pop	{r3, pc}
  41              	.L4:
  42 000a 00BF     		.align	2
  43              	.L3:
  44 000c 00000000 		.word	uh
  45              		.cfi_endproc
  46              	.LFE73:
  47              		.size	isr_UART_1_Tx, .-isr_UART_1_Tx
  48              		.section	.text.isr_UART_1_Rx,"ax",%progbits
  49              		.align	2
  50              		.global	isr_UART_1_Rx
  51              		.thumb
  52              		.thumb_func
  53              		.type	isr_UART_1_Rx, %function
  54              	isr_UART_1_Rx:
  55              	.LFB74:
  56              		.loc 1 58 0
ARM GAS  C:\Users\164\AppData\Local\Temp\ccELK2nm.s 			page 3


  57              		.cfi_startproc
  58              		@ args = 0, pretend = 0, frame = 0
  59              		@ frame_needed = 0, uses_anonymous_args = 0
  60 0000 08B5     		push	{r3, lr}
  61              		.cfi_def_cfa_offset 8
  62              		.cfi_offset 3, -8
  63              		.cfi_offset 14, -4
  64              		.loc 1 58 0
  65 0002 0248     		ldr	r0, .L7
  66 0004 FFF7FEFF 		bl	uart_isr_rx
  67              	.LVL1:
  68 0008 08BD     		pop	{r3, pc}
  69              	.L8:
  70 000a 00BF     		.align	2
  71              	.L7:
  72 000c 00000000 		.word	uh
  73              		.cfi_endproc
  74              	.LFE74:
  75              		.size	isr_UART_1_Rx, .-isr_UART_1_Rx
  76              		.section	.text.c_uart_clear_rx_buffer,"ax",%progbits
  77              		.align	2
  78              		.thumb
  79              		.thumb_func
  80              		.type	c_uart_clear_rx_buffer, %function
  81              	c_uart_clear_rx_buffer:
  82              	.LFB81:
  59:..\..\mruby_c2\Design01.cydsn/c_uart.c **** // UART_ISR( &uh[1], UART_2 );
  60:..\..\mruby_c2\Design01.cydsn/c_uart.c **** 
  61:..\..\mruby_c2\Design01.cydsn/c_uart.c **** 
  62:..\..\mruby_c2\Design01.cydsn/c_uart.c **** //================================================================
  63:..\..\mruby_c2\Design01.cydsn/c_uart.c **** /*! UART constructor
  64:..\..\mruby_c2\Design01.cydsn/c_uart.c **** */
  65:..\..\mruby_c2\Design01.cydsn/c_uart.c **** static void c_uart_new(mrb_vm *vm, mrb_value v[], int argc)
  66:..\..\mruby_c2\Design01.cydsn/c_uart.c **** {
  67:..\..\mruby_c2\Design01.cydsn/c_uart.c ****   static int num = 0;
  68:..\..\mruby_c2\Design01.cydsn/c_uart.c **** 
  69:..\..\mruby_c2\Design01.cydsn/c_uart.c ****   if( num >= NUM_UART ) {
  70:..\..\mruby_c2\Design01.cydsn/c_uart.c ****     *v = mrb_nil_value();
  71:..\..\mruby_c2\Design01.cydsn/c_uart.c ****     return;
  72:..\..\mruby_c2\Design01.cydsn/c_uart.c ****   }
  73:..\..\mruby_c2\Design01.cydsn/c_uart.c **** 
  74:..\..\mruby_c2\Design01.cydsn/c_uart.c ****   *v = mrbc_instance_new(vm, v->cls, sizeof(UART_HANDLE *));
  75:..\..\mruby_c2\Design01.cydsn/c_uart.c ****   *((UART_HANDLE **)v->instance->data) = &uh[num++];
  76:..\..\mruby_c2\Design01.cydsn/c_uart.c **** }
  77:..\..\mruby_c2\Design01.cydsn/c_uart.c **** 
  78:..\..\mruby_c2\Design01.cydsn/c_uart.c **** 
  79:..\..\mruby_c2\Design01.cydsn/c_uart.c **** //================================================================
  80:..\..\mruby_c2\Design01.cydsn/c_uart.c **** /*! read
  81:..\..\mruby_c2\Design01.cydsn/c_uart.c ****   s = $uart.read(n)
  82:..\..\mruby_c2\Design01.cydsn/c_uart.c **** */
  83:..\..\mruby_c2\Design01.cydsn/c_uart.c **** static void c_uart_read(mrb_vm *vm, mrb_value v[], int argc)
  84:..\..\mruby_c2\Design01.cydsn/c_uart.c **** {
  85:..\..\mruby_c2\Design01.cydsn/c_uart.c ****   mrb_value ret;
  86:..\..\mruby_c2\Design01.cydsn/c_uart.c ****   UART_HANDLE *handle = *(UART_HANDLE **)v->instance->data;
  87:..\..\mruby_c2\Design01.cydsn/c_uart.c ****   int need_length = GET_INT_ARG(1);
  88:..\..\mruby_c2\Design01.cydsn/c_uart.c **** 
  89:..\..\mruby_c2\Design01.cydsn/c_uart.c ****   if( uart_bytes_available(handle) < need_length ) {
ARM GAS  C:\Users\164\AppData\Local\Temp\ccELK2nm.s 			page 4


  90:..\..\mruby_c2\Design01.cydsn/c_uart.c ****     ret = mrb_nil_value();
  91:..\..\mruby_c2\Design01.cydsn/c_uart.c ****     goto DONE;
  92:..\..\mruby_c2\Design01.cydsn/c_uart.c ****   }
  93:..\..\mruby_c2\Design01.cydsn/c_uart.c **** 
  94:..\..\mruby_c2\Design01.cydsn/c_uart.c ****   char *buf = mrbc_alloc( vm, need_length + 1 );
  95:..\..\mruby_c2\Design01.cydsn/c_uart.c ****   uart_read( handle, buf, need_length );
  96:..\..\mruby_c2\Design01.cydsn/c_uart.c **** 
  97:..\..\mruby_c2\Design01.cydsn/c_uart.c ****   ret = mrbc_string_new_alloc( vm, buf, need_length );
  98:..\..\mruby_c2\Design01.cydsn/c_uart.c **** 
  99:..\..\mruby_c2\Design01.cydsn/c_uart.c ****  DONE:
 100:..\..\mruby_c2\Design01.cydsn/c_uart.c ****   SET_RETURN(ret);
 101:..\..\mruby_c2\Design01.cydsn/c_uart.c **** }
 102:..\..\mruby_c2\Design01.cydsn/c_uart.c **** 
 103:..\..\mruby_c2\Design01.cydsn/c_uart.c **** 
 104:..\..\mruby_c2\Design01.cydsn/c_uart.c **** //================================================================
 105:..\..\mruby_c2\Design01.cydsn/c_uart.c **** /*! write
 106:..\..\mruby_c2\Design01.cydsn/c_uart.c ****   $uart.write(s)
 107:..\..\mruby_c2\Design01.cydsn/c_uart.c **** */
 108:..\..\mruby_c2\Design01.cydsn/c_uart.c **** static void c_uart_write(mrb_vm *vm, mrb_value v[], int argc)
 109:..\..\mruby_c2\Design01.cydsn/c_uart.c **** {
 110:..\..\mruby_c2\Design01.cydsn/c_uart.c ****   UART_HANDLE *handle = *(UART_HANDLE **)v->instance->data;
 111:..\..\mruby_c2\Design01.cydsn/c_uart.c **** 
 112:..\..\mruby_c2\Design01.cydsn/c_uart.c ****   switch( v[1].tt ) {
 113:..\..\mruby_c2\Design01.cydsn/c_uart.c ****   case MRB_TT_STRING: {
 114:..\..\mruby_c2\Design01.cydsn/c_uart.c ****     int n = uart_write( handle,
 115:..\..\mruby_c2\Design01.cydsn/c_uart.c **** 			mrbc_string_cstr(&v[1]), mrbc_string_size(&v[1]) );
 116:..\..\mruby_c2\Design01.cydsn/c_uart.c ****     SET_INT_RETURN(n);
 117:..\..\mruby_c2\Design01.cydsn/c_uart.c ****   } break;
 118:..\..\mruby_c2\Design01.cydsn/c_uart.c **** 
 119:..\..\mruby_c2\Design01.cydsn/c_uart.c ****   default:
 120:..\..\mruby_c2\Design01.cydsn/c_uart.c ****     SET_NIL_RETURN();
 121:..\..\mruby_c2\Design01.cydsn/c_uart.c ****     break;
 122:..\..\mruby_c2\Design01.cydsn/c_uart.c ****   }
 123:..\..\mruby_c2\Design01.cydsn/c_uart.c **** }
 124:..\..\mruby_c2\Design01.cydsn/c_uart.c **** 
 125:..\..\mruby_c2\Design01.cydsn/c_uart.c **** 
 126:..\..\mruby_c2\Design01.cydsn/c_uart.c **** //================================================================
 127:..\..\mruby_c2\Design01.cydsn/c_uart.c **** /*! gets
 128:..\..\mruby_c2\Design01.cydsn/c_uart.c **** */
 129:..\..\mruby_c2\Design01.cydsn/c_uart.c **** static void c_uart_gets(mrb_vm *vm, mrb_value v[], int argc)
 130:..\..\mruby_c2\Design01.cydsn/c_uart.c **** {
 131:..\..\mruby_c2\Design01.cydsn/c_uart.c ****   mrb_value ret;
 132:..\..\mruby_c2\Design01.cydsn/c_uart.c ****   UART_HANDLE *handle = *(UART_HANDLE **)v->instance->data;
 133:..\..\mruby_c2\Design01.cydsn/c_uart.c **** 
 134:..\..\mruby_c2\Design01.cydsn/c_uart.c ****   if( !uart_can_read_line( handle ) ) {
 135:..\..\mruby_c2\Design01.cydsn/c_uart.c ****     ret = mrb_nil_value();
 136:..\..\mruby_c2\Design01.cydsn/c_uart.c ****     goto DONE;
 137:..\..\mruby_c2\Design01.cydsn/c_uart.c ****   }
 138:..\..\mruby_c2\Design01.cydsn/c_uart.c **** 
 139:..\..\mruby_c2\Design01.cydsn/c_uart.c ****   int len = uart_bytes_available( handle ) + 1;
 140:..\..\mruby_c2\Design01.cydsn/c_uart.c ****   char *buf = mrbc_alloc( vm, len );
 141:..\..\mruby_c2\Design01.cydsn/c_uart.c **** 
 142:..\..\mruby_c2\Design01.cydsn/c_uart.c ****   len = uart_gets( handle, buf, len );
 143:..\..\mruby_c2\Design01.cydsn/c_uart.c ****   mrbc_realloc( vm, buf, len );
 144:..\..\mruby_c2\Design01.cydsn/c_uart.c **** 
 145:..\..\mruby_c2\Design01.cydsn/c_uart.c ****   ret = mrbc_string_new_alloc( vm, buf, len );
 146:..\..\mruby_c2\Design01.cydsn/c_uart.c **** 
ARM GAS  C:\Users\164\AppData\Local\Temp\ccELK2nm.s 			page 5


 147:..\..\mruby_c2\Design01.cydsn/c_uart.c ****  DONE:
 148:..\..\mruby_c2\Design01.cydsn/c_uart.c ****   SET_RETURN(ret);
 149:..\..\mruby_c2\Design01.cydsn/c_uart.c **** }
 150:..\..\mruby_c2\Design01.cydsn/c_uart.c **** 
 151:..\..\mruby_c2\Design01.cydsn/c_uart.c **** 
 152:..\..\mruby_c2\Design01.cydsn/c_uart.c **** //================================================================
 153:..\..\mruby_c2\Design01.cydsn/c_uart.c **** /*! puts
 154:..\..\mruby_c2\Design01.cydsn/c_uart.c **** */
 155:..\..\mruby_c2\Design01.cydsn/c_uart.c **** static void c_uart_puts(mrb_vm *vm, mrb_value v[], int argc)
 156:..\..\mruby_c2\Design01.cydsn/c_uart.c **** {
 157:..\..\mruby_c2\Design01.cydsn/c_uart.c ****   char *s = NULL;
 158:..\..\mruby_c2\Design01.cydsn/c_uart.c ****   switch( v[1].tt ) {
 159:..\..\mruby_c2\Design01.cydsn/c_uart.c ****   case MRB_TT_STRING: {
 160:..\..\mruby_c2\Design01.cydsn/c_uart.c ****     s = mrbc_string_cstr(&v[1]);
 161:..\..\mruby_c2\Design01.cydsn/c_uart.c ****   } break;
 162:..\..\mruby_c2\Design01.cydsn/c_uart.c **** 
 163:..\..\mruby_c2\Design01.cydsn/c_uart.c ****   default:
 164:..\..\mruby_c2\Design01.cydsn/c_uart.c ****     break;
 165:..\..\mruby_c2\Design01.cydsn/c_uart.c ****   }
 166:..\..\mruby_c2\Design01.cydsn/c_uart.c **** 
 167:..\..\mruby_c2\Design01.cydsn/c_uart.c ****   if( s ) {
 168:..\..\mruby_c2\Design01.cydsn/c_uart.c ****     UART_HANDLE *handle = *(UART_HANDLE **)v->instance->data;
 169:..\..\mruby_c2\Design01.cydsn/c_uart.c ****     uart_puts( handle, s );
 170:..\..\mruby_c2\Design01.cydsn/c_uart.c ****   }
 171:..\..\mruby_c2\Design01.cydsn/c_uart.c **** }
 172:..\..\mruby_c2\Design01.cydsn/c_uart.c **** 
 173:..\..\mruby_c2\Design01.cydsn/c_uart.c **** 
 174:..\..\mruby_c2\Design01.cydsn/c_uart.c **** //================================================================
 175:..\..\mruby_c2\Design01.cydsn/c_uart.c **** /*! clear_tx_buffer
 176:..\..\mruby_c2\Design01.cydsn/c_uart.c **** */
 177:..\..\mruby_c2\Design01.cydsn/c_uart.c **** static void c_uart_clear_tx_buffer(mrb_vm *vm, mrb_value v[], int argc)
 178:..\..\mruby_c2\Design01.cydsn/c_uart.c **** {
 179:..\..\mruby_c2\Design01.cydsn/c_uart.c ****   UART_HANDLE *handle = *(UART_HANDLE **)v->instance->data;
 180:..\..\mruby_c2\Design01.cydsn/c_uart.c ****   uart_clear_tx_buffer( handle );
 181:..\..\mruby_c2\Design01.cydsn/c_uart.c **** }
 182:..\..\mruby_c2\Design01.cydsn/c_uart.c **** 
 183:..\..\mruby_c2\Design01.cydsn/c_uart.c **** 
 184:..\..\mruby_c2\Design01.cydsn/c_uart.c **** //================================================================
 185:..\..\mruby_c2\Design01.cydsn/c_uart.c **** /*! clear_rx_buffer
 186:..\..\mruby_c2\Design01.cydsn/c_uart.c **** */
 187:..\..\mruby_c2\Design01.cydsn/c_uart.c **** static void c_uart_clear_rx_buffer(mrb_vm *vm, mrb_value v[], int argc)
 188:..\..\mruby_c2\Design01.cydsn/c_uart.c **** {
  83              		.loc 1 188 0
  84              		.cfi_startproc
  85              		@ args = 0, pretend = 0, frame = 0
  86              		@ frame_needed = 0, uses_anonymous_args = 0
  87              	.LVL2:
  88 0000 08B5     		push	{r3, lr}
  89              		.cfi_def_cfa_offset 8
  90              		.cfi_offset 3, -8
  91              		.cfi_offset 14, -4
 189:..\..\mruby_c2\Design01.cydsn/c_uart.c ****   UART_HANDLE *handle = *(UART_HANDLE **)v->instance->data;
  92              		.loc 1 189 0
  93 0002 8B68     		ldr	r3, [r1, #8]
  94              	.LVL3:
 190:..\..\mruby_c2\Design01.cydsn/c_uart.c ****   uart_clear_rx_buffer( handle );
  95              		.loc 1 190 0
ARM GAS  C:\Users\164\AppData\Local\Temp\ccELK2nm.s 			page 6


  96 0004 D868     		ldr	r0, [r3, #12]
  97              	.LVL4:
  98 0006 FFF7FEFF 		bl	uart_clear_rx_buffer
  99              	.LVL5:
 100 000a 08BD     		pop	{r3, pc}
 101              		.cfi_endproc
 102              	.LFE81:
 103              		.size	c_uart_clear_rx_buffer, .-c_uart_clear_rx_buffer
 104              		.section	.text.c_uart_clear_tx_buffer,"ax",%progbits
 105              		.align	2
 106              		.thumb
 107              		.thumb_func
 108              		.type	c_uart_clear_tx_buffer, %function
 109              	c_uart_clear_tx_buffer:
 110              	.LFB80:
 178:..\..\mruby_c2\Design01.cydsn/c_uart.c ****   UART_HANDLE *handle = *(UART_HANDLE **)v->instance->data;
 111              		.loc 1 178 0
 112              		.cfi_startproc
 113              		@ args = 0, pretend = 0, frame = 0
 114              		@ frame_needed = 0, uses_anonymous_args = 0
 115              	.LVL6:
 116 0000 08B5     		push	{r3, lr}
 117              		.cfi_def_cfa_offset 8
 118              		.cfi_offset 3, -8
 119              		.cfi_offset 14, -4
 179:..\..\mruby_c2\Design01.cydsn/c_uart.c ****   uart_clear_tx_buffer( handle );
 120              		.loc 1 179 0
 121 0002 8B68     		ldr	r3, [r1, #8]
 122              	.LVL7:
 180:..\..\mruby_c2\Design01.cydsn/c_uart.c **** }
 123              		.loc 1 180 0
 124 0004 D868     		ldr	r0, [r3, #12]
 125              	.LVL8:
 126 0006 FFF7FEFF 		bl	uart_clear_tx_buffer
 127              	.LVL9:
 128 000a 08BD     		pop	{r3, pc}
 129              		.cfi_endproc
 130              	.LFE80:
 131              		.size	c_uart_clear_tx_buffer, .-c_uart_clear_tx_buffer
 132              		.section	.text.c_uart_puts,"ax",%progbits
 133              		.align	2
 134              		.thumb
 135              		.thumb_func
 136              		.type	c_uart_puts, %function
 137              	c_uart_puts:
 138              	.LFB79:
 156:..\..\mruby_c2\Design01.cydsn/c_uart.c ****   char *s = NULL;
 139              		.loc 1 156 0
 140              		.cfi_startproc
 141              		@ args = 0, pretend = 0, frame = 0
 142              		@ frame_needed = 0, uses_anonymous_args = 0
 143              	.LVL10:
 144 0000 08B5     		push	{r3, lr}
 145              		.cfi_def_cfa_offset 8
 146              		.cfi_offset 3, -8
 147              		.cfi_offset 14, -4
 148              	.LVL11:
ARM GAS  C:\Users\164\AppData\Local\Temp\ccELK2nm.s 			page 7


 158:..\..\mruby_c2\Design01.cydsn/c_uart.c ****   case MRB_TT_STRING: {
 149              		.loc 1 158 0
 150 0002 91F91030 		ldrsb	r3, [r1, #16]
 151 0006 172B     		cmp	r3, #23
 152 0008 02D1     		bne	.L18
 153              	.LVL12:
 154              	.LBB16:
 155              	.LBB17:
 156              		.file 2 "..\\..\\mruby_c2\\Design01.cydsn\\c_string.h"
   1:..\..\mruby_c2\Design01.cydsn/c_string.h **** /*! @file
   2:..\..\mruby_c2\Design01.cydsn/c_string.h ****   @brief
   3:..\..\mruby_c2\Design01.cydsn/c_string.h ****   mruby/c String object
   4:..\..\mruby_c2\Design01.cydsn/c_string.h **** 
   5:..\..\mruby_c2\Design01.cydsn/c_string.h ****   <pre>
   6:..\..\mruby_c2\Design01.cydsn/c_string.h ****   Copyright (C) 2015-2018 Kyushu Institute of Technology.
   7:..\..\mruby_c2\Design01.cydsn/c_string.h ****   Copyright (C) 2015-2018 Shimane IT Open-Innovation Center.
   8:..\..\mruby_c2\Design01.cydsn/c_string.h **** 
   9:..\..\mruby_c2\Design01.cydsn/c_string.h ****   This file is distributed under BSD 3-Clause License.
  10:..\..\mruby_c2\Design01.cydsn/c_string.h **** 
  11:..\..\mruby_c2\Design01.cydsn/c_string.h ****   </pre>
  12:..\..\mruby_c2\Design01.cydsn/c_string.h **** */
  13:..\..\mruby_c2\Design01.cydsn/c_string.h **** 
  14:..\..\mruby_c2\Design01.cydsn/c_string.h **** #ifndef MRBC_SRC_C_STRING_H_
  15:..\..\mruby_c2\Design01.cydsn/c_string.h **** #define MRBC_SRC_C_STRING_H_
  16:..\..\mruby_c2\Design01.cydsn/c_string.h **** 
  17:..\..\mruby_c2\Design01.cydsn/c_string.h **** #include <stdint.h>
  18:..\..\mruby_c2\Design01.cydsn/c_string.h **** #include <string.h>
  19:..\..\mruby_c2\Design01.cydsn/c_string.h **** #include "value.h"
  20:..\..\mruby_c2\Design01.cydsn/c_string.h **** 
  21:..\..\mruby_c2\Design01.cydsn/c_string.h **** #ifdef __cplusplus
  22:..\..\mruby_c2\Design01.cydsn/c_string.h **** extern "C" {
  23:..\..\mruby_c2\Design01.cydsn/c_string.h **** #endif
  24:..\..\mruby_c2\Design01.cydsn/c_string.h **** 
  25:..\..\mruby_c2\Design01.cydsn/c_string.h **** //================================================================
  26:..\..\mruby_c2\Design01.cydsn/c_string.h **** /*!@brief
  27:..\..\mruby_c2\Design01.cydsn/c_string.h ****   Define String handle.
  28:..\..\mruby_c2\Design01.cydsn/c_string.h **** */
  29:..\..\mruby_c2\Design01.cydsn/c_string.h **** typedef struct RString {
  30:..\..\mruby_c2\Design01.cydsn/c_string.h ****   MRBC_OBJECT_HEADER;
  31:..\..\mruby_c2\Design01.cydsn/c_string.h **** 
  32:..\..\mruby_c2\Design01.cydsn/c_string.h ****   uint16_t size;	//!< string length.
  33:..\..\mruby_c2\Design01.cydsn/c_string.h ****   uint8_t *data;	//!< pointer to allocated buffer.
  34:..\..\mruby_c2\Design01.cydsn/c_string.h **** 
  35:..\..\mruby_c2\Design01.cydsn/c_string.h **** } mrb_string;
  36:..\..\mruby_c2\Design01.cydsn/c_string.h **** 
  37:..\..\mruby_c2\Design01.cydsn/c_string.h **** 
  38:..\..\mruby_c2\Design01.cydsn/c_string.h **** struct VM;
  39:..\..\mruby_c2\Design01.cydsn/c_string.h **** 
  40:..\..\mruby_c2\Design01.cydsn/c_string.h **** mrb_value mrbc_string_new(struct VM *vm, const void *src, int len);
  41:..\..\mruby_c2\Design01.cydsn/c_string.h **** mrb_value mrbc_string_new_cstr(struct VM *vm, const char *src);
  42:..\..\mruby_c2\Design01.cydsn/c_string.h **** mrb_value mrbc_string_new_alloc(struct VM *vm, void *buf, int len);
  43:..\..\mruby_c2\Design01.cydsn/c_string.h **** void mrbc_string_delete(mrb_value *str);
  44:..\..\mruby_c2\Design01.cydsn/c_string.h **** void mrbc_string_clear_vm_id(mrb_value *str);
  45:..\..\mruby_c2\Design01.cydsn/c_string.h **** mrb_value mrbc_string_dup(struct VM *vm, mrb_value *s1);
  46:..\..\mruby_c2\Design01.cydsn/c_string.h **** mrb_value mrbc_string_add(struct VM *vm, mrb_value *s1, mrb_value *s2);
  47:..\..\mruby_c2\Design01.cydsn/c_string.h **** int mrbc_string_append(mrb_value *s1, mrb_value *s2);
  48:..\..\mruby_c2\Design01.cydsn/c_string.h **** int mrbc_string_index(mrb_value *src, mrb_value *pattern, int offset);
ARM GAS  C:\Users\164\AppData\Local\Temp\ccELK2nm.s 			page 8


  49:..\..\mruby_c2\Design01.cydsn/c_string.h **** int mrbc_string_strip(mrb_value *src, int mode);
  50:..\..\mruby_c2\Design01.cydsn/c_string.h **** int mrbc_string_chomp(mrb_value *src);
  51:..\..\mruby_c2\Design01.cydsn/c_string.h **** void mrbc_init_class_string(struct VM *vm);
  52:..\..\mruby_c2\Design01.cydsn/c_string.h **** 
  53:..\..\mruby_c2\Design01.cydsn/c_string.h **** 
  54:..\..\mruby_c2\Design01.cydsn/c_string.h **** //================================================================
  55:..\..\mruby_c2\Design01.cydsn/c_string.h **** /*! compare
  56:..\..\mruby_c2\Design01.cydsn/c_string.h **** */
  57:..\..\mruby_c2\Design01.cydsn/c_string.h **** static inline int mrbc_string_compare(const mrb_value *v1, const mrb_value *v2)
  58:..\..\mruby_c2\Design01.cydsn/c_string.h **** {
  59:..\..\mruby_c2\Design01.cydsn/c_string.h ****   int len = (v1->string->size < v2->string->size) ?
  60:..\..\mruby_c2\Design01.cydsn/c_string.h ****     v1->string->size : v2->string->size;
  61:..\..\mruby_c2\Design01.cydsn/c_string.h **** 
  62:..\..\mruby_c2\Design01.cydsn/c_string.h ****   int res = memcmp(v1->string->data, v2->string->data, len);
  63:..\..\mruby_c2\Design01.cydsn/c_string.h ****   if( res != 0 ) return res;
  64:..\..\mruby_c2\Design01.cydsn/c_string.h **** 
  65:..\..\mruby_c2\Design01.cydsn/c_string.h ****   return v1->string->size - v2->string->size;
  66:..\..\mruby_c2\Design01.cydsn/c_string.h **** }
  67:..\..\mruby_c2\Design01.cydsn/c_string.h **** 
  68:..\..\mruby_c2\Design01.cydsn/c_string.h **** //================================================================
  69:..\..\mruby_c2\Design01.cydsn/c_string.h **** /*! get size
  70:..\..\mruby_c2\Design01.cydsn/c_string.h **** */
  71:..\..\mruby_c2\Design01.cydsn/c_string.h **** static inline int mrbc_string_size(const mrb_value *str)
  72:..\..\mruby_c2\Design01.cydsn/c_string.h **** {
  73:..\..\mruby_c2\Design01.cydsn/c_string.h ****   return str->string->size;
  74:..\..\mruby_c2\Design01.cydsn/c_string.h **** }
  75:..\..\mruby_c2\Design01.cydsn/c_string.h **** 
  76:..\..\mruby_c2\Design01.cydsn/c_string.h **** //================================================================
  77:..\..\mruby_c2\Design01.cydsn/c_string.h **** /*! get c-language string (char *)
  78:..\..\mruby_c2\Design01.cydsn/c_string.h **** */
  79:..\..\mruby_c2\Design01.cydsn/c_string.h **** static inline char * mrbc_string_cstr(const mrb_value *v)
  80:..\..\mruby_c2\Design01.cydsn/c_string.h **** {
  81:..\..\mruby_c2\Design01.cydsn/c_string.h ****   return (char*)v->string->data;
 157              		.loc 2 81 0
 158 000a 8B69     		ldr	r3, [r1, #24]
 159 000c 9A68     		ldr	r2, [r3, #8]
 160              	.LVL13:
 161              	.LBE17:
 162              	.LBE16:
 161:..\..\mruby_c2\Design01.cydsn/c_uart.c **** 
 163              		.loc 1 161 0
 164 000e 00E0     		b	.L14
 165              	.LVL14:
 166              	.L18:
 157:..\..\mruby_c2\Design01.cydsn/c_uart.c ****   switch( v[1].tt ) {
 167              		.loc 1 157 0
 168 0010 0022     		movs	r2, #0
 169              	.LVL15:
 170              	.L14:
 167:..\..\mruby_c2\Design01.cydsn/c_uart.c ****     UART_HANDLE *handle = *(UART_HANDLE **)v->instance->data;
 171              		.loc 1 167 0
 172 0012 22B1     		cbz	r2, .L13
 173              	.LBB18:
 168:..\..\mruby_c2\Design01.cydsn/c_uart.c ****     uart_puts( handle, s );
 174              		.loc 1 168 0
 175 0014 8B68     		ldr	r3, [r1, #8]
 176              	.LVL16:
ARM GAS  C:\Users\164\AppData\Local\Temp\ccELK2nm.s 			page 9


 169:..\..\mruby_c2\Design01.cydsn/c_uart.c ****   }
 177              		.loc 1 169 0
 178 0016 1146     		mov	r1, r2
 179              	.LVL17:
 180 0018 D868     		ldr	r0, [r3, #12]
 181              	.LVL18:
 182 001a FFF7FEFF 		bl	uart_puts
 183              	.LVL19:
 184              	.L13:
 185 001e 08BD     		pop	{r3, pc}
 186              	.LBE18:
 187              		.cfi_endproc
 188              	.LFE79:
 189              		.size	c_uart_puts, .-c_uart_puts
 190              		.section	.text.c_uart_gets,"ax",%progbits
 191              		.align	2
 192              		.thumb
 193              		.thumb_func
 194              		.type	c_uart_gets, %function
 195              	c_uart_gets:
 196              	.LFB78:
 130:..\..\mruby_c2\Design01.cydsn/c_uart.c ****   mrb_value ret;
 197              		.loc 1 130 0
 198              		.cfi_startproc
 199              		@ args = 0, pretend = 0, frame = 48
 200              		@ frame_needed = 0, uses_anonymous_args = 0
 201              	.LVL20:
 202 0000 2DE9F041 		push	{r4, r5, r6, r7, r8, lr}
 203              		.cfi_def_cfa_offset 24
 204              		.cfi_offset 4, -24
 205              		.cfi_offset 5, -20
 206              		.cfi_offset 6, -16
 207              		.cfi_offset 7, -12
 208              		.cfi_offset 8, -8
 209              		.cfi_offset 14, -4
 210 0004 8CB0     		sub	sp, sp, #48
 211              		.cfi_def_cfa_offset 72
 212 0006 0646     		mov	r6, r0
 213 0008 0C46     		mov	r4, r1
 132:..\..\mruby_c2\Design01.cydsn/c_uart.c **** 
 214              		.loc 1 132 0
 215 000a 8B68     		ldr	r3, [r1, #8]
 216 000c DD68     		ldr	r5, [r3, #12]
 217              	.LVL21:
 134:..\..\mruby_c2\Design01.cydsn/c_uart.c ****     ret = mrb_nil_value();
 218              		.loc 1 134 0
 219 000e 2846     		mov	r0, r5
 220              	.LVL22:
 221 0010 FFF7FEFF 		bl	uart_can_read_line
 222              	.LVL23:
 223 0014 68B9     		cbnz	r0, .L21
 224              	.LBB19:
 225              	.LBB20:
 226              		.file 3 "..\\..\\mruby_c2\\Design01.cydsn\\value.h"
   1:..\..\mruby_c2\Design01.cydsn/value.h **** /*! @file
   2:..\..\mruby_c2\Design01.cydsn/value.h ****   @brief
   3:..\..\mruby_c2\Design01.cydsn/value.h ****   mruby/c value definitions
ARM GAS  C:\Users\164\AppData\Local\Temp\ccELK2nm.s 			page 10


   4:..\..\mruby_c2\Design01.cydsn/value.h **** 
   5:..\..\mruby_c2\Design01.cydsn/value.h ****   <pre>
   6:..\..\mruby_c2\Design01.cydsn/value.h ****   Copyright (C) 2015-2018 Kyushu Institute of Technology.
   7:..\..\mruby_c2\Design01.cydsn/value.h ****   Copyright (C) 2015-2018 Shimane IT Open-Innovation Center.
   8:..\..\mruby_c2\Design01.cydsn/value.h **** 
   9:..\..\mruby_c2\Design01.cydsn/value.h ****   This file is distributed under BSD 3-Clause License.
  10:..\..\mruby_c2\Design01.cydsn/value.h **** 
  11:..\..\mruby_c2\Design01.cydsn/value.h **** 
  12:..\..\mruby_c2\Design01.cydsn/value.h ****   </pre>
  13:..\..\mruby_c2\Design01.cydsn/value.h **** */
  14:..\..\mruby_c2\Design01.cydsn/value.h **** 
  15:..\..\mruby_c2\Design01.cydsn/value.h **** #ifndef MRBC_SRC_VALUE_H_
  16:..\..\mruby_c2\Design01.cydsn/value.h **** #define MRBC_SRC_VALUE_H_
  17:..\..\mruby_c2\Design01.cydsn/value.h **** 
  18:..\..\mruby_c2\Design01.cydsn/value.h **** #include <stdint.h>
  19:..\..\mruby_c2\Design01.cydsn/value.h **** 
  20:..\..\mruby_c2\Design01.cydsn/value.h **** #ifdef __cplusplus
  21:..\..\mruby_c2\Design01.cydsn/value.h **** extern "C" {
  22:..\..\mruby_c2\Design01.cydsn/value.h **** #endif
  23:..\..\mruby_c2\Design01.cydsn/value.h **** 
  24:..\..\mruby_c2\Design01.cydsn/value.h **** 
  25:..\..\mruby_c2\Design01.cydsn/value.h **** // mrb types
  26:..\..\mruby_c2\Design01.cydsn/value.h **** //typedef float mrb_float;
  27:..\..\mruby_c2\Design01.cydsn/value.h **** //typedef int32_t mrb_int;
  28:..\..\mruby_c2\Design01.cydsn/value.h **** typedef int16_t mrb_sym;
  29:..\..\mruby_c2\Design01.cydsn/value.h **** 
  30:..\..\mruby_c2\Design01.cydsn/value.h **** /* aspec access ? */
  31:..\..\mruby_c2\Design01.cydsn/value.h **** #define MRB_ASPEC_REQ(a)          (((a) >> 18) & 0x1f)
  32:..\..\mruby_c2\Design01.cydsn/value.h **** #define MRB_ASPEC_OPT(a)          (((a) >> 13) & 0x1f)
  33:..\..\mruby_c2\Design01.cydsn/value.h **** #define MRB_ASPEC_REST(a)         (((a) >> 12) & 0x1)
  34:..\..\mruby_c2\Design01.cydsn/value.h **** #define MRB_ASPEC_POST(a)         (((a) >> 7) & 0x1f)
  35:..\..\mruby_c2\Design01.cydsn/value.h **** 
  36:..\..\mruby_c2\Design01.cydsn/value.h **** #define MRBC_OBJECT_HEADER \
  37:..\..\mruby_c2\Design01.cydsn/value.h ****   uint16_t ref_count; \
  38:..\..\mruby_c2\Design01.cydsn/value.h ****   mrb_vtype tt : 8  // TODO: for debug use only.
  39:..\..\mruby_c2\Design01.cydsn/value.h **** 
  40:..\..\mruby_c2\Design01.cydsn/value.h **** 
  41:..\..\mruby_c2\Design01.cydsn/value.h **** struct VM;
  42:..\..\mruby_c2\Design01.cydsn/value.h **** struct IREP;
  43:..\..\mruby_c2\Design01.cydsn/value.h **** struct RObject;
  44:..\..\mruby_c2\Design01.cydsn/value.h **** typedef void (*mrb_func_t)(struct VM *vm, struct RObject *v, int argc);
  45:..\..\mruby_c2\Design01.cydsn/value.h **** 
  46:..\..\mruby_c2\Design01.cydsn/value.h **** 
  47:..\..\mruby_c2\Design01.cydsn/value.h **** //================================================================
  48:..\..\mruby_c2\Design01.cydsn/value.h **** /*!@brief
  49:..\..\mruby_c2\Design01.cydsn/value.h ****   define the value type.
  50:..\..\mruby_c2\Design01.cydsn/value.h **** */
  51:..\..\mruby_c2\Design01.cydsn/value.h **** typedef enum {
  52:..\..\mruby_c2\Design01.cydsn/value.h ****   /* internal use */
  53:..\..\mruby_c2\Design01.cydsn/value.h ****   MRB_TT_HANDLE = -1,
  54:..\..\mruby_c2\Design01.cydsn/value.h ****   /* primitive */
  55:..\..\mruby_c2\Design01.cydsn/value.h ****   MRB_TT_EMPTY = 0,
  56:..\..\mruby_c2\Design01.cydsn/value.h ****   MRB_TT_NIL,
  57:..\..\mruby_c2\Design01.cydsn/value.h ****   MRB_TT_FALSE,		// (note) true/false threshold. see op_jmpif
  58:..\..\mruby_c2\Design01.cydsn/value.h **** 
  59:..\..\mruby_c2\Design01.cydsn/value.h ****   MRB_TT_TRUE,
  60:..\..\mruby_c2\Design01.cydsn/value.h ****   MRB_TT_FIXNUM,
ARM GAS  C:\Users\164\AppData\Local\Temp\ccELK2nm.s 			page 11


  61:..\..\mruby_c2\Design01.cydsn/value.h ****   MRB_TT_FLOAT,
  62:..\..\mruby_c2\Design01.cydsn/value.h ****   MRB_TT_SYMBOL,
  63:..\..\mruby_c2\Design01.cydsn/value.h ****   MRB_TT_CLASS,
  64:..\..\mruby_c2\Design01.cydsn/value.h **** 
  65:..\..\mruby_c2\Design01.cydsn/value.h ****   /* non-primitive */
  66:..\..\mruby_c2\Design01.cydsn/value.h ****   MRB_TT_OBJECT = 20,
  67:..\..\mruby_c2\Design01.cydsn/value.h ****   MRB_TT_PROC,
  68:..\..\mruby_c2\Design01.cydsn/value.h ****   MRB_TT_ARRAY,
  69:..\..\mruby_c2\Design01.cydsn/value.h ****   MRB_TT_STRING,
  70:..\..\mruby_c2\Design01.cydsn/value.h ****   MRB_TT_RANGE,
  71:..\..\mruby_c2\Design01.cydsn/value.h ****   MRB_TT_HASH,
  72:..\..\mruby_c2\Design01.cydsn/value.h **** 
  73:..\..\mruby_c2\Design01.cydsn/value.h **** } mrb_vtype;
  74:..\..\mruby_c2\Design01.cydsn/value.h **** 
  75:..\..\mruby_c2\Design01.cydsn/value.h **** 
  76:..\..\mruby_c2\Design01.cydsn/value.h **** //================================================================
  77:..\..\mruby_c2\Design01.cydsn/value.h **** /*!@brief
  78:..\..\mruby_c2\Design01.cydsn/value.h ****   define the error code. (BETA TEST)
  79:..\..\mruby_c2\Design01.cydsn/value.h **** */
  80:..\..\mruby_c2\Design01.cydsn/value.h **** typedef enum {
  81:..\..\mruby_c2\Design01.cydsn/value.h ****   E_NOMEMORY_ERROR = 1,
  82:..\..\mruby_c2\Design01.cydsn/value.h ****   E_RUNTIME_ERROR,
  83:..\..\mruby_c2\Design01.cydsn/value.h ****   E_TYPE_ERROR,
  84:..\..\mruby_c2\Design01.cydsn/value.h ****   E_ARGUMENT_ERROR,
  85:..\..\mruby_c2\Design01.cydsn/value.h ****   E_INDEX_ERROR,
  86:..\..\mruby_c2\Design01.cydsn/value.h ****   E_RANGE_ERROR,
  87:..\..\mruby_c2\Design01.cydsn/value.h ****   E_NAME_ERROR,
  88:..\..\mruby_c2\Design01.cydsn/value.h ****   E_NOMETHOD_ERROR,
  89:..\..\mruby_c2\Design01.cydsn/value.h ****   E_SCRIPT_ERROR,
  90:..\..\mruby_c2\Design01.cydsn/value.h ****   E_SYNTAX_ERROR,
  91:..\..\mruby_c2\Design01.cydsn/value.h ****   E_LOCALJUMP_ERROR,
  92:..\..\mruby_c2\Design01.cydsn/value.h ****   E_REGEXP_ERROR,
  93:..\..\mruby_c2\Design01.cydsn/value.h ****   E_NOTIMP_ERROR,
  94:..\..\mruby_c2\Design01.cydsn/value.h ****   E_FLOATDOMAIN_ERROR,
  95:..\..\mruby_c2\Design01.cydsn/value.h ****   E_KEY_ERROR,
  96:..\..\mruby_c2\Design01.cydsn/value.h **** } mrb_error_code;
  97:..\..\mruby_c2\Design01.cydsn/value.h **** 
  98:..\..\mruby_c2\Design01.cydsn/value.h **** 
  99:..\..\mruby_c2\Design01.cydsn/value.h **** 
 100:..\..\mruby_c2\Design01.cydsn/value.h **** //================================================================
 101:..\..\mruby_c2\Design01.cydsn/value.h **** /*!@brief
 102:..\..\mruby_c2\Design01.cydsn/value.h ****   mruby/c value object.
 103:..\..\mruby_c2\Design01.cydsn/value.h **** */
 104:..\..\mruby_c2\Design01.cydsn/value.h **** typedef struct RObject {
 105:..\..\mruby_c2\Design01.cydsn/value.h ****   mrb_vtype tt : 8;
 106:..\..\mruby_c2\Design01.cydsn/value.h ****   union {
 107:..\..\mruby_c2\Design01.cydsn/value.h ****     int32_t i;			// MRB_TT_FIXNUM, SYMBOL
 108:..\..\mruby_c2\Design01.cydsn/value.h **** #if MRBC_USE_FLOAT
 109:..\..\mruby_c2\Design01.cydsn/value.h ****     double d;			// MRB_TT_FLOAT
 110:..\..\mruby_c2\Design01.cydsn/value.h **** #endif
 111:..\..\mruby_c2\Design01.cydsn/value.h ****     struct RClass *cls;		// MRB_TT_CLASS
 112:..\..\mruby_c2\Design01.cydsn/value.h ****     struct RObject *handle;	// handle to objects
 113:..\..\mruby_c2\Design01.cydsn/value.h ****     struct RInstance *instance;	// MRB_TT_OBJECT
 114:..\..\mruby_c2\Design01.cydsn/value.h ****     struct RProc *proc;		// MRB_TT_PROC
 115:..\..\mruby_c2\Design01.cydsn/value.h ****     struct RArray *array;	// MRB_TT_ARRAY
 116:..\..\mruby_c2\Design01.cydsn/value.h ****     struct RString *string;	// MRB_TT_STRING
 117:..\..\mruby_c2\Design01.cydsn/value.h ****     const char *str;		// C-string (only loader use.)
ARM GAS  C:\Users\164\AppData\Local\Temp\ccELK2nm.s 			page 12


 118:..\..\mruby_c2\Design01.cydsn/value.h ****     struct RRange *range;	// MRB_TT_RANGE
 119:..\..\mruby_c2\Design01.cydsn/value.h ****     struct RHash *hash;		// MRB_TT_HASH
 120:..\..\mruby_c2\Design01.cydsn/value.h ****   };
 121:..\..\mruby_c2\Design01.cydsn/value.h **** } mrb_object;
 122:..\..\mruby_c2\Design01.cydsn/value.h **** typedef struct RObject mrb_value;
 123:..\..\mruby_c2\Design01.cydsn/value.h **** 
 124:..\..\mruby_c2\Design01.cydsn/value.h **** 
 125:..\..\mruby_c2\Design01.cydsn/value.h **** //================================================================
 126:..\..\mruby_c2\Design01.cydsn/value.h **** /*!@brief
 127:..\..\mruby_c2\Design01.cydsn/value.h ****   mruby/c class object.
 128:..\..\mruby_c2\Design01.cydsn/value.h **** */
 129:..\..\mruby_c2\Design01.cydsn/value.h **** typedef struct RClass {
 130:..\..\mruby_c2\Design01.cydsn/value.h ****   mrb_sym sym_id;	// class name
 131:..\..\mruby_c2\Design01.cydsn/value.h **** #ifdef MRBC_DEBUG
 132:..\..\mruby_c2\Design01.cydsn/value.h ****   const char *names;	// for debug. delete soon.
 133:..\..\mruby_c2\Design01.cydsn/value.h **** #endif
 134:..\..\mruby_c2\Design01.cydsn/value.h ****   struct RClass *super;	// mrbc_class[super]
 135:..\..\mruby_c2\Design01.cydsn/value.h ****   struct RProc *procs;	// mrbc_proc[rprocs], linked list
 136:..\..\mruby_c2\Design01.cydsn/value.h **** } mrb_class;
 137:..\..\mruby_c2\Design01.cydsn/value.h **** 
 138:..\..\mruby_c2\Design01.cydsn/value.h **** 
 139:..\..\mruby_c2\Design01.cydsn/value.h **** //================================================================
 140:..\..\mruby_c2\Design01.cydsn/value.h **** /*!@brief
 141:..\..\mruby_c2\Design01.cydsn/value.h ****   mruby/c instance object.
 142:..\..\mruby_c2\Design01.cydsn/value.h **** */
 143:..\..\mruby_c2\Design01.cydsn/value.h **** typedef struct RInstance {
 144:..\..\mruby_c2\Design01.cydsn/value.h ****   MRBC_OBJECT_HEADER;
 145:..\..\mruby_c2\Design01.cydsn/value.h **** 
 146:..\..\mruby_c2\Design01.cydsn/value.h ****   struct RClass *cls;
 147:..\..\mruby_c2\Design01.cydsn/value.h ****   struct RKeyValueHandle *ivar;
 148:..\..\mruby_c2\Design01.cydsn/value.h ****   uint8_t data[];
 149:..\..\mruby_c2\Design01.cydsn/value.h **** } mrb_instance;
 150:..\..\mruby_c2\Design01.cydsn/value.h **** 
 151:..\..\mruby_c2\Design01.cydsn/value.h **** 
 152:..\..\mruby_c2\Design01.cydsn/value.h **** //================================================================
 153:..\..\mruby_c2\Design01.cydsn/value.h **** /*!@brief
 154:..\..\mruby_c2\Design01.cydsn/value.h ****   mruby/c proc object.
 155:..\..\mruby_c2\Design01.cydsn/value.h **** */
 156:..\..\mruby_c2\Design01.cydsn/value.h **** typedef struct RProc {
 157:..\..\mruby_c2\Design01.cydsn/value.h ****   MRBC_OBJECT_HEADER;
 158:..\..\mruby_c2\Design01.cydsn/value.h **** 
 159:..\..\mruby_c2\Design01.cydsn/value.h ****   unsigned int c_func : 1;	// 0:IREP, 1:C Func
 160:..\..\mruby_c2\Design01.cydsn/value.h ****   mrb_sym sym_id;
 161:..\..\mruby_c2\Design01.cydsn/value.h **** #ifdef MRBC_DEBUG
 162:..\..\mruby_c2\Design01.cydsn/value.h ****   const char *names;		// for debug; delete soon
 163:..\..\mruby_c2\Design01.cydsn/value.h **** #endif
 164:..\..\mruby_c2\Design01.cydsn/value.h ****   struct RProc *next;
 165:..\..\mruby_c2\Design01.cydsn/value.h ****   union {
 166:..\..\mruby_c2\Design01.cydsn/value.h ****     struct IREP *irep;
 167:..\..\mruby_c2\Design01.cydsn/value.h ****     mrb_func_t func;
 168:..\..\mruby_c2\Design01.cydsn/value.h ****   };
 169:..\..\mruby_c2\Design01.cydsn/value.h **** } mrb_proc;
 170:..\..\mruby_c2\Design01.cydsn/value.h **** 
 171:..\..\mruby_c2\Design01.cydsn/value.h **** 
 172:..\..\mruby_c2\Design01.cydsn/value.h **** 
 173:..\..\mruby_c2\Design01.cydsn/value.h **** // for C call
 174:..\..\mruby_c2\Design01.cydsn/value.h **** #define SET_INT_RETURN(n)	(mrbc_release(v), v[0].tt=MRB_TT_FIXNUM, v[0].i=(n))
ARM GAS  C:\Users\164\AppData\Local\Temp\ccELK2nm.s 			page 13


 175:..\..\mruby_c2\Design01.cydsn/value.h **** #define SET_NIL_RETURN()	(mrbc_release(v), v[0].tt=MRB_TT_NIL)
 176:..\..\mruby_c2\Design01.cydsn/value.h **** #define SET_FLOAT_RETURN(n)	(mrbc_release(v), v[0].tt=MRB_TT_FLOAT, v[0].d=(n))
 177:..\..\mruby_c2\Design01.cydsn/value.h **** #define SET_FALSE_RETURN()	(mrbc_release(v), v[0].tt=MRB_TT_FALSE)
 178:..\..\mruby_c2\Design01.cydsn/value.h **** #define SET_TRUE_RETURN()	(mrbc_release(v), v[0].tt=MRB_TT_TRUE)
 179:..\..\mruby_c2\Design01.cydsn/value.h **** #define SET_RETURN(n)		(mrbc_release(v), v[0]=(n))
 180:..\..\mruby_c2\Design01.cydsn/value.h **** 
 181:..\..\mruby_c2\Design01.cydsn/value.h **** #define GET_TT_ARG(n)		(v[(n)].tt)
 182:..\..\mruby_c2\Design01.cydsn/value.h **** #define GET_INT_ARG(n)		(v[(n)].i)
 183:..\..\mruby_c2\Design01.cydsn/value.h **** #define GET_ARY_ARG(n)		(v[(n)])
 184:..\..\mruby_c2\Design01.cydsn/value.h **** #define GET_ARG(n)		(v[(n)])
 185:..\..\mruby_c2\Design01.cydsn/value.h **** #define GET_FLOAT_ARG(n)	(v[(n)].d)
 186:..\..\mruby_c2\Design01.cydsn/value.h **** #define GET_STRING_ARG(n)	(v[(n)].string->data)
 187:..\..\mruby_c2\Design01.cydsn/value.h **** 
 188:..\..\mruby_c2\Design01.cydsn/value.h **** 
 189:..\..\mruby_c2\Design01.cydsn/value.h **** 
 190:..\..\mruby_c2\Design01.cydsn/value.h **** mrb_object *mrbc_obj_alloc(struct VM *vm, mrb_vtype tt);
 191:..\..\mruby_c2\Design01.cydsn/value.h **** mrb_proc *mrbc_rproc_alloc(struct VM *vm, const char *name);
 192:..\..\mruby_c2\Design01.cydsn/value.h **** int mrbc_compare(const mrb_value *v1, const mrb_value *v2);
 193:..\..\mruby_c2\Design01.cydsn/value.h **** void mrbc_dup(mrb_value *v);
 194:..\..\mruby_c2\Design01.cydsn/value.h **** void mrbc_release(mrb_value *v);
 195:..\..\mruby_c2\Design01.cydsn/value.h **** void mrbc_dec_ref_counter(mrb_value *v);
 196:..\..\mruby_c2\Design01.cydsn/value.h **** void mrbc_clear_vm_id(mrb_value *v);
 197:..\..\mruby_c2\Design01.cydsn/value.h **** int32_t mrbc_atoi(const char *s, int base);
 198:..\..\mruby_c2\Design01.cydsn/value.h **** struct IREP *mrbc_irep_alloc(struct VM *vm);
 199:..\..\mruby_c2\Design01.cydsn/value.h **** void mrbc_irep_free(struct IREP *irep);
 200:..\..\mruby_c2\Design01.cydsn/value.h **** mrb_value mrbc_instance_new(struct VM *vm, mrb_class *cls, int size);
 201:..\..\mruby_c2\Design01.cydsn/value.h **** void mrbc_instance_delete(mrb_value *v);
 202:..\..\mruby_c2\Design01.cydsn/value.h **** void mrbc_instance_setiv(mrb_object *obj, mrb_sym sym_id, mrb_value *v);
 203:..\..\mruby_c2\Design01.cydsn/value.h **** mrb_value mrbc_instance_getiv(mrb_object *obj, mrb_sym sym_id);
 204:..\..\mruby_c2\Design01.cydsn/value.h **** 
 205:..\..\mruby_c2\Design01.cydsn/value.h **** 
 206:..\..\mruby_c2\Design01.cydsn/value.h **** 
 207:..\..\mruby_c2\Design01.cydsn/value.h **** //================================================================
 208:..\..\mruby_c2\Design01.cydsn/value.h **** /*!@brief
 209:..\..\mruby_c2\Design01.cydsn/value.h ****   Returns a fixnum in mruby/c.
 210:..\..\mruby_c2\Design01.cydsn/value.h **** 
 211:..\..\mruby_c2\Design01.cydsn/value.h ****   @param  n	int value
 212:..\..\mruby_c2\Design01.cydsn/value.h ****   @return	mrb_value of type fixnum.
 213:..\..\mruby_c2\Design01.cydsn/value.h **** */
 214:..\..\mruby_c2\Design01.cydsn/value.h **** static inline mrb_value mrb_fixnum_value( int32_t n )
 215:..\..\mruby_c2\Design01.cydsn/value.h **** {
 216:..\..\mruby_c2\Design01.cydsn/value.h ****   mrb_value value = {.tt = MRB_TT_FIXNUM};
 217:..\..\mruby_c2\Design01.cydsn/value.h ****   value.i = n;
 218:..\..\mruby_c2\Design01.cydsn/value.h ****   return value;
 219:..\..\mruby_c2\Design01.cydsn/value.h **** }
 220:..\..\mruby_c2\Design01.cydsn/value.h **** 
 221:..\..\mruby_c2\Design01.cydsn/value.h **** 
 222:..\..\mruby_c2\Design01.cydsn/value.h **** #if MRBC_USE_FLOAT
 223:..\..\mruby_c2\Design01.cydsn/value.h **** //================================================================
 224:..\..\mruby_c2\Design01.cydsn/value.h **** /*!@brief
 225:..\..\mruby_c2\Design01.cydsn/value.h ****   Returns a float in mruby/c.
 226:..\..\mruby_c2\Design01.cydsn/value.h **** 
 227:..\..\mruby_c2\Design01.cydsn/value.h ****   @param  n	dluble value
 228:..\..\mruby_c2\Design01.cydsn/value.h ****   @return	mrb_value of type float.
 229:..\..\mruby_c2\Design01.cydsn/value.h **** */
 230:..\..\mruby_c2\Design01.cydsn/value.h **** static inline mrb_value mrb_float_value( double n )
 231:..\..\mruby_c2\Design01.cydsn/value.h **** {
ARM GAS  C:\Users\164\AppData\Local\Temp\ccELK2nm.s 			page 14


 232:..\..\mruby_c2\Design01.cydsn/value.h ****   mrb_value value = {.tt = MRB_TT_FLOAT};
 233:..\..\mruby_c2\Design01.cydsn/value.h ****   value.d = n;
 234:..\..\mruby_c2\Design01.cydsn/value.h ****   return value;
 235:..\..\mruby_c2\Design01.cydsn/value.h **** }
 236:..\..\mruby_c2\Design01.cydsn/value.h **** #endif
 237:..\..\mruby_c2\Design01.cydsn/value.h **** 
 238:..\..\mruby_c2\Design01.cydsn/value.h **** 
 239:..\..\mruby_c2\Design01.cydsn/value.h **** //================================================================
 240:..\..\mruby_c2\Design01.cydsn/value.h **** /*!@brief
 241:..\..\mruby_c2\Design01.cydsn/value.h ****   Returns a nil in mruby/c.
 242:..\..\mruby_c2\Design01.cydsn/value.h **** 
 243:..\..\mruby_c2\Design01.cydsn/value.h ****   @return	mrb_value of type nil.
 244:..\..\mruby_c2\Design01.cydsn/value.h **** */
 245:..\..\mruby_c2\Design01.cydsn/value.h **** static inline mrb_value mrb_nil_value(void)
 246:..\..\mruby_c2\Design01.cydsn/value.h **** {
 247:..\..\mruby_c2\Design01.cydsn/value.h ****   mrb_value value = {.tt = MRB_TT_NIL};
 227              		.loc 3 247 0
 228 0016 04AB     		add	r3, sp, #16
 229 0018 0022     		movs	r2, #0
 230 001a 0492     		str	r2, [sp, #16]
 231 001c 0592     		str	r2, [sp, #20]
 232 001e 0692     		str	r2, [sp, #24]
 233 0020 0792     		str	r2, [sp, #28]
 234 0022 0122     		movs	r2, #1
 235 0024 8DF81020 		strb	r2, [sp, #16]
 248:..\..\mruby_c2\Design01.cydsn/value.h ****   return value;
 236              		.loc 3 248 0
 237 0028 0FCB     		ldmia	r3, {r0, r1, r2, r3}
 238 002a 0CAD     		add	r5, sp, #48
 239              	.LVL24:
 240 002c 05E90F00 		stmdb	r5, {r0, r1, r2, r3}
 241 0030 1FE0     		b	.L22
 242              	.LVL25:
 243              	.L21:
 244              	.LBE20:
 245              	.LBE19:
 139:..\..\mruby_c2\Design01.cydsn/c_uart.c ****   char *buf = mrbc_alloc( vm, len );
 246              		.loc 1 139 0
 247 0032 2846     		mov	r0, r5
 248 0034 FFF7FEFF 		bl	uart_bytes_available
 249              	.LVL26:
 250 0038 00F10108 		add	r8, r0, #1
 251              	.LVL27:
 140:..\..\mruby_c2\Design01.cydsn/c_uart.c **** 
 252              		.loc 1 140 0
 253 003c 4146     		mov	r1, r8
 254 003e 3046     		mov	r0, r6
 255 0040 FFF7FEFF 		bl	mrbc_alloc
 256              	.LVL28:
 257 0044 0746     		mov	r7, r0
 258              	.LVL29:
 142:..\..\mruby_c2\Design01.cydsn/c_uart.c ****   mrbc_realloc( vm, buf, len );
 259              		.loc 1 142 0
 260 0046 4246     		mov	r2, r8
 261 0048 0146     		mov	r1, r0
 262 004a 2846     		mov	r0, r5
 263              	.LVL30:
ARM GAS  C:\Users\164\AppData\Local\Temp\ccELK2nm.s 			page 15


 264 004c FFF7FEFF 		bl	uart_gets
 265              	.LVL31:
 266 0050 8046     		mov	r8, r0
 267              	.LVL32:
 143:..\..\mruby_c2\Design01.cydsn/c_uart.c **** 
 268              		.loc 1 143 0
 269 0052 0246     		mov	r2, r0
 270 0054 3946     		mov	r1, r7
 271 0056 3046     		mov	r0, r6
 272              	.LVL33:
 273 0058 FFF7FEFF 		bl	mrbc_realloc
 274              	.LVL34:
 145:..\..\mruby_c2\Design01.cydsn/c_uart.c **** 
 275              		.loc 1 145 0
 276 005c 4346     		mov	r3, r8
 277 005e 3A46     		mov	r2, r7
 278 0060 3146     		mov	r1, r6
 279 0062 6846     		mov	r0, sp
 280 0064 FFF7FEFF 		bl	mrbc_string_new_alloc
 281              	.LVL35:
 282 0068 9DE80F00 		ldmia	sp, {r0, r1, r2, r3}
 283 006c 0CAD     		add	r5, sp, #48
 284              	.LVL36:
 285 006e 05E90F00 		stmdb	r5, {r0, r1, r2, r3}
 286              	.LVL37:
 287              	.L22:
 148:..\..\mruby_c2\Design01.cydsn/c_uart.c **** }
 288              		.loc 1 148 0
 289 0072 2046     		mov	r0, r4
 290 0074 FFF7FEFF 		bl	mrbc_release
 291              	.LVL38:
 292 0078 0CAB     		add	r3, sp, #48
 293 007a 13E90F00 		ldmdb	r3, {r0, r1, r2, r3}
 294 007e 84E80F00 		stmia	r4, {r0, r1, r2, r3}
 149:..\..\mruby_c2\Design01.cydsn/c_uart.c **** 
 295              		.loc 1 149 0
 296 0082 0CB0     		add	sp, sp, #48
 297              		.cfi_def_cfa_offset 24
 298              		@ sp needed
 299 0084 BDE8F081 		pop	{r4, r5, r6, r7, r8, pc}
 300              		.cfi_endproc
 301              	.LFE78:
 302              		.size	c_uart_gets, .-c_uart_gets
 303              		.section	.text.c_uart_write,"ax",%progbits
 304              		.align	2
 305              		.thumb
 306              		.thumb_func
 307              		.type	c_uart_write, %function
 308              	c_uart_write:
 309              	.LFB77:
 109:..\..\mruby_c2\Design01.cydsn/c_uart.c ****   UART_HANDLE *handle = *(UART_HANDLE **)v->instance->data;
 310              		.loc 1 109 0
 311              		.cfi_startproc
 312              		@ args = 0, pretend = 0, frame = 0
 313              		@ frame_needed = 0, uses_anonymous_args = 0
 314              	.LVL39:
 315 0000 38B5     		push	{r3, r4, r5, lr}
ARM GAS  C:\Users\164\AppData\Local\Temp\ccELK2nm.s 			page 16


 316              		.cfi_def_cfa_offset 16
 317              		.cfi_offset 3, -16
 318              		.cfi_offset 4, -12
 319              		.cfi_offset 5, -8
 320              		.cfi_offset 14, -4
 321 0002 0C46     		mov	r4, r1
 110:..\..\mruby_c2\Design01.cydsn/c_uart.c **** 
 322              		.loc 1 110 0
 323 0004 8B68     		ldr	r3, [r1, #8]
 324 0006 D868     		ldr	r0, [r3, #12]
 325              	.LVL40:
 112:..\..\mruby_c2\Design01.cydsn/c_uart.c ****   case MRB_TT_STRING: {
 326              		.loc 1 112 0
 327 0008 91F91030 		ldrsb	r3, [r1, #16]
 328 000c 172B     		cmp	r3, #23
 329 000e 0CD1     		bne	.L28
 330              	.LVL41:
 331              	.LBB21:
 332              	.LBB22:
 333              	.LBB23:
 334              		.loc 2 81 0
 335 0010 8B69     		ldr	r3, [r1, #24]
 336              	.LVL42:
 337              	.LBE23:
 338              	.LBE22:
 114:..\..\mruby_c2\Design01.cydsn/c_uart.c **** 			mrbc_string_cstr(&v[1]), mrbc_string_size(&v[1]) );
 339              		.loc 1 114 0
 340 0012 9A88     		ldrh	r2, [r3, #4]
 341              	.LVL43:
 342 0014 9968     		ldr	r1, [r3, #8]
 343              	.LVL44:
 344 0016 FFF7FEFF 		bl	uart_write
 345              	.LVL45:
 346 001a 0546     		mov	r5, r0
 347              	.LVL46:
 116:..\..\mruby_c2\Design01.cydsn/c_uart.c ****   } break;
 348              		.loc 1 116 0
 349 001c 2046     		mov	r0, r4
 350              	.LVL47:
 351 001e FFF7FEFF 		bl	mrbc_release
 352              	.LVL48:
 353 0022 0423     		movs	r3, #4
 354 0024 2370     		strb	r3, [r4]
 355 0026 A560     		str	r5, [r4, #8]
 356              	.LBE21:
 117:..\..\mruby_c2\Design01.cydsn/c_uart.c **** 
 357              		.loc 1 117 0
 358 0028 38BD     		pop	{r3, r4, r5, pc}
 359              	.LVL49:
 360              	.L28:
 120:..\..\mruby_c2\Design01.cydsn/c_uart.c ****     break;
 361              		.loc 1 120 0
 362 002a 0846     		mov	r0, r1
 363              	.LVL50:
 364 002c FFF7FEFF 		bl	mrbc_release
 365              	.LVL51:
 366 0030 0123     		movs	r3, #1
ARM GAS  C:\Users\164\AppData\Local\Temp\ccELK2nm.s 			page 17


 367 0032 2370     		strb	r3, [r4]
 368 0034 38BD     		pop	{r3, r4, r5, pc}
 369              		.cfi_endproc
 370              	.LFE77:
 371              		.size	c_uart_write, .-c_uart_write
 372 0036 00BF     		.section	.text.c_uart_read,"ax",%progbits
 373              		.align	2
 374              		.thumb
 375              		.thumb_func
 376              		.type	c_uart_read, %function
 377              	c_uart_read:
 378              	.LFB76:
  84:..\..\mruby_c2\Design01.cydsn/c_uart.c ****   mrb_value ret;
 379              		.loc 1 84 0
 380              		.cfi_startproc
 381              		@ args = 0, pretend = 0, frame = 48
 382              		@ frame_needed = 0, uses_anonymous_args = 0
 383              	.LVL52:
 384 0000 2DE9F041 		push	{r4, r5, r6, r7, r8, lr}
 385              		.cfi_def_cfa_offset 24
 386              		.cfi_offset 4, -24
 387              		.cfi_offset 5, -20
 388              		.cfi_offset 6, -16
 389              		.cfi_offset 7, -12
 390              		.cfi_offset 8, -8
 391              		.cfi_offset 14, -4
 392 0004 8CB0     		sub	sp, sp, #48
 393              		.cfi_def_cfa_offset 72
 394 0006 0746     		mov	r7, r0
 395 0008 0C46     		mov	r4, r1
  86:..\..\mruby_c2\Design01.cydsn/c_uart.c ****   int need_length = GET_INT_ARG(1);
 396              		.loc 1 86 0
 397 000a 8B68     		ldr	r3, [r1, #8]
 398 000c DE68     		ldr	r6, [r3, #12]
 399              	.LVL53:
  87:..\..\mruby_c2\Design01.cydsn/c_uart.c **** 
 400              		.loc 1 87 0
 401 000e 8D69     		ldr	r5, [r1, #24]
 402              	.LVL54:
  89:..\..\mruby_c2\Design01.cydsn/c_uart.c ****     ret = mrb_nil_value();
 403              		.loc 1 89 0
 404 0010 3046     		mov	r0, r6
 405              	.LVL55:
 406 0012 FFF7FEFF 		bl	uart_bytes_available
 407              	.LVL56:
 408 0016 8542     		cmp	r5, r0
 409 0018 0DDD     		ble	.L31
 410              	.LBB24:
 411              	.LBB25:
 247:..\..\mruby_c2\Design01.cydsn/value.h ****   return value;
 412              		.loc 3 247 0
 413 001a 04AB     		add	r3, sp, #16
 414 001c 0022     		movs	r2, #0
 415 001e 0492     		str	r2, [sp, #16]
 416 0020 0592     		str	r2, [sp, #20]
 417 0022 0692     		str	r2, [sp, #24]
 418 0024 0792     		str	r2, [sp, #28]
ARM GAS  C:\Users\164\AppData\Local\Temp\ccELK2nm.s 			page 18


 419 0026 0122     		movs	r2, #1
 420 0028 8DF81020 		strb	r2, [sp, #16]
 421              		.loc 3 248 0
 422 002c 0FCB     		ldmia	r3, {r0, r1, r2, r3}
 423 002e 0CAD     		add	r5, sp, #48
 424              	.LVL57:
 425 0030 05E90F00 		stmdb	r5, {r0, r1, r2, r3}
 426 0034 14E0     		b	.L32
 427              	.LVL58:
 428              	.L31:
 429              	.LBE25:
 430              	.LBE24:
  94:..\..\mruby_c2\Design01.cydsn/c_uart.c ****   uart_read( handle, buf, need_length );
 431              		.loc 1 94 0
 432 0036 691C     		adds	r1, r5, #1
 433 0038 3846     		mov	r0, r7
 434 003a FFF7FEFF 		bl	mrbc_alloc
 435              	.LVL59:
 436 003e 8046     		mov	r8, r0
 437              	.LVL60:
  95:..\..\mruby_c2\Design01.cydsn/c_uart.c **** 
 438              		.loc 1 95 0
 439 0040 2A46     		mov	r2, r5
 440 0042 0146     		mov	r1, r0
 441 0044 3046     		mov	r0, r6
 442              	.LVL61:
 443 0046 FFF7FEFF 		bl	uart_read
 444              	.LVL62:
  97:..\..\mruby_c2\Design01.cydsn/c_uart.c **** 
 445              		.loc 1 97 0
 446 004a 2B46     		mov	r3, r5
 447 004c 4246     		mov	r2, r8
 448 004e 3946     		mov	r1, r7
 449 0050 6846     		mov	r0, sp
 450 0052 FFF7FEFF 		bl	mrbc_string_new_alloc
 451              	.LVL63:
 452 0056 9DE80F00 		ldmia	sp, {r0, r1, r2, r3}
 453 005a 0CAD     		add	r5, sp, #48
 454              	.LVL64:
 455 005c 05E90F00 		stmdb	r5, {r0, r1, r2, r3}
 456              	.LVL65:
 457              	.L32:
 100:..\..\mruby_c2\Design01.cydsn/c_uart.c **** }
 458              		.loc 1 100 0
 459 0060 2046     		mov	r0, r4
 460 0062 FFF7FEFF 		bl	mrbc_release
 461              	.LVL66:
 462 0066 0CAB     		add	r3, sp, #48
 463 0068 13E90F00 		ldmdb	r3, {r0, r1, r2, r3}
 464 006c 84E80F00 		stmia	r4, {r0, r1, r2, r3}
 101:..\..\mruby_c2\Design01.cydsn/c_uart.c **** 
 465              		.loc 1 101 0
 466 0070 0CB0     		add	sp, sp, #48
 467              		.cfi_def_cfa_offset 24
 468              		@ sp needed
 469 0072 BDE8F081 		pop	{r4, r5, r6, r7, r8, pc}
 470              		.cfi_endproc
ARM GAS  C:\Users\164\AppData\Local\Temp\ccELK2nm.s 			page 19


 471              	.LFE76:
 472              		.size	c_uart_read, .-c_uart_read
 473 0076 00BF     		.section	.text.c_uart_new,"ax",%progbits
 474              		.align	2
 475              		.thumb
 476              		.thumb_func
 477              		.type	c_uart_new, %function
 478              	c_uart_new:
 479              	.LFB75:
  66:..\..\mruby_c2\Design01.cydsn/c_uart.c ****   static int num = 0;
 480              		.loc 1 66 0
 481              		.cfi_startproc
 482              		@ args = 0, pretend = 0, frame = 48
 483              		@ frame_needed = 0, uses_anonymous_args = 0
 484              	.LVL67:
 485 0000 30B5     		push	{r4, r5, lr}
 486              		.cfi_def_cfa_offset 12
 487              		.cfi_offset 4, -12
 488              		.cfi_offset 5, -8
 489              		.cfi_offset 14, -4
 490 0002 8DB0     		sub	sp, sp, #52
 491              		.cfi_def_cfa_offset 64
 492 0004 0D46     		mov	r5, r1
  69:..\..\mruby_c2\Design01.cydsn/c_uart.c ****     *v = mrb_nil_value();
 493              		.loc 1 69 0
 494 0006 144B     		ldr	r3, .L38
 495 0008 1B68     		ldr	r3, [r3]
 496 000a 002B     		cmp	r3, #0
 497 000c 0FDD     		ble	.L35
 498              	.LBB26:
 499              	.LBB27:
 247:..\..\mruby_c2\Design01.cydsn/value.h ****   return value;
 500              		.loc 3 247 0
 501 000e 04AB     		add	r3, sp, #16
 502 0010 0022     		movs	r2, #0
 503              	.LVL68:
 504 0012 0492     		str	r2, [sp, #16]
 505 0014 0592     		str	r2, [sp, #20]
 506 0016 0692     		str	r2, [sp, #24]
 507 0018 0792     		str	r2, [sp, #28]
 508 001a 0122     		movs	r2, #1
 509 001c 8DF81020 		strb	r2, [sp, #16]
 510              		.loc 3 248 0
 511 0020 08AC     		add	r4, sp, #32
 512 0022 0FCB     		ldmia	r3, {r0, r1, r2, r3}
 513              	.LVL69:
 514 0024 84E80F00 		stmia	r4, {r0, r1, r2, r3}
 515              	.LBE27:
 516              	.LBE26:
  70:..\..\mruby_c2\Design01.cydsn/c_uart.c ****     return;
 517              		.loc 1 70 0
 518 0028 85E80F00 		stmia	r5, {r0, r1, r2, r3}
  71:..\..\mruby_c2\Design01.cydsn/c_uart.c ****   }
 519              		.loc 1 71 0
 520 002c 12E0     		b	.L34
 521              	.LVL70:
 522              	.L35:
ARM GAS  C:\Users\164\AppData\Local\Temp\ccELK2nm.s 			page 20


 523 002e 0146     		mov	r1, r0
 524              	.LVL71:
  74:..\..\mruby_c2\Design01.cydsn/c_uart.c ****   *((UART_HANDLE **)v->instance->data) = &uh[num++];
 525              		.loc 1 74 0
 526 0030 0423     		movs	r3, #4
 527 0032 AA68     		ldr	r2, [r5, #8]
 528              	.LVL72:
 529 0034 6846     		mov	r0, sp
 530              	.LVL73:
 531 0036 FFF7FEFF 		bl	mrbc_instance_new
 532              	.LVL74:
 533 003a 9DE80F00 		ldmia	sp, {r0, r1, r2, r3}
 534 003e 85E80F00 		stmia	r5, {r0, r1, r2, r3}
  75:..\..\mruby_c2\Design01.cydsn/c_uart.c **** }
 535              		.loc 1 75 0
 536 0042 0549     		ldr	r1, .L38
 537 0044 0B68     		ldr	r3, [r1]
 538 0046 581C     		adds	r0, r3, #1
 539 0048 0860     		str	r0, [r1]
 540 004a 0449     		ldr	r1, .L38+4
 541 004c B420     		movs	r0, #180
 542 004e 00FB0313 		mla	r3, r0, r3, r1
 543 0052 D360     		str	r3, [r2, #12]
 544              	.L34:
  76:..\..\mruby_c2\Design01.cydsn/c_uart.c **** 
 545              		.loc 1 76 0
 546 0054 0DB0     		add	sp, sp, #52
 547              		.cfi_def_cfa_offset 12
 548              		@ sp needed
 549 0056 30BD     		pop	{r4, r5, pc}
 550              	.LVL75:
 551              	.L39:
 552              		.align	2
 553              	.L38:
 554 0058 00000000 		.word	.LANCHOR0
 555 005c 00000000 		.word	uh
 556              		.cfi_endproc
 557              	.LFE75:
 558              		.size	c_uart_new, .-c_uart_new
 559              		.section	.text.mrbc_init_class_uart,"ax",%progbits
 560              		.align	2
 561              		.global	mrbc_init_class_uart
 562              		.thumb
 563              		.thumb_func
 564              		.type	mrbc_init_class_uart, %function
 565              	mrbc_init_class_uart:
 566              	.LFB82:
 191:..\..\mruby_c2\Design01.cydsn/c_uart.c **** }
 192:..\..\mruby_c2\Design01.cydsn/c_uart.c **** 
 193:..\..\mruby_c2\Design01.cydsn/c_uart.c **** 
 194:..\..\mruby_c2\Design01.cydsn/c_uart.c **** //================================================================
 195:..\..\mruby_c2\Design01.cydsn/c_uart.c **** /*! initialize
 196:..\..\mruby_c2\Design01.cydsn/c_uart.c **** */
 197:..\..\mruby_c2\Design01.cydsn/c_uart.c **** void mrbc_init_class_uart(struct VM *vm)
 198:..\..\mruby_c2\Design01.cydsn/c_uart.c **** {
 567              		.loc 1 198 0
 568              		.cfi_startproc
ARM GAS  C:\Users\164\AppData\Local\Temp\ccELK2nm.s 			page 21


 569              		@ args = 0, pretend = 0, frame = 0
 570              		@ frame_needed = 0, uses_anonymous_args = 0
 571              	.LVL76:
 572 0000 10B5     		push	{r4, lr}
 573              		.cfi_def_cfa_offset 8
 574              		.cfi_offset 4, -8
 575              		.cfi_offset 14, -4
 576 0002 88B0     		sub	sp, sp, #32
 577              		.cfi_def_cfa_offset 40
 199:..\..\mruby_c2\Design01.cydsn/c_uart.c ****   // start physical device
 200:..\..\mruby_c2\Design01.cydsn/c_uart.c ****   uart_init( &uh[0], UART_1 );
 578              		.loc 1 200 0
 579 0004 264B     		ldr	r3, .L42
 580 0006 0693     		str	r3, [sp, #24]
 581 0008 264B     		ldr	r3, .L42+4
 582 000a 0593     		str	r3, [sp, #20]
 583 000c 264B     		ldr	r3, .L42+8
 584 000e 0493     		str	r3, [sp, #16]
 585 0010 264B     		ldr	r3, .L42+12
 586 0012 0393     		str	r3, [sp, #12]
 587 0014 264B     		ldr	r3, .L42+16
 588 0016 0293     		str	r3, [sp, #8]
 589 0018 264B     		ldr	r3, .L42+20
 590 001a 0193     		str	r3, [sp, #4]
 591 001c 264B     		ldr	r3, .L42+24
 592 001e 0093     		str	r3, [sp]
 593 0020 264B     		ldr	r3, .L42+28
 594 0022 2022     		movs	r2, #32
 595 0024 0121     		movs	r1, #1
 596 0026 2648     		ldr	r0, .L42+32
 597              	.LVL77:
 598 0028 FFF7FEFF 		bl	uart_init_m
 599              	.LVL78:
 600 002c 2548     		ldr	r0, .L42+36
 601 002e FFF7FEFF 		bl	isr_UART_1_Tx_StartEx
 602              	.LVL79:
 603 0032 2548     		ldr	r0, .L42+40
 604 0034 FFF7FEFF 		bl	isr_UART_1_Rx_StartEx
 605              	.LVL80:
 201:..\..\mruby_c2\Design01.cydsn/c_uart.c ****   // uart_init( &uh[1], UART_2 );
 202:..\..\mruby_c2\Design01.cydsn/c_uart.c **** 
 203:..\..\mruby_c2\Design01.cydsn/c_uart.c ****   // define class and methods.
 204:..\..\mruby_c2\Design01.cydsn/c_uart.c ****   mrb_class *uart;
 205:..\..\mruby_c2\Design01.cydsn/c_uart.c ****   uart = mrbc_define_class(0, "UART",	mrbc_class_object);
 606              		.loc 1 205 0
 607 0038 244B     		ldr	r3, .L42+44
 608 003a 1A68     		ldr	r2, [r3]
 609 003c 2449     		ldr	r1, .L42+48
 610 003e 0020     		movs	r0, #0
 611 0040 FFF7FEFF 		bl	mrbc_define_class
 612              	.LVL81:
 613 0044 0446     		mov	r4, r0
 614              	.LVL82:
 206:..\..\mruby_c2\Design01.cydsn/c_uart.c ****   mrbc_define_method(0, uart, "new",	c_uart_new);
 615              		.loc 1 206 0
 616 0046 234B     		ldr	r3, .L42+52
 617 0048 234A     		ldr	r2, .L42+56
ARM GAS  C:\Users\164\AppData\Local\Temp\ccELK2nm.s 			page 22


 618 004a 0146     		mov	r1, r0
 619 004c 0020     		movs	r0, #0
 620              	.LVL83:
 621 004e FFF7FEFF 		bl	mrbc_define_method
 622              	.LVL84:
 207:..\..\mruby_c2\Design01.cydsn/c_uart.c ****   mrbc_define_method(0, uart, "read",	c_uart_read);
 623              		.loc 1 207 0
 624 0052 224B     		ldr	r3, .L42+60
 625 0054 224A     		ldr	r2, .L42+64
 626 0056 2146     		mov	r1, r4
 627 0058 0020     		movs	r0, #0
 628 005a FFF7FEFF 		bl	mrbc_define_method
 629              	.LVL85:
 208:..\..\mruby_c2\Design01.cydsn/c_uart.c ****   mrbc_define_method(0, uart, "write",	c_uart_write);
 630              		.loc 1 208 0
 631 005e 214B     		ldr	r3, .L42+68
 632 0060 214A     		ldr	r2, .L42+72
 633 0062 2146     		mov	r1, r4
 634 0064 0020     		movs	r0, #0
 635 0066 FFF7FEFF 		bl	mrbc_define_method
 636              	.LVL86:
 209:..\..\mruby_c2\Design01.cydsn/c_uart.c ****   mrbc_define_method(0, uart, "gets",	c_uart_gets);
 637              		.loc 1 209 0
 638 006a 204B     		ldr	r3, .L42+76
 639 006c 204A     		ldr	r2, .L42+80
 640 006e 2146     		mov	r1, r4
 641 0070 0020     		movs	r0, #0
 642 0072 FFF7FEFF 		bl	mrbc_define_method
 643              	.LVL87:
 210:..\..\mruby_c2\Design01.cydsn/c_uart.c ****   mrbc_define_method(0, uart, "puts",	c_uart_puts);
 644              		.loc 1 210 0
 645 0076 1F4B     		ldr	r3, .L42+84
 646 0078 1F4A     		ldr	r2, .L42+88
 647 007a 2146     		mov	r1, r4
 648 007c 0020     		movs	r0, #0
 649 007e FFF7FEFF 		bl	mrbc_define_method
 650              	.LVL88:
 211:..\..\mruby_c2\Design01.cydsn/c_uart.c ****   mrbc_define_method(0, uart, "clear_tx_buffer", c_uart_clear_tx_buffer);
 651              		.loc 1 211 0
 652 0082 1E4B     		ldr	r3, .L42+92
 653 0084 1E4A     		ldr	r2, .L42+96
 654 0086 2146     		mov	r1, r4
 655 0088 0020     		movs	r0, #0
 656 008a FFF7FEFF 		bl	mrbc_define_method
 657              	.LVL89:
 212:..\..\mruby_c2\Design01.cydsn/c_uart.c ****   mrbc_define_method(0, uart, "clear_rx_buffer", c_uart_clear_rx_buffer);
 658              		.loc 1 212 0
 659 008e 1D4B     		ldr	r3, .L42+100
 660 0090 1D4A     		ldr	r2, .L42+104
 661 0092 2146     		mov	r1, r4
 662 0094 0020     		movs	r0, #0
 663 0096 FFF7FEFF 		bl	mrbc_define_method
 664              	.LVL90:
 213:..\..\mruby_c2\Design01.cydsn/c_uart.c **** }
 665              		.loc 1 213 0
 666 009a 08B0     		add	sp, sp, #32
 667              		.cfi_def_cfa_offset 8
ARM GAS  C:\Users\164\AppData\Local\Temp\ccELK2nm.s 			page 23


 668              		@ sp needed
 669 009c 10BD     		pop	{r4, pc}
 670              	.LVL91:
 671              	.L43:
 672 009e 00BF     		.align	2
 673              	.L42:
 674 00a0 00000000 		.word	UART_1_ReadRxData
 675 00a4 00000000 		.word	UART_1_WriteTxData
 676 00a8 00000000 		.word	UART_1_ReadRxStatus
 677 00ac 00000000 		.word	UART_1_ReadTxStatus
 678 00b0 00000000 		.word	UART_1_ClearRxBuffer
 679 00b4 00000000 		.word	UART_1_ClearTxBuffer
 680 00b8 00000000 		.word	UART_1_Stop
 681 00bc 00000000 		.word	UART_1_Start
 682 00c0 00000000 		.word	uh
 683 00c4 00000000 		.word	isr_UART_1_Tx
 684 00c8 00000000 		.word	isr_UART_1_Rx
 685 00cc 00000000 		.word	mrbc_class_object
 686 00d0 00000000 		.word	.LC0
 687 00d4 00000000 		.word	c_uart_new
 688 00d8 08000000 		.word	.LC1
 689 00dc 00000000 		.word	c_uart_read
 690 00e0 0C000000 		.word	.LC2
 691 00e4 00000000 		.word	c_uart_write
 692 00e8 14000000 		.word	.LC3
 693 00ec 00000000 		.word	c_uart_gets
 694 00f0 1C000000 		.word	.LC4
 695 00f4 00000000 		.word	c_uart_puts
 696 00f8 24000000 		.word	.LC5
 697 00fc 00000000 		.word	c_uart_clear_tx_buffer
 698 0100 2C000000 		.word	.LC6
 699 0104 00000000 		.word	c_uart_clear_rx_buffer
 700 0108 3C000000 		.word	.LC7
 701              		.cfi_endproc
 702              	.LFE82:
 703              		.size	mrbc_init_class_uart, .-mrbc_init_class_uart
 704              		.comm	uh,180,4
 705              		.section	.rodata.str1.4,"aMS",%progbits,1
 706              		.align	2
 707              	.LC0:
 708 0000 55415254 		.ascii	"UART\000"
 708      00
 709 0005 000000   		.space	3
 710              	.LC1:
 711 0008 6E657700 		.ascii	"new\000"
 712              	.LC2:
 713 000c 72656164 		.ascii	"read\000"
 713      00
 714 0011 000000   		.space	3
 715              	.LC3:
 716 0014 77726974 		.ascii	"write\000"
 716      6500
 717 001a 0000     		.space	2
 718              	.LC4:
 719 001c 67657473 		.ascii	"gets\000"
 719      00
 720 0021 000000   		.space	3
ARM GAS  C:\Users\164\AppData\Local\Temp\ccELK2nm.s 			page 24


 721              	.LC5:
 722 0024 70757473 		.ascii	"puts\000"
 722      00
 723 0029 000000   		.space	3
 724              	.LC6:
 725 002c 636C6561 		.ascii	"clear_tx_buffer\000"
 725      725F7478 
 725      5F627566 
 725      66657200 
 726              	.LC7:
 727 003c 636C6561 		.ascii	"clear_rx_buffer\000"
 727      725F7278 
 727      5F627566 
 727      66657200 
 728              		.bss
 729              		.align	2
 730              		.set	.LANCHOR0,. + 0
 731              		.type	num.7083, %object
 732              		.size	num.7083, 4
 733              	num.7083:
 734 0000 00000000 		.space	4
 735              		.text
 736              	.Letext0:
 737              		.file 4 "c:\\program files (x86)\\cypress\\psoc creator\\4.2\\psoc creator\\import\\gnu\\arm\\5.4.
 738              		.file 5 "c:\\program files (x86)\\cypress\\psoc creator\\4.2\\psoc creator\\import\\gnu\\arm\\5.4.
 739              		.file 6 "Generated_Source\\PSoC5/cytypes.h"
 740              		.file 7 "..\\..\\mruby_c2\\Design01.cydsn\\vm.h"
 741              		.file 8 "..\\..\\mruby_c2\\Design01.cydsn\\uart2.h"
 742              		.file 9 "Generated_Source\\PSoC5/core_cm3.h"
 743              		.file 10 "..\\..\\mruby_c2\\Design01.cydsn\\static.h"
 744              		.file 11 "..\\..\\mruby_c2\\Design01.cydsn\\alloc.h"
 745              		.file 12 "Generated_Source\\PSoC5/isr_UART_1_Tx.h"
 746              		.file 13 "Generated_Source\\PSoC5/isr_UART_1_Rx.h"
 747              		.file 14 "..\\..\\mruby_c2\\Design01.cydsn\\class.h"