ARM GAS  C:\Users\164\AppData\Local\Temp\ccvDnxKa.s 			page 1


   1              		.syntax unified
   2              		.cpu cortex-m3
   3              		.fpu softvfp
   4              		.eabi_attribute 20, 1
   5              		.eabi_attribute 21, 1
   6              		.eabi_attribute 23, 3
   7              		.eabi_attribute 24, 1
   8              		.eabi_attribute 25, 1
   9              		.eabi_attribute 26, 1
  10              		.eabi_attribute 30, 1
  11              		.eabi_attribute 34, 1
  12              		.eabi_attribute 18, 4
  13              		.thumb
  14              		.syntax unified
  15              		.file	"class.c"
  16              		.text
  17              	.Ltext0:
  18              		.cfi_sections	.debug_frame
  19              		.section	.text.c_nil_false_not,"ax",%progbits
  20              		.align	2
  21              		.thumb
  22              		.thumb_func
  23              		.type	c_nil_false_not, %function
  24              	c_nil_false_not:
  25              	.LFB124:
  26              		.file 1 "class.c"
   1:class.c       **** /*! @file
   2:class.c       ****   @brief
   3:class.c       ****   mruby/c Object, Proc, Nil, False and True class and class specific functions.
   4:class.c       **** 
   5:class.c       ****   <pre>
   6:class.c       ****   Copyright (C) 2015-2018 Kyushu Institute of Technology.
   7:class.c       ****   Copyright (C) 2015-2018 Shimane IT Open-Innovation Center.
   8:class.c       **** 
   9:class.c       ****   This file is distributed under BSD 3-Clause License.
  10:class.c       **** 
  11:class.c       **** 
  12:class.c       ****   </pre>
  13:class.c       **** */
  14:class.c       **** 
  15:class.c       **** #include "vm_config.h"
  16:class.c       **** #include <string.h>
  17:class.c       **** #include <assert.h>
  18:class.c       **** 
  19:class.c       **** #include "value.h"
  20:class.c       **** #include "vm.h"
  21:class.c       **** #include "class.h"
  22:class.c       **** #include "alloc.h"
  23:class.c       **** #include "static.h"
  24:class.c       **** #include "symbol.h"
  25:class.c       **** #include "console.h"
  26:class.c       **** #include "opcode.h"
  27:class.c       **** #include "load.h"
  28:class.c       **** 
  29:class.c       **** #include "c_array.h"
  30:class.c       **** #include "c_hash.h"
  31:class.c       **** #include "c_numeric.h"
ARM GAS  C:\Users\164\AppData\Local\Temp\ccvDnxKa.s 			page 2


  32:class.c       **** #include "c_math.h"
  33:class.c       **** #include "c_string.h"
  34:class.c       **** #include "c_range.h"
  35:class.c       **** 
  36:class.c       **** 
  37:class.c       **** static int mrbc_puts_sub(mrbc_value *v);
  38:class.c       **** static int mrbc_p_sub(mrbc_value *v);
  39:class.c       **** 
  40:class.c       **** //================================================================
  41:class.c       **** /*! print - sub function
  42:class.c       ****   @param  v	pointer to target value.
  43:class.c       ****   @retval 0	normal return.
  44:class.c       ****   @retval 1	already output LF.
  45:class.c       ****  */
  46:class.c       **** static int mrbc_print_sub(mrbc_value *v)
  47:class.c       **** {
  48:class.c       ****   int ret = 0;
  49:class.c       **** 
  50:class.c       ****   switch( v->tt ){
  51:class.c       ****   case MRBC_TT_EMPTY:	console_print("(empty)");	break;
  52:class.c       ****   case MRBC_TT_NIL:					break;
  53:class.c       ****   case MRBC_TT_FALSE:	console_print("false");		break;
  54:class.c       ****   case MRBC_TT_TRUE:	console_print("true");		break;
  55:class.c       ****   case MRBC_TT_FIXNUM:	console_printf("%d", v->i);	break;
  56:class.c       **** #if MRBC_USE_FLOAT
  57:class.c       ****   case MRBC_TT_FLOAT:    console_printf("%g", v->d);	break;
  58:class.c       **** #endif
  59:class.c       ****   case MRBC_TT_SYMBOL:
  60:class.c       ****     console_print(mrbc_symbol_cstr(v));
  61:class.c       ****     break;
  62:class.c       **** 
  63:class.c       ****   case MRBC_TT_CLASS:
  64:class.c       ****     console_print(symid_to_str(v->cls->sym_id));
  65:class.c       ****     break;
  66:class.c       **** 
  67:class.c       ****   case MRBC_TT_OBJECT:
  68:class.c       ****     console_printf( "#<%s:%08x>",
  69:class.c       **** 	symid_to_str( find_class_by_object(0,v)->sym_id ), v->instance );
  70:class.c       ****     break;
  71:class.c       **** 
  72:class.c       ****   case MRBC_TT_PROC:
  73:class.c       ****     console_printf( "#<Proc:%08x>", v->proc );
  74:class.c       ****     break;
  75:class.c       **** 
  76:class.c       ****   case MRBC_TT_ARRAY:{
  77:class.c       ****     console_putchar('[');
  78:class.c       ****     int i;
  79:class.c       ****     for( i = 0; i < mrbc_array_size(v); i++ ) {
  80:class.c       ****       if( i != 0 ) console_print(", ");
  81:class.c       ****       mrbc_value v1 = mrbc_array_get(v, i);
  82:class.c       ****       mrbc_p_sub(&v1);
  83:class.c       ****     }
  84:class.c       ****     console_putchar(']');
  85:class.c       ****   } break;
  86:class.c       **** 
  87:class.c       **** #if MRBC_USE_STRING
  88:class.c       ****   case MRBC_TT_STRING:
ARM GAS  C:\Users\164\AppData\Local\Temp\ccvDnxKa.s 			page 3


  89:class.c       ****     console_nprint( mrbc_string_cstr(v), mrbc_string_size(v) );
  90:class.c       ****     if( mrbc_string_size(v) != 0 &&
  91:class.c       **** 	mrbc_string_cstr(v)[ mrbc_string_size(v) - 1 ] == '\n' ) ret = 1;
  92:class.c       ****     break;
  93:class.c       **** #endif
  94:class.c       **** 
  95:class.c       ****   case MRBC_TT_RANGE:{
  96:class.c       ****     mrbc_value v1 = mrbc_range_first(v);
  97:class.c       ****     mrbc_print_sub(&v1);
  98:class.c       ****     console_print( mrbc_range_exclude_end(v) ? "..." : ".." );
  99:class.c       ****     v1 = mrbc_range_last(v);
 100:class.c       ****     mrbc_print_sub(&v1);
 101:class.c       ****   } break;
 102:class.c       **** 
 103:class.c       ****   case MRBC_TT_HASH:{
 104:class.c       ****     console_putchar('{');
 105:class.c       ****     mrbc_hash_iterator ite = mrbc_hash_iterator_new(v);
 106:class.c       ****     while( mrbc_hash_i_has_next(&ite) ) {
 107:class.c       ****       mrbc_value *vk = mrbc_hash_i_next(&ite);
 108:class.c       ****       mrbc_p_sub(vk);
 109:class.c       ****       console_print("=>");
 110:class.c       ****       mrbc_p_sub(vk+1);
 111:class.c       ****       if( mrbc_hash_i_has_next(&ite) ) console_print(", ");
 112:class.c       ****     }
 113:class.c       ****     console_putchar('}');
 114:class.c       ****   } break;
 115:class.c       **** 
 116:class.c       ****   default:
 117:class.c       ****     console_printf("Not support MRBC_TT_XX(%d)", v->tt);
 118:class.c       ****     break;
 119:class.c       ****   }
 120:class.c       **** 
 121:class.c       ****   return ret;
 122:class.c       **** }
 123:class.c       **** 
 124:class.c       **** 
 125:class.c       **** //================================================================
 126:class.c       **** /*! puts - sub function
 127:class.c       **** 
 128:class.c       ****   @param  v	pointer to target value.
 129:class.c       ****   @retval 0	normal return.
 130:class.c       ****   @retval 1	already output LF.
 131:class.c       ****  */
 132:class.c       **** static int mrbc_puts_sub(mrbc_value *v)
 133:class.c       **** {
 134:class.c       ****   if( v->tt == MRBC_TT_ARRAY ) {
 135:class.c       ****     int i;
 136:class.c       ****     for( i = 0; i < mrbc_array_size(v); i++ ) {
 137:class.c       ****       if( i != 0 ) console_putchar('\n');
 138:class.c       ****       mrbc_value v1 = mrbc_array_get(v, i);
 139:class.c       ****       mrbc_puts_sub(&v1);
 140:class.c       ****     }
 141:class.c       ****     return 0;
 142:class.c       ****   }
 143:class.c       **** 
 144:class.c       ****   return mrbc_print_sub(v);
 145:class.c       **** }
ARM GAS  C:\Users\164\AppData\Local\Temp\ccvDnxKa.s 			page 4


 146:class.c       **** 
 147:class.c       **** 
 148:class.c       **** //================================================================
 149:class.c       **** /*! p - sub function
 150:class.c       ****  */
 151:class.c       **** static int mrbc_p_sub(mrbc_value *v)
 152:class.c       **** {
 153:class.c       ****   switch( v->tt ){
 154:class.c       ****   case MRBC_TT_NIL:
 155:class.c       ****     console_print("nil");
 156:class.c       ****     break;
 157:class.c       **** 
 158:class.c       ****   case MRBC_TT_SYMBOL:{
 159:class.c       ****     const char *s = mrbc_symbol_cstr( v );
 160:class.c       ****     char *fmt = strchr(s, ':') ? "\":%s\"" : ":%s";
 161:class.c       ****     console_printf(fmt, s);
 162:class.c       ****   } break;
 163:class.c       **** 
 164:class.c       **** #if MRBC_USE_STRING
 165:class.c       ****   case MRBC_TT_STRING:{
 166:class.c       ****     console_putchar('"');
 167:class.c       ****     const unsigned char *s = (const unsigned char *)mrbc_string_cstr(v);
 168:class.c       ****     int i;
 169:class.c       ****     for( i = 0; i < mrbc_string_size(v); i++ ) {
 170:class.c       ****       if( s[i] < ' ' || 0x7f <= s[i] ) {	// tiny isprint()
 171:class.c       **** 	console_printf("\\x%02X", s[i]);
 172:class.c       ****       } else {
 173:class.c       **** 	console_putchar(s[i]);
 174:class.c       ****       }
 175:class.c       ****     }
 176:class.c       ****     console_putchar('"');
 177:class.c       ****   } break;
 178:class.c       **** #endif
 179:class.c       **** 
 180:class.c       ****   case MRBC_TT_RANGE:{
 181:class.c       ****     mrbc_value v1 = mrbc_range_first(v);
 182:class.c       ****     mrbc_p_sub(&v1);
 183:class.c       ****     console_print( mrbc_range_exclude_end(v) ? "..." : ".." );
 184:class.c       ****     v1 = mrbc_range_last(v);
 185:class.c       ****     mrbc_p_sub(&v1);
 186:class.c       ****   } break;
 187:class.c       **** 
 188:class.c       ****   default:
 189:class.c       ****     mrbc_print_sub(v);
 190:class.c       ****     break;
 191:class.c       ****   }
 192:class.c       **** 
 193:class.c       ****   return 0;
 194:class.c       **** }
 195:class.c       **** 
 196:class.c       **** 
 197:class.c       **** 
 198:class.c       **** 
 199:class.c       **** //================================================================
 200:class.c       **** /*!@brief
 201:class.c       ****   find class by object
 202:class.c       **** 
ARM GAS  C:\Users\164\AppData\Local\Temp\ccvDnxKa.s 			page 5


 203:class.c       ****   @param  vm
 204:class.c       ****   @param  obj
 205:class.c       ****   @return pointer to mrbc_class
 206:class.c       **** */
 207:class.c       **** mrbc_class *find_class_by_object(struct VM *vm, const mrbc_object *obj)
 208:class.c       **** {
 209:class.c       ****   mrbc_class *cls;
 210:class.c       **** 
 211:class.c       ****   switch( obj->tt ) {
 212:class.c       ****   case MRBC_TT_TRUE:	cls = mrbc_class_true;		break;
 213:class.c       ****   case MRBC_TT_FALSE:	cls = mrbc_class_false; 	break;
 214:class.c       ****   case MRBC_TT_NIL:	cls = mrbc_class_nil;		break;
 215:class.c       ****   case MRBC_TT_FIXNUM:	cls = mrbc_class_fixnum;	break;
 216:class.c       ****   case MRBC_TT_FLOAT:	cls = mrbc_class_float; 	break;
 217:class.c       ****   case MRBC_TT_SYMBOL:	cls = mrbc_class_symbol;	break;
 218:class.c       **** 
 219:class.c       ****   case MRBC_TT_OBJECT:	cls = obj->instance->cls;       break;
 220:class.c       ****   case MRBC_TT_CLASS:    cls = obj->cls;                 break;
 221:class.c       ****   case MRBC_TT_PROC:	cls = mrbc_class_proc;		break;
 222:class.c       ****   case MRBC_TT_ARRAY:	cls = mrbc_class_array; 	break;
 223:class.c       ****   case MRBC_TT_STRING:	cls = mrbc_class_string;	break;
 224:class.c       ****   case MRBC_TT_RANGE:	cls = mrbc_class_range; 	break;
 225:class.c       ****   case MRBC_TT_HASH:	cls = mrbc_class_hash;		break;
 226:class.c       **** 
 227:class.c       ****   default:		cls = mrbc_class_object;	break;
 228:class.c       ****   }
 229:class.c       **** 
 230:class.c       ****   return cls;
 231:class.c       **** }
 232:class.c       **** 
 233:class.c       **** 
 234:class.c       **** 
 235:class.c       **** //================================================================
 236:class.c       **** /*!@brief
 237:class.c       ****   find method from
 238:class.c       **** 
 239:class.c       ****   @param  vm
 240:class.c       ****   @param  recv
 241:class.c       ****   @param  sym_id
 242:class.c       ****   @return
 243:class.c       **** */
 244:class.c       **** mrbc_proc *find_method(struct VM *vm, const mrbc_object *recv, mrbc_sym sym_id)
 245:class.c       **** {
 246:class.c       ****   mrbc_class *cls = find_class_by_object(vm, recv);
 247:class.c       **** 
 248:class.c       ****   while( cls != 0 ) {
 249:class.c       ****     mrbc_proc *proc = cls->procs;
 250:class.c       ****     while( proc != 0 ) {
 251:class.c       ****       if( proc->sym_id == sym_id ) {
 252:class.c       ****         return proc;
 253:class.c       ****       }
 254:class.c       ****       proc = proc->next;
 255:class.c       ****     }
 256:class.c       ****     cls = cls->super;
 257:class.c       ****   }
 258:class.c       ****   return 0;
 259:class.c       **** }
ARM GAS  C:\Users\164\AppData\Local\Temp\ccvDnxKa.s 			page 6


 260:class.c       **** 
 261:class.c       **** 
 262:class.c       **** 
 263:class.c       **** //================================================================
 264:class.c       **** /*!@brief
 265:class.c       ****   define class
 266:class.c       **** 
 267:class.c       ****   @param  vm		pointer to vm.
 268:class.c       ****   @param  name		class name.
 269:class.c       ****   @param  super		super class.
 270:class.c       **** */
 271:class.c       **** mrbc_class * mrbc_define_class(struct VM *vm, const char *name, mrbc_class *super)
 272:class.c       **** {
 273:class.c       ****   if( super == NULL ) super = mrbc_class_object;  // set default to Object.
 274:class.c       **** 
 275:class.c       ****   mrbc_sym sym_id = str_to_symid(name);
 276:class.c       ****   mrbc_object obj = const_object_get(sym_id);
 277:class.c       **** 
 278:class.c       ****   // create a new class?
 279:class.c       ****   if( obj.tt == MRBC_TT_NIL ) {
 280:class.c       ****     mrbc_class *cls = mrbc_alloc( 0, sizeof(mrbc_class) );
 281:class.c       ****     if( !cls ) return cls;	// ENOMEM
 282:class.c       **** 
 283:class.c       ****     cls->sym_id = sym_id;
 284:class.c       **** #ifdef MRBC_DEBUG
 285:class.c       ****     cls->names = name;	// for debug; delete soon.
 286:class.c       **** #endif
 287:class.c       ****     cls->super = super;
 288:class.c       ****     cls->procs = 0;
 289:class.c       **** 
 290:class.c       ****     // register to global constant.
 291:class.c       ****     mrbc_value v = {.tt = MRBC_TT_CLASS};
 292:class.c       ****     v.cls = cls;
 293:class.c       ****     const_object_add(sym_id, &v);
 294:class.c       **** 
 295:class.c       ****     return cls;
 296:class.c       ****   }
 297:class.c       **** 
 298:class.c       ****   // already?
 299:class.c       ****   if( obj.tt == MRBC_TT_CLASS ) {
 300:class.c       ****     return obj.cls;
 301:class.c       ****   }
 302:class.c       **** 
 303:class.c       ****   // error.
 304:class.c       ****   // raise TypeError.
 305:class.c       ****   assert( !"TypeError" );
 306:class.c       **** }
 307:class.c       **** 
 308:class.c       **** 
 309:class.c       **** 
 310:class.c       **** //================================================================
 311:class.c       **** /*! get class by name
 312:class.c       **** 
 313:class.c       ****   @param  name		class name.
 314:class.c       ****   @return		pointer to class object.
 315:class.c       **** */
 316:class.c       **** mrbc_class * mrbc_get_class_by_name( const char *name )
ARM GAS  C:\Users\164\AppData\Local\Temp\ccvDnxKa.s 			page 7


 317:class.c       **** {
 318:class.c       ****   mrbc_sym sym_id = str_to_symid(name);
 319:class.c       ****   mrbc_object obj = const_object_get(sym_id);
 320:class.c       **** 
 321:class.c       ****   return (obj.tt == MRBC_TT_CLASS) ? obj.cls : NULL;
 322:class.c       **** }
 323:class.c       **** 
 324:class.c       **** 
 325:class.c       **** //================================================================
 326:class.c       **** /*!@brief
 327:class.c       ****   define class method or instance method.
 328:class.c       **** 
 329:class.c       ****   @param  vm		pointer to vm.
 330:class.c       ****   @param  cls		pointer to class.
 331:class.c       ****   @param  name		method name.
 332:class.c       ****   @param  cfunc		pointer to function.
 333:class.c       **** */
 334:class.c       **** void mrbc_define_method(struct VM *vm, mrbc_class *cls, const char *name, mrbc_func_t cfunc)
 335:class.c       **** {
 336:class.c       ****   if( cls == NULL ) cls = mrbc_class_object;	// set default to Object.
 337:class.c       **** 
 338:class.c       ****   mrbc_proc *rproc = mrbc_rproc_alloc(vm, name);
 339:class.c       ****   rproc->c_func = 1;  // c-func
 340:class.c       ****   rproc->next = cls->procs;
 341:class.c       ****   cls->procs = rproc;
 342:class.c       ****   rproc->func = cfunc;
 343:class.c       **** }
 344:class.c       **** 
 345:class.c       **** 
 346:class.c       **** // Call a method
 347:class.c       **** // v[0]: receiver
 348:class.c       **** // v[1..]: params
 349:class.c       **** //================================================================
 350:class.c       **** /*!@brief
 351:class.c       ****   call a method with params
 352:class.c       **** 
 353:class.c       ****   @param  vm		pointer to vm
 354:class.c       ****   @param  name		method name
 355:class.c       ****   @param  v		receiver and params
 356:class.c       ****   @param  argc		num of params
 357:class.c       **** */
 358:class.c       **** void mrbc_funcall(struct VM *vm, const char *name, mrbc_value *v, int argc)
 359:class.c       **** {
 360:class.c       ****   mrbc_sym sym_id = str_to_symid(name);
 361:class.c       ****   mrbc_proc *m = find_method(vm, &v[0], sym_id);
 362:class.c       **** 
 363:class.c       ****   if( m==0 ) return;   // no method
 364:class.c       **** 
 365:class.c       ****   mrbc_callinfo *callinfo = mrbc_alloc(vm, sizeof(mrbc_callinfo));
 366:class.c       ****   callinfo->current_regs = vm->current_regs;
 367:class.c       ****   callinfo->pc_irep = vm->pc_irep;
 368:class.c       ****   callinfo->pc = vm->pc;
 369:class.c       ****   callinfo->n_args = 0;
 370:class.c       ****   callinfo->target_class = vm->target_class;
 371:class.c       ****   callinfo->prev = vm->callinfo_tail;
 372:class.c       ****   vm->callinfo_tail = callinfo;
 373:class.c       **** 
ARM GAS  C:\Users\164\AppData\Local\Temp\ccvDnxKa.s 			page 8


 374:class.c       ****   // target irep
 375:class.c       ****   vm->pc = 0;
 376:class.c       ****   vm->pc_irep = m->irep;
 377:class.c       **** 
 378:class.c       ****   // new regs
 379:class.c       ****   vm->current_regs += 2;   // recv and symbol
 380:class.c       **** 
 381:class.c       **** }
 382:class.c       **** 
 383:class.c       **** 
 384:class.c       **** 
 385:class.c       **** //================================================================
 386:class.c       **** /*! (BETA) Call any method of the object, but written by C.
 387:class.c       **** 
 388:class.c       ****   @param  vm		pointer to vm.
 389:class.c       ****   @param  v		see bellow example.
 390:class.c       ****   @param  reg_ofs	see bellow example.
 391:class.c       ****   @param  recv		pointer to receiver.
 392:class.c       ****   @param  name		method name.
 393:class.c       ****   @param  argc		num of params.
 394:class.c       **** 
 395:class.c       ****   @example
 396:class.c       ****   // (Fixnum).to_s(16)
 397:class.c       ****   static void c_fixnum_to_s(struct VM *vm, mrbc_value v[], int argc)
 398:class.c       ****   {
 399:class.c       ****     mrbc_value *recv = &v[1];
 400:class.c       ****     mrbc_value arg1 = mrbc_fixnum_value(16);
 401:class.c       ****     mrbc_value ret = mrbc_send( vm, v, argc, recv, "to_s", 1, &arg1 );
 402:class.c       ****     SET_RETURN(ret);
 403:class.c       ****   }
 404:class.c       ****  */
 405:class.c       **** mrbc_value mrbc_send( struct VM *vm, mrbc_value *v, int reg_ofs,
 406:class.c       **** 		     mrbc_value *recv, const char *method, int argc, ... )
 407:class.c       **** {
 408:class.c       ****   mrbc_sym sym_id = str_to_symid(method);
 409:class.c       ****   mrbc_proc *m = find_method(vm, recv, sym_id);
 410:class.c       **** 
 411:class.c       ****   if( m == 0 ) {
 412:class.c       ****     console_printf("No method. vtype=%d method='%s'\n", recv->tt, method );
 413:class.c       ****     goto ERROR;
 414:class.c       ****   }
 415:class.c       ****   if( !m->c_func ) {
 416:class.c       ****     console_printf("Method %s is not C function\n", method );
 417:class.c       ****     goto ERROR;
 418:class.c       ****   }
 419:class.c       **** 
 420:class.c       ****   // create call stack.
 421:class.c       ****   mrbc_value *regs = v + reg_ofs + 2;
 422:class.c       ****   mrbc_release( &regs[0] );
 423:class.c       ****   regs[0] = *recv;
 424:class.c       ****   mrbc_dup(recv);
 425:class.c       **** 
 426:class.c       ****   va_list ap;
 427:class.c       ****   va_start(ap, argc);
 428:class.c       ****   int i;
 429:class.c       ****   for( i = 1; i <= argc; i++ ) {
 430:class.c       ****     mrbc_release( &regs[i] );
ARM GAS  C:\Users\164\AppData\Local\Temp\ccvDnxKa.s 			page 9


 431:class.c       ****     regs[i] = *va_arg(ap, mrbc_value *);
 432:class.c       ****   }
 433:class.c       ****   mrbc_release( &regs[i] );
 434:class.c       ****   regs[i] = mrbc_nil_value();
 435:class.c       ****   va_end(ap);
 436:class.c       **** 
 437:class.c       ****   // call method.
 438:class.c       ****   m->func(vm, regs, argc);
 439:class.c       ****   mrbc_value ret = regs[0];
 440:class.c       **** 
 441:class.c       ****   for(; i >= 0; i-- ) {
 442:class.c       ****     regs[i].tt = MRBC_TT_EMPTY;
 443:class.c       ****   }
 444:class.c       **** 
 445:class.c       ****   return ret;
 446:class.c       **** 
 447:class.c       ****  ERROR:
 448:class.c       ****   return mrbc_nil_value();
 449:class.c       **** }
 450:class.c       **** 
 451:class.c       **** 
 452:class.c       **** 
 453:class.c       **** 
 454:class.c       **** //================================================================
 455:class.c       **** // Object class
 456:class.c       **** 
 457:class.c       **** //================================================================
 458:class.c       **** /*! (method) alias_method
 459:class.c       **** 
 460:class.c       ****   note: using the 'alias' keyword, this method will be called.
 461:class.c       **** */
 462:class.c       **** static void c_object_alias_method(struct VM *vm, mrbc_value v[], int argc)
 463:class.c       **** {
 464:class.c       ****   // find method only in this class.
 465:class.c       ****   mrb_proc *proc = v[0].cls->procs;
 466:class.c       ****   while( proc != NULL ) {
 467:class.c       ****     if( proc->sym_id == v[2].i ) break;
 468:class.c       ****     proc = proc->next;
 469:class.c       ****   }
 470:class.c       ****   if( !proc ) {
 471:class.c       ****     console_printf("NameError: undefined_method '%s'\n", symid_to_str(v[2].i));
 472:class.c       ****     return;
 473:class.c       ****   }
 474:class.c       **** 
 475:class.c       ****   // copy the Proc object
 476:class.c       ****   mrbc_proc *proc_alias = mrbc_alloc(0, sizeof(mrbc_proc));
 477:class.c       ****   if( !proc_alias ) return;		// ENOMEM
 478:class.c       ****   memcpy( proc_alias, proc, sizeof(mrbc_proc) );
 479:class.c       **** 
 480:class.c       ****   // regist procs link.
 481:class.c       ****   proc_alias->sym_id = v[1].i;
 482:class.c       **** #if defined(MRBC_DEBUG)
 483:class.c       ****   proc_alias->names = symid_to_str(v[1].i);
 484:class.c       **** #endif
 485:class.c       ****   proc_alias->next = v[0].cls->procs;
 486:class.c       ****   v[0].cls->procs = proc_alias;
 487:class.c       **** }
ARM GAS  C:\Users\164\AppData\Local\Temp\ccvDnxKa.s 			page 10


 488:class.c       **** 
 489:class.c       **** 
 490:class.c       **** #ifdef MRBC_DEBUG
 491:class.c       **** //================================================================
 492:class.c       **** /*! (method) p
 493:class.c       ****  */
 494:class.c       **** static void c_object_p(struct VM *vm, mrbc_value v[], int argc)
 495:class.c       **** {
 496:class.c       ****   int i;
 497:class.c       ****   for( i = 1; i <= argc; i++ ) {
 498:class.c       ****     mrbc_p_sub( &v[i] );
 499:class.c       ****     console_putchar('\n');
 500:class.c       ****   }
 501:class.c       **** }
 502:class.c       **** #endif
 503:class.c       **** 
 504:class.c       **** 
 505:class.c       **** //================================================================
 506:class.c       **** /*! (method) puts
 507:class.c       ****  */
 508:class.c       **** static void c_object_puts(struct VM *vm, mrbc_value v[], int argc)
 509:class.c       **** {
 510:class.c       ****   int i;
 511:class.c       ****   if( argc ){
 512:class.c       ****     for( i = 1; i <= argc; i++ ) {
 513:class.c       ****       if( mrbc_puts_sub( &v[i] ) == 0 ) console_putchar('\n');
 514:class.c       ****     }
 515:class.c       ****   } else {
 516:class.c       ****     console_putchar('\n');
 517:class.c       ****   }
 518:class.c       **** }
 519:class.c       **** 
 520:class.c       **** 
 521:class.c       **** //================================================================
 522:class.c       **** /*! (method) print
 523:class.c       ****  */
 524:class.c       **** static void c_object_print(struct VM *vm, mrbc_value v[], int argc)
 525:class.c       **** {
 526:class.c       ****   int i;
 527:class.c       ****   for( i = 1; i <= argc; i++ ) {
 528:class.c       ****     mrbc_print_sub( &v[i] );
 529:class.c       ****   }
 530:class.c       **** }
 531:class.c       **** 
 532:class.c       **** 
 533:class.c       **** //================================================================
 534:class.c       **** /*! (operator) !
 535:class.c       ****  */
 536:class.c       **** static void c_object_not(struct VM *vm, mrbc_value v[], int argc)
 537:class.c       **** {
 538:class.c       ****   SET_FALSE_RETURN();
 539:class.c       **** }
 540:class.c       **** 
 541:class.c       **** 
 542:class.c       **** //================================================================
 543:class.c       **** /*! (operator) !=
 544:class.c       ****  */
ARM GAS  C:\Users\164\AppData\Local\Temp\ccvDnxKa.s 			page 11


 545:class.c       **** static void c_object_neq(struct VM *vm, mrbc_value v[], int argc)
 546:class.c       **** {
 547:class.c       ****   int result = mrbc_compare( &v[0], &v[1] );
 548:class.c       ****   SET_BOOL_RETURN( result != 0 );
 549:class.c       **** }
 550:class.c       **** 
 551:class.c       **** 
 552:class.c       **** //================================================================
 553:class.c       **** /*! (operator) <=>
 554:class.c       ****  */
 555:class.c       **** static void c_object_compare(struct VM *vm, mrbc_value v[], int argc)
 556:class.c       **** {
 557:class.c       ****   int result = mrbc_compare( &v[0], &v[1] );
 558:class.c       ****   SET_INT_RETURN( result );
 559:class.c       **** }
 560:class.c       **** 
 561:class.c       **** 
 562:class.c       **** //================================================================
 563:class.c       **** /*! (operator) ===
 564:class.c       ****  */
 565:class.c       **** static void c_object_equal3(struct VM *vm, mrbc_value v[], int argc)
 566:class.c       **** {
 567:class.c       ****   int result;
 568:class.c       **** 
 569:class.c       ****   if( v[0].tt == MRBC_TT_CLASS ) {
 570:class.c       ****     result = mrbc_obj_is_kind_of( &v[1], v[0].cls );
 571:class.c       ****   } else {
 572:class.c       ****     result = (mrbc_compare( &v[0], &v[1] ) == 0);
 573:class.c       ****   }
 574:class.c       **** 
 575:class.c       ****   SET_BOOL_RETURN( result );
 576:class.c       **** }
 577:class.c       **** 
 578:class.c       **** 
 579:class.c       **** //================================================================
 580:class.c       **** /*! (method) class
 581:class.c       ****  */
 582:class.c       **** static void c_object_class(struct VM *vm, mrbc_value v[], int argc)
 583:class.c       **** {
 584:class.c       ****   mrbc_value value = {.tt = MRBC_TT_CLASS};
 585:class.c       ****   value.cls = find_class_by_object( vm, v );
 586:class.c       ****   SET_RETURN( value );
 587:class.c       **** }
 588:class.c       **** 
 589:class.c       **** 
 590:class.c       **** 
 591:class.c       **** // Object.new
 592:class.c       **** static void c_object_new(struct VM *vm, mrbc_value v[], int argc)
 593:class.c       **** {
 594:class.c       ****   mrbc_value new_obj = mrbc_instance_new(vm, v->cls, 0);
 595:class.c       **** 
 596:class.c       ****   char syms[]="______initialize";
 597:class.c       ****   uint32_to_bin( 1,(uint8_t*)&syms[0]);
 598:class.c       ****   uint16_to_bin(10,(uint8_t*)&syms[4]);
 599:class.c       **** 
 600:class.c       ****   uint32_t code[2] = {
 601:class.c       ****     MKOPCODE(OP_SEND) | MKARG_A(0) | MKARG_B(0) | MKARG_C(argc),
ARM GAS  C:\Users\164\AppData\Local\Temp\ccvDnxKa.s 			page 12


 602:class.c       ****     MKOPCODE(OP_ABORT)
 603:class.c       ****     };
 604:class.c       ****    mrbc_irep irep = {
 605:class.c       ****     0,     // nlocals
 606:class.c       ****     0,     // nregs
 607:class.c       ****     0,     // rlen
 608:class.c       ****     2,     // ilen
 609:class.c       ****     0,     // plen
 610:class.c       ****     (uint8_t *)code,   // iseq
 611:class.c       ****     NULL,  // pools
 612:class.c       ****     (uint8_t *)syms,  // ptr_to_sym
 613:class.c       ****     NULL,  // reps
 614:class.c       ****   };
 615:class.c       **** 
 616:class.c       ****   mrbc_release(&v[0]);
 617:class.c       ****   v[0] = new_obj;
 618:class.c       ****   mrbc_dup(&new_obj);
 619:class.c       **** 
 620:class.c       ****   mrbc_irep *org_pc_irep = vm->pc_irep;
 621:class.c       ****   uint16_t  org_pc = vm->pc;
 622:class.c       ****   mrbc_value* org_regs = vm->current_regs;
 623:class.c       ****   vm->pc = 0;
 624:class.c       ****   vm->pc_irep = &irep;
 625:class.c       ****   vm->current_regs = v;
 626:class.c       **** 
 627:class.c       ****   while( mrbc_vm_run(vm) == 0 )
 628:class.c       ****     ;
 629:class.c       **** 
 630:class.c       ****   vm->pc = org_pc;
 631:class.c       ****   vm->pc_irep = org_pc_irep;
 632:class.c       ****   vm->current_regs = org_regs;
 633:class.c       **** 
 634:class.c       ****   SET_RETURN(new_obj);
 635:class.c       **** }
 636:class.c       **** 
 637:class.c       **** //================================================================
 638:class.c       **** /*! (method) instance variable getter
 639:class.c       ****  */
 640:class.c       **** static void c_object_getiv(struct VM *vm, mrbc_value v[], int argc)
 641:class.c       **** {
 642:class.c       ****   const char *name = mrbc_get_callee_name(vm);
 643:class.c       ****   mrbc_sym sym_id = str_to_symid( name );
 644:class.c       ****   mrbc_value ret = mrbc_instance_getiv(&v[0], sym_id);
 645:class.c       **** 
 646:class.c       ****   SET_RETURN(ret);
 647:class.c       **** }
 648:class.c       **** 
 649:class.c       **** 
 650:class.c       **** //================================================================
 651:class.c       **** /*! (method) instance variable setter
 652:class.c       ****  */
 653:class.c       **** static void c_object_setiv(struct VM *vm, mrbc_value v[], int argc)
 654:class.c       **** {
 655:class.c       ****   const char *name = mrbc_get_callee_name(vm);
 656:class.c       **** 
 657:class.c       ****   char *namebuf = mrbc_alloc(vm, strlen(name));
 658:class.c       ****   if( !namebuf ) return;
ARM GAS  C:\Users\164\AppData\Local\Temp\ccvDnxKa.s 			page 13


 659:class.c       ****   strcpy(namebuf, name);
 660:class.c       ****   namebuf[strlen(name)-1] = '\0';	// delete '='
 661:class.c       ****   mrbc_sym sym_id = str_to_symid(namebuf);
 662:class.c       **** 
 663:class.c       ****   mrbc_instance_setiv(&v[0], sym_id, &v[1]);
 664:class.c       ****   mrbc_raw_free(namebuf);
 665:class.c       **** }
 666:class.c       **** 
 667:class.c       **** 
 668:class.c       **** 
 669:class.c       **** //================================================================
 670:class.c       **** /*! (class method) access method 'attr_reader'
 671:class.c       ****  */
 672:class.c       **** static void c_object_attr_reader(struct VM *vm, mrbc_value v[], int argc)
 673:class.c       **** {
 674:class.c       ****   int i;
 675:class.c       ****   for( i = 1; i <= argc; i++ ) {
 676:class.c       ****     if( v[i].tt != MRBC_TT_SYMBOL ) continue;	// TypeError raise?
 677:class.c       **** 
 678:class.c       ****     // define reader method
 679:class.c       ****     const char *name = mrbc_symbol_cstr(&v[i]);
 680:class.c       ****     mrbc_define_method(vm, v[0].cls, name, c_object_getiv);
 681:class.c       ****   }
 682:class.c       **** }
 683:class.c       **** 
 684:class.c       **** 
 685:class.c       **** //================================================================
 686:class.c       **** /*! (class method) access method 'attr_accessor'
 687:class.c       ****  */
 688:class.c       **** static void c_object_attr_accessor(struct VM *vm, mrbc_value v[], int argc)
 689:class.c       **** {
 690:class.c       ****   int i;
 691:class.c       ****   for( i = 1; i <= argc; i++ ) {
 692:class.c       ****     if( v[i].tt != MRBC_TT_SYMBOL ) continue;	// TypeError raise?
 693:class.c       **** 
 694:class.c       ****     // define reader method
 695:class.c       ****     const char *name = mrbc_symbol_cstr(&v[i]);
 696:class.c       ****     mrbc_define_method(vm, v[0].cls, name, c_object_getiv);
 697:class.c       **** 
 698:class.c       ****     // make string "....=" and define writer method.
 699:class.c       ****     char *namebuf = mrbc_alloc(vm, strlen(name)+2);
 700:class.c       ****     if( !namebuf ) return;
 701:class.c       ****     strcpy(namebuf, name);
 702:class.c       ****     strcat(namebuf, "=");
 703:class.c       ****     mrbc_symbol_new(vm, namebuf);
 704:class.c       ****     mrbc_define_method(vm, v[0].cls, namebuf, c_object_setiv);
 705:class.c       ****     mrbc_raw_free(namebuf);
 706:class.c       ****   }
 707:class.c       **** }
 708:class.c       **** 
 709:class.c       **** 
 710:class.c       **** //================================================================
 711:class.c       **** /*! (method) is_a, kind_of
 712:class.c       ****  */
 713:class.c       **** static void c_object_kind_of(struct VM *vm, mrbc_value v[], int argc)
 714:class.c       **** {
 715:class.c       ****   int result = 0;
ARM GAS  C:\Users\164\AppData\Local\Temp\ccvDnxKa.s 			page 14


 716:class.c       ****   if( v[1].tt != MRBC_TT_CLASS ) goto DONE;
 717:class.c       **** 
 718:class.c       ****   result = mrbc_obj_is_kind_of( &v[0], v[1].cls );
 719:class.c       **** 
 720:class.c       ****  DONE:
 721:class.c       ****   SET_BOOL_RETURN( result );
 722:class.c       **** }
 723:class.c       **** 
 724:class.c       **** 
 725:class.c       **** #if MRBC_USE_STRING
 726:class.c       **** //================================================================
 727:class.c       **** /*! (method) to_s
 728:class.c       ****  */
 729:class.c       **** static void c_object_to_s(struct VM *vm, mrbc_value v[], int argc)
 730:class.c       **** {
 731:class.c       ****   char buf[32];
 732:class.c       ****   const char *s = buf;
 733:class.c       **** 
 734:class.c       ****   switch( v->tt ) {
 735:class.c       ****   case MRBC_TT_CLASS:
 736:class.c       ****     s = symid_to_str( v->cls->sym_id );
 737:class.c       ****     break;
 738:class.c       **** 
 739:class.c       ****   case MRBC_TT_OBJECT:{
 740:class.c       ****     // (NOTE) address part assumes 32bit. but enough for this.
 741:class.c       ****     mrbc_printf pf;
 742:class.c       **** 
 743:class.c       ****     mrbc_printf_init( &pf, buf, sizeof(buf), "#<%s:%08x>" );
 744:class.c       ****     while( mrbc_printf_main( &pf ) > 0 ) {
 745:class.c       ****       switch(pf.fmt.type) {
 746:class.c       ****       case 's':
 747:class.c       **** 	mrbc_printf_str( &pf, symid_to_str(v->instance->cls->sym_id), ' ' );
 748:class.c       **** 	break;
 749:class.c       ****       case 'x':
 750:class.c       **** 	mrbc_printf_int( &pf, (uintptr_t)v->instance, 16 );
 751:class.c       **** 	break;
 752:class.c       ****       }
 753:class.c       ****     }
 754:class.c       ****     mrbc_printf_end( &pf );
 755:class.c       ****   } break;
 756:class.c       **** 
 757:class.c       ****   default:
 758:class.c       ****     s = "";
 759:class.c       ****     break;
 760:class.c       ****   }
 761:class.c       **** 
 762:class.c       ****   SET_RETURN( mrbc_string_new_cstr( vm, s ) );
 763:class.c       **** }
 764:class.c       **** #endif
 765:class.c       **** 
 766:class.c       **** 
 767:class.c       **** #ifdef MRBC_DEBUG
 768:class.c       **** static void c_object_instance_methods(struct VM *vm, mrbc_value v[], int argc)
 769:class.c       **** {
 770:class.c       ****   // TODO: check argument.
 771:class.c       **** 
 772:class.c       ****   // temporary code for operation check.
ARM GAS  C:\Users\164\AppData\Local\Temp\ccvDnxKa.s 			page 15


 773:class.c       ****   console_printf( "[" );
 774:class.c       ****   int flag_first = 1;
 775:class.c       **** 
 776:class.c       ****   mrbc_class *cls = find_class_by_object( vm, v );
 777:class.c       ****   mrbc_proc *proc = cls->procs;
 778:class.c       ****   while( proc ) {
 779:class.c       ****     console_printf( "%s:%s", (flag_first ? "" : ", "),
 780:class.c       **** 		    symid_to_str(proc->sym_id) );
 781:class.c       ****     flag_first = 0;
 782:class.c       ****     proc = proc->next;
 783:class.c       ****   }
 784:class.c       **** 
 785:class.c       ****   console_printf( "]" );
 786:class.c       **** 
 787:class.c       ****   SET_NIL_RETURN();
 788:class.c       **** }
 789:class.c       **** #endif
 790:class.c       **** 
 791:class.c       **** 
 792:class.c       **** static void mrbc_init_class_object(struct VM *vm)
 793:class.c       **** {
 794:class.c       ****   // Class
 795:class.c       ****   mrbc_class_object = mrbc_define_class(vm, "Object", 0);
 796:class.c       ****   // Methods
 797:class.c       ****   mrbc_define_method(vm, mrbc_class_object, "initialize", c_ineffect);
 798:class.c       ****   mrbc_define_method(vm, mrbc_class_object, "alias_method", c_object_alias_method);
 799:class.c       ****   mrbc_define_method(vm, mrbc_class_object, "puts", c_object_puts);
 800:class.c       ****   mrbc_define_method(vm, mrbc_class_object, "print", c_object_print);
 801:class.c       ****   mrbc_define_method(vm, mrbc_class_object, "!", c_object_not);
 802:class.c       ****   mrbc_define_method(vm, mrbc_class_object, "!=", c_object_neq);
 803:class.c       ****   mrbc_define_method(vm, mrbc_class_object, "<=>", c_object_compare);
 804:class.c       ****   mrbc_define_method(vm, mrbc_class_object, "===", c_object_equal3);
 805:class.c       ****   mrbc_define_method(vm, mrbc_class_object, "class", c_object_class);
 806:class.c       ****   mrbc_define_method(vm, mrbc_class_object, "new", c_object_new);
 807:class.c       ****   mrbc_define_method(vm, mrbc_class_object, "attr_reader", c_object_attr_reader);
 808:class.c       ****   mrbc_define_method(vm, mrbc_class_object, "attr_accessor", c_object_attr_accessor);
 809:class.c       ****   mrbc_define_method(vm, mrbc_class_object, "is_a?", c_object_kind_of);
 810:class.c       ****   mrbc_define_method(vm, mrbc_class_object, "kind_of?", c_object_kind_of);
 811:class.c       **** 
 812:class.c       **** 
 813:class.c       **** #if MRBC_USE_STRING
 814:class.c       ****   mrbc_define_method(vm, mrbc_class_object, "inspect", c_object_to_s);
 815:class.c       ****   mrbc_define_method(vm, mrbc_class_object, "to_s", c_object_to_s);
 816:class.c       **** #endif
 817:class.c       **** 
 818:class.c       **** #ifdef MRBC_DEBUG
 819:class.c       ****   mrbc_define_method(vm, mrbc_class_object, "instance_methods", c_object_instance_methods);
 820:class.c       ****   mrbc_define_method(vm, mrbc_class_object, "p", c_object_p);
 821:class.c       **** #endif
 822:class.c       **** }
 823:class.c       **** 
 824:class.c       **** // =============== ProcClass
 825:class.c       **** 
 826:class.c       **** void c_proc_call(struct VM *vm, mrbc_value v[], int argc)
 827:class.c       **** {
 828:class.c       ****   // push callinfo, but not release regs
 829:class.c       ****   mrbc_push_callinfo(vm, argc);
ARM GAS  C:\Users\164\AppData\Local\Temp\ccvDnxKa.s 			page 16


 830:class.c       **** 
 831:class.c       ****   // target irep
 832:class.c       ****   vm->pc = 0;
 833:class.c       ****   vm->pc_irep = v[0].proc->irep;
 834:class.c       **** 
 835:class.c       ****   vm->current_regs = v;
 836:class.c       **** }
 837:class.c       **** 
 838:class.c       **** 
 839:class.c       **** #if MRBC_USE_STRING
 840:class.c       **** static void c_proc_to_s(struct VM *vm, mrbc_value v[], int argc)
 841:class.c       **** {
 842:class.c       ****   // (NOTE) address part assumes 32bit. but enough for this.
 843:class.c       ****   char buf[32];
 844:class.c       ****   mrbc_printf pf;
 845:class.c       **** 
 846:class.c       ****   mrbc_printf_init( &pf, buf, sizeof(buf), "<#Proc:%08x>" );
 847:class.c       ****   while( mrbc_printf_main( &pf ) > 0 ) {
 848:class.c       ****     mrbc_printf_int( &pf, (uintptr_t)v->proc, 16 );
 849:class.c       ****   }
 850:class.c       ****   mrbc_printf_end( &pf );
 851:class.c       **** 
 852:class.c       ****   SET_RETURN( mrbc_string_new_cstr( vm, buf ) );
 853:class.c       **** }
 854:class.c       **** #endif
 855:class.c       **** 
 856:class.c       **** static void mrbc_init_class_proc(struct VM *vm)
 857:class.c       **** {
 858:class.c       ****   // Class
 859:class.c       ****   mrbc_class_proc= mrbc_define_class(vm, "Proc", mrbc_class_object);
 860:class.c       ****   // Methods
 861:class.c       ****   mrbc_define_method(vm, mrbc_class_proc, "call", c_proc_call);
 862:class.c       **** #if MRBC_USE_STRING
 863:class.c       ****   mrbc_define_method(vm, mrbc_class_proc, "inspect", c_proc_to_s);
 864:class.c       ****   mrbc_define_method(vm, mrbc_class_proc, "to_s", c_proc_to_s);
 865:class.c       **** #endif
 866:class.c       **** }
 867:class.c       **** 
 868:class.c       **** 
 869:class.c       **** //================================================================
 870:class.c       **** // Nil class
 871:class.c       **** 
 872:class.c       **** //================================================================
 873:class.c       **** /*! (method) !
 874:class.c       **** */
 875:class.c       **** static void c_nil_false_not(struct VM *vm, mrbc_value v[], int argc)
 876:class.c       **** {
  27              		.loc 1 876 0
  28              		.cfi_startproc
  29              		@ args = 0, pretend = 0, frame = 0
  30              		@ frame_needed = 0, uses_anonymous_args = 0
  31              		@ link register save eliminated.
  32              	.LVL0:
 877:class.c       ****   v[0].tt = MRBC_TT_TRUE;
  33              		.loc 1 877 0
  34 0000 0323     		movs	r3, #3
  35 0002 0B70     		strb	r3, [r1]
ARM GAS  C:\Users\164\AppData\Local\Temp\ccvDnxKa.s 			page 17


  36 0004 7047     		bx	lr
  37              		.cfi_endproc
  38              	.LFE124:
  39              		.size	c_nil_false_not, .-c_nil_false_not
  40 0006 00BF     		.section	.text.c_ineffect,"ax",%progbits
  41              		.align	2
  42              		.global	c_ineffect
  43              		.thumb
  44              		.thumb_func
  45              		.type	c_ineffect, %function
  46              	c_ineffect:
  47              	.LFB132:
 878:class.c       **** }
 879:class.c       **** 
 880:class.c       **** 
 881:class.c       **** #if MRBC_USE_STRING
 882:class.c       **** //================================================================
 883:class.c       **** /*! (method) inspect
 884:class.c       **** */
 885:class.c       **** static void c_nil_inspect(struct VM *vm, mrbc_value v[], int argc)
 886:class.c       **** {
 887:class.c       ****   v[0] = mrbc_string_new_cstr(vm, "nil");
 888:class.c       **** }
 889:class.c       **** 
 890:class.c       **** 
 891:class.c       **** //================================================================
 892:class.c       **** /*! (method) to_s
 893:class.c       **** */
 894:class.c       **** static void c_nil_to_s(struct VM *vm, mrbc_value v[], int argc)
 895:class.c       **** {
 896:class.c       ****   v[0] = mrbc_string_new(vm, NULL, 0);
 897:class.c       **** }
 898:class.c       **** #endif
 899:class.c       **** 
 900:class.c       **** //================================================================
 901:class.c       **** /*! Nil class
 902:class.c       **** */
 903:class.c       **** static void mrbc_init_class_nil(struct VM *vm)
 904:class.c       **** {
 905:class.c       ****   // Class
 906:class.c       ****   mrbc_class_nil = mrbc_define_class(vm, "NilClass", mrbc_class_object);
 907:class.c       ****   // Methods
 908:class.c       ****   mrbc_define_method(vm, mrbc_class_nil, "!", c_nil_false_not);
 909:class.c       **** #if MRBC_USE_STRING
 910:class.c       ****   mrbc_define_method(vm, mrbc_class_nil, "inspect", c_nil_inspect);
 911:class.c       ****   mrbc_define_method(vm, mrbc_class_nil, "to_s", c_nil_to_s);
 912:class.c       **** #endif
 913:class.c       **** }
 914:class.c       **** 
 915:class.c       **** 
 916:class.c       **** 
 917:class.c       **** //================================================================
 918:class.c       **** // False class
 919:class.c       **** 
 920:class.c       **** #if MRBC_USE_STRING
 921:class.c       **** //================================================================
 922:class.c       **** /*! (method) to_s
ARM GAS  C:\Users\164\AppData\Local\Temp\ccvDnxKa.s 			page 18


 923:class.c       **** */
 924:class.c       **** static void c_false_to_s(struct VM *vm, mrbc_value v[], int argc)
 925:class.c       **** {
 926:class.c       ****   v[0] = mrbc_string_new_cstr(vm, "false");
 927:class.c       **** }
 928:class.c       **** #endif
 929:class.c       **** 
 930:class.c       **** //================================================================
 931:class.c       **** /*! False class
 932:class.c       **** */
 933:class.c       **** static void mrbc_init_class_false(struct VM *vm)
 934:class.c       **** {
 935:class.c       ****   // Class
 936:class.c       ****   mrbc_class_false = mrbc_define_class(vm, "FalseClass", mrbc_class_object);
 937:class.c       ****   // Methods
 938:class.c       ****   mrbc_define_method(vm, mrbc_class_false, "!", c_nil_false_not);
 939:class.c       **** #if MRBC_USE_STRING
 940:class.c       ****   mrbc_define_method(vm, mrbc_class_false, "inspect", c_false_to_s);
 941:class.c       ****   mrbc_define_method(vm, mrbc_class_false, "to_s", c_false_to_s);
 942:class.c       **** #endif
 943:class.c       **** }
 944:class.c       **** 
 945:class.c       **** 
 946:class.c       **** 
 947:class.c       **** //================================================================
 948:class.c       **** // True class
 949:class.c       **** 
 950:class.c       **** #if MRBC_USE_STRING
 951:class.c       **** //================================================================
 952:class.c       **** /*! (method) to_s
 953:class.c       **** */
 954:class.c       **** static void c_true_to_s(struct VM *vm, mrbc_value v[], int argc)
 955:class.c       **** {
 956:class.c       ****   v[0] = mrbc_string_new_cstr(vm, "true");
 957:class.c       **** }
 958:class.c       **** #endif
 959:class.c       **** 
 960:class.c       **** static void mrbc_init_class_true(struct VM *vm)
 961:class.c       **** {
 962:class.c       ****   // Class
 963:class.c       ****   mrbc_class_true = mrbc_define_class(vm, "TrueClass", mrbc_class_object);
 964:class.c       ****   // Methods
 965:class.c       **** #if MRBC_USE_STRING
 966:class.c       ****   mrbc_define_method(vm, mrbc_class_true, "inspect", c_true_to_s);
 967:class.c       ****   mrbc_define_method(vm, mrbc_class_true, "to_s", c_true_to_s);
 968:class.c       **** #endif
 969:class.c       **** }
 970:class.c       **** 
 971:class.c       **** 
 972:class.c       **** 
 973:class.c       **** //================================================================
 974:class.c       **** /*! Ineffect operator / method
 975:class.c       **** */
 976:class.c       **** void c_ineffect(struct VM *vm, mrbc_value v[], int argc)
 977:class.c       **** {
  48              		.loc 1 977 0
  49              		.cfi_startproc
ARM GAS  C:\Users\164\AppData\Local\Temp\ccvDnxKa.s 			page 19


  50              		@ args = 0, pretend = 0, frame = 0
  51              		@ frame_needed = 0, uses_anonymous_args = 0
  52              		@ link register save eliminated.
  53              	.LVL1:
  54 0000 7047     		bx	lr
  55              		.cfi_endproc
  56              	.LFE132:
  57              		.size	c_ineffect, .-c_ineffect
  58 0002 00BF     		.section	.text.c_proc_call,"ax",%progbits
  59              		.align	2
  60              		.global	c_proc_call
  61              		.thumb
  62              		.thumb_func
  63              		.type	c_proc_call, %function
  64              	c_proc_call:
  65              	.LFB121:
 827:class.c       ****   // push callinfo, but not release regs
  66              		.loc 1 827 0
  67              		.cfi_startproc
  68              		@ args = 0, pretend = 0, frame = 0
  69              		@ frame_needed = 0, uses_anonymous_args = 0
  70              	.LVL2:
 827:class.c       ****   // push callinfo, but not release regs
  71              		.loc 1 827 0
  72 0000 38B5     		push	{r3, r4, r5, lr}
  73              		.cfi_def_cfa_offset 16
  74              		.cfi_offset 3, -16
  75              		.cfi_offset 4, -12
  76              		.cfi_offset 5, -8
  77              		.cfi_offset 14, -4
  78 0002 0446     		mov	r4, r0
  79 0004 0D46     		mov	r5, r1
 829:class.c       **** 
  80              		.loc 1 829 0
  81 0006 1146     		mov	r1, r2
  82              	.LVL3:
  83 0008 FFF7FEFF 		bl	mrbc_push_callinfo
  84              	.LVL4:
 832:class.c       ****   vm->pc_irep = v[0].proc->irep;
  85              		.loc 1 832 0
  86 000c 0023     		movs	r3, #0
  87 000e 2382     		strh	r3, [r4, #16]	@ movhi
 833:class.c       **** 
  88              		.loc 1 833 0
  89 0010 AB68     		ldr	r3, [r5, #8]
  90 0012 DB68     		ldr	r3, [r3, #12]
  91 0014 E360     		str	r3, [r4, #12]
 835:class.c       **** }
  92              		.loc 1 835 0
  93 0016 C4F85856 		str	r5, [r4, #1624]
  94 001a 38BD     		pop	{r3, r4, r5, pc}
  95              		.cfi_endproc
  96              	.LFE121:
  97              		.size	c_proc_call, .-c_proc_call
  98              		.section	.text.c_nil_inspect,"ax",%progbits
  99              		.align	2
 100              		.thumb
ARM GAS  C:\Users\164\AppData\Local\Temp\ccvDnxKa.s 			page 20


 101              		.thumb_func
 102              		.type	c_nil_inspect, %function
 103              	c_nil_inspect:
 104              	.LFB125:
 886:class.c       ****   v[0] = mrbc_string_new_cstr(vm, "nil");
 105              		.loc 1 886 0
 106              		.cfi_startproc
 107              		@ args = 0, pretend = 0, frame = 16
 108              		@ frame_needed = 0, uses_anonymous_args = 0
 109              	.LVL5:
 110 0000 30B5     		push	{r4, r5, lr}
 111              		.cfi_def_cfa_offset 12
 112              		.cfi_offset 4, -12
 113              		.cfi_offset 5, -8
 114              		.cfi_offset 14, -4
 115 0002 85B0     		sub	sp, sp, #20
 116              		.cfi_def_cfa_offset 32
 117 0004 0D46     		mov	r5, r1
 887:class.c       **** }
 118              		.loc 1 887 0
 119 0006 054A     		ldr	r2, .L7
 120              	.LVL6:
 121 0008 0146     		mov	r1, r0
 122              	.LVL7:
 123 000a 6846     		mov	r0, sp
 124              	.LVL8:
 125 000c FFF7FEFF 		bl	mrbc_string_new_cstr
 126              	.LVL9:
 127 0010 9DE80F00 		ldmia	sp, {r0, r1, r2, r3}
 128 0014 85E80F00 		stmia	r5, {r0, r1, r2, r3}
 888:class.c       **** 
 129              		.loc 1 888 0
 130 0018 05B0     		add	sp, sp, #20
 131              		.cfi_def_cfa_offset 12
 132              		@ sp needed
 133 001a 30BD     		pop	{r4, r5, pc}
 134              	.LVL10:
 135              	.L8:
 136              		.align	2
 137              	.L7:
 138 001c 00000000 		.word	.LC0
 139              		.cfi_endproc
 140              	.LFE125:
 141              		.size	c_nil_inspect, .-c_nil_inspect
 142              		.section	.text.c_false_to_s,"ax",%progbits
 143              		.align	2
 144              		.thumb
 145              		.thumb_func
 146              		.type	c_false_to_s, %function
 147              	c_false_to_s:
 148              	.LFB128:
 925:class.c       ****   v[0] = mrbc_string_new_cstr(vm, "false");
 149              		.loc 1 925 0
 150              		.cfi_startproc
 151              		@ args = 0, pretend = 0, frame = 16
 152              		@ frame_needed = 0, uses_anonymous_args = 0
 153              	.LVL11:
ARM GAS  C:\Users\164\AppData\Local\Temp\ccvDnxKa.s 			page 21


 154 0000 30B5     		push	{r4, r5, lr}
 155              		.cfi_def_cfa_offset 12
 156              		.cfi_offset 4, -12
 157              		.cfi_offset 5, -8
 158              		.cfi_offset 14, -4
 159 0002 85B0     		sub	sp, sp, #20
 160              		.cfi_def_cfa_offset 32
 161 0004 0D46     		mov	r5, r1
 926:class.c       **** }
 162              		.loc 1 926 0
 163 0006 054A     		ldr	r2, .L11
 164              	.LVL12:
 165 0008 0146     		mov	r1, r0
 166              	.LVL13:
 167 000a 6846     		mov	r0, sp
 168              	.LVL14:
 169 000c FFF7FEFF 		bl	mrbc_string_new_cstr
 170              	.LVL15:
 171 0010 9DE80F00 		ldmia	sp, {r0, r1, r2, r3}
 172 0014 85E80F00 		stmia	r5, {r0, r1, r2, r3}
 927:class.c       **** #endif
 173              		.loc 1 927 0
 174 0018 05B0     		add	sp, sp, #20
 175              		.cfi_def_cfa_offset 12
 176              		@ sp needed
 177 001a 30BD     		pop	{r4, r5, pc}
 178              	.LVL16:
 179              	.L12:
 180              		.align	2
 181              	.L11:
 182 001c 04000000 		.word	.LC1
 183              		.cfi_endproc
 184              	.LFE128:
 185              		.size	c_false_to_s, .-c_false_to_s
 186              		.section	.text.c_true_to_s,"ax",%progbits
 187              		.align	2
 188              		.thumb
 189              		.thumb_func
 190              		.type	c_true_to_s, %function
 191              	c_true_to_s:
 192              	.LFB130:
 955:class.c       ****   v[0] = mrbc_string_new_cstr(vm, "true");
 193              		.loc 1 955 0
 194              		.cfi_startproc
 195              		@ args = 0, pretend = 0, frame = 16
 196              		@ frame_needed = 0, uses_anonymous_args = 0
 197              	.LVL17:
 198 0000 30B5     		push	{r4, r5, lr}
 199              		.cfi_def_cfa_offset 12
 200              		.cfi_offset 4, -12
 201              		.cfi_offset 5, -8
 202              		.cfi_offset 14, -4
 203 0002 85B0     		sub	sp, sp, #20
 204              		.cfi_def_cfa_offset 32
 205 0004 0D46     		mov	r5, r1
 956:class.c       **** }
 206              		.loc 1 956 0
ARM GAS  C:\Users\164\AppData\Local\Temp\ccvDnxKa.s 			page 22


 207 0006 054A     		ldr	r2, .L15
 208              	.LVL18:
 209 0008 0146     		mov	r1, r0
 210              	.LVL19:
 211 000a 6846     		mov	r0, sp
 212              	.LVL20:
 213 000c FFF7FEFF 		bl	mrbc_string_new_cstr
 214              	.LVL21:
 215 0010 9DE80F00 		ldmia	sp, {r0, r1, r2, r3}
 216 0014 85E80F00 		stmia	r5, {r0, r1, r2, r3}
 957:class.c       **** #endif
 217              		.loc 1 957 0
 218 0018 05B0     		add	sp, sp, #20
 219              		.cfi_def_cfa_offset 12
 220              		@ sp needed
 221 001a 30BD     		pop	{r4, r5, pc}
 222              	.LVL22:
 223              	.L16:
 224              		.align	2
 225              	.L15:
 226 001c 0C000000 		.word	.LC2
 227              		.cfi_endproc
 228              	.LFE130:
 229              		.size	c_true_to_s, .-c_true_to_s
 230              		.section	.text.c_object_not,"ax",%progbits
 231              		.align	2
 232              		.thumb
 233              		.thumb_func
 234              		.type	c_object_not, %function
 235              	c_object_not:
 236              	.LFB108:
 537:class.c       ****   SET_FALSE_RETURN();
 237              		.loc 1 537 0
 238              		.cfi_startproc
 239              		@ args = 0, pretend = 0, frame = 0
 240              		@ frame_needed = 0, uses_anonymous_args = 0
 241              	.LVL23:
 242 0000 10B5     		push	{r4, lr}
 243              		.cfi_def_cfa_offset 8
 244              		.cfi_offset 4, -8
 245              		.cfi_offset 14, -4
 246 0002 0C46     		mov	r4, r1
 538:class.c       **** }
 247              		.loc 1 538 0
 248 0004 0846     		mov	r0, r1
 249              	.LVL24:
 250 0006 FFF7FEFF 		bl	mrbc_dec_ref_counter
 251              	.LVL25:
 252 000a 0223     		movs	r3, #2
 253 000c 2370     		strb	r3, [r4]
 254 000e 10BD     		pop	{r4, pc}
 255              		.cfi_endproc
 256              	.LFE108:
 257              		.size	c_object_not, .-c_object_not
 258              		.section	.text.c_proc_to_s,"ax",%progbits
 259              		.align	2
 260              		.thumb
ARM GAS  C:\Users\164\AppData\Local\Temp\ccvDnxKa.s 			page 23


 261              		.thumb_func
 262              		.type	c_proc_to_s, %function
 263              	c_proc_to_s:
 264              	.LFB122:
 841:class.c       ****   // (NOTE) address part assumes 32bit. but enough for this.
 265              		.loc 1 841 0
 266              		.cfi_startproc
 267              		@ args = 0, pretend = 0, frame = 80
 268              		@ frame_needed = 0, uses_anonymous_args = 0
 269              	.LVL26:
 270 0000 70B5     		push	{r4, r5, r6, lr}
 271              		.cfi_def_cfa_offset 16
 272              		.cfi_offset 4, -16
 273              		.cfi_offset 5, -12
 274              		.cfi_offset 6, -8
 275              		.cfi_offset 14, -4
 276 0002 94B0     		sub	sp, sp, #80
 277              		.cfi_def_cfa_offset 96
 278 0004 0646     		mov	r6, r0
 279 0006 0C46     		mov	r4, r1
 280              	.LVL27:
 281              	.LBB98:
 282              	.LBB99:
 283              		.file 2 "console.h"
   1:console.h     **** /*! @file
   2:console.h     ****   @brief
   3:console.h     ****   console output module. (not yet input)
   4:console.h     **** 
   5:console.h     ****   <pre>
   6:console.h     ****   Copyright (C) 2015-2018 Kyushu Institute of Technology.
   7:console.h     ****   Copyright (C) 2015-2018 Shimane IT Open-Innovation Center.
   8:console.h     **** 
   9:console.h     ****   This file is distributed under BSD 3-Clause License.
  10:console.h     **** 
  11:console.h     ****   </pre>
  12:console.h     **** */
  13:console.h     **** 
  14:console.h     **** #ifndef MRBC_SRC_CONSOLE_H_
  15:console.h     **** #define MRBC_SRC_CONSOLE_H_
  16:console.h     **** 
  17:console.h     **** #include <stdint.h>
  18:console.h     **** #include <stdarg.h>
  19:console.h     **** #include <string.h>
  20:console.h     **** #include "hal/hal.h"
  21:console.h     **** 
  22:console.h     **** #ifdef __cplusplus
  23:console.h     **** extern "C" {
  24:console.h     **** #endif
  25:console.h     **** 
  26:console.h     **** 
  27:console.h     **** //================================================================
  28:console.h     **** /*! printf tiny (mruby/c) version data container.
  29:console.h     **** */
  30:console.h     **** typedef struct RPrintf {
  31:console.h     ****   char *buf;		//!< output buffer.
  32:console.h     ****   const char *buf_end;	//!< output buffer end point.
  33:console.h     ****   char *p;		//!< output buffer write point.
ARM GAS  C:\Users\164\AppData\Local\Temp\ccvDnxKa.s 			page 24


  34:console.h     ****   const char *fstr;	//!< format string. (e.g. "%d %03x")
  35:console.h     **** 
  36:console.h     ****   struct RPrintfFormat {
  37:console.h     ****     char type;				//!< format char. (e.g. 'd','f','x'...)
  38:console.h     ****     unsigned int flag_plus : 1;
  39:console.h     ****     unsigned int flag_minus : 1;
  40:console.h     ****     unsigned int flag_space : 1;
  41:console.h     ****     unsigned int flag_zero : 1;
  42:console.h     ****     int width;				//!< display width. (e.g. %10d as 10)
  43:console.h     ****     int precision;			//!< precision (e.g. %5.2f as 2)
  44:console.h     ****   } fmt;
  45:console.h     **** } mrbc_printf;
  46:console.h     **** 
  47:console.h     **** 
  48:console.h     **** void console_printf(const char *fstr, ...);
  49:console.h     **** int mrbc_printf_main(mrbc_printf *pf);
  50:console.h     **** int mrbc_printf_char(mrbc_printf *pf, int ch);
  51:console.h     **** int mrbc_printf_bstr(mrbc_printf *pf, const char *str, int len, int pad);
  52:console.h     **** int mrbc_printf_int(mrbc_printf *pf, mrbc_int value, int base);
  53:console.h     **** int mrbc_printf_float(mrbc_printf *pf, double value);
  54:console.h     **** void mrbc_printf_replace_buffer(mrbc_printf *pf, char *buf, int size);
  55:console.h     **** 
  56:console.h     **** 
  57:console.h     **** //================================================================
  58:console.h     **** /*! output a character
  59:console.h     **** 
  60:console.h     ****   @param  c	character
  61:console.h     **** */
  62:console.h     **** static inline void console_putchar(char c)
  63:console.h     **** {
  64:console.h     ****   hal_write(1, &c, 1);
  65:console.h     **** }
  66:console.h     **** 
  67:console.h     **** 
  68:console.h     **** //================================================================
  69:console.h     **** /*! output string
  70:console.h     **** 
  71:console.h     ****   @param str	str
  72:console.h     **** */
  73:console.h     **** static inline void console_print(const char *str)
  74:console.h     **** {
  75:console.h     ****   hal_write(1, str, strlen(str));
  76:console.h     **** }
  77:console.h     **** 
  78:console.h     **** 
  79:console.h     **** //================================================================
  80:console.h     **** /*! output string with length parameter.
  81:console.h     **** 
  82:console.h     ****   @param str	str
  83:console.h     ****   @param size	byte length.
  84:console.h     **** */
  85:console.h     **** static inline void console_nprint(const char *str, int size)
  86:console.h     **** {
  87:console.h     ****   hal_write(1, str, size);
  88:console.h     **** }
  89:console.h     **** 
  90:console.h     **** 
ARM GAS  C:\Users\164\AppData\Local\Temp\ccvDnxKa.s 			page 25


  91:console.h     **** //================================================================
  92:console.h     **** /*! initialize data container.
  93:console.h     **** 
  94:console.h     ****   @param  pf	pointer to mrbc_printf
  95:console.h     ****   @param  buf	pointer to output buffer.
  96:console.h     ****   @param  size	buffer size.
  97:console.h     ****   @param  fstr	format string.
  98:console.h     **** */
  99:console.h     **** static inline void mrbc_printf_init( mrbc_printf *pf, char *buf, int size,
 100:console.h     **** 				     const char *fstr )
 101:console.h     **** {
 102:console.h     ****   pf->p = pf->buf = buf;
 284              		.loc 2 102 0
 285 0008 0CAB     		add	r3, sp, #48
 286              	.LVL28:
 287 000a 0593     		str	r3, [sp, #20]
 288 000c 0793     		str	r3, [sp, #28]
 103:console.h     ****   pf->buf_end = buf + size - 1;
 289              		.loc 2 103 0
 290 000e 0DF14F03 		add	r3, sp, #79
 291              	.LVL29:
 292 0012 0693     		str	r3, [sp, #24]
 104:console.h     ****   pf->fstr = fstr;
 293              		.loc 2 104 0
 294 0014 104B     		ldr	r3, .L23
 295 0016 0893     		str	r3, [sp, #32]
 105:console.h     ****   pf->fmt = (struct RPrintfFormat){0};
 296              		.loc 2 105 0
 297 0018 0023     		movs	r3, #0
 298 001a 0993     		str	r3, [sp, #36]
 299 001c 0A93     		str	r3, [sp, #40]
 300 001e 0B93     		str	r3, [sp, #44]
 301 0020 04E0     		b	.L20
 302              	.LVL30:
 303              	.L21:
 304              	.LBE99:
 305              	.LBE98:
 848:class.c       ****   }
 306              		.loc 1 848 0
 307 0022 1022     		movs	r2, #16
 308 0024 A168     		ldr	r1, [r4, #8]
 309 0026 05A8     		add	r0, sp, #20
 310              	.LVL31:
 311 0028 FFF7FEFF 		bl	mrbc_printf_int
 312              	.LVL32:
 313              	.L20:
 847:class.c       ****     mrbc_printf_int( &pf, (uintptr_t)v->proc, 16 );
 314              		.loc 1 847 0
 315 002c 05A8     		add	r0, sp, #20
 316              	.LVL33:
 317 002e FFF7FEFF 		bl	mrbc_printf_main
 318              	.LVL34:
 319 0032 0028     		cmp	r0, #0
 320 0034 F5DC     		bgt	.L21
 321              	.LVL35:
 322              	.LBB100:
 323              	.LBB101:
ARM GAS  C:\Users\164\AppData\Local\Temp\ccvDnxKa.s 			page 26


 106:console.h     **** }
 107:console.h     **** 
 108:console.h     **** 
 109:console.h     **** //================================================================
 110:console.h     **** /*! clear output buffer in container.
 111:console.h     **** 
 112:console.h     ****   @param  pf	pointer to mrbc_printf
 113:console.h     **** */
 114:console.h     **** static inline void mrbc_printf_clear( mrbc_printf *pf )
 115:console.h     **** {
 116:console.h     ****   pf->p = pf->buf;
 117:console.h     **** }
 118:console.h     **** 
 119:console.h     **** 
 120:console.h     **** //================================================================
 121:console.h     **** /*! terminate ('\0') output buffer.
 122:console.h     **** 
 123:console.h     ****   @param  pf	pointer to mrbc_printf
 124:console.h     **** */
 125:console.h     **** static inline void mrbc_printf_end( mrbc_printf *pf )
 126:console.h     **** {
 127:console.h     ****   *pf->p = '\0';
 324              		.loc 2 127 0
 325 0036 0022     		movs	r2, #0
 326 0038 079B     		ldr	r3, [sp, #28]
 327 003a 1A70     		strb	r2, [r3]
 328              	.LVL36:
 329              	.LBE101:
 330              	.LBE100:
 331              	.LBB102:
 852:class.c       **** }
 332              		.loc 1 852 0
 333 003c 0CAA     		add	r2, sp, #48
 334              	.LVL37:
 335 003e 3146     		mov	r1, r6
 336 0040 6846     		mov	r0, sp
 337 0042 FFF7FEFF 		bl	mrbc_string_new_cstr
 338              	.LVL38:
 339 0046 2046     		mov	r0, r4
 340 0048 FFF7FEFF 		bl	mrbc_dec_ref_counter
 341              	.LVL39:
 342 004c 9DE80F00 		ldmia	sp, {r0, r1, r2, r3}
 343 0050 84E80F00 		stmia	r4, {r0, r1, r2, r3}
 344              	.LBE102:
 853:class.c       **** #endif
 345              		.loc 1 853 0
 346 0054 14B0     		add	sp, sp, #80
 347              		.cfi_def_cfa_offset 16
 348              		@ sp needed
 349 0056 70BD     		pop	{r4, r5, r6, pc}
 350              	.LVL40:
 351              	.L24:
 352              		.align	2
 353              	.L23:
 354 0058 14000000 		.word	.LC3
 355              		.cfi_endproc
 356              	.LFE122:
ARM GAS  C:\Users\164\AppData\Local\Temp\ccvDnxKa.s 			page 27


 357              		.size	c_proc_to_s, .-c_proc_to_s
 358              		.section	.text.c_object_to_s,"ax",%progbits
 359              		.align	2
 360              		.thumb
 361              		.thumb_func
 362              		.type	c_object_to_s, %function
 363              	c_object_to_s:
 364              	.LFB119:
 730:class.c       ****   char buf[32];
 365              		.loc 1 730 0
 366              		.cfi_startproc
 367              		@ args = 0, pretend = 0, frame = 64
 368              		@ frame_needed = 0, uses_anonymous_args = 0
 369              	.LVL41:
 370 0000 70B5     		push	{r4, r5, r6, lr}
 371              		.cfi_def_cfa_offset 16
 372              		.cfi_offset 4, -16
 373              		.cfi_offset 5, -12
 374              		.cfi_offset 6, -8
 375              		.cfi_offset 14, -4
 376 0002 90B0     		sub	sp, sp, #64
 377              		.cfi_def_cfa_offset 80
 378 0004 0646     		mov	r6, r0
 379 0006 0C46     		mov	r4, r1
 380              	.LVL42:
 734:class.c       ****   case MRBC_TT_CLASS:
 381              		.loc 1 734 0
 382 0008 91F90030 		ldrsb	r3, [r1]
 383 000c 072B     		cmp	r3, #7
 384 000e 02D0     		beq	.L27
 385 0010 142B     		cmp	r3, #20
 386 0012 07D0     		beq	.L28
 387 0014 39E0     		b	.L36
 388              	.L27:
 736:class.c       ****     break;
 389              		.loc 1 736 0
 390 0016 8B68     		ldr	r3, [r1, #8]
 391 0018 B3F90000 		ldrsh	r0, [r3]
 392              	.LVL43:
 393 001c FFF7FEFF 		bl	symid_to_str
 394              	.LVL44:
 395 0020 0246     		mov	r2, r0
 396              	.LVL45:
 737:class.c       **** 
 397              		.loc 1 737 0
 398 0022 33E0     		b	.L26
 399              	.LVL46:
 400              	.L28:
 401              	.LBB111:
 402              	.LBB112:
 403              	.LBB113:
 102:console.h     ****   pf->buf_end = buf + size - 1;
 404              		.loc 2 102 0
 405 0024 08AB     		add	r3, sp, #32
 406              	.LVL47:
 407 0026 0093     		str	r3, [sp]
 408 0028 0293     		str	r3, [sp, #8]
ARM GAS  C:\Users\164\AppData\Local\Temp\ccvDnxKa.s 			page 28


 103:console.h     ****   pf->fstr = fstr;
 409              		.loc 2 103 0
 410 002a 0DF13F03 		add	r3, sp, #63
 411              	.LVL48:
 412 002e 0193     		str	r3, [sp, #4]
 104:console.h     ****   pf->fmt = (struct RPrintfFormat){0};
 413              		.loc 2 104 0
 414 0030 1D4B     		ldr	r3, .L38
 415 0032 0393     		str	r3, [sp, #12]
 105:console.h     **** }
 416              		.loc 2 105 0
 417 0034 0023     		movs	r3, #0
 418 0036 0493     		str	r3, [sp, #16]
 419 0038 0593     		str	r3, [sp, #20]
 420 003a 0693     		str	r3, [sp, #24]
 421 003c 1BE0     		b	.L30
 422              	.LVL49:
 423              	.L34:
 424              	.LBE113:
 425              	.LBE112:
 745:class.c       ****       case 's':
 426              		.loc 1 745 0
 427 003e 9DF81030 		ldrb	r3, [sp, #16]	@ zero_extendqisi2
 428 0042 732B     		cmp	r3, #115
 429 0044 02D0     		beq	.L31
 430 0046 782B     		cmp	r3, #120
 431 0048 10D0     		beq	.L32
 432 004a 14E0     		b	.L30
 433              	.L31:
 747:class.c       **** 	break;
 434              		.loc 1 747 0
 435 004c A368     		ldr	r3, [r4, #8]
 436 004e 5B68     		ldr	r3, [r3, #4]
 437 0050 B3F90000 		ldrsh	r0, [r3]
 438 0054 FFF7FEFF 		bl	symid_to_str
 439              	.LVL50:
 440 0058 0546     		mov	r5, r0
 441              	.LVL51:
 442              	.LBB114:
 443              	.LBB115:
 128:console.h     **** }
 129:console.h     **** 
 130:console.h     **** 
 131:console.h     **** //================================================================
 132:console.h     **** /*! return string length in buffer
 133:console.h     **** 
 134:console.h     ****   @param  pf	pointer to mrbc_printf
 135:console.h     ****   @return	length
 136:console.h     **** */
 137:console.h     **** static inline int mrbc_printf_len( mrbc_printf *pf )
 138:console.h     **** {
 139:console.h     ****   return pf->p - pf->buf;
 140:console.h     **** }
 141:console.h     **** 
 142:console.h     **** 
 143:console.h     **** //================================================================
 144:console.h     **** /*! sprintf subcontract function for char '%s'
ARM GAS  C:\Users\164\AppData\Local\Temp\ccvDnxKa.s 			page 29


 145:console.h     **** 
 146:console.h     ****   @param  pf	pointer to mrbc_printf.
 147:console.h     ****   @param  str	output string.
 148:console.h     ****   @param  pad	padding character.
 149:console.h     ****   @retval 0	done.
 150:console.h     ****   @retval -1	buffer full.
 151:console.h     ****   @note		not terminate ('\0') buffer tail.
 152:console.h     **** */
 153:console.h     **** static inline int mrbc_printf_str( mrbc_printf *pf, const char *str, int pad )
 154:console.h     **** {
 155:console.h     ****   return mrbc_printf_bstr( pf, str, strlen(str), pad );
 444              		.loc 2 155 0
 445 005a FFF7FEFF 		bl	strlen
 446              	.LVL52:
 447 005e 2023     		movs	r3, #32
 448 0060 0246     		mov	r2, r0
 449 0062 2946     		mov	r1, r5
 450 0064 6846     		mov	r0, sp
 451 0066 FFF7FEFF 		bl	mrbc_printf_bstr
 452              	.LVL53:
 453 006a 04E0     		b	.L30
 454              	.LVL54:
 455              	.L32:
 456              	.LBE115:
 457              	.LBE114:
 750:class.c       **** 	break;
 458              		.loc 1 750 0
 459 006c 1022     		movs	r2, #16
 460 006e A168     		ldr	r1, [r4, #8]
 461 0070 6846     		mov	r0, sp
 462 0072 FFF7FEFF 		bl	mrbc_printf_int
 463              	.LVL55:
 464              	.L30:
 744:class.c       ****       switch(pf.fmt.type) {
 465              		.loc 1 744 0
 466 0076 6846     		mov	r0, sp
 467 0078 FFF7FEFF 		bl	mrbc_printf_main
 468              	.LVL56:
 469 007c 0028     		cmp	r0, #0
 470 007e DEDC     		bgt	.L34
 471              	.LVL57:
 472              	.LBB116:
 473              	.LBB117:
 127:console.h     **** }
 474              		.loc 2 127 0
 475 0080 0022     		movs	r2, #0
 476 0082 029B     		ldr	r3, [sp, #8]
 477 0084 1A70     		strb	r2, [r3]
 478              	.LVL58:
 479              	.LBE117:
 480              	.LBE116:
 481              	.LBE111:
 732:class.c       **** 
 482              		.loc 1 732 0
 483 0086 08AA     		add	r2, sp, #32
 484              	.LVL59:
 755:class.c       **** 
ARM GAS  C:\Users\164\AppData\Local\Temp\ccvDnxKa.s 			page 30


 485              		.loc 1 755 0
 486 0088 00E0     		b	.L26
 487              	.LVL60:
 488              	.L36:
 758:class.c       ****     break;
 489              		.loc 1 758 0
 490 008a 084A     		ldr	r2, .L38+4
 491              	.LVL61:
 492              	.L26:
 493              	.LBB118:
 762:class.c       **** }
 494              		.loc 1 762 0
 495 008c 3146     		mov	r1, r6
 496 008e 6846     		mov	r0, sp
 497 0090 FFF7FEFF 		bl	mrbc_string_new_cstr
 498              	.LVL62:
 499 0094 2046     		mov	r0, r4
 500 0096 FFF7FEFF 		bl	mrbc_dec_ref_counter
 501              	.LVL63:
 502 009a 9DE80F00 		ldmia	sp, {r0, r1, r2, r3}
 503 009e 84E80F00 		stmia	r4, {r0, r1, r2, r3}
 504              	.LBE118:
 763:class.c       **** #endif
 505              		.loc 1 763 0
 506 00a2 10B0     		add	sp, sp, #64
 507              		.cfi_def_cfa_offset 16
 508              		@ sp needed
 509 00a4 70BD     		pop	{r4, r5, r6, pc}
 510              	.LVL64:
 511              	.L39:
 512 00a6 00BF     		.align	2
 513              	.L38:
 514 00a8 28000000 		.word	.LC5
 515 00ac 24000000 		.word	.LC4
 516              		.cfi_endproc
 517              	.LFE119:
 518              		.size	c_object_to_s, .-c_object_to_s
 519              		.section	.text.c_object_kind_of,"ax",%progbits
 520              		.align	2
 521              		.thumb
 522              		.thumb_func
 523              		.type	c_object_kind_of, %function
 524              	c_object_kind_of:
 525              	.LFB118:
 714:class.c       ****   int result = 0;
 526              		.loc 1 714 0
 527              		.cfi_startproc
 528              		@ args = 0, pretend = 0, frame = 0
 529              		@ frame_needed = 0, uses_anonymous_args = 0
 530              	.LVL65:
 531 0000 38B5     		push	{r3, r4, r5, lr}
 532              		.cfi_def_cfa_offset 16
 533              		.cfi_offset 3, -16
 534              		.cfi_offset 4, -12
 535              		.cfi_offset 5, -8
 536              		.cfi_offset 14, -4
 537 0002 0C46     		mov	r4, r1
ARM GAS  C:\Users\164\AppData\Local\Temp\ccvDnxKa.s 			page 31


 538              	.LVL66:
 716:class.c       **** 
 539              		.loc 1 716 0
 540 0004 91F91030 		ldrsb	r3, [r1, #16]
 541 0008 072B     		cmp	r3, #7
 542 000a 05D1     		bne	.L43
 718:class.c       **** 
 543              		.loc 1 718 0
 544 000c 8969     		ldr	r1, [r1, #24]
 545              	.LVL67:
 546 000e 2046     		mov	r0, r4
 547              	.LVL68:
 548 0010 FFF7FEFF 		bl	mrbc_obj_is_kind_of
 549              	.LVL69:
 550 0014 0546     		mov	r5, r0
 551              	.LVL70:
 552 0016 00E0     		b	.L41
 553              	.LVL71:
 554              	.L43:
 715:class.c       ****   if( v[1].tt != MRBC_TT_CLASS ) goto DONE;
 555              		.loc 1 715 0
 556 0018 0025     		movs	r5, #0
 557              	.LVL72:
 558              	.L41:
 721:class.c       **** }
 559              		.loc 1 721 0
 560 001a 2046     		mov	r0, r4
 561 001c FFF7FEFF 		bl	mrbc_dec_ref_counter
 562              	.LVL73:
 563 0020 0DB1     		cbz	r5, .L44
 564 0022 0323     		movs	r3, #3
 565 0024 00E0     		b	.L42
 566              	.L44:
 567 0026 0223     		movs	r3, #2
 568              	.L42:
 721:class.c       **** }
 569              		.loc 1 721 0 is_stmt 0 discriminator 4
 570 0028 2370     		strb	r3, [r4]
 571 002a 38BD     		pop	{r3, r4, r5, pc}
 572              		.cfi_endproc
 573              	.LFE118:
 574              		.size	c_object_kind_of, .-c_object_kind_of
 575              		.section	.text.c_object_setiv,"ax",%progbits
 576              		.align	2
 577              		.thumb
 578              		.thumb_func
 579              		.type	c_object_setiv, %function
 580              	c_object_setiv:
 581              	.LFB115:
 654:class.c       ****   const char *name = mrbc_get_callee_name(vm);
 582              		.loc 1 654 0 is_stmt 1
 583              		.cfi_startproc
 584              		@ args = 0, pretend = 0, frame = 0
 585              		@ frame_needed = 0, uses_anonymous_args = 0
 586              	.LVL74:
 587 0000 70B5     		push	{r4, r5, r6, lr}
 588              		.cfi_def_cfa_offset 16
ARM GAS  C:\Users\164\AppData\Local\Temp\ccvDnxKa.s 			page 32


 589              		.cfi_offset 4, -16
 590              		.cfi_offset 5, -12
 591              		.cfi_offset 6, -8
 592              		.cfi_offset 14, -4
 593 0002 0446     		mov	r4, r0
 594 0004 0D46     		mov	r5, r1
 655:class.c       **** 
 595              		.loc 1 655 0
 596 0006 FFF7FEFF 		bl	mrbc_get_callee_name
 597              	.LVL75:
 598 000a 0646     		mov	r6, r0
 599              	.LVL76:
 657:class.c       ****   if( !namebuf ) return;
 600              		.loc 1 657 0
 601 000c FFF7FEFF 		bl	strlen
 602              	.LVL77:
 603 0010 0146     		mov	r1, r0
 604 0012 2046     		mov	r0, r4
 605 0014 FFF7FEFF 		bl	mrbc_alloc
 606              	.LVL78:
 658:class.c       ****   strcpy(namebuf, name);
 607              		.loc 1 658 0
 608 0018 A8B1     		cbz	r0, .L46
 609 001a 0446     		mov	r4, r0
 610              	.LVL79:
 659:class.c       ****   namebuf[strlen(name)-1] = '\0';	// delete '='
 611              		.loc 1 659 0
 612 001c 3146     		mov	r1, r6
 613 001e FFF7FEFF 		bl	strcpy
 614              	.LVL80:
 660:class.c       ****   mrbc_sym sym_id = str_to_symid(namebuf);
 615              		.loc 1 660 0
 616 0022 3046     		mov	r0, r6
 617 0024 FFF7FEFF 		bl	strlen
 618              	.LVL81:
 619 0028 0138     		subs	r0, r0, #1
 620 002a 0023     		movs	r3, #0
 621 002c 2354     		strb	r3, [r4, r0]
 661:class.c       **** 
 622              		.loc 1 661 0
 623 002e 2046     		mov	r0, r4
 624 0030 FFF7FEFF 		bl	str_to_symid
 625              	.LVL82:
 663:class.c       ****   mrbc_raw_free(namebuf);
 626              		.loc 1 663 0
 627 0034 05F11002 		add	r2, r5, #16
 628 0038 0146     		mov	r1, r0
 629 003a 2846     		mov	r0, r5
 630              	.LVL83:
 631 003c FFF7FEFF 		bl	mrbc_instance_setiv
 632              	.LVL84:
 664:class.c       **** }
 633              		.loc 1 664 0
 634 0040 2046     		mov	r0, r4
 635 0042 FFF7FEFF 		bl	mrbc_raw_free
 636              	.LVL85:
 637              	.L46:
ARM GAS  C:\Users\164\AppData\Local\Temp\ccvDnxKa.s 			page 33


 638 0046 70BD     		pop	{r4, r5, r6, pc}
 639              		.cfi_endproc
 640              	.LFE115:
 641              		.size	c_object_setiv, .-c_object_setiv
 642              		.section	.text.c_object_getiv,"ax",%progbits
 643              		.align	2
 644              		.thumb
 645              		.thumb_func
 646              		.type	c_object_getiv, %function
 647              	c_object_getiv:
 648              	.LFB114:
 641:class.c       ****   const char *name = mrbc_get_callee_name(vm);
 649              		.loc 1 641 0
 650              		.cfi_startproc
 651              		@ args = 0, pretend = 0, frame = 32
 652              		@ frame_needed = 0, uses_anonymous_args = 0
 653              	.LVL86:
 654 0000 70B5     		push	{r4, r5, r6, lr}
 655              		.cfi_def_cfa_offset 16
 656              		.cfi_offset 4, -16
 657              		.cfi_offset 5, -12
 658              		.cfi_offset 6, -8
 659              		.cfi_offset 14, -4
 660 0002 88B0     		sub	sp, sp, #32
 661              		.cfi_def_cfa_offset 48
 662 0004 0D46     		mov	r5, r1
 642:class.c       ****   mrbc_sym sym_id = str_to_symid( name );
 663              		.loc 1 642 0
 664 0006 FFF7FEFF 		bl	mrbc_get_callee_name
 665              	.LVL87:
 643:class.c       ****   mrbc_value ret = mrbc_instance_getiv(&v[0], sym_id);
 666              		.loc 1 643 0
 667 000a FFF7FEFF 		bl	str_to_symid
 668              	.LVL88:
 644:class.c       **** 
 669              		.loc 1 644 0
 670 000e 04AE     		add	r6, sp, #16
 671 0010 0246     		mov	r2, r0
 672 0012 2946     		mov	r1, r5
 673 0014 3046     		mov	r0, r6
 674              	.LVL89:
 675 0016 FFF7FEFF 		bl	mrbc_instance_getiv
 676              	.LVL90:
 677              	.LBB119:
 646:class.c       **** }
 678              		.loc 1 646 0
 679 001a 96E80F00 		ldmia	r6, {r0, r1, r2, r3}
 680 001e 8DE80F00 		stmia	sp, {r0, r1, r2, r3}
 681 0022 2846     		mov	r0, r5
 682 0024 FFF7FEFF 		bl	mrbc_dec_ref_counter
 683              	.LVL91:
 684 0028 9DE80F00 		ldmia	sp, {r0, r1, r2, r3}
 685 002c 85E80F00 		stmia	r5, {r0, r1, r2, r3}
 686              	.LBE119:
 647:class.c       **** 
 687              		.loc 1 647 0
 688 0030 08B0     		add	sp, sp, #32
ARM GAS  C:\Users\164\AppData\Local\Temp\ccvDnxKa.s 			page 34


 689              		.cfi_def_cfa_offset 16
 690              		@ sp needed
 691 0032 70BD     		pop	{r4, r5, r6, pc}
 692              		.cfi_endproc
 693              	.LFE114:
 694              		.size	c_object_getiv, .-c_object_getiv
 695              		.section	.text.c_object_new,"ax",%progbits
 696              		.align	2
 697              		.thumb
 698              		.thumb_func
 699              		.type	c_object_new, %function
 700              	c_object_new:
 701              	.LFB113:
 593:class.c       ****   mrbc_value new_obj = mrbc_instance_new(vm, v->cls, 0);
 702              		.loc 1 593 0
 703              		.cfi_startproc
 704              		@ args = 0, pretend = 0, frame = 88
 705              		@ frame_needed = 0, uses_anonymous_args = 0
 706              	.LVL92:
 707 0000 2DE9F043 		push	{r4, r5, r6, r7, r8, r9, lr}
 708              		.cfi_def_cfa_offset 28
 709              		.cfi_offset 4, -28
 710              		.cfi_offset 5, -24
 711              		.cfi_offset 6, -20
 712              		.cfi_offset 7, -16
 713              		.cfi_offset 8, -12
 714              		.cfi_offset 9, -8
 715              		.cfi_offset 14, -4
 716 0004 97B0     		sub	sp, sp, #92
 717              		.cfi_def_cfa_offset 120
 718 0006 0446     		mov	r4, r0
 719 0008 0D46     		mov	r5, r1
 720 000a 9046     		mov	r8, r2
 594:class.c       **** 
 721              		.loc 1 594 0
 722 000c 12AF     		add	r7, sp, #72
 723 000e 0023     		movs	r3, #0
 724 0010 8A68     		ldr	r2, [r1, #8]
 725              	.LVL93:
 726 0012 0146     		mov	r1, r0
 727              	.LVL94:
 728 0014 3846     		mov	r0, r7
 729              	.LVL95:
 730 0016 FFF7FEFF 		bl	mrbc_instance_new
 731              	.LVL96:
 596:class.c       ****   uint32_to_bin( 1,(uint8_t*)&syms[0]);
 732              		.loc 1 596 0
 733 001a 0DAE     		add	r6, sp, #52
 734 001c DFF8C4E0 		ldr	lr, .L54
 735 0020 BEE80F00 		ldmia	lr!, {r0, r1, r2, r3}
 736 0024 0FC6     		stmia	r6!, {r0, r1, r2, r3}
 737 0026 DEF80030 		ldr	r3, [lr]
 738 002a 3370     		strb	r3, [r6]
 739              	.LVL97:
 740              	.LBB120:
 741              	.LBB121:
 742              		.file 3 "vm.h"
ARM GAS  C:\Users\164\AppData\Local\Temp\ccvDnxKa.s 			page 35


   1:vm.h          **** /*! @file
   2:vm.h          ****   @brief
   3:vm.h          ****   mruby bytecode executor.
   4:vm.h          **** 
   5:vm.h          ****   <pre>
   6:vm.h          ****   Copyright (C) 2015-2017 Kyushu Institute of Technology.
   7:vm.h          ****   Copyright (C) 2015-2017 Shimane IT Open-Innovation Center.
   8:vm.h          **** 
   9:vm.h          ****   This file is distributed under BSD 3-Clause License.
  10:vm.h          **** 
  11:vm.h          ****   Fetch mruby VM bytecodes, decode and execute.
  12:vm.h          **** 
  13:vm.h          ****   </pre>
  14:vm.h          **** */
  15:vm.h          **** 
  16:vm.h          **** #ifndef MRBC_SRC_VM_H_
  17:vm.h          **** #define MRBC_SRC_VM_H_
  18:vm.h          **** 
  19:vm.h          **** #include <stdint.h>
  20:vm.h          **** #include "vm_config.h"
  21:vm.h          **** #include "value.h"
  22:vm.h          **** 
  23:vm.h          **** #ifdef __cplusplus
  24:vm.h          **** extern "C" {
  25:vm.h          **** #endif
  26:vm.h          **** 
  27:vm.h          **** 
  28:vm.h          **** //================================================================
  29:vm.h          **** /*!@brief
  30:vm.h          ****   IREP Internal REPresentation
  31:vm.h          **** */
  32:vm.h          **** typedef struct IREP {
  33:vm.h          ****   uint16_t nlocals;		//!< # of local variables
  34:vm.h          ****   uint16_t nregs;		//!< # of register variables
  35:vm.h          ****   uint16_t rlen;		//!< # of child IREP blocks
  36:vm.h          ****   uint16_t ilen;		//!< # of irep
  37:vm.h          ****   uint16_t plen;		//!< # of pool
  38:vm.h          **** 
  39:vm.h          ****   uint8_t     *code;		//!< ISEQ (code) BLOCK
  40:vm.h          ****   mrbc_object  **pools;          //!< array of POOL objects pointer.
  41:vm.h          ****   uint8_t     *ptr_to_sym;
  42:vm.h          ****   struct IREP **reps;		//!< array of child IREP's pointer.
  43:vm.h          **** 
  44:vm.h          **** } mrbc_irep;
  45:vm.h          **** typedef struct IREP mrb_irep;
  46:vm.h          **** 
  47:vm.h          **** 
  48:vm.h          **** //================================================================
  49:vm.h          **** /*!@brief
  50:vm.h          ****   Call information
  51:vm.h          **** */
  52:vm.h          **** typedef struct CALLINFO {
  53:vm.h          ****   struct CALLINFO *prev;
  54:vm.h          ****   mrbc_irep *pc_irep;
  55:vm.h          ****   uint16_t  pc;
  56:vm.h          ****   mrbc_value *current_regs;
  57:vm.h          ****   mrbc_class *target_class;
ARM GAS  C:\Users\164\AppData\Local\Temp\ccvDnxKa.s 			page 36


  58:vm.h          ****   uint8_t   n_args;     // num of args
  59:vm.h          **** } mrbc_callinfo;
  60:vm.h          **** typedef struct CALLINFO mrb_callinfo;
  61:vm.h          **** 
  62:vm.h          **** 
  63:vm.h          **** //================================================================
  64:vm.h          **** /*!@brief
  65:vm.h          ****   Virtual Machine
  66:vm.h          **** */
  67:vm.h          **** typedef struct VM {
  68:vm.h          ****   mrbc_irep *irep;
  69:vm.h          **** 
  70:vm.h          ****   uint8_t        vm_id; // vm_id : 1..n
  71:vm.h          ****   const uint8_t *mrb;   // bytecode
  72:vm.h          **** 
  73:vm.h          ****   mrbc_irep *pc_irep;    // PC
  74:vm.h          ****   uint16_t  pc;         // PC
  75:vm.h          **** 
  76:vm.h          ****   //  uint16_t     reg_top;
  77:vm.h          ****   mrbc_value    regs[MAX_REGS_SIZE];
  78:vm.h          ****   mrbc_value   *current_regs;
  79:vm.h          ****   mrbc_callinfo *callinfo_tail;
  80:vm.h          **** 
  81:vm.h          ****   mrbc_class *target_class;
  82:vm.h          **** 
  83:vm.h          ****   int32_t error_code;
  84:vm.h          **** 
  85:vm.h          ****   volatile int8_t flag_preemption;
  86:vm.h          ****   int8_t flag_need_memfree;
  87:vm.h          **** } mrbc_vm;
  88:vm.h          **** typedef struct VM mrb_vm;
  89:vm.h          **** 
  90:vm.h          **** 
  91:vm.h          **** const char *mrbc_get_irep_symbol(const uint8_t *p, int n);
  92:vm.h          **** const char *mrbc_get_callee_name(struct VM *vm);
  93:vm.h          **** void mrbc_push_callinfo(struct VM *vm, int n_args);
  94:vm.h          **** void mrbc_pop_callinfo(struct VM *vm);
  95:vm.h          **** mrbc_vm *mrbc_vm_open(struct VM *vm_arg);
  96:vm.h          **** void mrbc_vm_close(struct VM *vm);
  97:vm.h          **** void mrbc_vm_begin(struct VM *vm);
  98:vm.h          **** void mrbc_vm_end(struct VM *vm);
  99:vm.h          **** int mrbc_vm_run(struct VM *vm);
 100:vm.h          **** 
 101:vm.h          **** 
 102:vm.h          **** //================================================================
 103:vm.h          **** /*! Get 32bit value from memory.
 104:vm.h          **** 
 105:vm.h          ****   @param  s	Pointer to memory.
 106:vm.h          ****   @return	32bit unsigned value.
 107:vm.h          **** */
 108:vm.h          **** static inline uint32_t bin_to_uint32( const void *s )
 109:vm.h          **** {
 110:vm.h          ****   // Little endian, no alignment.
 111:vm.h          ****   //  e.g. ARM Coretex-M4, Intel x86
 112:vm.h          **** #if defined(MRBC_LITTLE_ENDIAN) && !defined(MRBC_REQUIRE_32BIT_ALIGNMENT)
 113:vm.h          ****   uint32_t x = *((uint32_t *)s);
 114:vm.h          ****   return (x << 24) | ((x & 0xff00) << 8) | ((x >> 8) & 0xff00) | (x >> 24);
ARM GAS  C:\Users\164\AppData\Local\Temp\ccvDnxKa.s 			page 37


 115:vm.h          **** 
 116:vm.h          ****   // Big endian, no alignment.
 117:vm.h          ****   //  e.g. IBM PPC405
 118:vm.h          **** #elif defined(MRBC_BIG_ENDIAN) && !defined(MRBC_REQUIRE_32BIT_ALIGNMENT)
 119:vm.h          ****   uint32_t x = *((uint32_t *)s);
 120:vm.h          ****   return x;
 121:vm.h          **** 
 122:vm.h          ****   // 32bit alignment required.
 123:vm.h          ****   // Little endian
 124:vm.h          ****   //  e.g. ARM Coretex-M0
 125:vm.h          ****   // Big endian
 126:vm.h          ****   //  e.g. OpenRISC
 127:vm.h          **** #elif defined(MRBC_REQUIRE_32BIT_ALIGNMENT)
 128:vm.h          ****   uint8_t *p = (uint8_t *)s;
 129:vm.h          ****   uint32_t x = *p++;
 130:vm.h          ****   x <<= 8;
 131:vm.h          ****   x |= *p++;
 132:vm.h          ****   x <<= 8;
 133:vm.h          ****   x |= *p++;
 134:vm.h          ****   x <<= 8;
 135:vm.h          ****   x |= *p;
 136:vm.h          ****   return x;
 137:vm.h          **** 
 138:vm.h          **** #else
 139:vm.h          ****   #error "Specify MRBC_BIG_ENDIAN or MRBC_LITTLE_ENDIAN"
 140:vm.h          **** #endif
 141:vm.h          **** }
 142:vm.h          **** 
 143:vm.h          **** 
 144:vm.h          **** //================================================================
 145:vm.h          **** /*! Get 16bit value from memory.
 146:vm.h          **** 
 147:vm.h          ****   @param  s	Pointer to memory.
 148:vm.h          ****   @return	16bit unsigned value.
 149:vm.h          **** */
 150:vm.h          **** static inline uint16_t bin_to_uint16( const void *s )
 151:vm.h          **** {
 152:vm.h          ****   // Little endian, no alignment.
 153:vm.h          **** #if defined(MRBC_LITTLE_ENDIAN) && !defined(MRBC_REQUIRE_32BIT_ALIGNMENT)
 154:vm.h          ****   uint16_t x = *((uint16_t *)s);
 155:vm.h          ****   return (x << 8) | (x >> 8);
 156:vm.h          **** 
 157:vm.h          ****   // Big endian, no alignment.
 158:vm.h          **** #elif defined(MRBC_BIG_ENDIAN) && !defined(MRBC_REQUIRE_32BIT_ALIGNMENT)
 159:vm.h          ****   uint16_t x = *((uint16_t *)s);
 160:vm.h          ****   return x;
 161:vm.h          **** 
 162:vm.h          ****   // 32bit alignment required.
 163:vm.h          **** #elif defined(MRBC_REQUIRE_32BIT_ALIGNMENT)
 164:vm.h          ****   uint8_t *p = (uint8_t *)s;
 165:vm.h          ****   uint16_t x = *p++;
 166:vm.h          ****   x <<= 8;
 167:vm.h          ****   x |= *p;
 168:vm.h          ****   return x;
 169:vm.h          **** 
 170:vm.h          **** #endif
 171:vm.h          **** }
ARM GAS  C:\Users\164\AppData\Local\Temp\ccvDnxKa.s 			page 38


 172:vm.h          **** 
 173:vm.h          **** 
 174:vm.h          **** //================================================================
 175:vm.h          **** /*! Set 32bit value to memory.
 176:vm.h          **** 
 177:vm.h          ****   @param  s	Source value.
 178:vm.h          ****   @param  d	Pointer to memory.
 179:vm.h          **** */
 180:vm.h          **** static inline void uint32_to_bin( uint32_t v, void *d )
 181:vm.h          **** {
 182:vm.h          ****   uint8_t *p = (uint8_t *)d + 3;
 183:vm.h          ****   *p-- = 0xff & v;
 743              		.loc 3 183 0
 744 002c 0123     		movs	r3, #1
 745 002e 8DF83730 		strb	r3, [sp, #55]
 746              	.LVL98:
 184:vm.h          ****   v >>= 8;
 185:vm.h          ****   *p-- = 0xff & v;
 747              		.loc 3 185 0
 748 0032 0026     		movs	r6, #0
 749              	.LVL99:
 750 0034 8DF83660 		strb	r6, [sp, #54]
 751              	.LVL100:
 186:vm.h          ****   v >>= 8;
 187:vm.h          ****   *p-- = 0xff & v;
 752              		.loc 3 187 0
 753 0038 8DF83560 		strb	r6, [sp, #53]
 188:vm.h          ****   v >>= 8;
 189:vm.h          ****   *p = 0xff & v;
 754              		.loc 3 189 0
 755 003c 8DF83460 		strb	r6, [sp, #52]
 756              	.LVL101:
 757              	.LBE121:
 758              	.LBE120:
 759              	.LBB122:
 760              	.LBB123:
 190:vm.h          **** }
 191:vm.h          **** 
 192:vm.h          **** 
 193:vm.h          **** //================================================================
 194:vm.h          **** /*! Set 16bit value to memory.
 195:vm.h          **** 
 196:vm.h          ****   @param  s	Source value.
 197:vm.h          ****   @param  d	Pointer to memory.
 198:vm.h          **** */
 199:vm.h          **** static inline void uint16_to_bin( uint16_t v, void *d )
 200:vm.h          **** {
 201:vm.h          ****   uint8_t *p = (uint8_t *)d;
 202:vm.h          ****   *p++ = (v >> 8);
 761              		.loc 3 202 0
 762 0040 8DF83860 		strb	r6, [sp, #56]
 203:vm.h          ****   *p = 0xff & v;
 763              		.loc 3 203 0
 764 0044 0A23     		movs	r3, #10
 765 0046 8DF83930 		strb	r3, [sp, #57]
 766              	.LVL102:
 767              	.LBE123:
ARM GAS  C:\Users\164\AppData\Local\Temp\ccvDnxKa.s 			page 39


 768              	.LBE122:
 601:class.c       ****     MKOPCODE(OP_ABORT)
 769              		.loc 1 601 0
 770 004a 4FEAC833 		lsl	r3, r8, #15
 771 004e 03F47C13 		and	r3, r3, #4128768
 772 0052 43EAC873 		orr	r3, r3, r8, lsl #31
 773 0056 43F00053 		orr	r3, r3, #536870912
 600:class.c       ****     MKOPCODE(OP_SEND) | MKARG_A(0) | MKARG_B(0) | MKARG_C(argc),
 774              		.loc 1 600 0
 775 005a 0B93     		str	r3, [sp, #44]
 776 005c 4FF0A043 		mov	r3, #1342177280
 777 0060 0C93     		str	r3, [sp, #48]
 604:class.c       ****     0,     // nlocals
 778              		.loc 1 604 0
 779 0062 ADF81060 		strh	r6, [sp, #16]	@ movhi
 780 0066 ADF81260 		strh	r6, [sp, #18]	@ movhi
 781 006a ADF81460 		strh	r6, [sp, #20]	@ movhi
 782 006e 0223     		movs	r3, #2
 783 0070 ADF81630 		strh	r3, [sp, #22]	@ movhi
 784 0074 ADF81860 		strh	r6, [sp, #24]	@ movhi
 785 0078 0BAB     		add	r3, sp, #44
 786 007a 0793     		str	r3, [sp, #28]
 787 007c 0896     		str	r6, [sp, #32]
 788 007e 0DAB     		add	r3, sp, #52
 789              	.LVL103:
 790 0080 0993     		str	r3, [sp, #36]
 791 0082 0A96     		str	r6, [sp, #40]
 616:class.c       ****   v[0] = new_obj;
 792              		.loc 1 616 0
 793 0084 2846     		mov	r0, r5
 794 0086 FFF7FEFF 		bl	mrbc_release
 795              	.LVL104:
 617:class.c       ****   mrbc_dup(&new_obj);
 796              		.loc 1 617 0
 797 008a 97E80F00 		ldmia	r7, {r0, r1, r2, r3}
 798 008e 85E80F00 		stmia	r5, {r0, r1, r2, r3}
 618:class.c       **** 
 799              		.loc 1 618 0
 800 0092 3846     		mov	r0, r7
 801 0094 FFF7FEFF 		bl	mrbc_dup
 802              	.LVL105:
 620:class.c       ****   uint16_t  org_pc = vm->pc;
 803              		.loc 1 620 0
 804 0098 D4F80C80 		ldr	r8, [r4, #12]
 805              	.LVL106:
 621:class.c       ****   mrbc_value* org_regs = vm->current_regs;
 806              		.loc 1 621 0
 807 009c B4F81090 		ldrh	r9, [r4, #16]
 808              	.LVL107:
 622:class.c       ****   vm->pc = 0;
 809              		.loc 1 622 0
 810 00a0 D4F85876 		ldr	r7, [r4, #1624]
 811              	.LVL108:
 623:class.c       ****   vm->pc_irep = &irep;
 812              		.loc 1 623 0
 813 00a4 2682     		strh	r6, [r4, #16]	@ movhi
 624:class.c       ****   vm->current_regs = v;
ARM GAS  C:\Users\164\AppData\Local\Temp\ccvDnxKa.s 			page 40


 814              		.loc 1 624 0
 815 00a6 04AB     		add	r3, sp, #16
 816 00a8 E360     		str	r3, [r4, #12]
 625:class.c       **** 
 817              		.loc 1 625 0
 818 00aa C4F85856 		str	r5, [r4, #1624]
 819              	.L52:
 627:class.c       ****     ;
 820              		.loc 1 627 0 discriminator 1
 821 00ae 2046     		mov	r0, r4
 822 00b0 FFF7FEFF 		bl	mrbc_vm_run
 823              	.LVL109:
 824 00b4 0028     		cmp	r0, #0
 825 00b6 FAD0     		beq	.L52
 630:class.c       ****   vm->pc_irep = org_pc_irep;
 826              		.loc 1 630 0
 827 00b8 A4F81090 		strh	r9, [r4, #16]	@ movhi
 631:class.c       ****   vm->current_regs = org_regs;
 828              		.loc 1 631 0
 829 00bc C4F80C80 		str	r8, [r4, #12]
 632:class.c       **** 
 830              		.loc 1 632 0
 831 00c0 C4F85876 		str	r7, [r4, #1624]
 832              	.LBB124:
 634:class.c       **** }
 833              		.loc 1 634 0
 834 00c4 16AB     		add	r3, sp, #88
 835 00c6 13E90F00 		ldmdb	r3, {r0, r1, r2, r3}
 836 00ca 8DE80F00 		stmia	sp, {r0, r1, r2, r3}
 837 00ce 2846     		mov	r0, r5
 838 00d0 FFF7FEFF 		bl	mrbc_dec_ref_counter
 839              	.LVL110:
 840 00d4 9DE80F00 		ldmia	sp, {r0, r1, r2, r3}
 841 00d8 85E80F00 		stmia	r5, {r0, r1, r2, r3}
 842              	.LBE124:
 635:class.c       **** 
 843              		.loc 1 635 0
 844 00dc 17B0     		add	sp, sp, #92
 845              		.cfi_def_cfa_offset 28
 846              		@ sp needed
 847 00de BDE8F083 		pop	{r4, r5, r6, r7, r8, r9, pc}
 848              	.LVL111:
 849              	.L55:
 850 00e2 00BF     		.align	2
 851              	.L54:
 852 00e4 34000000 		.word	.LC6
 853              		.cfi_endproc
 854              	.LFE113:
 855              		.size	c_object_new, .-c_object_new
 856              		.section	.text.c_object_equal3,"ax",%progbits
 857              		.align	2
 858              		.thumb
 859              		.thumb_func
 860              		.type	c_object_equal3, %function
 861              	c_object_equal3:
 862              	.LFB111:
 566:class.c       ****   int result;
ARM GAS  C:\Users\164\AppData\Local\Temp\ccvDnxKa.s 			page 41


 863              		.loc 1 566 0
 864              		.cfi_startproc
 865              		@ args = 0, pretend = 0, frame = 0
 866              		@ frame_needed = 0, uses_anonymous_args = 0
 867              	.LVL112:
 868 0000 38B5     		push	{r3, r4, r5, lr}
 869              		.cfi_def_cfa_offset 16
 870              		.cfi_offset 3, -16
 871              		.cfi_offset 4, -12
 872              		.cfi_offset 5, -8
 873              		.cfi_offset 14, -4
 874 0002 0C46     		mov	r4, r1
 569:class.c       ****     result = mrbc_obj_is_kind_of( &v[1], v[0].cls );
 875              		.loc 1 569 0
 876 0004 91F90030 		ldrsb	r3, [r1]
 877 0008 072B     		cmp	r3, #7
 878 000a 06D1     		bne	.L57
 570:class.c       ****   } else {
 879              		.loc 1 570 0
 880 000c 8968     		ldr	r1, [r1, #8]
 881              	.LVL113:
 882 000e 04F11000 		add	r0, r4, #16
 883              	.LVL114:
 884 0012 FFF7FEFF 		bl	mrbc_obj_is_kind_of
 885              	.LVL115:
 886 0016 0546     		mov	r5, r0
 887              	.LVL116:
 888 0018 06E0     		b	.L58
 889              	.LVL117:
 890              	.L57:
 572:class.c       ****   }
 891              		.loc 1 572 0
 892 001a 1031     		adds	r1, r1, #16
 893              	.LVL118:
 894 001c 2046     		mov	r0, r4
 895              	.LVL119:
 896 001e FFF7FEFF 		bl	mrbc_compare
 897              	.LVL120:
 898 0022 B0FA80F5 		clz	r5, r0
 899 0026 6D09     		lsrs	r5, r5, #5
 900              	.LVL121:
 901              	.L58:
 575:class.c       **** }
 902              		.loc 1 575 0
 903 0028 2046     		mov	r0, r4
 904 002a FFF7FEFF 		bl	mrbc_dec_ref_counter
 905              	.LVL122:
 906 002e 0DB1     		cbz	r5, .L60
 907 0030 0323     		movs	r3, #3
 908 0032 00E0     		b	.L59
 909              	.L60:
 910 0034 0223     		movs	r3, #2
 911              	.L59:
 575:class.c       **** }
 912              		.loc 1 575 0 is_stmt 0 discriminator 4
 913 0036 2370     		strb	r3, [r4]
 914 0038 38BD     		pop	{r3, r4, r5, pc}
ARM GAS  C:\Users\164\AppData\Local\Temp\ccvDnxKa.s 			page 42


 915              		.cfi_endproc
 916              	.LFE111:
 917              		.size	c_object_equal3, .-c_object_equal3
 918 003a 00BF     		.section	.text.c_object_compare,"ax",%progbits
 919              		.align	2
 920              		.thumb
 921              		.thumb_func
 922              		.type	c_object_compare, %function
 923              	c_object_compare:
 924              	.LFB110:
 556:class.c       ****   int result = mrbc_compare( &v[0], &v[1] );
 925              		.loc 1 556 0 is_stmt 1
 926              		.cfi_startproc
 927              		@ args = 0, pretend = 0, frame = 0
 928              		@ frame_needed = 0, uses_anonymous_args = 0
 929              	.LVL123:
 930 0000 38B5     		push	{r3, r4, r5, lr}
 931              		.cfi_def_cfa_offset 16
 932              		.cfi_offset 3, -16
 933              		.cfi_offset 4, -12
 934              		.cfi_offset 5, -8
 935              		.cfi_offset 14, -4
 936 0002 0C46     		mov	r4, r1
 557:class.c       ****   SET_INT_RETURN( result );
 937              		.loc 1 557 0
 938 0004 1031     		adds	r1, r1, #16
 939              	.LVL124:
 940 0006 2046     		mov	r0, r4
 941              	.LVL125:
 942 0008 FFF7FEFF 		bl	mrbc_compare
 943              	.LVL126:
 944 000c 0546     		mov	r5, r0
 945              	.LVL127:
 946              	.LBB125:
 558:class.c       **** }
 947              		.loc 1 558 0
 948 000e 2046     		mov	r0, r4
 949              	.LVL128:
 950 0010 FFF7FEFF 		bl	mrbc_dec_ref_counter
 951              	.LVL129:
 952 0014 0423     		movs	r3, #4
 953 0016 2370     		strb	r3, [r4]
 954 0018 A560     		str	r5, [r4, #8]
 955 001a 38BD     		pop	{r3, r4, r5, pc}
 956              	.LBE125:
 957              		.cfi_endproc
 958              	.LFE110:
 959              		.size	c_object_compare, .-c_object_compare
 960              		.section	.text.c_object_neq,"ax",%progbits
 961              		.align	2
 962              		.thumb
 963              		.thumb_func
 964              		.type	c_object_neq, %function
 965              	c_object_neq:
 966              	.LFB109:
 546:class.c       ****   int result = mrbc_compare( &v[0], &v[1] );
 967              		.loc 1 546 0
ARM GAS  C:\Users\164\AppData\Local\Temp\ccvDnxKa.s 			page 43


 968              		.cfi_startproc
 969              		@ args = 0, pretend = 0, frame = 0
 970              		@ frame_needed = 0, uses_anonymous_args = 0
 971              	.LVL130:
 972 0000 38B5     		push	{r3, r4, r5, lr}
 973              		.cfi_def_cfa_offset 16
 974              		.cfi_offset 3, -16
 975              		.cfi_offset 4, -12
 976              		.cfi_offset 5, -8
 977              		.cfi_offset 14, -4
 978 0002 0C46     		mov	r4, r1
 547:class.c       ****   SET_BOOL_RETURN( result != 0 );
 979              		.loc 1 547 0
 980 0004 1031     		adds	r1, r1, #16
 981              	.LVL131:
 982 0006 2046     		mov	r0, r4
 983              	.LVL132:
 984 0008 FFF7FEFF 		bl	mrbc_compare
 985              	.LVL133:
 986 000c 0546     		mov	r5, r0
 987              	.LVL134:
 548:class.c       **** }
 988              		.loc 1 548 0
 989 000e 2046     		mov	r0, r4
 990              	.LVL135:
 991 0010 FFF7FEFF 		bl	mrbc_dec_ref_counter
 992              	.LVL136:
 993 0014 0DB1     		cbz	r5, .L66
 994 0016 0323     		movs	r3, #3
 995 0018 00E0     		b	.L65
 996              	.L66:
 997 001a 0223     		movs	r3, #2
 998              	.L65:
 548:class.c       **** }
 999              		.loc 1 548 0 is_stmt 0 discriminator 4
 1000 001c 2370     		strb	r3, [r4]
 1001 001e 38BD     		pop	{r3, r4, r5, pc}
 1002              		.cfi_endproc
 1003              	.LFE109:
 1004              		.size	c_object_neq, .-c_object_neq
 1005              		.section	.text.c_object_alias_method,"ax",%progbits
 1006              		.align	2
 1007              		.thumb
 1008              		.thumb_func
 1009              		.type	c_object_alias_method, %function
 1010              	c_object_alias_method:
 1011              	.LFB105:
 463:class.c       ****   // find method only in this class.
 1012              		.loc 1 463 0 is_stmt 1
 1013              		.cfi_startproc
 1014              		@ args = 0, pretend = 0, frame = 0
 1015              		@ frame_needed = 0, uses_anonymous_args = 0
 1016              	.LVL137:
 1017 0000 70B5     		push	{r4, r5, r6, lr}
 1018              		.cfi_def_cfa_offset 16
 1019              		.cfi_offset 4, -16
 1020              		.cfi_offset 5, -12
ARM GAS  C:\Users\164\AppData\Local\Temp\ccvDnxKa.s 			page 44


 1021              		.cfi_offset 6, -8
 1022              		.cfi_offset 14, -4
 1023 0002 0D46     		mov	r5, r1
 465:class.c       ****   while( proc != NULL ) {
 1024              		.loc 1 465 0
 1025 0004 8B68     		ldr	r3, [r1, #8]
 1026 0006 9C68     		ldr	r4, [r3, #8]
 1027              	.LVL138:
 466:class.c       ****     if( proc->sym_id == v[2].i ) break;
 1028              		.loc 1 466 0
 1029 0008 05E0     		b	.L69
 1030              	.LVL139:
 1031              	.L71:
 467:class.c       ****     proc = proc->next;
 1032              		.loc 1 467 0
 1033 000a B4F90420 		ldrsh	r2, [r4, #4]
 1034 000e AB6A     		ldr	r3, [r5, #40]
 1035 0010 9A42     		cmp	r2, r3
 1036 0012 02D0     		beq	.L70
 468:class.c       ****   }
 1037              		.loc 1 468 0
 1038 0014 A468     		ldr	r4, [r4, #8]
 1039              	.LVL140:
 1040              	.L69:
 466:class.c       ****     if( proc->sym_id == v[2].i ) break;
 1041              		.loc 1 466 0
 1042 0016 002C     		cmp	r4, #0
 1043 0018 F7D1     		bne	.L71
 1044              	.L70:
 470:class.c       ****     console_printf("NameError: undefined_method '%s'\n", symid_to_str(v[2].i));
 1045              		.loc 1 470 0
 1046 001a 44B9     		cbnz	r4, .L72
 471:class.c       ****     return;
 1047              		.loc 1 471 0
 1048 001c B5F92800 		ldrsh	r0, [r5, #40]
 1049              	.LVL141:
 1050 0020 FFF7FEFF 		bl	symid_to_str
 1051              	.LVL142:
 1052 0024 0146     		mov	r1, r0
 1053 0026 0D48     		ldr	r0, .L75
 1054 0028 FFF7FEFF 		bl	console_printf
 1055              	.LVL143:
 472:class.c       ****   }
 1056              		.loc 1 472 0
 1057 002c 70BD     		pop	{r4, r5, r6, pc}
 1058              	.LVL144:
 1059              	.L72:
 476:class.c       ****   if( !proc_alias ) return;		// ENOMEM
 1060              		.loc 1 476 0
 1061 002e 1021     		movs	r1, #16
 1062              	.LVL145:
 1063 0030 0020     		movs	r0, #0
 1064              	.LVL146:
 1065 0032 FFF7FEFF 		bl	mrbc_alloc
 1066              	.LVL147:
 477:class.c       ****   memcpy( proc_alias, proc, sizeof(mrbc_proc) );
 1067              		.loc 1 477 0
ARM GAS  C:\Users\164\AppData\Local\Temp\ccvDnxKa.s 			page 45


 1068 0036 0346     		mov	r3, r0
 1069 0038 70B1     		cbz	r0, .L68
 478:class.c       **** 
 1070              		.loc 1 478 0
 1071 003a 2668     		ldr	r6, [r4]	@ unaligned
 1072 003c 6068     		ldr	r0, [r4, #4]	@ unaligned
 1073              	.LVL148:
 1074 003e A168     		ldr	r1, [r4, #8]	@ unaligned
 1075 0040 E268     		ldr	r2, [r4, #12]	@ unaligned
 1076 0042 1E60     		str	r6, [r3]	@ unaligned
 1077 0044 5860     		str	r0, [r3, #4]	@ unaligned
 1078 0046 9960     		str	r1, [r3, #8]	@ unaligned
 1079 0048 DA60     		str	r2, [r3, #12]	@ unaligned
 481:class.c       **** #if defined(MRBC_DEBUG)
 1080              		.loc 1 481 0
 1081 004a AA69     		ldr	r2, [r5, #24]
 1082 004c 9A80     		strh	r2, [r3, #4]	@ movhi
 485:class.c       ****   v[0].cls->procs = proc_alias;
 1083              		.loc 1 485 0
 1084 004e AA68     		ldr	r2, [r5, #8]
 1085 0050 9268     		ldr	r2, [r2, #8]
 1086 0052 9A60     		str	r2, [r3, #8]
 486:class.c       **** }
 1087              		.loc 1 486 0
 1088 0054 AA68     		ldr	r2, [r5, #8]
 1089 0056 9360     		str	r3, [r2, #8]
 1090              	.L68:
 1091 0058 70BD     		pop	{r4, r5, r6, pc}
 1092              	.LVL149:
 1093              	.L76:
 1094 005a 00BF     		.align	2
 1095              	.L75:
 1096 005c 48000000 		.word	.LC7
 1097              		.cfi_endproc
 1098              	.LFE105:
 1099              		.size	c_object_alias_method, .-c_object_alias_method
 1100              		.section	.text.c_nil_to_s,"ax",%progbits
 1101              		.align	2
 1102              		.thumb
 1103              		.thumb_func
 1104              		.type	c_nil_to_s, %function
 1105              	c_nil_to_s:
 1106              	.LFB126:
 895:class.c       ****   v[0] = mrbc_string_new(vm, NULL, 0);
 1107              		.loc 1 895 0
 1108              		.cfi_startproc
 1109              		@ args = 0, pretend = 0, frame = 16
 1110              		@ frame_needed = 0, uses_anonymous_args = 0
 1111              	.LVL150:
 1112 0000 30B5     		push	{r4, r5, lr}
 1113              		.cfi_def_cfa_offset 12
 1114              		.cfi_offset 4, -12
 1115              		.cfi_offset 5, -8
 1116              		.cfi_offset 14, -4
 1117 0002 85B0     		sub	sp, sp, #20
 1118              		.cfi_def_cfa_offset 32
 1119 0004 0D46     		mov	r5, r1
ARM GAS  C:\Users\164\AppData\Local\Temp\ccvDnxKa.s 			page 46


 896:class.c       **** }
 1120              		.loc 1 896 0
 1121 0006 0023     		movs	r3, #0
 1122 0008 1A46     		mov	r2, r3
 1123              	.LVL151:
 1124 000a 0146     		mov	r1, r0
 1125              	.LVL152:
 1126 000c 6846     		mov	r0, sp
 1127              	.LVL153:
 1128 000e FFF7FEFF 		bl	mrbc_string_new
 1129              	.LVL154:
 1130 0012 9DE80F00 		ldmia	sp, {r0, r1, r2, r3}
 1131 0016 85E80F00 		stmia	r5, {r0, r1, r2, r3}
 897:class.c       **** #endif
 1132              		.loc 1 897 0
 1133 001a 05B0     		add	sp, sp, #20
 1134              		.cfi_def_cfa_offset 12
 1135              		@ sp needed
 1136 001c 30BD     		pop	{r4, r5, pc}
 1137              		.cfi_endproc
 1138              	.LFE126:
 1139              		.size	c_nil_to_s, .-c_nil_to_s
 1140 001e 00BF     		.section	.text.mrbc_run_mrblib,"ax",%progbits
 1141              		.align	2
 1142              		.thumb
 1143              		.thumb_func
 1144              		.type	mrbc_run_mrblib, %function
 1145              	mrbc_run_mrblib:
 1146              	.LFB133:
 978:class.c       ****   // nothing to do.
 979:class.c       **** }
 980:class.c       **** 
 981:class.c       **** 
 982:class.c       **** //================================================================
 983:class.c       **** /*! Run mrblib, which is mruby bytecode
 984:class.c       **** */
 985:class.c       **** static void mrbc_run_mrblib(void)
 986:class.c       **** {
 1147              		.loc 1 986 0
 1148              		.cfi_startproc
 1149              		@ args = 0, pretend = 0, frame = 1648
 1150              		@ frame_needed = 0, uses_anonymous_args = 0
 1151 0000 00B5     		push	{lr}
 1152              		.cfi_def_cfa_offset 4
 1153              		.cfi_offset 14, -4
 1154 0002 ADF2746D 		subw	sp, sp, #1652
 1155              		.cfi_def_cfa_offset 1656
 987:class.c       ****   extern const uint8_t mrblib_bytecode[];
 988:class.c       **** 
 989:class.c       ****   mrbc_vm vm;
 990:class.c       ****   mrbc_vm_open(&vm);
 1156              		.loc 1 990 0
 1157 0006 6846     		mov	r0, sp
 1158 0008 FFF7FEFF 		bl	mrbc_vm_open
 1159              	.LVL155:
 991:class.c       ****   mrbc_load_mrb(&vm, mrblib_bytecode);
 1160              		.loc 1 991 0
ARM GAS  C:\Users\164\AppData\Local\Temp\ccvDnxKa.s 			page 47


 1161 000c 0849     		ldr	r1, .L81
 1162 000e 6846     		mov	r0, sp
 1163 0010 FFF7FEFF 		bl	mrbc_load_mrb
 1164              	.LVL156:
 992:class.c       ****   mrbc_vm_begin(&vm);
 1165              		.loc 1 992 0
 1166 0014 6846     		mov	r0, sp
 1167 0016 FFF7FEFF 		bl	mrbc_vm_begin
 1168              	.LVL157:
 993:class.c       ****   mrbc_vm_run(&vm);
 1169              		.loc 1 993 0
 1170 001a 6846     		mov	r0, sp
 1171 001c FFF7FEFF 		bl	mrbc_vm_run
 1172              	.LVL158:
 994:class.c       ****   mrbc_vm_end(&vm);
 1173              		.loc 1 994 0
 1174 0020 6846     		mov	r0, sp
 1175 0022 FFF7FEFF 		bl	mrbc_vm_end
 1176              	.LVL159:
 995:class.c       ****   //mrbc_vm_close(&vm);
 996:class.c       **** }
 1177              		.loc 1 996 0
 1178 0026 0DF2746D 		addw	sp, sp, #1652
 1179              		.cfi_def_cfa_offset 4
 1180              		@ sp needed
 1181 002a 5DF804FB 		ldr	pc, [sp], #4
 1182              	.L82:
 1183 002e 00BF     		.align	2
 1184              	.L81:
 1185 0030 00000000 		.word	mrblib_bytecode
 1186              		.cfi_endproc
 1187              	.LFE133:
 1188              		.size	mrbc_run_mrblib, .-mrbc_run_mrblib
 1189              		.section	.text.find_class_by_object,"ax",%progbits
 1190              		.align	2
 1191              		.global	find_class_by_object
 1192              		.thumb
 1193              		.thumb_func
 1194              		.type	find_class_by_object, %function
 1195              	find_class_by_object:
 1196              	.LFB98:
 208:class.c       ****   mrbc_class *cls;
 1197              		.loc 1 208 0
 1198              		.cfi_startproc
 1199              		@ args = 0, pretend = 0, frame = 0
 1200              		@ frame_needed = 0, uses_anonymous_args = 0
 1201              		@ link register save eliminated.
 1202              	.LVL160:
 211:class.c       ****   case MRBC_TT_TRUE:	cls = mrbc_class_true;		break;
 1203              		.loc 1 211 0
 1204 0000 91F90030 		ldrsb	r3, [r1]
 1205 0004 013B     		subs	r3, r3, #1
 1206 0006 182B     		cmp	r3, #24
 1207 0008 34D8     		bhi	.L84
 1208 000a DFE803F0 		tbb	[pc, r3]
 1209              	.L86:
 1210 000e 13       		.byte	(.L85-.L86)/2
ARM GAS  C:\Users\164\AppData\Local\Temp\ccvDnxKa.s 			page 48


 1211 000f 10       		.byte	(.L87-.L86)/2
 1212 0010 0D       		.byte	(.L88-.L86)/2
 1213 0011 16       		.byte	(.L89-.L86)/2
 1214 0012 19       		.byte	(.L90-.L86)/2
 1215 0013 1C       		.byte	(.L91-.L86)/2
 1216 0014 22       		.byte	(.L92-.L86)/2
 1217 0015 33       		.byte	(.L84-.L86)/2
 1218 0016 33       		.byte	(.L84-.L86)/2
 1219 0017 33       		.byte	(.L84-.L86)/2
 1220 0018 33       		.byte	(.L84-.L86)/2
 1221 0019 33       		.byte	(.L84-.L86)/2
 1222 001a 33       		.byte	(.L84-.L86)/2
 1223 001b 33       		.byte	(.L84-.L86)/2
 1224 001c 33       		.byte	(.L84-.L86)/2
 1225 001d 33       		.byte	(.L84-.L86)/2
 1226 001e 33       		.byte	(.L84-.L86)/2
 1227 001f 33       		.byte	(.L84-.L86)/2
 1228 0020 33       		.byte	(.L84-.L86)/2
 1229 0021 1F       		.byte	(.L93-.L86)/2
 1230 0022 24       		.byte	(.L94-.L86)/2
 1231 0023 27       		.byte	(.L95-.L86)/2
 1232 0024 2A       		.byte	(.L96-.L86)/2
 1233 0025 2D       		.byte	(.L97-.L86)/2
 1234 0026 30       		.byte	(.L98-.L86)/2
 1235 0027 00       		.p2align 1
 1236              	.L88:
 212:class.c       ****   case MRBC_TT_FALSE:	cls = mrbc_class_false; 	break;
 1237              		.loc 1 212 0
 1238 0028 144B     		ldr	r3, .L100
 1239 002a 1868     		ldr	r0, [r3]
 1240              	.LVL161:
 1241 002c 7047     		bx	lr
 1242              	.LVL162:
 1243              	.L87:
 213:class.c       ****   case MRBC_TT_NIL:	cls = mrbc_class_nil;		break;
 1244              		.loc 1 213 0
 1245 002e 144B     		ldr	r3, .L100+4
 1246 0030 1868     		ldr	r0, [r3]
 1247              	.LVL163:
 1248 0032 7047     		bx	lr
 1249              	.LVL164:
 1250              	.L85:
 214:class.c       ****   case MRBC_TT_FIXNUM:	cls = mrbc_class_fixnum;	break;
 1251              		.loc 1 214 0
 1252 0034 134B     		ldr	r3, .L100+8
 1253 0036 1868     		ldr	r0, [r3]
 1254              	.LVL165:
 1255 0038 7047     		bx	lr
 1256              	.LVL166:
 1257              	.L89:
 215:class.c       ****   case MRBC_TT_FLOAT:	cls = mrbc_class_float; 	break;
 1258              		.loc 1 215 0
 1259 003a 134B     		ldr	r3, .L100+12
 1260 003c 1868     		ldr	r0, [r3]
 1261              	.LVL167:
 1262 003e 7047     		bx	lr
 1263              	.LVL168:
ARM GAS  C:\Users\164\AppData\Local\Temp\ccvDnxKa.s 			page 49


 1264              	.L90:
 216:class.c       ****   case MRBC_TT_SYMBOL:	cls = mrbc_class_symbol;	break;
 1265              		.loc 1 216 0
 1266 0040 124B     		ldr	r3, .L100+16
 1267 0042 1868     		ldr	r0, [r3]
 1268              	.LVL169:
 1269 0044 7047     		bx	lr
 1270              	.LVL170:
 1271              	.L91:
 217:class.c       **** 
 1272              		.loc 1 217 0
 1273 0046 124B     		ldr	r3, .L100+20
 1274 0048 1868     		ldr	r0, [r3]
 1275              	.LVL171:
 1276 004a 7047     		bx	lr
 1277              	.LVL172:
 1278              	.L93:
 219:class.c       ****   case MRBC_TT_CLASS:    cls = obj->cls;                 break;
 1279              		.loc 1 219 0
 1280 004c 8B68     		ldr	r3, [r1, #8]
 1281 004e 5868     		ldr	r0, [r3, #4]
 1282              	.LVL173:
 1283 0050 7047     		bx	lr
 1284              	.LVL174:
 1285              	.L92:
 220:class.c       ****   case MRBC_TT_PROC:	cls = mrbc_class_proc;		break;
 1286              		.loc 1 220 0
 1287 0052 8868     		ldr	r0, [r1, #8]
 1288              	.LVL175:
 1289 0054 7047     		bx	lr
 1290              	.LVL176:
 1291              	.L94:
 221:class.c       ****   case MRBC_TT_ARRAY:	cls = mrbc_class_array; 	break;
 1292              		.loc 1 221 0
 1293 0056 0F4B     		ldr	r3, .L100+24
 1294 0058 1868     		ldr	r0, [r3]
 1295              	.LVL177:
 1296 005a 7047     		bx	lr
 1297              	.LVL178:
 1298              	.L95:
 222:class.c       ****   case MRBC_TT_STRING:	cls = mrbc_class_string;	break;
 1299              		.loc 1 222 0
 1300 005c 0E4B     		ldr	r3, .L100+28
 1301 005e 1868     		ldr	r0, [r3]
 1302              	.LVL179:
 1303 0060 7047     		bx	lr
 1304              	.LVL180:
 1305              	.L96:
 223:class.c       ****   case MRBC_TT_RANGE:	cls = mrbc_class_range; 	break;
 1306              		.loc 1 223 0
 1307 0062 0E4B     		ldr	r3, .L100+32
 1308 0064 1868     		ldr	r0, [r3]
 1309              	.LVL181:
 1310 0066 7047     		bx	lr
 1311              	.LVL182:
 1312              	.L97:
 224:class.c       ****   case MRBC_TT_HASH:	cls = mrbc_class_hash;		break;
ARM GAS  C:\Users\164\AppData\Local\Temp\ccvDnxKa.s 			page 50


 1313              		.loc 1 224 0
 1314 0068 0D4B     		ldr	r3, .L100+36
 1315 006a 1868     		ldr	r0, [r3]
 1316              	.LVL183:
 1317 006c 7047     		bx	lr
 1318              	.LVL184:
 1319              	.L98:
 225:class.c       **** 
 1320              		.loc 1 225 0
 1321 006e 0D4B     		ldr	r3, .L100+40
 1322 0070 1868     		ldr	r0, [r3]
 1323              	.LVL185:
 1324 0072 7047     		bx	lr
 1325              	.LVL186:
 1326              	.L84:
 227:class.c       ****   }
 1327              		.loc 1 227 0
 1328 0074 0C4B     		ldr	r3, .L100+44
 1329 0076 1868     		ldr	r0, [r3]
 1330              	.LVL187:
 231:class.c       **** 
 1331              		.loc 1 231 0
 1332 0078 7047     		bx	lr
 1333              	.L101:
 1334 007a 00BF     		.align	2
 1335              	.L100:
 1336 007c 00000000 		.word	mrbc_class_true
 1337 0080 00000000 		.word	mrbc_class_false
 1338 0084 00000000 		.word	mrbc_class_nil
 1339 0088 00000000 		.word	mrbc_class_fixnum
 1340 008c 00000000 		.word	mrbc_class_float
 1341 0090 00000000 		.word	mrbc_class_symbol
 1342 0094 00000000 		.word	mrbc_class_proc
 1343 0098 00000000 		.word	mrbc_class_array
 1344 009c 00000000 		.word	mrbc_class_string
 1345 00a0 00000000 		.word	mrbc_class_range
 1346 00a4 00000000 		.word	mrbc_class_hash
 1347 00a8 00000000 		.word	mrbc_class_object
 1348              		.cfi_endproc
 1349              	.LFE98:
 1350              		.size	find_class_by_object, .-find_class_by_object
 1351              		.section	.text.c_object_class,"ax",%progbits
 1352              		.align	2
 1353              		.thumb
 1354              		.thumb_func
 1355              		.type	c_object_class, %function
 1356              	c_object_class:
 1357              	.LFB112:
 583:class.c       ****   mrbc_value value = {.tt = MRBC_TT_CLASS};
 1358              		.loc 1 583 0
 1359              		.cfi_startproc
 1360              		@ args = 0, pretend = 0, frame = 32
 1361              		@ frame_needed = 0, uses_anonymous_args = 0
 1362              	.LVL188:
 1363 0000 70B5     		push	{r4, r5, r6, lr}
 1364              		.cfi_def_cfa_offset 16
 1365              		.cfi_offset 4, -16
ARM GAS  C:\Users\164\AppData\Local\Temp\ccvDnxKa.s 			page 51


 1366              		.cfi_offset 5, -12
 1367              		.cfi_offset 6, -8
 1368              		.cfi_offset 14, -4
 1369 0002 88B0     		sub	sp, sp, #32
 1370              		.cfi_def_cfa_offset 48
 1371 0004 0E46     		mov	r6, r1
 584:class.c       ****   value.cls = find_class_by_object( vm, v );
 1372              		.loc 1 584 0
 1373 0006 04AD     		add	r5, sp, #16
 1374 0008 0023     		movs	r3, #0
 1375 000a 0493     		str	r3, [sp, #16]
 1376 000c 0593     		str	r3, [sp, #20]
 1377 000e 0793     		str	r3, [sp, #28]
 1378 0010 0723     		movs	r3, #7
 1379 0012 8DF81030 		strb	r3, [sp, #16]
 585:class.c       ****   SET_RETURN( value );
 1380              		.loc 1 585 0
 1381 0016 FFF7FEFF 		bl	find_class_by_object
 1382              	.LVL189:
 1383 001a 0690     		str	r0, [sp, #24]
 1384              	.LBB126:
 586:class.c       **** }
 1385              		.loc 1 586 0
 1386 001c 95E80F00 		ldmia	r5, {r0, r1, r2, r3}
 1387 0020 8DE80F00 		stmia	sp, {r0, r1, r2, r3}
 1388 0024 3046     		mov	r0, r6
 1389 0026 FFF7FEFF 		bl	mrbc_dec_ref_counter
 1390              	.LVL190:
 1391 002a 9DE80F00 		ldmia	sp, {r0, r1, r2, r3}
 1392 002e 86E80F00 		stmia	r6, {r0, r1, r2, r3}
 1393              	.LBE126:
 587:class.c       **** 
 1394              		.loc 1 587 0
 1395 0032 08B0     		add	sp, sp, #32
 1396              		.cfi_def_cfa_offset 16
 1397              		@ sp needed
 1398 0034 70BD     		pop	{r4, r5, r6, pc}
 1399              		.cfi_endproc
 1400              	.LFE112:
 1401              		.size	c_object_class, .-c_object_class
 1402 0036 00BF     		.section	.text.mrbc_print_sub,"ax",%progbits
 1403              		.align	2
 1404              		.thumb
 1405              		.thumb_func
 1406              		.type	mrbc_print_sub, %function
 1407              	mrbc_print_sub:
 1408              	.LFB95:
  47:class.c       ****   int ret = 0;
 1409              		.loc 1 47 0
 1410              		.cfi_startproc
 1411              		@ args = 0, pretend = 0, frame = 48
 1412              		@ frame_needed = 0, uses_anonymous_args = 0
 1413              	.LVL191:
 1414 0000 70B5     		push	{r4, r5, r6, lr}
 1415              		.cfi_def_cfa_offset 16
 1416              		.cfi_offset 4, -16
 1417              		.cfi_offset 5, -12
ARM GAS  C:\Users\164\AppData\Local\Temp\ccvDnxKa.s 			page 52


 1418              		.cfi_offset 6, -8
 1419              		.cfi_offset 14, -4
 1420 0002 8CB0     		sub	sp, sp, #48
 1421              		.cfi_def_cfa_offset 64
 1422 0004 0446     		mov	r4, r0
 1423              	.LVL192:
  50:class.c       ****   case MRBC_TT_EMPTY:	console_print("(empty)");	break;
 1424              		.loc 1 50 0
 1425 0006 90F90010 		ldrsb	r1, [r0]
 1426 000a 1929     		cmp	r1, #25
 1427 000c 00F20681 		bhi	.L105
 1428 0010 DFE811F0 		tbh	[pc, r1, lsl #1]
 1429              	.L107:
 1430 0014 1A00     		.2byte	(.L106-.L107)/2
 1431 0016 0901     		.2byte	(.L128-.L107)/2
 1432 0018 2100     		.2byte	(.L109-.L107)/2
 1433 001a 2800     		.2byte	(.L110-.L107)/2
 1434 001c 2F00     		.2byte	(.L111-.L107)/2
 1435 001e 3500     		.2byte	(.L112-.L107)/2
 1436 0020 3C00     		.2byte	(.L113-.L107)/2
 1437 0022 4A00     		.2byte	(.L114-.L107)/2
 1438 0024 0401     		.2byte	(.L105-.L107)/2
 1439 0026 0401     		.2byte	(.L105-.L107)/2
 1440 0028 0401     		.2byte	(.L105-.L107)/2
 1441 002a 0401     		.2byte	(.L105-.L107)/2
 1442 002c 0401     		.2byte	(.L105-.L107)/2
 1443 002e 0401     		.2byte	(.L105-.L107)/2
 1444 0030 0401     		.2byte	(.L105-.L107)/2
 1445 0032 0401     		.2byte	(.L105-.L107)/2
 1446 0034 0401     		.2byte	(.L105-.L107)/2
 1447 0036 0401     		.2byte	(.L105-.L107)/2
 1448 0038 0401     		.2byte	(.L105-.L107)/2
 1449 003a 0401     		.2byte	(.L105-.L107)/2
 1450 003c 5900     		.2byte	(.L115-.L107)/2
 1451 003e 6800     		.2byte	(.L116-.L107)/2
 1452 0040 6E00     		.2byte	(.L117-.L107)/2
 1453 0042 9500     		.2byte	(.L118-.L107)/2
 1454 0044 A600     		.2byte	(.L119-.L107)/2
 1455 0046 CB00     		.2byte	(.L120-.L107)/2
 1456              		.p2align 1
 1457              	.L106:
 1458              	.LVL193:
 1459              	.LBB184:
 1460              	.LBB185:
  75:console.h     **** }
 1461              		.loc 2 75 0
 1462 0048 0722     		movs	r2, #7
 1463 004a 7A49     		ldr	r1, .L133
 1464 004c 0120     		movs	r0, #1
 1465              	.LVL194:
 1466 004e FFF7FEFF 		bl	hal_write
 1467              	.LVL195:
 1468              	.LBE185:
 1469              	.LBE184:
  48:class.c       **** 
 1470              		.loc 1 48 0
 1471 0052 0020     		movs	r0, #0
ARM GAS  C:\Users\164\AppData\Local\Temp\ccvDnxKa.s 			page 53


 1472 0054 ECE0     		b	.L108
 1473              	.LVL196:
 1474              	.L109:
 1475              	.LBB186:
 1476              	.LBB187:
  75:console.h     **** }
 1477              		.loc 2 75 0
 1478 0056 0522     		movs	r2, #5
 1479 0058 7749     		ldr	r1, .L133+4
 1480 005a 0120     		movs	r0, #1
 1481              	.LVL197:
 1482 005c FFF7FEFF 		bl	hal_write
 1483              	.LVL198:
 1484              	.LBE187:
 1485              	.LBE186:
  48:class.c       **** 
 1486              		.loc 1 48 0
 1487 0060 0020     		movs	r0, #0
 1488 0062 E5E0     		b	.L108
 1489              	.LVL199:
 1490              	.L110:
 1491              	.LBB188:
 1492              	.LBB189:
  75:console.h     **** }
 1493              		.loc 2 75 0
 1494 0064 0422     		movs	r2, #4
 1495 0066 7549     		ldr	r1, .L133+8
 1496 0068 0120     		movs	r0, #1
 1497              	.LVL200:
 1498 006a FFF7FEFF 		bl	hal_write
 1499              	.LVL201:
 1500              	.LBE189:
 1501              	.LBE188:
  48:class.c       **** 
 1502              		.loc 1 48 0
 1503 006e 0020     		movs	r0, #0
 1504 0070 DEE0     		b	.L108
 1505              	.LVL202:
 1506              	.L111:
  55:class.c       **** #if MRBC_USE_FLOAT
 1507              		.loc 1 55 0
 1508 0072 8168     		ldr	r1, [r0, #8]
 1509 0074 7248     		ldr	r0, .L133+12
 1510              	.LVL203:
 1511 0076 FFF7FEFF 		bl	console_printf
 1512              	.LVL204:
  48:class.c       **** 
 1513              		.loc 1 48 0
 1514 007a 0020     		movs	r0, #0
  55:class.c       **** #if MRBC_USE_FLOAT
 1515              		.loc 1 55 0
 1516 007c D8E0     		b	.L108
 1517              	.LVL205:
 1518              	.L112:
  57:class.c       **** #endif
 1519              		.loc 1 57 0
 1520 007e D0E90223 		ldrd	r2, [r0, #8]
ARM GAS  C:\Users\164\AppData\Local\Temp\ccvDnxKa.s 			page 54


 1521 0082 7048     		ldr	r0, .L133+16
 1522              	.LVL206:
 1523 0084 FFF7FEFF 		bl	console_printf
 1524              	.LVL207:
  48:class.c       **** 
 1525              		.loc 1 48 0
 1526 0088 0020     		movs	r0, #0
  57:class.c       **** #endif
 1527              		.loc 1 57 0
 1528 008a D1E0     		b	.L108
 1529              	.LVL208:
 1530              	.L113:
 1531              	.LBB190:
 1532              	.LBB191:
 1533              		.file 4 "symbol.h"
   1:symbol.h      **** /*! @file
   2:symbol.h      ****   @brief
   3:symbol.h      ****   mruby/c Symbol class
   4:symbol.h      **** 
   5:symbol.h      ****   <pre>
   6:symbol.h      ****   Copyright (C) 2015-2018 Kyushu Institute of Technology.
   7:symbol.h      ****   Copyright (C) 2015-2018 Shimane IT Open-Innovation Center.
   8:symbol.h      **** 
   9:symbol.h      ****   This file is distributed under BSD 3-Clause License.
  10:symbol.h      **** 
  11:symbol.h      ****   </pre>
  12:symbol.h      **** */
  13:symbol.h      **** 
  14:symbol.h      **** #ifndef MRBC_SRC_SYMBOL_H_
  15:symbol.h      **** #define MRBC_SRC_SYMBOL_H_
  16:symbol.h      **** 
  17:symbol.h      **** #include "value.h"
  18:symbol.h      **** 
  19:symbol.h      **** #ifdef __cplusplus
  20:symbol.h      **** extern "C" {
  21:symbol.h      **** #endif
  22:symbol.h      **** 
  23:symbol.h      **** 
  24:symbol.h      **** mrbc_value mrbc_symbol_new(struct VM *vm, const char *str);
  25:symbol.h      **** uint16_t calc_hash(const char *str);
  26:symbol.h      **** mrbc_sym str_to_symid(const char *str);
  27:symbol.h      **** const char *symid_to_str(mrbc_sym sym_id);
  28:symbol.h      **** void mrbc_init_class_symbol(struct VM *vm);
  29:symbol.h      **** 
  30:symbol.h      **** #if defined(MRBC_DEBUG)
  31:symbol.h      **** void mrbc_symbol_statistics( int *total_used );
  32:symbol.h      **** #endif
  33:symbol.h      **** 
  34:symbol.h      **** 
  35:symbol.h      **** //================================================================
  36:symbol.h      **** /*! get c-language string (char *)
  37:symbol.h      **** */
  38:symbol.h      **** static inline const char * mrbc_symbol_cstr(const mrbc_value *v)
  39:symbol.h      **** {
  40:symbol.h      ****   return symid_to_str(v->i);
 1534              		.loc 4 40 0
 1535 008c B0F90800 		ldrsh	r0, [r0, #8]
ARM GAS  C:\Users\164\AppData\Local\Temp\ccvDnxKa.s 			page 55


 1536              	.LVL209:
 1537 0090 FFF7FEFF 		bl	symid_to_str
 1538              	.LVL210:
 1539 0094 0446     		mov	r4, r0
 1540              	.LVL211:
 1541              	.LBE191:
 1542              	.LBE190:
 1543              	.LBB192:
 1544              	.LBB193:
  75:console.h     **** }
 1545              		.loc 2 75 0
 1546 0096 FFF7FEFF 		bl	strlen
 1547              	.LVL212:
 1548 009a 0246     		mov	r2, r0
 1549 009c 2146     		mov	r1, r4
 1550 009e 0120     		movs	r0, #1
 1551 00a0 FFF7FEFF 		bl	hal_write
 1552              	.LVL213:
 1553              	.LBE193:
 1554              	.LBE192:
  48:class.c       **** 
 1555              		.loc 1 48 0
 1556 00a4 0020     		movs	r0, #0
 1557 00a6 C3E0     		b	.L108
 1558              	.LVL214:
 1559              	.L114:
  64:class.c       ****     break;
 1560              		.loc 1 64 0
 1561 00a8 8368     		ldr	r3, [r0, #8]
 1562 00aa B3F90000 		ldrsh	r0, [r3]
 1563              	.LVL215:
 1564 00ae FFF7FEFF 		bl	symid_to_str
 1565              	.LVL216:
 1566 00b2 0446     		mov	r4, r0
 1567              	.LVL217:
 1568              	.LBB194:
 1569              	.LBB195:
  75:console.h     **** }
 1570              		.loc 2 75 0
 1571 00b4 FFF7FEFF 		bl	strlen
 1572              	.LVL218:
 1573 00b8 0246     		mov	r2, r0
 1574 00ba 2146     		mov	r1, r4
 1575 00bc 0120     		movs	r0, #1
 1576 00be FFF7FEFF 		bl	hal_write
 1577              	.LVL219:
 1578              	.LBE195:
 1579              	.LBE194:
  48:class.c       **** 
 1580              		.loc 1 48 0
 1581 00c2 0020     		movs	r0, #0
 1582 00c4 B4E0     		b	.L108
 1583              	.LVL220:
 1584              	.L115:
  69:class.c       ****     break;
 1585              		.loc 1 69 0
 1586 00c6 0146     		mov	r1, r0
ARM GAS  C:\Users\164\AppData\Local\Temp\ccvDnxKa.s 			page 56


 1587 00c8 0020     		movs	r0, #0
 1588              	.LVL221:
 1589 00ca FFF7FEFF 		bl	find_class_by_object
 1590              	.LVL222:
  68:class.c       **** 	symid_to_str( find_class_by_object(0,v)->sym_id ), v->instance );
 1591              		.loc 1 68 0
 1592 00ce B0F90000 		ldrsh	r0, [r0]
 1593 00d2 FFF7FEFF 		bl	symid_to_str
 1594              	.LVL223:
 1595 00d6 A268     		ldr	r2, [r4, #8]
 1596 00d8 0146     		mov	r1, r0
 1597 00da 5B48     		ldr	r0, .L133+20
 1598 00dc FFF7FEFF 		bl	console_printf
 1599              	.LVL224:
  48:class.c       **** 
 1600              		.loc 1 48 0
 1601 00e0 0020     		movs	r0, #0
  70:class.c       **** 
 1602              		.loc 1 70 0
 1603 00e2 A5E0     		b	.L108
 1604              	.LVL225:
 1605              	.L116:
  73:class.c       ****     break;
 1606              		.loc 1 73 0
 1607 00e4 8168     		ldr	r1, [r0, #8]
 1608 00e6 5948     		ldr	r0, .L133+24
 1609              	.LVL226:
 1610 00e8 FFF7FEFF 		bl	console_printf
 1611              	.LVL227:
  48:class.c       **** 
 1612              		.loc 1 48 0
 1613 00ec 0020     		movs	r0, #0
  74:class.c       **** 
 1614              		.loc 1 74 0
 1615 00ee 9FE0     		b	.L108
 1616              	.LVL228:
 1617              	.L117:
 1618 00f0 0CA9     		add	r1, sp, #48
 1619 00f2 5B23     		movs	r3, #91
 1620 00f4 01F82E3D 		strb	r3, [r1, #-46]!
 1621              	.LVL229:
 1622              	.LBB196:
 1623              	.LBB197:
 1624              	.LBB198:
  64:console.h     **** }
 1625              		.loc 2 64 0
 1626 00f8 0122     		movs	r2, #1
 1627 00fa 1046     		mov	r0, r2
 1628              	.LVL230:
 1629 00fc FFF7FEFF 		bl	hal_write
 1630              	.LVL231:
 1631              	.LBE198:
 1632              	.LBE197:
  79:class.c       ****       if( i != 0 ) console_print(", ");
 1633              		.loc 1 79 0
 1634 0100 0025     		movs	r5, #0
 1635 0102 0EE0     		b	.L121
ARM GAS  C:\Users\164\AppData\Local\Temp\ccvDnxKa.s 			page 57


 1636              	.LVL232:
 1637              	.L123:
 1638              	.LBB199:
  80:class.c       ****       mrbc_value v1 = mrbc_array_get(v, i);
 1639              		.loc 1 80 0
 1640 0104 25B1     		cbz	r5, .L122
 1641              	.LVL233:
 1642              	.LBB200:
 1643              	.LBB201:
  75:console.h     **** }
 1644              		.loc 2 75 0
 1645 0106 0222     		movs	r2, #2
 1646 0108 5149     		ldr	r1, .L133+28
 1647 010a 0120     		movs	r0, #1
 1648 010c FFF7FEFF 		bl	hal_write
 1649              	.LVL234:
 1650              	.L122:
 1651              	.LBE201:
 1652              	.LBE200:
  81:class.c       ****       mrbc_p_sub(&v1);
 1653              		.loc 1 81 0 discriminator 2
 1654 0110 2A46     		mov	r2, r5
 1655 0112 2146     		mov	r1, r4
 1656 0114 04A8     		add	r0, sp, #16
 1657 0116 FFF7FEFF 		bl	mrbc_array_get
 1658              	.LVL235:
  82:class.c       ****     }
 1659              		.loc 1 82 0 discriminator 2
 1660 011a 04A8     		add	r0, sp, #16
 1661 011c FFF7FEFF 		bl	mrbc_p_sub
 1662              	.LVL236:
 1663              	.LBE199:
  79:class.c       ****       if( i != 0 ) console_print(", ");
 1664              		.loc 1 79 0 discriminator 2
 1665 0120 0135     		adds	r5, r5, #1
 1666              	.LVL237:
 1667              	.L121:
 1668              	.LBB202:
 1669              	.LBB203:
 1670              		.file 5 "c_array.h"
   1:c_array.h     **** /*! @file
   2:c_array.h     ****   @brief
   3:c_array.h     ****   mruby/c Array class
   4:c_array.h     **** 
   5:c_array.h     ****   <pre>
   6:c_array.h     ****   Copyright (C) 2015-2018 Kyushu Institute of Technology.
   7:c_array.h     ****   Copyright (C) 2015-2018 Shimane IT Open-Innovation Center.
   8:c_array.h     **** 
   9:c_array.h     ****   This file is distributed under BSD 3-Clause License.
  10:c_array.h     **** 
  11:c_array.h     ****   </pre>
  12:c_array.h     **** */
  13:c_array.h     **** 
  14:c_array.h     **** #ifndef MRBC_SRC_C_ARRAY_H_
  15:c_array.h     **** #define MRBC_SRC_C_ARRAY_H_
  16:c_array.h     **** 
  17:c_array.h     **** #include "value.h"
ARM GAS  C:\Users\164\AppData\Local\Temp\ccvDnxKa.s 			page 58


  18:c_array.h     **** 
  19:c_array.h     **** #ifdef __cplusplus
  20:c_array.h     **** extern "C" {
  21:c_array.h     **** #endif
  22:c_array.h     **** 
  23:c_array.h     **** //================================================================
  24:c_array.h     **** /*!@brief
  25:c_array.h     ****   Define Array handle.
  26:c_array.h     **** */
  27:c_array.h     **** typedef struct RArray {
  28:c_array.h     ****   MRBC_OBJECT_HEADER;
  29:c_array.h     **** 
  30:c_array.h     ****   uint16_t data_size;	//!< data buffer size.
  31:c_array.h     ****   uint16_t n_stored;	//!< # of stored.
  32:c_array.h     ****   mrbc_value *data;	//!< pointer to allocated memory.
  33:c_array.h     **** 
  34:c_array.h     **** } mrbc_array;
  35:c_array.h     **** 
  36:c_array.h     **** 
  37:c_array.h     **** mrbc_value mrbc_array_new(struct VM *vm, int size);
  38:c_array.h     **** void mrbc_array_delete(mrbc_value *ary);
  39:c_array.h     **** void mrbc_array_clear_vm_id(mrbc_value *ary);
  40:c_array.h     **** int mrbc_array_resize(mrbc_value *ary, int size);
  41:c_array.h     **** int mrbc_array_set(mrbc_value *ary, int idx, mrbc_value *set_val);
  42:c_array.h     **** mrbc_value mrbc_array_get(mrbc_value *ary, int idx);
  43:c_array.h     **** int mrbc_array_push(mrbc_value *ary, mrbc_value *set_val);
  44:c_array.h     **** mrbc_value mrbc_array_pop(mrbc_value *ary);
  45:c_array.h     **** int mrbc_array_unshift(mrbc_value *ary, mrbc_value *set_val);
  46:c_array.h     **** mrbc_value mrbc_array_shift(mrbc_value *ary);
  47:c_array.h     **** int mrbc_array_insert(mrbc_value *ary, int idx, mrbc_value *set_val);
  48:c_array.h     **** mrbc_value mrbc_array_remove(mrbc_value *ary, int idx);
  49:c_array.h     **** void mrbc_array_clear(mrbc_value *ary);
  50:c_array.h     **** int mrbc_array_compare(const mrbc_value *v1, const mrbc_value *v2);
  51:c_array.h     **** void mrbc_array_minmax(mrbc_value *ary, mrbc_value **pp_min_value, mrbc_value **pp_max_value);
  52:c_array.h     **** void mrbc_init_class_array(struct VM *vm);
  53:c_array.h     **** 
  54:c_array.h     **** 
  55:c_array.h     **** //================================================================
  56:c_array.h     **** /*! get size
  57:c_array.h     **** */
  58:c_array.h     **** static inline int mrbc_array_size(const mrbc_value *ary)
  59:c_array.h     **** {
  60:c_array.h     ****   return ary->array->n_stored;
 1671              		.loc 5 60 0 discriminator 1
 1672 0122 A368     		ldr	r3, [r4, #8]
 1673 0124 DB88     		ldrh	r3, [r3, #6]
 1674              	.LVL238:
 1675              	.LBE203:
 1676              	.LBE202:
  79:class.c       ****       if( i != 0 ) console_print(", ");
 1677              		.loc 1 79 0 discriminator 1
 1678 0126 9D42     		cmp	r5, r3
 1679 0128 ECDB     		blt	.L123
 1680 012a 0CA9     		add	r1, sp, #48
 1681 012c 5D23     		movs	r3, #93
 1682 012e 01F82C3D 		strb	r3, [r1, #-44]!
 1683              	.LVL239:
ARM GAS  C:\Users\164\AppData\Local\Temp\ccvDnxKa.s 			page 59


 1684              	.LBB204:
 1685              	.LBB205:
  64:console.h     **** }
 1686              		.loc 2 64 0
 1687 0132 0122     		movs	r2, #1
 1688 0134 1046     		mov	r0, r2
 1689 0136 FFF7FEFF 		bl	hal_write
 1690              	.LVL240:
 1691              	.LBE205:
 1692              	.LBE204:
 1693              	.LBE196:
  48:class.c       **** 
 1694              		.loc 1 48 0
 1695 013a 0020     		movs	r0, #0
 1696 013c 78E0     		b	.L108
 1697              	.LVL241:
 1698              	.L118:
 1699              	.LBB206:
 1700              	.LBB207:
 1701              		.file 6 "c_string.h"
   1:c_string.h    **** /*! @file
   2:c_string.h    ****   @brief
   3:c_string.h    ****   mruby/c String object
   4:c_string.h    **** 
   5:c_string.h    ****   <pre>
   6:c_string.h    ****   Copyright (C) 2015-2018 Kyushu Institute of Technology.
   7:c_string.h    ****   Copyright (C) 2015-2018 Shimane IT Open-Innovation Center.
   8:c_string.h    **** 
   9:c_string.h    ****   This file is distributed under BSD 3-Clause License.
  10:c_string.h    **** 
  11:c_string.h    ****   </pre>
  12:c_string.h    **** */
  13:c_string.h    **** 
  14:c_string.h    **** #ifndef MRBC_SRC_C_STRING_H_
  15:c_string.h    **** #define MRBC_SRC_C_STRING_H_
  16:c_string.h    **** 
  17:c_string.h    **** #include <stdint.h>
  18:c_string.h    **** #include <string.h>
  19:c_string.h    **** #include "value.h"
  20:c_string.h    **** 
  21:c_string.h    **** #ifdef __cplusplus
  22:c_string.h    **** extern "C" {
  23:c_string.h    **** #endif
  24:c_string.h    **** 
  25:c_string.h    **** //================================================================
  26:c_string.h    **** /*!@brief
  27:c_string.h    ****   Define String handle.
  28:c_string.h    **** */
  29:c_string.h    **** typedef struct RString {
  30:c_string.h    ****   MRBC_OBJECT_HEADER;
  31:c_string.h    **** 
  32:c_string.h    ****   uint16_t size;	//!< string length.
  33:c_string.h    ****   uint8_t *data;	//!< pointer to allocated buffer.
  34:c_string.h    **** 
  35:c_string.h    **** } mrbc_string;
  36:c_string.h    **** 
  37:c_string.h    **** 
ARM GAS  C:\Users\164\AppData\Local\Temp\ccvDnxKa.s 			page 60


  38:c_string.h    **** mrbc_value mrbc_string_new(struct VM *vm, const void *src, int len);
  39:c_string.h    **** mrbc_value mrbc_string_new_cstr(struct VM *vm, const char *src);
  40:c_string.h    **** mrbc_value mrbc_string_new_alloc(struct VM *vm, void *buf, int len);
  41:c_string.h    **** void mrbc_string_delete(mrbc_value *str);
  42:c_string.h    **** void mrbc_string_clear_vm_id(mrbc_value *str);
  43:c_string.h    **** mrbc_value mrbc_string_dup(struct VM *vm, mrbc_value *s1);
  44:c_string.h    **** mrbc_value mrbc_string_add(struct VM *vm, const mrbc_value *s1, const mrbc_value *s2);
  45:c_string.h    **** int mrbc_string_append(mrbc_value *s1, const mrbc_value *s2);
  46:c_string.h    **** int mrbc_string_append_cstr(mrbc_value *s1, const char *s2);
  47:c_string.h    **** int mrbc_string_index(const mrbc_value *src, const mrbc_value *pattern, int offset);
  48:c_string.h    **** int mrbc_string_strip(mrbc_value *src, int mode);
  49:c_string.h    **** int mrbc_string_chomp(mrbc_value *src);
  50:c_string.h    **** void mrbc_init_class_string(struct VM *vm);
  51:c_string.h    **** 
  52:c_string.h    **** 
  53:c_string.h    **** //================================================================
  54:c_string.h    **** /*! compare
  55:c_string.h    **** */
  56:c_string.h    **** static inline int mrbc_string_compare(const mrbc_value *v1, const mrbc_value *v2)
  57:c_string.h    **** {
  58:c_string.h    ****   int len = (v1->string->size < v2->string->size) ?
  59:c_string.h    ****     v1->string->size : v2->string->size;
  60:c_string.h    **** 
  61:c_string.h    ****   int res = memcmp(v1->string->data, v2->string->data, len);
  62:c_string.h    ****   if( res != 0 ) return res;
  63:c_string.h    **** 
  64:c_string.h    ****   return v1->string->size - v2->string->size;
  65:c_string.h    **** }
  66:c_string.h    **** 
  67:c_string.h    **** //================================================================
  68:c_string.h    **** /*! get size
  69:c_string.h    **** */
  70:c_string.h    **** static inline int mrbc_string_size(const mrbc_value *str)
  71:c_string.h    **** {
  72:c_string.h    ****   return str->string->size;
  73:c_string.h    **** }
  74:c_string.h    **** 
  75:c_string.h    **** //================================================================
  76:c_string.h    **** /*! get c-language string (char *)
  77:c_string.h    **** */
  78:c_string.h    **** static inline char * mrbc_string_cstr(const mrbc_value *v)
  79:c_string.h    **** {
  80:c_string.h    ****   return (char*)v->string->data;
 1702              		.loc 6 80 0
 1703 013e 8368     		ldr	r3, [r0, #8]
 1704              	.LVL242:
 1705              	.LBE207:
 1706              	.LBE206:
 1707              	.LBB208:
 1708              	.LBB209:
  87:console.h     **** }
 1709              		.loc 2 87 0
 1710 0140 9A88     		ldrh	r2, [r3, #4]
 1711 0142 9968     		ldr	r1, [r3, #8]
 1712 0144 0120     		movs	r0, #1
 1713              	.LVL243:
 1714 0146 FFF7FEFF 		bl	hal_write
ARM GAS  C:\Users\164\AppData\Local\Temp\ccvDnxKa.s 			page 61


 1715              	.LVL244:
 1716              	.LBE209:
 1717              	.LBE208:
 1718              	.LBB210:
 1719              	.LBB211:
  72:c_string.h    **** }
 1720              		.loc 6 72 0
 1721 014a A268     		ldr	r2, [r4, #8]
 1722 014c 9388     		ldrh	r3, [r2, #4]
 1723              	.LVL245:
 1724              	.LBE211:
 1725              	.LBE210:
  90:class.c       **** 	mrbc_string_cstr(v)[ mrbc_string_size(v) - 1 ] == '\n' ) ret = 1;
 1726              		.loc 1 90 0
 1727 014e 002B     		cmp	r3, #0
 1728 0150 6BD0     		beq	.L129
 1729              	.LVL246:
 1730              	.LBB212:
 1731              	.LBB213:
 1732              		.loc 6 80 0
 1733 0152 9268     		ldr	r2, [r2, #8]
 1734              	.LVL247:
 1735              	.LBE213:
 1736              	.LBE212:
  91:class.c       ****     break;
 1737              		.loc 1 91 0
 1738 0154 013B     		subs	r3, r3, #1
 1739 0156 D35C     		ldrb	r3, [r2, r3]	@ zero_extendqisi2
  90:class.c       **** 	mrbc_string_cstr(v)[ mrbc_string_size(v) - 1 ] == '\n' ) ret = 1;
 1740              		.loc 1 90 0
 1741 0158 0A2B     		cmp	r3, #10
 1742 015a 68D0     		beq	.L130
  48:class.c       **** 
 1743              		.loc 1 48 0
 1744 015c 0020     		movs	r0, #0
 1745 015e 67E0     		b	.L108
 1746              	.LVL248:
 1747              	.L119:
 1748              	.LBB214:
 1749              	.LBB215:
 1750              	.LBB216:
 1751              		.file 7 "c_range.h"
   1:c_range.h     **** /*! @file
   2:c_range.h     ****   @brief
   3:c_range.h     ****   mruby/c Range object
   4:c_range.h     **** 
   5:c_range.h     ****   <pre>
   6:c_range.h     ****   Copyright (C) 2015-2018 Kyushu Institute of Technology.
   7:c_range.h     ****   Copyright (C) 2015-2018 Shimane IT Open-Innovation Center.
   8:c_range.h     **** 
   9:c_range.h     ****   This file is distributed under BSD 3-Clause License.
  10:c_range.h     **** 
  11:c_range.h     ****   </pre>
  12:c_range.h     **** */
  13:c_range.h     **** 
  14:c_range.h     **** #ifndef MRBC_SRC_C_RANGE_H_
  15:c_range.h     **** #define MRBC_SRC_C_RANGE_H_
ARM GAS  C:\Users\164\AppData\Local\Temp\ccvDnxKa.s 			page 62


  16:c_range.h     **** 
  17:c_range.h     **** #include <stdint.h>
  18:c_range.h     **** #include "value.h"
  19:c_range.h     **** 
  20:c_range.h     **** #ifdef __cplusplus
  21:c_range.h     **** extern "C" {
  22:c_range.h     **** #endif
  23:c_range.h     **** 
  24:c_range.h     **** //================================================================
  25:c_range.h     **** /*!@brief
  26:c_range.h     ****   Define Range object (same the handles of other objects)
  27:c_range.h     **** */
  28:c_range.h     **** typedef struct RRange {
  29:c_range.h     ****   MRBC_OBJECT_HEADER;
  30:c_range.h     **** 
  31:c_range.h     ****   uint8_t flag_exclude;	// true: exclude the end object, otherwise include.
  32:c_range.h     ****   mrbc_value first;
  33:c_range.h     ****   mrbc_value last;
  34:c_range.h     **** 
  35:c_range.h     **** } mrbc_range;
  36:c_range.h     **** 
  37:c_range.h     **** 
  38:c_range.h     **** mrbc_value mrbc_range_new(struct VM *vm, mrbc_value *first, mrbc_value *last, int flag_exclude);
  39:c_range.h     **** void mrbc_range_delete(mrbc_value *v);
  40:c_range.h     **** void mrbc_range_clear_vm_id(mrbc_value *v);
  41:c_range.h     **** int mrbc_range_compare(const mrbc_value *v1, const mrbc_value *v2);
  42:c_range.h     **** void mrbc_init_class_range(struct VM *vm);
  43:c_range.h     **** 
  44:c_range.h     **** 
  45:c_range.h     **** //================================================================
  46:c_range.h     **** /*! get first value
  47:c_range.h     **** */
  48:c_range.h     **** static inline mrbc_value mrbc_range_first(const mrbc_value *v)
  49:c_range.h     **** {
  50:c_range.h     ****   return v->range->first;
 1752              		.loc 7 50 0
 1753 0160 8368     		ldr	r3, [r0, #8]
 1754 0162 04AD     		add	r5, sp, #16
 1755 0164 0833     		adds	r3, r3, #8
 1756 0166 0FCB     		ldmia	r3, {r0, r1, r2, r3}
 1757              	.LVL249:
 1758 0168 85E80F00 		stmia	r5, {r0, r1, r2, r3}
 1759              	.LVL250:
 1760              	.LBE216:
 1761              	.LBE215:
  97:class.c       ****     console_print( mrbc_range_exclude_end(v) ? "..." : ".." );
 1762              		.loc 1 97 0
 1763 016c 2846     		mov	r0, r5
 1764 016e FFF747FF 		bl	mrbc_print_sub
 1765              	.LVL251:
 1766              	.LBB217:
 1767              	.LBB218:
  51:c_range.h     **** }
  52:c_range.h     **** 
  53:c_range.h     **** //================================================================
  54:c_range.h     **** /*! get last value
  55:c_range.h     **** */
ARM GAS  C:\Users\164\AppData\Local\Temp\ccvDnxKa.s 			page 63


  56:c_range.h     **** static inline mrbc_value mrbc_range_last(const mrbc_value *v)
  57:c_range.h     **** {
  58:c_range.h     ****   return v->range->last;
  59:c_range.h     **** }
  60:c_range.h     **** 
  61:c_range.h     **** //================================================================
  62:c_range.h     **** /*! get exclude_end?
  63:c_range.h     **** */
  64:c_range.h     **** static inline int mrbc_range_exclude_end(const mrbc_value *v)
  65:c_range.h     **** {
  66:c_range.h     ****   return v->range->flag_exclude;
 1768              		.loc 7 66 0
 1769 0172 A368     		ldr	r3, [r4, #8]
 1770 0174 DB78     		ldrb	r3, [r3, #3]	@ zero_extendqisi2
 1771              	.LVL252:
 1772              	.LBE218:
 1773              	.LBE217:
  98:class.c       ****     v1 = mrbc_range_last(v);
 1774              		.loc 1 98 0
 1775 0176 0BB1     		cbz	r3, .L131
 1776 0178 364D     		ldr	r5, .L133+32
 1777 017a 00E0     		b	.L124
 1778              	.L131:
 1779 017c 364D     		ldr	r5, .L133+36
 1780              	.L124:
 1781              	.LVL253:
 1782              	.LBB219:
 1783              	.LBB220:
  75:console.h     **** }
 1784              		.loc 2 75 0 discriminator 4
 1785 017e 2846     		mov	r0, r5
 1786 0180 FFF7FEFF 		bl	strlen
 1787              	.LVL254:
 1788 0184 0246     		mov	r2, r0
 1789 0186 2946     		mov	r1, r5
 1790 0188 0120     		movs	r0, #1
 1791 018a FFF7FEFF 		bl	hal_write
 1792              	.LVL255:
 1793              	.LBE220:
 1794              	.LBE219:
 1795              	.LBB221:
 1796              	.LBB222:
  58:c_range.h     **** }
 1797              		.loc 7 58 0 discriminator 4
 1798 018e A368     		ldr	r3, [r4, #8]
 1799 0190 08AC     		add	r4, sp, #32
 1800              	.LVL256:
 1801 0192 1833     		adds	r3, r3, #24
 1802 0194 0FCB     		ldmia	r3, {r0, r1, r2, r3}
 1803 0196 84E80F00 		stmia	r4, {r0, r1, r2, r3}
 1804              	.LVL257:
 1805              	.LBE222:
 1806              	.LBE221:
  99:class.c       ****     mrbc_print_sub(&v1);
 1807              		.loc 1 99 0 discriminator 4
 1808 019a 04AD     		add	r5, sp, #16
 1809 019c 85E80F00 		stmia	r5, {r0, r1, r2, r3}
ARM GAS  C:\Users\164\AppData\Local\Temp\ccvDnxKa.s 			page 64


 100:class.c       ****   } break;
 1810              		.loc 1 100 0 discriminator 4
 1811 01a0 2846     		mov	r0, r5
 1812 01a2 FFF72DFF 		bl	mrbc_print_sub
 1813              	.LVL258:
 1814              	.LBE214:
  48:class.c       **** 
 1815              		.loc 1 48 0 discriminator 4
 1816 01a6 0020     		movs	r0, #0
 101:class.c       **** 
 1817              		.loc 1 101 0 discriminator 4
 1818 01a8 42E0     		b	.L108
 1819              	.LVL259:
 1820              	.L120:
 1821 01aa 0CA9     		add	r1, sp, #48
 1822 01ac 7B23     		movs	r3, #123
 1823 01ae 01F82D3D 		strb	r3, [r1, #-45]!
 1824              	.LVL260:
 1825              	.LBB223:
 1826              	.LBB224:
 1827              	.LBB225:
  64:console.h     **** }
 1828              		.loc 2 64 0
 1829 01b2 0122     		movs	r2, #1
 1830 01b4 1046     		mov	r0, r2
 1831              	.LVL261:
 1832 01b6 FFF7FEFF 		bl	hal_write
 1833              	.LVL262:
 1834              	.LBE225:
 1835              	.LBE224:
 1836              	.LBB226:
 1837              	.LBB227:
 1838              		.file 8 "c_hash.h"
   1:c_hash.h      **** /*! @file
   2:c_hash.h      ****   @brief
   3:c_hash.h      ****   mruby/c Hash class
   4:c_hash.h      **** 
   5:c_hash.h      ****   <pre>
   6:c_hash.h      ****   Copyright (C) 2015-2018 Kyushu Institute of Technology.
   7:c_hash.h      ****   Copyright (C) 2015-2018 Shimane IT Open-Innovation Center.
   8:c_hash.h      **** 
   9:c_hash.h      ****   This file is distributed under BSD 3-Clause License.
  10:c_hash.h      **** 
  11:c_hash.h      ****   </pre>
  12:c_hash.h      **** */
  13:c_hash.h      **** 
  14:c_hash.h      **** #ifndef MRBC_SRC_C_HASH_H_
  15:c_hash.h      **** #define MRBC_SRC_C_HASH_H_
  16:c_hash.h      **** 
  17:c_hash.h      **** #include "value.h"
  18:c_hash.h      **** #include "c_array.h"
  19:c_hash.h      **** 
  20:c_hash.h      **** #ifdef __cplusplus
  21:c_hash.h      **** extern "C" {
  22:c_hash.h      **** #endif
  23:c_hash.h      **** 
  24:c_hash.h      **** //================================================================
ARM GAS  C:\Users\164\AppData\Local\Temp\ccvDnxKa.s 			page 65


  25:c_hash.h      **** /*!@brief
  26:c_hash.h      ****   Define Hash handle.
  27:c_hash.h      **** */
  28:c_hash.h      **** typedef struct RHash {
  29:c_hash.h      ****   // (NOTE)
  30:c_hash.h      ****   //  Needs to be same members and order as RArray.
  31:c_hash.h      ****   MRBC_OBJECT_HEADER;
  32:c_hash.h      **** 
  33:c_hash.h      ****   uint16_t data_size;	//!< data buffer size.
  34:c_hash.h      ****   uint16_t n_stored;	//!< # of stored.
  35:c_hash.h      ****   mrbc_value *data;	//!< pointer to allocated memory.
  36:c_hash.h      **** 
  37:c_hash.h      ****   // TODO: and other member for search.
  38:c_hash.h      **** 
  39:c_hash.h      **** } mrbc_hash;
  40:c_hash.h      **** 
  41:c_hash.h      **** 
  42:c_hash.h      **** //================================================================
  43:c_hash.h      **** /*!@brief
  44:c_hash.h      ****   Define Hash iterator.
  45:c_hash.h      **** */
  46:c_hash.h      **** typedef struct RHashIterator {
  47:c_hash.h      ****   mrbc_hash *target;
  48:c_hash.h      ****   mrbc_value *point;
  49:c_hash.h      ****   mrbc_value *p_end;
  50:c_hash.h      **** } mrbc_hash_iterator;
  51:c_hash.h      **** 
  52:c_hash.h      **** 
  53:c_hash.h      **** mrbc_value mrbc_hash_new(struct VM *vm, int size);
  54:c_hash.h      **** void mrbc_hash_delete(mrbc_value *hash);
  55:c_hash.h      **** mrbc_value *mrbc_hash_search(const mrbc_value *hash, const mrbc_value *key);
  56:c_hash.h      **** int mrbc_hash_set(mrbc_value *hash, mrbc_value *key, mrbc_value *val);
  57:c_hash.h      **** mrbc_value mrbc_hash_get(mrbc_value *hash, mrbc_value *key);
  58:c_hash.h      **** mrbc_value mrbc_hash_remove(mrbc_value *hash, mrbc_value *key);
  59:c_hash.h      **** void mrbc_hash_clear(mrbc_value *hash);
  60:c_hash.h      **** int mrbc_hash_compare(const mrbc_value *v1, const mrbc_value *v2);
  61:c_hash.h      **** mrbc_value mrbc_hash_dup(struct VM *vm, mrbc_value *src);
  62:c_hash.h      **** void mrbc_init_class_hash(struct VM *vm);
  63:c_hash.h      **** 
  64:c_hash.h      **** 
  65:c_hash.h      **** 
  66:c_hash.h      **** //================================================================
  67:c_hash.h      **** /*! get size
  68:c_hash.h      **** */
  69:c_hash.h      **** static inline int mrbc_hash_size(const mrbc_value *hash) {
  70:c_hash.h      ****   return hash->hash->n_stored / 2;
  71:c_hash.h      **** }
  72:c_hash.h      **** 
  73:c_hash.h      **** //================================================================
  74:c_hash.h      **** /*! clear vm_id
  75:c_hash.h      **** */
  76:c_hash.h      **** static inline void mrbc_hash_clear_vm_id(mrbc_value *hash) {
  77:c_hash.h      ****   mrbc_array_clear_vm_id(hash);
  78:c_hash.h      **** }
  79:c_hash.h      **** 
  80:c_hash.h      **** //================================================================
  81:c_hash.h      **** /*! resize buffer
ARM GAS  C:\Users\164\AppData\Local\Temp\ccvDnxKa.s 			page 66


  82:c_hash.h      **** */
  83:c_hash.h      **** static inline int mrbc_hash_resize(mrbc_value *hash, int size)
  84:c_hash.h      **** {
  85:c_hash.h      ****   return mrbc_array_resize(hash, size * 2);
  86:c_hash.h      **** }
  87:c_hash.h      **** 
  88:c_hash.h      **** 
  89:c_hash.h      **** //================================================================
  90:c_hash.h      **** /*! iterator constructor
  91:c_hash.h      **** */
  92:c_hash.h      **** static inline mrbc_hash_iterator mrbc_hash_iterator_new( mrbc_value *v )
  93:c_hash.h      **** {
  94:c_hash.h      ****   mrbc_hash_iterator ite;
  95:c_hash.h      ****   ite.target = v->hash;
 1839              		.loc 8 95 0
 1840 01ba A268     		ldr	r2, [r4, #8]
 1841 01bc 0492     		str	r2, [sp, #16]
  96:c_hash.h      ****   ite.point = v->hash->data;
 1842              		.loc 8 96 0
 1843 01be 9368     		ldr	r3, [r2, #8]
 1844 01c0 0593     		str	r3, [sp, #20]
  97:c_hash.h      ****   ite.p_end = ite.point + v->hash->n_stored;
 1845              		.loc 8 97 0
 1846 01c2 D688     		ldrh	r6, [r2, #6]
 1847 01c4 03EB0616 		add	r6, r3, r6, lsl #4
 1848 01c8 0696     		str	r6, [sp, #24]
  98:c_hash.h      **** 
  99:c_hash.h      ****   return ite;
 1849              		.loc 8 99 0
 1850 01ca 01AB     		add	r3, sp, #4
 1851 01cc 04AA     		add	r2, sp, #16
 1852 01ce 07CA     		ldmia	r2, {r0, r1, r2}
 1853 01d0 83E80700 		stmia	r3, {r0, r1, r2}
 1854 01d4 15E0     		b	.L126
 1855              	.LVL263:
 1856              	.L127:
 1857              	.LBE227:
 1858              	.LBE226:
 1859              	.LBB228:
 1860              	.LBB229:
 1861              	.LBB230:
 100:c_hash.h      **** }
 101:c_hash.h      **** 
 102:c_hash.h      **** //================================================================
 103:c_hash.h      **** /*! iterator has_next?
 104:c_hash.h      **** */
 105:c_hash.h      **** static inline int mrbc_hash_i_has_next( mrbc_hash_iterator *ite )
 106:c_hash.h      **** {
 107:c_hash.h      ****   return ite->point < ite->p_end;
 108:c_hash.h      **** }
 109:c_hash.h      **** 
 110:c_hash.h      **** //================================================================
 111:c_hash.h      **** /*! iterator getter
 112:c_hash.h      **** */
 113:c_hash.h      **** static inline mrbc_value *mrbc_hash_i_next( mrbc_hash_iterator *ite )
 114:c_hash.h      **** {
 115:c_hash.h      ****   mrbc_value *ret = ite->point;
ARM GAS  C:\Users\164\AppData\Local\Temp\ccvDnxKa.s 			page 67


 116:c_hash.h      ****   ite->point += 2;
 1862              		.loc 8 116 0
 1863 01d6 04F12005 		add	r5, r4, #32
 1864 01da 0295     		str	r5, [sp, #8]
 1865              	.LVL264:
 1866              	.LBE230:
 1867              	.LBE229:
 108:class.c       ****       console_print("=>");
 1868              		.loc 1 108 0
 1869 01dc 2046     		mov	r0, r4
 1870 01de FFF7FEFF 		bl	mrbc_p_sub
 1871              	.LVL265:
 1872              	.LBB231:
 1873              	.LBB232:
  75:console.h     **** }
 1874              		.loc 2 75 0
 1875 01e2 0222     		movs	r2, #2
 1876 01e4 1D49     		ldr	r1, .L133+40
 1877 01e6 0120     		movs	r0, #1
 1878 01e8 FFF7FEFF 		bl	hal_write
 1879              	.LVL266:
 1880              	.LBE232:
 1881              	.LBE231:
 110:class.c       ****       if( mrbc_hash_i_has_next(&ite) ) console_print(", ");
 1882              		.loc 1 110 0
 1883 01ec 04F11000 		add	r0, r4, #16
 1884 01f0 FFF7FEFF 		bl	mrbc_p_sub
 1885              	.LVL267:
 111:class.c       ****     }
 1886              		.loc 1 111 0
 1887 01f4 AE42     		cmp	r6, r5
 1888 01f6 04D9     		bls	.L126
 1889              	.LVL268:
 1890              	.LBB233:
 1891              	.LBB234:
  75:console.h     **** }
 1892              		.loc 2 75 0
 1893 01f8 0222     		movs	r2, #2
 1894 01fa 1549     		ldr	r1, .L133+28
 1895 01fc 0120     		movs	r0, #1
 1896 01fe FFF7FEFF 		bl	hal_write
 1897              	.LVL269:
 1898              	.L126:
 1899              	.LBE234:
 1900              	.LBE233:
 1901              	.LBE228:
 1902              	.LBB235:
 1903              	.LBB236:
 107:c_hash.h      **** }
 1904              		.loc 8 107 0
 1905 0202 029C     		ldr	r4, [sp, #8]
 1906              	.LVL270:
 1907              	.LBE236:
 1908              	.LBE235:
 106:class.c       ****       mrbc_value *vk = mrbc_hash_i_next(&ite);
 1909              		.loc 1 106 0
 1910 0204 B442     		cmp	r4, r6
ARM GAS  C:\Users\164\AppData\Local\Temp\ccvDnxKa.s 			page 68


 1911 0206 E6D3     		bcc	.L127
 1912 0208 0CA9     		add	r1, sp, #48
 1913 020a 7D23     		movs	r3, #125
 1914 020c 01F8203D 		strb	r3, [r1, #-32]!
 1915              	.LVL271:
 1916              	.LBB237:
 1917              	.LBB238:
  64:console.h     **** }
 1918              		.loc 2 64 0
 1919 0210 0122     		movs	r2, #1
 1920 0212 1046     		mov	r0, r2
 1921 0214 FFF7FEFF 		bl	hal_write
 1922              	.LVL272:
 1923              	.LBE238:
 1924              	.LBE237:
 1925              	.LBE223:
  48:class.c       **** 
 1926              		.loc 1 48 0
 1927 0218 0020     		movs	r0, #0
 114:class.c       **** 
 1928              		.loc 1 114 0
 1929 021a 09E0     		b	.L108
 1930              	.LVL273:
 1931              	.L105:
 117:class.c       ****     break;
 1932              		.loc 1 117 0
 1933 021c 1048     		ldr	r0, .L133+44
 1934              	.LVL274:
 1935 021e FFF7FEFF 		bl	console_printf
 1936              	.LVL275:
  48:class.c       **** 
 1937              		.loc 1 48 0
 1938 0222 0020     		movs	r0, #0
 118:class.c       ****   }
 1939              		.loc 1 118 0
 1940 0224 04E0     		b	.L108
 1941              	.LVL276:
 1942              	.L128:
  48:class.c       **** 
 1943              		.loc 1 48 0
 1944 0226 0020     		movs	r0, #0
 1945              	.LVL277:
 1946 0228 02E0     		b	.L108
 1947              	.L129:
 1948 022a 0020     		movs	r0, #0
 1949 022c 00E0     		b	.L108
 1950              	.L130:
  91:class.c       ****     break;
 1951              		.loc 1 91 0
 1952 022e 0120     		movs	r0, #1
 1953              	.LVL278:
 1954              	.L108:
 122:class.c       **** 
 1955              		.loc 1 122 0
 1956 0230 0CB0     		add	sp, sp, #48
 1957              		.cfi_def_cfa_offset 16
 1958              		@ sp needed
ARM GAS  C:\Users\164\AppData\Local\Temp\ccvDnxKa.s 			page 69


 1959 0232 70BD     		pop	{r4, r5, r6, pc}
 1960              	.L134:
 1961              		.align	2
 1962              	.L133:
 1963 0234 74000000 		.word	.LC10
 1964 0238 04000000 		.word	.LC1
 1965 023c 0C000000 		.word	.LC2
 1966 0240 7C000000 		.word	.LC11
 1967 0244 80000000 		.word	.LC12
 1968 0248 28000000 		.word	.LC5
 1969 024c 84000000 		.word	.LC13
 1970 0250 94000000 		.word	.LC14
 1971 0254 6C000000 		.word	.LC8
 1972 0258 70000000 		.word	.LC9
 1973 025c 98000000 		.word	.LC15
 1974 0260 9C000000 		.word	.LC16
 1975              		.cfi_endproc
 1976              	.LFE95:
 1977              		.size	mrbc_print_sub, .-mrbc_print_sub
 1978              		.section	.text.c_object_print,"ax",%progbits
 1979              		.align	2
 1980              		.thumb
 1981              		.thumb_func
 1982              		.type	c_object_print, %function
 1983              	c_object_print:
 1984              	.LFB107:
 525:class.c       ****   int i;
 1985              		.loc 1 525 0
 1986              		.cfi_startproc
 1987              		@ args = 0, pretend = 0, frame = 0
 1988              		@ frame_needed = 0, uses_anonymous_args = 0
 1989              	.LVL279:
 1990 0000 70B5     		push	{r4, r5, r6, lr}
 1991              		.cfi_def_cfa_offset 16
 1992              		.cfi_offset 4, -16
 1993              		.cfi_offset 5, -12
 1994              		.cfi_offset 6, -8
 1995              		.cfi_offset 14, -4
 1996 0002 0E46     		mov	r6, r1
 1997 0004 1546     		mov	r5, r2
 1998              	.LVL280:
 527:class.c       ****     mrbc_print_sub( &v[i] );
 1999              		.loc 1 527 0
 2000 0006 0124     		movs	r4, #1
 2001 0008 04E0     		b	.L136
 2002              	.LVL281:
 2003              	.L137:
 528:class.c       ****   }
 2004              		.loc 1 528 0 discriminator 3
 2005 000a 06EB0410 		add	r0, r6, r4, lsl #4
 2006 000e FFF7FEFF 		bl	mrbc_print_sub
 2007              	.LVL282:
 527:class.c       ****     mrbc_print_sub( &v[i] );
 2008              		.loc 1 527 0 discriminator 3
 2009 0012 0134     		adds	r4, r4, #1
 2010              	.LVL283:
 2011              	.L136:
ARM GAS  C:\Users\164\AppData\Local\Temp\ccvDnxKa.s 			page 70


 527:class.c       ****     mrbc_print_sub( &v[i] );
 2012              		.loc 1 527 0 is_stmt 0 discriminator 1
 2013 0014 AC42     		cmp	r4, r5
 2014 0016 F8DD     		ble	.L137
 530:class.c       **** 
 2015              		.loc 1 530 0 is_stmt 1
 2016 0018 70BD     		pop	{r4, r5, r6, pc}
 2017              		.cfi_endproc
 2018              	.LFE107:
 2019              		.size	c_object_print, .-c_object_print
 2020 001a 00BF     		.section	.text.mrbc_p_sub,"ax",%progbits
 2021              		.align	2
 2022              		.thumb
 2023              		.thumb_func
 2024              		.type	mrbc_p_sub, %function
 2025              	mrbc_p_sub:
 2026              	.LFB97:
 152:class.c       ****   switch( v->tt ){
 2027              		.loc 1 152 0
 2028              		.cfi_startproc
 2029              		@ args = 0, pretend = 0, frame = 40
 2030              		@ frame_needed = 0, uses_anonymous_args = 0
 2031              	.LVL284:
 2032 0000 70B5     		push	{r4, r5, r6, lr}
 2033              		.cfi_def_cfa_offset 16
 2034              		.cfi_offset 4, -16
 2035              		.cfi_offset 5, -12
 2036              		.cfi_offset 6, -8
 2037              		.cfi_offset 14, -4
 2038 0002 8AB0     		sub	sp, sp, #40
 2039              		.cfi_def_cfa_offset 56
 2040 0004 0546     		mov	r5, r0
 153:class.c       ****   case MRBC_TT_NIL:
 2041              		.loc 1 153 0
 2042 0006 90F90030 		ldrsb	r3, [r0]
 2043 000a 013B     		subs	r3, r3, #1
 2044 000c 172B     		cmp	r3, #23
 2045 000e 73D8     		bhi	.L140
 2046 0010 DFE803F0 		tbb	[pc, r3]
 2047              	.L142:
 2048 0014 0C       		.byte	(.L141-.L142)/2
 2049 0015 72       		.byte	(.L140-.L142)/2
 2050 0016 72       		.byte	(.L140-.L142)/2
 2051 0017 72       		.byte	(.L140-.L142)/2
 2052 0018 72       		.byte	(.L140-.L142)/2
 2053 0019 12       		.byte	(.L143-.L142)/2
 2054 001a 72       		.byte	(.L140-.L142)/2
 2055 001b 72       		.byte	(.L140-.L142)/2
 2056 001c 72       		.byte	(.L140-.L142)/2
 2057 001d 72       		.byte	(.L140-.L142)/2
 2058 001e 72       		.byte	(.L140-.L142)/2
 2059 001f 72       		.byte	(.L140-.L142)/2
 2060 0020 72       		.byte	(.L140-.L142)/2
 2061 0021 72       		.byte	(.L140-.L142)/2
 2062 0022 72       		.byte	(.L140-.L142)/2
 2063 0023 72       		.byte	(.L140-.L142)/2
 2064 0024 72       		.byte	(.L140-.L142)/2
ARM GAS  C:\Users\164\AppData\Local\Temp\ccvDnxKa.s 			page 71


 2065 0025 72       		.byte	(.L140-.L142)/2
 2066 0026 72       		.byte	(.L140-.L142)/2
 2067 0027 72       		.byte	(.L140-.L142)/2
 2068 0028 72       		.byte	(.L140-.L142)/2
 2069 0029 72       		.byte	(.L140-.L142)/2
 2070 002a 22       		.byte	(.L144-.L142)/2
 2071 002b 4E       		.byte	(.L145-.L142)/2
 2072              		.p2align 1
 2073              	.L141:
 2074              	.LVL285:
 2075              	.LBB264:
 2076              	.LBB265:
  75:console.h     **** }
 2077              		.loc 2 75 0
 2078 002c 0322     		movs	r2, #3
 2079 002e 3549     		ldr	r1, .L156
 2080 0030 0120     		movs	r0, #1
 2081              	.LVL286:
 2082 0032 FFF7FEFF 		bl	hal_write
 2083              	.LVL287:
 2084 0036 61E0     		b	.L146
 2085              	.LVL288:
 2086              	.L143:
 2087              	.LBE265:
 2088              	.LBE264:
 2089              	.LBB266:
 2090              	.LBB267:
 2091              	.LBB268:
 2092              		.loc 4 40 0
 2093 0038 B0F90800 		ldrsh	r0, [r0, #8]
 2094              	.LVL289:
 2095 003c FFF7FEFF 		bl	symid_to_str
 2096              	.LVL290:
 2097 0040 0446     		mov	r4, r0
 2098              	.LVL291:
 2099              	.LBE268:
 2100              	.LBE267:
 160:class.c       ****     console_printf(fmt, s);
 2101              		.loc 1 160 0
 2102 0042 3A21     		movs	r1, #58
 2103 0044 FFF7FEFF 		bl	strchr
 2104              	.LVL292:
 2105 0048 08B1     		cbz	r0, .L153
 2106 004a 2F48     		ldr	r0, .L156+4
 2107 004c 00E0     		b	.L147
 2108              	.L153:
 2109 004e 2F48     		ldr	r0, .L156+8
 2110              	.L147:
 2111              	.LVL293:
 161:class.c       ****   } break;
 2112              		.loc 1 161 0 discriminator 4
 2113 0050 2146     		mov	r1, r4
 2114 0052 FFF7FEFF 		bl	console_printf
 2115              	.LVL294:
 2116              	.LBE266:
 162:class.c       **** 
 2117              		.loc 1 162 0 discriminator 4
ARM GAS  C:\Users\164\AppData\Local\Temp\ccvDnxKa.s 			page 72


 2118 0056 51E0     		b	.L146
 2119              	.LVL295:
 2120              	.L144:
 2121 0058 0AA9     		add	r1, sp, #40
 2122 005a 2223     		movs	r3, #34
 2123 005c 01F8223D 		strb	r3, [r1, #-34]!
 2124              	.LVL296:
 2125              	.LBB269:
 2126              	.LBB270:
 2127              	.LBB271:
  64:console.h     **** }
 2128              		.loc 2 64 0
 2129 0060 0122     		movs	r2, #1
 2130 0062 1046     		mov	r0, r2
 2131              	.LVL297:
 2132 0064 FFF7FEFF 		bl	hal_write
 2133              	.LVL298:
 2134              	.LBE271:
 2135              	.LBE270:
 2136              	.LBB272:
 2137              	.LBB273:
 2138              		.loc 6 80 0
 2139 0068 AB68     		ldr	r3, [r5, #8]
 2140 006a 9E68     		ldr	r6, [r3, #8]
 2141              	.LVL299:
 2142              	.LBE273:
 2143              	.LBE272:
 169:class.c       ****       if( s[i] < ' ' || 0x7f <= s[i] ) {	// tiny isprint()
 2144              		.loc 1 169 0
 2145 006c 0024     		movs	r4, #0
 2146 006e 12E0     		b	.L148
 2147              	.LVL300:
 2148              	.L151:
 170:class.c       **** 	console_printf("\\x%02X", s[i]);
 2149              		.loc 1 170 0
 2150 0070 325D     		ldrb	r2, [r6, r4]	@ zero_extendqisi2
 2151 0072 A2F12003 		sub	r3, r2, #32
 2152 0076 DBB2     		uxtb	r3, r3
 2153 0078 5E2B     		cmp	r3, #94
 2154 007a 04D9     		bls	.L149
 171:class.c       ****       } else {
 2155              		.loc 1 171 0
 2156 007c 1146     		mov	r1, r2
 2157 007e 2448     		ldr	r0, .L156+12
 2158 0080 FFF7FEFF 		bl	console_printf
 2159              	.LVL301:
 2160 0084 06E0     		b	.L150
 2161              	.L149:
 2162 0086 0AA9     		add	r1, sp, #40
 2163 0088 01F8212D 		strb	r2, [r1, #-33]!
 2164              	.LVL302:
 2165              	.LBB274:
 2166              	.LBB275:
  64:console.h     **** }
 2167              		.loc 2 64 0
 2168 008c 0122     		movs	r2, #1
 2169 008e 1046     		mov	r0, r2
ARM GAS  C:\Users\164\AppData\Local\Temp\ccvDnxKa.s 			page 73


 2170 0090 FFF7FEFF 		bl	hal_write
 2171              	.LVL303:
 2172              	.L150:
 2173              	.LBE275:
 2174              	.LBE274:
 169:class.c       ****       if( s[i] < ' ' || 0x7f <= s[i] ) {	// tiny isprint()
 2175              		.loc 1 169 0 discriminator 2
 2176 0094 0134     		adds	r4, r4, #1
 2177              	.LVL304:
 2178              	.L148:
 2179              	.LBB276:
 2180              	.LBB277:
  72:c_string.h    **** }
 2181              		.loc 6 72 0 discriminator 1
 2182 0096 AB68     		ldr	r3, [r5, #8]
 2183 0098 9B88     		ldrh	r3, [r3, #4]
 2184              	.LVL305:
 2185              	.LBE277:
 2186              	.LBE276:
 169:class.c       ****       if( s[i] < ' ' || 0x7f <= s[i] ) {	// tiny isprint()
 2187              		.loc 1 169 0 discriminator 1
 2188 009a 9C42     		cmp	r4, r3
 2189 009c E8DB     		blt	.L151
 2190 009e 0AA9     		add	r1, sp, #40
 2191 00a0 2223     		movs	r3, #34
 2192 00a2 01F8203D 		strb	r3, [r1, #-32]!
 2193              	.LVL306:
 2194              	.LBB278:
 2195              	.LBB279:
  64:console.h     **** }
 2196              		.loc 2 64 0
 2197 00a6 0122     		movs	r2, #1
 2198 00a8 1046     		mov	r0, r2
 2199 00aa FFF7FEFF 		bl	hal_write
 2200              	.LVL307:
 2201 00ae 25E0     		b	.L146
 2202              	.LVL308:
 2203              	.L145:
 2204              	.LBE279:
 2205              	.LBE278:
 2206              	.LBE269:
 2207              	.LBB280:
 2208              	.LBB281:
 2209              	.LBB282:
  50:c_range.h     **** }
 2210              		.loc 7 50 0
 2211 00b0 8368     		ldr	r3, [r0, #8]
 2212 00b2 02AC     		add	r4, sp, #8
 2213 00b4 0833     		adds	r3, r3, #8
 2214 00b6 0FCB     		ldmia	r3, {r0, r1, r2, r3}
 2215              	.LVL309:
 2216 00b8 84E80F00 		stmia	r4, {r0, r1, r2, r3}
 2217              	.LVL310:
 2218              	.LBE282:
 2219              	.LBE281:
 182:class.c       ****     console_print( mrbc_range_exclude_end(v) ? "..." : ".." );
 2220              		.loc 1 182 0
ARM GAS  C:\Users\164\AppData\Local\Temp\ccvDnxKa.s 			page 74


 2221 00bc 2046     		mov	r0, r4
 2222 00be FFF79FFF 		bl	mrbc_p_sub
 2223              	.LVL311:
 2224              	.LBB283:
 2225              	.LBB284:
 2226              		.loc 7 66 0
 2227 00c2 AB68     		ldr	r3, [r5, #8]
 2228 00c4 DB78     		ldrb	r3, [r3, #3]	@ zero_extendqisi2
 2229              	.LVL312:
 2230              	.LBE284:
 2231              	.LBE283:
 183:class.c       ****     v1 = mrbc_range_last(v);
 2232              		.loc 1 183 0
 2233 00c6 0BB1     		cbz	r3, .L154
 2234 00c8 124C     		ldr	r4, .L156+16
 2235 00ca 00E0     		b	.L152
 2236              	.L154:
 2237 00cc 124C     		ldr	r4, .L156+20
 2238              	.L152:
 2239              	.LVL313:
 2240              	.LBB285:
 2241              	.LBB286:
  75:console.h     **** }
 2242              		.loc 2 75 0 discriminator 4
 2243 00ce 2046     		mov	r0, r4
 2244 00d0 FFF7FEFF 		bl	strlen
 2245              	.LVL314:
 2246 00d4 0246     		mov	r2, r0
 2247 00d6 2146     		mov	r1, r4
 2248 00d8 0120     		movs	r0, #1
 2249 00da FFF7FEFF 		bl	hal_write
 2250              	.LVL315:
 2251              	.LBE286:
 2252              	.LBE285:
 2253              	.LBB287:
 2254              	.LBB288:
  58:c_range.h     **** }
 2255              		.loc 7 58 0 discriminator 4
 2256 00de AB68     		ldr	r3, [r5, #8]
 2257 00e0 06AC     		add	r4, sp, #24
 2258 00e2 1833     		adds	r3, r3, #24
 2259 00e4 0FCB     		ldmia	r3, {r0, r1, r2, r3}
 2260 00e6 84E80F00 		stmia	r4, {r0, r1, r2, r3}
 2261              	.LVL316:
 2262              	.LBE288:
 2263              	.LBE287:
 184:class.c       ****     mrbc_p_sub(&v1);
 2264              		.loc 1 184 0 discriminator 4
 2265 00ea 02AD     		add	r5, sp, #8
 2266              	.LVL317:
 2267 00ec 85E80F00 		stmia	r5, {r0, r1, r2, r3}
 185:class.c       ****   } break;
 2268              		.loc 1 185 0 discriminator 4
 2269 00f0 2846     		mov	r0, r5
 2270 00f2 FFF785FF 		bl	mrbc_p_sub
 2271              	.LVL318:
 2272              	.LBE280:
ARM GAS  C:\Users\164\AppData\Local\Temp\ccvDnxKa.s 			page 75


 186:class.c       **** 
 2273              		.loc 1 186 0 discriminator 4
 2274 00f6 01E0     		b	.L146
 2275              	.LVL319:
 2276              	.L140:
 189:class.c       ****     break;
 2277              		.loc 1 189 0
 2278 00f8 FFF7FEFF 		bl	mrbc_print_sub
 2279              	.LVL320:
 2280              	.L146:
 194:class.c       **** 
 2281              		.loc 1 194 0
 2282 00fc 0020     		movs	r0, #0
 2283 00fe 0AB0     		add	sp, sp, #40
 2284              		.cfi_def_cfa_offset 16
 2285              		@ sp needed
 2286 0100 70BD     		pop	{r4, r5, r6, pc}
 2287              	.L157:
 2288 0102 00BF     		.align	2
 2289              	.L156:
 2290 0104 00000000 		.word	.LC0
 2291 0108 B8000000 		.word	.LC17
 2292 010c C0000000 		.word	.LC18
 2293 0110 C4000000 		.word	.LC19
 2294 0114 6C000000 		.word	.LC8
 2295 0118 70000000 		.word	.LC9
 2296              		.cfi_endproc
 2297              	.LFE97:
 2298              		.size	mrbc_p_sub, .-mrbc_p_sub
 2299              		.section	.text.mrbc_puts_sub,"ax",%progbits
 2300              		.align	2
 2301              		.thumb
 2302              		.thumb_func
 2303              		.type	mrbc_puts_sub, %function
 2304              	mrbc_puts_sub:
 2305              	.LFB96:
 133:class.c       ****   if( v->tt == MRBC_TT_ARRAY ) {
 2306              		.loc 1 133 0
 2307              		.cfi_startproc
 2308              		@ args = 0, pretend = 0, frame = 24
 2309              		@ frame_needed = 0, uses_anonymous_args = 0
 2310              	.LVL321:
 2311 0000 30B5     		push	{r4, r5, lr}
 2312              		.cfi_def_cfa_offset 12
 2313              		.cfi_offset 4, -12
 2314              		.cfi_offset 5, -8
 2315              		.cfi_offset 14, -4
 2316 0002 87B0     		sub	sp, sp, #28
 2317              		.cfi_def_cfa_offset 40
 2318 0004 0546     		mov	r5, r0
 134:class.c       ****     int i;
 2319              		.loc 1 134 0
 2320 0006 90F90030 		ldrsb	r3, [r0]
 2321 000a 162B     		cmp	r3, #22
 2322 000c 1AD1     		bne	.L165
 2323 000e 12E0     		b	.L164
 2324              	.LVL322:
ARM GAS  C:\Users\164\AppData\Local\Temp\ccvDnxKa.s 			page 76


 2325              	.L162:
 2326              	.LBB289:
 2327              	.LBB290:
 137:class.c       ****       mrbc_value v1 = mrbc_array_get(v, i);
 2328              		.loc 1 137 0
 2329 0010 3CB1     		cbz	r4, .L161
 2330 0012 06A9     		add	r1, sp, #24
 2331 0014 0A23     		movs	r3, #10
 2332 0016 01F8113D 		strb	r3, [r1, #-17]!
 2333              	.LVL323:
 2334              	.LBB291:
 2335              	.LBB292:
  64:console.h     **** }
 2336              		.loc 2 64 0 discriminator 1
 2337 001a 0122     		movs	r2, #1
 2338 001c 1046     		mov	r0, r2
 2339 001e FFF7FEFF 		bl	hal_write
 2340              	.LVL324:
 2341              	.L161:
 2342              	.LBE292:
 2343              	.LBE291:
 138:class.c       ****       mrbc_puts_sub(&v1);
 2344              		.loc 1 138 0 discriminator 2
 2345 0022 2246     		mov	r2, r4
 2346 0024 2946     		mov	r1, r5
 2347 0026 02A8     		add	r0, sp, #8
 2348 0028 FFF7FEFF 		bl	mrbc_array_get
 2349              	.LVL325:
 139:class.c       ****     }
 2350              		.loc 1 139 0 discriminator 2
 2351 002c 02A8     		add	r0, sp, #8
 2352 002e FFF7E7FF 		bl	mrbc_puts_sub
 2353              	.LVL326:
 2354              	.LBE290:
 136:class.c       ****       if( i != 0 ) console_putchar('\n');
 2355              		.loc 1 136 0 discriminator 2
 2356 0032 0134     		adds	r4, r4, #1
 2357              	.LVL327:
 2358 0034 00E0     		b	.L159
 2359              	.LVL328:
 2360              	.L164:
 2361              	.LBE289:
 2362 0036 0024     		movs	r4, #0
 2363              	.LVL329:
 2364              	.L159:
 2365              	.LBB295:
 2366              	.LBB293:
 2367              	.LBB294:
 2368              		.loc 5 60 0 discriminator 1
 2369 0038 AB68     		ldr	r3, [r5, #8]
 2370 003a DB88     		ldrh	r3, [r3, #6]
 2371              	.LVL330:
 2372              	.LBE294:
 2373              	.LBE293:
 136:class.c       ****       if( i != 0 ) console_putchar('\n');
 2374              		.loc 1 136 0 discriminator 1
 2375 003c 9C42     		cmp	r4, r3
ARM GAS  C:\Users\164\AppData\Local\Temp\ccvDnxKa.s 			page 77


 2376 003e E7DB     		blt	.L162
 141:class.c       ****   }
 2377              		.loc 1 141 0
 2378 0040 0020     		movs	r0, #0
 2379 0042 01E0     		b	.L163
 2380              	.LVL331:
 2381              	.L165:
 2382              	.LBE295:
 144:class.c       **** }
 2383              		.loc 1 144 0
 2384 0044 FFF7FEFF 		bl	mrbc_print_sub
 2385              	.LVL332:
 2386              	.L163:
 145:class.c       **** 
 2387              		.loc 1 145 0
 2388 0048 07B0     		add	sp, sp, #28
 2389              		.cfi_def_cfa_offset 12
 2390              		@ sp needed
 2391 004a 30BD     		pop	{r4, r5, pc}
 2392              		.cfi_endproc
 2393              	.LFE96:
 2394              		.size	mrbc_puts_sub, .-mrbc_puts_sub
 2395              		.section	.text.c_object_puts,"ax",%progbits
 2396              		.align	2
 2397              		.thumb
 2398              		.thumb_func
 2399              		.type	c_object_puts, %function
 2400              	c_object_puts:
 2401              	.LFB106:
 509:class.c       ****   int i;
 2402              		.loc 1 509 0
 2403              		.cfi_startproc
 2404              		@ args = 0, pretend = 0, frame = 8
 2405              		@ frame_needed = 0, uses_anonymous_args = 0
 2406              	.LVL333:
 2407 0000 70B5     		push	{r4, r5, r6, lr}
 2408              		.cfi_def_cfa_offset 16
 2409              		.cfi_offset 4, -16
 2410              		.cfi_offset 5, -12
 2411              		.cfi_offset 6, -8
 2412              		.cfi_offset 14, -4
 2413 0002 82B0     		sub	sp, sp, #8
 2414              		.cfi_def_cfa_offset 24
 511:class.c       ****     for( i = 1; i <= argc; i++ ) {
 2415              		.loc 1 511 0
 2416 0004 7AB9     		cbnz	r2, .L173
 2417 0006 14E0     		b	.L174
 2418              	.LVL334:
 2419              	.L171:
 513:class.c       ****     }
 2420              		.loc 1 513 0
 2421 0008 06EB0410 		add	r0, r6, r4, lsl #4
 2422 000c FFF7FEFF 		bl	mrbc_puts_sub
 2423              	.LVL335:
 2424 0010 38B9     		cbnz	r0, .L170
 2425 0012 02A9     		add	r1, sp, #8
 2426 0014 0A23     		movs	r3, #10
ARM GAS  C:\Users\164\AppData\Local\Temp\ccvDnxKa.s 			page 78


 2427 0016 01F8023D 		strb	r3, [r1, #-2]!
 2428              	.LVL336:
 2429              	.LBB296:
 2430              	.LBB297:
  64:console.h     **** }
 2431              		.loc 2 64 0 discriminator 1
 2432 001a 0122     		movs	r2, #1
 2433 001c 1046     		mov	r0, r2
 2434 001e FFF7FEFF 		bl	hal_write
 2435              	.LVL337:
 2436              	.L170:
 2437              	.LBE297:
 2438              	.LBE296:
 512:class.c       ****       if( mrbc_puts_sub( &v[i] ) == 0 ) console_putchar('\n');
 2439              		.loc 1 512 0 discriminator 2
 2440 0022 0134     		adds	r4, r4, #1
 2441              	.LVL338:
 2442 0024 02E0     		b	.L168
 2443              	.LVL339:
 2444              	.L173:
 2445 0026 0E46     		mov	r6, r1
 2446 0028 1546     		mov	r5, r2
 2447 002a 0124     		movs	r4, #1
 2448              	.LVL340:
 2449              	.L168:
 512:class.c       ****       if( mrbc_puts_sub( &v[i] ) == 0 ) console_putchar('\n');
 2450              		.loc 1 512 0 is_stmt 0 discriminator 1
 2451 002c AC42     		cmp	r4, r5
 2452 002e EBDD     		ble	.L171
 2453 0030 07E0     		b	.L167
 2454              	.LVL341:
 2455              	.L174:
 2456 0032 02A9     		add	r1, sp, #8
 2457              	.LVL342:
 2458 0034 0A23     		movs	r3, #10
 2459 0036 01F8013D 		strb	r3, [r1, #-1]!
 2460              	.LVL343:
 2461              	.LBB298:
 2462              	.LBB299:
  64:console.h     **** }
 2463              		.loc 2 64 0 is_stmt 1
 2464 003a 0122     		movs	r2, #1
 2465              	.LVL344:
 2466 003c 1046     		mov	r0, r2
 2467              	.LVL345:
 2468 003e FFF7FEFF 		bl	hal_write
 2469              	.LVL346:
 2470              	.L167:
 2471              	.LBE299:
 2472              	.LBE298:
 518:class.c       **** 
 2473              		.loc 1 518 0
 2474 0042 02B0     		add	sp, sp, #8
 2475              		.cfi_def_cfa_offset 16
 2476              		@ sp needed
 2477 0044 70BD     		pop	{r4, r5, r6, pc}
 2478              		.cfi_endproc
ARM GAS  C:\Users\164\AppData\Local\Temp\ccvDnxKa.s 			page 79


 2479              	.LFE106:
 2480              		.size	c_object_puts, .-c_object_puts
 2481 0046 00BF     		.section	.text.find_method,"ax",%progbits
 2482              		.align	2
 2483              		.global	find_method
 2484              		.thumb
 2485              		.thumb_func
 2486              		.type	find_method, %function
 2487              	find_method:
 2488              	.LFB99:
 245:class.c       ****   mrbc_class *cls = find_class_by_object(vm, recv);
 2489              		.loc 1 245 0
 2490              		.cfi_startproc
 2491              		@ args = 0, pretend = 0, frame = 0
 2492              		@ frame_needed = 0, uses_anonymous_args = 0
 2493              	.LVL347:
 2494 0000 10B5     		push	{r4, lr}
 2495              		.cfi_def_cfa_offset 8
 2496              		.cfi_offset 4, -8
 2497              		.cfi_offset 14, -4
 2498 0002 1446     		mov	r4, r2
 246:class.c       **** 
 2499              		.loc 1 246 0
 2500 0004 FFF7FEFF 		bl	find_class_by_object
 2501              	.LVL348:
 248:class.c       ****     mrbc_proc *proc = cls->procs;
 2502              		.loc 1 248 0
 2503 0008 09E0     		b	.L177
 2504              	.L181:
 2505              	.LBB300:
 249:class.c       ****     while( proc != 0 ) {
 2506              		.loc 1 249 0
 2507 000a 8368     		ldr	r3, [r0, #8]
 2508              	.LVL349:
 250:class.c       ****       if( proc->sym_id == sym_id ) {
 2509              		.loc 1 250 0
 2510 000c 04E0     		b	.L178
 2511              	.L180:
 251:class.c       ****         return proc;
 2512              		.loc 1 251 0
 2513 000e B3F90420 		ldrsh	r2, [r3, #4]
 2514 0012 A242     		cmp	r2, r4
 2515 0014 06D0     		beq	.L182
 254:class.c       ****     }
 2516              		.loc 1 254 0
 2517 0016 9B68     		ldr	r3, [r3, #8]
 2518              	.LVL350:
 2519              	.L178:
 250:class.c       ****       if( proc->sym_id == sym_id ) {
 2520              		.loc 1 250 0
 2521 0018 002B     		cmp	r3, #0
 2522 001a F8D1     		bne	.L180
 256:class.c       ****   }
 2523              		.loc 1 256 0
 2524 001c 4068     		ldr	r0, [r0, #4]
 2525              	.LVL351:
 2526              	.L177:
ARM GAS  C:\Users\164\AppData\Local\Temp\ccvDnxKa.s 			page 80


 2527              	.LBE300:
 248:class.c       ****     mrbc_proc *proc = cls->procs;
 2528              		.loc 1 248 0
 2529 001e 0028     		cmp	r0, #0
 2530 0020 F3D1     		bne	.L181
 2531 0022 10BD     		pop	{r4, pc}
 2532              	.LVL352:
 2533              	.L182:
 2534              	.LBB301:
 252:class.c       ****       }
 2535              		.loc 1 252 0
 2536 0024 1846     		mov	r0, r3
 2537              	.LVL353:
 2538              	.LBE301:
 259:class.c       **** 
 2539              		.loc 1 259 0
 2540 0026 10BD     		pop	{r4, pc}
 2541              		.cfi_endproc
 2542              	.LFE99:
 2543              		.size	find_method, .-find_method
 2544              		.section	.text.mrbc_define_class,"ax",%progbits
 2545              		.align	2
 2546              		.global	mrbc_define_class
 2547              		.thumb
 2548              		.thumb_func
 2549              		.type	mrbc_define_class, %function
 2550              	mrbc_define_class:
 2551              	.LFB100:
 272:class.c       ****   if( super == NULL ) super = mrbc_class_object;  // set default to Object.
 2552              		.loc 1 272 0
 2553              		.cfi_startproc
 2554              		@ args = 0, pretend = 0, frame = 32
 2555              		@ frame_needed = 0, uses_anonymous_args = 0
 2556              	.LVL354:
 2557 0000 70B5     		push	{r4, r5, r6, lr}
 2558              		.cfi_def_cfa_offset 16
 2559              		.cfi_offset 4, -16
 2560              		.cfi_offset 5, -12
 2561              		.cfi_offset 6, -8
 2562              		.cfi_offset 14, -4
 2563 0002 88B0     		sub	sp, sp, #32
 2564              		.cfi_def_cfa_offset 48
 273:class.c       **** 
 2565              		.loc 1 273 0
 2566 0004 1646     		mov	r6, r2
 2567 0006 0AB9     		cbnz	r2, .L185
 273:class.c       **** 
 2568              		.loc 1 273 0 is_stmt 0 discriminator 1
 2569 0008 184B     		ldr	r3, .L191
 2570 000a 1E68     		ldr	r6, [r3]
 2571              	.LVL355:
 2572              	.L185:
 275:class.c       ****   mrbc_object obj = const_object_get(sym_id);
 2573              		.loc 1 275 0 is_stmt 1
 2574 000c 0846     		mov	r0, r1
 2575              	.LVL356:
 2576 000e FFF7FEFF 		bl	str_to_symid
ARM GAS  C:\Users\164\AppData\Local\Temp\ccvDnxKa.s 			page 81


 2577              	.LVL357:
 2578 0012 0546     		mov	r5, r0
 2579              	.LVL358:
 276:class.c       **** 
 2580              		.loc 1 276 0
 2581 0014 0146     		mov	r1, r0
 2582 0016 04A8     		add	r0, sp, #16
 2583              	.LVL359:
 2584 0018 FFF7FEFF 		bl	const_object_get
 2585              	.LVL360:
 279:class.c       ****     mrbc_class *cls = mrbc_alloc( 0, sizeof(mrbc_class) );
 2586              		.loc 1 279 0
 2587 001c 9DF91030 		ldrsb	r3, [sp, #16]
 2588 0020 012B     		cmp	r3, #1
 2589 0022 16D1     		bne	.L186
 2590              	.LBB302:
 280:class.c       ****     if( !cls ) return cls;	// ENOMEM
 2591              		.loc 1 280 0
 2592 0024 0C21     		movs	r1, #12
 2593 0026 0020     		movs	r0, #0
 2594 0028 FFF7FEFF 		bl	mrbc_alloc
 2595              	.LVL361:
 281:class.c       **** 
 2596              		.loc 1 281 0
 2597 002c 0446     		mov	r4, r0
 2598 002e 70B1     		cbz	r0, .L187
 283:class.c       **** #ifdef MRBC_DEBUG
 2599              		.loc 1 283 0
 2600 0030 0580     		strh	r5, [r0]	@ movhi
 287:class.c       ****     cls->procs = 0;
 2601              		.loc 1 287 0
 2602 0032 4660     		str	r6, [r0, #4]
 288:class.c       **** 
 2603              		.loc 1 288 0
 2604 0034 0023     		movs	r3, #0
 2605 0036 8360     		str	r3, [r0, #8]
 291:class.c       ****     v.cls = cls;
 2606              		.loc 1 291 0
 2607 0038 0093     		str	r3, [sp]
 2608 003a 0193     		str	r3, [sp, #4]
 2609 003c 0393     		str	r3, [sp, #12]
 2610 003e 0723     		movs	r3, #7
 2611 0040 8DF80030 		strb	r3, [sp]
 292:class.c       ****     const_object_add(sym_id, &v);
 2612              		.loc 1 292 0
 2613 0044 0290     		str	r0, [sp, #8]
 293:class.c       **** 
 2614              		.loc 1 293 0
 2615 0046 6946     		mov	r1, sp
 2616 0048 2846     		mov	r0, r5
 2617              	.LVL362:
 2618 004a FFF7FEFF 		bl	const_object_add
 2619              	.LVL363:
 2620              	.L187:
 2621 004e 2046     		mov	r0, r4
 2622 0050 0AE0     		b	.L188
 2623              	.LVL364:
ARM GAS  C:\Users\164\AppData\Local\Temp\ccvDnxKa.s 			page 82


 2624              	.L186:
 2625              	.LBE302:
 299:class.c       ****     return obj.cls;
 2626              		.loc 1 299 0
 2627 0052 072B     		cmp	r3, #7
 2628 0054 01D1     		bne	.L189
 300:class.c       ****   }
 2629              		.loc 1 300 0
 2630 0056 0698     		ldr	r0, [sp, #24]
 2631 0058 06E0     		b	.L188
 2632              	.L189:
 305:class.c       **** }
 2633              		.loc 1 305 0
 2634 005a 054B     		ldr	r3, .L191+4
 2635 005c 054A     		ldr	r2, .L191+8
 2636 005e 40F23111 		movw	r1, #305
 2637 0062 0548     		ldr	r0, .L191+12
 2638 0064 FFF7FEFF 		bl	__assert_func
 2639              	.LVL365:
 2640              	.L188:
 306:class.c       **** 
 2641              		.loc 1 306 0 discriminator 1
 2642 0068 08B0     		add	sp, sp, #32
 2643              		.cfi_def_cfa_offset 16
 2644              		@ sp needed
 2645 006a 70BD     		pop	{r4, r5, r6, pc}
 2646              	.LVL366:
 2647              	.L192:
 2648              		.align	2
 2649              	.L191:
 2650 006c 00000000 		.word	mrbc_class_object
 2651 0070 CC000000 		.word	.LC20
 2652 0074 00000000 		.word	.LANCHOR0
 2653 0078 DC000000 		.word	.LC21
 2654              		.cfi_endproc
 2655              	.LFE100:
 2656              		.size	mrbc_define_class, .-mrbc_define_class
 2657              		.section	.text.mrbc_get_class_by_name,"ax",%progbits
 2658              		.align	2
 2659              		.global	mrbc_get_class_by_name
 2660              		.thumb
 2661              		.thumb_func
 2662              		.type	mrbc_get_class_by_name, %function
 2663              	mrbc_get_class_by_name:
 2664              	.LFB101:
 317:class.c       ****   mrbc_sym sym_id = str_to_symid(name);
 2665              		.loc 1 317 0
 2666              		.cfi_startproc
 2667              		@ args = 0, pretend = 0, frame = 16
 2668              		@ frame_needed = 0, uses_anonymous_args = 0
 2669              	.LVL367:
 2670 0000 00B5     		push	{lr}
 2671              		.cfi_def_cfa_offset 4
 2672              		.cfi_offset 14, -4
 2673 0002 85B0     		sub	sp, sp, #20
 2674              		.cfi_def_cfa_offset 24
 318:class.c       ****   mrbc_object obj = const_object_get(sym_id);
ARM GAS  C:\Users\164\AppData\Local\Temp\ccvDnxKa.s 			page 83


 2675              		.loc 1 318 0
 2676 0004 FFF7FEFF 		bl	str_to_symid
 2677              	.LVL368:
 319:class.c       **** 
 2678              		.loc 1 319 0
 2679 0008 0146     		mov	r1, r0
 2680 000a 6846     		mov	r0, sp
 2681              	.LVL369:
 2682 000c FFF7FEFF 		bl	const_object_get
 2683              	.LVL370:
 321:class.c       **** }
 2684              		.loc 1 321 0
 2685 0010 9DF90030 		ldrsb	r3, [sp]
 2686 0014 072B     		cmp	r3, #7
 2687 0016 01D1     		bne	.L195
 321:class.c       **** }
 2688              		.loc 1 321 0 is_stmt 0 discriminator 1
 2689 0018 0298     		ldr	r0, [sp, #8]
 2690 001a 00E0     		b	.L194
 2691              	.L195:
 321:class.c       **** }
 2692              		.loc 1 321 0
 2693 001c 0020     		movs	r0, #0
 2694              	.L194:
 322:class.c       **** 
 2695              		.loc 1 322 0 is_stmt 1 discriminator 4
 2696 001e 05B0     		add	sp, sp, #20
 2697              		.cfi_def_cfa_offset 4
 2698              		@ sp needed
 2699 0020 5DF804FB 		ldr	pc, [sp], #4
 2700              		.cfi_endproc
 2701              	.LFE101:
 2702              		.size	mrbc_get_class_by_name, .-mrbc_get_class_by_name
 2703              		.section	.text.mrbc_define_method,"ax",%progbits
 2704              		.align	2
 2705              		.global	mrbc_define_method
 2706              		.thumb
 2707              		.thumb_func
 2708              		.type	mrbc_define_method, %function
 2709              	mrbc_define_method:
 2710              	.LFB102:
 335:class.c       ****   if( cls == NULL ) cls = mrbc_class_object;	// set default to Object.
 2711              		.loc 1 335 0
 2712              		.cfi_startproc
 2713              		@ args = 0, pretend = 0, frame = 0
 2714              		@ frame_needed = 0, uses_anonymous_args = 0
 2715              	.LVL371:
 2716 0000 38B5     		push	{r3, r4, r5, lr}
 2717              		.cfi_def_cfa_offset 16
 2718              		.cfi_offset 3, -16
 2719              		.cfi_offset 4, -12
 2720              		.cfi_offset 5, -8
 2721              		.cfi_offset 14, -4
 2722 0002 1D46     		mov	r5, r3
 336:class.c       **** 
 2723              		.loc 1 336 0
 2724 0004 0C46     		mov	r4, r1
ARM GAS  C:\Users\164\AppData\Local\Temp\ccvDnxKa.s 			page 84


 2725 0006 09B9     		cbnz	r1, .L198
 336:class.c       **** 
 2726              		.loc 1 336 0 is_stmt 0 discriminator 1
 2727 0008 064B     		ldr	r3, .L200
 2728              	.LVL372:
 2729 000a 1C68     		ldr	r4, [r3]
 2730              	.LVL373:
 2731              	.L198:
 338:class.c       ****   rproc->c_func = 1;  // c-func
 2732              		.loc 1 338 0 is_stmt 1
 2733 000c 1146     		mov	r1, r2
 2734 000e FFF7FEFF 		bl	mrbc_rproc_alloc
 2735              	.LVL374:
 339:class.c       ****   rproc->next = cls->procs;
 2736              		.loc 1 339 0
 2737 0012 C378     		ldrb	r3, [r0, #3]	@ zero_extendqisi2
 2738 0014 43F00103 		orr	r3, r3, #1
 2739 0018 C370     		strb	r3, [r0, #3]
 340:class.c       ****   cls->procs = rproc;
 2740              		.loc 1 340 0
 2741 001a A368     		ldr	r3, [r4, #8]
 2742 001c 8360     		str	r3, [r0, #8]
 341:class.c       ****   rproc->func = cfunc;
 2743              		.loc 1 341 0
 2744 001e A060     		str	r0, [r4, #8]
 342:class.c       **** }
 2745              		.loc 1 342 0
 2746 0020 C560     		str	r5, [r0, #12]
 2747 0022 38BD     		pop	{r3, r4, r5, pc}
 2748              	.LVL375:
 2749              	.L201:
 2750              		.align	2
 2751              	.L200:
 2752 0024 00000000 		.word	mrbc_class_object
 2753              		.cfi_endproc
 2754              	.LFE102:
 2755              		.size	mrbc_define_method, .-mrbc_define_method
 2756              		.section	.text.mrbc_init_class_object,"ax",%progbits
 2757              		.align	2
 2758              		.thumb
 2759              		.thumb_func
 2760              		.type	mrbc_init_class_object, %function
 2761              	mrbc_init_class_object:
 2762              	.LFB120:
 793:class.c       ****   // Class
 2763              		.loc 1 793 0
 2764              		.cfi_startproc
 2765              		@ args = 0, pretend = 0, frame = 0
 2766              		@ frame_needed = 0, uses_anonymous_args = 0
 2767              	.LVL376:
 2768 0000 70B5     		push	{r4, r5, r6, lr}
 2769              		.cfi_def_cfa_offset 16
 2770              		.cfi_offset 4, -16
 2771              		.cfi_offset 5, -12
 2772              		.cfi_offset 6, -8
 2773              		.cfi_offset 14, -4
 2774 0002 0446     		mov	r4, r0
ARM GAS  C:\Users\164\AppData\Local\Temp\ccvDnxKa.s 			page 85


 795:class.c       ****   // Methods
 2775              		.loc 1 795 0
 2776 0004 0022     		movs	r2, #0
 2777 0006 3449     		ldr	r1, .L204
 2778 0008 FFF7FEFF 		bl	mrbc_define_class
 2779              	.LVL377:
 2780 000c 0146     		mov	r1, r0
 2781 000e 334D     		ldr	r5, .L204+4
 2782 0010 2860     		str	r0, [r5]
 797:class.c       ****   mrbc_define_method(vm, mrbc_class_object, "alias_method", c_object_alias_method);
 2783              		.loc 1 797 0
 2784 0012 334B     		ldr	r3, .L204+8
 2785 0014 334A     		ldr	r2, .L204+12
 2786 0016 2046     		mov	r0, r4
 2787 0018 FFF7FEFF 		bl	mrbc_define_method
 2788              	.LVL378:
 798:class.c       ****   mrbc_define_method(vm, mrbc_class_object, "puts", c_object_puts);
 2789              		.loc 1 798 0
 2790 001c 324B     		ldr	r3, .L204+16
 2791 001e 334A     		ldr	r2, .L204+20
 2792 0020 2968     		ldr	r1, [r5]
 2793 0022 2046     		mov	r0, r4
 2794 0024 FFF7FEFF 		bl	mrbc_define_method
 2795              	.LVL379:
 799:class.c       ****   mrbc_define_method(vm, mrbc_class_object, "print", c_object_print);
 2796              		.loc 1 799 0
 2797 0028 314B     		ldr	r3, .L204+24
 2798 002a 324A     		ldr	r2, .L204+28
 2799 002c 2968     		ldr	r1, [r5]
 2800 002e 2046     		mov	r0, r4
 2801 0030 FFF7FEFF 		bl	mrbc_define_method
 2802              	.LVL380:
 800:class.c       ****   mrbc_define_method(vm, mrbc_class_object, "!", c_object_not);
 2803              		.loc 1 800 0
 2804 0034 304B     		ldr	r3, .L204+32
 2805 0036 314A     		ldr	r2, .L204+36
 2806 0038 2968     		ldr	r1, [r5]
 2807 003a 2046     		mov	r0, r4
 2808 003c FFF7FEFF 		bl	mrbc_define_method
 2809              	.LVL381:
 801:class.c       ****   mrbc_define_method(vm, mrbc_class_object, "!=", c_object_neq);
 2810              		.loc 1 801 0
 2811 0040 2F4B     		ldr	r3, .L204+40
 2812 0042 304A     		ldr	r2, .L204+44
 2813 0044 2968     		ldr	r1, [r5]
 2814 0046 2046     		mov	r0, r4
 2815 0048 FFF7FEFF 		bl	mrbc_define_method
 2816              	.LVL382:
 802:class.c       ****   mrbc_define_method(vm, mrbc_class_object, "<=>", c_object_compare);
 2817              		.loc 1 802 0
 2818 004c 2E4B     		ldr	r3, .L204+48
 2819 004e 2F4A     		ldr	r2, .L204+52
 2820 0050 2968     		ldr	r1, [r5]
 2821 0052 2046     		mov	r0, r4
 2822 0054 FFF7FEFF 		bl	mrbc_define_method
 2823              	.LVL383:
 803:class.c       ****   mrbc_define_method(vm, mrbc_class_object, "===", c_object_equal3);
ARM GAS  C:\Users\164\AppData\Local\Temp\ccvDnxKa.s 			page 86


 2824              		.loc 1 803 0
 2825 0058 2D4B     		ldr	r3, .L204+56
 2826 005a 2E4A     		ldr	r2, .L204+60
 2827 005c 2968     		ldr	r1, [r5]
 2828 005e 2046     		mov	r0, r4
 2829 0060 FFF7FEFF 		bl	mrbc_define_method
 2830              	.LVL384:
 804:class.c       ****   mrbc_define_method(vm, mrbc_class_object, "class", c_object_class);
 2831              		.loc 1 804 0
 2832 0064 2C4B     		ldr	r3, .L204+64
 2833 0066 2D4A     		ldr	r2, .L204+68
 2834 0068 2968     		ldr	r1, [r5]
 2835 006a 2046     		mov	r0, r4
 2836 006c FFF7FEFF 		bl	mrbc_define_method
 2837              	.LVL385:
 805:class.c       ****   mrbc_define_method(vm, mrbc_class_object, "new", c_object_new);
 2838              		.loc 1 805 0
 2839 0070 2B4B     		ldr	r3, .L204+72
 2840 0072 2C4A     		ldr	r2, .L204+76
 2841 0074 2968     		ldr	r1, [r5]
 2842 0076 2046     		mov	r0, r4
 2843 0078 FFF7FEFF 		bl	mrbc_define_method
 2844              	.LVL386:
 806:class.c       ****   mrbc_define_method(vm, mrbc_class_object, "attr_reader", c_object_attr_reader);
 2845              		.loc 1 806 0
 2846 007c 2A4B     		ldr	r3, .L204+80
 2847 007e 2B4A     		ldr	r2, .L204+84
 2848 0080 2968     		ldr	r1, [r5]
 2849 0082 2046     		mov	r0, r4
 2850 0084 FFF7FEFF 		bl	mrbc_define_method
 2851              	.LVL387:
 807:class.c       ****   mrbc_define_method(vm, mrbc_class_object, "attr_accessor", c_object_attr_accessor);
 2852              		.loc 1 807 0
 2853 0088 294B     		ldr	r3, .L204+88
 2854 008a 2A4A     		ldr	r2, .L204+92
 2855 008c 2968     		ldr	r1, [r5]
 2856 008e 2046     		mov	r0, r4
 2857 0090 FFF7FEFF 		bl	mrbc_define_method
 2858              	.LVL388:
 808:class.c       ****   mrbc_define_method(vm, mrbc_class_object, "is_a?", c_object_kind_of);
 2859              		.loc 1 808 0
 2860 0094 284B     		ldr	r3, .L204+96
 2861 0096 294A     		ldr	r2, .L204+100
 2862 0098 2968     		ldr	r1, [r5]
 2863 009a 2046     		mov	r0, r4
 2864 009c FFF7FEFF 		bl	mrbc_define_method
 2865              	.LVL389:
 809:class.c       ****   mrbc_define_method(vm, mrbc_class_object, "kind_of?", c_object_kind_of);
 2866              		.loc 1 809 0
 2867 00a0 274E     		ldr	r6, .L204+104
 2868 00a2 3346     		mov	r3, r6
 2869 00a4 274A     		ldr	r2, .L204+108
 2870 00a6 2968     		ldr	r1, [r5]
 2871 00a8 2046     		mov	r0, r4
 2872 00aa FFF7FEFF 		bl	mrbc_define_method
 2873              	.LVL390:
 810:class.c       **** 
ARM GAS  C:\Users\164\AppData\Local\Temp\ccvDnxKa.s 			page 87


 2874              		.loc 1 810 0
 2875 00ae 3346     		mov	r3, r6
 2876 00b0 254A     		ldr	r2, .L204+112
 2877 00b2 2968     		ldr	r1, [r5]
 2878 00b4 2046     		mov	r0, r4
 2879 00b6 FFF7FEFF 		bl	mrbc_define_method
 2880              	.LVL391:
 814:class.c       ****   mrbc_define_method(vm, mrbc_class_object, "to_s", c_object_to_s);
 2881              		.loc 1 814 0
 2882 00ba 244E     		ldr	r6, .L204+116
 2883 00bc 3346     		mov	r3, r6
 2884 00be 244A     		ldr	r2, .L204+120
 2885 00c0 2968     		ldr	r1, [r5]
 2886 00c2 2046     		mov	r0, r4
 2887 00c4 FFF7FEFF 		bl	mrbc_define_method
 2888              	.LVL392:
 815:class.c       **** #endif
 2889              		.loc 1 815 0
 2890 00c8 3346     		mov	r3, r6
 2891 00ca 224A     		ldr	r2, .L204+124
 2892 00cc 2968     		ldr	r1, [r5]
 2893 00ce 2046     		mov	r0, r4
 2894 00d0 FFF7FEFF 		bl	mrbc_define_method
 2895              	.LVL393:
 2896 00d4 70BD     		pop	{r4, r5, r6, pc}
 2897              	.LVL394:
 2898              	.L205:
 2899 00d6 00BF     		.align	2
 2900              	.L204:
 2901 00d8 E4000000 		.word	.LC22
 2902 00dc 00000000 		.word	mrbc_class_object
 2903 00e0 00000000 		.word	c_ineffect
 2904 00e4 EC000000 		.word	.LC23
 2905 00e8 00000000 		.word	c_object_alias_method
 2906 00ec F8000000 		.word	.LC24
 2907 00f0 00000000 		.word	c_object_puts
 2908 00f4 08010000 		.word	.LC25
 2909 00f8 00000000 		.word	c_object_print
 2910 00fc 10010000 		.word	.LC26
 2911 0100 00000000 		.word	c_object_not
 2912 0104 18010000 		.word	.LC27
 2913 0108 00000000 		.word	c_object_neq
 2914 010c 1C010000 		.word	.LC28
 2915 0110 00000000 		.word	c_object_compare
 2916 0114 20010000 		.word	.LC29
 2917 0118 00000000 		.word	c_object_equal3
 2918 011c 24010000 		.word	.LC30
 2919 0120 00000000 		.word	c_object_class
 2920 0124 28010000 		.word	.LC31
 2921 0128 00000000 		.word	c_object_new
 2922 012c 30010000 		.word	.LC32
 2923 0130 00000000 		.word	c_object_attr_reader
 2924 0134 34010000 		.word	.LC33
 2925 0138 00000000 		.word	c_object_attr_accessor
 2926 013c 40010000 		.word	.LC34
 2927 0140 00000000 		.word	c_object_kind_of
 2928 0144 50010000 		.word	.LC35
ARM GAS  C:\Users\164\AppData\Local\Temp\ccvDnxKa.s 			page 88


 2929 0148 58010000 		.word	.LC36
 2930 014c 00000000 		.word	c_object_to_s
 2931 0150 64010000 		.word	.LC37
 2932 0154 6C010000 		.word	.LC38
 2933              		.cfi_endproc
 2934              	.LFE120:
 2935              		.size	mrbc_init_class_object, .-mrbc_init_class_object
 2936              		.section	.text.c_object_attr_accessor,"ax",%progbits
 2937              		.align	2
 2938              		.thumb
 2939              		.thumb_func
 2940              		.type	c_object_attr_accessor, %function
 2941              	c_object_attr_accessor:
 2942              	.LFB117:
 689:class.c       ****   int i;
 2943              		.loc 1 689 0
 2944              		.cfi_startproc
 2945              		@ args = 0, pretend = 0, frame = 16
 2946              		@ frame_needed = 0, uses_anonymous_args = 0
 2947              	.LVL395:
 2948 0000 2DE9F043 		push	{r4, r5, r6, r7, r8, r9, lr}
 2949              		.cfi_def_cfa_offset 28
 2950              		.cfi_offset 4, -28
 2951              		.cfi_offset 5, -24
 2952              		.cfi_offset 6, -20
 2953              		.cfi_offset 7, -16
 2954              		.cfi_offset 8, -12
 2955              		.cfi_offset 9, -8
 2956              		.cfi_offset 14, -4
 2957 0004 85B0     		sub	sp, sp, #20
 2958              		.cfi_def_cfa_offset 48
 2959 0006 8046     		mov	r8, r0
 2960 0008 0D46     		mov	r5, r1
 2961 000a 1646     		mov	r6, r2
 2962              	.LVL396:
 691:class.c       ****     if( v[i].tt != MRBC_TT_SYMBOL ) continue;	// TypeError raise?
 2963              		.loc 1 691 0
 2964 000c 0124     		movs	r4, #1
 2965 000e 30E0     		b	.L207
 2966              	.LVL397:
 2967              	.L210:
 2968              	.LBB303:
 692:class.c       **** 
 2969              		.loc 1 692 0
 2970 0010 2301     		lsls	r3, r4, #4
 2971 0012 EA18     		adds	r2, r5, r3
 2972 0014 EB56     		ldrsb	r3, [r5, r3]
 2973 0016 062B     		cmp	r3, #6
 2974 0018 2AD1     		bne	.L208
 2975              	.LVL398:
 2976              	.LBB304:
 2977              	.LBB305:
 2978              		.loc 4 40 0
 2979 001a B2F90800 		ldrsh	r0, [r2, #8]
 2980 001e FFF7FEFF 		bl	symid_to_str
 2981              	.LVL399:
 2982 0022 8146     		mov	r9, r0
ARM GAS  C:\Users\164\AppData\Local\Temp\ccvDnxKa.s 			page 89


 2983              	.LVL400:
 2984              	.LBE305:
 2985              	.LBE304:
 696:class.c       **** 
 2986              		.loc 1 696 0
 2987 0024 154B     		ldr	r3, .L212
 2988 0026 0246     		mov	r2, r0
 2989 0028 A968     		ldr	r1, [r5, #8]
 2990 002a 4046     		mov	r0, r8
 2991 002c FFF7FEFF 		bl	mrbc_define_method
 2992              	.LVL401:
 699:class.c       ****     if( !namebuf ) return;
 2993              		.loc 1 699 0
 2994 0030 4846     		mov	r0, r9
 2995 0032 FFF7FEFF 		bl	strlen
 2996              	.LVL402:
 2997 0036 811C     		adds	r1, r0, #2
 2998 0038 4046     		mov	r0, r8
 2999 003a FFF7FEFF 		bl	mrbc_alloc
 3000              	.LVL403:
 700:class.c       ****     strcpy(namebuf, name);
 3001              		.loc 1 700 0
 3002 003e 0746     		mov	r7, r0
 3003 0040 C8B1     		cbz	r0, .L206
 701:class.c       ****     strcat(namebuf, "=");
 3004              		.loc 1 701 0
 3005 0042 4946     		mov	r1, r9
 3006 0044 FFF7FEFF 		bl	strcpy
 3007              	.LVL404:
 702:class.c       ****     mrbc_symbol_new(vm, namebuf);
 3008              		.loc 1 702 0
 3009 0048 3846     		mov	r0, r7
 3010 004a FFF7FEFF 		bl	strlen
 3011              	.LVL405:
 3012 004e 0C4B     		ldr	r3, .L212+4
 3013 0050 1B88     		ldrh	r3, [r3]	@ unaligned
 3014 0052 3B52     		strh	r3, [r7, r0]	@ unaligned
 703:class.c       ****     mrbc_define_method(vm, v[0].cls, namebuf, c_object_setiv);
 3015              		.loc 1 703 0
 3016 0054 3A46     		mov	r2, r7
 3017 0056 4146     		mov	r1, r8
 3018 0058 6846     		mov	r0, sp
 3019 005a FFF7FEFF 		bl	mrbc_symbol_new
 3020              	.LVL406:
 704:class.c       ****     mrbc_raw_free(namebuf);
 3021              		.loc 1 704 0
 3022 005e 094B     		ldr	r3, .L212+8
 3023 0060 3A46     		mov	r2, r7
 3024 0062 A968     		ldr	r1, [r5, #8]
 3025 0064 4046     		mov	r0, r8
 3026 0066 FFF7FEFF 		bl	mrbc_define_method
 3027              	.LVL407:
 705:class.c       ****   }
 3028              		.loc 1 705 0
 3029 006a 3846     		mov	r0, r7
 3030 006c FFF7FEFF 		bl	mrbc_raw_free
 3031              	.LVL408:
ARM GAS  C:\Users\164\AppData\Local\Temp\ccvDnxKa.s 			page 90


 3032              	.L208:
 3033              	.LBE303:
 691:class.c       ****     if( v[i].tt != MRBC_TT_SYMBOL ) continue;	// TypeError raise?
 3034              		.loc 1 691 0 discriminator 2
 3035 0070 0134     		adds	r4, r4, #1
 3036              	.LVL409:
 3037              	.L207:
 691:class.c       ****     if( v[i].tt != MRBC_TT_SYMBOL ) continue;	// TypeError raise?
 3038              		.loc 1 691 0 is_stmt 0 discriminator 1
 3039 0072 B442     		cmp	r4, r6
 3040 0074 CCDD     		ble	.L210
 3041              	.L206:
 707:class.c       **** 
 3042              		.loc 1 707 0 is_stmt 1
 3043 0076 05B0     		add	sp, sp, #20
 3044              		.cfi_def_cfa_offset 28
 3045              		@ sp needed
 3046 0078 BDE8F083 		pop	{r4, r5, r6, r7, r8, r9, pc}
 3047              	.LVL410:
 3048              	.L213:
 3049              		.align	2
 3050              	.L212:
 3051 007c 00000000 		.word	c_object_getiv
 3052 0080 74010000 		.word	.LC39
 3053 0084 00000000 		.word	c_object_setiv
 3054              		.cfi_endproc
 3055              	.LFE117:
 3056              		.size	c_object_attr_accessor, .-c_object_attr_accessor
 3057              		.section	.text.c_object_attr_reader,"ax",%progbits
 3058              		.align	2
 3059              		.thumb
 3060              		.thumb_func
 3061              		.type	c_object_attr_reader, %function
 3062              	c_object_attr_reader:
 3063              	.LFB116:
 673:class.c       ****   int i;
 3064              		.loc 1 673 0
 3065              		.cfi_startproc
 3066              		@ args = 0, pretend = 0, frame = 0
 3067              		@ frame_needed = 0, uses_anonymous_args = 0
 3068              	.LVL411:
 3069 0000 F8B5     		push	{r3, r4, r5, r6, r7, lr}
 3070              		.cfi_def_cfa_offset 24
 3071              		.cfi_offset 3, -24
 3072              		.cfi_offset 4, -20
 3073              		.cfi_offset 5, -16
 3074              		.cfi_offset 6, -12
 3075              		.cfi_offset 7, -8
 3076              		.cfi_offset 14, -4
 3077 0002 0746     		mov	r7, r0
 3078 0004 0D46     		mov	r5, r1
 3079 0006 1646     		mov	r6, r2
 3080              	.LVL412:
 675:class.c       ****     if( v[i].tt != MRBC_TT_SYMBOL ) continue;	// TypeError raise?
 3081              		.loc 1 675 0
 3082 0008 0124     		movs	r4, #1
 3083 000a 0FE0     		b	.L215
ARM GAS  C:\Users\164\AppData\Local\Temp\ccvDnxKa.s 			page 91


 3084              	.LVL413:
 3085              	.L217:
 3086              	.LBB306:
 676:class.c       **** 
 3087              		.loc 1 676 0
 3088 000c 2301     		lsls	r3, r4, #4
 3089 000e EA18     		adds	r2, r5, r3
 3090 0010 EB56     		ldrsb	r3, [r5, r3]
 3091 0012 062B     		cmp	r3, #6
 3092 0014 09D1     		bne	.L216
 3093              	.LVL414:
 3094              	.LBB307:
 3095              	.LBB308:
 3096              		.loc 4 40 0
 3097 0016 B2F90800 		ldrsh	r0, [r2, #8]
 3098 001a FFF7FEFF 		bl	symid_to_str
 3099              	.LVL415:
 3100              	.LBE308:
 3101              	.LBE307:
 680:class.c       ****   }
 3102              		.loc 1 680 0
 3103 001e 054B     		ldr	r3, .L219
 3104 0020 0246     		mov	r2, r0
 3105 0022 A968     		ldr	r1, [r5, #8]
 3106 0024 3846     		mov	r0, r7
 3107 0026 FFF7FEFF 		bl	mrbc_define_method
 3108              	.LVL416:
 3109              	.L216:
 3110              	.LBE306:
 675:class.c       ****     if( v[i].tt != MRBC_TT_SYMBOL ) continue;	// TypeError raise?
 3111              		.loc 1 675 0 discriminator 2
 3112 002a 0134     		adds	r4, r4, #1
 3113              	.LVL417:
 3114              	.L215:
 675:class.c       ****     if( v[i].tt != MRBC_TT_SYMBOL ) continue;	// TypeError raise?
 3115              		.loc 1 675 0 is_stmt 0 discriminator 1
 3116 002c B442     		cmp	r4, r6
 3117 002e EDDD     		ble	.L217
 682:class.c       **** 
 3118              		.loc 1 682 0 is_stmt 1
 3119 0030 F8BD     		pop	{r3, r4, r5, r6, r7, pc}
 3120              	.LVL418:
 3121              	.L220:
 3122 0032 00BF     		.align	2
 3123              	.L219:
 3124 0034 00000000 		.word	c_object_getiv
 3125              		.cfi_endproc
 3126              	.LFE116:
 3127              		.size	c_object_attr_reader, .-c_object_attr_reader
 3128              		.section	.text.mrbc_init_class_nil,"ax",%progbits
 3129              		.align	2
 3130              		.thumb
 3131              		.thumb_func
 3132              		.type	mrbc_init_class_nil, %function
 3133              	mrbc_init_class_nil:
 3134              	.LFB127:
 904:class.c       ****   // Class
ARM GAS  C:\Users\164\AppData\Local\Temp\ccvDnxKa.s 			page 92


 3135              		.loc 1 904 0
 3136              		.cfi_startproc
 3137              		@ args = 0, pretend = 0, frame = 0
 3138              		@ frame_needed = 0, uses_anonymous_args = 0
 3139              	.LVL419:
 3140 0000 38B5     		push	{r3, r4, r5, lr}
 3141              		.cfi_def_cfa_offset 16
 3142              		.cfi_offset 3, -16
 3143              		.cfi_offset 4, -12
 3144              		.cfi_offset 5, -8
 3145              		.cfi_offset 14, -4
 3146 0002 0446     		mov	r4, r0
 906:class.c       ****   // Methods
 3147              		.loc 1 906 0
 3148 0004 0C4B     		ldr	r3, .L223
 3149 0006 1A68     		ldr	r2, [r3]
 3150 0008 0C49     		ldr	r1, .L223+4
 3151 000a FFF7FEFF 		bl	mrbc_define_class
 3152              	.LVL420:
 3153 000e 0146     		mov	r1, r0
 3154 0010 0B4D     		ldr	r5, .L223+8
 3155 0012 2860     		str	r0, [r5]
 908:class.c       **** #if MRBC_USE_STRING
 3156              		.loc 1 908 0
 3157 0014 0B4B     		ldr	r3, .L223+12
 3158 0016 0C4A     		ldr	r2, .L223+16
 3159 0018 2046     		mov	r0, r4
 3160 001a FFF7FEFF 		bl	mrbc_define_method
 3161              	.LVL421:
 910:class.c       ****   mrbc_define_method(vm, mrbc_class_nil, "to_s", c_nil_to_s);
 3162              		.loc 1 910 0
 3163 001e 0B4B     		ldr	r3, .L223+20
 3164 0020 0B4A     		ldr	r2, .L223+24
 3165 0022 2968     		ldr	r1, [r5]
 3166 0024 2046     		mov	r0, r4
 3167 0026 FFF7FEFF 		bl	mrbc_define_method
 3168              	.LVL422:
 911:class.c       **** #endif
 3169              		.loc 1 911 0
 3170 002a 0A4B     		ldr	r3, .L223+28
 3171 002c 0A4A     		ldr	r2, .L223+32
 3172 002e 2968     		ldr	r1, [r5]
 3173 0030 2046     		mov	r0, r4
 3174 0032 FFF7FEFF 		bl	mrbc_define_method
 3175              	.LVL423:
 3176 0036 38BD     		pop	{r3, r4, r5, pc}
 3177              	.LVL424:
 3178              	.L224:
 3179              		.align	2
 3180              	.L223:
 3181 0038 00000000 		.word	mrbc_class_object
 3182 003c 78010000 		.word	.LC40
 3183 0040 00000000 		.word	mrbc_class_nil
 3184 0044 00000000 		.word	c_nil_false_not
 3185 0048 18010000 		.word	.LC27
 3186 004c 00000000 		.word	c_nil_inspect
 3187 0050 64010000 		.word	.LC37
ARM GAS  C:\Users\164\AppData\Local\Temp\ccvDnxKa.s 			page 93


 3188 0054 00000000 		.word	c_nil_to_s
 3189 0058 6C010000 		.word	.LC38
 3190              		.cfi_endproc
 3191              	.LFE127:
 3192              		.size	mrbc_init_class_nil, .-mrbc_init_class_nil
 3193              		.section	.text.mrbc_init_class_proc,"ax",%progbits
 3194              		.align	2
 3195              		.thumb
 3196              		.thumb_func
 3197              		.type	mrbc_init_class_proc, %function
 3198              	mrbc_init_class_proc:
 3199              	.LFB123:
 857:class.c       ****   // Class
 3200              		.loc 1 857 0
 3201              		.cfi_startproc
 3202              		@ args = 0, pretend = 0, frame = 0
 3203              		@ frame_needed = 0, uses_anonymous_args = 0
 3204              	.LVL425:
 3205 0000 70B5     		push	{r4, r5, r6, lr}
 3206              		.cfi_def_cfa_offset 16
 3207              		.cfi_offset 4, -16
 3208              		.cfi_offset 5, -12
 3209              		.cfi_offset 6, -8
 3210              		.cfi_offset 14, -4
 3211 0002 0446     		mov	r4, r0
 859:class.c       ****   // Methods
 3212              		.loc 1 859 0
 3213 0004 0D4B     		ldr	r3, .L227
 3214 0006 1A68     		ldr	r2, [r3]
 3215 0008 0D49     		ldr	r1, .L227+4
 3216 000a FFF7FEFF 		bl	mrbc_define_class
 3217              	.LVL426:
 3218 000e 0146     		mov	r1, r0
 3219 0010 0C4D     		ldr	r5, .L227+8
 3220 0012 2860     		str	r0, [r5]
 861:class.c       **** #if MRBC_USE_STRING
 3221              		.loc 1 861 0
 3222 0014 0C4B     		ldr	r3, .L227+12
 3223 0016 0D4A     		ldr	r2, .L227+16
 3224 0018 2046     		mov	r0, r4
 3225 001a FFF7FEFF 		bl	mrbc_define_method
 3226              	.LVL427:
 863:class.c       ****   mrbc_define_method(vm, mrbc_class_proc, "to_s", c_proc_to_s);
 3227              		.loc 1 863 0
 3228 001e 0C4E     		ldr	r6, .L227+20
 3229 0020 3346     		mov	r3, r6
 3230 0022 0C4A     		ldr	r2, .L227+24
 3231 0024 2968     		ldr	r1, [r5]
 3232 0026 2046     		mov	r0, r4
 3233 0028 FFF7FEFF 		bl	mrbc_define_method
 3234              	.LVL428:
 864:class.c       **** #endif
 3235              		.loc 1 864 0
 3236 002c 3346     		mov	r3, r6
 3237 002e 0A4A     		ldr	r2, .L227+28
 3238 0030 2968     		ldr	r1, [r5]
 3239 0032 2046     		mov	r0, r4
ARM GAS  C:\Users\164\AppData\Local\Temp\ccvDnxKa.s 			page 94


 3240 0034 FFF7FEFF 		bl	mrbc_define_method
 3241              	.LVL429:
 3242 0038 70BD     		pop	{r4, r5, r6, pc}
 3243              	.LVL430:
 3244              	.L228:
 3245 003a 00BF     		.align	2
 3246              	.L227:
 3247 003c 00000000 		.word	mrbc_class_object
 3248 0040 84010000 		.word	.LC41
 3249 0044 00000000 		.word	mrbc_class_proc
 3250 0048 00000000 		.word	c_proc_call
 3251 004c 8C010000 		.word	.LC42
 3252 0050 00000000 		.word	c_proc_to_s
 3253 0054 64010000 		.word	.LC37
 3254 0058 6C010000 		.word	.LC38
 3255              		.cfi_endproc
 3256              	.LFE123:
 3257              		.size	mrbc_init_class_proc, .-mrbc_init_class_proc
 3258              		.section	.text.mrbc_init_class_false,"ax",%progbits
 3259              		.align	2
 3260              		.thumb
 3261              		.thumb_func
 3262              		.type	mrbc_init_class_false, %function
 3263              	mrbc_init_class_false:
 3264              	.LFB129:
 934:class.c       ****   // Class
 3265              		.loc 1 934 0
 3266              		.cfi_startproc
 3267              		@ args = 0, pretend = 0, frame = 0
 3268              		@ frame_needed = 0, uses_anonymous_args = 0
 3269              	.LVL431:
 3270 0000 70B5     		push	{r4, r5, r6, lr}
 3271              		.cfi_def_cfa_offset 16
 3272              		.cfi_offset 4, -16
 3273              		.cfi_offset 5, -12
 3274              		.cfi_offset 6, -8
 3275              		.cfi_offset 14, -4
 3276 0002 0446     		mov	r4, r0
 936:class.c       ****   // Methods
 3277              		.loc 1 936 0
 3278 0004 0D4B     		ldr	r3, .L231
 3279 0006 1A68     		ldr	r2, [r3]
 3280 0008 0D49     		ldr	r1, .L231+4
 3281 000a FFF7FEFF 		bl	mrbc_define_class
 3282              	.LVL432:
 3283 000e 0146     		mov	r1, r0
 3284 0010 0C4D     		ldr	r5, .L231+8
 3285 0012 2860     		str	r0, [r5]
 938:class.c       **** #if MRBC_USE_STRING
 3286              		.loc 1 938 0
 3287 0014 0C4B     		ldr	r3, .L231+12
 3288 0016 0D4A     		ldr	r2, .L231+16
 3289 0018 2046     		mov	r0, r4
 3290 001a FFF7FEFF 		bl	mrbc_define_method
 3291              	.LVL433:
 940:class.c       ****   mrbc_define_method(vm, mrbc_class_false, "to_s", c_false_to_s);
 3292              		.loc 1 940 0
ARM GAS  C:\Users\164\AppData\Local\Temp\ccvDnxKa.s 			page 95


 3293 001e 0C4E     		ldr	r6, .L231+20
 3294 0020 3346     		mov	r3, r6
 3295 0022 0C4A     		ldr	r2, .L231+24
 3296 0024 2968     		ldr	r1, [r5]
 3297 0026 2046     		mov	r0, r4
 3298 0028 FFF7FEFF 		bl	mrbc_define_method
 3299              	.LVL434:
 941:class.c       **** #endif
 3300              		.loc 1 941 0
 3301 002c 3346     		mov	r3, r6
 3302 002e 0A4A     		ldr	r2, .L231+28
 3303 0030 2968     		ldr	r1, [r5]
 3304 0032 2046     		mov	r0, r4
 3305 0034 FFF7FEFF 		bl	mrbc_define_method
 3306              	.LVL435:
 3307 0038 70BD     		pop	{r4, r5, r6, pc}
 3308              	.LVL436:
 3309              	.L232:
 3310 003a 00BF     		.align	2
 3311              	.L231:
 3312 003c 00000000 		.word	mrbc_class_object
 3313 0040 94010000 		.word	.LC43
 3314 0044 00000000 		.word	mrbc_class_false
 3315 0048 00000000 		.word	c_nil_false_not
 3316 004c 18010000 		.word	.LC27
 3317 0050 00000000 		.word	c_false_to_s
 3318 0054 64010000 		.word	.LC37
 3319 0058 6C010000 		.word	.LC38
 3320              		.cfi_endproc
 3321              	.LFE129:
 3322              		.size	mrbc_init_class_false, .-mrbc_init_class_false
 3323              		.section	.text.mrbc_init_class_true,"ax",%progbits
 3324              		.align	2
 3325              		.thumb
 3326              		.thumb_func
 3327              		.type	mrbc_init_class_true, %function
 3328              	mrbc_init_class_true:
 3329              	.LFB131:
 961:class.c       ****   // Class
 3330              		.loc 1 961 0
 3331              		.cfi_startproc
 3332              		@ args = 0, pretend = 0, frame = 0
 3333              		@ frame_needed = 0, uses_anonymous_args = 0
 3334              	.LVL437:
 3335 0000 70B5     		push	{r4, r5, r6, lr}
 3336              		.cfi_def_cfa_offset 16
 3337              		.cfi_offset 4, -16
 3338              		.cfi_offset 5, -12
 3339              		.cfi_offset 6, -8
 3340              		.cfi_offset 14, -4
 3341 0002 0446     		mov	r4, r0
 963:class.c       ****   // Methods
 3342              		.loc 1 963 0
 3343 0004 0A4B     		ldr	r3, .L235
 3344 0006 1A68     		ldr	r2, [r3]
 3345 0008 0A49     		ldr	r1, .L235+4
 3346 000a FFF7FEFF 		bl	mrbc_define_class
ARM GAS  C:\Users\164\AppData\Local\Temp\ccvDnxKa.s 			page 96


 3347              	.LVL438:
 3348 000e 0146     		mov	r1, r0
 3349 0010 094D     		ldr	r5, .L235+8
 3350 0012 2860     		str	r0, [r5]
 966:class.c       ****   mrbc_define_method(vm, mrbc_class_true, "to_s", c_true_to_s);
 3351              		.loc 1 966 0
 3352 0014 094E     		ldr	r6, .L235+12
 3353 0016 3346     		mov	r3, r6
 3354 0018 094A     		ldr	r2, .L235+16
 3355 001a 2046     		mov	r0, r4
 3356 001c FFF7FEFF 		bl	mrbc_define_method
 3357              	.LVL439:
 967:class.c       **** #endif
 3358              		.loc 1 967 0
 3359 0020 3346     		mov	r3, r6
 3360 0022 084A     		ldr	r2, .L235+20
 3361 0024 2968     		ldr	r1, [r5]
 3362 0026 2046     		mov	r0, r4
 3363 0028 FFF7FEFF 		bl	mrbc_define_method
 3364              	.LVL440:
 3365 002c 70BD     		pop	{r4, r5, r6, pc}
 3366              	.LVL441:
 3367              	.L236:
 3368 002e 00BF     		.align	2
 3369              	.L235:
 3370 0030 00000000 		.word	mrbc_class_object
 3371 0034 A0010000 		.word	.LC44
 3372 0038 00000000 		.word	mrbc_class_true
 3373 003c 00000000 		.word	c_true_to_s
 3374 0040 64010000 		.word	.LC37
 3375 0044 6C010000 		.word	.LC38
 3376              		.cfi_endproc
 3377              	.LFE131:
 3378              		.size	mrbc_init_class_true, .-mrbc_init_class_true
 3379              		.section	.text.mrbc_funcall,"ax",%progbits
 3380              		.align	2
 3381              		.global	mrbc_funcall
 3382              		.thumb
 3383              		.thumb_func
 3384              		.type	mrbc_funcall, %function
 3385              	mrbc_funcall:
 3386              	.LFB103:
 359:class.c       ****   mrbc_sym sym_id = str_to_symid(name);
 3387              		.loc 1 359 0
 3388              		.cfi_startproc
 3389              		@ args = 0, pretend = 0, frame = 0
 3390              		@ frame_needed = 0, uses_anonymous_args = 0
 3391              	.LVL442:
 3392 0000 38B5     		push	{r3, r4, r5, lr}
 3393              		.cfi_def_cfa_offset 16
 3394              		.cfi_offset 3, -16
 3395              		.cfi_offset 4, -12
 3396              		.cfi_offset 5, -8
 3397              		.cfi_offset 14, -4
 3398 0002 0446     		mov	r4, r0
 3399 0004 1546     		mov	r5, r2
 360:class.c       ****   mrbc_proc *m = find_method(vm, &v[0], sym_id);
ARM GAS  C:\Users\164\AppData\Local\Temp\ccvDnxKa.s 			page 97


 3400              		.loc 1 360 0
 3401 0006 0846     		mov	r0, r1
 3402              	.LVL443:
 3403 0008 FFF7FEFF 		bl	str_to_symid
 3404              	.LVL444:
 361:class.c       **** 
 3405              		.loc 1 361 0
 3406 000c 0246     		mov	r2, r0
 3407 000e 2946     		mov	r1, r5
 3408 0010 2046     		mov	r0, r4
 3409              	.LVL445:
 3410 0012 FFF7FEFF 		bl	find_method
 3411              	.LVL446:
 363:class.c       **** 
 3412              		.loc 1 363 0
 3413 0016 E8B1     		cbz	r0, .L237
 3414 0018 0546     		mov	r5, r0
 3415              	.LVL447:
 365:class.c       ****   callinfo->current_regs = vm->current_regs;
 3416              		.loc 1 365 0
 3417 001a 1821     		movs	r1, #24
 3418 001c 2046     		mov	r0, r4
 3419              	.LVL448:
 3420 001e FFF7FEFF 		bl	mrbc_alloc
 3421              	.LVL449:
 366:class.c       ****   callinfo->pc_irep = vm->pc_irep;
 3422              		.loc 1 366 0
 3423 0022 D4F85836 		ldr	r3, [r4, #1624]
 3424 0026 C360     		str	r3, [r0, #12]
 367:class.c       ****   callinfo->pc = vm->pc;
 3425              		.loc 1 367 0
 3426 0028 E368     		ldr	r3, [r4, #12]
 3427 002a 4360     		str	r3, [r0, #4]
 368:class.c       ****   callinfo->n_args = 0;
 3428              		.loc 1 368 0
 3429 002c 238A     		ldrh	r3, [r4, #16]
 3430 002e 0381     		strh	r3, [r0, #8]	@ movhi
 369:class.c       ****   callinfo->target_class = vm->target_class;
 3431              		.loc 1 369 0
 3432 0030 0023     		movs	r3, #0
 3433 0032 0375     		strb	r3, [r0, #20]
 370:class.c       ****   callinfo->prev = vm->callinfo_tail;
 3434              		.loc 1 370 0
 3435 0034 D4F86026 		ldr	r2, [r4, #1632]
 3436 0038 0261     		str	r2, [r0, #16]
 371:class.c       ****   vm->callinfo_tail = callinfo;
 3437              		.loc 1 371 0
 3438 003a D4F85C26 		ldr	r2, [r4, #1628]
 3439 003e 0260     		str	r2, [r0]
 372:class.c       **** 
 3440              		.loc 1 372 0
 3441 0040 C4F85C06 		str	r0, [r4, #1628]
 375:class.c       ****   vm->pc_irep = m->irep;
 3442              		.loc 1 375 0
 3443 0044 2382     		strh	r3, [r4, #16]	@ movhi
 376:class.c       **** 
 3444              		.loc 1 376 0
ARM GAS  C:\Users\164\AppData\Local\Temp\ccvDnxKa.s 			page 98


 3445 0046 EB68     		ldr	r3, [r5, #12]
 3446 0048 E360     		str	r3, [r4, #12]
 379:class.c       **** 
 3447              		.loc 1 379 0
 3448 004a D4F85836 		ldr	r3, [r4, #1624]
 3449 004e 2033     		adds	r3, r3, #32
 3450 0050 C4F85836 		str	r3, [r4, #1624]
 3451              	.LVL450:
 3452              	.L237:
 3453 0054 38BD     		pop	{r3, r4, r5, pc}
 3454              		.cfi_endproc
 3455              	.LFE103:
 3456              		.size	mrbc_funcall, .-mrbc_funcall
 3457 0056 00BF     		.section	.text.mrbc_send,"ax",%progbits
 3458              		.align	2
 3459              		.global	mrbc_send
 3460              		.thumb
 3461              		.thumb_func
 3462              		.type	mrbc_send, %function
 3463              	mrbc_send:
 3464              	.LFB104:
 407:class.c       ****   mrbc_sym sym_id = str_to_symid(method);
 3465              		.loc 1 407 0
 3466              		.cfi_startproc
 3467              		@ args = 12, pretend = 0, frame = 24
 3468              		@ frame_needed = 0, uses_anonymous_args = 1
 3469              	.LVL451:
 3470 0000 2DE9F04F 		push	{r4, r5, r6, r7, r8, r9, r10, fp, lr}
 3471              		.cfi_def_cfa_offset 36
 3472              		.cfi_offset 4, -36
 3473              		.cfi_offset 5, -32
 3474              		.cfi_offset 6, -28
 3475              		.cfi_offset 7, -24
 3476              		.cfi_offset 8, -20
 3477              		.cfi_offset 9, -16
 3478              		.cfi_offset 10, -12
 3479              		.cfi_offset 11, -8
 3480              		.cfi_offset 14, -4
 3481 0004 87B0     		sub	sp, sp, #28
 3482              		.cfi_def_cfa_offset 64
 3483 0006 8046     		mov	r8, r0
 3484 0008 8946     		mov	r9, r1
 3485 000a 1646     		mov	r6, r2
 3486 000c 1C46     		mov	r4, r3
 3487 000e 129F     		ldr	r7, [sp, #72]
 408:class.c       ****   mrbc_proc *m = find_method(vm, recv, sym_id);
 3488              		.loc 1 408 0
 3489 0010 1198     		ldr	r0, [sp, #68]
 3490              	.LVL452:
 3491 0012 FFF7FEFF 		bl	str_to_symid
 3492              	.LVL453:
 409:class.c       **** 
 3493              		.loc 1 409 0
 3494 0016 0246     		mov	r2, r0
 3495 0018 1099     		ldr	r1, [sp, #64]
 3496 001a 4846     		mov	r0, r9
 3497              	.LVL454:
ARM GAS  C:\Users\164\AppData\Local\Temp\ccvDnxKa.s 			page 99


 3498 001c FFF7FEFF 		bl	find_method
 3499              	.LVL455:
 411:class.c       ****     console_printf("No method. vtype=%d method='%s'\n", recv->tt, method );
 3500              		.loc 1 411 0
 3501 0020 38B9     		cbnz	r0, .L241
 412:class.c       ****     goto ERROR;
 3502              		.loc 1 412 0
 3503 0022 119A     		ldr	r2, [sp, #68]
 3504 0024 109B     		ldr	r3, [sp, #64]
 3505 0026 93F90010 		ldrsb	r1, [r3]
 3506 002a 3248     		ldr	r0, .L250
 3507              	.LVL456:
 3508 002c FFF7FEFF 		bl	console_printf
 3509              	.LVL457:
 413:class.c       ****   }
 3510              		.loc 1 413 0
 3511 0030 4FE0     		b	.L242
 3512              	.LVL458:
 3513              	.L241:
 3514 0032 8246     		mov	r10, r0
 415:class.c       ****     console_printf("Method %s is not C function\n", method );
 3515              		.loc 1 415 0
 3516 0034 C378     		ldrb	r3, [r0, #3]	@ zero_extendqisi2
 3517 0036 13F0010F 		tst	r3, #1
 3518 003a 04D1     		bne	.L243
 416:class.c       ****     goto ERROR;
 3519              		.loc 1 416 0
 3520 003c 1199     		ldr	r1, [sp, #68]
 3521 003e 2E48     		ldr	r0, .L250+4
 3522              	.LVL459:
 3523 0040 FFF7FEFF 		bl	console_printf
 3524              	.LVL460:
 417:class.c       ****   }
 3525              		.loc 1 417 0
 3526 0044 45E0     		b	.L242
 3527              	.LVL461:
 3528              	.L243:
 421:class.c       ****   mrbc_release( &regs[0] );
 3529              		.loc 1 421 0
 3530 0046 0234     		adds	r4, r4, #2
 3531              	.LVL462:
 3532 0048 06EB0416 		add	r6, r6, r4, lsl #4
 3533              	.LVL463:
 422:class.c       ****   regs[0] = *recv;
 3534              		.loc 1 422 0
 3535 004c 3046     		mov	r0, r6
 3536              	.LVL464:
 3537 004e FFF7FEFF 		bl	mrbc_release
 3538              	.LVL465:
 423:class.c       ****   mrbc_dup(recv);
 3539              		.loc 1 423 0
 3540 0052 109B     		ldr	r3, [sp, #64]
 3541 0054 0FCB     		ldmia	r3, {r0, r1, r2, r3}
 3542 0056 86E80F00 		stmia	r6, {r0, r1, r2, r3}
 424:class.c       **** 
 3543              		.loc 1 424 0
 3544 005a 1098     		ldr	r0, [sp, #64]
ARM GAS  C:\Users\164\AppData\Local\Temp\ccvDnxKa.s 			page 100


 3545 005c FFF7FEFF 		bl	mrbc_dup
 3546              	.LVL466:
 427:class.c       ****   int i;
 3547              		.loc 1 427 0
 3548 0060 13AB     		add	r3, sp, #76
 3549 0062 0593     		str	r3, [sp, #20]
 3550              	.LVL467:
 429:class.c       ****     mrbc_release( &regs[i] );
 3551              		.loc 1 429 0
 3552 0064 0124     		movs	r4, #1
 3553              	.LVL468:
 3554 0066 0CE0     		b	.L244
 3555              	.LVL469:
 3556              	.L245:
 430:class.c       ****     regs[i] = *va_arg(ap, mrbc_value *);
 3557              		.loc 1 430 0 discriminator 3
 3558 0068 06EB0415 		add	r5, r6, r4, lsl #4
 3559 006c 2846     		mov	r0, r5
 3560 006e FFF7FEFF 		bl	mrbc_release
 3561              	.LVL470:
 431:class.c       ****   }
 3562              		.loc 1 431 0 discriminator 3
 3563 0072 059B     		ldr	r3, [sp, #20]
 3564 0074 1A1D     		adds	r2, r3, #4
 3565 0076 0592     		str	r2, [sp, #20]
 3566 0078 1968     		ldr	r1, [r3]
 3567 007a 0FC9     		ldmia	r1, {r0, r1, r2, r3}
 3568 007c 85E80F00 		stmia	r5, {r0, r1, r2, r3}
 429:class.c       ****     mrbc_release( &regs[i] );
 3569              		.loc 1 429 0 discriminator 3
 3570 0080 0134     		adds	r4, r4, #1
 3571              	.LVL471:
 3572              	.L244:
 429:class.c       ****     mrbc_release( &regs[i] );
 3573              		.loc 1 429 0 is_stmt 0 discriminator 1
 3574 0082 BC42     		cmp	r4, r7
 3575 0084 F0DD     		ble	.L245
 433:class.c       ****   regs[i] = mrbc_nil_value();
 3576              		.loc 1 433 0 is_stmt 1
 3577 0086 4FEA041B 		lsl	fp, r4, #4
 3578 008a 06EB0B05 		add	r5, r6, fp
 3579 008e 2846     		mov	r0, r5
 3580 0090 FFF7FEFF 		bl	mrbc_release
 3581              	.LVL472:
 434:class.c       ****   va_end(ap);
 3582              		.loc 1 434 0
 3583 0094 0023     		movs	r3, #0
 3584 0096 46F80B30 		str	r3, [r6, fp]
 3585 009a 6B60     		str	r3, [r5, #4]
 3586 009c AB60     		str	r3, [r5, #8]
 3587 009e EB60     		str	r3, [r5, #12]
 3588 00a0 0123     		movs	r3, #1
 3589 00a2 06F80B30 		strb	r3, [r6, fp]
 438:class.c       ****   mrbc_value ret = regs[0];
 3590              		.loc 1 438 0
 3591 00a6 DAF80C30 		ldr	r3, [r10, #12]
 3592 00aa 3A46     		mov	r2, r7
ARM GAS  C:\Users\164\AppData\Local\Temp\ccvDnxKa.s 			page 101


 3593 00ac 3146     		mov	r1, r6
 3594 00ae 4846     		mov	r0, r9
 3595 00b0 9847     		blx	r3
 3596              	.LVL473:
 439:class.c       **** 
 3597              		.loc 1 439 0
 3598 00b2 96E80F00 		ldmia	r6, {r0, r1, r2, r3}
 3599 00b6 8DE80F00 		stmia	sp, {r0, r1, r2, r3}
 441:class.c       ****     regs[i].tt = MRBC_TT_EMPTY;
 3600              		.loc 1 441 0
 3601 00ba 03E0     		b	.L246
 3602              	.L247:
 442:class.c       ****   }
 3603              		.loc 1 442 0 discriminator 2
 3604 00bc 2301     		lsls	r3, r4, #4
 3605 00be 0022     		movs	r2, #0
 3606 00c0 F254     		strb	r2, [r6, r3]
 441:class.c       ****     regs[i].tt = MRBC_TT_EMPTY;
 3607              		.loc 1 441 0 discriminator 2
 3608 00c2 013C     		subs	r4, r4, #1
 3609              	.LVL474:
 3610              	.L246:
 441:class.c       ****     regs[i].tt = MRBC_TT_EMPTY;
 3611              		.loc 1 441 0 is_stmt 0 discriminator 1
 3612 00c4 002C     		cmp	r4, #0
 3613 00c6 F9DA     		bge	.L247
 445:class.c       **** 
 3614              		.loc 1 445 0 is_stmt 1
 3615 00c8 9DE80F00 		ldmia	sp, {r0, r1, r2, r3}
 3616 00cc 88E80F00 		stmia	r8, {r0, r1, r2, r3}
 3617 00d0 0BE0     		b	.L240
 3618              	.LVL475:
 3619              	.L242:
 448:class.c       **** }
 3620              		.loc 1 448 0
 3621 00d2 0023     		movs	r3, #0
 3622 00d4 C8F80030 		str	r3, [r8]
 3623 00d8 C8F80430 		str	r3, [r8, #4]
 3624 00dc C8F80830 		str	r3, [r8, #8]
 3625 00e0 C8F80C30 		str	r3, [r8, #12]
 3626 00e4 0123     		movs	r3, #1
 3627 00e6 88F80030 		strb	r3, [r8]
 3628              	.LVL476:
 3629              	.L240:
 449:class.c       **** 
 3630              		.loc 1 449 0
 3631 00ea 4046     		mov	r0, r8
 3632 00ec 07B0     		add	sp, sp, #28
 3633              		.cfi_def_cfa_offset 36
 3634              		@ sp needed
 3635 00ee BDE8F08F 		pop	{r4, r5, r6, r7, r8, r9, r10, fp, pc}
 3636              	.LVL477:
 3637              	.L251:
 3638 00f2 00BF     		.align	2
 3639              	.L250:
 3640 00f4 AC010000 		.word	.LC45
 3641 00f8 D0010000 		.word	.LC46
ARM GAS  C:\Users\164\AppData\Local\Temp\ccvDnxKa.s 			page 102


 3642              		.cfi_endproc
 3643              	.LFE104:
 3644              		.size	mrbc_send, .-mrbc_send
 3645              		.section	.text.mrbc_init_class,"ax",%progbits
 3646              		.align	2
 3647              		.global	mrbc_init_class
 3648              		.thumb
 3649              		.thumb_func
 3650              		.type	mrbc_init_class, %function
 3651              	mrbc_init_class:
 3652              	.LFB134:
 997:class.c       **** 
 998:class.c       **** 
 999:class.c       **** 
1000:class.c       **** 
1001:class.c       **** //================================================================
1002:class.c       **** // initialize
1003:class.c       **** 
1004:class.c       **** void mrbc_init_class(void)
1005:class.c       **** {
 3653              		.loc 1 1005 0
 3654              		.cfi_startproc
 3655              		@ args = 0, pretend = 0, frame = 0
 3656              		@ frame_needed = 0, uses_anonymous_args = 0
 3657 0000 08B5     		push	{r3, lr}
 3658              		.cfi_def_cfa_offset 8
 3659              		.cfi_offset 3, -8
 3660              		.cfi_offset 14, -4
1006:class.c       ****   mrbc_init_class_object(0);
 3661              		.loc 1 1006 0
 3662 0002 0020     		movs	r0, #0
 3663 0004 FFF7FEFF 		bl	mrbc_init_class_object
 3664              	.LVL478:
1007:class.c       ****   mrbc_init_class_nil(0);
 3665              		.loc 1 1007 0
 3666 0008 0020     		movs	r0, #0
 3667 000a FFF7FEFF 		bl	mrbc_init_class_nil
 3668              	.LVL479:
1008:class.c       ****   mrbc_init_class_proc(0);
 3669              		.loc 1 1008 0
 3670 000e 0020     		movs	r0, #0
 3671 0010 FFF7FEFF 		bl	mrbc_init_class_proc
 3672              	.LVL480:
1009:class.c       ****   mrbc_init_class_false(0);
 3673              		.loc 1 1009 0
 3674 0014 0020     		movs	r0, #0
 3675 0016 FFF7FEFF 		bl	mrbc_init_class_false
 3676              	.LVL481:
1010:class.c       ****   mrbc_init_class_true(0);
 3677              		.loc 1 1010 0
 3678 001a 0020     		movs	r0, #0
 3679 001c FFF7FEFF 		bl	mrbc_init_class_true
 3680              	.LVL482:
1011:class.c       **** 
1012:class.c       ****   mrbc_init_class_fixnum(0);
 3681              		.loc 1 1012 0
 3682 0020 0020     		movs	r0, #0
ARM GAS  C:\Users\164\AppData\Local\Temp\ccvDnxKa.s 			page 103


 3683 0022 FFF7FEFF 		bl	mrbc_init_class_fixnum
 3684              	.LVL483:
1013:class.c       ****   mrbc_init_class_symbol(0);
 3685              		.loc 1 1013 0
 3686 0026 0020     		movs	r0, #0
 3687 0028 FFF7FEFF 		bl	mrbc_init_class_symbol
 3688              	.LVL484:
1014:class.c       **** #if MRBC_USE_FLOAT
1015:class.c       ****   mrbc_init_class_float(0);
 3689              		.loc 1 1015 0
 3690 002c 0020     		movs	r0, #0
 3691 002e FFF7FEFF 		bl	mrbc_init_class_float
 3692              	.LVL485:
1016:class.c       **** #if MRBC_USE_MATH
1017:class.c       ****   mrbc_init_class_math(0);
1018:class.c       **** #endif
1019:class.c       **** #endif
1020:class.c       **** #if MRBC_USE_STRING
1021:class.c       ****   mrbc_init_class_string(0);
 3693              		.loc 1 1021 0
 3694 0032 0020     		movs	r0, #0
 3695 0034 FFF7FEFF 		bl	mrbc_init_class_string
 3696              	.LVL486:
1022:class.c       **** #endif
1023:class.c       ****   mrbc_init_class_array(0);
 3697              		.loc 1 1023 0
 3698 0038 0020     		movs	r0, #0
 3699 003a FFF7FEFF 		bl	mrbc_init_class_array
 3700              	.LVL487:
1024:class.c       ****   mrbc_init_class_range(0);
 3701              		.loc 1 1024 0
 3702 003e 0020     		movs	r0, #0
 3703 0040 FFF7FEFF 		bl	mrbc_init_class_range
 3704              	.LVL488:
1025:class.c       ****   mrbc_init_class_hash(0);
 3705              		.loc 1 1025 0
 3706 0044 0020     		movs	r0, #0
 3707 0046 FFF7FEFF 		bl	mrbc_init_class_hash
 3708              	.LVL489:
1026:class.c       **** 
1027:class.c       ****   mrbc_run_mrblib();
 3709              		.loc 1 1027 0
 3710 004a FFF7FEFF 		bl	mrbc_run_mrblib
 3711              	.LVL490:
 3712 004e 08BD     		pop	{r3, pc}
 3713              		.cfi_endproc
 3714              	.LFE134:
 3715              		.size	mrbc_init_class, .-mrbc_init_class
 3716              		.section	.rodata
 3717              		.align	2
 3718              		.set	.LANCHOR0,. + 0
 3719              		.type	__func__.7379, %object
 3720              		.size	__func__.7379, 18
 3721              	__func__.7379:
 3722 0000 6D726263 		.ascii	"mrbc_define_class\000"
 3722      5F646566 
 3722      696E655F 
ARM GAS  C:\Users\164\AppData\Local\Temp\ccvDnxKa.s 			page 104


 3722      636C6173 
 3722      7300
 3723              		.section	.rodata.str1.4,"aMS",%progbits,1
 3724              		.align	2
 3725              	.LC0:
 3726 0000 6E696C00 		.ascii	"nil\000"
 3727              	.LC1:
 3728 0004 66616C73 		.ascii	"false\000"
 3728      6500
 3729 000a 0000     		.space	2
 3730              	.LC2:
 3731 000c 74727565 		.ascii	"true\000"
 3731      00
 3732 0011 000000   		.space	3
 3733              	.LC3:
 3734 0014 3C235072 		.ascii	"<#Proc:%08x>\000"
 3734      6F633A25 
 3734      3038783E 
 3734      00
 3735 0021 000000   		.space	3
 3736              	.LC4:
 3737 0024 00       		.ascii	"\000"
 3738 0025 000000   		.space	3
 3739              	.LC5:
 3740 0028 233C2573 		.ascii	"#<%s:%08x>\000"
 3740      3A253038 
 3740      783E00
 3741 0033 00       		.space	1
 3742              	.LC6:
 3743 0034 5F5F5F5F 		.ascii	"______initialize\000"
 3743      5F5F696E 
 3743      69746961 
 3743      6C697A65 
 3743      00
 3744 0045 000000   		.space	3
 3745              	.LC7:
 3746 0048 4E616D65 		.ascii	"NameError: undefined_method '%s'\012\000"
 3746      4572726F 
 3746      723A2075 
 3746      6E646566 
 3746      696E6564 
 3747 006a 0000     		.space	2
 3748              	.LC8:
 3749 006c 2E2E2E00 		.ascii	"...\000"
 3750              	.LC9:
 3751 0070 2E2E00   		.ascii	"..\000"
 3752 0073 00       		.space	1
 3753              	.LC10:
 3754 0074 28656D70 		.ascii	"(empty)\000"
 3754      74792900 
 3755              	.LC11:
 3756 007c 256400   		.ascii	"%d\000"
 3757 007f 00       		.space	1
 3758              	.LC12:
 3759 0080 256700   		.ascii	"%g\000"
 3760 0083 00       		.space	1
 3761              	.LC13:
ARM GAS  C:\Users\164\AppData\Local\Temp\ccvDnxKa.s 			page 105


 3762 0084 233C5072 		.ascii	"#<Proc:%08x>\000"
 3762      6F633A25 
 3762      3038783E 
 3762      00
 3763 0091 000000   		.space	3
 3764              	.LC14:
 3765 0094 2C2000   		.ascii	", \000"
 3766 0097 00       		.space	1
 3767              	.LC15:
 3768 0098 3D3E00   		.ascii	"=>\000"
 3769 009b 00       		.space	1
 3770              	.LC16:
 3771 009c 4E6F7420 		.ascii	"Not support MRBC_TT_XX(%d)\000"
 3771      73757070 
 3771      6F727420 
 3771      4D524243 
 3771      5F54545F 
 3772 00b7 00       		.space	1
 3773              	.LC17:
 3774 00b8 223A2573 		.ascii	"\":%s\"\000"
 3774      2200
 3775 00be 0000     		.space	2
 3776              	.LC18:
 3777 00c0 3A257300 		.ascii	":%s\000"
 3778              	.LC19:
 3779 00c4 5C782530 		.ascii	"\\x%02X\000"
 3779      325800
 3780 00cb 00       		.space	1
 3781              	.LC20:
 3782 00cc 21225479 		.ascii	"!\"TypeError\"\000"
 3782      70654572 
 3782      726F7222 
 3782      00
 3783 00d9 000000   		.space	3
 3784              	.LC21:
 3785 00dc 636C6173 		.ascii	"class.c\000"
 3785      732E6300 
 3786              	.LC22:
 3787 00e4 4F626A65 		.ascii	"Object\000"
 3787      637400
 3788 00eb 00       		.space	1
 3789              	.LC23:
 3790 00ec 696E6974 		.ascii	"initialize\000"
 3790      69616C69 
 3790      7A6500
 3791 00f7 00       		.space	1
 3792              	.LC24:
 3793 00f8 616C6961 		.ascii	"alias_method\000"
 3793      735F6D65 
 3793      74686F64 
 3793      00
 3794 0105 000000   		.space	3
 3795              	.LC25:
 3796 0108 70757473 		.ascii	"puts\000"
 3796      00
 3797 010d 000000   		.space	3
 3798              	.LC26:
ARM GAS  C:\Users\164\AppData\Local\Temp\ccvDnxKa.s 			page 106


 3799 0110 7072696E 		.ascii	"print\000"
 3799      7400
 3800 0116 0000     		.space	2
 3801              	.LC27:
 3802 0118 2100     		.ascii	"!\000"
 3803 011a 0000     		.space	2
 3804              	.LC28:
 3805 011c 213D00   		.ascii	"!=\000"
 3806 011f 00       		.space	1
 3807              	.LC29:
 3808 0120 3C3D3E00 		.ascii	"<=>\000"
 3809              	.LC30:
 3810 0124 3D3D3D00 		.ascii	"===\000"
 3811              	.LC31:
 3812 0128 636C6173 		.ascii	"class\000"
 3812      7300
 3813 012e 0000     		.space	2
 3814              	.LC32:
 3815 0130 6E657700 		.ascii	"new\000"
 3816              	.LC33:
 3817 0134 61747472 		.ascii	"attr_reader\000"
 3817      5F726561 
 3817      64657200 
 3818              	.LC34:
 3819 0140 61747472 		.ascii	"attr_accessor\000"
 3819      5F616363 
 3819      6573736F 
 3819      7200
 3820 014e 0000     		.space	2
 3821              	.LC35:
 3822 0150 69735F61 		.ascii	"is_a?\000"
 3822      3F00
 3823 0156 0000     		.space	2
 3824              	.LC36:
 3825 0158 6B696E64 		.ascii	"kind_of?\000"
 3825      5F6F663F 
 3825      00
 3826 0161 000000   		.space	3
 3827              	.LC37:
 3828 0164 696E7370 		.ascii	"inspect\000"
 3828      65637400 
 3829              	.LC38:
 3830 016c 746F5F73 		.ascii	"to_s\000"
 3830      00
 3831 0171 000000   		.space	3
 3832              	.LC39:
 3833 0174 3D00     		.ascii	"=\000"
 3834 0176 0000     		.space	2
 3835              	.LC40:
 3836 0178 4E696C43 		.ascii	"NilClass\000"
 3836      6C617373 
 3836      00
 3837 0181 000000   		.space	3
 3838              	.LC41:
 3839 0184 50726F63 		.ascii	"Proc\000"
 3839      00
 3840 0189 000000   		.space	3
ARM GAS  C:\Users\164\AppData\Local\Temp\ccvDnxKa.s 			page 107


 3841              	.LC42:
 3842 018c 63616C6C 		.ascii	"call\000"
 3842      00
 3843 0191 000000   		.space	3
 3844              	.LC43:
 3845 0194 46616C73 		.ascii	"FalseClass\000"
 3845      65436C61 
 3845      737300
 3846 019f 00       		.space	1
 3847              	.LC44:
 3848 01a0 54727565 		.ascii	"TrueClass\000"
 3848      436C6173 
 3848      7300
 3849 01aa 0000     		.space	2
 3850              	.LC45:
 3851 01ac 4E6F206D 		.ascii	"No method. vtype=%d method='%s'\012\000"
 3851      6574686F 
 3851      642E2076 
 3851      74797065 
 3851      3D256420 
 3852 01cd 000000   		.space	3
 3853              	.LC46:
 3854 01d0 4D657468 		.ascii	"Method %s is not C function\012\000"
 3854      6F642025 
 3854      73206973 
 3854      206E6F74 
 3854      20432066 
 3855              		.text
 3856              	.Letext0:
 3857              		.file 9 "c:\\program files (x86)\\cypress\\psoc creator\\4.2\\psoc creator\\import\\gnu\\arm\\5.4.
 3858              		.file 10 "c:\\program files (x86)\\cypress\\psoc creator\\4.2\\psoc creator\\import\\gnu\\arm\\5.4
 3859              		.file 11 "value.h"
 3860              		.file 12 "c:\\program files (x86)\\cypress\\psoc creator\\4.2\\psoc creator\\import\\gnu\\arm\\5.4
 3861              		.file 13 "<built-in>"
 3862              		.file 14 "static.h"
 3863              		.file 15 "Generated_Source\\PSoC5/core_cm3.h"
 3864              		.file 16 "c:\\program files (x86)\\cypress\\psoc creator\\4.2\\psoc creator\\import\\gnu\\arm\\5.4
 3865              		.file 17 "alloc.h"
 3866              		.file 18 "load.h"
 3867              		.file 19 "hal/hal.h"
 3868              		.file 20 "global.h"
 3869              		.file 21 "c:\\program files (x86)\\cypress\\psoc creator\\4.2\\psoc creator\\import\\gnu\\arm\\5.4
 3870              		.file 22 "c_numeric.h"
 3871              		.file 23 "opcode.h"
 3872              		.section	.debug_info,"",%progbits
 3873              	.Ldebug_info0:
 3874 0000 EE340000 		.4byte	0x34ee
 3875 0004 0400     		.2byte	0x4
 3876 0006 00000000 		.4byte	.Ldebug_abbrev0
 3877 000a 04       		.byte	0x4
 3878 000b 01       		.uleb128 0x1
 3879 000c 77020000 		.4byte	.LASF314
 3880 0010 0C       		.byte	0xc
 3881 0011 520E0000 		.4byte	.LASF315
 3882 0015 220E0000 		.4byte	.LASF316
 3883 0019 30000000 		.4byte	.Ldebug_ranges0+0x30
 3884 001d 00000000 		.4byte	0
ARM GAS  C:\Users\164\AppData\Local\Temp\ccvDnxKa.s 			page 108


 3885 0021 00000000 		.4byte	.Ldebug_line0
 3886 0025 02       		.uleb128 0x2
 3887 0026 04       		.byte	0x4
 3888 0027 05       		.byte	0x5
 3889 0028 696E7400 		.ascii	"int\000"
 3890 002c 03       		.uleb128 0x3
 3891 002d 04       		.byte	0x4
 3892 002e 07       		.byte	0x7
 3893 002f D2080000 		.4byte	.LASF0
 3894 0033 03       		.uleb128 0x3
 3895 0034 08       		.byte	0x8
 3896 0035 05       		.byte	0x5
 3897 0036 1C080000 		.4byte	.LASF1
 3898 003a 03       		.uleb128 0x3
 3899 003b 08       		.byte	0x8
 3900 003c 04       		.byte	0x4
 3901 003d 480A0000 		.4byte	.LASF2
 3902 0041 04       		.uleb128 0x4
 3903 0042 9E0A0000 		.4byte	.LASF4
 3904 0046 09       		.byte	0x9
 3905 0047 1B       		.byte	0x1b
 3906 0048 4C000000 		.4byte	0x4c
 3907 004c 03       		.uleb128 0x3
 3908 004d 01       		.byte	0x1
 3909 004e 06       		.byte	0x6
 3910 004f 2B030000 		.4byte	.LASF3
 3911 0053 04       		.uleb128 0x4
 3912 0054 73010000 		.4byte	.LASF5
 3913 0058 09       		.byte	0x9
 3914 0059 1D       		.byte	0x1d
 3915 005a 5E000000 		.4byte	0x5e
 3916 005e 03       		.uleb128 0x3
 3917 005f 01       		.byte	0x1
 3918 0060 08       		.byte	0x8
 3919 0061 8E030000 		.4byte	.LASF6
 3920 0065 04       		.uleb128 0x4
 3921 0066 D70B0000 		.4byte	.LASF7
 3922 006a 09       		.byte	0x9
 3923 006b 29       		.byte	0x29
 3924 006c 70000000 		.4byte	0x70
 3925 0070 03       		.uleb128 0x3
 3926 0071 02       		.byte	0x2
 3927 0072 05       		.byte	0x5
 3928 0073 9C0C0000 		.4byte	.LASF8
 3929 0077 04       		.uleb128 0x4
 3930 0078 B3040000 		.4byte	.LASF9
 3931 007c 09       		.byte	0x9
 3932 007d 2B       		.byte	0x2b
 3933 007e 82000000 		.4byte	0x82
 3934 0082 03       		.uleb128 0x3
 3935 0083 02       		.byte	0x2
 3936 0084 07       		.byte	0x7
 3937 0085 010E0000 		.4byte	.LASF10
 3938 0089 04       		.uleb128 0x4
 3939 008a 900E0000 		.4byte	.LASF11
 3940 008e 09       		.byte	0x9
 3941 008f 3F       		.byte	0x3f
ARM GAS  C:\Users\164\AppData\Local\Temp\ccvDnxKa.s 			page 109


 3942 0090 94000000 		.4byte	0x94
 3943 0094 03       		.uleb128 0x3
 3944 0095 04       		.byte	0x4
 3945 0096 05       		.byte	0x5
 3946 0097 13020000 		.4byte	.LASF12
 3947 009b 04       		.uleb128 0x4
 3948 009c F8070000 		.4byte	.LASF13
 3949 00a0 09       		.byte	0x9
 3950 00a1 41       		.byte	0x41
 3951 00a2 A6000000 		.4byte	0xa6
 3952 00a6 03       		.uleb128 0x3
 3953 00a7 04       		.byte	0x4
 3954 00a8 07       		.byte	0x7
 3955 00a9 6E060000 		.4byte	.LASF14
 3956 00ad 03       		.uleb128 0x3
 3957 00ae 08       		.byte	0x8
 3958 00af 07       		.byte	0x7
 3959 00b0 CF0A0000 		.4byte	.LASF15
 3960 00b4 04       		.uleb128 0x4
 3961 00b5 FD0B0000 		.4byte	.LASF16
 3962 00b9 09       		.byte	0x9
 3963 00ba CA       		.byte	0xca
 3964 00bb 2C000000 		.4byte	0x2c
 3965 00bf 03       		.uleb128 0x3
 3966 00c0 04       		.byte	0x4
 3967 00c1 07       		.byte	0x7
 3968 00c2 10000000 		.4byte	.LASF17
 3969 00c6 05       		.uleb128 0x5
 3970 00c7 04       		.byte	0x4
 3971 00c8 06       		.uleb128 0x6
 3972 00c9 04       		.byte	0x4
 3973 00ca CE000000 		.4byte	0xce
 3974 00ce 03       		.uleb128 0x3
 3975 00cf 01       		.byte	0x1
 3976 00d0 08       		.byte	0x8
 3977 00d1 73040000 		.4byte	.LASF18
 3978 00d5 06       		.uleb128 0x6
 3979 00d6 04       		.byte	0x4
 3980 00d7 DB000000 		.4byte	0xdb
 3981 00db 07       		.uleb128 0x7
 3982 00dc CE000000 		.4byte	0xce
 3983 00e0 04       		.uleb128 0x4
 3984 00e1 09000000 		.4byte	.LASF19
 3985 00e5 0A       		.byte	0xa
 3986 00e6 14       		.byte	0x14
 3987 00e7 41000000 		.4byte	0x41
 3988 00eb 04       		.uleb128 0x4
 3989 00ec 37030000 		.4byte	.LASF20
 3990 00f0 0A       		.byte	0xa
 3991 00f1 18       		.byte	0x18
 3992 00f2 53000000 		.4byte	0x53
 3993 00f6 04       		.uleb128 0x4
 3994 00f7 E70C0000 		.4byte	.LASF21
 3995 00fb 0A       		.byte	0xa
 3996 00fc 20       		.byte	0x20
 3997 00fd 65000000 		.4byte	0x65
 3998 0101 04       		.uleb128 0x4
ARM GAS  C:\Users\164\AppData\Local\Temp\ccvDnxKa.s 			page 110


 3999 0102 110B0000 		.4byte	.LASF22
 4000 0106 0A       		.byte	0xa
 4001 0107 24       		.byte	0x24
 4002 0108 77000000 		.4byte	0x77
 4003 010c 04       		.uleb128 0x4
 4004 010d 72000000 		.4byte	.LASF23
 4005 0111 0A       		.byte	0xa
 4006 0112 2C       		.byte	0x2c
 4007 0113 89000000 		.4byte	0x89
 4008 0117 04       		.uleb128 0x4
 4009 0118 EA0D0000 		.4byte	.LASF24
 4010 011c 0A       		.byte	0xa
 4011 011d 30       		.byte	0x30
 4012 011e 9B000000 		.4byte	0x9b
 4013 0122 04       		.uleb128 0x4
 4014 0123 55070000 		.4byte	.LASF25
 4015 0127 0A       		.byte	0xa
 4016 0128 48       		.byte	0x48
 4017 0129 B4000000 		.4byte	0xb4
 4018 012d 04       		.uleb128 0x4
 4019 012e 010B0000 		.4byte	.LASF26
 4020 0132 0B       		.byte	0xb
 4021 0133 1A       		.byte	0x1a
 4022 0134 0C010000 		.4byte	0x10c
 4023 0138 04       		.uleb128 0x4
 4024 0139 9A0E0000 		.4byte	.LASF27
 4025 013d 0B       		.byte	0xb
 4026 013e 1B       		.byte	0x1b
 4027 013f 43010000 		.4byte	0x143
 4028 0143 03       		.uleb128 0x3
 4029 0144 08       		.byte	0x8
 4030 0145 04       		.byte	0x4
 4031 0146 54080000 		.4byte	.LASF28
 4032 014a 04       		.uleb128 0x4
 4033 014b DD000000 		.4byte	.LASF29
 4034 014f 0B       		.byte	0xb
 4035 0150 1C       		.byte	0x1c
 4036 0151 F6000000 		.4byte	0xf6
 4037 0155 04       		.uleb128 0x4
 4038 0156 830D0000 		.4byte	.LASF30
 4039 015a 0B       		.byte	0xb
 4040 015b 2C       		.byte	0x2c
 4041 015c 60010000 		.4byte	0x160
 4042 0160 06       		.uleb128 0x6
 4043 0161 04       		.byte	0x4
 4044 0162 66010000 		.4byte	0x166
 4045 0166 08       		.uleb128 0x8
 4046 0167 7B010000 		.4byte	0x17b
 4047 016b 09       		.uleb128 0x9
 4048 016c 7B010000 		.4byte	0x17b
 4049 0170 09       		.uleb128 0x9
 4050 0171 23020000 		.4byte	0x223
 4051 0175 09       		.uleb128 0x9
 4052 0176 25000000 		.4byte	0x25
 4053 017a 00       		.byte	0
 4054 017b 06       		.uleb128 0x6
 4055 017c 04       		.byte	0x4
ARM GAS  C:\Users\164\AppData\Local\Temp\ccvDnxKa.s 			page 111


 4056 017d 81010000 		.4byte	0x181
 4057 0181 0A       		.uleb128 0xa
 4058 0182 564D00   		.ascii	"VM\000"
 4059 0185 7006     		.2byte	0x670
 4060 0187 03       		.byte	0x3
 4061 0188 43       		.byte	0x43
 4062 0189 23020000 		.4byte	0x223
 4063 018d 0B       		.uleb128 0xb
 4064 018e 4B070000 		.4byte	.LASF31
 4065 0192 03       		.byte	0x3
 4066 0193 44       		.byte	0x44
 4067 0194 C0060000 		.4byte	0x6c0
 4068 0198 00       		.byte	0
 4069 0199 0B       		.uleb128 0xb
 4070 019a E5040000 		.4byte	.LASF32
 4071 019e 03       		.byte	0x3
 4072 019f 46       		.byte	0x46
 4073 01a0 EB000000 		.4byte	0xeb
 4074 01a4 04       		.byte	0x4
 4075 01a5 0C       		.uleb128 0xc
 4076 01a6 6D726200 		.ascii	"mrb\000"
 4077 01aa 03       		.byte	0x3
 4078 01ab 47       		.byte	0x47
 4079 01ac DD060000 		.4byte	0x6dd
 4080 01b0 08       		.byte	0x8
 4081 01b1 0B       		.uleb128 0xb
 4082 01b2 78040000 		.4byte	.LASF33
 4083 01b6 03       		.byte	0x3
 4084 01b7 49       		.byte	0x49
 4085 01b8 C0060000 		.4byte	0x6c0
 4086 01bc 0C       		.byte	0xc
 4087 01bd 0C       		.uleb128 0xc
 4088 01be 706300   		.ascii	"pc\000"
 4089 01c1 03       		.byte	0x3
 4090 01c2 4A       		.byte	0x4a
 4091 01c3 01010000 		.4byte	0x101
 4092 01c7 10       		.byte	0x10
 4093 01c8 0B       		.uleb128 0xb
 4094 01c9 E90B0000 		.4byte	.LASF34
 4095 01cd 03       		.byte	0x3
 4096 01ce 4D       		.byte	0x4d
 4097 01cf E8060000 		.4byte	0x6e8
 4098 01d3 18       		.byte	0x18
 4099 01d4 0D       		.uleb128 0xd
 4100 01d5 03080000 		.4byte	.LASF35
 4101 01d9 03       		.byte	0x3
 4102 01da 4E       		.byte	0x4e
 4103 01db C6060000 		.4byte	0x6c6
 4104 01df 5806     		.2byte	0x658
 4105 01e1 0D       		.uleb128 0xd
 4106 01e2 EF0E0000 		.4byte	.LASF36
 4107 01e6 03       		.byte	0x3
 4108 01e7 4F       		.byte	0x4f
 4109 01e8 F8060000 		.4byte	0x6f8
 4110 01ec 5C06     		.2byte	0x65c
 4111 01ee 0D       		.uleb128 0xd
 4112 01ef 5A0E0000 		.4byte	.LASF37
ARM GAS  C:\Users\164\AppData\Local\Temp\ccvDnxKa.s 			page 112


 4113 01f3 03       		.byte	0x3
 4114 01f4 51       		.byte	0x51
 4115 01f5 CC060000 		.4byte	0x6cc
 4116 01f9 6006     		.2byte	0x660
 4117 01fb 0D       		.uleb128 0xd
 4118 01fc B30B0000 		.4byte	.LASF38
 4119 0200 03       		.byte	0x3
 4120 0201 53       		.byte	0x53
 4121 0202 0C010000 		.4byte	0x10c
 4122 0206 6406     		.2byte	0x664
 4123 0208 0D       		.uleb128 0xd
 4124 0209 CA090000 		.4byte	.LASF39
 4125 020d 03       		.byte	0x3
 4126 020e 55       		.byte	0x55
 4127 020f FE060000 		.4byte	0x6fe
 4128 0213 6806     		.2byte	0x668
 4129 0215 0D       		.uleb128 0xd
 4130 0216 820B0000 		.4byte	.LASF40
 4131 021a 03       		.byte	0x3
 4132 021b 56       		.byte	0x56
 4133 021c E0000000 		.4byte	0xe0
 4134 0220 6906     		.2byte	0x669
 4135 0222 00       		.byte	0
 4136 0223 06       		.uleb128 0x6
 4137 0224 04       		.byte	0x4
 4138 0225 29020000 		.4byte	0x229
 4139 0229 0E       		.uleb128 0xe
 4140 022a 86030000 		.4byte	.LASF41
 4141 022e 10       		.byte	0x10
 4142 022f 0B       		.byte	0xb
 4143 0230 68       		.byte	0x68
 4144 0231 4A020000 		.4byte	0x24a
 4145 0235 0F       		.uleb128 0xf
 4146 0236 747400   		.ascii	"tt\000"
 4147 0239 0B       		.byte	0xb
 4148 023a 69       		.byte	0x69
 4149 023b B1020000 		.4byte	0x2b1
 4150 023f 01       		.byte	0x1
 4151 0240 08       		.byte	0x8
 4152 0241 00       		.byte	0
 4153 0242 00       		.byte	0
 4154 0243 10       		.uleb128 0x10
 4155 0244 BC020000 		.4byte	0x2bc
 4156 0248 08       		.byte	0x8
 4157 0249 00       		.byte	0
 4158 024a 11       		.uleb128 0x11
 4159 024b 01       		.byte	0x1
 4160 024c 4C000000 		.4byte	0x4c
 4161 0250 0B       		.byte	0xb
 4162 0251 33       		.byte	0x33
 4163 0252 B1020000 		.4byte	0x2b1
 4164 0256 12       		.uleb128 0x12
 4165 0257 C6070000 		.4byte	.LASF42
 4166 025b 7F       		.sleb128 -1
 4167 025c 13       		.uleb128 0x13
 4168 025d C60E0000 		.4byte	.LASF43
 4169 0261 00       		.byte	0
ARM GAS  C:\Users\164\AppData\Local\Temp\ccvDnxKa.s 			page 113


 4170 0262 13       		.uleb128 0x13
 4171 0263 CA0C0000 		.4byte	.LASF44
 4172 0267 01       		.byte	0x1
 4173 0268 13       		.uleb128 0x13
 4174 0269 52060000 		.4byte	.LASF45
 4175 026d 02       		.byte	0x2
 4176 026e 13       		.uleb128 0x13
 4177 026f B10A0000 		.4byte	.LASF46
 4178 0273 03       		.byte	0x3
 4179 0274 13       		.uleb128 0x13
 4180 0275 94000000 		.4byte	.LASF47
 4181 0279 04       		.byte	0x4
 4182 027a 13       		.uleb128 0x13
 4183 027b 0A0F0000 		.4byte	.LASF48
 4184 027f 05       		.byte	0x5
 4185 0280 13       		.uleb128 0x13
 4186 0281 19000000 		.4byte	.LASF49
 4187 0285 06       		.byte	0x6
 4188 0286 13       		.uleb128 0x13
 4189 0287 9B010000 		.4byte	.LASF50
 4190 028b 07       		.byte	0x7
 4191 028c 13       		.uleb128 0x13
 4192 028d 49020000 		.4byte	.LASF51
 4193 0291 14       		.byte	0x14
 4194 0292 13       		.uleb128 0x13
 4195 0293 93070000 		.4byte	.LASF52
 4196 0297 15       		.byte	0x15
 4197 0298 13       		.uleb128 0x13
 4198 0299 31060000 		.4byte	.LASF53
 4199 029d 16       		.byte	0x16
 4200 029e 13       		.uleb128 0x13
 4201 029f F20A0000 		.4byte	.LASF54
 4202 02a3 17       		.byte	0x17
 4203 02a4 13       		.uleb128 0x13
 4204 02a5 DF080000 		.4byte	.LASF55
 4205 02a9 18       		.byte	0x18
 4206 02aa 13       		.uleb128 0x13
 4207 02ab B3010000 		.4byte	.LASF56
 4208 02af 19       		.byte	0x19
 4209 02b0 00       		.byte	0
 4210 02b1 04       		.uleb128 0x4
 4211 02b2 71050000 		.4byte	.LASF57
 4212 02b6 0B       		.byte	0xb
 4213 02b7 49       		.byte	0x49
 4214 02b8 4A020000 		.4byte	0x24a
 4215 02bc 14       		.uleb128 0x14
 4216 02bd 08       		.byte	0x8
 4217 02be 0B       		.byte	0xb
 4218 02bf 6A       		.byte	0x6a
 4219 02c0 3A030000 		.4byte	0x33a
 4220 02c4 15       		.uleb128 0x15
 4221 02c5 6900     		.ascii	"i\000"
 4222 02c7 0B       		.byte	0xb
 4223 02c8 6B       		.byte	0x6b
 4224 02c9 2D010000 		.4byte	0x12d
 4225 02cd 15       		.uleb128 0x15
 4226 02ce 6400     		.ascii	"d\000"
ARM GAS  C:\Users\164\AppData\Local\Temp\ccvDnxKa.s 			page 114


 4227 02d0 0B       		.byte	0xb
 4228 02d1 6D       		.byte	0x6d
 4229 02d2 38010000 		.4byte	0x138
 4230 02d6 15       		.uleb128 0x15
 4231 02d7 636C7300 		.ascii	"cls\000"
 4232 02db 0B       		.byte	0xb
 4233 02dc 6F       		.byte	0x6f
 4234 02dd 6B030000 		.4byte	0x36b
 4235 02e1 16       		.uleb128 0x16
 4236 02e2 600A0000 		.4byte	.LASF58
 4237 02e6 0B       		.byte	0xb
 4238 02e7 70       		.byte	0x70
 4239 02e8 23020000 		.4byte	0x223
 4240 02ec 16       		.uleb128 0x16
 4241 02ed 8B000000 		.4byte	.LASF59
 4242 02f1 0B       		.byte	0xb
 4243 02f2 71       		.byte	0x71
 4244 02f3 BC030000 		.4byte	0x3bc
 4245 02f7 16       		.uleb128 0x16
 4246 02f8 E0040000 		.4byte	.LASF60
 4247 02fc 0B       		.byte	0xb
 4248 02fd 72       		.byte	0x72
 4249 02fe 16040000 		.4byte	0x416
 4250 0302 16       		.uleb128 0x16
 4251 0303 7C050000 		.4byte	.LASF61
 4252 0307 0B       		.byte	0xb
 4253 0308 73       		.byte	0x73
 4254 0309 67040000 		.4byte	0x467
 4255 030d 16       		.uleb128 0x16
 4256 030e CB080000 		.4byte	.LASF62
 4257 0312 0B       		.byte	0xb
 4258 0313 74       		.byte	0x74
 4259 0314 AC040000 		.4byte	0x4ac
 4260 0318 15       		.uleb128 0x15
 4261 0319 73747200 		.ascii	"str\000"
 4262 031d 0B       		.byte	0xb
 4263 031e 75       		.byte	0x75
 4264 031f D5000000 		.4byte	0xd5
 4265 0323 16       		.uleb128 0x16
 4266 0324 C40C0000 		.4byte	.LASF63
 4267 0328 0B       		.byte	0xb
 4268 0329 76       		.byte	0x76
 4269 032a FD040000 		.4byte	0x4fd
 4270 032e 16       		.uleb128 0x16
 4271 032f C10E0000 		.4byte	.LASF64
 4272 0333 0B       		.byte	0xb
 4273 0334 77       		.byte	0x77
 4274 0335 4E050000 		.4byte	0x54e
 4275 0339 00       		.byte	0
 4276 033a 0E       		.uleb128 0xe
 4277 033b 6C010000 		.4byte	.LASF65
 4278 033f 0C       		.byte	0xc
 4279 0340 0B       		.byte	0xb
 4280 0341 84       		.byte	0x84
 4281 0342 6B030000 		.4byte	0x36b
 4282 0346 0B       		.uleb128 0xb
 4283 0347 F9000000 		.4byte	.LASF66
ARM GAS  C:\Users\164\AppData\Local\Temp\ccvDnxKa.s 			page 115


 4284 034b 0B       		.byte	0xb
 4285 034c 85       		.byte	0x85
 4286 034d 4A010000 		.4byte	0x14a
 4287 0351 00       		.byte	0
 4288 0352 0B       		.uleb128 0xb
 4289 0353 61010000 		.4byte	.LASF67
 4290 0357 0B       		.byte	0xb
 4291 0358 89       		.byte	0x89
 4292 0359 6B030000 		.4byte	0x36b
 4293 035d 04       		.byte	0x4
 4294 035e 0B       		.uleb128 0xb
 4295 035f C0070000 		.4byte	.LASF68
 4296 0363 0B       		.byte	0xb
 4297 0364 8A       		.byte	0x8a
 4298 0365 16040000 		.4byte	0x416
 4299 0369 08       		.byte	0x8
 4300 036a 00       		.byte	0
 4301 036b 06       		.uleb128 0x6
 4302 036c 04       		.byte	0x4
 4303 036d 3A030000 		.4byte	0x33a
 4304 0371 0E       		.uleb128 0xe
 4305 0372 AE080000 		.4byte	.LASF69
 4306 0376 0C       		.byte	0xc
 4307 0377 0B       		.byte	0xb
 4308 0378 93       		.byte	0x93
 4309 0379 BC030000 		.4byte	0x3bc
 4310 037d 0B       		.uleb128 0xb
 4311 037e C8030000 		.4byte	.LASF70
 4312 0382 0B       		.byte	0xb
 4313 0383 94       		.byte	0x94
 4314 0384 01010000 		.4byte	0x101
 4315 0388 00       		.byte	0
 4316 0389 0F       		.uleb128 0xf
 4317 038a 747400   		.ascii	"tt\000"
 4318 038d 0B       		.byte	0xb
 4319 038e 94       		.byte	0x94
 4320 038f B1020000 		.4byte	0x2b1
 4321 0393 01       		.byte	0x1
 4322 0394 08       		.byte	0x8
 4323 0395 00       		.byte	0
 4324 0396 02       		.byte	0x2
 4325 0397 0C       		.uleb128 0xc
 4326 0398 636C7300 		.ascii	"cls\000"
 4327 039c 0B       		.byte	0xb
 4328 039d 96       		.byte	0x96
 4329 039e 6B030000 		.4byte	0x36b
 4330 03a2 04       		.byte	0x4
 4331 03a3 0B       		.uleb128 0xb
 4332 03a4 67010000 		.4byte	.LASF71
 4333 03a8 0B       		.byte	0xb
 4334 03a9 97       		.byte	0x97
 4335 03aa 7A050000 		.4byte	0x57a
 4336 03ae 08       		.byte	0x8
 4337 03af 0B       		.uleb128 0xb
 4338 03b0 05030000 		.4byte	.LASF72
 4339 03b4 0B       		.byte	0xb
 4340 03b5 98       		.byte	0x98
ARM GAS  C:\Users\164\AppData\Local\Temp\ccvDnxKa.s 			page 116


 4341 03b6 80050000 		.4byte	0x580
 4342 03ba 0C       		.byte	0xc
 4343 03bb 00       		.byte	0
 4344 03bc 06       		.uleb128 0x6
 4345 03bd 04       		.byte	0x4
 4346 03be 71030000 		.4byte	0x371
 4347 03c2 0E       		.uleb128 0xe
 4348 03c3 7E0E0000 		.4byte	.LASF73
 4349 03c7 10       		.byte	0x10
 4350 03c8 0B       		.byte	0xb
 4351 03c9 A1       		.byte	0xa1
 4352 03ca 16040000 		.4byte	0x416
 4353 03ce 0B       		.uleb128 0xb
 4354 03cf C8030000 		.4byte	.LASF70
 4355 03d3 0B       		.byte	0xb
 4356 03d4 A2       		.byte	0xa2
 4357 03d5 01010000 		.4byte	0x101
 4358 03d9 00       		.byte	0
 4359 03da 0F       		.uleb128 0xf
 4360 03db 747400   		.ascii	"tt\000"
 4361 03de 0B       		.byte	0xb
 4362 03df A2       		.byte	0xa2
 4363 03e0 B1020000 		.4byte	0x2b1
 4364 03e4 01       		.byte	0x1
 4365 03e5 08       		.byte	0x8
 4366 03e6 00       		.byte	0
 4367 03e7 02       		.byte	0x2
 4368 03e8 17       		.uleb128 0x17
 4369 03e9 0A0B0000 		.4byte	.LASF74
 4370 03ed 0B       		.byte	0xb
 4371 03ee A4       		.byte	0xa4
 4372 03ef 2C000000 		.4byte	0x2c
 4373 03f3 04       		.byte	0x4
 4374 03f4 01       		.byte	0x1
 4375 03f5 07       		.byte	0x7
 4376 03f6 00       		.byte	0
 4377 03f7 0B       		.uleb128 0xb
 4378 03f8 F9000000 		.4byte	.LASF66
 4379 03fc 0B       		.byte	0xb
 4380 03fd A5       		.byte	0xa5
 4381 03fe 4A010000 		.4byte	0x14a
 4382 0402 04       		.byte	0x4
 4383 0403 0B       		.uleb128 0xb
 4384 0404 DC0E0000 		.4byte	.LASF75
 4385 0408 0B       		.byte	0xb
 4386 0409 A9       		.byte	0xa9
 4387 040a 16040000 		.4byte	0x416
 4388 040e 08       		.byte	0x8
 4389 040f 10       		.uleb128 0x10
 4390 0410 8F050000 		.4byte	0x58f
 4391 0414 0C       		.byte	0xc
 4392 0415 00       		.byte	0
 4393 0416 06       		.uleb128 0x6
 4394 0417 04       		.byte	0x4
 4395 0418 C2030000 		.4byte	0x3c2
 4396 041c 0E       		.uleb128 0xe
 4397 041d D9040000 		.4byte	.LASF76
ARM GAS  C:\Users\164\AppData\Local\Temp\ccvDnxKa.s 			page 117


 4398 0421 0C       		.byte	0xc
 4399 0422 05       		.byte	0x5
 4400 0423 1B       		.byte	0x1b
 4401 0424 67040000 		.4byte	0x467
 4402 0428 0B       		.uleb128 0xb
 4403 0429 C8030000 		.4byte	.LASF70
 4404 042d 05       		.byte	0x5
 4405 042e 1C       		.byte	0x1c
 4406 042f 01010000 		.4byte	0x101
 4407 0433 00       		.byte	0
 4408 0434 0F       		.uleb128 0xf
 4409 0435 747400   		.ascii	"tt\000"
 4410 0438 05       		.byte	0x5
 4411 0439 1C       		.byte	0x1c
 4412 043a B1020000 		.4byte	0x2b1
 4413 043e 01       		.byte	0x1
 4414 043f 08       		.byte	0x8
 4415 0440 00       		.byte	0
 4416 0441 02       		.byte	0x2
 4417 0442 0B       		.uleb128 0xb
 4418 0443 5F070000 		.4byte	.LASF77
 4419 0447 05       		.byte	0x5
 4420 0448 1E       		.byte	0x1e
 4421 0449 01010000 		.4byte	0x101
 4422 044d 04       		.byte	0x4
 4423 044e 0B       		.uleb128 0xb
 4424 044f FA060000 		.4byte	.LASF78
 4425 0453 05       		.byte	0x5
 4426 0454 1F       		.byte	0x1f
 4427 0455 01010000 		.4byte	0x101
 4428 0459 06       		.byte	0x6
 4429 045a 0B       		.uleb128 0xb
 4430 045b 05030000 		.4byte	.LASF72
 4431 045f 05       		.byte	0x5
 4432 0460 20       		.byte	0x20
 4433 0461 C6060000 		.4byte	0x6c6
 4434 0465 08       		.byte	0x8
 4435 0466 00       		.byte	0
 4436 0467 06       		.uleb128 0x6
 4437 0468 04       		.byte	0x4
 4438 0469 1C040000 		.4byte	0x41c
 4439 046d 0E       		.uleb128 0xe
 4440 046e EB060000 		.4byte	.LASF79
 4441 0472 0C       		.byte	0xc
 4442 0473 06       		.byte	0x6
 4443 0474 1D       		.byte	0x1d
 4444 0475 AC040000 		.4byte	0x4ac
 4445 0479 0B       		.uleb128 0xb
 4446 047a C8030000 		.4byte	.LASF70
 4447 047e 06       		.byte	0x6
 4448 047f 1E       		.byte	0x1e
 4449 0480 01010000 		.4byte	0x101
 4450 0484 00       		.byte	0
 4451 0485 0F       		.uleb128 0xf
 4452 0486 747400   		.ascii	"tt\000"
 4453 0489 06       		.byte	0x6
 4454 048a 1E       		.byte	0x1e
ARM GAS  C:\Users\164\AppData\Local\Temp\ccvDnxKa.s 			page 118


 4455 048b B1020000 		.4byte	0x2b1
 4456 048f 01       		.byte	0x1
 4457 0490 08       		.byte	0x8
 4458 0491 00       		.byte	0
 4459 0492 02       		.byte	0x2
 4460 0493 0B       		.uleb128 0xb
 4461 0494 BE0A0000 		.4byte	.LASF80
 4462 0498 06       		.byte	0x6
 4463 0499 20       		.byte	0x20
 4464 049a 01010000 		.4byte	0x101
 4465 049e 04       		.byte	0x4
 4466 049f 0B       		.uleb128 0xb
 4467 04a0 05030000 		.4byte	.LASF72
 4468 04a4 06       		.byte	0x6
 4469 04a5 21       		.byte	0x21
 4470 04a6 43060000 		.4byte	0x643
 4471 04aa 08       		.byte	0x8
 4472 04ab 00       		.byte	0
 4473 04ac 06       		.uleb128 0x6
 4474 04ad 04       		.byte	0x4
 4475 04ae 6D040000 		.4byte	0x46d
 4476 04b2 0E       		.uleb128 0xe
 4477 04b3 6F070000 		.4byte	.LASF81
 4478 04b7 28       		.byte	0x28
 4479 04b8 07       		.byte	0x7
 4480 04b9 1C       		.byte	0x1c
 4481 04ba FD040000 		.4byte	0x4fd
 4482 04be 0B       		.uleb128 0xb
 4483 04bf C8030000 		.4byte	.LASF70
 4484 04c3 07       		.byte	0x7
 4485 04c4 1D       		.byte	0x1d
 4486 04c5 01010000 		.4byte	0x101
 4487 04c9 00       		.byte	0
 4488 04ca 0F       		.uleb128 0xf
 4489 04cb 747400   		.ascii	"tt\000"
 4490 04ce 07       		.byte	0x7
 4491 04cf 1D       		.byte	0x1d
 4492 04d0 B1020000 		.4byte	0x2b1
 4493 04d4 01       		.byte	0x1
 4494 04d5 08       		.byte	0x8
 4495 04d6 00       		.byte	0
 4496 04d7 02       		.byte	0x2
 4497 04d8 0B       		.uleb128 0xb
 4498 04d9 EE090000 		.4byte	.LASF82
 4499 04dd 07       		.byte	0x7
 4500 04de 1F       		.byte	0x1f
 4501 04df EB000000 		.4byte	0xeb
 4502 04e3 03       		.byte	0x3
 4503 04e4 0B       		.uleb128 0xb
 4504 04e5 C4090000 		.4byte	.LASF83
 4505 04e9 07       		.byte	0x7
 4506 04ea 20       		.byte	0x20
 4507 04eb 5F050000 		.4byte	0x55f
 4508 04ef 08       		.byte	0x8
 4509 04f0 0B       		.uleb128 0xb
 4510 04f1 2F0F0000 		.4byte	.LASF84
 4511 04f5 07       		.byte	0x7
ARM GAS  C:\Users\164\AppData\Local\Temp\ccvDnxKa.s 			page 119


 4512 04f6 21       		.byte	0x21
 4513 04f7 5F050000 		.4byte	0x55f
 4514 04fb 18       		.byte	0x18
 4515 04fc 00       		.byte	0
 4516 04fd 06       		.uleb128 0x6
 4517 04fe 04       		.byte	0x4
 4518 04ff B2040000 		.4byte	0x4b2
 4519 0503 0E       		.uleb128 0xe
 4520 0504 BE090000 		.4byte	.LASF85
 4521 0508 0C       		.byte	0xc
 4522 0509 08       		.byte	0x8
 4523 050a 1C       		.byte	0x1c
 4524 050b 4E050000 		.4byte	0x54e
 4525 050f 0B       		.uleb128 0xb
 4526 0510 C8030000 		.4byte	.LASF70
 4527 0514 08       		.byte	0x8
 4528 0515 1F       		.byte	0x1f
 4529 0516 01010000 		.4byte	0x101
 4530 051a 00       		.byte	0
 4531 051b 0F       		.uleb128 0xf
 4532 051c 747400   		.ascii	"tt\000"
 4533 051f 08       		.byte	0x8
 4534 0520 1F       		.byte	0x1f
 4535 0521 B1020000 		.4byte	0x2b1
 4536 0525 01       		.byte	0x1
 4537 0526 08       		.byte	0x8
 4538 0527 00       		.byte	0
 4539 0528 02       		.byte	0x2
 4540 0529 0B       		.uleb128 0xb
 4541 052a 5F070000 		.4byte	.LASF77
 4542 052e 08       		.byte	0x8
 4543 052f 21       		.byte	0x21
 4544 0530 01010000 		.4byte	0x101
 4545 0534 04       		.byte	0x4
 4546 0535 0B       		.uleb128 0xb
 4547 0536 FA060000 		.4byte	.LASF78
 4548 053a 08       		.byte	0x8
 4549 053b 22       		.byte	0x22
 4550 053c 01010000 		.4byte	0x101
 4551 0540 06       		.byte	0x6
 4552 0541 0B       		.uleb128 0xb
 4553 0542 05030000 		.4byte	.LASF72
 4554 0546 08       		.byte	0x8
 4555 0547 23       		.byte	0x23
 4556 0548 C6060000 		.4byte	0x6c6
 4557 054c 08       		.byte	0x8
 4558 054d 00       		.byte	0
 4559 054e 06       		.uleb128 0x6
 4560 054f 04       		.byte	0x4
 4561 0550 03050000 		.4byte	0x503
 4562 0554 04       		.uleb128 0x4
 4563 0555 030D0000 		.4byte	.LASF86
 4564 0559 0B       		.byte	0xb
 4565 055a 7C       		.byte	0x7c
 4566 055b 29020000 		.4byte	0x229
 4567 055f 04       		.uleb128 0x4
 4568 0560 BE040000 		.4byte	.LASF87
ARM GAS  C:\Users\164\AppData\Local\Temp\ccvDnxKa.s 			page 120


 4569 0564 0B       		.byte	0xb
 4570 0565 7D       		.byte	0x7d
 4571 0566 29020000 		.4byte	0x229
 4572 056a 04       		.uleb128 0x4
 4573 056b 10030000 		.4byte	.LASF88
 4574 056f 0B       		.byte	0xb
 4575 0570 8B       		.byte	0x8b
 4576 0571 3A030000 		.4byte	0x33a
 4577 0575 18       		.uleb128 0x18
 4578 0576 19010000 		.4byte	.LASF317
 4579 057a 06       		.uleb128 0x6
 4580 057b 04       		.byte	0x4
 4581 057c 75050000 		.4byte	0x575
 4582 0580 19       		.uleb128 0x19
 4583 0581 EB000000 		.4byte	0xeb
 4584 0585 8F050000 		.4byte	0x58f
 4585 0589 1A       		.uleb128 0x1a
 4586 058a BF000000 		.4byte	0xbf
 4587 058e 00       		.byte	0
 4588 058f 14       		.uleb128 0x14
 4589 0590 04       		.byte	0x4
 4590 0591 0B       		.byte	0xb
 4591 0592 AA       		.byte	0xaa
 4592 0593 AE050000 		.4byte	0x5ae
 4593 0597 16       		.uleb128 0x16
 4594 0598 4B070000 		.4byte	.LASF31
 4595 059c 0B       		.byte	0xb
 4596 059d AB       		.byte	0xab
 4597 059e 27060000 		.4byte	0x627
 4598 05a2 16       		.uleb128 0x16
 4599 05a3 BF0C0000 		.4byte	.LASF89
 4600 05a7 0B       		.byte	0xb
 4601 05a8 AC       		.byte	0xac
 4602 05a9 55010000 		.4byte	0x155
 4603 05ad 00       		.byte	0
 4604 05ae 0E       		.uleb128 0xe
 4605 05af F80B0000 		.4byte	.LASF90
 4606 05b3 1C       		.byte	0x1c
 4607 05b4 03       		.byte	0x3
 4608 05b5 20       		.byte	0x20
 4609 05b6 27060000 		.4byte	0x627
 4610 05ba 0B       		.uleb128 0xb
 4611 05bb D40E0000 		.4byte	.LASF91
 4612 05bf 03       		.byte	0x3
 4613 05c0 21       		.byte	0x21
 4614 05c1 01010000 		.4byte	0x101
 4615 05c5 00       		.byte	0
 4616 05c6 0B       		.uleb128 0xb
 4617 05c7 A50E0000 		.4byte	.LASF92
 4618 05cb 03       		.byte	0x3
 4619 05cc 22       		.byte	0x22
 4620 05cd 01010000 		.4byte	0x101
 4621 05d1 02       		.byte	0x2
 4622 05d2 0B       		.uleb128 0xb
 4623 05d3 4C010000 		.4byte	.LASF93
 4624 05d7 03       		.byte	0x3
 4625 05d8 23       		.byte	0x23
ARM GAS  C:\Users\164\AppData\Local\Temp\ccvDnxKa.s 			page 121


 4626 05d9 01010000 		.4byte	0x101
 4627 05dd 04       		.byte	0x4
 4628 05de 0B       		.uleb128 0xb
 4629 05df 50070000 		.4byte	.LASF94
 4630 05e3 03       		.byte	0x3
 4631 05e4 24       		.byte	0x24
 4632 05e5 01010000 		.4byte	0x101
 4633 05e9 06       		.byte	0x6
 4634 05ea 0B       		.uleb128 0xb
 4635 05eb 090C0000 		.4byte	.LASF95
 4636 05ef 03       		.byte	0x3
 4637 05f0 25       		.byte	0x25
 4638 05f1 01010000 		.4byte	0x101
 4639 05f5 08       		.byte	0x8
 4640 05f6 0B       		.uleb128 0xb
 4641 05f7 0E0C0000 		.4byte	.LASF96
 4642 05fb 03       		.byte	0x3
 4643 05fc 27       		.byte	0x27
 4644 05fd 43060000 		.4byte	0x643
 4645 0601 0C       		.byte	0xc
 4646 0602 0B       		.uleb128 0xb
 4647 0603 28040000 		.4byte	.LASF97
 4648 0607 03       		.byte	0x3
 4649 0608 28       		.byte	0x28
 4650 0609 49060000 		.4byte	0x649
 4651 060d 10       		.byte	0x10
 4652 060e 0B       		.uleb128 0xb
 4653 060f EB040000 		.4byte	.LASF98
 4654 0613 03       		.byte	0x3
 4655 0614 29       		.byte	0x29
 4656 0615 43060000 		.4byte	0x643
 4657 0619 14       		.byte	0x14
 4658 061a 0B       		.uleb128 0xb
 4659 061b AC000000 		.4byte	.LASF99
 4660 061f 03       		.byte	0x3
 4661 0620 2A       		.byte	0x2a
 4662 0621 55060000 		.4byte	0x655
 4663 0625 18       		.byte	0x18
 4664 0626 00       		.byte	0
 4665 0627 06       		.uleb128 0x6
 4666 0628 04       		.byte	0x4
 4667 0629 AE050000 		.4byte	0x5ae
 4668 062d 04       		.uleb128 0x4
 4669 062e 660D0000 		.4byte	.LASF100
 4670 0632 0B       		.byte	0xb
 4671 0633 AE       		.byte	0xae
 4672 0634 C2030000 		.4byte	0x3c2
 4673 0638 04       		.uleb128 0x4
 4674 0639 34040000 		.4byte	.LASF101
 4675 063d 0B       		.byte	0xb
 4676 063e AF       		.byte	0xaf
 4677 063f C2030000 		.4byte	0x3c2
 4678 0643 06       		.uleb128 0x6
 4679 0644 04       		.byte	0x4
 4680 0645 EB000000 		.4byte	0xeb
 4681 0649 06       		.uleb128 0x6
 4682 064a 04       		.byte	0x4
ARM GAS  C:\Users\164\AppData\Local\Temp\ccvDnxKa.s 			page 122


 4683 064b 4F060000 		.4byte	0x64f
 4684 064f 06       		.uleb128 0x6
 4685 0650 04       		.byte	0x4
 4686 0651 54050000 		.4byte	0x554
 4687 0655 06       		.uleb128 0x6
 4688 0656 04       		.byte	0x4
 4689 0657 27060000 		.4byte	0x627
 4690 065b 04       		.uleb128 0x4
 4691 065c 550F0000 		.4byte	.LASF102
 4692 0660 03       		.byte	0x3
 4693 0661 2C       		.byte	0x2c
 4694 0662 AE050000 		.4byte	0x5ae
 4695 0666 0E       		.uleb128 0xe
 4696 0667 600C0000 		.4byte	.LASF103
 4697 066b 18       		.byte	0x18
 4698 066c 03       		.byte	0x3
 4699 066d 34       		.byte	0x34
 4700 066e BA060000 		.4byte	0x6ba
 4701 0672 0B       		.uleb128 0xb
 4702 0673 050F0000 		.4byte	.LASF104
 4703 0677 03       		.byte	0x3
 4704 0678 35       		.byte	0x35
 4705 0679 BA060000 		.4byte	0x6ba
 4706 067d 00       		.byte	0
 4707 067e 0B       		.uleb128 0xb
 4708 067f 78040000 		.4byte	.LASF33
 4709 0683 03       		.byte	0x3
 4710 0684 36       		.byte	0x36
 4711 0685 C0060000 		.4byte	0x6c0
 4712 0689 04       		.byte	0x4
 4713 068a 0C       		.uleb128 0xc
 4714 068b 706300   		.ascii	"pc\000"
 4715 068e 03       		.byte	0x3
 4716 068f 37       		.byte	0x37
 4717 0690 01010000 		.4byte	0x101
 4718 0694 08       		.byte	0x8
 4719 0695 0B       		.uleb128 0xb
 4720 0696 03080000 		.4byte	.LASF35
 4721 069a 03       		.byte	0x3
 4722 069b 38       		.byte	0x38
 4723 069c C6060000 		.4byte	0x6c6
 4724 06a0 0C       		.byte	0xc
 4725 06a1 0B       		.uleb128 0xb
 4726 06a2 5A0E0000 		.4byte	.LASF37
 4727 06a6 03       		.byte	0x3
 4728 06a7 39       		.byte	0x39
 4729 06a8 CC060000 		.4byte	0x6cc
 4730 06ac 10       		.byte	0x10
 4731 06ad 0B       		.uleb128 0xb
 4732 06ae 29010000 		.4byte	.LASF105
 4733 06b2 03       		.byte	0x3
 4734 06b3 3A       		.byte	0x3a
 4735 06b4 EB000000 		.4byte	0xeb
 4736 06b8 14       		.byte	0x14
 4737 06b9 00       		.byte	0
 4738 06ba 06       		.uleb128 0x6
 4739 06bb 04       		.byte	0x4
ARM GAS  C:\Users\164\AppData\Local\Temp\ccvDnxKa.s 			page 123


 4740 06bc 66060000 		.4byte	0x666
 4741 06c0 06       		.uleb128 0x6
 4742 06c1 04       		.byte	0x4
 4743 06c2 5B060000 		.4byte	0x65b
 4744 06c6 06       		.uleb128 0x6
 4745 06c7 04       		.byte	0x4
 4746 06c8 5F050000 		.4byte	0x55f
 4747 06cc 06       		.uleb128 0x6
 4748 06cd 04       		.byte	0x4
 4749 06ce 6A050000 		.4byte	0x56a
 4750 06d2 04       		.uleb128 0x4
 4751 06d3 9D050000 		.4byte	.LASF106
 4752 06d7 03       		.byte	0x3
 4753 06d8 3B       		.byte	0x3b
 4754 06d9 66060000 		.4byte	0x666
 4755 06dd 06       		.uleb128 0x6
 4756 06de 04       		.byte	0x4
 4757 06df E3060000 		.4byte	0x6e3
 4758 06e3 07       		.uleb128 0x7
 4759 06e4 EB000000 		.4byte	0xeb
 4760 06e8 19       		.uleb128 0x19
 4761 06e9 5F050000 		.4byte	0x55f
 4762 06ed F8060000 		.4byte	0x6f8
 4763 06f1 1B       		.uleb128 0x1b
 4764 06f2 BF000000 		.4byte	0xbf
 4765 06f6 63       		.byte	0x63
 4766 06f7 00       		.byte	0
 4767 06f8 06       		.uleb128 0x6
 4768 06f9 04       		.byte	0x4
 4769 06fa D2060000 		.4byte	0x6d2
 4770 06fe 1C       		.uleb128 0x1c
 4771 06ff E0000000 		.4byte	0xe0
 4772 0703 04       		.uleb128 0x4
 4773 0704 AB0D0000 		.4byte	.LASF107
 4774 0708 03       		.byte	0x3
 4775 0709 57       		.byte	0x57
 4776 070a 81010000 		.4byte	0x181
 4777 070e 04       		.uleb128 0x4
 4778 070f 13040000 		.4byte	.LASF108
 4779 0713 0C       		.byte	0xc
 4780 0714 28       		.byte	0x28
 4781 0715 19070000 		.4byte	0x719
 4782 0719 0E       		.uleb128 0xe
 4783 071a 90060000 		.4byte	.LASF109
 4784 071e 04       		.byte	0x4
 4785 071f 0D       		.byte	0xd
 4786 0720 00       		.byte	0
 4787 0721 30070000 		.4byte	0x730
 4788 0725 1D       		.uleb128 0x1d
 4789 0726 1F070000 		.4byte	.LASF110
 4790 072a C6000000 		.4byte	0xc6
 4791 072e 00       		.byte	0
 4792 072f 00       		.byte	0
 4793 0730 04       		.uleb128 0x4
 4794 0731 2A080000 		.4byte	.LASF111
 4795 0735 0C       		.byte	0xc
 4796 0736 62       		.byte	0x62
ARM GAS  C:\Users\164\AppData\Local\Temp\ccvDnxKa.s 			page 124


 4797 0737 0E070000 		.4byte	0x70e
 4798 073b 03       		.uleb128 0x3
 4799 073c 04       		.byte	0x4
 4800 073d 04       		.byte	0x4
 4801 073e B8080000 		.4byte	.LASF112
 4802 0742 19       		.uleb128 0x19
 4803 0743 17010000 		.4byte	0x117
 4804 0747 52070000 		.4byte	0x752
 4805 074b 1B       		.uleb128 0x1b
 4806 074c BF000000 		.4byte	0xbf
 4807 0750 01       		.byte	0x1
 4808 0751 00       		.byte	0
 4809 0752 0E       		.uleb128 0xe
 4810 0753 0B010000 		.4byte	.LASF113
 4811 0757 0C       		.byte	0xc
 4812 0758 02       		.byte	0x2
 4813 0759 24       		.byte	0x24
 4814 075a BF070000 		.4byte	0x7bf
 4815 075e 0B       		.uleb128 0xb
 4816 075f 2E0A0000 		.4byte	.LASF114
 4817 0763 02       		.byte	0x2
 4818 0764 25       		.byte	0x25
 4819 0765 CE000000 		.4byte	0xce
 4820 0769 00       		.byte	0
 4821 076a 17       		.uleb128 0x17
 4822 076b 6F030000 		.4byte	.LASF115
 4823 076f 02       		.byte	0x2
 4824 0770 26       		.byte	0x26
 4825 0771 2C000000 		.4byte	0x2c
 4826 0775 04       		.byte	0x4
 4827 0776 01       		.byte	0x1
 4828 0777 17       		.byte	0x17
 4829 0778 00       		.byte	0
 4830 0779 17       		.uleb128 0x17
 4831 077a 330A0000 		.4byte	.LASF116
 4832 077e 02       		.byte	0x2
 4833 077f 27       		.byte	0x27
 4834 0780 2C000000 		.4byte	0x2c
 4835 0784 04       		.byte	0x4
 4836 0785 01       		.byte	0x1
 4837 0786 16       		.byte	0x16
 4838 0787 00       		.byte	0
 4839 0788 17       		.uleb128 0x17
 4840 0789 28000000 		.4byte	.LASF117
 4841 078d 02       		.byte	0x2
 4842 078e 28       		.byte	0x28
 4843 078f 2C000000 		.4byte	0x2c
 4844 0793 04       		.byte	0x4
 4845 0794 01       		.byte	0x1
 4846 0795 15       		.byte	0x15
 4847 0796 00       		.byte	0
 4848 0797 17       		.uleb128 0x17
 4849 0798 EE0B0000 		.4byte	.LASF118
 4850 079c 02       		.byte	0x2
 4851 079d 29       		.byte	0x29
 4852 079e 2C000000 		.4byte	0x2c
 4853 07a2 04       		.byte	0x4
ARM GAS  C:\Users\164\AppData\Local\Temp\ccvDnxKa.s 			page 125


 4854 07a3 01       		.byte	0x1
 4855 07a4 14       		.byte	0x14
 4856 07a5 00       		.byte	0
 4857 07a6 0B       		.uleb128 0xb
 4858 07a7 32080000 		.4byte	.LASF119
 4859 07ab 02       		.byte	0x2
 4860 07ac 2A       		.byte	0x2a
 4861 07ad 25000000 		.4byte	0x25
 4862 07b1 04       		.byte	0x4
 4863 07b2 0B       		.uleb128 0xb
 4864 07b3 51010000 		.4byte	.LASF120
 4865 07b7 02       		.byte	0x2
 4866 07b8 2B       		.byte	0x2b
 4867 07b9 25000000 		.4byte	0x25
 4868 07bd 08       		.byte	0x8
 4869 07be 00       		.byte	0
 4870 07bf 0E       		.uleb128 0xe
 4871 07c0 FD0E0000 		.4byte	.LASF121
 4872 07c4 1C       		.byte	0x1c
 4873 07c5 02       		.byte	0x2
 4874 07c6 1E       		.byte	0x1e
 4875 07c7 06080000 		.4byte	0x806
 4876 07cb 0C       		.uleb128 0xc
 4877 07cc 62756600 		.ascii	"buf\000"
 4878 07d0 02       		.byte	0x2
 4879 07d1 1F       		.byte	0x1f
 4880 07d2 C8000000 		.4byte	0xc8
 4881 07d6 00       		.byte	0
 4882 07d7 0B       		.uleb128 0xb
 4883 07d8 EF050000 		.4byte	.LASF122
 4884 07dc 02       		.byte	0x2
 4885 07dd 20       		.byte	0x20
 4886 07de D5000000 		.4byte	0xd5
 4887 07e2 04       		.byte	0x4
 4888 07e3 0C       		.uleb128 0xc
 4889 07e4 7000     		.ascii	"p\000"
 4890 07e6 02       		.byte	0x2
 4891 07e7 21       		.byte	0x21
 4892 07e8 C8000000 		.4byte	0xc8
 4893 07ec 08       		.byte	0x8
 4894 07ed 0B       		.uleb128 0xb
 4895 07ee FB090000 		.4byte	.LASF123
 4896 07f2 02       		.byte	0x2
 4897 07f3 22       		.byte	0x22
 4898 07f4 D5000000 		.4byte	0xd5
 4899 07f8 0C       		.byte	0xc
 4900 07f9 0C       		.uleb128 0xc
 4901 07fa 666D7400 		.ascii	"fmt\000"
 4902 07fe 02       		.byte	0x2
 4903 07ff 2C       		.byte	0x2c
 4904 0800 52070000 		.4byte	0x752
 4905 0804 10       		.byte	0x10
 4906 0805 00       		.byte	0
 4907 0806 04       		.uleb128 0x4
 4908 0807 F70C0000 		.4byte	.LASF124
 4909 080b 02       		.byte	0x2
 4910 080c 2D       		.byte	0x2d
ARM GAS  C:\Users\164\AppData\Local\Temp\ccvDnxKa.s 			page 126


 4911 080d BF070000 		.4byte	0x7bf
 4912 0811 1E       		.uleb128 0x1e
 4913 0812 58000000 		.4byte	.LASF318
 4914 0816 01       		.byte	0x1
 4915 0817 5E000000 		.4byte	0x5e
 4916 081b 17       		.byte	0x17
 4917 081c 35       		.byte	0x35
 4918 081d 48090000 		.4byte	0x948
 4919 0821 13       		.uleb128 0x13
 4920 0822 53050000 		.4byte	.LASF125
 4921 0826 00       		.byte	0
 4922 0827 13       		.uleb128 0x13
 4923 0828 B70C0000 		.4byte	.LASF126
 4924 082c 01       		.byte	0x1
 4925 082d 13       		.uleb128 0x13
 4926 082e D2010000 		.4byte	.LASF127
 4927 0832 02       		.byte	0x2
 4928 0833 13       		.uleb128 0x13
 4929 0834 C9010000 		.4byte	.LASF128
 4930 0838 03       		.byte	0x3
 4931 0839 13       		.uleb128 0x13
 4932 083a F1030000 		.4byte	.LASF129
 4933 083e 04       		.byte	0x4
 4934 083f 13       		.uleb128 0x13
 4935 0840 440B0000 		.4byte	.LASF130
 4936 0844 05       		.byte	0x5
 4937 0845 13       		.uleb128 0x13
 4938 0846 960D0000 		.4byte	.LASF131
 4939 084a 06       		.byte	0x6
 4940 084b 13       		.uleb128 0x13
 4941 084c FC010000 		.4byte	.LASF132
 4942 0850 07       		.byte	0x7
 4943 0851 13       		.uleb128 0x13
 4944 0852 C0010000 		.4byte	.LASF133
 4945 0856 08       		.byte	0x8
 4946 0857 13       		.uleb128 0x13
 4947 0858 7B0A0000 		.4byte	.LASF134
 4948 085c 09       		.byte	0x9
 4949 085d 13       		.uleb128 0x13
 4950 085e 46050000 		.4byte	.LASF135
 4951 0862 0A       		.byte	0xa
 4952 0863 13       		.uleb128 0x13
 4953 0864 7A0D0000 		.4byte	.LASF136
 4954 0868 0D       		.byte	0xd
 4955 0869 13       		.uleb128 0x13
 4956 086a 00000000 		.4byte	.LASF137
 4957 086e 0E       		.byte	0xe
 4958 086f 13       		.uleb128 0x13
 4959 0870 E60A0000 		.4byte	.LASF138
 4960 0874 11       		.byte	0x11
 4961 0875 13       		.uleb128 0x13
 4962 0876 540A0000 		.4byte	.LASF139
 4963 087a 12       		.byte	0x12
 4964 087b 13       		.uleb128 0x13
 4965 087c 13070000 		.4byte	.LASF140
 4966 0880 15       		.byte	0x15
 4967 0881 13       		.uleb128 0x13
ARM GAS  C:\Users\164\AppData\Local\Temp\ccvDnxKa.s 			page 127


 4968 0882 06060000 		.4byte	.LASF141
 4969 0886 16       		.byte	0x16
 4970 0887 13       		.uleb128 0x13
 4971 0888 8C070000 		.4byte	.LASF142
 4972 088c 17       		.byte	0x17
 4973 088d 13       		.uleb128 0x13
 4974 088e 000A0000 		.4byte	.LASF143
 4975 0892 18       		.byte	0x18
 4976 0893 13       		.uleb128 0x13
 4977 0894 A6070000 		.4byte	.LASF144
 4978 0898 19       		.byte	0x19
 4979 0899 13       		.uleb128 0x13
 4980 089a E0050000 		.4byte	.LASF145
 4981 089e 20       		.byte	0x20
 4982 089f 13       		.uleb128 0x13
 4983 08a0 E5090000 		.4byte	.LASF146
 4984 08a4 21       		.byte	0x21
 4985 08a5 13       		.uleb128 0x13
 4986 08a6 C7060000 		.4byte	.LASF147
 4987 08aa 23       		.byte	0x23
 4988 08ab 13       		.uleb128 0x13
 4989 08ac 6D090000 		.4byte	.LASF148
 4990 08b0 26       		.byte	0x26
 4991 08b1 13       		.uleb128 0x13
 4992 08b2 A9010000 		.4byte	.LASF149
 4993 08b6 29       		.byte	0x29
 4994 08b7 13       		.uleb128 0x13
 4995 08b8 C9040000 		.4byte	.LASF150
 4996 08bc 2B       		.byte	0x2b
 4997 08bd 13       		.uleb128 0x13
 4998 08be 96050000 		.4byte	.LASF151
 4999 08c2 2C       		.byte	0x2c
 5000 08c3 13       		.uleb128 0x13
 5001 08c4 E10B0000 		.4byte	.LASF152
 5002 08c8 2D       		.byte	0x2d
 5003 08c9 13       		.uleb128 0x13
 5004 08ca A7080000 		.4byte	.LASF153
 5005 08ce 2E       		.byte	0x2e
 5006 08cf 13       		.uleb128 0x13
 5007 08d0 3F030000 		.4byte	.LASF154
 5008 08d4 2F       		.byte	0x2f
 5009 08d5 13       		.uleb128 0x13
 5010 08d6 22050000 		.4byte	.LASF155
 5011 08da 30       		.byte	0x30
 5012 08db 13       		.uleb128 0x13
 5013 08dc 8D010000 		.4byte	.LASF156
 5014 08e0 31       		.byte	0x31
 5015 08e1 13       		.uleb128 0x13
 5016 08e2 0A030000 		.4byte	.LASF157
 5017 08e6 32       		.byte	0x32
 5018 08e7 13       		.uleb128 0x13
 5019 08e8 A9060000 		.4byte	.LASF158
 5020 08ec 33       		.byte	0x33
 5021 08ed 13       		.uleb128 0x13
 5022 08ee 4C060000 		.4byte	.LASF159
 5023 08f2 34       		.byte	0x34
 5024 08f3 13       		.uleb128 0x13
ARM GAS  C:\Users\164\AppData\Local\Temp\ccvDnxKa.s 			page 128


 5025 08f4 22040000 		.4byte	.LASF160
 5026 08f8 35       		.byte	0x35
 5027 08f9 13       		.uleb128 0x13
 5028 08fa FC030000 		.4byte	.LASF161
 5029 08fe 36       		.byte	0x36
 5030 08ff 13       		.uleb128 0x13
 5031 0900 790B0000 		.4byte	.LASF162
 5032 0904 37       		.byte	0x37
 5033 0905 13       		.uleb128 0x13
 5034 0906 700D0000 		.4byte	.LASF163
 5035 090a 3D       		.byte	0x3d
 5036 090b 13       		.uleb128 0x13
 5037 090c AD030000 		.4byte	.LASF164
 5038 0910 3E       		.byte	0x3e
 5039 0911 13       		.uleb128 0x13
 5040 0912 58020000 		.4byte	.LASF165
 5041 0916 3F       		.byte	0x3f
 5042 0917 13       		.uleb128 0x13
 5043 0918 43090000 		.4byte	.LASF166
 5044 091c 40       		.byte	0x40
 5045 091d 13       		.uleb128 0x13
 5046 091e 4E0D0000 		.4byte	.LASF167
 5047 0922 41       		.byte	0x41
 5048 0923 13       		.uleb128 0x13
 5049 0924 0E090000 		.4byte	.LASF168
 5050 0928 43       		.byte	0x43
 5051 0929 13       		.uleb128 0x13
 5052 092a EF0C0000 		.4byte	.LASF169
 5053 092e 45       		.byte	0x45
 5054 092f 13       		.uleb128 0x13
 5055 0930 A70A0000 		.4byte	.LASF170
 5056 0934 46       		.byte	0x46
 5057 0935 13       		.uleb128 0x13
 5058 0936 3E0A0000 		.4byte	.LASF171
 5059 093a 48       		.byte	0x48
 5060 093b 13       		.uleb128 0x13
 5061 093c 24070000 		.4byte	.LASF172
 5062 0940 4A       		.byte	0x4a
 5063 0941 13       		.uleb128 0x13
 5064 0942 ED080000 		.4byte	.LASF173
 5065 0946 50       		.byte	0x50
 5066 0947 00       		.byte	0
 5067 0948 04       		.uleb128 0x4
 5068 0949 80080000 		.4byte	.LASF174
 5069 094d 08       		.byte	0x8
 5070 094e 27       		.byte	0x27
 5071 094f 03050000 		.4byte	0x503
 5072 0953 0E       		.uleb128 0xe
 5073 0954 60060000 		.4byte	.LASF175
 5074 0958 0C       		.byte	0xc
 5075 0959 08       		.byte	0x8
 5076 095a 2E       		.byte	0x2e
 5077 095b 84090000 		.4byte	0x984
 5078 095f 0B       		.uleb128 0xb
 5079 0960 F3060000 		.4byte	.LASF176
 5080 0964 08       		.byte	0x8
 5081 0965 2F       		.byte	0x2f
ARM GAS  C:\Users\164\AppData\Local\Temp\ccvDnxKa.s 			page 129


 5082 0966 84090000 		.4byte	0x984
 5083 096a 00       		.byte	0
 5084 096b 0B       		.uleb128 0xb
 5085 096c 5B010000 		.4byte	.LASF177
 5086 0970 08       		.byte	0x8
 5087 0971 30       		.byte	0x30
 5088 0972 C6060000 		.4byte	0x6c6
 5089 0976 04       		.byte	0x4
 5090 0977 0B       		.uleb128 0xb
 5091 0978 5C030000 		.4byte	.LASF178
 5092 097c 08       		.byte	0x8
 5093 097d 31       		.byte	0x31
 5094 097e C6060000 		.4byte	0x6c6
 5095 0982 08       		.byte	0x8
 5096 0983 00       		.byte	0
 5097 0984 06       		.uleb128 0x6
 5098 0985 04       		.byte	0x4
 5099 0986 48090000 		.4byte	0x948
 5100 098a 04       		.uleb128 0x4
 5101 098b 5F000000 		.4byte	.LASF179
 5102 098f 08       		.byte	0x8
 5103 0990 32       		.byte	0x32
 5104 0991 53090000 		.4byte	0x953
 5105 0995 1F       		.uleb128 0x1f
 5106 0996 AF060000 		.4byte	.LASF180
 5107 099a 02       		.byte	0x2
 5108 099b 63       		.byte	0x63
 5109 099c 03       		.byte	0x3
 5110 099d CD090000 		.4byte	0x9cd
 5111 09a1 20       		.uleb128 0x20
 5112 09a2 706600   		.ascii	"pf\000"
 5113 09a5 02       		.byte	0x2
 5114 09a6 63       		.byte	0x63
 5115 09a7 CD090000 		.4byte	0x9cd
 5116 09ab 20       		.uleb128 0x20
 5117 09ac 62756600 		.ascii	"buf\000"
 5118 09b0 02       		.byte	0x2
 5119 09b1 63       		.byte	0x63
 5120 09b2 C8000000 		.4byte	0xc8
 5121 09b6 21       		.uleb128 0x21
 5122 09b7 BE0A0000 		.4byte	.LASF80
 5123 09bb 02       		.byte	0x2
 5124 09bc 63       		.byte	0x63
 5125 09bd 25000000 		.4byte	0x25
 5126 09c1 21       		.uleb128 0x21
 5127 09c2 FB090000 		.4byte	.LASF123
 5128 09c6 02       		.byte	0x2
 5129 09c7 64       		.byte	0x64
 5130 09c8 D5000000 		.4byte	0xd5
 5131 09cc 00       		.byte	0
 5132 09cd 06       		.uleb128 0x6
 5133 09ce 04       		.byte	0x4
 5134 09cf 06080000 		.4byte	0x806
 5135 09d3 1F       		.uleb128 0x1f
 5136 09d4 AE090000 		.4byte	.LASF181
 5137 09d8 02       		.byte	0x2
 5138 09d9 7D       		.byte	0x7d
ARM GAS  C:\Users\164\AppData\Local\Temp\ccvDnxKa.s 			page 130


 5139 09da 03       		.byte	0x3
 5140 09db EA090000 		.4byte	0x9ea
 5141 09df 20       		.uleb128 0x20
 5142 09e0 706600   		.ascii	"pf\000"
 5143 09e3 02       		.byte	0x2
 5144 09e4 7D       		.byte	0x7d
 5145 09e5 CD090000 		.4byte	0x9cd
 5146 09e9 00       		.byte	0
 5147 09ea 1F       		.uleb128 0x1f
 5148 09eb E10E0000 		.4byte	.LASF182
 5149 09ef 03       		.byte	0x3
 5150 09f0 C7       		.byte	0xc7
 5151 09f1 03       		.byte	0x3
 5152 09f2 120A0000 		.4byte	0xa12
 5153 09f6 20       		.uleb128 0x20
 5154 09f7 7600     		.ascii	"v\000"
 5155 09f9 03       		.byte	0x3
 5156 09fa C7       		.byte	0xc7
 5157 09fb 01010000 		.4byte	0x101
 5158 09ff 20       		.uleb128 0x20
 5159 0a00 6400     		.ascii	"d\000"
 5160 0a02 03       		.byte	0x3
 5161 0a03 C7       		.byte	0xc7
 5162 0a04 C6000000 		.4byte	0xc6
 5163 0a08 22       		.uleb128 0x22
 5164 0a09 7000     		.ascii	"p\000"
 5165 0a0b 03       		.byte	0x3
 5166 0a0c C9       		.byte	0xc9
 5167 0a0d 43060000 		.4byte	0x643
 5168 0a11 00       		.byte	0
 5169 0a12 1F       		.uleb128 0x1f
 5170 0a13 280C0000 		.4byte	.LASF183
 5171 0a17 03       		.byte	0x3
 5172 0a18 B4       		.byte	0xb4
 5173 0a19 03       		.byte	0x3
 5174 0a1a 3A0A0000 		.4byte	0xa3a
 5175 0a1e 20       		.uleb128 0x20
 5176 0a1f 7600     		.ascii	"v\000"
 5177 0a21 03       		.byte	0x3
 5178 0a22 B4       		.byte	0xb4
 5179 0a23 17010000 		.4byte	0x117
 5180 0a27 20       		.uleb128 0x20
 5181 0a28 6400     		.ascii	"d\000"
 5182 0a2a 03       		.byte	0x3
 5183 0a2b B4       		.byte	0xb4
 5184 0a2c C6000000 		.4byte	0xc6
 5185 0a30 22       		.uleb128 0x22
 5186 0a31 7000     		.ascii	"p\000"
 5187 0a33 03       		.byte	0x3
 5188 0a34 B6       		.byte	0xb6
 5189 0a35 43060000 		.4byte	0x643
 5190 0a39 00       		.byte	0
 5191 0a3a 23       		.uleb128 0x23
 5192 0a3b D60C0000 		.4byte	.LASF185
 5193 0a3f 04       		.byte	0x4
 5194 0a40 26       		.byte	0x26
 5195 0a41 D5000000 		.4byte	0xd5
ARM GAS  C:\Users\164\AppData\Local\Temp\ccvDnxKa.s 			page 131


 5196 0a45 03       		.byte	0x3
 5197 0a46 540A0000 		.4byte	0xa54
 5198 0a4a 20       		.uleb128 0x20
 5199 0a4b 7600     		.ascii	"v\000"
 5200 0a4d 04       		.byte	0x4
 5201 0a4e 26       		.byte	0x26
 5202 0a4f 540A0000 		.4byte	0xa54
 5203 0a53 00       		.byte	0
 5204 0a54 06       		.uleb128 0x6
 5205 0a55 04       		.byte	0x4
 5206 0a56 5A0A0000 		.4byte	0xa5a
 5207 0a5a 07       		.uleb128 0x7
 5208 0a5b 5F050000 		.4byte	0x55f
 5209 0a5f 1F       		.uleb128 0x1f
 5210 0a60 1B030000 		.4byte	.LASF184
 5211 0a64 02       		.byte	0x2
 5212 0a65 3E       		.byte	0x3e
 5213 0a66 03       		.byte	0x3
 5214 0a67 750A0000 		.4byte	0xa75
 5215 0a6b 20       		.uleb128 0x20
 5216 0a6c 6300     		.ascii	"c\000"
 5217 0a6e 02       		.byte	0x2
 5218 0a6f 3E       		.byte	0x3e
 5219 0a70 CE000000 		.4byte	0xce
 5220 0a74 00       		.byte	0
 5221 0a75 23       		.uleb128 0x23
 5222 0a76 EC010000 		.4byte	.LASF186
 5223 0a7a 05       		.byte	0x5
 5224 0a7b 3A       		.byte	0x3a
 5225 0a7c 25000000 		.4byte	0x25
 5226 0a80 03       		.byte	0x3
 5227 0a81 910A0000 		.4byte	0xa91
 5228 0a85 20       		.uleb128 0x20
 5229 0a86 61727900 		.ascii	"ary\000"
 5230 0a8a 05       		.byte	0x5
 5231 0a8b 3A       		.byte	0x3a
 5232 0a8c 540A0000 		.4byte	0xa54
 5233 0a90 00       		.byte	0
 5234 0a91 23       		.uleb128 0x23
 5235 0a92 680B0000 		.4byte	.LASF187
 5236 0a96 06       		.byte	0x6
 5237 0a97 46       		.byte	0x46
 5238 0a98 25000000 		.4byte	0x25
 5239 0a9c 03       		.byte	0x3
 5240 0a9d AD0A0000 		.4byte	0xaad
 5241 0aa1 20       		.uleb128 0x20
 5242 0aa2 73747200 		.ascii	"str\000"
 5243 0aa6 06       		.byte	0x6
 5244 0aa7 46       		.byte	0x46
 5245 0aa8 540A0000 		.4byte	0xa54
 5246 0aac 00       		.byte	0
 5247 0aad 1F       		.uleb128 0x1f
 5248 0aae 230D0000 		.4byte	.LASF188
 5249 0ab2 02       		.byte	0x2
 5250 0ab3 55       		.byte	0x55
 5251 0ab4 03       		.byte	0x3
 5252 0ab5 D00A0000 		.4byte	0xad0
ARM GAS  C:\Users\164\AppData\Local\Temp\ccvDnxKa.s 			page 132


 5253 0ab9 20       		.uleb128 0x20
 5254 0aba 73747200 		.ascii	"str\000"
 5255 0abe 02       		.byte	0x2
 5256 0abf 55       		.byte	0x55
 5257 0ac0 D5000000 		.4byte	0xd5
 5258 0ac4 21       		.uleb128 0x21
 5259 0ac5 BE0A0000 		.4byte	.LASF80
 5260 0ac9 02       		.byte	0x2
 5261 0aca 55       		.byte	0x55
 5262 0acb 25000000 		.4byte	0x25
 5263 0acf 00       		.byte	0
 5264 0ad0 23       		.uleb128 0x23
 5265 0ad1 7B070000 		.4byte	.LASF189
 5266 0ad5 06       		.byte	0x6
 5267 0ad6 4E       		.byte	0x4e
 5268 0ad7 C8000000 		.4byte	0xc8
 5269 0adb 03       		.byte	0x3
 5270 0adc EA0A0000 		.4byte	0xaea
 5271 0ae0 20       		.uleb128 0x20
 5272 0ae1 7600     		.ascii	"v\000"
 5273 0ae3 06       		.byte	0x6
 5274 0ae4 4E       		.byte	0x4e
 5275 0ae5 540A0000 		.4byte	0xa54
 5276 0ae9 00       		.byte	0
 5277 0aea 23       		.uleb128 0x23
 5278 0aeb 17090000 		.4byte	.LASF190
 5279 0aef 07       		.byte	0x7
 5280 0af0 40       		.byte	0x40
 5281 0af1 25000000 		.4byte	0x25
 5282 0af5 03       		.byte	0x3
 5283 0af6 040B0000 		.4byte	0xb04
 5284 0afa 20       		.uleb128 0x20
 5285 0afb 7600     		.ascii	"v\000"
 5286 0afd 07       		.byte	0x7
 5287 0afe 40       		.byte	0x40
 5288 0aff 540A0000 		.4byte	0xa54
 5289 0b03 00       		.byte	0
 5290 0b04 23       		.uleb128 0x23
 5291 0b05 3A070000 		.4byte	.LASF191
 5292 0b09 07       		.byte	0x7
 5293 0b0a 30       		.byte	0x30
 5294 0b0b 5F050000 		.4byte	0x55f
 5295 0b0f 03       		.byte	0x3
 5296 0b10 1E0B0000 		.4byte	0xb1e
 5297 0b14 20       		.uleb128 0x20
 5298 0b15 7600     		.ascii	"v\000"
 5299 0b17 07       		.byte	0x7
 5300 0b18 30       		.byte	0x30
 5301 0b19 540A0000 		.4byte	0xa54
 5302 0b1d 00       		.byte	0
 5303 0b1e 23       		.uleb128 0x23
 5304 0b1f 4B0C0000 		.4byte	.LASF192
 5305 0b23 07       		.byte	0x7
 5306 0b24 38       		.byte	0x38
 5307 0b25 5F050000 		.4byte	0x55f
 5308 0b29 03       		.byte	0x3
 5309 0b2a 380B0000 		.4byte	0xb38
ARM GAS  C:\Users\164\AppData\Local\Temp\ccvDnxKa.s 			page 133


 5310 0b2e 20       		.uleb128 0x20
 5311 0b2f 7600     		.ascii	"v\000"
 5312 0b31 07       		.byte	0x7
 5313 0b32 38       		.byte	0x38
 5314 0b33 540A0000 		.4byte	0xa54
 5315 0b37 00       		.byte	0
 5316 0b38 23       		.uleb128 0x23
 5317 0b39 60020000 		.4byte	.LASF193
 5318 0b3d 08       		.byte	0x8
 5319 0b3e 5C       		.byte	0x5c
 5320 0b3f 8A090000 		.4byte	0x98a
 5321 0b43 03       		.byte	0x3
 5322 0b44 5D0B0000 		.4byte	0xb5d
 5323 0b48 20       		.uleb128 0x20
 5324 0b49 7600     		.ascii	"v\000"
 5325 0b4b 08       		.byte	0x8
 5326 0b4c 5C       		.byte	0x5c
 5327 0b4d C6060000 		.4byte	0x6c6
 5328 0b51 22       		.uleb128 0x22
 5329 0b52 69746500 		.ascii	"ite\000"
 5330 0b56 08       		.byte	0x8
 5331 0b57 5E       		.byte	0x5e
 5332 0b58 8A090000 		.4byte	0x98a
 5333 0b5c 00       		.byte	0
 5334 0b5d 23       		.uleb128 0x23
 5335 0b5e B30D0000 		.4byte	.LASF194
 5336 0b62 08       		.byte	0x8
 5337 0b63 69       		.byte	0x69
 5338 0b64 25000000 		.4byte	0x25
 5339 0b68 03       		.byte	0x3
 5340 0b69 790B0000 		.4byte	0xb79
 5341 0b6d 20       		.uleb128 0x20
 5342 0b6e 69746500 		.ascii	"ite\000"
 5343 0b72 08       		.byte	0x8
 5344 0b73 69       		.byte	0x69
 5345 0b74 790B0000 		.4byte	0xb79
 5346 0b78 00       		.byte	0
 5347 0b79 06       		.uleb128 0x6
 5348 0b7a 04       		.byte	0x4
 5349 0b7b 8A090000 		.4byte	0x98a
 5350 0b7f 23       		.uleb128 0x23
 5351 0b80 20060000 		.4byte	.LASF195
 5352 0b84 08       		.byte	0x8
 5353 0b85 71       		.byte	0x71
 5354 0b86 C6060000 		.4byte	0x6c6
 5355 0b8a 03       		.byte	0x3
 5356 0b8b A60B0000 		.4byte	0xba6
 5357 0b8f 20       		.uleb128 0x20
 5358 0b90 69746500 		.ascii	"ite\000"
 5359 0b94 08       		.byte	0x8
 5360 0b95 71       		.byte	0x71
 5361 0b96 790B0000 		.4byte	0xb79
 5362 0b9a 22       		.uleb128 0x22
 5363 0b9b 72657400 		.ascii	"ret\000"
 5364 0b9f 08       		.byte	0x8
 5365 0ba0 73       		.byte	0x73
 5366 0ba1 C6060000 		.4byte	0x6c6
ARM GAS  C:\Users\164\AppData\Local\Temp\ccvDnxKa.s 			page 134


 5367 0ba5 00       		.byte	0
 5368 0ba6 24       		.uleb128 0x24
 5369 0ba7 63040000 		.4byte	.LASF199
 5370 0bab 01       		.byte	0x1
 5371 0bac 6B03     		.2byte	0x36b
 5372 0bae 00000000 		.4byte	.LFB124
 5373 0bb2 06000000 		.4byte	.LFE124-.LFB124
 5374 0bb6 01       		.uleb128 0x1
 5375 0bb7 9C       		.byte	0x9c
 5376 0bb8 E40B0000 		.4byte	0xbe4
 5377 0bbc 25       		.uleb128 0x25
 5378 0bbd 766D00   		.ascii	"vm\000"
 5379 0bc0 01       		.byte	0x1
 5380 0bc1 6B03     		.2byte	0x36b
 5381 0bc3 7B010000 		.4byte	0x17b
 5382 0bc7 01       		.uleb128 0x1
 5383 0bc8 50       		.byte	0x50
 5384 0bc9 25       		.uleb128 0x25
 5385 0bca 7600     		.ascii	"v\000"
 5386 0bcc 01       		.byte	0x1
 5387 0bcd 6B03     		.2byte	0x36b
 5388 0bcf C6060000 		.4byte	0x6c6
 5389 0bd3 01       		.uleb128 0x1
 5390 0bd4 51       		.byte	0x51
 5391 0bd5 26       		.uleb128 0x26
 5392 0bd6 76070000 		.4byte	.LASF196
 5393 0bda 01       		.byte	0x1
 5394 0bdb 6B03     		.2byte	0x36b
 5395 0bdd 25000000 		.4byte	0x25
 5396 0be1 01       		.uleb128 0x1
 5397 0be2 52       		.byte	0x52
 5398 0be3 00       		.byte	0
 5399 0be4 27       		.uleb128 0x27
 5400 0be5 D40D0000 		.4byte	.LASF197
 5401 0be9 01       		.byte	0x1
 5402 0bea D003     		.2byte	0x3d0
 5403 0bec 00000000 		.4byte	.LFB132
 5404 0bf0 02000000 		.4byte	.LFE132-.LFB132
 5405 0bf4 01       		.uleb128 0x1
 5406 0bf5 9C       		.byte	0x9c
 5407 0bf6 220C0000 		.4byte	0xc22
 5408 0bfa 25       		.uleb128 0x25
 5409 0bfb 766D00   		.ascii	"vm\000"
 5410 0bfe 01       		.byte	0x1
 5411 0bff D003     		.2byte	0x3d0
 5412 0c01 7B010000 		.4byte	0x17b
 5413 0c05 01       		.uleb128 0x1
 5414 0c06 50       		.byte	0x50
 5415 0c07 25       		.uleb128 0x25
 5416 0c08 7600     		.ascii	"v\000"
 5417 0c0a 01       		.byte	0x1
 5418 0c0b D003     		.2byte	0x3d0
 5419 0c0d C6060000 		.4byte	0x6c6
 5420 0c11 01       		.uleb128 0x1
 5421 0c12 51       		.byte	0x51
 5422 0c13 26       		.uleb128 0x26
 5423 0c14 76070000 		.4byte	.LASF196
ARM GAS  C:\Users\164\AppData\Local\Temp\ccvDnxKa.s 			page 135


 5424 0c18 01       		.byte	0x1
 5425 0c19 D003     		.2byte	0x3d0
 5426 0c1b 25000000 		.4byte	0x25
 5427 0c1f 01       		.uleb128 0x1
 5428 0c20 52       		.byte	0x52
 5429 0c21 00       		.byte	0
 5430 0c22 27       		.uleb128 0x27
 5431 0c23 B50E0000 		.4byte	.LASF198
 5432 0c27 01       		.byte	0x1
 5433 0c28 3A03     		.2byte	0x33a
 5434 0c2a 00000000 		.4byte	.LFB121
 5435 0c2e 1C000000 		.4byte	.LFE121-.LFB121
 5436 0c32 01       		.uleb128 0x1
 5437 0c33 9C       		.byte	0x9c
 5438 0c34 7D0C0000 		.4byte	0xc7d
 5439 0c38 28       		.uleb128 0x28
 5440 0c39 766D00   		.ascii	"vm\000"
 5441 0c3c 01       		.byte	0x1
 5442 0c3d 3A03     		.2byte	0x33a
 5443 0c3f 7B010000 		.4byte	0x17b
 5444 0c43 00000000 		.4byte	.LLST0
 5445 0c47 28       		.uleb128 0x28
 5446 0c48 7600     		.ascii	"v\000"
 5447 0c4a 01       		.byte	0x1
 5448 0c4b 3A03     		.2byte	0x33a
 5449 0c4d C6060000 		.4byte	0x6c6
 5450 0c51 1E000000 		.4byte	.LLST1
 5451 0c55 29       		.uleb128 0x29
 5452 0c56 76070000 		.4byte	.LASF196
 5453 0c5a 01       		.byte	0x1
 5454 0c5b 3A03     		.2byte	0x33a
 5455 0c5d 25000000 		.4byte	0x25
 5456 0c61 3C000000 		.4byte	.LLST2
 5457 0c65 2A       		.uleb128 0x2a
 5458 0c66 0C000000 		.4byte	.LVL4
 5459 0c6a 14330000 		.4byte	0x3314
 5460 0c6e 2B       		.uleb128 0x2b
 5461 0c6f 01       		.uleb128 0x1
 5462 0c70 50       		.byte	0x50
 5463 0c71 02       		.uleb128 0x2
 5464 0c72 74       		.byte	0x74
 5465 0c73 00       		.sleb128 0
 5466 0c74 2B       		.uleb128 0x2b
 5467 0c75 01       		.uleb128 0x1
 5468 0c76 51       		.byte	0x51
 5469 0c77 03       		.uleb128 0x3
 5470 0c78 F3       		.byte	0xf3
 5471 0c79 01       		.uleb128 0x1
 5472 0c7a 52       		.byte	0x52
 5473 0c7b 00       		.byte	0
 5474 0c7c 00       		.byte	0
 5475 0c7d 24       		.uleb128 0x24
 5476 0c7e 2C070000 		.4byte	.LASF200
 5477 0c82 01       		.byte	0x1
 5478 0c83 7503     		.2byte	0x375
 5479 0c85 00000000 		.4byte	.LFB125
 5480 0c89 20000000 		.4byte	.LFE125-.LFB125
ARM GAS  C:\Users\164\AppData\Local\Temp\ccvDnxKa.s 			page 136


 5481 0c8d 01       		.uleb128 0x1
 5482 0c8e 9C       		.byte	0x9c
 5483 0c8f E10C0000 		.4byte	0xce1
 5484 0c93 28       		.uleb128 0x28
 5485 0c94 766D00   		.ascii	"vm\000"
 5486 0c97 01       		.byte	0x1
 5487 0c98 7503     		.2byte	0x375
 5488 0c9a 7B010000 		.4byte	0x17b
 5489 0c9e 5D000000 		.4byte	.LLST3
 5490 0ca2 28       		.uleb128 0x28
 5491 0ca3 7600     		.ascii	"v\000"
 5492 0ca5 01       		.byte	0x1
 5493 0ca6 7503     		.2byte	0x375
 5494 0ca8 C6060000 		.4byte	0x6c6
 5495 0cac 89000000 		.4byte	.LLST4
 5496 0cb0 29       		.uleb128 0x29
 5497 0cb1 76070000 		.4byte	.LASF196
 5498 0cb5 01       		.byte	0x1
 5499 0cb6 7503     		.2byte	0x375
 5500 0cb8 25000000 		.4byte	0x25
 5501 0cbc B5000000 		.4byte	.LLST5
 5502 0cc0 2A       		.uleb128 0x2a
 5503 0cc1 10000000 		.4byte	.LVL9
 5504 0cc5 1F330000 		.4byte	0x331f
 5505 0cc9 2B       		.uleb128 0x2b
 5506 0cca 01       		.uleb128 0x1
 5507 0ccb 50       		.byte	0x50
 5508 0ccc 02       		.uleb128 0x2
 5509 0ccd 7D       		.byte	0x7d
 5510 0cce 00       		.sleb128 0
 5511 0ccf 2B       		.uleb128 0x2b
 5512 0cd0 01       		.uleb128 0x1
 5513 0cd1 51       		.byte	0x51
 5514 0cd2 03       		.uleb128 0x3
 5515 0cd3 F3       		.byte	0xf3
 5516 0cd4 01       		.uleb128 0x1
 5517 0cd5 50       		.byte	0x50
 5518 0cd6 2B       		.uleb128 0x2b
 5519 0cd7 01       		.uleb128 0x1
 5520 0cd8 52       		.byte	0x52
 5521 0cd9 05       		.uleb128 0x5
 5522 0cda 03       		.byte	0x3
 5523 0cdb 00000000 		.4byte	.LC0
 5524 0cdf 00       		.byte	0
 5525 0ce0 00       		.byte	0
 5526 0ce1 24       		.uleb128 0x24
 5527 0ce2 29050000 		.4byte	.LASF201
 5528 0ce6 01       		.byte	0x1
 5529 0ce7 9C03     		.2byte	0x39c
 5530 0ce9 00000000 		.4byte	.LFB128
 5531 0ced 20000000 		.4byte	.LFE128-.LFB128
 5532 0cf1 01       		.uleb128 0x1
 5533 0cf2 9C       		.byte	0x9c
 5534 0cf3 450D0000 		.4byte	0xd45
 5535 0cf7 28       		.uleb128 0x28
 5536 0cf8 766D00   		.ascii	"vm\000"
 5537 0cfb 01       		.byte	0x1
ARM GAS  C:\Users\164\AppData\Local\Temp\ccvDnxKa.s 			page 137


 5538 0cfc 9C03     		.2byte	0x39c
 5539 0cfe 7B010000 		.4byte	0x17b
 5540 0d02 D6000000 		.4byte	.LLST6
 5541 0d06 28       		.uleb128 0x28
 5542 0d07 7600     		.ascii	"v\000"
 5543 0d09 01       		.byte	0x1
 5544 0d0a 9C03     		.2byte	0x39c
 5545 0d0c C6060000 		.4byte	0x6c6
 5546 0d10 02010000 		.4byte	.LLST7
 5547 0d14 29       		.uleb128 0x29
 5548 0d15 76070000 		.4byte	.LASF196
 5549 0d19 01       		.byte	0x1
 5550 0d1a 9C03     		.2byte	0x39c
 5551 0d1c 25000000 		.4byte	0x25
 5552 0d20 2E010000 		.4byte	.LLST8
 5553 0d24 2A       		.uleb128 0x2a
 5554 0d25 10000000 		.4byte	.LVL15
 5555 0d29 1F330000 		.4byte	0x331f
 5556 0d2d 2B       		.uleb128 0x2b
 5557 0d2e 01       		.uleb128 0x1
 5558 0d2f 50       		.byte	0x50
 5559 0d30 02       		.uleb128 0x2
 5560 0d31 7D       		.byte	0x7d
 5561 0d32 00       		.sleb128 0
 5562 0d33 2B       		.uleb128 0x2b
 5563 0d34 01       		.uleb128 0x1
 5564 0d35 51       		.byte	0x51
 5565 0d36 03       		.uleb128 0x3
 5566 0d37 F3       		.byte	0xf3
 5567 0d38 01       		.uleb128 0x1
 5568 0d39 50       		.byte	0x50
 5569 0d3a 2B       		.uleb128 0x2b
 5570 0d3b 01       		.uleb128 0x1
 5571 0d3c 52       		.byte	0x52
 5572 0d3d 05       		.uleb128 0x5
 5573 0d3e 03       		.byte	0x3
 5574 0d3f 04000000 		.4byte	.LC1
 5575 0d43 00       		.byte	0
 5576 0d44 00       		.byte	0
 5577 0d45 24       		.uleb128 0x24
 5578 0d46 C30A0000 		.4byte	.LASF202
 5579 0d4a 01       		.byte	0x1
 5580 0d4b BA03     		.2byte	0x3ba
 5581 0d4d 00000000 		.4byte	.LFB130
 5582 0d51 20000000 		.4byte	.LFE130-.LFB130
 5583 0d55 01       		.uleb128 0x1
 5584 0d56 9C       		.byte	0x9c
 5585 0d57 A90D0000 		.4byte	0xda9
 5586 0d5b 28       		.uleb128 0x28
 5587 0d5c 766D00   		.ascii	"vm\000"
 5588 0d5f 01       		.byte	0x1
 5589 0d60 BA03     		.2byte	0x3ba
 5590 0d62 7B010000 		.4byte	0x17b
 5591 0d66 4F010000 		.4byte	.LLST9
 5592 0d6a 28       		.uleb128 0x28
 5593 0d6b 7600     		.ascii	"v\000"
 5594 0d6d 01       		.byte	0x1
ARM GAS  C:\Users\164\AppData\Local\Temp\ccvDnxKa.s 			page 138


 5595 0d6e BA03     		.2byte	0x3ba
 5596 0d70 C6060000 		.4byte	0x6c6
 5597 0d74 7B010000 		.4byte	.LLST10
 5598 0d78 29       		.uleb128 0x29
 5599 0d79 76070000 		.4byte	.LASF196
 5600 0d7d 01       		.byte	0x1
 5601 0d7e BA03     		.2byte	0x3ba
 5602 0d80 25000000 		.4byte	0x25
 5603 0d84 A7010000 		.4byte	.LLST11
 5604 0d88 2A       		.uleb128 0x2a
 5605 0d89 10000000 		.4byte	.LVL21
 5606 0d8d 1F330000 		.4byte	0x331f
 5607 0d91 2B       		.uleb128 0x2b
 5608 0d92 01       		.uleb128 0x1
 5609 0d93 50       		.byte	0x50
 5610 0d94 02       		.uleb128 0x2
 5611 0d95 7D       		.byte	0x7d
 5612 0d96 00       		.sleb128 0
 5613 0d97 2B       		.uleb128 0x2b
 5614 0d98 01       		.uleb128 0x1
 5615 0d99 51       		.byte	0x51
 5616 0d9a 03       		.uleb128 0x3
 5617 0d9b F3       		.byte	0xf3
 5618 0d9c 01       		.uleb128 0x1
 5619 0d9d 50       		.byte	0x50
 5620 0d9e 2B       		.uleb128 0x2b
 5621 0d9f 01       		.uleb128 0x1
 5622 0da0 52       		.byte	0x52
 5623 0da1 05       		.uleb128 0x5
 5624 0da2 03       		.byte	0x3
 5625 0da3 0C000000 		.4byte	.LC2
 5626 0da7 00       		.byte	0
 5627 0da8 00       		.byte	0
 5628 0da9 24       		.uleb128 0x24
 5629 0daa BE080000 		.4byte	.LASF203
 5630 0dae 01       		.byte	0x1
 5631 0daf 1802     		.2byte	0x218
 5632 0db1 00000000 		.4byte	.LFB108
 5633 0db5 10000000 		.4byte	.LFE108-.LFB108
 5634 0db9 01       		.uleb128 0x1
 5635 0dba 9C       		.byte	0x9c
 5636 0dbb FD0D0000 		.4byte	0xdfd
 5637 0dbf 28       		.uleb128 0x28
 5638 0dc0 766D00   		.ascii	"vm\000"
 5639 0dc3 01       		.byte	0x1
 5640 0dc4 1802     		.2byte	0x218
 5641 0dc6 7B010000 		.4byte	0x17b
 5642 0dca C8010000 		.4byte	.LLST12
 5643 0dce 28       		.uleb128 0x28
 5644 0dcf 7600     		.ascii	"v\000"
 5645 0dd1 01       		.byte	0x1
 5646 0dd2 1802     		.2byte	0x218
 5647 0dd4 C6060000 		.4byte	0x6c6
 5648 0dd8 E9010000 		.4byte	.LLST13
 5649 0ddc 29       		.uleb128 0x29
 5650 0ddd 76070000 		.4byte	.LASF196
 5651 0de1 01       		.byte	0x1
ARM GAS  C:\Users\164\AppData\Local\Temp\ccvDnxKa.s 			page 139


 5652 0de2 1802     		.2byte	0x218
 5653 0de4 25000000 		.4byte	0x25
 5654 0de8 07020000 		.4byte	.LLST14
 5655 0dec 2A       		.uleb128 0x2a
 5656 0ded 0A000000 		.4byte	.LVL25
 5657 0df1 2A330000 		.4byte	0x332a
 5658 0df5 2B       		.uleb128 0x2b
 5659 0df6 01       		.uleb128 0x1
 5660 0df7 50       		.byte	0x50
 5661 0df8 02       		.uleb128 0x2
 5662 0df9 74       		.byte	0x74
 5663 0dfa 00       		.sleb128 0
 5664 0dfb 00       		.byte	0
 5665 0dfc 00       		.byte	0
 5666 0dfd 24       		.uleb128 0x24
 5667 0dfe 840E0000 		.4byte	.LASF204
 5668 0e02 01       		.byte	0x1
 5669 0e03 4803     		.2byte	0x348
 5670 0e05 00000000 		.4byte	.LFB122
 5671 0e09 5C000000 		.4byte	.LFE122-.LFB122
 5672 0e0d 01       		.uleb128 0x1
 5673 0e0e 9C       		.byte	0x9c
 5674 0e0f 2F0F0000 		.4byte	0xf2f
 5675 0e13 28       		.uleb128 0x28
 5676 0e14 766D00   		.ascii	"vm\000"
 5677 0e17 01       		.byte	0x1
 5678 0e18 4803     		.2byte	0x348
 5679 0e1a 7B010000 		.4byte	0x17b
 5680 0e1e 28020000 		.4byte	.LLST15
 5681 0e22 28       		.uleb128 0x28
 5682 0e23 7600     		.ascii	"v\000"
 5683 0e25 01       		.byte	0x1
 5684 0e26 4803     		.2byte	0x348
 5685 0e28 C6060000 		.4byte	0x6c6
 5686 0e2c 54020000 		.4byte	.LLST16
 5687 0e30 29       		.uleb128 0x29
 5688 0e31 76070000 		.4byte	.LASF196
 5689 0e35 01       		.byte	0x1
 5690 0e36 4803     		.2byte	0x348
 5691 0e38 25000000 		.4byte	0x25
 5692 0e3c 80020000 		.4byte	.LLST17
 5693 0e40 2C       		.uleb128 0x2c
 5694 0e41 62756600 		.ascii	"buf\000"
 5695 0e45 01       		.byte	0x1
 5696 0e46 4B03     		.2byte	0x34b
 5697 0e48 2F0F0000 		.4byte	0xf2f
 5698 0e4c 02       		.uleb128 0x2
 5699 0e4d 91       		.byte	0x91
 5700 0e4e 50       		.sleb128 -48
 5701 0e4f 2C       		.uleb128 0x2c
 5702 0e50 706600   		.ascii	"pf\000"
 5703 0e53 01       		.byte	0x1
 5704 0e54 4C03     		.2byte	0x34c
 5705 0e56 06080000 		.4byte	0x806
 5706 0e5a 03       		.uleb128 0x3
 5707 0e5b 91       		.byte	0x91
 5708 0e5c B47F     		.sleb128 -76
ARM GAS  C:\Users\164\AppData\Local\Temp\ccvDnxKa.s 			page 140


 5709 0e5e 2D       		.uleb128 0x2d
 5710 0e5f 95090000 		.4byte	0x995
 5711 0e63 08000000 		.4byte	.LBB98
 5712 0e67 1A000000 		.4byte	.LBE98-.LBB98
 5713 0e6b 01       		.byte	0x1
 5714 0e6c 4E03     		.2byte	0x34e
 5715 0e6e 970E0000 		.4byte	0xe97
 5716 0e72 2E       		.uleb128 0x2e
 5717 0e73 C1090000 		.4byte	0x9c1
 5718 0e77 06       		.uleb128 0x6
 5719 0e78 03       		.byte	0x3
 5720 0e79 14000000 		.4byte	.LC3
 5721 0e7d 9F       		.byte	0x9f
 5722 0e7e 2F       		.uleb128 0x2f
 5723 0e7f B6090000 		.4byte	0x9b6
 5724 0e83 20       		.byte	0x20
 5725 0e84 30       		.uleb128 0x30
 5726 0e85 AB090000 		.4byte	0x9ab
 5727 0e89 A1020000 		.4byte	.LLST18
 5728 0e8d 30       		.uleb128 0x30
 5729 0e8e A1090000 		.4byte	0x9a1
 5730 0e92 00030000 		.4byte	.LLST19
 5731 0e96 00       		.byte	0
 5732 0e97 2D       		.uleb128 0x2d
 5733 0e98 D3090000 		.4byte	0x9d3
 5734 0e9c 36000000 		.4byte	.LBB100
 5735 0ea0 06000000 		.4byte	.LBE100-.LBB100
 5736 0ea4 01       		.byte	0x1
 5737 0ea5 5203     		.2byte	0x352
 5738 0ea7 B50E0000 		.4byte	0xeb5
 5739 0eab 30       		.uleb128 0x30
 5740 0eac DF090000 		.4byte	0x9df
 5741 0eb0 56030000 		.4byte	.LLST20
 5742 0eb4 00       		.byte	0
 5743 0eb5 31       		.uleb128 0x31
 5744 0eb6 3C000000 		.4byte	.LBB102
 5745 0eba 18000000 		.4byte	.LBE102-.LBB102
 5746 0ebe 030F0000 		.4byte	0xf03
 5747 0ec2 2C       		.uleb128 0x2c
 5748 0ec3 6E6E6E00 		.ascii	"nnn\000"
 5749 0ec7 01       		.byte	0x1
 5750 0ec8 5403     		.2byte	0x354
 5751 0eca 5F050000 		.4byte	0x55f
 5752 0ece 03       		.uleb128 0x3
 5753 0ecf 91       		.byte	0x91
 5754 0ed0 A07F     		.sleb128 -96
 5755 0ed2 32       		.uleb128 0x32
 5756 0ed3 46000000 		.4byte	.LVL38
 5757 0ed7 1F330000 		.4byte	0x331f
 5758 0edb F20E0000 		.4byte	0xef2
 5759 0edf 2B       		.uleb128 0x2b
 5760 0ee0 01       		.uleb128 0x1
 5761 0ee1 50       		.byte	0x50
 5762 0ee2 02       		.uleb128 0x2
 5763 0ee3 7D       		.byte	0x7d
 5764 0ee4 00       		.sleb128 0
 5765 0ee5 2B       		.uleb128 0x2b
ARM GAS  C:\Users\164\AppData\Local\Temp\ccvDnxKa.s 			page 141


 5766 0ee6 01       		.uleb128 0x1
 5767 0ee7 51       		.byte	0x51
 5768 0ee8 02       		.uleb128 0x2
 5769 0ee9 76       		.byte	0x76
 5770 0eea 00       		.sleb128 0
 5771 0eeb 2B       		.uleb128 0x2b
 5772 0eec 01       		.uleb128 0x1
 5773 0eed 52       		.byte	0x52
 5774 0eee 02       		.uleb128 0x2
 5775 0eef 91       		.byte	0x91
 5776 0ef0 50       		.sleb128 -48
 5777 0ef1 00       		.byte	0
 5778 0ef2 2A       		.uleb128 0x2a
 5779 0ef3 4C000000 		.4byte	.LVL39
 5780 0ef7 2A330000 		.4byte	0x332a
 5781 0efb 2B       		.uleb128 0x2b
 5782 0efc 01       		.uleb128 0x1
 5783 0efd 50       		.byte	0x50
 5784 0efe 02       		.uleb128 0x2
 5785 0eff 74       		.byte	0x74
 5786 0f00 00       		.sleb128 0
 5787 0f01 00       		.byte	0
 5788 0f02 00       		.byte	0
 5789 0f03 32       		.uleb128 0x32
 5790 0f04 2C000000 		.4byte	.LVL32
 5791 0f08 35330000 		.4byte	0x3335
 5792 0f0c 1D0F0000 		.4byte	0xf1d
 5793 0f10 2B       		.uleb128 0x2b
 5794 0f11 01       		.uleb128 0x1
 5795 0f12 50       		.byte	0x50
 5796 0f13 03       		.uleb128 0x3
 5797 0f14 91       		.byte	0x91
 5798 0f15 B47F     		.sleb128 -76
 5799 0f17 2B       		.uleb128 0x2b
 5800 0f18 01       		.uleb128 0x1
 5801 0f19 52       		.byte	0x52
 5802 0f1a 01       		.uleb128 0x1
 5803 0f1b 40       		.byte	0x40
 5804 0f1c 00       		.byte	0
 5805 0f1d 2A       		.uleb128 0x2a
 5806 0f1e 32000000 		.4byte	.LVL34
 5807 0f22 40330000 		.4byte	0x3340
 5808 0f26 2B       		.uleb128 0x2b
 5809 0f27 01       		.uleb128 0x1
 5810 0f28 50       		.byte	0x50
 5811 0f29 03       		.uleb128 0x3
 5812 0f2a 91       		.byte	0x91
 5813 0f2b B47F     		.sleb128 -76
 5814 0f2d 00       		.byte	0
 5815 0f2e 00       		.byte	0
 5816 0f2f 19       		.uleb128 0x19
 5817 0f30 CE000000 		.4byte	0xce
 5818 0f34 3F0F0000 		.4byte	0xf3f
 5819 0f38 1B       		.uleb128 0x1b
 5820 0f39 BF000000 		.4byte	0xbf
 5821 0f3d 1F       		.byte	0x1f
 5822 0f3e 00       		.byte	0
ARM GAS  C:\Users\164\AppData\Local\Temp\ccvDnxKa.s 			page 142


 5823 0f3f 23       		.uleb128 0x23
 5824 0f40 090A0000 		.4byte	.LASF205
 5825 0f44 02       		.byte	0x2
 5826 0f45 99       		.byte	0x99
 5827 0f46 25000000 		.4byte	0x25
 5828 0f4a 03       		.byte	0x3
 5829 0f4b 700F0000 		.4byte	0xf70
 5830 0f4f 20       		.uleb128 0x20
 5831 0f50 706600   		.ascii	"pf\000"
 5832 0f53 02       		.byte	0x2
 5833 0f54 99       		.byte	0x99
 5834 0f55 CD090000 		.4byte	0x9cd
 5835 0f59 20       		.uleb128 0x20
 5836 0f5a 73747200 		.ascii	"str\000"
 5837 0f5e 02       		.byte	0x2
 5838 0f5f 99       		.byte	0x99
 5839 0f60 D5000000 		.4byte	0xd5
 5840 0f64 20       		.uleb128 0x20
 5841 0f65 70616400 		.ascii	"pad\000"
 5842 0f69 02       		.byte	0x2
 5843 0f6a 99       		.byte	0x99
 5844 0f6b 25000000 		.4byte	0x25
 5845 0f6f 00       		.byte	0
 5846 0f70 24       		.uleb128 0x24
 5847 0f71 DD060000 		.4byte	.LASF206
 5848 0f75 01       		.byte	0x1
 5849 0f76 D902     		.2byte	0x2d9
 5850 0f78 00000000 		.4byte	.LFB119
 5851 0f7c B0000000 		.4byte	.LFE119-.LFB119
 5852 0f80 01       		.uleb128 0x1
 5853 0f81 9C       		.byte	0x9c
 5854 0f82 28110000 		.4byte	0x1128
 5855 0f86 28       		.uleb128 0x28
 5856 0f87 766D00   		.ascii	"vm\000"
 5857 0f8a 01       		.byte	0x1
 5858 0f8b D902     		.2byte	0x2d9
 5859 0f8d 7B010000 		.4byte	0x17b
 5860 0f91 6C030000 		.4byte	.LLST21
 5861 0f95 28       		.uleb128 0x28
 5862 0f96 7600     		.ascii	"v\000"
 5863 0f98 01       		.byte	0x1
 5864 0f99 D902     		.2byte	0x2d9
 5865 0f9b C6060000 		.4byte	0x6c6
 5866 0f9f C4030000 		.4byte	.LLST22
 5867 0fa3 29       		.uleb128 0x29
 5868 0fa4 76070000 		.4byte	.LASF196
 5869 0fa8 01       		.byte	0x1
 5870 0fa9 D902     		.2byte	0x2d9
 5871 0fab 25000000 		.4byte	0x25
 5872 0faf 1C040000 		.4byte	.LLST23
 5873 0fb3 2C       		.uleb128 0x2c
 5874 0fb4 62756600 		.ascii	"buf\000"
 5875 0fb8 01       		.byte	0x1
 5876 0fb9 DB02     		.2byte	0x2db
 5877 0fbb 2F0F0000 		.4byte	0xf2f
 5878 0fbf 02       		.uleb128 0x2
 5879 0fc0 91       		.byte	0x91
ARM GAS  C:\Users\164\AppData\Local\Temp\ccvDnxKa.s 			page 143


 5880 0fc1 50       		.sleb128 -48
 5881 0fc2 33       		.uleb128 0x33
 5882 0fc3 7300     		.ascii	"s\000"
 5883 0fc5 01       		.byte	0x1
 5884 0fc6 DC02     		.2byte	0x2dc
 5885 0fc8 D5000000 		.4byte	0xd5
 5886 0fcc 6F040000 		.4byte	.LLST24
 5887 0fd0 31       		.uleb128 0x31
 5888 0fd1 24000000 		.4byte	.LBB111
 5889 0fd5 62000000 		.4byte	.LBE111-.LBB111
 5890 0fd9 D6100000 		.4byte	0x10d6
 5891 0fdd 2C       		.uleb128 0x2c
 5892 0fde 706600   		.ascii	"pf\000"
 5893 0fe1 01       		.byte	0x1
 5894 0fe2 E502     		.2byte	0x2e5
 5895 0fe4 06080000 		.4byte	0x806
 5896 0fe8 03       		.uleb128 0x3
 5897 0fe9 91       		.byte	0x91
 5898 0fea B07F     		.sleb128 -80
 5899 0fec 2D       		.uleb128 0x2d
 5900 0fed 95090000 		.4byte	0x995
 5901 0ff1 24000000 		.4byte	.LBB112
 5902 0ff5 1A000000 		.4byte	.LBE112-.LBB112
 5903 0ff9 01       		.byte	0x1
 5904 0ffa E702     		.2byte	0x2e7
 5905 0ffc 25100000 		.4byte	0x1025
 5906 1000 30       		.uleb128 0x30
 5907 1001 C1090000 		.4byte	0x9c1
 5908 1005 E3040000 		.4byte	.LLST25
 5909 1009 30       		.uleb128 0x30
 5910 100a B6090000 		.4byte	0x9b6
 5911 100e FB040000 		.4byte	.LLST26
 5912 1012 30       		.uleb128 0x30
 5913 1013 AB090000 		.4byte	0x9ab
 5914 1017 10050000 		.4byte	.LLST27
 5915 101b 30       		.uleb128 0x30
 5916 101c A1090000 		.4byte	0x9a1
 5917 1020 54050000 		.4byte	.LLST28
 5918 1024 00       		.byte	0
 5919 1025 2D       		.uleb128 0x2d
 5920 1026 3F0F0000 		.4byte	0xf3f
 5921 102a 5A000000 		.4byte	.LBB114
 5922 102e 12000000 		.4byte	.LBE114-.LBB114
 5923 1032 01       		.byte	0x1
 5924 1033 EB02     		.2byte	0x2eb
 5925 1035 85100000 		.4byte	0x1085
 5926 1039 30       		.uleb128 0x30
 5927 103a 640F0000 		.4byte	0xf64
 5928 103e 67050000 		.4byte	.LLST29
 5929 1042 30       		.uleb128 0x30
 5930 1043 590F0000 		.4byte	0xf59
 5931 1047 7C050000 		.4byte	.LLST30
 5932 104b 30       		.uleb128 0x30
 5933 104c 4F0F0000 		.4byte	0xf4f
 5934 1050 9A050000 		.4byte	.LLST31
 5935 1054 32       		.uleb128 0x32
 5936 1055 5E000000 		.4byte	.LVL52
ARM GAS  C:\Users\164\AppData\Local\Temp\ccvDnxKa.s 			page 144


 5937 1059 4B330000 		.4byte	0x334b
 5938 105d 68100000 		.4byte	0x1068
 5939 1061 2B       		.uleb128 0x2b
 5940 1062 01       		.uleb128 0x1
 5941 1063 50       		.byte	0x50
 5942 1064 02       		.uleb128 0x2
 5943 1065 75       		.byte	0x75
 5944 1066 00       		.sleb128 0
 5945 1067 00       		.byte	0
 5946 1068 2A       		.uleb128 0x2a
 5947 1069 6A000000 		.4byte	.LVL53
 5948 106d 56330000 		.4byte	0x3356
 5949 1071 2B       		.uleb128 0x2b
 5950 1072 01       		.uleb128 0x1
 5951 1073 50       		.byte	0x50
 5952 1074 02       		.uleb128 0x2
 5953 1075 7D       		.byte	0x7d
 5954 1076 00       		.sleb128 0
 5955 1077 2B       		.uleb128 0x2b
 5956 1078 01       		.uleb128 0x1
 5957 1079 51       		.byte	0x51
 5958 107a 02       		.uleb128 0x2
 5959 107b 75       		.byte	0x75
 5960 107c 00       		.sleb128 0
 5961 107d 2B       		.uleb128 0x2b
 5962 107e 01       		.uleb128 0x1
 5963 107f 53       		.byte	0x53
 5964 1080 02       		.uleb128 0x2
 5965 1081 08       		.byte	0x8
 5966 1082 20       		.byte	0x20
 5967 1083 00       		.byte	0
 5968 1084 00       		.byte	0
 5969 1085 2D       		.uleb128 0x2d
 5970 1086 D3090000 		.4byte	0x9d3
 5971 108a 80000000 		.4byte	.LBB116
 5972 108e 06000000 		.4byte	.LBE116-.LBB116
 5973 1092 01       		.byte	0x1
 5974 1093 F202     		.2byte	0x2f2
 5975 1095 A3100000 		.4byte	0x10a3
 5976 1099 30       		.uleb128 0x30
 5977 109a DF090000 		.4byte	0x9df
 5978 109e AD050000 		.4byte	.LLST32
 5979 10a2 00       		.byte	0
 5980 10a3 34       		.uleb128 0x34
 5981 10a4 58000000 		.4byte	.LVL50
 5982 10a8 61330000 		.4byte	0x3361
 5983 10ac 32       		.uleb128 0x32
 5984 10ad 76000000 		.4byte	.LVL55
 5985 10b1 35330000 		.4byte	0x3335
 5986 10b5 C5100000 		.4byte	0x10c5
 5987 10b9 2B       		.uleb128 0x2b
 5988 10ba 01       		.uleb128 0x1
 5989 10bb 50       		.byte	0x50
 5990 10bc 02       		.uleb128 0x2
 5991 10bd 7D       		.byte	0x7d
 5992 10be 00       		.sleb128 0
 5993 10bf 2B       		.uleb128 0x2b
ARM GAS  C:\Users\164\AppData\Local\Temp\ccvDnxKa.s 			page 145


 5994 10c0 01       		.uleb128 0x1
 5995 10c1 52       		.byte	0x52
 5996 10c2 01       		.uleb128 0x1
 5997 10c3 40       		.byte	0x40
 5998 10c4 00       		.byte	0
 5999 10c5 2A       		.uleb128 0x2a
 6000 10c6 7C000000 		.4byte	.LVL56
 6001 10ca 40330000 		.4byte	0x3340
 6002 10ce 2B       		.uleb128 0x2b
 6003 10cf 01       		.uleb128 0x1
 6004 10d0 50       		.byte	0x50
 6005 10d1 02       		.uleb128 0x2
 6006 10d2 7D       		.byte	0x7d
 6007 10d3 00       		.sleb128 0
 6008 10d4 00       		.byte	0
 6009 10d5 00       		.byte	0
 6010 10d6 31       		.uleb128 0x31
 6011 10d7 8C000000 		.4byte	.LBB118
 6012 10db 16000000 		.4byte	.LBE118-.LBB118
 6013 10df 1E110000 		.4byte	0x111e
 6014 10e3 2C       		.uleb128 0x2c
 6015 10e4 6E6E6E00 		.ascii	"nnn\000"
 6016 10e8 01       		.byte	0x1
 6017 10e9 FA02     		.2byte	0x2fa
 6018 10eb 5F050000 		.4byte	0x55f
 6019 10ef 03       		.uleb128 0x3
 6020 10f0 91       		.byte	0x91
 6021 10f1 B07F     		.sleb128 -80
 6022 10f3 32       		.uleb128 0x32
 6023 10f4 94000000 		.4byte	.LVL62
 6024 10f8 1F330000 		.4byte	0x331f
 6025 10fc 0D110000 		.4byte	0x110d
 6026 1100 2B       		.uleb128 0x2b
 6027 1101 01       		.uleb128 0x1
 6028 1102 50       		.byte	0x50
 6029 1103 02       		.uleb128 0x2
 6030 1104 7D       		.byte	0x7d
 6031 1105 00       		.sleb128 0
 6032 1106 2B       		.uleb128 0x2b
 6033 1107 01       		.uleb128 0x1
 6034 1108 51       		.byte	0x51
 6035 1109 02       		.uleb128 0x2
 6036 110a 76       		.byte	0x76
 6037 110b 00       		.sleb128 0
 6038 110c 00       		.byte	0
 6039 110d 2A       		.uleb128 0x2a
 6040 110e 9A000000 		.4byte	.LVL63
 6041 1112 2A330000 		.4byte	0x332a
 6042 1116 2B       		.uleb128 0x2b
 6043 1117 01       		.uleb128 0x1
 6044 1118 50       		.byte	0x50
 6045 1119 02       		.uleb128 0x2
 6046 111a 74       		.byte	0x74
 6047 111b 00       		.sleb128 0
 6048 111c 00       		.byte	0
 6049 111d 00       		.byte	0
 6050 111e 34       		.uleb128 0x34
ARM GAS  C:\Users\164\AppData\Local\Temp\ccvDnxKa.s 			page 146


 6051 111f 20000000 		.4byte	.LVL44
 6052 1123 61330000 		.4byte	0x3361
 6053 1127 00       		.byte	0
 6054 1128 24       		.uleb128 0x24
 6055 1129 4F0B0000 		.4byte	.LASF207
 6056 112d 01       		.byte	0x1
 6057 112e C902     		.2byte	0x2c9
 6058 1130 00000000 		.4byte	.LFB118
 6059 1134 2C000000 		.4byte	.LFE118-.LFB118
 6060 1138 01       		.uleb128 0x1
 6061 1139 9C       		.byte	0x9c
 6062 113a AC110000 		.4byte	0x11ac
 6063 113e 28       		.uleb128 0x28
 6064 113f 766D00   		.ascii	"vm\000"
 6065 1142 01       		.byte	0x1
 6066 1143 C902     		.2byte	0x2c9
 6067 1145 7B010000 		.4byte	0x17b
 6068 1149 C0050000 		.4byte	.LLST33
 6069 114d 28       		.uleb128 0x28
 6070 114e 7600     		.ascii	"v\000"
 6071 1150 01       		.byte	0x1
 6072 1151 C902     		.2byte	0x2c9
 6073 1153 C6060000 		.4byte	0x6c6
 6074 1157 FA050000 		.4byte	.LLST34
 6075 115b 29       		.uleb128 0x29
 6076 115c 76070000 		.4byte	.LASF196
 6077 1160 01       		.byte	0x1
 6078 1161 C902     		.2byte	0x2c9
 6079 1163 25000000 		.4byte	0x25
 6080 1167 2E060000 		.4byte	.LLST35
 6081 116b 35       		.uleb128 0x35
 6082 116c 94010000 		.4byte	.LASF208
 6083 1170 01       		.byte	0x1
 6084 1171 CB02     		.2byte	0x2cb
 6085 1173 25000000 		.4byte	0x25
 6086 1177 68060000 		.4byte	.LLST36
 6087 117b 36       		.uleb128 0x36
 6088 117c FC0D0000 		.4byte	.LASF255
 6089 1180 01       		.byte	0x1
 6090 1181 D002     		.2byte	0x2d0
 6091 1183 1A000000 		.4byte	.L41
 6092 1187 32       		.uleb128 0x32
 6093 1188 14000000 		.4byte	.LVL69
 6094 118c 6C330000 		.4byte	0x336c
 6095 1190 9B110000 		.4byte	0x119b
 6096 1194 2B       		.uleb128 0x2b
 6097 1195 01       		.uleb128 0x1
 6098 1196 50       		.byte	0x50
 6099 1197 02       		.uleb128 0x2
 6100 1198 74       		.byte	0x74
 6101 1199 00       		.sleb128 0
 6102 119a 00       		.byte	0
 6103 119b 2A       		.uleb128 0x2a
 6104 119c 20000000 		.4byte	.LVL73
 6105 11a0 2A330000 		.4byte	0x332a
 6106 11a4 2B       		.uleb128 0x2b
 6107 11a5 01       		.uleb128 0x1
ARM GAS  C:\Users\164\AppData\Local\Temp\ccvDnxKa.s 			page 147


 6108 11a6 50       		.byte	0x50
 6109 11a7 02       		.uleb128 0x2
 6110 11a8 74       		.byte	0x74
 6111 11a9 00       		.sleb128 0
 6112 11aa 00       		.byte	0
 6113 11ab 00       		.byte	0
 6114 11ac 24       		.uleb128 0x24
 6115 11ad 340F0000 		.4byte	.LASF209
 6116 11b1 01       		.byte	0x1
 6117 11b2 8D02     		.2byte	0x28d
 6118 11b4 00000000 		.4byte	.LFB115
 6119 11b8 48000000 		.4byte	.LFE115-.LFB115
 6120 11bc 01       		.uleb128 0x1
 6121 11bd 9C       		.byte	0x9c
 6122 11be C8120000 		.4byte	0x12c8
 6123 11c2 28       		.uleb128 0x28
 6124 11c3 766D00   		.ascii	"vm\000"
 6125 11c6 01       		.byte	0x1
 6126 11c7 8D02     		.2byte	0x28d
 6127 11c9 7B010000 		.4byte	0x17b
 6128 11cd 9E060000 		.4byte	.LLST37
 6129 11d1 28       		.uleb128 0x28
 6130 11d2 7600     		.ascii	"v\000"
 6131 11d4 01       		.byte	0x1
 6132 11d5 8D02     		.2byte	0x28d
 6133 11d7 C6060000 		.4byte	0x6c6
 6134 11db CA060000 		.4byte	.LLST38
 6135 11df 29       		.uleb128 0x29
 6136 11e0 76070000 		.4byte	.LASF196
 6137 11e4 01       		.byte	0x1
 6138 11e5 8D02     		.2byte	0x28d
 6139 11e7 25000000 		.4byte	0x25
 6140 11eb E8060000 		.4byte	.LLST39
 6141 11ef 35       		.uleb128 0x35
 6142 11f0 5B0C0000 		.4byte	.LASF210
 6143 11f4 01       		.byte	0x1
 6144 11f5 8F02     		.2byte	0x28f
 6145 11f7 D5000000 		.4byte	0xd5
 6146 11fb 09070000 		.4byte	.LLST40
 6147 11ff 35       		.uleb128 0x35
 6148 1200 600B0000 		.4byte	.LASF211
 6149 1204 01       		.byte	0x1
 6150 1205 9102     		.2byte	0x291
 6151 1207 C8000000 		.4byte	0xc8
 6152 120b 27070000 		.4byte	.LLST41
 6153 120f 35       		.uleb128 0x35
 6154 1210 F9000000 		.4byte	.LASF66
 6155 1214 01       		.byte	0x1
 6156 1215 9502     		.2byte	0x295
 6157 1217 4A010000 		.4byte	0x14a
 6158 121b 45070000 		.4byte	.LLST42
 6159 121f 32       		.uleb128 0x32
 6160 1220 0A000000 		.4byte	.LVL75
 6161 1224 77330000 		.4byte	0x3377
 6162 1228 33120000 		.4byte	0x1233
 6163 122c 2B       		.uleb128 0x2b
 6164 122d 01       		.uleb128 0x1
ARM GAS  C:\Users\164\AppData\Local\Temp\ccvDnxKa.s 			page 148


 6165 122e 50       		.byte	0x50
 6166 122f 02       		.uleb128 0x2
 6167 1230 74       		.byte	0x74
 6168 1231 00       		.sleb128 0
 6169 1232 00       		.byte	0
 6170 1233 32       		.uleb128 0x32
 6171 1234 10000000 		.4byte	.LVL77
 6172 1238 4B330000 		.4byte	0x334b
 6173 123c 47120000 		.4byte	0x1247
 6174 1240 2B       		.uleb128 0x2b
 6175 1241 01       		.uleb128 0x1
 6176 1242 50       		.byte	0x50
 6177 1243 02       		.uleb128 0x2
 6178 1244 76       		.byte	0x76
 6179 1245 00       		.sleb128 0
 6180 1246 00       		.byte	0
 6181 1247 32       		.uleb128 0x32
 6182 1248 18000000 		.4byte	.LVL78
 6183 124c 82330000 		.4byte	0x3382
 6184 1250 5B120000 		.4byte	0x125b
 6185 1254 2B       		.uleb128 0x2b
 6186 1255 01       		.uleb128 0x1
 6187 1256 50       		.byte	0x50
 6188 1257 02       		.uleb128 0x2
 6189 1258 74       		.byte	0x74
 6190 1259 00       		.sleb128 0
 6191 125a 00       		.byte	0
 6192 125b 32       		.uleb128 0x32
 6193 125c 22000000 		.4byte	.LVL80
 6194 1260 8D330000 		.4byte	0x338d
 6195 1264 75120000 		.4byte	0x1275
 6196 1268 2B       		.uleb128 0x2b
 6197 1269 01       		.uleb128 0x1
 6198 126a 50       		.byte	0x50
 6199 126b 02       		.uleb128 0x2
 6200 126c 74       		.byte	0x74
 6201 126d 00       		.sleb128 0
 6202 126e 2B       		.uleb128 0x2b
 6203 126f 01       		.uleb128 0x1
 6204 1270 51       		.byte	0x51
 6205 1271 02       		.uleb128 0x2
 6206 1272 76       		.byte	0x76
 6207 1273 00       		.sleb128 0
 6208 1274 00       		.byte	0
 6209 1275 32       		.uleb128 0x32
 6210 1276 28000000 		.4byte	.LVL81
 6211 127a 4B330000 		.4byte	0x334b
 6212 127e 89120000 		.4byte	0x1289
 6213 1282 2B       		.uleb128 0x2b
 6214 1283 01       		.uleb128 0x1
 6215 1284 50       		.byte	0x50
 6216 1285 02       		.uleb128 0x2
 6217 1286 76       		.byte	0x76
 6218 1287 00       		.sleb128 0
 6219 1288 00       		.byte	0
 6220 1289 32       		.uleb128 0x32
 6221 128a 34000000 		.4byte	.LVL82
ARM GAS  C:\Users\164\AppData\Local\Temp\ccvDnxKa.s 			page 149


 6222 128e 98330000 		.4byte	0x3398
 6223 1292 9D120000 		.4byte	0x129d
 6224 1296 2B       		.uleb128 0x2b
 6225 1297 01       		.uleb128 0x1
 6226 1298 50       		.byte	0x50
 6227 1299 02       		.uleb128 0x2
 6228 129a 74       		.byte	0x74
 6229 129b 00       		.sleb128 0
 6230 129c 00       		.byte	0
 6231 129d 32       		.uleb128 0x32
 6232 129e 40000000 		.4byte	.LVL84
 6233 12a2 A3330000 		.4byte	0x33a3
 6234 12a6 B7120000 		.4byte	0x12b7
 6235 12aa 2B       		.uleb128 0x2b
 6236 12ab 01       		.uleb128 0x1
 6237 12ac 50       		.byte	0x50
 6238 12ad 02       		.uleb128 0x2
 6239 12ae 75       		.byte	0x75
 6240 12af 00       		.sleb128 0
 6241 12b0 2B       		.uleb128 0x2b
 6242 12b1 01       		.uleb128 0x1
 6243 12b2 52       		.byte	0x52
 6244 12b3 02       		.uleb128 0x2
 6245 12b4 75       		.byte	0x75
 6246 12b5 10       		.sleb128 16
 6247 12b6 00       		.byte	0
 6248 12b7 2A       		.uleb128 0x2a
 6249 12b8 46000000 		.4byte	.LVL85
 6250 12bc AE330000 		.4byte	0x33ae
 6251 12c0 2B       		.uleb128 0x2b
 6252 12c1 01       		.uleb128 0x1
 6253 12c2 50       		.byte	0x50
 6254 12c3 02       		.uleb128 0x2
 6255 12c4 74       		.byte	0x74
 6256 12c5 00       		.sleb128 0
 6257 12c6 00       		.byte	0
 6258 12c7 00       		.byte	0
 6259 12c8 24       		.uleb128 0x24
 6260 12c9 570D0000 		.4byte	.LASF212
 6261 12cd 01       		.byte	0x1
 6262 12ce 8002     		.2byte	0x280
 6263 12d0 00000000 		.4byte	.LFB114
 6264 12d4 34000000 		.4byte	.LFE114-.LFB114
 6265 12d8 01       		.uleb128 0x1
 6266 12d9 9C       		.byte	0x9c
 6267 12da 9C130000 		.4byte	0x139c
 6268 12de 28       		.uleb128 0x28
 6269 12df 766D00   		.ascii	"vm\000"
 6270 12e2 01       		.byte	0x1
 6271 12e3 8002     		.2byte	0x280
 6272 12e5 7B010000 		.4byte	0x17b
 6273 12e9 58070000 		.4byte	.LLST43
 6274 12ed 28       		.uleb128 0x28
 6275 12ee 7600     		.ascii	"v\000"
 6276 12f0 01       		.byte	0x1
 6277 12f1 8002     		.2byte	0x280
 6278 12f3 C6060000 		.4byte	0x6c6
ARM GAS  C:\Users\164\AppData\Local\Temp\ccvDnxKa.s 			page 150


 6279 12f7 79070000 		.4byte	.LLST44
 6280 12fb 29       		.uleb128 0x29
 6281 12fc 76070000 		.4byte	.LASF196
 6282 1300 01       		.byte	0x1
 6283 1301 8002     		.2byte	0x280
 6284 1303 25000000 		.4byte	0x25
 6285 1307 97070000 		.4byte	.LLST45
 6286 130b 35       		.uleb128 0x35
 6287 130c 5B0C0000 		.4byte	.LASF210
 6288 1310 01       		.byte	0x1
 6289 1311 8202     		.2byte	0x282
 6290 1313 D5000000 		.4byte	0xd5
 6291 1317 B8070000 		.4byte	.LLST46
 6292 131b 35       		.uleb128 0x35
 6293 131c F9000000 		.4byte	.LASF66
 6294 1320 01       		.byte	0x1
 6295 1321 8302     		.2byte	0x283
 6296 1323 4A010000 		.4byte	0x14a
 6297 1327 CB070000 		.4byte	.LLST47
 6298 132b 2C       		.uleb128 0x2c
 6299 132c 72657400 		.ascii	"ret\000"
 6300 1330 01       		.byte	0x1
 6301 1331 8402     		.2byte	0x284
 6302 1333 5F050000 		.4byte	0x55f
 6303 1337 02       		.uleb128 0x2
 6304 1338 91       		.byte	0x91
 6305 1339 60       		.sleb128 -32
 6306 133a 31       		.uleb128 0x31
 6307 133b 1A000000 		.4byte	.LBB119
 6308 133f 16000000 		.4byte	.LBE119-.LBB119
 6309 1343 67130000 		.4byte	0x1367
 6310 1347 2C       		.uleb128 0x2c
 6311 1348 6E6E6E00 		.ascii	"nnn\000"
 6312 134c 01       		.byte	0x1
 6313 134d 8602     		.2byte	0x286
 6314 134f 5F050000 		.4byte	0x55f
 6315 1353 02       		.uleb128 0x2
 6316 1354 91       		.byte	0x91
 6317 1355 50       		.sleb128 -48
 6318 1356 2A       		.uleb128 0x2a
 6319 1357 28000000 		.4byte	.LVL91
 6320 135b 2A330000 		.4byte	0x332a
 6321 135f 2B       		.uleb128 0x2b
 6322 1360 01       		.uleb128 0x1
 6323 1361 50       		.byte	0x50
 6324 1362 02       		.uleb128 0x2
 6325 1363 75       		.byte	0x75
 6326 1364 00       		.sleb128 0
 6327 1365 00       		.byte	0
 6328 1366 00       		.byte	0
 6329 1367 32       		.uleb128 0x32
 6330 1368 0A000000 		.4byte	.LVL87
 6331 136c 77330000 		.4byte	0x3377
 6332 1370 7C130000 		.4byte	0x137c
 6333 1374 2B       		.uleb128 0x2b
 6334 1375 01       		.uleb128 0x1
 6335 1376 50       		.byte	0x50
ARM GAS  C:\Users\164\AppData\Local\Temp\ccvDnxKa.s 			page 151


 6336 1377 03       		.uleb128 0x3
 6337 1378 F3       		.byte	0xf3
 6338 1379 01       		.uleb128 0x1
 6339 137a 50       		.byte	0x50
 6340 137b 00       		.byte	0
 6341 137c 34       		.uleb128 0x34
 6342 137d 0E000000 		.4byte	.LVL88
 6343 1381 98330000 		.4byte	0x3398
 6344 1385 2A       		.uleb128 0x2a
 6345 1386 1A000000 		.4byte	.LVL90
 6346 138a B9330000 		.4byte	0x33b9
 6347 138e 2B       		.uleb128 0x2b
 6348 138f 01       		.uleb128 0x1
 6349 1390 50       		.byte	0x50
 6350 1391 02       		.uleb128 0x2
 6351 1392 76       		.byte	0x76
 6352 1393 00       		.sleb128 0
 6353 1394 2B       		.uleb128 0x2b
 6354 1395 01       		.uleb128 0x1
 6355 1396 51       		.byte	0x51
 6356 1397 02       		.uleb128 0x2
 6357 1398 75       		.byte	0x75
 6358 1399 00       		.sleb128 0
 6359 139a 00       		.byte	0
 6360 139b 00       		.byte	0
 6361 139c 24       		.uleb128 0x24
 6362 139d 79030000 		.4byte	.LASF213
 6363 13a1 01       		.byte	0x1
 6364 13a2 5002     		.2byte	0x250
 6365 13a4 00000000 		.4byte	.LFB113
 6366 13a8 E8000000 		.4byte	.LFE113-.LFB113
 6367 13ac 01       		.uleb128 0x1
 6368 13ad 9C       		.byte	0x9c
 6369 13ae 48150000 		.4byte	0x1548
 6370 13b2 28       		.uleb128 0x28
 6371 13b3 766D00   		.ascii	"vm\000"
 6372 13b6 01       		.byte	0x1
 6373 13b7 5002     		.2byte	0x250
 6374 13b9 7B010000 		.4byte	0x17b
 6375 13bd DE070000 		.4byte	.LLST48
 6376 13c1 28       		.uleb128 0x28
 6377 13c2 7600     		.ascii	"v\000"
 6378 13c4 01       		.byte	0x1
 6379 13c5 5002     		.2byte	0x250
 6380 13c7 C6060000 		.4byte	0x6c6
 6381 13cb 15080000 		.4byte	.LLST49
 6382 13cf 29       		.uleb128 0x29
 6383 13d0 76070000 		.4byte	.LASF196
 6384 13d4 01       		.byte	0x1
 6385 13d5 5002     		.2byte	0x250
 6386 13d7 25000000 		.4byte	0x25
 6387 13db 41080000 		.4byte	.LLST50
 6388 13df 37       		.uleb128 0x37
 6389 13e0 940B0000 		.4byte	.LASF214
 6390 13e4 01       		.byte	0x1
 6391 13e5 5202     		.2byte	0x252
 6392 13e7 5F050000 		.4byte	0x55f
ARM GAS  C:\Users\164\AppData\Local\Temp\ccvDnxKa.s 			page 152


 6393 13eb 02       		.uleb128 0x2
 6394 13ec 91       		.byte	0x91
 6395 13ed 50       		.sleb128 -48
 6396 13ee 37       		.uleb128 0x37
 6397 13ef D4040000 		.4byte	.LASF215
 6398 13f3 01       		.byte	0x1
 6399 13f4 5402     		.2byte	0x254
 6400 13f6 48150000 		.4byte	0x1548
 6401 13fa 03       		.uleb128 0x3
 6402 13fb 91       		.byte	0x91
 6403 13fc BC7F     		.sleb128 -68
 6404 13fe 37       		.uleb128 0x37
 6405 13ff 0E0C0000 		.4byte	.LASF96
 6406 1403 01       		.byte	0x1
 6407 1404 5802     		.2byte	0x258
 6408 1406 42070000 		.4byte	0x742
 6409 140a 03       		.uleb128 0x3
 6410 140b 91       		.byte	0x91
 6411 140c B47F     		.sleb128 -76
 6412 140e 37       		.uleb128 0x37
 6413 140f 4B070000 		.4byte	.LASF31
 6414 1413 01       		.byte	0x1
 6415 1414 5C02     		.2byte	0x25c
 6416 1416 5B060000 		.4byte	0x65b
 6417 141a 03       		.uleb128 0x3
 6418 141b 91       		.byte	0x91
 6419 141c 987F     		.sleb128 -104
 6420 141e 35       		.uleb128 0x35
 6421 141f 10080000 		.4byte	.LASF216
 6422 1423 01       		.byte	0x1
 6423 1424 6C02     		.2byte	0x26c
 6424 1426 C0060000 		.4byte	0x6c0
 6425 142a 6D080000 		.4byte	.LLST51
 6426 142e 35       		.uleb128 0x35
 6427 142f 07090000 		.4byte	.LASF217
 6428 1433 01       		.byte	0x1
 6429 1434 6D02     		.2byte	0x26d
 6430 1436 01010000 		.4byte	0x101
 6431 143a 80080000 		.4byte	.LLST52
 6432 143e 35       		.uleb128 0x35
 6433 143f A20D0000 		.4byte	.LASF218
 6434 1443 01       		.byte	0x1
 6435 1444 6E02     		.2byte	0x26e
 6436 1446 C6060000 		.4byte	0x6c6
 6437 144a 93080000 		.4byte	.LLST53
 6438 144e 2D       		.uleb128 0x2d
 6439 144f 120A0000 		.4byte	0xa12
 6440 1453 2C000000 		.4byte	.LBB120
 6441 1457 14000000 		.4byte	.LBE120-.LBB120
 6442 145b 01       		.byte	0x1
 6443 145c 5502     		.2byte	0x255
 6444 145e 88140000 		.4byte	0x1488
 6445 1462 30       		.uleb128 0x30
 6446 1463 270A0000 		.4byte	0xa27
 6447 1467 A6080000 		.4byte	.LLST54
 6448 146b 30       		.uleb128 0x30
 6449 146c 1E0A0000 		.4byte	0xa1e
ARM GAS  C:\Users\164\AppData\Local\Temp\ccvDnxKa.s 			page 153


 6450 1470 C9080000 		.4byte	.LLST55
 6451 1474 38       		.uleb128 0x38
 6452 1475 2C000000 		.4byte	.LBB121
 6453 1479 14000000 		.4byte	.LBE121-.LBB121
 6454 147d 39       		.uleb128 0x39
 6455 147e 300A0000 		.4byte	0xa30
 6456 1482 E9080000 		.4byte	.LLST56
 6457 1486 00       		.byte	0
 6458 1487 00       		.byte	0
 6459 1488 2D       		.uleb128 0x2d
 6460 1489 EA090000 		.4byte	0x9ea
 6461 148d 40000000 		.4byte	.LBB122
 6462 1491 0A000000 		.4byte	.LBE122-.LBB122
 6463 1495 01       		.byte	0x1
 6464 1496 5602     		.2byte	0x256
 6465 1498 C2140000 		.4byte	0x14c2
 6466 149c 30       		.uleb128 0x30
 6467 149d FF090000 		.4byte	0x9ff
 6468 14a1 42090000 		.4byte	.LLST57
 6469 14a5 30       		.uleb128 0x30
 6470 14a6 F6090000 		.4byte	0x9f6
 6471 14aa 57090000 		.4byte	.LLST58
 6472 14ae 38       		.uleb128 0x38
 6473 14af 40000000 		.4byte	.LBB123
 6474 14b3 0A000000 		.4byte	.LBE123-.LBB123
 6475 14b7 39       		.uleb128 0x39
 6476 14b8 080A0000 		.4byte	0xa08
 6477 14bc 6B090000 		.4byte	.LLST59
 6478 14c0 00       		.byte	0
 6479 14c1 00       		.byte	0
 6480 14c2 31       		.uleb128 0x31
 6481 14c3 C4000000 		.4byte	.LBB124
 6482 14c7 18000000 		.4byte	.LBE124-.LBB124
 6483 14cb F0140000 		.4byte	0x14f0
 6484 14cf 2C       		.uleb128 0x2c
 6485 14d0 6E6E6E00 		.ascii	"nnn\000"
 6486 14d4 01       		.byte	0x1
 6487 14d5 7A02     		.2byte	0x27a
 6488 14d7 5F050000 		.4byte	0x55f
 6489 14db 03       		.uleb128 0x3
 6490 14dc 91       		.byte	0x91
 6491 14dd 887F     		.sleb128 -120
 6492 14df 2A       		.uleb128 0x2a
 6493 14e0 D4000000 		.4byte	.LVL110
 6494 14e4 2A330000 		.4byte	0x332a
 6495 14e8 2B       		.uleb128 0x2b
 6496 14e9 01       		.uleb128 0x1
 6497 14ea 50       		.byte	0x50
 6498 14eb 02       		.uleb128 0x2
 6499 14ec 75       		.byte	0x75
 6500 14ed 00       		.sleb128 0
 6501 14ee 00       		.byte	0
 6502 14ef 00       		.byte	0
 6503 14f0 32       		.uleb128 0x32
 6504 14f1 1A000000 		.4byte	.LVL96
 6505 14f5 C4330000 		.4byte	0x33c4
 6506 14f9 0F150000 		.4byte	0x150f
ARM GAS  C:\Users\164\AppData\Local\Temp\ccvDnxKa.s 			page 154


 6507 14fd 2B       		.uleb128 0x2b
 6508 14fe 01       		.uleb128 0x1
 6509 14ff 50       		.byte	0x50
 6510 1500 02       		.uleb128 0x2
 6511 1501 77       		.byte	0x77
 6512 1502 00       		.sleb128 0
 6513 1503 2B       		.uleb128 0x2b
 6514 1504 01       		.uleb128 0x1
 6515 1505 51       		.byte	0x51
 6516 1506 02       		.uleb128 0x2
 6517 1507 74       		.byte	0x74
 6518 1508 00       		.sleb128 0
 6519 1509 2B       		.uleb128 0x2b
 6520 150a 01       		.uleb128 0x1
 6521 150b 53       		.byte	0x53
 6522 150c 01       		.uleb128 0x1
 6523 150d 30       		.byte	0x30
 6524 150e 00       		.byte	0
 6525 150f 32       		.uleb128 0x32
 6526 1510 8A000000 		.4byte	.LVL104
 6527 1514 CF330000 		.4byte	0x33cf
 6528 1518 23150000 		.4byte	0x1523
 6529 151c 2B       		.uleb128 0x2b
 6530 151d 01       		.uleb128 0x1
 6531 151e 50       		.byte	0x50
 6532 151f 02       		.uleb128 0x2
 6533 1520 75       		.byte	0x75
 6534 1521 00       		.sleb128 0
 6535 1522 00       		.byte	0
 6536 1523 32       		.uleb128 0x32
 6537 1524 98000000 		.4byte	.LVL105
 6538 1528 DA330000 		.4byte	0x33da
 6539 152c 37150000 		.4byte	0x1537
 6540 1530 2B       		.uleb128 0x2b
 6541 1531 01       		.uleb128 0x1
 6542 1532 50       		.byte	0x50
 6543 1533 02       		.uleb128 0x2
 6544 1534 77       		.byte	0x77
 6545 1535 00       		.sleb128 0
 6546 1536 00       		.byte	0
 6547 1537 2A       		.uleb128 0x2a
 6548 1538 B4000000 		.4byte	.LVL109
 6549 153c E5330000 		.4byte	0x33e5
 6550 1540 2B       		.uleb128 0x2b
 6551 1541 01       		.uleb128 0x1
 6552 1542 50       		.byte	0x50
 6553 1543 02       		.uleb128 0x2
 6554 1544 74       		.byte	0x74
 6555 1545 00       		.sleb128 0
 6556 1546 00       		.byte	0
 6557 1547 00       		.byte	0
 6558 1548 19       		.uleb128 0x19
 6559 1549 CE000000 		.4byte	0xce
 6560 154d 58150000 		.4byte	0x1558
 6561 1551 1B       		.uleb128 0x1b
 6562 1552 BF000000 		.4byte	0xbf
 6563 1556 10       		.byte	0x10
ARM GAS  C:\Users\164\AppData\Local\Temp\ccvDnxKa.s 			page 155


 6564 1557 00       		.byte	0
 6565 1558 24       		.uleb128 0x24
 6566 1559 1E0A0000 		.4byte	.LASF219
 6567 155d 01       		.byte	0x1
 6568 155e 3502     		.2byte	0x235
 6569 1560 00000000 		.4byte	.LFB111
 6570 1564 3A000000 		.4byte	.LFE111-.LFB111
 6571 1568 01       		.uleb128 0x1
 6572 1569 9C       		.byte	0x9c
 6573 156a EA150000 		.4byte	0x15ea
 6574 156e 28       		.uleb128 0x28
 6575 156f 766D00   		.ascii	"vm\000"
 6576 1572 01       		.byte	0x1
 6577 1573 3502     		.2byte	0x235
 6578 1575 7B010000 		.4byte	0x17b
 6579 1579 8D090000 		.4byte	.LLST60
 6580 157d 28       		.uleb128 0x28
 6581 157e 7600     		.ascii	"v\000"
 6582 1580 01       		.byte	0x1
 6583 1581 3502     		.2byte	0x235
 6584 1583 C6060000 		.4byte	0x6c6
 6585 1587 C7090000 		.4byte	.LLST61
 6586 158b 29       		.uleb128 0x29
 6587 158c 76070000 		.4byte	.LASF196
 6588 1590 01       		.byte	0x1
 6589 1591 3502     		.2byte	0x235
 6590 1593 25000000 		.4byte	0x25
 6591 1597 FB090000 		.4byte	.LLST62
 6592 159b 35       		.uleb128 0x35
 6593 159c 94010000 		.4byte	.LASF208
 6594 15a0 01       		.byte	0x1
 6595 15a1 3702     		.2byte	0x237
 6596 15a3 25000000 		.4byte	0x25
 6597 15a7 350A0000 		.4byte	.LLST63
 6598 15ab 32       		.uleb128 0x32
 6599 15ac 16000000 		.4byte	.LVL115
 6600 15b0 6C330000 		.4byte	0x336c
 6601 15b4 BF150000 		.4byte	0x15bf
 6602 15b8 2B       		.uleb128 0x2b
 6603 15b9 01       		.uleb128 0x1
 6604 15ba 50       		.byte	0x50
 6605 15bb 02       		.uleb128 0x2
 6606 15bc 74       		.byte	0x74
 6607 15bd 10       		.sleb128 16
 6608 15be 00       		.byte	0
 6609 15bf 32       		.uleb128 0x32
 6610 15c0 22000000 		.4byte	.LVL120
 6611 15c4 F0330000 		.4byte	0x33f0
 6612 15c8 D9150000 		.4byte	0x15d9
 6613 15cc 2B       		.uleb128 0x2b
 6614 15cd 01       		.uleb128 0x1
 6615 15ce 50       		.byte	0x50
 6616 15cf 02       		.uleb128 0x2
 6617 15d0 74       		.byte	0x74
 6618 15d1 00       		.sleb128 0
 6619 15d2 2B       		.uleb128 0x2b
 6620 15d3 01       		.uleb128 0x1
ARM GAS  C:\Users\164\AppData\Local\Temp\ccvDnxKa.s 			page 156


 6621 15d4 51       		.byte	0x51
 6622 15d5 02       		.uleb128 0x2
 6623 15d6 74       		.byte	0x74
 6624 15d7 10       		.sleb128 16
 6625 15d8 00       		.byte	0
 6626 15d9 2A       		.uleb128 0x2a
 6627 15da 2E000000 		.4byte	.LVL122
 6628 15de 2A330000 		.4byte	0x332a
 6629 15e2 2B       		.uleb128 0x2b
 6630 15e3 01       		.uleb128 0x1
 6631 15e4 50       		.byte	0x50
 6632 15e5 02       		.uleb128 0x2
 6633 15e6 74       		.byte	0x74
 6634 15e7 00       		.sleb128 0
 6635 15e8 00       		.byte	0
 6636 15e9 00       		.byte	0
 6637 15ea 24       		.uleb128 0x24
 6638 15eb 7A000000 		.4byte	.LASF220
 6639 15ef 01       		.byte	0x1
 6640 15f0 2B02     		.2byte	0x22b
 6641 15f2 00000000 		.4byte	.LFB110
 6642 15f6 1C000000 		.4byte	.LFE110-.LFB110
 6643 15fa 01       		.uleb128 0x1
 6644 15fb 9C       		.byte	0x9c
 6645 15fc 82160000 		.4byte	0x1682
 6646 1600 28       		.uleb128 0x28
 6647 1601 766D00   		.ascii	"vm\000"
 6648 1604 01       		.byte	0x1
 6649 1605 2B02     		.2byte	0x22b
 6650 1607 7B010000 		.4byte	0x17b
 6651 160b 530A0000 		.4byte	.LLST64
 6652 160f 28       		.uleb128 0x28
 6653 1610 7600     		.ascii	"v\000"
 6654 1612 01       		.byte	0x1
 6655 1613 2B02     		.2byte	0x22b
 6656 1615 C6060000 		.4byte	0x6c6
 6657 1619 740A0000 		.4byte	.LLST65
 6658 161d 29       		.uleb128 0x29
 6659 161e 76070000 		.4byte	.LASF196
 6660 1622 01       		.byte	0x1
 6661 1623 2B02     		.2byte	0x22b
 6662 1625 25000000 		.4byte	0x25
 6663 1629 920A0000 		.4byte	.LLST66
 6664 162d 35       		.uleb128 0x35
 6665 162e 94010000 		.4byte	.LASF208
 6666 1632 01       		.byte	0x1
 6667 1633 2D02     		.2byte	0x22d
 6668 1635 25000000 		.4byte	0x25
 6669 1639 B30A0000 		.4byte	.LLST67
 6670 163d 31       		.uleb128 0x31
 6671 163e 0E000000 		.4byte	.LBB125
 6672 1642 0E000000 		.4byte	.LBE125-.LBB125
 6673 1646 6B160000 		.4byte	0x166b
 6674 164a 33       		.uleb128 0x33
 6675 164b 6E6E6E00 		.ascii	"nnn\000"
 6676 164f 01       		.byte	0x1
 6677 1650 2E02     		.2byte	0x22e
ARM GAS  C:\Users\164\AppData\Local\Temp\ccvDnxKa.s 			page 157


 6678 1652 2D010000 		.4byte	0x12d
 6679 1656 B30A0000 		.4byte	.LLST67
 6680 165a 2A       		.uleb128 0x2a
 6681 165b 14000000 		.4byte	.LVL129
 6682 165f 2A330000 		.4byte	0x332a
 6683 1663 2B       		.uleb128 0x2b
 6684 1664 01       		.uleb128 0x1
 6685 1665 50       		.byte	0x50
 6686 1666 02       		.uleb128 0x2
 6687 1667 74       		.byte	0x74
 6688 1668 00       		.sleb128 0
 6689 1669 00       		.byte	0
 6690 166a 00       		.byte	0
 6691 166b 2A       		.uleb128 0x2a
 6692 166c 0C000000 		.4byte	.LVL126
 6693 1670 F0330000 		.4byte	0x33f0
 6694 1674 2B       		.uleb128 0x2b
 6695 1675 01       		.uleb128 0x1
 6696 1676 50       		.byte	0x50
 6697 1677 02       		.uleb128 0x2
 6698 1678 74       		.byte	0x74
 6699 1679 00       		.sleb128 0
 6700 167a 2B       		.uleb128 0x2b
 6701 167b 01       		.uleb128 0x1
 6702 167c 51       		.byte	0x51
 6703 167d 02       		.uleb128 0x2
 6704 167e 74       		.byte	0x74
 6705 167f 10       		.sleb128 16
 6706 1680 00       		.byte	0
 6707 1681 00       		.byte	0
 6708 1682 24       		.uleb128 0x24
 6709 1683 62030000 		.4byte	.LASF221
 6710 1687 01       		.byte	0x1
 6711 1688 2102     		.2byte	0x221
 6712 168a 00000000 		.4byte	.LFB109
 6713 168e 20000000 		.4byte	.LFE109-.LFB109
 6714 1692 01       		.uleb128 0x1
 6715 1693 9C       		.byte	0x9c
 6716 1694 00170000 		.4byte	0x1700
 6717 1698 28       		.uleb128 0x28
 6718 1699 766D00   		.ascii	"vm\000"
 6719 169c 01       		.byte	0x1
 6720 169d 2102     		.2byte	0x221
 6721 169f 7B010000 		.4byte	0x17b
 6722 16a3 D10A0000 		.4byte	.LLST69
 6723 16a7 28       		.uleb128 0x28
 6724 16a8 7600     		.ascii	"v\000"
 6725 16aa 01       		.byte	0x1
 6726 16ab 2102     		.2byte	0x221
 6727 16ad C6060000 		.4byte	0x6c6
 6728 16b1 F20A0000 		.4byte	.LLST70
 6729 16b5 29       		.uleb128 0x29
 6730 16b6 76070000 		.4byte	.LASF196
 6731 16ba 01       		.byte	0x1
 6732 16bb 2102     		.2byte	0x221
 6733 16bd 25000000 		.4byte	0x25
 6734 16c1 100B0000 		.4byte	.LLST71
ARM GAS  C:\Users\164\AppData\Local\Temp\ccvDnxKa.s 			page 158


 6735 16c5 35       		.uleb128 0x35
 6736 16c6 94010000 		.4byte	.LASF208
 6737 16ca 01       		.byte	0x1
 6738 16cb 2302     		.2byte	0x223
 6739 16cd 25000000 		.4byte	0x25
 6740 16d1 310B0000 		.4byte	.LLST72
 6741 16d5 32       		.uleb128 0x32
 6742 16d6 0C000000 		.4byte	.LVL133
 6743 16da F0330000 		.4byte	0x33f0
 6744 16de EF160000 		.4byte	0x16ef
 6745 16e2 2B       		.uleb128 0x2b
 6746 16e3 01       		.uleb128 0x1
 6747 16e4 50       		.byte	0x50
 6748 16e5 02       		.uleb128 0x2
 6749 16e6 74       		.byte	0x74
 6750 16e7 00       		.sleb128 0
 6751 16e8 2B       		.uleb128 0x2b
 6752 16e9 01       		.uleb128 0x1
 6753 16ea 51       		.byte	0x51
 6754 16eb 02       		.uleb128 0x2
 6755 16ec 74       		.byte	0x74
 6756 16ed 10       		.sleb128 16
 6757 16ee 00       		.byte	0
 6758 16ef 2A       		.uleb128 0x2a
 6759 16f0 14000000 		.4byte	.LVL136
 6760 16f4 2A330000 		.4byte	0x332a
 6761 16f8 2B       		.uleb128 0x2b
 6762 16f9 01       		.uleb128 0x1
 6763 16fa 50       		.byte	0x50
 6764 16fb 02       		.uleb128 0x2
 6765 16fc 74       		.byte	0x74
 6766 16fd 00       		.sleb128 0
 6767 16fe 00       		.byte	0
 6768 16ff 00       		.byte	0
 6769 1700 24       		.uleb128 0x24
 6770 1701 880A0000 		.4byte	.LASF222
 6771 1705 01       		.byte	0x1
 6772 1706 CE01     		.2byte	0x1ce
 6773 1708 00000000 		.4byte	.LFB105
 6774 170c 60000000 		.4byte	.LFE105-.LFB105
 6775 1710 01       		.uleb128 0x1
 6776 1711 9C       		.byte	0x9c
 6777 1712 98170000 		.4byte	0x1798
 6778 1716 28       		.uleb128 0x28
 6779 1717 766D00   		.ascii	"vm\000"
 6780 171a 01       		.byte	0x1
 6781 171b CE01     		.2byte	0x1ce
 6782 171d 7B010000 		.4byte	0x17b
 6783 1721 4F0B0000 		.4byte	.LLST73
 6784 1725 28       		.uleb128 0x28
 6785 1726 7600     		.ascii	"v\000"
 6786 1728 01       		.byte	0x1
 6787 1729 CE01     		.2byte	0x1ce
 6788 172b C6060000 		.4byte	0x6c6
 6789 172f 890B0000 		.4byte	.LLST74
 6790 1733 29       		.uleb128 0x29
 6791 1734 76070000 		.4byte	.LASF196
ARM GAS  C:\Users\164\AppData\Local\Temp\ccvDnxKa.s 			page 159


 6792 1738 01       		.byte	0x1
 6793 1739 CE01     		.2byte	0x1ce
 6794 173b 25000000 		.4byte	0x25
 6795 173f CB0B0000 		.4byte	.LLST75
 6796 1743 35       		.uleb128 0x35
 6797 1744 E0040000 		.4byte	.LASF60
 6798 1748 01       		.byte	0x1
 6799 1749 D101     		.2byte	0x1d1
 6800 174b 98170000 		.4byte	0x1798
 6801 174f EC0B0000 		.4byte	.LLST76
 6802 1753 35       		.uleb128 0x35
 6803 1754 DF0D0000 		.4byte	.LASF223
 6804 1758 01       		.byte	0x1
 6805 1759 DC01     		.2byte	0x1dc
 6806 175b 9E170000 		.4byte	0x179e
 6807 175f FF0B0000 		.4byte	.LLST77
 6808 1763 34       		.uleb128 0x34
 6809 1764 24000000 		.4byte	.LVL142
 6810 1768 61330000 		.4byte	0x3361
 6811 176c 32       		.uleb128 0x32
 6812 176d 2C000000 		.4byte	.LVL143
 6813 1771 FB330000 		.4byte	0x33fb
 6814 1775 83170000 		.4byte	0x1783
 6815 1779 2B       		.uleb128 0x2b
 6816 177a 01       		.uleb128 0x1
 6817 177b 50       		.byte	0x50
 6818 177c 05       		.uleb128 0x5
 6819 177d 03       		.byte	0x3
 6820 177e 48000000 		.4byte	.LC7
 6821 1782 00       		.byte	0
 6822 1783 2A       		.uleb128 0x2a
 6823 1784 36000000 		.4byte	.LVL147
 6824 1788 82330000 		.4byte	0x3382
 6825 178c 2B       		.uleb128 0x2b
 6826 178d 01       		.uleb128 0x1
 6827 178e 50       		.byte	0x50
 6828 178f 01       		.uleb128 0x1
 6829 1790 30       		.byte	0x30
 6830 1791 2B       		.uleb128 0x2b
 6831 1792 01       		.uleb128 0x1
 6832 1793 51       		.byte	0x51
 6833 1794 01       		.uleb128 0x1
 6834 1795 40       		.byte	0x40
 6835 1796 00       		.byte	0
 6836 1797 00       		.byte	0
 6837 1798 06       		.uleb128 0x6
 6838 1799 04       		.byte	0x4
 6839 179a 38060000 		.4byte	0x638
 6840 179e 06       		.uleb128 0x6
 6841 179f 04       		.byte	0x4
 6842 17a0 2D060000 		.4byte	0x62d
 6843 17a4 24       		.uleb128 0x24
 6844 17a5 00010000 		.4byte	.LASF224
 6845 17a9 01       		.byte	0x1
 6846 17aa 7E03     		.2byte	0x37e
 6847 17ac 00000000 		.4byte	.LFB126
 6848 17b0 1E000000 		.4byte	.LFE126-.LFB126
ARM GAS  C:\Users\164\AppData\Local\Temp\ccvDnxKa.s 			page 160


 6849 17b4 01       		.uleb128 0x1
 6850 17b5 9C       		.byte	0x9c
 6851 17b6 09180000 		.4byte	0x1809
 6852 17ba 28       		.uleb128 0x28
 6853 17bb 766D00   		.ascii	"vm\000"
 6854 17be 01       		.byte	0x1
 6855 17bf 7E03     		.2byte	0x37e
 6856 17c1 7B010000 		.4byte	0x17b
 6857 17c5 1D0C0000 		.4byte	.LLST78
 6858 17c9 28       		.uleb128 0x28
 6859 17ca 7600     		.ascii	"v\000"
 6860 17cc 01       		.byte	0x1
 6861 17cd 7E03     		.2byte	0x37e
 6862 17cf C6060000 		.4byte	0x6c6
 6863 17d3 490C0000 		.4byte	.LLST79
 6864 17d7 29       		.uleb128 0x29
 6865 17d8 76070000 		.4byte	.LASF196
 6866 17dc 01       		.byte	0x1
 6867 17dd 7E03     		.2byte	0x37e
 6868 17df 25000000 		.4byte	0x25
 6869 17e3 670C0000 		.4byte	.LLST80
 6870 17e7 2A       		.uleb128 0x2a
 6871 17e8 12000000 		.4byte	.LVL154
 6872 17ec 06340000 		.4byte	0x3406
 6873 17f0 2B       		.uleb128 0x2b
 6874 17f1 01       		.uleb128 0x1
 6875 17f2 50       		.byte	0x50
 6876 17f3 02       		.uleb128 0x2
 6877 17f4 7D       		.byte	0x7d
 6878 17f5 00       		.sleb128 0
 6879 17f6 2B       		.uleb128 0x2b
 6880 17f7 01       		.uleb128 0x1
 6881 17f8 51       		.byte	0x51
 6882 17f9 03       		.uleb128 0x3
 6883 17fa F3       		.byte	0xf3
 6884 17fb 01       		.uleb128 0x1
 6885 17fc 50       		.byte	0x50
 6886 17fd 2B       		.uleb128 0x2b
 6887 17fe 01       		.uleb128 0x1
 6888 17ff 52       		.byte	0x52
 6889 1800 01       		.uleb128 0x1
 6890 1801 30       		.byte	0x30
 6891 1802 2B       		.uleb128 0x2b
 6892 1803 01       		.uleb128 0x1
 6893 1804 53       		.byte	0x53
 6894 1805 01       		.uleb128 0x1
 6895 1806 30       		.byte	0x30
 6896 1807 00       		.byte	0
 6897 1808 00       		.byte	0
 6898 1809 24       		.uleb128 0x24
 6899 180a 80040000 		.4byte	.LASF225
 6900 180e 01       		.byte	0x1
 6901 180f D903     		.2byte	0x3d9
 6902 1811 00000000 		.4byte	.LFB133
 6903 1815 34000000 		.4byte	.LFE133-.LFB133
 6904 1819 01       		.uleb128 0x1
 6905 181a 9C       		.byte	0x9c
ARM GAS  C:\Users\164\AppData\Local\Temp\ccvDnxKa.s 			page 161


 6906 181b 9B180000 		.4byte	0x189b
 6907 181f 3A       		.uleb128 0x3a
 6908 1820 8A080000 		.4byte	.LASF258
 6909 1824 01       		.byte	0x1
 6910 1825 DB03     		.2byte	0x3db
 6911 1827 A6180000 		.4byte	0x18a6
 6912 182b 2C       		.uleb128 0x2c
 6913 182c 766D00   		.ascii	"vm\000"
 6914 182f 01       		.byte	0x1
 6915 1830 DD03     		.2byte	0x3dd
 6916 1832 03070000 		.4byte	0x703
 6917 1836 03       		.uleb128 0x3
 6918 1837 91       		.byte	0x91
 6919 1838 8873     		.sleb128 -1656
 6920 183a 32       		.uleb128 0x32
 6921 183b 0C000000 		.4byte	.LVL155
 6922 183f 11340000 		.4byte	0x3411
 6923 1843 4E180000 		.4byte	0x184e
 6924 1847 2B       		.uleb128 0x2b
 6925 1848 01       		.uleb128 0x1
 6926 1849 50       		.byte	0x50
 6927 184a 02       		.uleb128 0x2
 6928 184b 7D       		.byte	0x7d
 6929 184c 00       		.sleb128 0
 6930 184d 00       		.byte	0
 6931 184e 32       		.uleb128 0x32
 6932 184f 14000000 		.4byte	.LVL156
 6933 1853 1C340000 		.4byte	0x341c
 6934 1857 62180000 		.4byte	0x1862
 6935 185b 2B       		.uleb128 0x2b
 6936 185c 01       		.uleb128 0x1
 6937 185d 50       		.byte	0x50
 6938 185e 02       		.uleb128 0x2
 6939 185f 7D       		.byte	0x7d
 6940 1860 00       		.sleb128 0
 6941 1861 00       		.byte	0
 6942 1862 32       		.uleb128 0x32
 6943 1863 1A000000 		.4byte	.LVL157
 6944 1867 27340000 		.4byte	0x3427
 6945 186b 76180000 		.4byte	0x1876
 6946 186f 2B       		.uleb128 0x2b
 6947 1870 01       		.uleb128 0x1
 6948 1871 50       		.byte	0x50
 6949 1872 02       		.uleb128 0x2
 6950 1873 7D       		.byte	0x7d
 6951 1874 00       		.sleb128 0
 6952 1875 00       		.byte	0
 6953 1876 32       		.uleb128 0x32
 6954 1877 20000000 		.4byte	.LVL158
 6955 187b E5330000 		.4byte	0x33e5
 6956 187f 8A180000 		.4byte	0x188a
 6957 1883 2B       		.uleb128 0x2b
 6958 1884 01       		.uleb128 0x1
 6959 1885 50       		.byte	0x50
 6960 1886 02       		.uleb128 0x2
 6961 1887 7D       		.byte	0x7d
 6962 1888 00       		.sleb128 0
ARM GAS  C:\Users\164\AppData\Local\Temp\ccvDnxKa.s 			page 162


 6963 1889 00       		.byte	0
 6964 188a 2A       		.uleb128 0x2a
 6965 188b 26000000 		.4byte	.LVL159
 6966 188f 32340000 		.4byte	0x3432
 6967 1893 2B       		.uleb128 0x2b
 6968 1894 01       		.uleb128 0x1
 6969 1895 50       		.byte	0x50
 6970 1896 02       		.uleb128 0x2
 6971 1897 7D       		.byte	0x7d
 6972 1898 00       		.sleb128 0
 6973 1899 00       		.byte	0
 6974 189a 00       		.byte	0
 6975 189b 19       		.uleb128 0x19
 6976 189c E3060000 		.4byte	0x6e3
 6977 18a0 A6180000 		.4byte	0x18a6
 6978 18a4 3B       		.uleb128 0x3b
 6979 18a5 00       		.byte	0
 6980 18a6 07       		.uleb128 0x7
 6981 18a7 9B180000 		.4byte	0x189b
 6982 18ab 3C       		.uleb128 0x3c
 6983 18ac 33000000 		.4byte	.LASF234
 6984 18b0 01       		.byte	0x1
 6985 18b1 CF       		.byte	0xcf
 6986 18b2 CC060000 		.4byte	0x6cc
 6987 18b6 00000000 		.4byte	.LFB98
 6988 18ba AC000000 		.4byte	.LFE98-.LFB98
 6989 18be 01       		.uleb128 0x1
 6990 18bf 9C       		.byte	0x9c
 6991 18c0 EF180000 		.4byte	0x18ef
 6992 18c4 3D       		.uleb128 0x3d
 6993 18c5 766D00   		.ascii	"vm\000"
 6994 18c8 01       		.byte	0x1
 6995 18c9 CF       		.byte	0xcf
 6996 18ca 7B010000 		.4byte	0x17b
 6997 18ce 880C0000 		.4byte	.LLST81
 6998 18d2 3E       		.uleb128 0x3e
 6999 18d3 6F626A00 		.ascii	"obj\000"
 7000 18d7 01       		.byte	0x1
 7001 18d8 CF       		.byte	0xcf
 7002 18d9 EF180000 		.4byte	0x18ef
 7003 18dd 01       		.uleb128 0x1
 7004 18de 51       		.byte	0x51
 7005 18df 3F       		.uleb128 0x3f
 7006 18e0 636C7300 		.ascii	"cls\000"
 7007 18e4 01       		.byte	0x1
 7008 18e5 D1       		.byte	0xd1
 7009 18e6 CC060000 		.4byte	0x6cc
 7010 18ea EE0D0000 		.4byte	.LLST82
 7011 18ee 00       		.byte	0
 7012 18ef 06       		.uleb128 0x6
 7013 18f0 04       		.byte	0x4
 7014 18f1 F5180000 		.4byte	0x18f5
 7015 18f5 07       		.uleb128 0x7
 7016 18f6 54050000 		.4byte	0x554
 7017 18fa 24       		.uleb128 0x24
 7018 18fb 45080000 		.4byte	.LASF226
 7019 18ff 01       		.byte	0x1
ARM GAS  C:\Users\164\AppData\Local\Temp\ccvDnxKa.s 			page 163


 7020 1900 4602     		.2byte	0x246
 7021 1902 00000000 		.4byte	.LFB112
 7022 1906 36000000 		.4byte	.LFE112-.LFB112
 7023 190a 01       		.uleb128 0x1
 7024 190b 9C       		.byte	0x9c
 7025 190c 91190000 		.4byte	0x1991
 7026 1910 28       		.uleb128 0x28
 7027 1911 766D00   		.ascii	"vm\000"
 7028 1914 01       		.byte	0x1
 7029 1915 4602     		.2byte	0x246
 7030 1917 7B010000 		.4byte	0x17b
 7031 191b 900E0000 		.4byte	.LLST83
 7032 191f 28       		.uleb128 0x28
 7033 1920 7600     		.ascii	"v\000"
 7034 1922 01       		.byte	0x1
 7035 1923 4602     		.2byte	0x246
 7036 1925 C6060000 		.4byte	0x6c6
 7037 1929 B10E0000 		.4byte	.LLST84
 7038 192d 29       		.uleb128 0x29
 7039 192e 76070000 		.4byte	.LASF196
 7040 1932 01       		.byte	0x1
 7041 1933 4602     		.2byte	0x246
 7042 1935 25000000 		.4byte	0x25
 7043 1939 CF0E0000 		.4byte	.LLST85
 7044 193d 37       		.uleb128 0x37
 7045 193e 2E040000 		.4byte	.LASF227
 7046 1942 01       		.byte	0x1
 7047 1943 4802     		.2byte	0x248
 7048 1945 5F050000 		.4byte	0x55f
 7049 1949 02       		.uleb128 0x2
 7050 194a 91       		.byte	0x91
 7051 194b 60       		.sleb128 -32
 7052 194c 31       		.uleb128 0x31
 7053 194d 1C000000 		.4byte	.LBB126
 7054 1951 16000000 		.4byte	.LBE126-.LBB126
 7055 1955 79190000 		.4byte	0x1979
 7056 1959 2C       		.uleb128 0x2c
 7057 195a 6E6E6E00 		.ascii	"nnn\000"
 7058 195e 01       		.byte	0x1
 7059 195f 4A02     		.2byte	0x24a
 7060 1961 5F050000 		.4byte	0x55f
 7061 1965 02       		.uleb128 0x2
 7062 1966 91       		.byte	0x91
 7063 1967 50       		.sleb128 -48
 7064 1968 2A       		.uleb128 0x2a
 7065 1969 2A000000 		.4byte	.LVL190
 7066 196d 2A330000 		.4byte	0x332a
 7067 1971 2B       		.uleb128 0x2b
 7068 1972 01       		.uleb128 0x1
 7069 1973 50       		.byte	0x50
 7070 1974 02       		.uleb128 0x2
 7071 1975 76       		.byte	0x76
 7072 1976 00       		.sleb128 0
 7073 1977 00       		.byte	0
 7074 1978 00       		.byte	0
 7075 1979 2A       		.uleb128 0x2a
 7076 197a 1A000000 		.4byte	.LVL189
ARM GAS  C:\Users\164\AppData\Local\Temp\ccvDnxKa.s 			page 164


 7077 197e AB180000 		.4byte	0x18ab
 7078 1982 2B       		.uleb128 0x2b
 7079 1983 01       		.uleb128 0x1
 7080 1984 50       		.byte	0x50
 7081 1985 03       		.uleb128 0x3
 7082 1986 F3       		.byte	0xf3
 7083 1987 01       		.uleb128 0x1
 7084 1988 50       		.byte	0x50
 7085 1989 2B       		.uleb128 0x2b
 7086 198a 01       		.uleb128 0x1
 7087 198b 51       		.byte	0x51
 7088 198c 02       		.uleb128 0x2
 7089 198d 76       		.byte	0x76
 7090 198e 00       		.sleb128 0
 7091 198f 00       		.byte	0
 7092 1990 00       		.byte	0
 7093 1991 1F       		.uleb128 0x1f
 7094 1992 CF060000 		.4byte	.LASF228
 7095 1996 02       		.byte	0x2
 7096 1997 49       		.byte	0x49
 7097 1998 03       		.byte	0x3
 7098 1999 A9190000 		.4byte	0x19a9
 7099 199d 20       		.uleb128 0x20
 7100 199e 73747200 		.ascii	"str\000"
 7101 19a2 02       		.byte	0x2
 7102 19a3 49       		.byte	0x49
 7103 19a4 D5000000 		.4byte	0xd5
 7104 19a8 00       		.byte	0
 7105 19a9 40       		.uleb128 0x40
 7106 19aa 71080000 		.4byte	.LASF230
 7107 19ae 01       		.byte	0x1
 7108 19af 2E       		.byte	0x2e
 7109 19b0 25000000 		.4byte	0x25
 7110 19b4 00000000 		.4byte	.LFB95
 7111 19b8 64020000 		.4byte	.LFE95-.LFB95
 7112 19bc 01       		.uleb128 0x1
 7113 19bd 9C       		.byte	0x9c
 7114 19be 12200000 		.4byte	0x2012
 7115 19c2 3D       		.uleb128 0x3d
 7116 19c3 7600     		.ascii	"v\000"
 7117 19c5 01       		.byte	0x1
 7118 19c6 2E       		.byte	0x2e
 7119 19c7 C6060000 		.4byte	0x6c6
 7120 19cb F00E0000 		.4byte	.LLST86
 7121 19cf 3F       		.uleb128 0x3f
 7122 19d0 72657400 		.ascii	"ret\000"
 7123 19d4 01       		.byte	0x1
 7124 19d5 30       		.byte	0x30
 7125 19d6 25000000 		.4byte	0x25
 7126 19da 88100000 		.4byte	.LLST87
 7127 19de 41       		.uleb128 0x41
 7128 19df 91190000 		.4byte	0x1991
 7129 19e3 48000000 		.4byte	.LBB184
 7130 19e7 0A000000 		.4byte	.LBE184-.LBB184
 7131 19eb 01       		.byte	0x1
 7132 19ec 33       		.byte	0x33
 7133 19ed 181A0000 		.4byte	0x1a18
ARM GAS  C:\Users\164\AppData\Local\Temp\ccvDnxKa.s 			page 165


 7134 19f1 30       		.uleb128 0x30
 7135 19f2 9D190000 		.4byte	0x199d
 7136 19f6 A7100000 		.4byte	.LLST88
 7137 19fa 2A       		.uleb128 0x2a
 7138 19fb 52000000 		.4byte	.LVL195
 7139 19ff 3D340000 		.4byte	0x343d
 7140 1a03 2B       		.uleb128 0x2b
 7141 1a04 01       		.uleb128 0x1
 7142 1a05 50       		.byte	0x50
 7143 1a06 01       		.uleb128 0x1
 7144 1a07 31       		.byte	0x31
 7145 1a08 2B       		.uleb128 0x2b
 7146 1a09 01       		.uleb128 0x1
 7147 1a0a 51       		.byte	0x51
 7148 1a0b 05       		.uleb128 0x5
 7149 1a0c 03       		.byte	0x3
 7150 1a0d 74000000 		.4byte	.LC10
 7151 1a11 2B       		.uleb128 0x2b
 7152 1a12 01       		.uleb128 0x1
 7153 1a13 52       		.byte	0x52
 7154 1a14 01       		.uleb128 0x1
 7155 1a15 37       		.byte	0x37
 7156 1a16 00       		.byte	0
 7157 1a17 00       		.byte	0
 7158 1a18 41       		.uleb128 0x41
 7159 1a19 91190000 		.4byte	0x1991
 7160 1a1d 56000000 		.4byte	.LBB186
 7161 1a21 0A000000 		.4byte	.LBE186-.LBB186
 7162 1a25 01       		.byte	0x1
 7163 1a26 35       		.byte	0x35
 7164 1a27 521A0000 		.4byte	0x1a52
 7165 1a2b 30       		.uleb128 0x30
 7166 1a2c 9D190000 		.4byte	0x199d
 7167 1a30 BF100000 		.4byte	.LLST89
 7168 1a34 2A       		.uleb128 0x2a
 7169 1a35 60000000 		.4byte	.LVL198
 7170 1a39 3D340000 		.4byte	0x343d
 7171 1a3d 2B       		.uleb128 0x2b
 7172 1a3e 01       		.uleb128 0x1
 7173 1a3f 50       		.byte	0x50
 7174 1a40 01       		.uleb128 0x1
 7175 1a41 31       		.byte	0x31
 7176 1a42 2B       		.uleb128 0x2b
 7177 1a43 01       		.uleb128 0x1
 7178 1a44 51       		.byte	0x51
 7179 1a45 05       		.uleb128 0x5
 7180 1a46 03       		.byte	0x3
 7181 1a47 04000000 		.4byte	.LC1
 7182 1a4b 2B       		.uleb128 0x2b
 7183 1a4c 01       		.uleb128 0x1
 7184 1a4d 52       		.byte	0x52
 7185 1a4e 01       		.uleb128 0x1
 7186 1a4f 35       		.byte	0x35
 7187 1a50 00       		.byte	0
 7188 1a51 00       		.byte	0
 7189 1a52 41       		.uleb128 0x41
 7190 1a53 91190000 		.4byte	0x1991
ARM GAS  C:\Users\164\AppData\Local\Temp\ccvDnxKa.s 			page 166


 7191 1a57 64000000 		.4byte	.LBB188
 7192 1a5b 0A000000 		.4byte	.LBE188-.LBB188
 7193 1a5f 01       		.byte	0x1
 7194 1a60 36       		.byte	0x36
 7195 1a61 8C1A0000 		.4byte	0x1a8c
 7196 1a65 30       		.uleb128 0x30
 7197 1a66 9D190000 		.4byte	0x199d
 7198 1a6a D7100000 		.4byte	.LLST90
 7199 1a6e 2A       		.uleb128 0x2a
 7200 1a6f 6E000000 		.4byte	.LVL201
 7201 1a73 3D340000 		.4byte	0x343d
 7202 1a77 2B       		.uleb128 0x2b
 7203 1a78 01       		.uleb128 0x1
 7204 1a79 50       		.byte	0x50
 7205 1a7a 01       		.uleb128 0x1
 7206 1a7b 31       		.byte	0x31
 7207 1a7c 2B       		.uleb128 0x2b
 7208 1a7d 01       		.uleb128 0x1
 7209 1a7e 51       		.byte	0x51
 7210 1a7f 05       		.uleb128 0x5
 7211 1a80 03       		.byte	0x3
 7212 1a81 0C000000 		.4byte	.LC2
 7213 1a85 2B       		.uleb128 0x2b
 7214 1a86 01       		.uleb128 0x1
 7215 1a87 52       		.byte	0x52
 7216 1a88 01       		.uleb128 0x1
 7217 1a89 34       		.byte	0x34
 7218 1a8a 00       		.byte	0
 7219 1a8b 00       		.byte	0
 7220 1a8c 41       		.uleb128 0x41
 7221 1a8d 3A0A0000 		.4byte	0xa3a
 7222 1a91 8C000000 		.4byte	.LBB190
 7223 1a95 0A000000 		.4byte	.LBE190-.LBB190
 7224 1a99 01       		.byte	0x1
 7225 1a9a 3C       		.byte	0x3c
 7226 1a9b B21A0000 		.4byte	0x1ab2
 7227 1a9f 30       		.uleb128 0x30
 7228 1aa0 4A0A0000 		.4byte	0xa4a
 7229 1aa4 EF100000 		.4byte	.LLST91
 7230 1aa8 34       		.uleb128 0x34
 7231 1aa9 94000000 		.4byte	.LVL210
 7232 1aad 61330000 		.4byte	0x3361
 7233 1ab1 00       		.byte	0
 7234 1ab2 41       		.uleb128 0x41
 7235 1ab3 91190000 		.4byte	0x1991
 7236 1ab7 96000000 		.4byte	.LBB192
 7237 1abb 0E000000 		.4byte	.LBE192-.LBB192
 7238 1abf 01       		.byte	0x1
 7239 1ac0 3C       		.byte	0x3c
 7240 1ac1 F81A0000 		.4byte	0x1af8
 7241 1ac5 30       		.uleb128 0x30
 7242 1ac6 9D190000 		.4byte	0x199d
 7243 1aca 0D110000 		.4byte	.LLST92
 7244 1ace 32       		.uleb128 0x32
 7245 1acf 9A000000 		.4byte	.LVL212
 7246 1ad3 4B330000 		.4byte	0x334b
 7247 1ad7 E21A0000 		.4byte	0x1ae2
ARM GAS  C:\Users\164\AppData\Local\Temp\ccvDnxKa.s 			page 167


 7248 1adb 2B       		.uleb128 0x2b
 7249 1adc 01       		.uleb128 0x1
 7250 1add 50       		.byte	0x50
 7251 1ade 02       		.uleb128 0x2
 7252 1adf 74       		.byte	0x74
 7253 1ae0 00       		.sleb128 0
 7254 1ae1 00       		.byte	0
 7255 1ae2 2A       		.uleb128 0x2a
 7256 1ae3 A4000000 		.4byte	.LVL213
 7257 1ae7 3D340000 		.4byte	0x343d
 7258 1aeb 2B       		.uleb128 0x2b
 7259 1aec 01       		.uleb128 0x1
 7260 1aed 50       		.byte	0x50
 7261 1aee 01       		.uleb128 0x1
 7262 1aef 31       		.byte	0x31
 7263 1af0 2B       		.uleb128 0x2b
 7264 1af1 01       		.uleb128 0x1
 7265 1af2 51       		.byte	0x51
 7266 1af3 02       		.uleb128 0x2
 7267 1af4 74       		.byte	0x74
 7268 1af5 00       		.sleb128 0
 7269 1af6 00       		.byte	0
 7270 1af7 00       		.byte	0
 7271 1af8 41       		.uleb128 0x41
 7272 1af9 91190000 		.4byte	0x1991
 7273 1afd B4000000 		.4byte	.LBB194
 7274 1b01 0E000000 		.4byte	.LBE194-.LBB194
 7275 1b05 01       		.byte	0x1
 7276 1b06 40       		.byte	0x40
 7277 1b07 3E1B0000 		.4byte	0x1b3e
 7278 1b0b 30       		.uleb128 0x30
 7279 1b0c 9D190000 		.4byte	0x199d
 7280 1b10 2B110000 		.4byte	.LLST93
 7281 1b14 32       		.uleb128 0x32
 7282 1b15 B8000000 		.4byte	.LVL218
 7283 1b19 4B330000 		.4byte	0x334b
 7284 1b1d 281B0000 		.4byte	0x1b28
 7285 1b21 2B       		.uleb128 0x2b
 7286 1b22 01       		.uleb128 0x1
 7287 1b23 50       		.byte	0x50
 7288 1b24 02       		.uleb128 0x2
 7289 1b25 74       		.byte	0x74
 7290 1b26 00       		.sleb128 0
 7291 1b27 00       		.byte	0
 7292 1b28 2A       		.uleb128 0x2a
 7293 1b29 C2000000 		.4byte	.LVL219
 7294 1b2d 3D340000 		.4byte	0x343d
 7295 1b31 2B       		.uleb128 0x2b
 7296 1b32 01       		.uleb128 0x1
 7297 1b33 50       		.byte	0x50
 7298 1b34 01       		.uleb128 0x1
 7299 1b35 31       		.byte	0x31
 7300 1b36 2B       		.uleb128 0x2b
 7301 1b37 01       		.uleb128 0x1
 7302 1b38 51       		.byte	0x51
 7303 1b39 02       		.uleb128 0x2
 7304 1b3a 74       		.byte	0x74
ARM GAS  C:\Users\164\AppData\Local\Temp\ccvDnxKa.s 			page 168


 7305 1b3b 00       		.sleb128 0
 7306 1b3c 00       		.byte	0
 7307 1b3d 00       		.byte	0
 7308 1b3e 31       		.uleb128 0x31
 7309 1b3f F8000000 		.4byte	.LBB196
 7310 1b43 42000000 		.4byte	.LBE196-.LBB196
 7311 1b47 651C0000 		.4byte	0x1c65
 7312 1b4b 3F       		.uleb128 0x3f
 7313 1b4c 6900     		.ascii	"i\000"
 7314 1b4e 01       		.byte	0x1
 7315 1b4f 4E       		.byte	0x4e
 7316 1b50 25000000 		.4byte	0x25
 7317 1b54 49110000 		.4byte	.LLST94
 7318 1b58 41       		.uleb128 0x41
 7319 1b59 5F0A0000 		.4byte	0xa5f
 7320 1b5d F8000000 		.4byte	.LBB197
 7321 1b61 08000000 		.4byte	.LBE197-.LBB197
 7322 1b65 01       		.byte	0x1
 7323 1b66 4D       		.byte	0x4d
 7324 1b67 8F1B0000 		.4byte	0x1b8f
 7325 1b6b 30       		.uleb128 0x30
 7326 1b6c 6B0A0000 		.4byte	0xa6b
 7327 1b70 68110000 		.4byte	.LLST95
 7328 1b74 2A       		.uleb128 0x2a
 7329 1b75 00010000 		.4byte	.LVL231
 7330 1b79 3D340000 		.4byte	0x343d
 7331 1b7d 2B       		.uleb128 0x2b
 7332 1b7e 01       		.uleb128 0x1
 7333 1b7f 50       		.byte	0x50
 7334 1b80 01       		.uleb128 0x1
 7335 1b81 31       		.byte	0x31
 7336 1b82 2B       		.uleb128 0x2b
 7337 1b83 01       		.uleb128 0x1
 7338 1b84 51       		.byte	0x51
 7339 1b85 02       		.uleb128 0x2
 7340 1b86 91       		.byte	0x91
 7341 1b87 42       		.sleb128 -62
 7342 1b88 2B       		.uleb128 0x2b
 7343 1b89 01       		.uleb128 0x1
 7344 1b8a 52       		.byte	0x52
 7345 1b8b 01       		.uleb128 0x1
 7346 1b8c 31       		.byte	0x31
 7347 1b8d 00       		.byte	0
 7348 1b8e 00       		.byte	0
 7349 1b8f 31       		.uleb128 0x31
 7350 1b90 04010000 		.4byte	.LBB199
 7351 1b94 1C000000 		.4byte	.LBE199-.LBB199
 7352 1b98 141C0000 		.4byte	0x1c14
 7353 1b9c 42       		.uleb128 0x42
 7354 1b9d 763100   		.ascii	"v1\000"
 7355 1ba0 01       		.byte	0x1
 7356 1ba1 51       		.byte	0x51
 7357 1ba2 5F050000 		.4byte	0x55f
 7358 1ba6 02       		.uleb128 0x2
 7359 1ba7 91       		.byte	0x91
 7360 1ba8 50       		.sleb128 -48
 7361 1ba9 41       		.uleb128 0x41
ARM GAS  C:\Users\164\AppData\Local\Temp\ccvDnxKa.s 			page 169


 7362 1baa 91190000 		.4byte	0x1991
 7363 1bae 06010000 		.4byte	.LBB200
 7364 1bb2 0A000000 		.4byte	.LBE200-.LBB200
 7365 1bb6 01       		.byte	0x1
 7366 1bb7 50       		.byte	0x50
 7367 1bb8 E31B0000 		.4byte	0x1be3
 7368 1bbc 30       		.uleb128 0x30
 7369 1bbd 9D190000 		.4byte	0x199d
 7370 1bc1 7C110000 		.4byte	.LLST96
 7371 1bc5 2A       		.uleb128 0x2a
 7372 1bc6 10010000 		.4byte	.LVL234
 7373 1bca 3D340000 		.4byte	0x343d
 7374 1bce 2B       		.uleb128 0x2b
 7375 1bcf 01       		.uleb128 0x1
 7376 1bd0 50       		.byte	0x50
 7377 1bd1 01       		.uleb128 0x1
 7378 1bd2 31       		.byte	0x31
 7379 1bd3 2B       		.uleb128 0x2b
 7380 1bd4 01       		.uleb128 0x1
 7381 1bd5 51       		.byte	0x51
 7382 1bd6 05       		.uleb128 0x5
 7383 1bd7 03       		.byte	0x3
 7384 1bd8 94000000 		.4byte	.LC14
 7385 1bdc 2B       		.uleb128 0x2b
 7386 1bdd 01       		.uleb128 0x1
 7387 1bde 52       		.byte	0x52
 7388 1bdf 01       		.uleb128 0x1
 7389 1be0 32       		.byte	0x32
 7390 1be1 00       		.byte	0
 7391 1be2 00       		.byte	0
 7392 1be3 32       		.uleb128 0x32
 7393 1be4 1A010000 		.4byte	.LVL235
 7394 1be8 48340000 		.4byte	0x3448
 7395 1bec 031C0000 		.4byte	0x1c03
 7396 1bf0 2B       		.uleb128 0x2b
 7397 1bf1 01       		.uleb128 0x1
 7398 1bf2 50       		.byte	0x50
 7399 1bf3 02       		.uleb128 0x2
 7400 1bf4 91       		.byte	0x91
 7401 1bf5 50       		.sleb128 -48
 7402 1bf6 2B       		.uleb128 0x2b
 7403 1bf7 01       		.uleb128 0x1
 7404 1bf8 51       		.byte	0x51
 7405 1bf9 02       		.uleb128 0x2
 7406 1bfa 74       		.byte	0x74
 7407 1bfb 00       		.sleb128 0
 7408 1bfc 2B       		.uleb128 0x2b
 7409 1bfd 01       		.uleb128 0x1
 7410 1bfe 52       		.byte	0x52
 7411 1bff 02       		.uleb128 0x2
 7412 1c00 75       		.byte	0x75
 7413 1c01 00       		.sleb128 0
 7414 1c02 00       		.byte	0
 7415 1c03 2A       		.uleb128 0x2a
 7416 1c04 20010000 		.4byte	.LVL236
 7417 1c08 79200000 		.4byte	0x2079
 7418 1c0c 2B       		.uleb128 0x2b
ARM GAS  C:\Users\164\AppData\Local\Temp\ccvDnxKa.s 			page 170


 7419 1c0d 01       		.uleb128 0x1
 7420 1c0e 50       		.byte	0x50
 7421 1c0f 02       		.uleb128 0x2
 7422 1c10 91       		.byte	0x91
 7423 1c11 50       		.sleb128 -48
 7424 1c12 00       		.byte	0
 7425 1c13 00       		.byte	0
 7426 1c14 41       		.uleb128 0x41
 7427 1c15 750A0000 		.4byte	0xa75
 7428 1c19 22010000 		.4byte	.LBB202
 7429 1c1d 04000000 		.4byte	.LBE202-.LBB202
 7430 1c21 01       		.byte	0x1
 7431 1c22 4F       		.byte	0x4f
 7432 1c23 311C0000 		.4byte	0x1c31
 7433 1c27 30       		.uleb128 0x30
 7434 1c28 850A0000 		.4byte	0xa85
 7435 1c2c 94110000 		.4byte	.LLST97
 7436 1c30 00       		.byte	0
 7437 1c31 43       		.uleb128 0x43
 7438 1c32 5F0A0000 		.4byte	0xa5f
 7439 1c36 32010000 		.4byte	.LBB204
 7440 1c3a 08000000 		.4byte	.LBE204-.LBB204
 7441 1c3e 01       		.byte	0x1
 7442 1c3f 54       		.byte	0x54
 7443 1c40 30       		.uleb128 0x30
 7444 1c41 6B0A0000 		.4byte	0xa6b
 7445 1c45 A7110000 		.4byte	.LLST98
 7446 1c49 2A       		.uleb128 0x2a
 7447 1c4a 3A010000 		.4byte	.LVL240
 7448 1c4e 3D340000 		.4byte	0x343d
 7449 1c52 2B       		.uleb128 0x2b
 7450 1c53 01       		.uleb128 0x1
 7451 1c54 50       		.byte	0x50
 7452 1c55 01       		.uleb128 0x1
 7453 1c56 31       		.byte	0x31
 7454 1c57 2B       		.uleb128 0x2b
 7455 1c58 01       		.uleb128 0x1
 7456 1c59 51       		.byte	0x51
 7457 1c5a 02       		.uleb128 0x2
 7458 1c5b 91       		.byte	0x91
 7459 1c5c 44       		.sleb128 -60
 7460 1c5d 2B       		.uleb128 0x2b
 7461 1c5e 01       		.uleb128 0x1
 7462 1c5f 52       		.byte	0x52
 7463 1c60 01       		.uleb128 0x1
 7464 1c61 31       		.byte	0x31
 7465 1c62 00       		.byte	0
 7466 1c63 00       		.byte	0
 7467 1c64 00       		.byte	0
 7468 1c65 41       		.uleb128 0x41
 7469 1c66 D00A0000 		.4byte	0xad0
 7470 1c6a 3E010000 		.4byte	.LBB206
 7471 1c6e 02000000 		.4byte	.LBE206-.LBB206
 7472 1c72 01       		.byte	0x1
 7473 1c73 59       		.byte	0x59
 7474 1c74 821C0000 		.4byte	0x1c82
 7475 1c78 30       		.uleb128 0x30
ARM GAS  C:\Users\164\AppData\Local\Temp\ccvDnxKa.s 			page 171


 7476 1c79 E00A0000 		.4byte	0xae0
 7477 1c7d BB110000 		.4byte	.LLST99
 7478 1c81 00       		.byte	0
 7479 1c82 41       		.uleb128 0x41
 7480 1c83 AD0A0000 		.4byte	0xaad
 7481 1c87 40010000 		.4byte	.LBB208
 7482 1c8b 0A000000 		.4byte	.LBE208-.LBB208
 7483 1c8f 01       		.byte	0x1
 7484 1c90 59       		.byte	0x59
 7485 1c91 AF1C0000 		.4byte	0x1caf
 7486 1c95 44       		.uleb128 0x44
 7487 1c96 C40A0000 		.4byte	0xac4
 7488 1c9a 44       		.uleb128 0x44
 7489 1c9b B90A0000 		.4byte	0xab9
 7490 1c9f 2A       		.uleb128 0x2a
 7491 1ca0 4A010000 		.4byte	.LVL244
 7492 1ca4 3D340000 		.4byte	0x343d
 7493 1ca8 2B       		.uleb128 0x2b
 7494 1ca9 01       		.uleb128 0x1
 7495 1caa 50       		.byte	0x50
 7496 1cab 01       		.uleb128 0x1
 7497 1cac 31       		.byte	0x31
 7498 1cad 00       		.byte	0
 7499 1cae 00       		.byte	0
 7500 1caf 41       		.uleb128 0x41
 7501 1cb0 910A0000 		.4byte	0xa91
 7502 1cb4 4A010000 		.4byte	.LBB210
 7503 1cb8 04000000 		.4byte	.LBE210-.LBB210
 7504 1cbc 01       		.byte	0x1
 7505 1cbd 5A       		.byte	0x5a
 7506 1cbe CC1C0000 		.4byte	0x1ccc
 7507 1cc2 30       		.uleb128 0x30
 7508 1cc3 A10A0000 		.4byte	0xaa1
 7509 1cc7 CE110000 		.4byte	.LLST100
 7510 1ccb 00       		.byte	0
 7511 1ccc 41       		.uleb128 0x41
 7512 1ccd D00A0000 		.4byte	0xad0
 7513 1cd1 52010000 		.4byte	.LBB212
 7514 1cd5 02000000 		.4byte	.LBE212-.LBB212
 7515 1cd9 01       		.byte	0x1
 7516 1cda 5B       		.byte	0x5b
 7517 1cdb E91C0000 		.4byte	0x1ce9
 7518 1cdf 30       		.uleb128 0x30
 7519 1ce0 E00A0000 		.4byte	0xae0
 7520 1ce4 E1110000 		.4byte	.LLST101
 7521 1ce8 00       		.byte	0
 7522 1ce9 31       		.uleb128 0x31
 7523 1cea 60010000 		.4byte	.LBB214
 7524 1cee 46000000 		.4byte	.LBE214-.LBB214
 7525 1cf2 C51D0000 		.4byte	0x1dc5
 7526 1cf6 42       		.uleb128 0x42
 7527 1cf7 763100   		.ascii	"v1\000"
 7528 1cfa 01       		.byte	0x1
 7529 1cfb 60       		.byte	0x60
 7530 1cfc 5F050000 		.4byte	0x55f
 7531 1d00 02       		.uleb128 0x2
 7532 1d01 91       		.byte	0x91
ARM GAS  C:\Users\164\AppData\Local\Temp\ccvDnxKa.s 			page 172


 7533 1d02 50       		.sleb128 -48
 7534 1d03 41       		.uleb128 0x41
 7535 1d04 040B0000 		.4byte	0xb04
 7536 1d08 60010000 		.4byte	.LBB215
 7537 1d0c 0C000000 		.4byte	.LBE215-.LBB215
 7538 1d10 01       		.byte	0x1
 7539 1d11 60       		.byte	0x60
 7540 1d12 201D0000 		.4byte	0x1d20
 7541 1d16 30       		.uleb128 0x30
 7542 1d17 140B0000 		.4byte	0xb14
 7543 1d1b F4110000 		.4byte	.LLST102
 7544 1d1f 00       		.byte	0
 7545 1d20 41       		.uleb128 0x41
 7546 1d21 EA0A0000 		.4byte	0xaea
 7547 1d25 72010000 		.4byte	.LBB217
 7548 1d29 04000000 		.4byte	.LBE217-.LBB217
 7549 1d2d 01       		.byte	0x1
 7550 1d2e 62       		.byte	0x62
 7551 1d2f 3D1D0000 		.4byte	0x1d3d
 7552 1d33 30       		.uleb128 0x30
 7553 1d34 FA0A0000 		.4byte	0xafa
 7554 1d38 12120000 		.4byte	.LLST103
 7555 1d3c 00       		.byte	0
 7556 1d3d 41       		.uleb128 0x41
 7557 1d3e 91190000 		.4byte	0x1991
 7558 1d42 7E010000 		.4byte	.LBB219
 7559 1d46 10000000 		.4byte	.LBE219-.LBB219
 7560 1d4a 01       		.byte	0x1
 7561 1d4b 62       		.byte	0x62
 7562 1d4c 831D0000 		.4byte	0x1d83
 7563 1d50 30       		.uleb128 0x30
 7564 1d51 9D190000 		.4byte	0x199d
 7565 1d55 25120000 		.4byte	.LLST104
 7566 1d59 32       		.uleb128 0x32
 7567 1d5a 84010000 		.4byte	.LVL254
 7568 1d5e 4B330000 		.4byte	0x334b
 7569 1d62 6D1D0000 		.4byte	0x1d6d
 7570 1d66 2B       		.uleb128 0x2b
 7571 1d67 01       		.uleb128 0x1
 7572 1d68 50       		.byte	0x50
 7573 1d69 02       		.uleb128 0x2
 7574 1d6a 75       		.byte	0x75
 7575 1d6b 00       		.sleb128 0
 7576 1d6c 00       		.byte	0
 7577 1d6d 2A       		.uleb128 0x2a
 7578 1d6e 8E010000 		.4byte	.LVL255
 7579 1d72 3D340000 		.4byte	0x343d
 7580 1d76 2B       		.uleb128 0x2b
 7581 1d77 01       		.uleb128 0x1
 7582 1d78 50       		.byte	0x50
 7583 1d79 01       		.uleb128 0x1
 7584 1d7a 31       		.byte	0x31
 7585 1d7b 2B       		.uleb128 0x2b
 7586 1d7c 01       		.uleb128 0x1
 7587 1d7d 51       		.byte	0x51
 7588 1d7e 02       		.uleb128 0x2
 7589 1d7f 75       		.byte	0x75
ARM GAS  C:\Users\164\AppData\Local\Temp\ccvDnxKa.s 			page 173


 7590 1d80 00       		.sleb128 0
 7591 1d81 00       		.byte	0
 7592 1d82 00       		.byte	0
 7593 1d83 41       		.uleb128 0x41
 7594 1d84 1E0B0000 		.4byte	0xb1e
 7595 1d88 8E010000 		.4byte	.LBB221
 7596 1d8c 0C000000 		.4byte	.LBE221-.LBB221
 7597 1d90 01       		.byte	0x1
 7598 1d91 63       		.byte	0x63
 7599 1d92 A01D0000 		.4byte	0x1da0
 7600 1d96 30       		.uleb128 0x30
 7601 1d97 2E0B0000 		.4byte	0xb2e
 7602 1d9b 38120000 		.4byte	.LLST105
 7603 1d9f 00       		.byte	0
 7604 1da0 32       		.uleb128 0x32
 7605 1da1 72010000 		.4byte	.LVL251
 7606 1da5 A9190000 		.4byte	0x19a9
 7607 1da9 B41D0000 		.4byte	0x1db4
 7608 1dad 2B       		.uleb128 0x2b
 7609 1dae 01       		.uleb128 0x1
 7610 1daf 50       		.byte	0x50
 7611 1db0 02       		.uleb128 0x2
 7612 1db1 75       		.byte	0x75
 7613 1db2 00       		.sleb128 0
 7614 1db3 00       		.byte	0
 7615 1db4 2A       		.uleb128 0x2a
 7616 1db5 A6010000 		.4byte	.LVL258
 7617 1db9 A9190000 		.4byte	0x19a9
 7618 1dbd 2B       		.uleb128 0x2b
 7619 1dbe 01       		.uleb128 0x1
 7620 1dbf 50       		.byte	0x50
 7621 1dc0 02       		.uleb128 0x2
 7622 1dc1 75       		.byte	0x75
 7623 1dc2 00       		.sleb128 0
 7624 1dc3 00       		.byte	0
 7625 1dc4 00       		.byte	0
 7626 1dc5 31       		.uleb128 0x31
 7627 1dc6 B2010000 		.4byte	.LBB223
 7628 1dca 66000000 		.4byte	.LBE223-.LBB223
 7629 1dce 771F0000 		.4byte	0x1f77
 7630 1dd2 42       		.uleb128 0x42
 7631 1dd3 69746500 		.ascii	"ite\000"
 7632 1dd7 01       		.byte	0x1
 7633 1dd8 69       		.byte	0x69
 7634 1dd9 8A090000 		.4byte	0x98a
 7635 1ddd 02       		.uleb128 0x2
 7636 1dde 91       		.byte	0x91
 7637 1ddf 44       		.sleb128 -60
 7638 1de0 41       		.uleb128 0x41
 7639 1de1 5F0A0000 		.4byte	0xa5f
 7640 1de5 B2010000 		.4byte	.LBB224
 7641 1de9 08000000 		.4byte	.LBE224-.LBB224
 7642 1ded 01       		.byte	0x1
 7643 1dee 68       		.byte	0x68
 7644 1def 171E0000 		.4byte	0x1e17
 7645 1df3 30       		.uleb128 0x30
 7646 1df4 6B0A0000 		.4byte	0xa6b
ARM GAS  C:\Users\164\AppData\Local\Temp\ccvDnxKa.s 			page 174


 7647 1df8 59120000 		.4byte	.LLST106
 7648 1dfc 2A       		.uleb128 0x2a
 7649 1dfd BA010000 		.4byte	.LVL262
 7650 1e01 3D340000 		.4byte	0x343d
 7651 1e05 2B       		.uleb128 0x2b
 7652 1e06 01       		.uleb128 0x1
 7653 1e07 50       		.byte	0x50
 7654 1e08 01       		.uleb128 0x1
 7655 1e09 31       		.byte	0x31
 7656 1e0a 2B       		.uleb128 0x2b
 7657 1e0b 01       		.uleb128 0x1
 7658 1e0c 51       		.byte	0x51
 7659 1e0d 02       		.uleb128 0x2
 7660 1e0e 91       		.byte	0x91
 7661 1e0f 43       		.sleb128 -61
 7662 1e10 2B       		.uleb128 0x2b
 7663 1e11 01       		.uleb128 0x1
 7664 1e12 52       		.byte	0x52
 7665 1e13 01       		.uleb128 0x1
 7666 1e14 31       		.byte	0x31
 7667 1e15 00       		.byte	0
 7668 1e16 00       		.byte	0
 7669 1e17 41       		.uleb128 0x41
 7670 1e18 380B0000 		.4byte	0xb38
 7671 1e1c BA010000 		.4byte	.LBB226
 7672 1e20 1C000000 		.4byte	.LBE226-.LBB226
 7673 1e24 01       		.byte	0x1
 7674 1e25 69       		.byte	0x69
 7675 1e26 461E0000 		.4byte	0x1e46
 7676 1e2a 30       		.uleb128 0x30
 7677 1e2b 480B0000 		.4byte	0xb48
 7678 1e2f 6D120000 		.4byte	.LLST107
 7679 1e33 38       		.uleb128 0x38
 7680 1e34 BA010000 		.4byte	.LBB227
 7681 1e38 1C000000 		.4byte	.LBE227-.LBB227
 7682 1e3c 45       		.uleb128 0x45
 7683 1e3d 510B0000 		.4byte	0xb51
 7684 1e41 02       		.uleb128 0x2
 7685 1e42 91       		.byte	0x91
 7686 1e43 50       		.sleb128 -48
 7687 1e44 00       		.byte	0
 7688 1e45 00       		.byte	0
 7689 1e46 31       		.uleb128 0x31
 7690 1e47 D6010000 		.4byte	.LBB228
 7691 1e4b 2C000000 		.4byte	.LBE228-.LBB228
 7692 1e4f 261F0000 		.4byte	0x1f26
 7693 1e53 22       		.uleb128 0x22
 7694 1e54 766B00   		.ascii	"vk\000"
 7695 1e57 01       		.byte	0x1
 7696 1e58 6B       		.byte	0x6b
 7697 1e59 C6060000 		.4byte	0x6c6
 7698 1e5d 41       		.uleb128 0x41
 7699 1e5e 7F0B0000 		.4byte	0xb7f
 7700 1e62 D6010000 		.4byte	.LBB229
 7701 1e66 06000000 		.4byte	.LBE229-.LBB229
 7702 1e6a 01       		.byte	0x1
 7703 1e6b 6B       		.byte	0x6b
ARM GAS  C:\Users\164\AppData\Local\Temp\ccvDnxKa.s 			page 175


 7704 1e6c 8D1E0000 		.4byte	0x1e8d
 7705 1e70 30       		.uleb128 0x30
 7706 1e71 8F0B0000 		.4byte	0xb8f
 7707 1e75 8E120000 		.4byte	.LLST108
 7708 1e79 38       		.uleb128 0x38
 7709 1e7a D6010000 		.4byte	.LBB230
 7710 1e7e 06000000 		.4byte	.LBE230-.LBB230
 7711 1e82 39       		.uleb128 0x39
 7712 1e83 9A0B0000 		.4byte	0xb9a
 7713 1e87 A3120000 		.4byte	.LLST109
 7714 1e8b 00       		.byte	0
 7715 1e8c 00       		.byte	0
 7716 1e8d 41       		.uleb128 0x41
 7717 1e8e 91190000 		.4byte	0x1991
 7718 1e92 E2010000 		.4byte	.LBB231
 7719 1e96 0A000000 		.4byte	.LBE231-.LBB231
 7720 1e9a 01       		.byte	0x1
 7721 1e9b 6D       		.byte	0x6d
 7722 1e9c C71E0000 		.4byte	0x1ec7
 7723 1ea0 30       		.uleb128 0x30
 7724 1ea1 9D190000 		.4byte	0x199d
 7725 1ea5 B6120000 		.4byte	.LLST110
 7726 1ea9 2A       		.uleb128 0x2a
 7727 1eaa EC010000 		.4byte	.LVL266
 7728 1eae 3D340000 		.4byte	0x343d
 7729 1eb2 2B       		.uleb128 0x2b
 7730 1eb3 01       		.uleb128 0x1
 7731 1eb4 50       		.byte	0x50
 7732 1eb5 01       		.uleb128 0x1
 7733 1eb6 31       		.byte	0x31
 7734 1eb7 2B       		.uleb128 0x2b
 7735 1eb8 01       		.uleb128 0x1
 7736 1eb9 51       		.byte	0x51
 7737 1eba 05       		.uleb128 0x5
 7738 1ebb 03       		.byte	0x3
 7739 1ebc 98000000 		.4byte	.LC15
 7740 1ec0 2B       		.uleb128 0x2b
 7741 1ec1 01       		.uleb128 0x1
 7742 1ec2 52       		.byte	0x52
 7743 1ec3 01       		.uleb128 0x1
 7744 1ec4 32       		.byte	0x32
 7745 1ec5 00       		.byte	0
 7746 1ec6 00       		.byte	0
 7747 1ec7 41       		.uleb128 0x41
 7748 1ec8 91190000 		.4byte	0x1991
 7749 1ecc F8010000 		.4byte	.LBB233
 7750 1ed0 0A000000 		.4byte	.LBE233-.LBB233
 7751 1ed4 01       		.byte	0x1
 7752 1ed5 6F       		.byte	0x6f
 7753 1ed6 011F0000 		.4byte	0x1f01
 7754 1eda 30       		.uleb128 0x30
 7755 1edb 9D190000 		.4byte	0x199d
 7756 1edf CE120000 		.4byte	.LLST111
 7757 1ee3 2A       		.uleb128 0x2a
 7758 1ee4 02020000 		.4byte	.LVL269
 7759 1ee8 3D340000 		.4byte	0x343d
 7760 1eec 2B       		.uleb128 0x2b
ARM GAS  C:\Users\164\AppData\Local\Temp\ccvDnxKa.s 			page 176


 7761 1eed 01       		.uleb128 0x1
 7762 1eee 50       		.byte	0x50
 7763 1eef 01       		.uleb128 0x1
 7764 1ef0 31       		.byte	0x31
 7765 1ef1 2B       		.uleb128 0x2b
 7766 1ef2 01       		.uleb128 0x1
 7767 1ef3 51       		.byte	0x51
 7768 1ef4 05       		.uleb128 0x5
 7769 1ef5 03       		.byte	0x3
 7770 1ef6 94000000 		.4byte	.LC14
 7771 1efa 2B       		.uleb128 0x2b
 7772 1efb 01       		.uleb128 0x1
 7773 1efc 52       		.byte	0x52
 7774 1efd 01       		.uleb128 0x1
 7775 1efe 32       		.byte	0x32
 7776 1eff 00       		.byte	0
 7777 1f00 00       		.byte	0
 7778 1f01 32       		.uleb128 0x32
 7779 1f02 E2010000 		.4byte	.LVL265
 7780 1f06 79200000 		.4byte	0x2079
 7781 1f0a 151F0000 		.4byte	0x1f15
 7782 1f0e 2B       		.uleb128 0x2b
 7783 1f0f 01       		.uleb128 0x1
 7784 1f10 50       		.byte	0x50
 7785 1f11 02       		.uleb128 0x2
 7786 1f12 74       		.byte	0x74
 7787 1f13 00       		.sleb128 0
 7788 1f14 00       		.byte	0
 7789 1f15 2A       		.uleb128 0x2a
 7790 1f16 F4010000 		.4byte	.LVL267
 7791 1f1a 79200000 		.4byte	0x2079
 7792 1f1e 2B       		.uleb128 0x2b
 7793 1f1f 01       		.uleb128 0x1
 7794 1f20 50       		.byte	0x50
 7795 1f21 02       		.uleb128 0x2
 7796 1f22 74       		.byte	0x74
 7797 1f23 10       		.sleb128 16
 7798 1f24 00       		.byte	0
 7799 1f25 00       		.byte	0
 7800 1f26 41       		.uleb128 0x41
 7801 1f27 5D0B0000 		.4byte	0xb5d
 7802 1f2b 02020000 		.4byte	.LBB235
 7803 1f2f 02000000 		.4byte	.LBE235-.LBB235
 7804 1f33 01       		.byte	0x1
 7805 1f34 6A       		.byte	0x6a
 7806 1f35 431F0000 		.4byte	0x1f43
 7807 1f39 30       		.uleb128 0x30
 7808 1f3a 6D0B0000 		.4byte	0xb6d
 7809 1f3e E6120000 		.4byte	.LLST112
 7810 1f42 00       		.byte	0
 7811 1f43 43       		.uleb128 0x43
 7812 1f44 5F0A0000 		.4byte	0xa5f
 7813 1f48 10020000 		.4byte	.LBB237
 7814 1f4c 08000000 		.4byte	.LBE237-.LBB237
 7815 1f50 01       		.byte	0x1
 7816 1f51 71       		.byte	0x71
 7817 1f52 30       		.uleb128 0x30
ARM GAS  C:\Users\164\AppData\Local\Temp\ccvDnxKa.s 			page 177


 7818 1f53 6B0A0000 		.4byte	0xa6b
 7819 1f57 FB120000 		.4byte	.LLST113
 7820 1f5b 2A       		.uleb128 0x2a
 7821 1f5c 18020000 		.4byte	.LVL272
 7822 1f60 3D340000 		.4byte	0x343d
 7823 1f64 2B       		.uleb128 0x2b
 7824 1f65 01       		.uleb128 0x1
 7825 1f66 50       		.byte	0x50
 7826 1f67 01       		.uleb128 0x1
 7827 1f68 31       		.byte	0x31
 7828 1f69 2B       		.uleb128 0x2b
 7829 1f6a 01       		.uleb128 0x1
 7830 1f6b 51       		.byte	0x51
 7831 1f6c 02       		.uleb128 0x2
 7832 1f6d 91       		.byte	0x91
 7833 1f6e 50       		.sleb128 -48
 7834 1f6f 2B       		.uleb128 0x2b
 7835 1f70 01       		.uleb128 0x1
 7836 1f71 52       		.byte	0x52
 7837 1f72 01       		.uleb128 0x1
 7838 1f73 31       		.byte	0x31
 7839 1f74 00       		.byte	0
 7840 1f75 00       		.byte	0
 7841 1f76 00       		.byte	0
 7842 1f77 32       		.uleb128 0x32
 7843 1f78 7A000000 		.4byte	.LVL204
 7844 1f7c FB330000 		.4byte	0x33fb
 7845 1f80 8E1F0000 		.4byte	0x1f8e
 7846 1f84 2B       		.uleb128 0x2b
 7847 1f85 01       		.uleb128 0x1
 7848 1f86 50       		.byte	0x50
 7849 1f87 05       		.uleb128 0x5
 7850 1f88 03       		.byte	0x3
 7851 1f89 7C000000 		.4byte	.LC11
 7852 1f8d 00       		.byte	0
 7853 1f8e 32       		.uleb128 0x32
 7854 1f8f 88000000 		.4byte	.LVL207
 7855 1f93 FB330000 		.4byte	0x33fb
 7856 1f97 A51F0000 		.4byte	0x1fa5
 7857 1f9b 2B       		.uleb128 0x2b
 7858 1f9c 01       		.uleb128 0x1
 7859 1f9d 50       		.byte	0x50
 7860 1f9e 05       		.uleb128 0x5
 7861 1f9f 03       		.byte	0x3
 7862 1fa0 80000000 		.4byte	.LC12
 7863 1fa4 00       		.byte	0
 7864 1fa5 34       		.uleb128 0x34
 7865 1fa6 B2000000 		.4byte	.LVL216
 7866 1faa 61330000 		.4byte	0x3361
 7867 1fae 32       		.uleb128 0x32
 7868 1faf CE000000 		.4byte	.LVL222
 7869 1fb3 AB180000 		.4byte	0x18ab
 7870 1fb7 C71F0000 		.4byte	0x1fc7
 7871 1fbb 2B       		.uleb128 0x2b
 7872 1fbc 01       		.uleb128 0x1
 7873 1fbd 50       		.byte	0x50
 7874 1fbe 01       		.uleb128 0x1
ARM GAS  C:\Users\164\AppData\Local\Temp\ccvDnxKa.s 			page 178


 7875 1fbf 30       		.byte	0x30
 7876 1fc0 2B       		.uleb128 0x2b
 7877 1fc1 01       		.uleb128 0x1
 7878 1fc2 51       		.byte	0x51
 7879 1fc3 02       		.uleb128 0x2
 7880 1fc4 74       		.byte	0x74
 7881 1fc5 00       		.sleb128 0
 7882 1fc6 00       		.byte	0
 7883 1fc7 34       		.uleb128 0x34
 7884 1fc8 D6000000 		.4byte	.LVL223
 7885 1fcc 61330000 		.4byte	0x3361
 7886 1fd0 32       		.uleb128 0x32
 7887 1fd1 E0000000 		.4byte	.LVL224
 7888 1fd5 FB330000 		.4byte	0x33fb
 7889 1fd9 E71F0000 		.4byte	0x1fe7
 7890 1fdd 2B       		.uleb128 0x2b
 7891 1fde 01       		.uleb128 0x1
 7892 1fdf 50       		.byte	0x50
 7893 1fe0 05       		.uleb128 0x5
 7894 1fe1 03       		.byte	0x3
 7895 1fe2 28000000 		.4byte	.LC5
 7896 1fe6 00       		.byte	0
 7897 1fe7 32       		.uleb128 0x32
 7898 1fe8 EC000000 		.4byte	.LVL227
 7899 1fec FB330000 		.4byte	0x33fb
 7900 1ff0 FE1F0000 		.4byte	0x1ffe
 7901 1ff4 2B       		.uleb128 0x2b
 7902 1ff5 01       		.uleb128 0x1
 7903 1ff6 50       		.byte	0x50
 7904 1ff7 05       		.uleb128 0x5
 7905 1ff8 03       		.byte	0x3
 7906 1ff9 84000000 		.4byte	.LC13
 7907 1ffd 00       		.byte	0
 7908 1ffe 2A       		.uleb128 0x2a
 7909 1fff 22020000 		.4byte	.LVL275
 7910 2003 FB330000 		.4byte	0x33fb
 7911 2007 2B       		.uleb128 0x2b
 7912 2008 01       		.uleb128 0x1
 7913 2009 50       		.byte	0x50
 7914 200a 05       		.uleb128 0x5
 7915 200b 03       		.byte	0x3
 7916 200c 9C000000 		.4byte	.LC16
 7917 2010 00       		.byte	0
 7918 2011 00       		.byte	0
 7919 2012 24       		.uleb128 0x24
 7920 2013 3D010000 		.4byte	.LASF229
 7921 2017 01       		.byte	0x1
 7922 2018 0C02     		.2byte	0x20c
 7923 201a 00000000 		.4byte	.LFB107
 7924 201e 1A000000 		.4byte	.LFE107-.LFB107
 7925 2022 01       		.uleb128 0x1
 7926 2023 9C       		.byte	0x9c
 7927 2024 79200000 		.4byte	0x2079
 7928 2028 28       		.uleb128 0x28
 7929 2029 766D00   		.ascii	"vm\000"
 7930 202c 01       		.byte	0x1
 7931 202d 0C02     		.2byte	0x20c
ARM GAS  C:\Users\164\AppData\Local\Temp\ccvDnxKa.s 			page 179


 7932 202f 7B010000 		.4byte	0x17b
 7933 2033 0F130000 		.4byte	.LLST114
 7934 2037 28       		.uleb128 0x28
 7935 2038 7600     		.ascii	"v\000"
 7936 203a 01       		.byte	0x1
 7937 203b 0C02     		.2byte	0x20c
 7938 203d C6060000 		.4byte	0x6c6
 7939 2041 30130000 		.4byte	.LLST115
 7940 2045 29       		.uleb128 0x29
 7941 2046 76070000 		.4byte	.LASF196
 7942 204a 01       		.byte	0x1
 7943 204b 0C02     		.2byte	0x20c
 7944 204d 25000000 		.4byte	0x25
 7945 2051 4E130000 		.4byte	.LLST116
 7946 2055 33       		.uleb128 0x33
 7947 2056 6900     		.ascii	"i\000"
 7948 2058 01       		.byte	0x1
 7949 2059 0E02     		.2byte	0x20e
 7950 205b 25000000 		.4byte	0x25
 7951 205f 6C130000 		.4byte	.LLST117
 7952 2063 2A       		.uleb128 0x2a
 7953 2064 12000000 		.4byte	.LVL282
 7954 2068 A9190000 		.4byte	0x19a9
 7955 206c 2B       		.uleb128 0x2b
 7956 206d 01       		.uleb128 0x1
 7957 206e 50       		.byte	0x50
 7958 206f 07       		.uleb128 0x7
 7959 2070 74       		.byte	0x74
 7960 2071 00       		.sleb128 0
 7961 2072 34       		.byte	0x34
 7962 2073 24       		.byte	0x24
 7963 2074 76       		.byte	0x76
 7964 2075 00       		.sleb128 0
 7965 2076 22       		.byte	0x22
 7966 2077 00       		.byte	0
 7967 2078 00       		.byte	0
 7968 2079 40       		.uleb128 0x40
 7969 207a DA090000 		.4byte	.LASF231
 7970 207e 01       		.byte	0x1
 7971 207f 97       		.byte	0x97
 7972 2080 25000000 		.4byte	0x25
 7973 2084 00000000 		.4byte	.LFB97
 7974 2088 1C010000 		.4byte	.LFE97-.LFB97
 7975 208c 01       		.uleb128 0x1
 7976 208d 9C       		.byte	0x9c
 7977 208e 4B230000 		.4byte	0x234b
 7978 2092 3D       		.uleb128 0x3d
 7979 2093 7600     		.ascii	"v\000"
 7980 2095 01       		.byte	0x1
 7981 2096 97       		.byte	0x97
 7982 2097 C6060000 		.4byte	0x6c6
 7983 209b 8B130000 		.4byte	.LLST118
 7984 209f 41       		.uleb128 0x41
 7985 20a0 91190000 		.4byte	0x1991
 7986 20a4 2C000000 		.4byte	.LBB264
 7987 20a8 0C000000 		.4byte	.LBE264-.LBB264
 7988 20ac 01       		.byte	0x1
ARM GAS  C:\Users\164\AppData\Local\Temp\ccvDnxKa.s 			page 180


 7989 20ad 9B       		.byte	0x9b
 7990 20ae D9200000 		.4byte	0x20d9
 7991 20b2 30       		.uleb128 0x30
 7992 20b3 9D190000 		.4byte	0x199d
 7993 20b7 1D140000 		.4byte	.LLST119
 7994 20bb 2A       		.uleb128 0x2a
 7995 20bc 36000000 		.4byte	.LVL287
 7996 20c0 3D340000 		.4byte	0x343d
 7997 20c4 2B       		.uleb128 0x2b
 7998 20c5 01       		.uleb128 0x1
 7999 20c6 50       		.byte	0x50
 8000 20c7 01       		.uleb128 0x1
 8001 20c8 31       		.byte	0x31
 8002 20c9 2B       		.uleb128 0x2b
 8003 20ca 01       		.uleb128 0x1
 8004 20cb 51       		.byte	0x51
 8005 20cc 05       		.uleb128 0x5
 8006 20cd 03       		.byte	0x3
 8007 20ce 00000000 		.4byte	.LC0
 8008 20d2 2B       		.uleb128 0x2b
 8009 20d3 01       		.uleb128 0x1
 8010 20d4 52       		.byte	0x52
 8011 20d5 01       		.uleb128 0x1
 8012 20d6 33       		.byte	0x33
 8013 20d7 00       		.byte	0
 8014 20d8 00       		.byte	0
 8015 20d9 31       		.uleb128 0x31
 8016 20da 38000000 		.4byte	.LBB266
 8017 20de 1E000000 		.4byte	.LBE266-.LBB266
 8018 20e2 4F210000 		.4byte	0x214f
 8019 20e6 22       		.uleb128 0x22
 8020 20e7 7300     		.ascii	"s\000"
 8021 20e9 01       		.byte	0x1
 8022 20ea 9F       		.byte	0x9f
 8023 20eb D5000000 		.4byte	0xd5
 8024 20ef 3F       		.uleb128 0x3f
 8025 20f0 666D7400 		.ascii	"fmt\000"
 8026 20f4 01       		.byte	0x1
 8027 20f5 A0       		.byte	0xa0
 8028 20f6 C8000000 		.4byte	0xc8
 8029 20fa 35140000 		.4byte	.LLST120
 8030 20fe 41       		.uleb128 0x41
 8031 20ff 3A0A0000 		.4byte	0xa3a
 8032 2103 38000000 		.4byte	.LBB267
 8033 2107 0A000000 		.4byte	.LBE267-.LBB267
 8034 210b 01       		.byte	0x1
 8035 210c 9F       		.byte	0x9f
 8036 210d 24210000 		.4byte	0x2124
 8037 2111 30       		.uleb128 0x30
 8038 2112 4A0A0000 		.4byte	0xa4a
 8039 2116 48140000 		.4byte	.LLST121
 8040 211a 34       		.uleb128 0x34
 8041 211b 40000000 		.4byte	.LVL290
 8042 211f 61330000 		.4byte	0x3361
 8043 2123 00       		.byte	0
 8044 2124 32       		.uleb128 0x32
 8045 2125 48000000 		.4byte	.LVL292
ARM GAS  C:\Users\164\AppData\Local\Temp\ccvDnxKa.s 			page 181


 8046 2129 53340000 		.4byte	0x3453
 8047 212d 3E210000 		.4byte	0x213e
 8048 2131 2B       		.uleb128 0x2b
 8049 2132 01       		.uleb128 0x1
 8050 2133 50       		.byte	0x50
 8051 2134 02       		.uleb128 0x2
 8052 2135 74       		.byte	0x74
 8053 2136 00       		.sleb128 0
 8054 2137 2B       		.uleb128 0x2b
 8055 2138 01       		.uleb128 0x1
 8056 2139 51       		.byte	0x51
 8057 213a 02       		.uleb128 0x2
 8058 213b 08       		.byte	0x8
 8059 213c 3A       		.byte	0x3a
 8060 213d 00       		.byte	0
 8061 213e 2A       		.uleb128 0x2a
 8062 213f 56000000 		.4byte	.LVL294
 8063 2143 FB330000 		.4byte	0x33fb
 8064 2147 2B       		.uleb128 0x2b
 8065 2148 01       		.uleb128 0x1
 8066 2149 51       		.byte	0x51
 8067 214a 02       		.uleb128 0x2
 8068 214b 74       		.byte	0x74
 8069 214c 00       		.sleb128 0
 8070 214d 00       		.byte	0
 8071 214e 00       		.byte	0
 8072 214f 31       		.uleb128 0x31
 8073 2150 60000000 		.4byte	.LBB269
 8074 2154 50000000 		.4byte	.LBE269-.LBB269
 8075 2158 65220000 		.4byte	0x2265
 8076 215c 22       		.uleb128 0x22
 8077 215d 7300     		.ascii	"s\000"
 8078 215f 01       		.byte	0x1
 8079 2160 A7       		.byte	0xa7
 8080 2161 4B230000 		.4byte	0x234b
 8081 2165 3F       		.uleb128 0x3f
 8082 2166 6900     		.ascii	"i\000"
 8083 2168 01       		.byte	0x1
 8084 2169 A8       		.byte	0xa8
 8085 216a 25000000 		.4byte	0x25
 8086 216e 66140000 		.4byte	.LLST122
 8087 2172 41       		.uleb128 0x41
 8088 2173 5F0A0000 		.4byte	0xa5f
 8089 2177 60000000 		.4byte	.LBB270
 8090 217b 08000000 		.4byte	.LBE270-.LBB270
 8091 217f 01       		.byte	0x1
 8092 2180 A6       		.byte	0xa6
 8093 2181 A9210000 		.4byte	0x21a9
 8094 2185 30       		.uleb128 0x30
 8095 2186 6B0A0000 		.4byte	0xa6b
 8096 218a 85140000 		.4byte	.LLST123
 8097 218e 2A       		.uleb128 0x2a
 8098 218f 68000000 		.4byte	.LVL298
 8099 2193 3D340000 		.4byte	0x343d
 8100 2197 2B       		.uleb128 0x2b
 8101 2198 01       		.uleb128 0x1
 8102 2199 50       		.byte	0x50
ARM GAS  C:\Users\164\AppData\Local\Temp\ccvDnxKa.s 			page 182


 8103 219a 01       		.uleb128 0x1
 8104 219b 31       		.byte	0x31
 8105 219c 2B       		.uleb128 0x2b
 8106 219d 01       		.uleb128 0x1
 8107 219e 51       		.byte	0x51
 8108 219f 02       		.uleb128 0x2
 8109 21a0 91       		.byte	0x91
 8110 21a1 4E       		.sleb128 -50
 8111 21a2 2B       		.uleb128 0x2b
 8112 21a3 01       		.uleb128 0x1
 8113 21a4 52       		.byte	0x52
 8114 21a5 01       		.uleb128 0x1
 8115 21a6 31       		.byte	0x31
 8116 21a7 00       		.byte	0
 8117 21a8 00       		.byte	0
 8118 21a9 41       		.uleb128 0x41
 8119 21aa D00A0000 		.4byte	0xad0
 8120 21ae 68000000 		.4byte	.LBB272
 8121 21b2 04000000 		.4byte	.LBE272-.LBB272
 8122 21b6 01       		.byte	0x1
 8123 21b7 A7       		.byte	0xa7
 8124 21b8 C6210000 		.4byte	0x21c6
 8125 21bc 30       		.uleb128 0x30
 8126 21bd E00A0000 		.4byte	0xae0
 8127 21c1 99140000 		.4byte	.LLST124
 8128 21c5 00       		.byte	0
 8129 21c6 41       		.uleb128 0x41
 8130 21c7 5F0A0000 		.4byte	0xa5f
 8131 21cb 8C000000 		.4byte	.LBB274
 8132 21cf 08000000 		.4byte	.LBE274-.LBB274
 8133 21d3 01       		.byte	0x1
 8134 21d4 AD       		.byte	0xad
 8135 21d5 FD210000 		.4byte	0x21fd
 8136 21d9 30       		.uleb128 0x30
 8137 21da 6B0A0000 		.4byte	0xa6b
 8138 21de AC140000 		.4byte	.LLST125
 8139 21e2 2A       		.uleb128 0x2a
 8140 21e3 94000000 		.4byte	.LVL303
 8141 21e7 3D340000 		.4byte	0x343d
 8142 21eb 2B       		.uleb128 0x2b
 8143 21ec 01       		.uleb128 0x1
 8144 21ed 50       		.byte	0x50
 8145 21ee 01       		.uleb128 0x1
 8146 21ef 31       		.byte	0x31
 8147 21f0 2B       		.uleb128 0x2b
 8148 21f1 01       		.uleb128 0x1
 8149 21f2 51       		.byte	0x51
 8150 21f3 02       		.uleb128 0x2
 8151 21f4 91       		.byte	0x91
 8152 21f5 4F       		.sleb128 -49
 8153 21f6 2B       		.uleb128 0x2b
 8154 21f7 01       		.uleb128 0x1
 8155 21f8 52       		.byte	0x52
 8156 21f9 01       		.uleb128 0x1
 8157 21fa 31       		.byte	0x31
 8158 21fb 00       		.byte	0
 8159 21fc 00       		.byte	0
ARM GAS  C:\Users\164\AppData\Local\Temp\ccvDnxKa.s 			page 183


 8160 21fd 41       		.uleb128 0x41
 8161 21fe 910A0000 		.4byte	0xa91
 8162 2202 96000000 		.4byte	.LBB276
 8163 2206 04000000 		.4byte	.LBE276-.LBB276
 8164 220a 01       		.byte	0x1
 8165 220b A9       		.byte	0xa9
 8166 220c 1A220000 		.4byte	0x221a
 8167 2210 30       		.uleb128 0x30
 8168 2211 A10A0000 		.4byte	0xaa1
 8169 2215 C0140000 		.4byte	.LLST126
 8170 2219 00       		.byte	0
 8171 221a 41       		.uleb128 0x41
 8172 221b 5F0A0000 		.4byte	0xa5f
 8173 221f A6000000 		.4byte	.LBB278
 8174 2223 0A000000 		.4byte	.LBE278-.LBB278
 8175 2227 01       		.byte	0x1
 8176 2228 B0       		.byte	0xb0
 8177 2229 51220000 		.4byte	0x2251
 8178 222d 30       		.uleb128 0x30
 8179 222e 6B0A0000 		.4byte	0xa6b
 8180 2232 D3140000 		.4byte	.LLST127
 8181 2236 2A       		.uleb128 0x2a
 8182 2237 AE000000 		.4byte	.LVL307
 8183 223b 3D340000 		.4byte	0x343d
 8184 223f 2B       		.uleb128 0x2b
 8185 2240 01       		.uleb128 0x1
 8186 2241 50       		.byte	0x50
 8187 2242 01       		.uleb128 0x1
 8188 2243 31       		.byte	0x31
 8189 2244 2B       		.uleb128 0x2b
 8190 2245 01       		.uleb128 0x1
 8191 2246 51       		.byte	0x51
 8192 2247 02       		.uleb128 0x2
 8193 2248 91       		.byte	0x91
 8194 2249 50       		.sleb128 -48
 8195 224a 2B       		.uleb128 0x2b
 8196 224b 01       		.uleb128 0x1
 8197 224c 52       		.byte	0x52
 8198 224d 01       		.uleb128 0x1
 8199 224e 31       		.byte	0x31
 8200 224f 00       		.byte	0
 8201 2250 00       		.byte	0
 8202 2251 2A       		.uleb128 0x2a
 8203 2252 84000000 		.4byte	.LVL301
 8204 2256 FB330000 		.4byte	0x33fb
 8205 225a 2B       		.uleb128 0x2b
 8206 225b 01       		.uleb128 0x1
 8207 225c 50       		.byte	0x50
 8208 225d 05       		.uleb128 0x5
 8209 225e 03       		.byte	0x3
 8210 225f C4000000 		.4byte	.LC19
 8211 2263 00       		.byte	0
 8212 2264 00       		.byte	0
 8213 2265 31       		.uleb128 0x31
 8214 2266 B0000000 		.4byte	.LBB280
 8215 226a 46000000 		.4byte	.LBE280-.LBB280
 8216 226e 41230000 		.4byte	0x2341
ARM GAS  C:\Users\164\AppData\Local\Temp\ccvDnxKa.s 			page 184


 8217 2272 42       		.uleb128 0x42
 8218 2273 763100   		.ascii	"v1\000"
 8219 2276 01       		.byte	0x1
 8220 2277 B5       		.byte	0xb5
 8221 2278 5F050000 		.4byte	0x55f
 8222 227c 02       		.uleb128 0x2
 8223 227d 91       		.byte	0x91
 8224 227e 50       		.sleb128 -48
 8225 227f 41       		.uleb128 0x41
 8226 2280 040B0000 		.4byte	0xb04
 8227 2284 B0000000 		.4byte	.LBB281
 8228 2288 0C000000 		.4byte	.LBE281-.LBB281
 8229 228c 01       		.byte	0x1
 8230 228d B5       		.byte	0xb5
 8231 228e 9C220000 		.4byte	0x229c
 8232 2292 30       		.uleb128 0x30
 8233 2293 140B0000 		.4byte	0xb14
 8234 2297 E7140000 		.4byte	.LLST128
 8235 229b 00       		.byte	0
 8236 229c 41       		.uleb128 0x41
 8237 229d EA0A0000 		.4byte	0xaea
 8238 22a1 C2000000 		.4byte	.LBB283
 8239 22a5 04000000 		.4byte	.LBE283-.LBB283
 8240 22a9 01       		.byte	0x1
 8241 22aa B7       		.byte	0xb7
 8242 22ab B9220000 		.4byte	0x22b9
 8243 22af 30       		.uleb128 0x30
 8244 22b0 FA0A0000 		.4byte	0xafa
 8245 22b4 05150000 		.4byte	.LLST129
 8246 22b8 00       		.byte	0
 8247 22b9 41       		.uleb128 0x41
 8248 22ba 91190000 		.4byte	0x1991
 8249 22be CE000000 		.4byte	.LBB285
 8250 22c2 10000000 		.4byte	.LBE285-.LBB285
 8251 22c6 01       		.byte	0x1
 8252 22c7 B7       		.byte	0xb7
 8253 22c8 FF220000 		.4byte	0x22ff
 8254 22cc 30       		.uleb128 0x30
 8255 22cd 9D190000 		.4byte	0x199d
 8256 22d1 18150000 		.4byte	.LLST130
 8257 22d5 32       		.uleb128 0x32
 8258 22d6 D4000000 		.4byte	.LVL314
 8259 22da 4B330000 		.4byte	0x334b
 8260 22de E9220000 		.4byte	0x22e9
 8261 22e2 2B       		.uleb128 0x2b
 8262 22e3 01       		.uleb128 0x1
 8263 22e4 50       		.byte	0x50
 8264 22e5 02       		.uleb128 0x2
 8265 22e6 74       		.byte	0x74
 8266 22e7 00       		.sleb128 0
 8267 22e8 00       		.byte	0
 8268 22e9 2A       		.uleb128 0x2a
 8269 22ea DE000000 		.4byte	.LVL315
 8270 22ee 3D340000 		.4byte	0x343d
 8271 22f2 2B       		.uleb128 0x2b
 8272 22f3 01       		.uleb128 0x1
 8273 22f4 50       		.byte	0x50
ARM GAS  C:\Users\164\AppData\Local\Temp\ccvDnxKa.s 			page 185


 8274 22f5 01       		.uleb128 0x1
 8275 22f6 31       		.byte	0x31
 8276 22f7 2B       		.uleb128 0x2b
 8277 22f8 01       		.uleb128 0x1
 8278 22f9 51       		.byte	0x51
 8279 22fa 02       		.uleb128 0x2
 8280 22fb 74       		.byte	0x74
 8281 22fc 00       		.sleb128 0
 8282 22fd 00       		.byte	0
 8283 22fe 00       		.byte	0
 8284 22ff 41       		.uleb128 0x41
 8285 2300 1E0B0000 		.4byte	0xb1e
 8286 2304 DE000000 		.4byte	.LBB287
 8287 2308 0C000000 		.4byte	.LBE287-.LBB287
 8288 230c 01       		.byte	0x1
 8289 230d B8       		.byte	0xb8
 8290 230e 1C230000 		.4byte	0x231c
 8291 2312 30       		.uleb128 0x30
 8292 2313 2E0B0000 		.4byte	0xb2e
 8293 2317 2B150000 		.4byte	.LLST131
 8294 231b 00       		.byte	0
 8295 231c 32       		.uleb128 0x32
 8296 231d C2000000 		.4byte	.LVL311
 8297 2321 79200000 		.4byte	0x2079
 8298 2325 30230000 		.4byte	0x2330
 8299 2329 2B       		.uleb128 0x2b
 8300 232a 01       		.uleb128 0x1
 8301 232b 50       		.byte	0x50
 8302 232c 02       		.uleb128 0x2
 8303 232d 74       		.byte	0x74
 8304 232e 00       		.sleb128 0
 8305 232f 00       		.byte	0
 8306 2330 2A       		.uleb128 0x2a
 8307 2331 F6000000 		.4byte	.LVL318
 8308 2335 79200000 		.4byte	0x2079
 8309 2339 2B       		.uleb128 0x2b
 8310 233a 01       		.uleb128 0x1
 8311 233b 50       		.byte	0x50
 8312 233c 02       		.uleb128 0x2
 8313 233d 75       		.byte	0x75
 8314 233e 00       		.sleb128 0
 8315 233f 00       		.byte	0
 8316 2340 00       		.byte	0
 8317 2341 34       		.uleb128 0x34
 8318 2342 FC000000 		.4byte	.LVL320
 8319 2346 A9190000 		.4byte	0x19a9
 8320 234a 00       		.byte	0
 8321 234b 06       		.uleb128 0x6
 8322 234c 04       		.byte	0x4
 8323 234d 51230000 		.4byte	0x2351
 8324 2351 07       		.uleb128 0x7
 8325 2352 5E000000 		.4byte	0x5e
 8326 2356 40       		.uleb128 0x40
 8327 2357 320D0000 		.4byte	.LASF232
 8328 235b 01       		.byte	0x1
 8329 235c 84       		.byte	0x84
 8330 235d 25000000 		.4byte	0x25
ARM GAS  C:\Users\164\AppData\Local\Temp\ccvDnxKa.s 			page 186


 8331 2361 00000000 		.4byte	.LFB96
 8332 2365 4C000000 		.4byte	.LFE96-.LFB96
 8333 2369 01       		.uleb128 0x1
 8334 236a 9C       		.byte	0x9c
 8335 236b 38240000 		.4byte	0x2438
 8336 236f 3D       		.uleb128 0x3d
 8337 2370 7600     		.ascii	"v\000"
 8338 2372 01       		.byte	0x1
 8339 2373 84       		.byte	0x84
 8340 2374 C6060000 		.4byte	0x6c6
 8341 2378 3E150000 		.4byte	.LLST132
 8342 237c 46       		.uleb128 0x46
 8343 237d 00000000 		.4byte	.Ldebug_ranges0+0
 8344 2381 2E240000 		.4byte	0x242e
 8345 2385 3F       		.uleb128 0x3f
 8346 2386 6900     		.ascii	"i\000"
 8347 2388 01       		.byte	0x1
 8348 2389 87       		.byte	0x87
 8349 238a 25000000 		.4byte	0x25
 8350 238e 88150000 		.4byte	.LLST133
 8351 2392 31       		.uleb128 0x31
 8352 2393 10000000 		.4byte	.LBB290
 8353 2397 22000000 		.4byte	.LBE290-.LBB290
 8354 239b 14240000 		.4byte	0x2414
 8355 239f 42       		.uleb128 0x42
 8356 23a0 763100   		.ascii	"v1\000"
 8357 23a3 01       		.byte	0x1
 8358 23a4 8A       		.byte	0x8a
 8359 23a5 5F050000 		.4byte	0x55f
 8360 23a9 02       		.uleb128 0x2
 8361 23aa 91       		.byte	0x91
 8362 23ab 60       		.sleb128 -32
 8363 23ac 41       		.uleb128 0x41
 8364 23ad 5F0A0000 		.4byte	0xa5f
 8365 23b1 1A000000 		.4byte	.LBB291
 8366 23b5 08000000 		.4byte	.LBE291-.LBB291
 8367 23b9 01       		.byte	0x1
 8368 23ba 89       		.byte	0x89
 8369 23bb E3230000 		.4byte	0x23e3
 8370 23bf 30       		.uleb128 0x30
 8371 23c0 6B0A0000 		.4byte	0xa6b
 8372 23c4 A6150000 		.4byte	.LLST134
 8373 23c8 2A       		.uleb128 0x2a
 8374 23c9 22000000 		.4byte	.LVL324
 8375 23cd 3D340000 		.4byte	0x343d
 8376 23d1 2B       		.uleb128 0x2b
 8377 23d2 01       		.uleb128 0x1
 8378 23d3 50       		.byte	0x50
 8379 23d4 01       		.uleb128 0x1
 8380 23d5 31       		.byte	0x31
 8381 23d6 2B       		.uleb128 0x2b
 8382 23d7 01       		.uleb128 0x1
 8383 23d8 51       		.byte	0x51
 8384 23d9 02       		.uleb128 0x2
 8385 23da 91       		.byte	0x91
 8386 23db 5F       		.sleb128 -33
 8387 23dc 2B       		.uleb128 0x2b
ARM GAS  C:\Users\164\AppData\Local\Temp\ccvDnxKa.s 			page 187


 8388 23dd 01       		.uleb128 0x1
 8389 23de 52       		.byte	0x52
 8390 23df 01       		.uleb128 0x1
 8391 23e0 31       		.byte	0x31
 8392 23e1 00       		.byte	0
 8393 23e2 00       		.byte	0
 8394 23e3 32       		.uleb128 0x32
 8395 23e4 2C000000 		.4byte	.LVL325
 8396 23e8 48340000 		.4byte	0x3448
 8397 23ec 03240000 		.4byte	0x2403
 8398 23f0 2B       		.uleb128 0x2b
 8399 23f1 01       		.uleb128 0x1
 8400 23f2 50       		.byte	0x50
 8401 23f3 02       		.uleb128 0x2
 8402 23f4 91       		.byte	0x91
 8403 23f5 60       		.sleb128 -32
 8404 23f6 2B       		.uleb128 0x2b
 8405 23f7 01       		.uleb128 0x1
 8406 23f8 51       		.byte	0x51
 8407 23f9 02       		.uleb128 0x2
 8408 23fa 75       		.byte	0x75
 8409 23fb 00       		.sleb128 0
 8410 23fc 2B       		.uleb128 0x2b
 8411 23fd 01       		.uleb128 0x1
 8412 23fe 52       		.byte	0x52
 8413 23ff 02       		.uleb128 0x2
 8414 2400 74       		.byte	0x74
 8415 2401 00       		.sleb128 0
 8416 2402 00       		.byte	0
 8417 2403 2A       		.uleb128 0x2a
 8418 2404 32000000 		.4byte	.LVL326
 8419 2408 56230000 		.4byte	0x2356
 8420 240c 2B       		.uleb128 0x2b
 8421 240d 01       		.uleb128 0x1
 8422 240e 50       		.byte	0x50
 8423 240f 02       		.uleb128 0x2
 8424 2410 91       		.byte	0x91
 8425 2411 60       		.sleb128 -32
 8426 2412 00       		.byte	0
 8427 2413 00       		.byte	0
 8428 2414 43       		.uleb128 0x43
 8429 2415 750A0000 		.4byte	0xa75
 8430 2419 38000000 		.4byte	.LBB293
 8431 241d 04000000 		.4byte	.LBE293-.LBB293
 8432 2421 01       		.byte	0x1
 8433 2422 88       		.byte	0x88
 8434 2423 30       		.uleb128 0x30
 8435 2424 850A0000 		.4byte	0xa85
 8436 2428 BA150000 		.4byte	.LLST135
 8437 242c 00       		.byte	0
 8438 242d 00       		.byte	0
 8439 242e 34       		.uleb128 0x34
 8440 242f 48000000 		.4byte	.LVL332
 8441 2433 A9190000 		.4byte	0x19a9
 8442 2437 00       		.byte	0
 8443 2438 24       		.uleb128 0x24
 8444 2439 400D0000 		.4byte	.LASF233
ARM GAS  C:\Users\164\AppData\Local\Temp\ccvDnxKa.s 			page 188


 8445 243d 01       		.byte	0x1
 8446 243e FC01     		.2byte	0x1fc
 8447 2440 00000000 		.4byte	.LFB106
 8448 2444 46000000 		.4byte	.LFE106-.LFB106
 8449 2448 01       		.uleb128 0x1
 8450 2449 9C       		.byte	0x9c
 8451 244a 0F250000 		.4byte	0x250f
 8452 244e 28       		.uleb128 0x28
 8453 244f 766D00   		.ascii	"vm\000"
 8454 2452 01       		.byte	0x1
 8455 2453 FC01     		.2byte	0x1fc
 8456 2455 7B010000 		.4byte	0x17b
 8457 2459 CD150000 		.4byte	.LLST136
 8458 245d 28       		.uleb128 0x28
 8459 245e 7600     		.ascii	"v\000"
 8460 2460 01       		.byte	0x1
 8461 2461 FC01     		.2byte	0x1fc
 8462 2463 C6060000 		.4byte	0x6c6
 8463 2467 20160000 		.4byte	.LLST137
 8464 246b 29       		.uleb128 0x29
 8465 246c 76070000 		.4byte	.LASF196
 8466 2470 01       		.byte	0x1
 8467 2471 FC01     		.2byte	0x1fc
 8468 2473 25000000 		.4byte	0x25
 8469 2477 6D160000 		.4byte	.LLST138
 8470 247b 33       		.uleb128 0x33
 8471 247c 6900     		.ascii	"i\000"
 8472 247e 01       		.byte	0x1
 8473 247f FE01     		.2byte	0x1fe
 8474 2481 25000000 		.4byte	0x25
 8475 2485 BA160000 		.4byte	.LLST139
 8476 2489 2D       		.uleb128 0x2d
 8477 248a 5F0A0000 		.4byte	0xa5f
 8478 248e 1A000000 		.4byte	.LBB296
 8479 2492 08000000 		.4byte	.LBE296-.LBB296
 8480 2496 01       		.byte	0x1
 8481 2497 0102     		.2byte	0x201
 8482 2499 C1240000 		.4byte	0x24c1
 8483 249d 30       		.uleb128 0x30
 8484 249e 6B0A0000 		.4byte	0xa6b
 8485 24a2 D8160000 		.4byte	.LLST140
 8486 24a6 2A       		.uleb128 0x2a
 8487 24a7 22000000 		.4byte	.LVL337
 8488 24ab 3D340000 		.4byte	0x343d
 8489 24af 2B       		.uleb128 0x2b
 8490 24b0 01       		.uleb128 0x1
 8491 24b1 50       		.byte	0x50
 8492 24b2 01       		.uleb128 0x1
 8493 24b3 31       		.byte	0x31
 8494 24b4 2B       		.uleb128 0x2b
 8495 24b5 01       		.uleb128 0x1
 8496 24b6 51       		.byte	0x51
 8497 24b7 02       		.uleb128 0x2
 8498 24b8 91       		.byte	0x91
 8499 24b9 6E       		.sleb128 -18
 8500 24ba 2B       		.uleb128 0x2b
 8501 24bb 01       		.uleb128 0x1
ARM GAS  C:\Users\164\AppData\Local\Temp\ccvDnxKa.s 			page 189


 8502 24bc 52       		.byte	0x52
 8503 24bd 01       		.uleb128 0x1
 8504 24be 31       		.byte	0x31
 8505 24bf 00       		.byte	0
 8506 24c0 00       		.byte	0
 8507 24c1 2D       		.uleb128 0x2d
 8508 24c2 5F0A0000 		.4byte	0xa5f
 8509 24c6 3A000000 		.4byte	.LBB298
 8510 24ca 08000000 		.4byte	.LBE298-.LBB298
 8511 24ce 01       		.byte	0x1
 8512 24cf 0402     		.2byte	0x204
 8513 24d1 F9240000 		.4byte	0x24f9
 8514 24d5 30       		.uleb128 0x30
 8515 24d6 6B0A0000 		.4byte	0xa6b
 8516 24da EC160000 		.4byte	.LLST141
 8517 24de 2A       		.uleb128 0x2a
 8518 24df 42000000 		.4byte	.LVL346
 8519 24e3 3D340000 		.4byte	0x343d
 8520 24e7 2B       		.uleb128 0x2b
 8521 24e8 01       		.uleb128 0x1
 8522 24e9 50       		.byte	0x50
 8523 24ea 01       		.uleb128 0x1
 8524 24eb 31       		.byte	0x31
 8525 24ec 2B       		.uleb128 0x2b
 8526 24ed 01       		.uleb128 0x1
 8527 24ee 51       		.byte	0x51
 8528 24ef 02       		.uleb128 0x2
 8529 24f0 91       		.byte	0x91
 8530 24f1 6F       		.sleb128 -17
 8531 24f2 2B       		.uleb128 0x2b
 8532 24f3 01       		.uleb128 0x1
 8533 24f4 52       		.byte	0x52
 8534 24f5 01       		.uleb128 0x1
 8535 24f6 31       		.byte	0x31
 8536 24f7 00       		.byte	0
 8537 24f8 00       		.byte	0
 8538 24f9 2A       		.uleb128 0x2a
 8539 24fa 10000000 		.4byte	.LVL335
 8540 24fe 56230000 		.4byte	0x2356
 8541 2502 2B       		.uleb128 0x2b
 8542 2503 01       		.uleb128 0x1
 8543 2504 50       		.byte	0x50
 8544 2505 07       		.uleb128 0x7
 8545 2506 74       		.byte	0x74
 8546 2507 00       		.sleb128 0
 8547 2508 34       		.byte	0x34
 8548 2509 24       		.byte	0x24
 8549 250a 76       		.byte	0x76
 8550 250b 00       		.sleb128 0
 8551 250c 22       		.byte	0x22
 8552 250d 00       		.byte	0
 8553 250e 00       		.byte	0
 8554 250f 3C       		.uleb128 0x3c
 8555 2510 8D090000 		.4byte	.LASF235
 8556 2514 01       		.byte	0x1
 8557 2515 F4       		.byte	0xf4
 8558 2516 9E170000 		.4byte	0x179e
ARM GAS  C:\Users\164\AppData\Local\Temp\ccvDnxKa.s 			page 190


 8559 251a 00000000 		.4byte	.LFB99
 8560 251e 28000000 		.4byte	.LFE99-.LFB99
 8561 2522 01       		.uleb128 0x1
 8562 2523 9C       		.byte	0x9c
 8563 2524 95250000 		.4byte	0x2595
 8564 2528 3D       		.uleb128 0x3d
 8565 2529 766D00   		.ascii	"vm\000"
 8566 252c 01       		.byte	0x1
 8567 252d F4       		.byte	0xf4
 8568 252e 7B010000 		.4byte	0x17b
 8569 2532 00170000 		.4byte	.LLST142
 8570 2536 47       		.uleb128 0x47
 8571 2537 190A0000 		.4byte	.LASF236
 8572 253b 01       		.byte	0x1
 8573 253c F4       		.byte	0xf4
 8574 253d EF180000 		.4byte	0x18ef
 8575 2541 21170000 		.4byte	.LLST143
 8576 2545 47       		.uleb128 0x47
 8577 2546 F9000000 		.4byte	.LASF66
 8578 254a 01       		.byte	0x1
 8579 254b F4       		.byte	0xf4
 8580 254c 4A010000 		.4byte	0x14a
 8581 2550 42170000 		.4byte	.LLST144
 8582 2554 3F       		.uleb128 0x3f
 8583 2555 636C7300 		.ascii	"cls\000"
 8584 2559 01       		.byte	0x1
 8585 255a F6       		.byte	0xf6
 8586 255b CC060000 		.4byte	0x6cc
 8587 255f 63170000 		.4byte	.LLST145
 8588 2563 46       		.uleb128 0x46
 8589 2564 18000000 		.4byte	.Ldebug_ranges0+0x18
 8590 2568 7C250000 		.4byte	0x257c
 8591 256c 48       		.uleb128 0x48
 8592 256d E0040000 		.4byte	.LASF60
 8593 2571 01       		.byte	0x1
 8594 2572 F9       		.byte	0xf9
 8595 2573 9E170000 		.4byte	0x179e
 8596 2577 76170000 		.4byte	.LLST146
 8597 257b 00       		.byte	0
 8598 257c 2A       		.uleb128 0x2a
 8599 257d 08000000 		.4byte	.LVL348
 8600 2581 AB180000 		.4byte	0x18ab
 8601 2585 2B       		.uleb128 0x2b
 8602 2586 01       		.uleb128 0x1
 8603 2587 50       		.byte	0x50
 8604 2588 03       		.uleb128 0x3
 8605 2589 F3       		.byte	0xf3
 8606 258a 01       		.uleb128 0x1
 8607 258b 50       		.byte	0x50
 8608 258c 2B       		.uleb128 0x2b
 8609 258d 01       		.uleb128 0x1
 8610 258e 51       		.byte	0x51
 8611 258f 03       		.uleb128 0x3
 8612 2590 F3       		.byte	0xf3
 8613 2591 01       		.uleb128 0x1
 8614 2592 51       		.byte	0x51
 8615 2593 00       		.byte	0
ARM GAS  C:\Users\164\AppData\Local\Temp\ccvDnxKa.s 			page 191


 8616 2594 00       		.byte	0
 8617 2595 49       		.uleb128 0x49
 8618 2596 430F0000 		.4byte	.LASF237
 8619 259a 01       		.byte	0x1
 8620 259b 0F01     		.2byte	0x10f
 8621 259d CC060000 		.4byte	0x6cc
 8622 25a1 00000000 		.4byte	.LFB100
 8623 25a5 7C000000 		.4byte	.LFE100-.LFB100
 8624 25a9 01       		.uleb128 0x1
 8625 25aa 9C       		.byte	0x9c
 8626 25ab C1260000 		.4byte	0x26c1
 8627 25af 28       		.uleb128 0x28
 8628 25b0 766D00   		.ascii	"vm\000"
 8629 25b3 01       		.byte	0x1
 8630 25b4 0F01     		.2byte	0x10f
 8631 25b6 7B010000 		.4byte	0x17b
 8632 25ba 94170000 		.4byte	.LLST147
 8633 25be 29       		.uleb128 0x29
 8634 25bf 5B0C0000 		.4byte	.LASF210
 8635 25c3 01       		.byte	0x1
 8636 25c4 0F01     		.2byte	0x10f
 8637 25c6 D5000000 		.4byte	0xd5
 8638 25ca B5170000 		.4byte	.LLST148
 8639 25ce 29       		.uleb128 0x29
 8640 25cf 61010000 		.4byte	.LASF67
 8641 25d3 01       		.byte	0x1
 8642 25d4 0F01     		.2byte	0x10f
 8643 25d6 CC060000 		.4byte	0x6cc
 8644 25da D6170000 		.4byte	.LLST149
 8645 25de 35       		.uleb128 0x35
 8646 25df F9000000 		.4byte	.LASF66
 8647 25e3 01       		.byte	0x1
 8648 25e4 1301     		.2byte	0x113
 8649 25e6 4A010000 		.4byte	0x14a
 8650 25ea F4170000 		.4byte	.LLST150
 8651 25ee 2C       		.uleb128 0x2c
 8652 25ef 6F626A00 		.ascii	"obj\000"
 8653 25f3 01       		.byte	0x1
 8654 25f4 1401     		.2byte	0x114
 8655 25f6 54050000 		.4byte	0x554
 8656 25fa 02       		.uleb128 0x2
 8657 25fb 91       		.byte	0x91
 8658 25fc 60       		.sleb128 -32
 8659 25fd 4A       		.uleb128 0x4a
 8660 25fe A3000000 		.4byte	.LASF238
 8661 2602 D1260000 		.4byte	0x26d1
 8662 2606 05       		.uleb128 0x5
 8663 2607 03       		.byte	0x3
 8664 2608 00000000 		.4byte	__func__.7379
 8665 260c 31       		.uleb128 0x31
 8666 260d 24000000 		.4byte	.LBB302
 8667 2611 2E000000 		.4byte	.LBE302-.LBB302
 8668 2615 65260000 		.4byte	0x2665
 8669 2619 33       		.uleb128 0x33
 8670 261a 636C7300 		.ascii	"cls\000"
 8671 261e 01       		.byte	0x1
 8672 261f 1801     		.2byte	0x118
ARM GAS  C:\Users\164\AppData\Local\Temp\ccvDnxKa.s 			page 192


 8673 2621 CC060000 		.4byte	0x6cc
 8674 2625 07180000 		.4byte	.LLST151
 8675 2629 2C       		.uleb128 0x2c
 8676 262a 7600     		.ascii	"v\000"
 8677 262c 01       		.byte	0x1
 8678 262d 2301     		.2byte	0x123
 8679 262f 5F050000 		.4byte	0x55f
 8680 2633 02       		.uleb128 0x2
 8681 2634 91       		.byte	0x91
 8682 2635 50       		.sleb128 -48
 8683 2636 32       		.uleb128 0x32
 8684 2637 2C000000 		.4byte	.LVL361
 8685 263b 82330000 		.4byte	0x3382
 8686 263f 4E260000 		.4byte	0x264e
 8687 2643 2B       		.uleb128 0x2b
 8688 2644 01       		.uleb128 0x1
 8689 2645 50       		.byte	0x50
 8690 2646 01       		.uleb128 0x1
 8691 2647 30       		.byte	0x30
 8692 2648 2B       		.uleb128 0x2b
 8693 2649 01       		.uleb128 0x1
 8694 264a 51       		.byte	0x51
 8695 264b 01       		.uleb128 0x1
 8696 264c 3C       		.byte	0x3c
 8697 264d 00       		.byte	0
 8698 264e 2A       		.uleb128 0x2a
 8699 264f 4E000000 		.4byte	.LVL363
 8700 2653 5E340000 		.4byte	0x345e
 8701 2657 2B       		.uleb128 0x2b
 8702 2658 01       		.uleb128 0x1
 8703 2659 50       		.byte	0x50
 8704 265a 02       		.uleb128 0x2
 8705 265b 75       		.byte	0x75
 8706 265c 00       		.sleb128 0
 8707 265d 2B       		.uleb128 0x2b
 8708 265e 01       		.uleb128 0x1
 8709 265f 51       		.byte	0x51
 8710 2660 02       		.uleb128 0x2
 8711 2661 7D       		.byte	0x7d
 8712 2662 00       		.sleb128 0
 8713 2663 00       		.byte	0
 8714 2664 00       		.byte	0
 8715 2665 32       		.uleb128 0x32
 8716 2666 12000000 		.4byte	.LVL357
 8717 266a 98330000 		.4byte	0x3398
 8718 266e 7A260000 		.4byte	0x267a
 8719 2672 2B       		.uleb128 0x2b
 8720 2673 01       		.uleb128 0x1
 8721 2674 50       		.byte	0x50
 8722 2675 03       		.uleb128 0x3
 8723 2676 F3       		.byte	0xf3
 8724 2677 01       		.uleb128 0x1
 8725 2678 51       		.byte	0x51
 8726 2679 00       		.byte	0
 8727 267a 32       		.uleb128 0x32
 8728 267b 1C000000 		.4byte	.LVL360
 8729 267f 69340000 		.4byte	0x3469
ARM GAS  C:\Users\164\AppData\Local\Temp\ccvDnxKa.s 			page 193


 8730 2683 94260000 		.4byte	0x2694
 8731 2687 2B       		.uleb128 0x2b
 8732 2688 01       		.uleb128 0x1
 8733 2689 50       		.byte	0x50
 8734 268a 02       		.uleb128 0x2
 8735 268b 91       		.byte	0x91
 8736 268c 60       		.sleb128 -32
 8737 268d 2B       		.uleb128 0x2b
 8738 268e 01       		.uleb128 0x1
 8739 268f 51       		.byte	0x51
 8740 2690 02       		.uleb128 0x2
 8741 2691 75       		.byte	0x75
 8742 2692 00       		.sleb128 0
 8743 2693 00       		.byte	0
 8744 2694 2A       		.uleb128 0x2a
 8745 2695 68000000 		.4byte	.LVL365
 8746 2699 74340000 		.4byte	0x3474
 8747 269d 2B       		.uleb128 0x2b
 8748 269e 01       		.uleb128 0x1
 8749 269f 50       		.byte	0x50
 8750 26a0 05       		.uleb128 0x5
 8751 26a1 03       		.byte	0x3
 8752 26a2 DC000000 		.4byte	.LC21
 8753 26a6 2B       		.uleb128 0x2b
 8754 26a7 01       		.uleb128 0x1
 8755 26a8 51       		.byte	0x51
 8756 26a9 03       		.uleb128 0x3
 8757 26aa 0A       		.byte	0xa
 8758 26ab 3101     		.2byte	0x131
 8759 26ad 2B       		.uleb128 0x2b
 8760 26ae 01       		.uleb128 0x1
 8761 26af 52       		.byte	0x52
 8762 26b0 05       		.uleb128 0x5
 8763 26b1 03       		.byte	0x3
 8764 26b2 00000000 		.4byte	.LANCHOR0
 8765 26b6 2B       		.uleb128 0x2b
 8766 26b7 01       		.uleb128 0x1
 8767 26b8 53       		.byte	0x53
 8768 26b9 05       		.uleb128 0x5
 8769 26ba 03       		.byte	0x3
 8770 26bb CC000000 		.4byte	.LC20
 8771 26bf 00       		.byte	0
 8772 26c0 00       		.byte	0
 8773 26c1 19       		.uleb128 0x19
 8774 26c2 DB000000 		.4byte	0xdb
 8775 26c6 D1260000 		.4byte	0x26d1
 8776 26ca 1B       		.uleb128 0x1b
 8777 26cb BF000000 		.4byte	0xbf
 8778 26cf 11       		.byte	0x11
 8779 26d0 00       		.byte	0
 8780 26d1 07       		.uleb128 0x7
 8781 26d2 C1260000 		.4byte	0x26c1
 8782 26d6 49       		.uleb128 0x49
 8783 26d7 5A050000 		.4byte	.LASF239
 8784 26db 01       		.byte	0x1
 8785 26dc 3C01     		.2byte	0x13c
 8786 26de CC060000 		.4byte	0x6cc
ARM GAS  C:\Users\164\AppData\Local\Temp\ccvDnxKa.s 			page 194


 8787 26e2 00000000 		.4byte	.LFB101
 8788 26e6 24000000 		.4byte	.LFE101-.LFB101
 8789 26ea 01       		.uleb128 0x1
 8790 26eb 9C       		.byte	0x9c
 8791 26ec 45270000 		.4byte	0x2745
 8792 26f0 29       		.uleb128 0x29
 8793 26f1 5B0C0000 		.4byte	.LASF210
 8794 26f5 01       		.byte	0x1
 8795 26f6 3C01     		.2byte	0x13c
 8796 26f8 D5000000 		.4byte	0xd5
 8797 26fc 25180000 		.4byte	.LLST152
 8798 2700 35       		.uleb128 0x35
 8799 2701 F9000000 		.4byte	.LASF66
 8800 2705 01       		.byte	0x1
 8801 2706 3E01     		.2byte	0x13e
 8802 2708 4A010000 		.4byte	0x14a
 8803 270c 46180000 		.4byte	.LLST153
 8804 2710 2C       		.uleb128 0x2c
 8805 2711 6F626A00 		.ascii	"obj\000"
 8806 2715 01       		.byte	0x1
 8807 2716 3F01     		.2byte	0x13f
 8808 2718 54050000 		.4byte	0x554
 8809 271c 02       		.uleb128 0x2
 8810 271d 91       		.byte	0x91
 8811 271e 68       		.sleb128 -24
 8812 271f 32       		.uleb128 0x32
 8813 2720 08000000 		.4byte	.LVL368
 8814 2724 98330000 		.4byte	0x3398
 8815 2728 34270000 		.4byte	0x2734
 8816 272c 2B       		.uleb128 0x2b
 8817 272d 01       		.uleb128 0x1
 8818 272e 50       		.byte	0x50
 8819 272f 03       		.uleb128 0x3
 8820 2730 F3       		.byte	0xf3
 8821 2731 01       		.uleb128 0x1
 8822 2732 50       		.byte	0x50
 8823 2733 00       		.byte	0
 8824 2734 2A       		.uleb128 0x2a
 8825 2735 10000000 		.4byte	.LVL370
 8826 2739 69340000 		.4byte	0x3469
 8827 273d 2B       		.uleb128 0x2b
 8828 273e 01       		.uleb128 0x1
 8829 273f 50       		.byte	0x50
 8830 2740 02       		.uleb128 0x2
 8831 2741 7D       		.byte	0x7d
 8832 2742 00       		.sleb128 0
 8833 2743 00       		.byte	0
 8834 2744 00       		.byte	0
 8835 2745 27       		.uleb128 0x27
 8836 2746 E6000000 		.4byte	.LASF240
 8837 274a 01       		.byte	0x1
 8838 274b 4E01     		.2byte	0x14e
 8839 274d 00000000 		.4byte	.LFB102
 8840 2751 28000000 		.4byte	.LFE102-.LFB102
 8841 2755 01       		.uleb128 0x1
 8842 2756 9C       		.byte	0x9c
 8843 2757 BA270000 		.4byte	0x27ba
ARM GAS  C:\Users\164\AppData\Local\Temp\ccvDnxKa.s 			page 195


 8844 275b 28       		.uleb128 0x28
 8845 275c 766D00   		.ascii	"vm\000"
 8846 275f 01       		.byte	0x1
 8847 2760 4E01     		.2byte	0x14e
 8848 2762 7B010000 		.4byte	0x17b
 8849 2766 59180000 		.4byte	.LLST154
 8850 276a 28       		.uleb128 0x28
 8851 276b 636C7300 		.ascii	"cls\000"
 8852 276f 01       		.byte	0x1
 8853 2770 4E01     		.2byte	0x14e
 8854 2772 CC060000 		.4byte	0x6cc
 8855 2776 7A180000 		.4byte	.LLST155
 8856 277a 29       		.uleb128 0x29
 8857 277b 5B0C0000 		.4byte	.LASF210
 8858 277f 01       		.byte	0x1
 8859 2780 4E01     		.2byte	0x14e
 8860 2782 D5000000 		.4byte	0xd5
 8861 2786 98180000 		.4byte	.LLST156
 8862 278a 29       		.uleb128 0x29
 8863 278b 180F0000 		.4byte	.LASF241
 8864 278f 01       		.byte	0x1
 8865 2790 4E01     		.2byte	0x14e
 8866 2792 55010000 		.4byte	0x155
 8867 2796 B9180000 		.4byte	.LLST157
 8868 279a 37       		.uleb128 0x37
 8869 279b A0070000 		.4byte	.LASF242
 8870 279f 01       		.byte	0x1
 8871 27a0 5201     		.2byte	0x152
 8872 27a2 9E170000 		.4byte	0x179e
 8873 27a6 01       		.uleb128 0x1
 8874 27a7 50       		.byte	0x50
 8875 27a8 2A       		.uleb128 0x2a
 8876 27a9 12000000 		.4byte	.LVL374
 8877 27ad 7F340000 		.4byte	0x347f
 8878 27b1 2B       		.uleb128 0x2b
 8879 27b2 01       		.uleb128 0x1
 8880 27b3 51       		.byte	0x51
 8881 27b4 03       		.uleb128 0x3
 8882 27b5 F3       		.byte	0xf3
 8883 27b6 01       		.uleb128 0x1
 8884 27b7 52       		.byte	0x52
 8885 27b8 00       		.byte	0
 8886 27b9 00       		.byte	0
 8887 27ba 24       		.uleb128 0x24
 8888 27bb 9C0B0000 		.4byte	.LASF243
 8889 27bf 01       		.byte	0x1
 8890 27c0 1803     		.2byte	0x318
 8891 27c2 00000000 		.4byte	.LFB120
 8892 27c6 58010000 		.4byte	.LFE120-.LFB120
 8893 27ca 01       		.uleb128 0x1
 8894 27cb 9C       		.byte	0x9c
 8895 27cc 522A0000 		.4byte	0x2a52
 8896 27d0 28       		.uleb128 0x28
 8897 27d1 766D00   		.ascii	"vm\000"
 8898 27d4 01       		.byte	0x1
 8899 27d5 1803     		.2byte	0x318
 8900 27d7 7B010000 		.4byte	0x17b
ARM GAS  C:\Users\164\AppData\Local\Temp\ccvDnxKa.s 			page 196


 8901 27db E3180000 		.4byte	.LLST158
 8902 27df 32       		.uleb128 0x32
 8903 27e0 0C000000 		.4byte	.LVL377
 8904 27e4 95250000 		.4byte	0x2595
 8905 27e8 01280000 		.4byte	0x2801
 8906 27ec 2B       		.uleb128 0x2b
 8907 27ed 01       		.uleb128 0x1
 8908 27ee 50       		.byte	0x50
 8909 27ef 02       		.uleb128 0x2
 8910 27f0 74       		.byte	0x74
 8911 27f1 00       		.sleb128 0
 8912 27f2 2B       		.uleb128 0x2b
 8913 27f3 01       		.uleb128 0x1
 8914 27f4 51       		.byte	0x51
 8915 27f5 05       		.uleb128 0x5
 8916 27f6 03       		.byte	0x3
 8917 27f7 E4000000 		.4byte	.LC22
 8918 27fb 2B       		.uleb128 0x2b
 8919 27fc 01       		.uleb128 0x1
 8920 27fd 52       		.byte	0x52
 8921 27fe 01       		.uleb128 0x1
 8922 27ff 30       		.byte	0x30
 8923 2800 00       		.byte	0
 8924 2801 32       		.uleb128 0x32
 8925 2802 1C000000 		.4byte	.LVL378
 8926 2806 45270000 		.4byte	0x2745
 8927 280a 27280000 		.4byte	0x2827
 8928 280e 2B       		.uleb128 0x2b
 8929 280f 01       		.uleb128 0x1
 8930 2810 50       		.byte	0x50
 8931 2811 02       		.uleb128 0x2
 8932 2812 74       		.byte	0x74
 8933 2813 00       		.sleb128 0
 8934 2814 2B       		.uleb128 0x2b
 8935 2815 01       		.uleb128 0x1
 8936 2816 52       		.byte	0x52
 8937 2817 05       		.uleb128 0x5
 8938 2818 03       		.byte	0x3
 8939 2819 EC000000 		.4byte	.LC23
 8940 281d 2B       		.uleb128 0x2b
 8941 281e 01       		.uleb128 0x1
 8942 281f 53       		.byte	0x53
 8943 2820 05       		.uleb128 0x5
 8944 2821 03       		.byte	0x3
 8945 2822 00000000 		.4byte	c_ineffect
 8946 2826 00       		.byte	0
 8947 2827 32       		.uleb128 0x32
 8948 2828 28000000 		.4byte	.LVL379
 8949 282c 45270000 		.4byte	0x2745
 8950 2830 4D280000 		.4byte	0x284d
 8951 2834 2B       		.uleb128 0x2b
 8952 2835 01       		.uleb128 0x1
 8953 2836 50       		.byte	0x50
 8954 2837 02       		.uleb128 0x2
 8955 2838 74       		.byte	0x74
 8956 2839 00       		.sleb128 0
 8957 283a 2B       		.uleb128 0x2b
ARM GAS  C:\Users\164\AppData\Local\Temp\ccvDnxKa.s 			page 197


 8958 283b 01       		.uleb128 0x1
 8959 283c 52       		.byte	0x52
 8960 283d 05       		.uleb128 0x5
 8961 283e 03       		.byte	0x3
 8962 283f F8000000 		.4byte	.LC24
 8963 2843 2B       		.uleb128 0x2b
 8964 2844 01       		.uleb128 0x1
 8965 2845 53       		.byte	0x53
 8966 2846 05       		.uleb128 0x5
 8967 2847 03       		.byte	0x3
 8968 2848 00000000 		.4byte	c_object_alias_method
 8969 284c 00       		.byte	0
 8970 284d 32       		.uleb128 0x32
 8971 284e 34000000 		.4byte	.LVL380
 8972 2852 45270000 		.4byte	0x2745
 8973 2856 73280000 		.4byte	0x2873
 8974 285a 2B       		.uleb128 0x2b
 8975 285b 01       		.uleb128 0x1
 8976 285c 50       		.byte	0x50
 8977 285d 02       		.uleb128 0x2
 8978 285e 74       		.byte	0x74
 8979 285f 00       		.sleb128 0
 8980 2860 2B       		.uleb128 0x2b
 8981 2861 01       		.uleb128 0x1
 8982 2862 52       		.byte	0x52
 8983 2863 05       		.uleb128 0x5
 8984 2864 03       		.byte	0x3
 8985 2865 08010000 		.4byte	.LC25
 8986 2869 2B       		.uleb128 0x2b
 8987 286a 01       		.uleb128 0x1
 8988 286b 53       		.byte	0x53
 8989 286c 05       		.uleb128 0x5
 8990 286d 03       		.byte	0x3
 8991 286e 00000000 		.4byte	c_object_puts
 8992 2872 00       		.byte	0
 8993 2873 32       		.uleb128 0x32
 8994 2874 40000000 		.4byte	.LVL381
 8995 2878 45270000 		.4byte	0x2745
 8996 287c 99280000 		.4byte	0x2899
 8997 2880 2B       		.uleb128 0x2b
 8998 2881 01       		.uleb128 0x1
 8999 2882 50       		.byte	0x50
 9000 2883 02       		.uleb128 0x2
 9001 2884 74       		.byte	0x74
 9002 2885 00       		.sleb128 0
 9003 2886 2B       		.uleb128 0x2b
 9004 2887 01       		.uleb128 0x1
 9005 2888 52       		.byte	0x52
 9006 2889 05       		.uleb128 0x5
 9007 288a 03       		.byte	0x3
 9008 288b 10010000 		.4byte	.LC26
 9009 288f 2B       		.uleb128 0x2b
 9010 2890 01       		.uleb128 0x1
 9011 2891 53       		.byte	0x53
 9012 2892 05       		.uleb128 0x5
 9013 2893 03       		.byte	0x3
 9014 2894 00000000 		.4byte	c_object_print
ARM GAS  C:\Users\164\AppData\Local\Temp\ccvDnxKa.s 			page 198


 9015 2898 00       		.byte	0
 9016 2899 32       		.uleb128 0x32
 9017 289a 4C000000 		.4byte	.LVL382
 9018 289e 45270000 		.4byte	0x2745
 9019 28a2 BF280000 		.4byte	0x28bf
 9020 28a6 2B       		.uleb128 0x2b
 9021 28a7 01       		.uleb128 0x1
 9022 28a8 50       		.byte	0x50
 9023 28a9 02       		.uleb128 0x2
 9024 28aa 74       		.byte	0x74
 9025 28ab 00       		.sleb128 0
 9026 28ac 2B       		.uleb128 0x2b
 9027 28ad 01       		.uleb128 0x1
 9028 28ae 52       		.byte	0x52
 9029 28af 05       		.uleb128 0x5
 9030 28b0 03       		.byte	0x3
 9031 28b1 18010000 		.4byte	.LC27
 9032 28b5 2B       		.uleb128 0x2b
 9033 28b6 01       		.uleb128 0x1
 9034 28b7 53       		.byte	0x53
 9035 28b8 05       		.uleb128 0x5
 9036 28b9 03       		.byte	0x3
 9037 28ba 00000000 		.4byte	c_object_not
 9038 28be 00       		.byte	0
 9039 28bf 32       		.uleb128 0x32
 9040 28c0 58000000 		.4byte	.LVL383
 9041 28c4 45270000 		.4byte	0x2745
 9042 28c8 E5280000 		.4byte	0x28e5
 9043 28cc 2B       		.uleb128 0x2b
 9044 28cd 01       		.uleb128 0x1
 9045 28ce 50       		.byte	0x50
 9046 28cf 02       		.uleb128 0x2
 9047 28d0 74       		.byte	0x74
 9048 28d1 00       		.sleb128 0
 9049 28d2 2B       		.uleb128 0x2b
 9050 28d3 01       		.uleb128 0x1
 9051 28d4 52       		.byte	0x52
 9052 28d5 05       		.uleb128 0x5
 9053 28d6 03       		.byte	0x3
 9054 28d7 1C010000 		.4byte	.LC28
 9055 28db 2B       		.uleb128 0x2b
 9056 28dc 01       		.uleb128 0x1
 9057 28dd 53       		.byte	0x53
 9058 28de 05       		.uleb128 0x5
 9059 28df 03       		.byte	0x3
 9060 28e0 00000000 		.4byte	c_object_neq
 9061 28e4 00       		.byte	0
 9062 28e5 32       		.uleb128 0x32
 9063 28e6 64000000 		.4byte	.LVL384
 9064 28ea 45270000 		.4byte	0x2745
 9065 28ee 0B290000 		.4byte	0x290b
 9066 28f2 2B       		.uleb128 0x2b
 9067 28f3 01       		.uleb128 0x1
 9068 28f4 50       		.byte	0x50
 9069 28f5 02       		.uleb128 0x2
 9070 28f6 74       		.byte	0x74
 9071 28f7 00       		.sleb128 0
ARM GAS  C:\Users\164\AppData\Local\Temp\ccvDnxKa.s 			page 199


 9072 28f8 2B       		.uleb128 0x2b
 9073 28f9 01       		.uleb128 0x1
 9074 28fa 52       		.byte	0x52
 9075 28fb 05       		.uleb128 0x5
 9076 28fc 03       		.byte	0x3
 9077 28fd 20010000 		.4byte	.LC29
 9078 2901 2B       		.uleb128 0x2b
 9079 2902 01       		.uleb128 0x1
 9080 2903 53       		.byte	0x53
 9081 2904 05       		.uleb128 0x5
 9082 2905 03       		.byte	0x3
 9083 2906 00000000 		.4byte	c_object_compare
 9084 290a 00       		.byte	0
 9085 290b 32       		.uleb128 0x32
 9086 290c 70000000 		.4byte	.LVL385
 9087 2910 45270000 		.4byte	0x2745
 9088 2914 31290000 		.4byte	0x2931
 9089 2918 2B       		.uleb128 0x2b
 9090 2919 01       		.uleb128 0x1
 9091 291a 50       		.byte	0x50
 9092 291b 02       		.uleb128 0x2
 9093 291c 74       		.byte	0x74
 9094 291d 00       		.sleb128 0
 9095 291e 2B       		.uleb128 0x2b
 9096 291f 01       		.uleb128 0x1
 9097 2920 52       		.byte	0x52
 9098 2921 05       		.uleb128 0x5
 9099 2922 03       		.byte	0x3
 9100 2923 24010000 		.4byte	.LC30
 9101 2927 2B       		.uleb128 0x2b
 9102 2928 01       		.uleb128 0x1
 9103 2929 53       		.byte	0x53
 9104 292a 05       		.uleb128 0x5
 9105 292b 03       		.byte	0x3
 9106 292c 00000000 		.4byte	c_object_equal3
 9107 2930 00       		.byte	0
 9108 2931 32       		.uleb128 0x32
 9109 2932 7C000000 		.4byte	.LVL386
 9110 2936 45270000 		.4byte	0x2745
 9111 293a 57290000 		.4byte	0x2957
 9112 293e 2B       		.uleb128 0x2b
 9113 293f 01       		.uleb128 0x1
 9114 2940 50       		.byte	0x50
 9115 2941 02       		.uleb128 0x2
 9116 2942 74       		.byte	0x74
 9117 2943 00       		.sleb128 0
 9118 2944 2B       		.uleb128 0x2b
 9119 2945 01       		.uleb128 0x1
 9120 2946 52       		.byte	0x52
 9121 2947 05       		.uleb128 0x5
 9122 2948 03       		.byte	0x3
 9123 2949 28010000 		.4byte	.LC31
 9124 294d 2B       		.uleb128 0x2b
 9125 294e 01       		.uleb128 0x1
 9126 294f 53       		.byte	0x53
 9127 2950 05       		.uleb128 0x5
 9128 2951 03       		.byte	0x3
ARM GAS  C:\Users\164\AppData\Local\Temp\ccvDnxKa.s 			page 200


 9129 2952 00000000 		.4byte	c_object_class
 9130 2956 00       		.byte	0
 9131 2957 32       		.uleb128 0x32
 9132 2958 88000000 		.4byte	.LVL387
 9133 295c 45270000 		.4byte	0x2745
 9134 2960 7D290000 		.4byte	0x297d
 9135 2964 2B       		.uleb128 0x2b
 9136 2965 01       		.uleb128 0x1
 9137 2966 50       		.byte	0x50
 9138 2967 02       		.uleb128 0x2
 9139 2968 74       		.byte	0x74
 9140 2969 00       		.sleb128 0
 9141 296a 2B       		.uleb128 0x2b
 9142 296b 01       		.uleb128 0x1
 9143 296c 52       		.byte	0x52
 9144 296d 05       		.uleb128 0x5
 9145 296e 03       		.byte	0x3
 9146 296f 30010000 		.4byte	.LC32
 9147 2973 2B       		.uleb128 0x2b
 9148 2974 01       		.uleb128 0x1
 9149 2975 53       		.byte	0x53
 9150 2976 05       		.uleb128 0x5
 9151 2977 03       		.byte	0x3
 9152 2978 00000000 		.4byte	c_object_new
 9153 297c 00       		.byte	0
 9154 297d 32       		.uleb128 0x32
 9155 297e 94000000 		.4byte	.LVL388
 9156 2982 45270000 		.4byte	0x2745
 9157 2986 A3290000 		.4byte	0x29a3
 9158 298a 2B       		.uleb128 0x2b
 9159 298b 01       		.uleb128 0x1
 9160 298c 50       		.byte	0x50
 9161 298d 02       		.uleb128 0x2
 9162 298e 74       		.byte	0x74
 9163 298f 00       		.sleb128 0
 9164 2990 2B       		.uleb128 0x2b
 9165 2991 01       		.uleb128 0x1
 9166 2992 52       		.byte	0x52
 9167 2993 05       		.uleb128 0x5
 9168 2994 03       		.byte	0x3
 9169 2995 34010000 		.4byte	.LC33
 9170 2999 2B       		.uleb128 0x2b
 9171 299a 01       		.uleb128 0x1
 9172 299b 53       		.byte	0x53
 9173 299c 05       		.uleb128 0x5
 9174 299d 03       		.byte	0x3
 9175 299e 00000000 		.4byte	c_object_attr_reader
 9176 29a2 00       		.byte	0
 9177 29a3 32       		.uleb128 0x32
 9178 29a4 A0000000 		.4byte	.LVL389
 9179 29a8 45270000 		.4byte	0x2745
 9180 29ac C9290000 		.4byte	0x29c9
 9181 29b0 2B       		.uleb128 0x2b
 9182 29b1 01       		.uleb128 0x1
 9183 29b2 50       		.byte	0x50
 9184 29b3 02       		.uleb128 0x2
 9185 29b4 74       		.byte	0x74
ARM GAS  C:\Users\164\AppData\Local\Temp\ccvDnxKa.s 			page 201


 9186 29b5 00       		.sleb128 0
 9187 29b6 2B       		.uleb128 0x2b
 9188 29b7 01       		.uleb128 0x1
 9189 29b8 52       		.byte	0x52
 9190 29b9 05       		.uleb128 0x5
 9191 29ba 03       		.byte	0x3
 9192 29bb 40010000 		.4byte	.LC34
 9193 29bf 2B       		.uleb128 0x2b
 9194 29c0 01       		.uleb128 0x1
 9195 29c1 53       		.byte	0x53
 9196 29c2 05       		.uleb128 0x5
 9197 29c3 03       		.byte	0x3
 9198 29c4 00000000 		.4byte	c_object_attr_accessor
 9199 29c8 00       		.byte	0
 9200 29c9 32       		.uleb128 0x32
 9201 29ca AE000000 		.4byte	.LVL390
 9202 29ce 45270000 		.4byte	0x2745
 9203 29d2 EC290000 		.4byte	0x29ec
 9204 29d6 2B       		.uleb128 0x2b
 9205 29d7 01       		.uleb128 0x1
 9206 29d8 50       		.byte	0x50
 9207 29d9 02       		.uleb128 0x2
 9208 29da 74       		.byte	0x74
 9209 29db 00       		.sleb128 0
 9210 29dc 2B       		.uleb128 0x2b
 9211 29dd 01       		.uleb128 0x1
 9212 29de 52       		.byte	0x52
 9213 29df 05       		.uleb128 0x5
 9214 29e0 03       		.byte	0x3
 9215 29e1 50010000 		.4byte	.LC35
 9216 29e5 2B       		.uleb128 0x2b
 9217 29e6 01       		.uleb128 0x1
 9218 29e7 53       		.byte	0x53
 9219 29e8 02       		.uleb128 0x2
 9220 29e9 76       		.byte	0x76
 9221 29ea 00       		.sleb128 0
 9222 29eb 00       		.byte	0
 9223 29ec 32       		.uleb128 0x32
 9224 29ed BA000000 		.4byte	.LVL391
 9225 29f1 45270000 		.4byte	0x2745
 9226 29f5 0F2A0000 		.4byte	0x2a0f
 9227 29f9 2B       		.uleb128 0x2b
 9228 29fa 01       		.uleb128 0x1
 9229 29fb 50       		.byte	0x50
 9230 29fc 02       		.uleb128 0x2
 9231 29fd 74       		.byte	0x74
 9232 29fe 00       		.sleb128 0
 9233 29ff 2B       		.uleb128 0x2b
 9234 2a00 01       		.uleb128 0x1
 9235 2a01 52       		.byte	0x52
 9236 2a02 05       		.uleb128 0x5
 9237 2a03 03       		.byte	0x3
 9238 2a04 58010000 		.4byte	.LC36
 9239 2a08 2B       		.uleb128 0x2b
 9240 2a09 01       		.uleb128 0x1
 9241 2a0a 53       		.byte	0x53
 9242 2a0b 02       		.uleb128 0x2
ARM GAS  C:\Users\164\AppData\Local\Temp\ccvDnxKa.s 			page 202


 9243 2a0c 76       		.byte	0x76
 9244 2a0d 00       		.sleb128 0
 9245 2a0e 00       		.byte	0
 9246 2a0f 32       		.uleb128 0x32
 9247 2a10 C8000000 		.4byte	.LVL392
 9248 2a14 45270000 		.4byte	0x2745
 9249 2a18 322A0000 		.4byte	0x2a32
 9250 2a1c 2B       		.uleb128 0x2b
 9251 2a1d 01       		.uleb128 0x1
 9252 2a1e 50       		.byte	0x50
 9253 2a1f 02       		.uleb128 0x2
 9254 2a20 74       		.byte	0x74
 9255 2a21 00       		.sleb128 0
 9256 2a22 2B       		.uleb128 0x2b
 9257 2a23 01       		.uleb128 0x1
 9258 2a24 52       		.byte	0x52
 9259 2a25 05       		.uleb128 0x5
 9260 2a26 03       		.byte	0x3
 9261 2a27 64010000 		.4byte	.LC37
 9262 2a2b 2B       		.uleb128 0x2b
 9263 2a2c 01       		.uleb128 0x1
 9264 2a2d 53       		.byte	0x53
 9265 2a2e 02       		.uleb128 0x2
 9266 2a2f 76       		.byte	0x76
 9267 2a30 00       		.sleb128 0
 9268 2a31 00       		.byte	0
 9269 2a32 2A       		.uleb128 0x2a
 9270 2a33 D4000000 		.4byte	.LVL393
 9271 2a37 45270000 		.4byte	0x2745
 9272 2a3b 2B       		.uleb128 0x2b
 9273 2a3c 01       		.uleb128 0x1
 9274 2a3d 50       		.byte	0x50
 9275 2a3e 02       		.uleb128 0x2
 9276 2a3f 74       		.byte	0x74
 9277 2a40 00       		.sleb128 0
 9278 2a41 2B       		.uleb128 0x2b
 9279 2a42 01       		.uleb128 0x1
 9280 2a43 52       		.byte	0x52
 9281 2a44 05       		.uleb128 0x5
 9282 2a45 03       		.byte	0x3
 9283 2a46 6C010000 		.4byte	.LC38
 9284 2a4a 2B       		.uleb128 0x2b
 9285 2a4b 01       		.uleb128 0x1
 9286 2a4c 53       		.byte	0x53
 9287 2a4d 02       		.uleb128 0x2
 9288 2a4e 76       		.byte	0x76
 9289 2a4f 00       		.sleb128 0
 9290 2a50 00       		.byte	0
 9291 2a51 00       		.byte	0
 9292 2a52 24       		.uleb128 0x24
 9293 2a53 2D0B0000 		.4byte	.LASF244
 9294 2a57 01       		.byte	0x1
 9295 2a58 B002     		.2byte	0x2b0
 9296 2a5a 00000000 		.4byte	.LFB117
 9297 2a5e 88000000 		.4byte	.LFE117-.LFB117
 9298 2a62 01       		.uleb128 0x1
 9299 2a63 9C       		.byte	0x9c
ARM GAS  C:\Users\164\AppData\Local\Temp\ccvDnxKa.s 			page 203


 9300 2a64 BD2B0000 		.4byte	0x2bbd
 9301 2a68 28       		.uleb128 0x28
 9302 2a69 766D00   		.ascii	"vm\000"
 9303 2a6c 01       		.byte	0x1
 9304 2a6d B002     		.2byte	0x2b0
 9305 2a6f 7B010000 		.4byte	0x17b
 9306 2a73 0F190000 		.4byte	.LLST159
 9307 2a77 28       		.uleb128 0x28
 9308 2a78 7600     		.ascii	"v\000"
 9309 2a7a 01       		.byte	0x1
 9310 2a7b B002     		.2byte	0x2b0
 9311 2a7d C6060000 		.4byte	0x6c6
 9312 2a81 3B190000 		.4byte	.LLST160
 9313 2a85 29       		.uleb128 0x29
 9314 2a86 76070000 		.4byte	.LASF196
 9315 2a8a 01       		.byte	0x1
 9316 2a8b B002     		.2byte	0x2b0
 9317 2a8d 25000000 		.4byte	0x25
 9318 2a91 67190000 		.4byte	.LLST161
 9319 2a95 33       		.uleb128 0x33
 9320 2a96 6900     		.ascii	"i\000"
 9321 2a98 01       		.byte	0x1
 9322 2a99 B202     		.2byte	0x2b2
 9323 2a9b 25000000 		.4byte	0x25
 9324 2a9f 93190000 		.4byte	.LLST162
 9325 2aa3 38       		.uleb128 0x38
 9326 2aa4 10000000 		.4byte	.LBB303
 9327 2aa8 60000000 		.4byte	.LBE303-.LBB303
 9328 2aac 4B       		.uleb128 0x4b
 9329 2aad 5B0C0000 		.4byte	.LASF210
 9330 2ab1 01       		.byte	0x1
 9331 2ab2 B702     		.2byte	0x2b7
 9332 2ab4 D5000000 		.4byte	0xd5
 9333 2ab8 35       		.uleb128 0x35
 9334 2ab9 600B0000 		.4byte	.LASF211
 9335 2abd 01       		.byte	0x1
 9336 2abe BB02     		.2byte	0x2bb
 9337 2ac0 C8000000 		.4byte	0xc8
 9338 2ac4 B2190000 		.4byte	.LLST163
 9339 2ac8 2D       		.uleb128 0x2d
 9340 2ac9 3A0A0000 		.4byte	0xa3a
 9341 2acd 1A000000 		.4byte	.LBB304
 9342 2ad1 0A000000 		.4byte	.LBE304-.LBB304
 9343 2ad5 01       		.byte	0x1
 9344 2ad6 B702     		.2byte	0x2b7
 9345 2ad8 EF2A0000 		.4byte	0x2aef
 9346 2adc 30       		.uleb128 0x30
 9347 2add 4A0A0000 		.4byte	0xa4a
 9348 2ae1 D0190000 		.4byte	.LLST164
 9349 2ae5 34       		.uleb128 0x34
 9350 2ae6 22000000 		.4byte	.LVL399
 9351 2aea 61330000 		.4byte	0x3361
 9352 2aee 00       		.byte	0
 9353 2aef 32       		.uleb128 0x32
 9354 2af0 30000000 		.4byte	.LVL401
 9355 2af4 45270000 		.4byte	0x2745
 9356 2af8 122B0000 		.4byte	0x2b12
ARM GAS  C:\Users\164\AppData\Local\Temp\ccvDnxKa.s 			page 204


 9357 2afc 2B       		.uleb128 0x2b
 9358 2afd 01       		.uleb128 0x1
 9359 2afe 50       		.byte	0x50
 9360 2aff 02       		.uleb128 0x2
 9361 2b00 78       		.byte	0x78
 9362 2b01 00       		.sleb128 0
 9363 2b02 2B       		.uleb128 0x2b
 9364 2b03 01       		.uleb128 0x1
 9365 2b04 52       		.byte	0x52
 9366 2b05 02       		.uleb128 0x2
 9367 2b06 79       		.byte	0x79
 9368 2b07 00       		.sleb128 0
 9369 2b08 2B       		.uleb128 0x2b
 9370 2b09 01       		.uleb128 0x1
 9371 2b0a 53       		.byte	0x53
 9372 2b0b 05       		.uleb128 0x5
 9373 2b0c 03       		.byte	0x3
 9374 2b0d 00000000 		.4byte	c_object_getiv
 9375 2b11 00       		.byte	0
 9376 2b12 32       		.uleb128 0x32
 9377 2b13 36000000 		.4byte	.LVL402
 9378 2b17 4B330000 		.4byte	0x334b
 9379 2b1b 262B0000 		.4byte	0x2b26
 9380 2b1f 2B       		.uleb128 0x2b
 9381 2b20 01       		.uleb128 0x1
 9382 2b21 50       		.byte	0x50
 9383 2b22 02       		.uleb128 0x2
 9384 2b23 79       		.byte	0x79
 9385 2b24 00       		.sleb128 0
 9386 2b25 00       		.byte	0
 9387 2b26 32       		.uleb128 0x32
 9388 2b27 3E000000 		.4byte	.LVL403
 9389 2b2b 82330000 		.4byte	0x3382
 9390 2b2f 3A2B0000 		.4byte	0x2b3a
 9391 2b33 2B       		.uleb128 0x2b
 9392 2b34 01       		.uleb128 0x1
 9393 2b35 50       		.byte	0x50
 9394 2b36 02       		.uleb128 0x2
 9395 2b37 78       		.byte	0x78
 9396 2b38 00       		.sleb128 0
 9397 2b39 00       		.byte	0
 9398 2b3a 32       		.uleb128 0x32
 9399 2b3b 48000000 		.4byte	.LVL404
 9400 2b3f 8D330000 		.4byte	0x338d
 9401 2b43 542B0000 		.4byte	0x2b54
 9402 2b47 2B       		.uleb128 0x2b
 9403 2b48 01       		.uleb128 0x1
 9404 2b49 50       		.byte	0x50
 9405 2b4a 02       		.uleb128 0x2
 9406 2b4b 77       		.byte	0x77
 9407 2b4c 00       		.sleb128 0
 9408 2b4d 2B       		.uleb128 0x2b
 9409 2b4e 01       		.uleb128 0x1
 9410 2b4f 51       		.byte	0x51
 9411 2b50 02       		.uleb128 0x2
 9412 2b51 79       		.byte	0x79
 9413 2b52 00       		.sleb128 0
ARM GAS  C:\Users\164\AppData\Local\Temp\ccvDnxKa.s 			page 205


 9414 2b53 00       		.byte	0
 9415 2b54 32       		.uleb128 0x32
 9416 2b55 4E000000 		.4byte	.LVL405
 9417 2b59 8A340000 		.4byte	0x348a
 9418 2b5d 682B0000 		.4byte	0x2b68
 9419 2b61 2B       		.uleb128 0x2b
 9420 2b62 01       		.uleb128 0x1
 9421 2b63 50       		.byte	0x50
 9422 2b64 02       		.uleb128 0x2
 9423 2b65 77       		.byte	0x77
 9424 2b66 00       		.sleb128 0
 9425 2b67 00       		.byte	0
 9426 2b68 32       		.uleb128 0x32
 9427 2b69 5E000000 		.4byte	.LVL406
 9428 2b6d 99340000 		.4byte	0x3499
 9429 2b71 882B0000 		.4byte	0x2b88
 9430 2b75 2B       		.uleb128 0x2b
 9431 2b76 01       		.uleb128 0x1
 9432 2b77 50       		.byte	0x50
 9433 2b78 02       		.uleb128 0x2
 9434 2b79 7D       		.byte	0x7d
 9435 2b7a 00       		.sleb128 0
 9436 2b7b 2B       		.uleb128 0x2b
 9437 2b7c 01       		.uleb128 0x1
 9438 2b7d 51       		.byte	0x51
 9439 2b7e 02       		.uleb128 0x2
 9440 2b7f 78       		.byte	0x78
 9441 2b80 00       		.sleb128 0
 9442 2b81 2B       		.uleb128 0x2b
 9443 2b82 01       		.uleb128 0x1
 9444 2b83 52       		.byte	0x52
 9445 2b84 02       		.uleb128 0x2
 9446 2b85 77       		.byte	0x77
 9447 2b86 00       		.sleb128 0
 9448 2b87 00       		.byte	0
 9449 2b88 32       		.uleb128 0x32
 9450 2b89 6A000000 		.4byte	.LVL407
 9451 2b8d 45270000 		.4byte	0x2745
 9452 2b91 AB2B0000 		.4byte	0x2bab
 9453 2b95 2B       		.uleb128 0x2b
 9454 2b96 01       		.uleb128 0x1
 9455 2b97 50       		.byte	0x50
 9456 2b98 02       		.uleb128 0x2
 9457 2b99 78       		.byte	0x78
 9458 2b9a 00       		.sleb128 0
 9459 2b9b 2B       		.uleb128 0x2b
 9460 2b9c 01       		.uleb128 0x1
 9461 2b9d 52       		.byte	0x52
 9462 2b9e 02       		.uleb128 0x2
 9463 2b9f 77       		.byte	0x77
 9464 2ba0 00       		.sleb128 0
 9465 2ba1 2B       		.uleb128 0x2b
 9466 2ba2 01       		.uleb128 0x1
 9467 2ba3 53       		.byte	0x53
 9468 2ba4 05       		.uleb128 0x5
 9469 2ba5 03       		.byte	0x3
 9470 2ba6 00000000 		.4byte	c_object_setiv
ARM GAS  C:\Users\164\AppData\Local\Temp\ccvDnxKa.s 			page 206


 9471 2baa 00       		.byte	0
 9472 2bab 2A       		.uleb128 0x2a
 9473 2bac 70000000 		.4byte	.LVL408
 9474 2bb0 AE330000 		.4byte	0x33ae
 9475 2bb4 2B       		.uleb128 0x2b
 9476 2bb5 01       		.uleb128 0x1
 9477 2bb6 50       		.byte	0x50
 9478 2bb7 02       		.uleb128 0x2
 9479 2bb8 77       		.byte	0x77
 9480 2bb9 00       		.sleb128 0
 9481 2bba 00       		.byte	0
 9482 2bbb 00       		.byte	0
 9483 2bbc 00       		.byte	0
 9484 2bbd 24       		.uleb128 0x24
 9485 2bbe 2E090000 		.4byte	.LASF245
 9486 2bc2 01       		.byte	0x1
 9487 2bc3 A002     		.2byte	0x2a0
 9488 2bc5 00000000 		.4byte	.LFB116
 9489 2bc9 38000000 		.4byte	.LFE116-.LFB116
 9490 2bcd 01       		.uleb128 0x1
 9491 2bce 9C       		.byte	0x9c
 9492 2bcf 652C0000 		.4byte	0x2c65
 9493 2bd3 28       		.uleb128 0x28
 9494 2bd4 766D00   		.ascii	"vm\000"
 9495 2bd7 01       		.byte	0x1
 9496 2bd8 A002     		.2byte	0x2a0
 9497 2bda 7B010000 		.4byte	0x17b
 9498 2bde F5190000 		.4byte	.LLST165
 9499 2be2 28       		.uleb128 0x28
 9500 2be3 7600     		.ascii	"v\000"
 9501 2be5 01       		.byte	0x1
 9502 2be6 A002     		.2byte	0x2a0
 9503 2be8 C6060000 		.4byte	0x6c6
 9504 2bec 211A0000 		.4byte	.LLST166
 9505 2bf0 29       		.uleb128 0x29
 9506 2bf1 76070000 		.4byte	.LASF196
 9507 2bf5 01       		.byte	0x1
 9508 2bf6 A002     		.2byte	0x2a0
 9509 2bf8 25000000 		.4byte	0x25
 9510 2bfc 4D1A0000 		.4byte	.LLST167
 9511 2c00 33       		.uleb128 0x33
 9512 2c01 6900     		.ascii	"i\000"
 9513 2c03 01       		.byte	0x1
 9514 2c04 A202     		.2byte	0x2a2
 9515 2c06 25000000 		.4byte	0x25
 9516 2c0a 791A0000 		.4byte	.LLST168
 9517 2c0e 38       		.uleb128 0x38
 9518 2c0f 0C000000 		.4byte	.LBB306
 9519 2c13 1E000000 		.4byte	.LBE306-.LBB306
 9520 2c17 4B       		.uleb128 0x4b
 9521 2c18 5B0C0000 		.4byte	.LASF210
 9522 2c1c 01       		.byte	0x1
 9523 2c1d A702     		.2byte	0x2a7
 9524 2c1f D5000000 		.4byte	0xd5
 9525 2c23 2D       		.uleb128 0x2d
 9526 2c24 3A0A0000 		.4byte	0xa3a
 9527 2c28 16000000 		.4byte	.LBB307
ARM GAS  C:\Users\164\AppData\Local\Temp\ccvDnxKa.s 			page 207


 9528 2c2c 08000000 		.4byte	.LBE307-.LBB307
 9529 2c30 01       		.byte	0x1
 9530 2c31 A702     		.2byte	0x2a7
 9531 2c33 4A2C0000 		.4byte	0x2c4a
 9532 2c37 30       		.uleb128 0x30
 9533 2c38 4A0A0000 		.4byte	0xa4a
 9534 2c3c 981A0000 		.4byte	.LLST169
 9535 2c40 34       		.uleb128 0x34
 9536 2c41 1E000000 		.4byte	.LVL415
 9537 2c45 61330000 		.4byte	0x3361
 9538 2c49 00       		.byte	0
 9539 2c4a 2A       		.uleb128 0x2a
 9540 2c4b 2A000000 		.4byte	.LVL416
 9541 2c4f 45270000 		.4byte	0x2745
 9542 2c53 2B       		.uleb128 0x2b
 9543 2c54 01       		.uleb128 0x1
 9544 2c55 50       		.byte	0x50
 9545 2c56 02       		.uleb128 0x2
 9546 2c57 77       		.byte	0x77
 9547 2c58 00       		.sleb128 0
 9548 2c59 2B       		.uleb128 0x2b
 9549 2c5a 01       		.uleb128 0x1
 9550 2c5b 53       		.byte	0x53
 9551 2c5c 05       		.uleb128 0x5
 9552 2c5d 03       		.byte	0x3
 9553 2c5e 00000000 		.4byte	c_object_getiv
 9554 2c62 00       		.byte	0
 9555 2c63 00       		.byte	0
 9556 2c64 00       		.byte	0
 9557 2c65 24       		.uleb128 0x24
 9558 2c66 23020000 		.4byte	.LASF246
 9559 2c6a 01       		.byte	0x1
 9560 2c6b 8703     		.2byte	0x387
 9561 2c6d 00000000 		.4byte	.LFB127
 9562 2c71 5C000000 		.4byte	.LFE127-.LFB127
 9563 2c75 01       		.uleb128 0x1
 9564 2c76 9C       		.byte	0x9c
 9565 2c77 162D0000 		.4byte	0x2d16
 9566 2c7b 28       		.uleb128 0x28
 9567 2c7c 766D00   		.ascii	"vm\000"
 9568 2c7f 01       		.byte	0x1
 9569 2c80 8703     		.2byte	0x387
 9570 2c82 7B010000 		.4byte	0x17b
 9571 2c86 BD1A0000 		.4byte	.LLST170
 9572 2c8a 32       		.uleb128 0x32
 9573 2c8b 0E000000 		.4byte	.LVL420
 9574 2c8f 95250000 		.4byte	0x2595
 9575 2c93 A72C0000 		.4byte	0x2ca7
 9576 2c97 2B       		.uleb128 0x2b
 9577 2c98 01       		.uleb128 0x1
 9578 2c99 50       		.byte	0x50
 9579 2c9a 02       		.uleb128 0x2
 9580 2c9b 74       		.byte	0x74
 9581 2c9c 00       		.sleb128 0
 9582 2c9d 2B       		.uleb128 0x2b
 9583 2c9e 01       		.uleb128 0x1
 9584 2c9f 51       		.byte	0x51
ARM GAS  C:\Users\164\AppData\Local\Temp\ccvDnxKa.s 			page 208


 9585 2ca0 05       		.uleb128 0x5
 9586 2ca1 03       		.byte	0x3
 9587 2ca2 78010000 		.4byte	.LC40
 9588 2ca6 00       		.byte	0
 9589 2ca7 32       		.uleb128 0x32
 9590 2ca8 1E000000 		.4byte	.LVL421
 9591 2cac 45270000 		.4byte	0x2745
 9592 2cb0 CD2C0000 		.4byte	0x2ccd
 9593 2cb4 2B       		.uleb128 0x2b
 9594 2cb5 01       		.uleb128 0x1
 9595 2cb6 50       		.byte	0x50
 9596 2cb7 02       		.uleb128 0x2
 9597 2cb8 74       		.byte	0x74
 9598 2cb9 00       		.sleb128 0
 9599 2cba 2B       		.uleb128 0x2b
 9600 2cbb 01       		.uleb128 0x1
 9601 2cbc 52       		.byte	0x52
 9602 2cbd 05       		.uleb128 0x5
 9603 2cbe 03       		.byte	0x3
 9604 2cbf 18010000 		.4byte	.LC27
 9605 2cc3 2B       		.uleb128 0x2b
 9606 2cc4 01       		.uleb128 0x1
 9607 2cc5 53       		.byte	0x53
 9608 2cc6 05       		.uleb128 0x5
 9609 2cc7 03       		.byte	0x3
 9610 2cc8 00000000 		.4byte	c_nil_false_not
 9611 2ccc 00       		.byte	0
 9612 2ccd 32       		.uleb128 0x32
 9613 2cce 2A000000 		.4byte	.LVL422
 9614 2cd2 45270000 		.4byte	0x2745
 9615 2cd6 F32C0000 		.4byte	0x2cf3
 9616 2cda 2B       		.uleb128 0x2b
 9617 2cdb 01       		.uleb128 0x1
 9618 2cdc 50       		.byte	0x50
 9619 2cdd 02       		.uleb128 0x2
 9620 2cde 74       		.byte	0x74
 9621 2cdf 00       		.sleb128 0
 9622 2ce0 2B       		.uleb128 0x2b
 9623 2ce1 01       		.uleb128 0x1
 9624 2ce2 52       		.byte	0x52
 9625 2ce3 05       		.uleb128 0x5
 9626 2ce4 03       		.byte	0x3
 9627 2ce5 64010000 		.4byte	.LC37
 9628 2ce9 2B       		.uleb128 0x2b
 9629 2cea 01       		.uleb128 0x1
 9630 2ceb 53       		.byte	0x53
 9631 2cec 05       		.uleb128 0x5
 9632 2ced 03       		.byte	0x3
 9633 2cee 00000000 		.4byte	c_nil_inspect
 9634 2cf2 00       		.byte	0
 9635 2cf3 2A       		.uleb128 0x2a
 9636 2cf4 36000000 		.4byte	.LVL423
 9637 2cf8 45270000 		.4byte	0x2745
 9638 2cfc 2B       		.uleb128 0x2b
 9639 2cfd 01       		.uleb128 0x1
 9640 2cfe 50       		.byte	0x50
 9641 2cff 02       		.uleb128 0x2
ARM GAS  C:\Users\164\AppData\Local\Temp\ccvDnxKa.s 			page 209


 9642 2d00 74       		.byte	0x74
 9643 2d01 00       		.sleb128 0
 9644 2d02 2B       		.uleb128 0x2b
 9645 2d03 01       		.uleb128 0x1
 9646 2d04 52       		.byte	0x52
 9647 2d05 05       		.uleb128 0x5
 9648 2d06 03       		.byte	0x3
 9649 2d07 6C010000 		.4byte	.LC38
 9650 2d0b 2B       		.uleb128 0x2b
 9651 2d0c 01       		.uleb128 0x1
 9652 2d0d 53       		.byte	0x53
 9653 2d0e 05       		.uleb128 0x5
 9654 2d0f 03       		.byte	0x3
 9655 2d10 00000000 		.4byte	c_nil_to_s
 9656 2d14 00       		.byte	0
 9657 2d15 00       		.byte	0
 9658 2d16 24       		.uleb128 0x24
 9659 2d17 99090000 		.4byte	.LASF247
 9660 2d1b 01       		.byte	0x1
 9661 2d1c 5803     		.2byte	0x358
 9662 2d1e 00000000 		.4byte	.LFB123
 9663 2d22 5C000000 		.4byte	.LFE123-.LFB123
 9664 2d26 01       		.uleb128 0x1
 9665 2d27 9C       		.byte	0x9c
 9666 2d28 C12D0000 		.4byte	0x2dc1
 9667 2d2c 28       		.uleb128 0x28
 9668 2d2d 766D00   		.ascii	"vm\000"
 9669 2d30 01       		.byte	0x1
 9670 2d31 5803     		.2byte	0x358
 9671 2d33 7B010000 		.4byte	0x17b
 9672 2d37 E91A0000 		.4byte	.LLST171
 9673 2d3b 32       		.uleb128 0x32
 9674 2d3c 0E000000 		.4byte	.LVL426
 9675 2d40 95250000 		.4byte	0x2595
 9676 2d44 582D0000 		.4byte	0x2d58
 9677 2d48 2B       		.uleb128 0x2b
 9678 2d49 01       		.uleb128 0x1
 9679 2d4a 50       		.byte	0x50
 9680 2d4b 02       		.uleb128 0x2
 9681 2d4c 74       		.byte	0x74
 9682 2d4d 00       		.sleb128 0
 9683 2d4e 2B       		.uleb128 0x2b
 9684 2d4f 01       		.uleb128 0x1
 9685 2d50 51       		.byte	0x51
 9686 2d51 05       		.uleb128 0x5
 9687 2d52 03       		.byte	0x3
 9688 2d53 84010000 		.4byte	.LC41
 9689 2d57 00       		.byte	0
 9690 2d58 32       		.uleb128 0x32
 9691 2d59 1E000000 		.4byte	.LVL427
 9692 2d5d 45270000 		.4byte	0x2745
 9693 2d61 7E2D0000 		.4byte	0x2d7e
 9694 2d65 2B       		.uleb128 0x2b
 9695 2d66 01       		.uleb128 0x1
 9696 2d67 50       		.byte	0x50
 9697 2d68 02       		.uleb128 0x2
 9698 2d69 74       		.byte	0x74
ARM GAS  C:\Users\164\AppData\Local\Temp\ccvDnxKa.s 			page 210


 9699 2d6a 00       		.sleb128 0
 9700 2d6b 2B       		.uleb128 0x2b
 9701 2d6c 01       		.uleb128 0x1
 9702 2d6d 52       		.byte	0x52
 9703 2d6e 05       		.uleb128 0x5
 9704 2d6f 03       		.byte	0x3
 9705 2d70 8C010000 		.4byte	.LC42
 9706 2d74 2B       		.uleb128 0x2b
 9707 2d75 01       		.uleb128 0x1
 9708 2d76 53       		.byte	0x53
 9709 2d77 05       		.uleb128 0x5
 9710 2d78 03       		.byte	0x3
 9711 2d79 00000000 		.4byte	c_proc_call
 9712 2d7d 00       		.byte	0
 9713 2d7e 32       		.uleb128 0x32
 9714 2d7f 2C000000 		.4byte	.LVL428
 9715 2d83 45270000 		.4byte	0x2745
 9716 2d87 A12D0000 		.4byte	0x2da1
 9717 2d8b 2B       		.uleb128 0x2b
 9718 2d8c 01       		.uleb128 0x1
 9719 2d8d 50       		.byte	0x50
 9720 2d8e 02       		.uleb128 0x2
 9721 2d8f 74       		.byte	0x74
 9722 2d90 00       		.sleb128 0
 9723 2d91 2B       		.uleb128 0x2b
 9724 2d92 01       		.uleb128 0x1
 9725 2d93 52       		.byte	0x52
 9726 2d94 05       		.uleb128 0x5
 9727 2d95 03       		.byte	0x3
 9728 2d96 64010000 		.4byte	.LC37
 9729 2d9a 2B       		.uleb128 0x2b
 9730 2d9b 01       		.uleb128 0x1
 9731 2d9c 53       		.byte	0x53
 9732 2d9d 02       		.uleb128 0x2
 9733 2d9e 76       		.byte	0x76
 9734 2d9f 00       		.sleb128 0
 9735 2da0 00       		.byte	0
 9736 2da1 2A       		.uleb128 0x2a
 9737 2da2 38000000 		.4byte	.LVL429
 9738 2da6 45270000 		.4byte	0x2745
 9739 2daa 2B       		.uleb128 0x2b
 9740 2dab 01       		.uleb128 0x1
 9741 2dac 50       		.byte	0x50
 9742 2dad 02       		.uleb128 0x2
 9743 2dae 74       		.byte	0x74
 9744 2daf 00       		.sleb128 0
 9745 2db0 2B       		.uleb128 0x2b
 9746 2db1 01       		.uleb128 0x1
 9747 2db2 52       		.byte	0x52
 9748 2db3 05       		.uleb128 0x5
 9749 2db4 03       		.byte	0x3
 9750 2db5 6C010000 		.4byte	.LC38
 9751 2db9 2B       		.uleb128 0x2b
 9752 2dba 01       		.uleb128 0x1
 9753 2dbb 53       		.byte	0x53
 9754 2dbc 02       		.uleb128 0x2
 9755 2dbd 76       		.byte	0x76
ARM GAS  C:\Users\164\AppData\Local\Temp\ccvDnxKa.s 			page 211


 9756 2dbe 00       		.sleb128 0
 9757 2dbf 00       		.byte	0
 9758 2dc0 00       		.byte	0
 9759 2dc1 24       		.uleb128 0x24
 9760 2dc2 CA050000 		.4byte	.LASF248
 9761 2dc6 01       		.byte	0x1
 9762 2dc7 A503     		.2byte	0x3a5
 9763 2dc9 00000000 		.4byte	.LFB129
 9764 2dcd 5C000000 		.4byte	.LFE129-.LFB129
 9765 2dd1 01       		.uleb128 0x1
 9766 2dd2 9C       		.byte	0x9c
 9767 2dd3 6C2E0000 		.4byte	0x2e6c
 9768 2dd7 28       		.uleb128 0x28
 9769 2dd8 766D00   		.ascii	"vm\000"
 9770 2ddb 01       		.byte	0x1
 9771 2ddc A503     		.2byte	0x3a5
 9772 2dde 7B010000 		.4byte	0x17b
 9773 2de2 151B0000 		.4byte	.LLST172
 9774 2de6 32       		.uleb128 0x32
 9775 2de7 0E000000 		.4byte	.LVL432
 9776 2deb 95250000 		.4byte	0x2595
 9777 2def 032E0000 		.4byte	0x2e03
 9778 2df3 2B       		.uleb128 0x2b
 9779 2df4 01       		.uleb128 0x1
 9780 2df5 50       		.byte	0x50
 9781 2df6 02       		.uleb128 0x2
 9782 2df7 74       		.byte	0x74
 9783 2df8 00       		.sleb128 0
 9784 2df9 2B       		.uleb128 0x2b
 9785 2dfa 01       		.uleb128 0x1
 9786 2dfb 51       		.byte	0x51
 9787 2dfc 05       		.uleb128 0x5
 9788 2dfd 03       		.byte	0x3
 9789 2dfe 94010000 		.4byte	.LC43
 9790 2e02 00       		.byte	0
 9791 2e03 32       		.uleb128 0x32
 9792 2e04 1E000000 		.4byte	.LVL433
 9793 2e08 45270000 		.4byte	0x2745
 9794 2e0c 292E0000 		.4byte	0x2e29
 9795 2e10 2B       		.uleb128 0x2b
 9796 2e11 01       		.uleb128 0x1
 9797 2e12 50       		.byte	0x50
 9798 2e13 02       		.uleb128 0x2
 9799 2e14 74       		.byte	0x74
 9800 2e15 00       		.sleb128 0
 9801 2e16 2B       		.uleb128 0x2b
 9802 2e17 01       		.uleb128 0x1
 9803 2e18 52       		.byte	0x52
 9804 2e19 05       		.uleb128 0x5
 9805 2e1a 03       		.byte	0x3
 9806 2e1b 18010000 		.4byte	.LC27
 9807 2e1f 2B       		.uleb128 0x2b
 9808 2e20 01       		.uleb128 0x1
 9809 2e21 53       		.byte	0x53
 9810 2e22 05       		.uleb128 0x5
 9811 2e23 03       		.byte	0x3
 9812 2e24 00000000 		.4byte	c_nil_false_not
ARM GAS  C:\Users\164\AppData\Local\Temp\ccvDnxKa.s 			page 212


 9813 2e28 00       		.byte	0
 9814 2e29 32       		.uleb128 0x32
 9815 2e2a 2C000000 		.4byte	.LVL434
 9816 2e2e 45270000 		.4byte	0x2745
 9817 2e32 4C2E0000 		.4byte	0x2e4c
 9818 2e36 2B       		.uleb128 0x2b
 9819 2e37 01       		.uleb128 0x1
 9820 2e38 50       		.byte	0x50
 9821 2e39 02       		.uleb128 0x2
 9822 2e3a 74       		.byte	0x74
 9823 2e3b 00       		.sleb128 0
 9824 2e3c 2B       		.uleb128 0x2b
 9825 2e3d 01       		.uleb128 0x1
 9826 2e3e 52       		.byte	0x52
 9827 2e3f 05       		.uleb128 0x5
 9828 2e40 03       		.byte	0x3
 9829 2e41 64010000 		.4byte	.LC37
 9830 2e45 2B       		.uleb128 0x2b
 9831 2e46 01       		.uleb128 0x1
 9832 2e47 53       		.byte	0x53
 9833 2e48 02       		.uleb128 0x2
 9834 2e49 76       		.byte	0x76
 9835 2e4a 00       		.sleb128 0
 9836 2e4b 00       		.byte	0
 9837 2e4c 2A       		.uleb128 0x2a
 9838 2e4d 38000000 		.4byte	.LVL435
 9839 2e51 45270000 		.4byte	0x2745
 9840 2e55 2B       		.uleb128 0x2b
 9841 2e56 01       		.uleb128 0x1
 9842 2e57 50       		.byte	0x50
 9843 2e58 02       		.uleb128 0x2
 9844 2e59 74       		.byte	0x74
 9845 2e5a 00       		.sleb128 0
 9846 2e5b 2B       		.uleb128 0x2b
 9847 2e5c 01       		.uleb128 0x1
 9848 2e5d 52       		.byte	0x52
 9849 2e5e 05       		.uleb128 0x5
 9850 2e5f 03       		.byte	0x3
 9851 2e60 6C010000 		.4byte	.LC38
 9852 2e64 2B       		.uleb128 0x2b
 9853 2e65 01       		.uleb128 0x1
 9854 2e66 53       		.byte	0x53
 9855 2e67 02       		.uleb128 0x2
 9856 2e68 76       		.byte	0x76
 9857 2e69 00       		.sleb128 0
 9858 2e6a 00       		.byte	0
 9859 2e6b 00       		.byte	0
 9860 2e6c 24       		.uleb128 0x24
 9861 2e6d 360C0000 		.4byte	.LASF249
 9862 2e71 01       		.byte	0x1
 9863 2e72 C003     		.2byte	0x3c0
 9864 2e74 00000000 		.4byte	.LFB131
 9865 2e78 48000000 		.4byte	.LFE131-.LFB131
 9866 2e7c 01       		.uleb128 0x1
 9867 2e7d 9C       		.byte	0x9c
 9868 2e7e F12E0000 		.4byte	0x2ef1
 9869 2e82 28       		.uleb128 0x28
ARM GAS  C:\Users\164\AppData\Local\Temp\ccvDnxKa.s 			page 213


 9870 2e83 766D00   		.ascii	"vm\000"
 9871 2e86 01       		.byte	0x1
 9872 2e87 C003     		.2byte	0x3c0
 9873 2e89 7B010000 		.4byte	0x17b
 9874 2e8d 411B0000 		.4byte	.LLST173
 9875 2e91 32       		.uleb128 0x32
 9876 2e92 0E000000 		.4byte	.LVL438
 9877 2e96 95250000 		.4byte	0x2595
 9878 2e9a AE2E0000 		.4byte	0x2eae
 9879 2e9e 2B       		.uleb128 0x2b
 9880 2e9f 01       		.uleb128 0x1
 9881 2ea0 50       		.byte	0x50
 9882 2ea1 02       		.uleb128 0x2
 9883 2ea2 74       		.byte	0x74
 9884 2ea3 00       		.sleb128 0
 9885 2ea4 2B       		.uleb128 0x2b
 9886 2ea5 01       		.uleb128 0x1
 9887 2ea6 51       		.byte	0x51
 9888 2ea7 05       		.uleb128 0x5
 9889 2ea8 03       		.byte	0x3
 9890 2ea9 A0010000 		.4byte	.LC44
 9891 2ead 00       		.byte	0
 9892 2eae 32       		.uleb128 0x32
 9893 2eaf 20000000 		.4byte	.LVL439
 9894 2eb3 45270000 		.4byte	0x2745
 9895 2eb7 D12E0000 		.4byte	0x2ed1
 9896 2ebb 2B       		.uleb128 0x2b
 9897 2ebc 01       		.uleb128 0x1
 9898 2ebd 50       		.byte	0x50
 9899 2ebe 02       		.uleb128 0x2
 9900 2ebf 74       		.byte	0x74
 9901 2ec0 00       		.sleb128 0
 9902 2ec1 2B       		.uleb128 0x2b
 9903 2ec2 01       		.uleb128 0x1
 9904 2ec3 52       		.byte	0x52
 9905 2ec4 05       		.uleb128 0x5
 9906 2ec5 03       		.byte	0x3
 9907 2ec6 64010000 		.4byte	.LC37
 9908 2eca 2B       		.uleb128 0x2b
 9909 2ecb 01       		.uleb128 0x1
 9910 2ecc 53       		.byte	0x53
 9911 2ecd 02       		.uleb128 0x2
 9912 2ece 76       		.byte	0x76
 9913 2ecf 00       		.sleb128 0
 9914 2ed0 00       		.byte	0
 9915 2ed1 2A       		.uleb128 0x2a
 9916 2ed2 2C000000 		.4byte	.LVL440
 9917 2ed6 45270000 		.4byte	0x2745
 9918 2eda 2B       		.uleb128 0x2b
 9919 2edb 01       		.uleb128 0x1
 9920 2edc 50       		.byte	0x50
 9921 2edd 02       		.uleb128 0x2
 9922 2ede 74       		.byte	0x74
 9923 2edf 00       		.sleb128 0
 9924 2ee0 2B       		.uleb128 0x2b
 9925 2ee1 01       		.uleb128 0x1
 9926 2ee2 52       		.byte	0x52
ARM GAS  C:\Users\164\AppData\Local\Temp\ccvDnxKa.s 			page 214


 9927 2ee3 05       		.uleb128 0x5
 9928 2ee4 03       		.byte	0x3
 9929 2ee5 6C010000 		.4byte	.LC38
 9930 2ee9 2B       		.uleb128 0x2b
 9931 2eea 01       		.uleb128 0x1
 9932 2eeb 53       		.byte	0x53
 9933 2eec 02       		.uleb128 0x2
 9934 2eed 76       		.byte	0x76
 9935 2eee 00       		.sleb128 0
 9936 2eef 00       		.byte	0
 9937 2ef0 00       		.byte	0
 9938 2ef1 27       		.uleb128 0x27
 9939 2ef2 15050000 		.4byte	.LASF250
 9940 2ef6 01       		.byte	0x1
 9941 2ef7 6601     		.2byte	0x166
 9942 2ef9 00000000 		.4byte	.LFB103
 9943 2efd 56000000 		.4byte	.LFE103-.LFB103
 9944 2f01 01       		.uleb128 0x1
 9945 2f02 9C       		.byte	0x9c
 9946 2f03 B72F0000 		.4byte	0x2fb7
 9947 2f07 28       		.uleb128 0x28
 9948 2f08 766D00   		.ascii	"vm\000"
 9949 2f0b 01       		.byte	0x1
 9950 2f0c 6601     		.2byte	0x166
 9951 2f0e 7B010000 		.4byte	0x17b
 9952 2f12 6D1B0000 		.4byte	.LLST174
 9953 2f16 29       		.uleb128 0x29
 9954 2f17 5B0C0000 		.4byte	.LASF210
 9955 2f1b 01       		.byte	0x1
 9956 2f1c 6601     		.2byte	0x166
 9957 2f1e D5000000 		.4byte	0xd5
 9958 2f22 8B1B0000 		.4byte	.LLST175
 9959 2f26 28       		.uleb128 0x28
 9960 2f27 7600     		.ascii	"v\000"
 9961 2f29 01       		.byte	0x1
 9962 2f2a 6601     		.2byte	0x166
 9963 2f2c C6060000 		.4byte	0x6c6
 9964 2f30 AC1B0000 		.4byte	.LLST176
 9965 2f34 29       		.uleb128 0x29
 9966 2f35 76070000 		.4byte	.LASF196
 9967 2f39 01       		.byte	0x1
 9968 2f3a 6601     		.2byte	0x166
 9969 2f3c 25000000 		.4byte	0x25
 9970 2f40 D81B0000 		.4byte	.LLST177
 9971 2f44 35       		.uleb128 0x35
 9972 2f45 F9000000 		.4byte	.LASF66
 9973 2f49 01       		.byte	0x1
 9974 2f4a 6801     		.2byte	0x168
 9975 2f4c 4A010000 		.4byte	0x14a
 9976 2f50 F91B0000 		.4byte	.LLST178
 9977 2f54 33       		.uleb128 0x33
 9978 2f55 6D00     		.ascii	"m\000"
 9979 2f57 01       		.byte	0x1
 9980 2f58 6901     		.2byte	0x169
 9981 2f5a 9E170000 		.4byte	0x179e
 9982 2f5e 0C1C0000 		.4byte	.LLST179
 9983 2f62 35       		.uleb128 0x35
ARM GAS  C:\Users\164\AppData\Local\Temp\ccvDnxKa.s 			page 215


 9984 2f63 C1050000 		.4byte	.LASF251
 9985 2f67 01       		.byte	0x1
 9986 2f68 6D01     		.2byte	0x16d
 9987 2f6a F8060000 		.4byte	0x6f8
 9988 2f6e 2A1C0000 		.4byte	.LLST180
 9989 2f72 32       		.uleb128 0x32
 9990 2f73 0C000000 		.4byte	.LVL444
 9991 2f77 98330000 		.4byte	0x3398
 9992 2f7b 872F0000 		.4byte	0x2f87
 9993 2f7f 2B       		.uleb128 0x2b
 9994 2f80 01       		.uleb128 0x1
 9995 2f81 50       		.byte	0x50
 9996 2f82 03       		.uleb128 0x3
 9997 2f83 F3       		.byte	0xf3
 9998 2f84 01       		.uleb128 0x1
 9999 2f85 51       		.byte	0x51
 10000 2f86 00       		.byte	0
 10001 2f87 32       		.uleb128 0x32
 10002 2f88 16000000 		.4byte	.LVL446
 10003 2f8c 0F250000 		.4byte	0x250f
 10004 2f90 A12F0000 		.4byte	0x2fa1
 10005 2f94 2B       		.uleb128 0x2b
 10006 2f95 01       		.uleb128 0x1
 10007 2f96 50       		.byte	0x50
 10008 2f97 02       		.uleb128 0x2
 10009 2f98 74       		.byte	0x74
 10010 2f99 00       		.sleb128 0
 10011 2f9a 2B       		.uleb128 0x2b
 10012 2f9b 01       		.uleb128 0x1
 10013 2f9c 51       		.byte	0x51
 10014 2f9d 02       		.uleb128 0x2
 10015 2f9e 75       		.byte	0x75
 10016 2f9f 00       		.sleb128 0
 10017 2fa0 00       		.byte	0
 10018 2fa1 2A       		.uleb128 0x2a
 10019 2fa2 22000000 		.4byte	.LVL449
 10020 2fa6 82330000 		.4byte	0x3382
 10021 2faa 2B       		.uleb128 0x2b
 10022 2fab 01       		.uleb128 0x1
 10023 2fac 50       		.byte	0x50
 10024 2fad 02       		.uleb128 0x2
 10025 2fae 74       		.byte	0x74
 10026 2faf 00       		.sleb128 0
 10027 2fb0 2B       		.uleb128 0x2b
 10028 2fb1 01       		.uleb128 0x1
 10029 2fb2 51       		.byte	0x51
 10030 2fb3 01       		.uleb128 0x1
 10031 2fb4 48       		.byte	0x48
 10032 2fb5 00       		.byte	0
 10033 2fb6 00       		.byte	0
 10034 2fb7 49       		.uleb128 0x49
 10035 2fb8 D2030000 		.4byte	.LASF252
 10036 2fbc 01       		.byte	0x1
 10037 2fbd 9501     		.2byte	0x195
 10038 2fbf 5F050000 		.4byte	0x55f
 10039 2fc3 00000000 		.4byte	.LFB104
 10040 2fc7 FC000000 		.4byte	.LFE104-.LFB104
ARM GAS  C:\Users\164\AppData\Local\Temp\ccvDnxKa.s 			page 216


 10041 2fcb 01       		.uleb128 0x1
 10042 2fcc 9C       		.byte	0x9c
 10043 2fcd 6A310000 		.4byte	0x316a
 10044 2fd1 28       		.uleb128 0x28
 10045 2fd2 766D00   		.ascii	"vm\000"
 10046 2fd5 01       		.byte	0x1
 10047 2fd6 9501     		.2byte	0x195
 10048 2fd8 7B010000 		.4byte	0x17b
 10049 2fdc 3D1C0000 		.4byte	.LLST181
 10050 2fe0 28       		.uleb128 0x28
 10051 2fe1 7600     		.ascii	"v\000"
 10052 2fe3 01       		.byte	0x1
 10053 2fe4 9501     		.2byte	0x195
 10054 2fe6 C6060000 		.4byte	0x6c6
 10055 2fea 691C0000 		.4byte	.LLST182
 10056 2fee 29       		.uleb128 0x29
 10057 2fef BF000000 		.4byte	.LASF253
 10058 2ff3 01       		.byte	0x1
 10059 2ff4 9501     		.2byte	0x195
 10060 2ff6 25000000 		.4byte	0x25
 10061 2ffa AE1C0000 		.4byte	.LLST183
 10062 2ffe 29       		.uleb128 0x29
 10063 2fff 190A0000 		.4byte	.LASF236
 10064 3003 01       		.byte	0x1
 10065 3004 9601     		.2byte	0x196
 10066 3006 C6060000 		.4byte	0x6c6
 10067 300a 001D0000 		.4byte	.LLST184
 10068 300e 29       		.uleb128 0x29
 10069 300f E8050000 		.4byte	.LASF254
 10070 3013 01       		.byte	0x1
 10071 3014 9601     		.2byte	0x196
 10072 3016 D5000000 		.4byte	0xd5
 10073 301a 201D0000 		.4byte	.LLST185
 10074 301e 29       		.uleb128 0x29
 10075 301f 76070000 		.4byte	.LASF196
 10076 3023 01       		.byte	0x1
 10077 3024 9601     		.2byte	0x196
 10078 3026 25000000 		.4byte	0x25
 10079 302a 401D0000 		.4byte	.LLST186
 10080 302e 4C       		.uleb128 0x4c
 10081 302f 35       		.uleb128 0x35
 10082 3030 F9000000 		.4byte	.LASF66
 10083 3034 01       		.byte	0x1
 10084 3035 9801     		.2byte	0x198
 10085 3037 4A010000 		.4byte	0x14a
 10086 303b 601D0000 		.4byte	.LLST187
 10087 303f 33       		.uleb128 0x33
 10088 3040 6D00     		.ascii	"m\000"
 10089 3042 01       		.byte	0x1
 10090 3043 9901     		.2byte	0x199
 10091 3045 9E170000 		.4byte	0x179e
 10092 3049 731D0000 		.4byte	.LLST188
 10093 304d 36       		.uleb128 0x36
 10094 304e 69070000 		.4byte	.LASF256
 10095 3052 01       		.byte	0x1
 10096 3053 BF01     		.2byte	0x1bf
 10097 3055 D2000000 		.4byte	.L242
ARM GAS  C:\Users\164\AppData\Local\Temp\ccvDnxKa.s 			page 217


 10098 3059 35       		.uleb128 0x35
 10099 305a E90B0000 		.4byte	.LASF34
 10100 305e 01       		.byte	0x1
 10101 305f A501     		.2byte	0x1a5
 10102 3061 C6060000 		.4byte	0x6c6
 10103 3065 B21D0000 		.4byte	.LLST189
 10104 3069 2C       		.uleb128 0x2c
 10105 306a 617000   		.ascii	"ap\000"
 10106 306d 01       		.byte	0x1
 10107 306e AA01     		.2byte	0x1aa
 10108 3070 30070000 		.4byte	0x730
 10109 3074 02       		.uleb128 0x2
 10110 3075 91       		.byte	0x91
 10111 3076 54       		.sleb128 -44
 10112 3077 33       		.uleb128 0x33
 10113 3078 6900     		.ascii	"i\000"
 10114 307a 01       		.byte	0x1
 10115 307b AC01     		.2byte	0x1ac
 10116 307d 25000000 		.4byte	0x25
 10117 3081 C51D0000 		.4byte	.LLST190
 10118 3085 2C       		.uleb128 0x2c
 10119 3086 72657400 		.ascii	"ret\000"
 10120 308a 01       		.byte	0x1
 10121 308b B701     		.2byte	0x1b7
 10122 308d 5F050000 		.4byte	0x55f
 10123 3091 02       		.uleb128 0x2
 10124 3092 91       		.byte	0x91
 10125 3093 40       		.sleb128 -64
 10126 3094 32       		.uleb128 0x32
 10127 3095 16000000 		.4byte	.LVL453
 10128 3099 98330000 		.4byte	0x3398
 10129 309d A9300000 		.4byte	0x30a9
 10130 30a1 2B       		.uleb128 0x2b
 10131 30a2 01       		.uleb128 0x1
 10132 30a3 50       		.byte	0x50
 10133 30a4 03       		.uleb128 0x3
 10134 30a5 91       		.byte	0x91
 10135 30a6 04       		.sleb128 4
 10136 30a7 06       		.byte	0x6
 10137 30a8 00       		.byte	0
 10138 30a9 32       		.uleb128 0x32
 10139 30aa 20000000 		.4byte	.LVL455
 10140 30ae 0F250000 		.4byte	0x250f
 10141 30b2 C4300000 		.4byte	0x30c4
 10142 30b6 2B       		.uleb128 0x2b
 10143 30b7 01       		.uleb128 0x1
 10144 30b8 50       		.byte	0x50
 10145 30b9 02       		.uleb128 0x2
 10146 30ba 79       		.byte	0x79
 10147 30bb 00       		.sleb128 0
 10148 30bc 2B       		.uleb128 0x2b
 10149 30bd 01       		.uleb128 0x1
 10150 30be 51       		.byte	0x51
 10151 30bf 03       		.uleb128 0x3
 10152 30c0 91       		.byte	0x91
 10153 30c1 00       		.sleb128 0
 10154 30c2 06       		.byte	0x6
ARM GAS  C:\Users\164\AppData\Local\Temp\ccvDnxKa.s 			page 218


 10155 30c3 00       		.byte	0
 10156 30c4 32       		.uleb128 0x32
 10157 30c5 30000000 		.4byte	.LVL457
 10158 30c9 FB330000 		.4byte	0x33fb
 10159 30cd E2300000 		.4byte	0x30e2
 10160 30d1 2B       		.uleb128 0x2b
 10161 30d2 01       		.uleb128 0x1
 10162 30d3 50       		.byte	0x50
 10163 30d4 05       		.uleb128 0x5
 10164 30d5 03       		.byte	0x3
 10165 30d6 AC010000 		.4byte	.LC45
 10166 30da 2B       		.uleb128 0x2b
 10167 30db 01       		.uleb128 0x1
 10168 30dc 52       		.byte	0x52
 10169 30dd 03       		.uleb128 0x3
 10170 30de 91       		.byte	0x91
 10171 30df 04       		.sleb128 4
 10172 30e0 06       		.byte	0x6
 10173 30e1 00       		.byte	0
 10174 30e2 32       		.uleb128 0x32
 10175 30e3 44000000 		.4byte	.LVL460
 10176 30e7 FB330000 		.4byte	0x33fb
 10177 30eb 00310000 		.4byte	0x3100
 10178 30ef 2B       		.uleb128 0x2b
 10179 30f0 01       		.uleb128 0x1
 10180 30f1 50       		.byte	0x50
 10181 30f2 05       		.uleb128 0x5
 10182 30f3 03       		.byte	0x3
 10183 30f4 D0010000 		.4byte	.LC46
 10184 30f8 2B       		.uleb128 0x2b
 10185 30f9 01       		.uleb128 0x1
 10186 30fa 51       		.byte	0x51
 10187 30fb 03       		.uleb128 0x3
 10188 30fc 91       		.byte	0x91
 10189 30fd 04       		.sleb128 4
 10190 30fe 06       		.byte	0x6
 10191 30ff 00       		.byte	0
 10192 3100 32       		.uleb128 0x32
 10193 3101 52000000 		.4byte	.LVL465
 10194 3105 CF330000 		.4byte	0x33cf
 10195 3109 14310000 		.4byte	0x3114
 10196 310d 2B       		.uleb128 0x2b
 10197 310e 01       		.uleb128 0x1
 10198 310f 50       		.byte	0x50
 10199 3110 02       		.uleb128 0x2
 10200 3111 76       		.byte	0x76
 10201 3112 00       		.sleb128 0
 10202 3113 00       		.byte	0
 10203 3114 32       		.uleb128 0x32
 10204 3115 60000000 		.4byte	.LVL466
 10205 3119 DA330000 		.4byte	0x33da
 10206 311d 29310000 		.4byte	0x3129
 10207 3121 2B       		.uleb128 0x2b
 10208 3122 01       		.uleb128 0x1
 10209 3123 50       		.byte	0x50
 10210 3124 03       		.uleb128 0x3
 10211 3125 91       		.byte	0x91
ARM GAS  C:\Users\164\AppData\Local\Temp\ccvDnxKa.s 			page 219


 10212 3126 00       		.sleb128 0
 10213 3127 06       		.byte	0x6
 10214 3128 00       		.byte	0
 10215 3129 32       		.uleb128 0x32
 10216 312a 72000000 		.4byte	.LVL470
 10217 312e CF330000 		.4byte	0x33cf
 10218 3132 3D310000 		.4byte	0x313d
 10219 3136 2B       		.uleb128 0x2b
 10220 3137 01       		.uleb128 0x1
 10221 3138 50       		.byte	0x50
 10222 3139 02       		.uleb128 0x2
 10223 313a 75       		.byte	0x75
 10224 313b 00       		.sleb128 0
 10225 313c 00       		.byte	0
 10226 313d 32       		.uleb128 0x32
 10227 313e 94000000 		.4byte	.LVL472
 10228 3142 CF330000 		.4byte	0x33cf
 10229 3146 51310000 		.4byte	0x3151
 10230 314a 2B       		.uleb128 0x2b
 10231 314b 01       		.uleb128 0x1
 10232 314c 50       		.byte	0x50
 10233 314d 02       		.uleb128 0x2
 10234 314e 75       		.byte	0x75
 10235 314f 00       		.sleb128 0
 10236 3150 00       		.byte	0
 10237 3151 4D       		.uleb128 0x4d
 10238 3152 B2000000 		.4byte	.LVL473
 10239 3156 2B       		.uleb128 0x2b
 10240 3157 01       		.uleb128 0x1
 10241 3158 50       		.byte	0x50
 10242 3159 02       		.uleb128 0x2
 10243 315a 79       		.byte	0x79
 10244 315b 00       		.sleb128 0
 10245 315c 2B       		.uleb128 0x2b
 10246 315d 01       		.uleb128 0x1
 10247 315e 51       		.byte	0x51
 10248 315f 02       		.uleb128 0x2
 10249 3160 76       		.byte	0x76
 10250 3161 00       		.sleb128 0
 10251 3162 2B       		.uleb128 0x2b
 10252 3163 01       		.uleb128 0x1
 10253 3164 52       		.byte	0x52
 10254 3165 02       		.uleb128 0x2
 10255 3166 77       		.byte	0x77
 10256 3167 00       		.sleb128 0
 10257 3168 00       		.byte	0
 10258 3169 00       		.byte	0
 10259 316a 27       		.uleb128 0x27
 10260 316b 7D010000 		.4byte	.LASF257
 10261 316f 01       		.byte	0x1
 10262 3170 EC03     		.2byte	0x3ec
 10263 3172 00000000 		.4byte	.LFB134
 10264 3176 50000000 		.4byte	.LFE134-.LFB134
 10265 317a 01       		.uleb128 0x1
 10266 317b 9C       		.byte	0x9c
 10267 317c 6E320000 		.4byte	0x326e
 10268 3180 32       		.uleb128 0x32
ARM GAS  C:\Users\164\AppData\Local\Temp\ccvDnxKa.s 			page 220


 10269 3181 08000000 		.4byte	.LVL478
 10270 3185 BA270000 		.4byte	0x27ba
 10271 3189 93310000 		.4byte	0x3193
 10272 318d 2B       		.uleb128 0x2b
 10273 318e 01       		.uleb128 0x1
 10274 318f 50       		.byte	0x50
 10275 3190 01       		.uleb128 0x1
 10276 3191 30       		.byte	0x30
 10277 3192 00       		.byte	0
 10278 3193 32       		.uleb128 0x32
 10279 3194 0E000000 		.4byte	.LVL479
 10280 3198 652C0000 		.4byte	0x2c65
 10281 319c A6310000 		.4byte	0x31a6
 10282 31a0 2B       		.uleb128 0x2b
 10283 31a1 01       		.uleb128 0x1
 10284 31a2 50       		.byte	0x50
 10285 31a3 01       		.uleb128 0x1
 10286 31a4 30       		.byte	0x30
 10287 31a5 00       		.byte	0
 10288 31a6 32       		.uleb128 0x32
 10289 31a7 14000000 		.4byte	.LVL480
 10290 31ab 162D0000 		.4byte	0x2d16
 10291 31af B9310000 		.4byte	0x31b9
 10292 31b3 2B       		.uleb128 0x2b
 10293 31b4 01       		.uleb128 0x1
 10294 31b5 50       		.byte	0x50
 10295 31b6 01       		.uleb128 0x1
 10296 31b7 30       		.byte	0x30
 10297 31b8 00       		.byte	0
 10298 31b9 32       		.uleb128 0x32
 10299 31ba 1A000000 		.4byte	.LVL481
 10300 31be C12D0000 		.4byte	0x2dc1
 10301 31c2 CC310000 		.4byte	0x31cc
 10302 31c6 2B       		.uleb128 0x2b
 10303 31c7 01       		.uleb128 0x1
 10304 31c8 50       		.byte	0x50
 10305 31c9 01       		.uleb128 0x1
 10306 31ca 30       		.byte	0x30
 10307 31cb 00       		.byte	0
 10308 31cc 32       		.uleb128 0x32
 10309 31cd 20000000 		.4byte	.LVL482
 10310 31d1 6C2E0000 		.4byte	0x2e6c
 10311 31d5 DF310000 		.4byte	0x31df
 10312 31d9 2B       		.uleb128 0x2b
 10313 31da 01       		.uleb128 0x1
 10314 31db 50       		.byte	0x50
 10315 31dc 01       		.uleb128 0x1
 10316 31dd 30       		.byte	0x30
 10317 31de 00       		.byte	0
 10318 31df 32       		.uleb128 0x32
 10319 31e0 26000000 		.4byte	.LVL483
 10320 31e4 A4340000 		.4byte	0x34a4
 10321 31e8 F2310000 		.4byte	0x31f2
 10322 31ec 2B       		.uleb128 0x2b
 10323 31ed 01       		.uleb128 0x1
 10324 31ee 50       		.byte	0x50
 10325 31ef 01       		.uleb128 0x1
ARM GAS  C:\Users\164\AppData\Local\Temp\ccvDnxKa.s 			page 221


 10326 31f0 30       		.byte	0x30
 10327 31f1 00       		.byte	0
 10328 31f2 32       		.uleb128 0x32
 10329 31f3 2C000000 		.4byte	.LVL484
 10330 31f7 AF340000 		.4byte	0x34af
 10331 31fb 05320000 		.4byte	0x3205
 10332 31ff 2B       		.uleb128 0x2b
 10333 3200 01       		.uleb128 0x1
 10334 3201 50       		.byte	0x50
 10335 3202 01       		.uleb128 0x1
 10336 3203 30       		.byte	0x30
 10337 3204 00       		.byte	0
 10338 3205 32       		.uleb128 0x32
 10339 3206 32000000 		.4byte	.LVL485
 10340 320a BA340000 		.4byte	0x34ba
 10341 320e 18320000 		.4byte	0x3218
 10342 3212 2B       		.uleb128 0x2b
 10343 3213 01       		.uleb128 0x1
 10344 3214 50       		.byte	0x50
 10345 3215 01       		.uleb128 0x1
 10346 3216 30       		.byte	0x30
 10347 3217 00       		.byte	0
 10348 3218 32       		.uleb128 0x32
 10349 3219 38000000 		.4byte	.LVL486
 10350 321d C5340000 		.4byte	0x34c5
 10351 3221 2B320000 		.4byte	0x322b
 10352 3225 2B       		.uleb128 0x2b
 10353 3226 01       		.uleb128 0x1
 10354 3227 50       		.byte	0x50
 10355 3228 01       		.uleb128 0x1
 10356 3229 30       		.byte	0x30
 10357 322a 00       		.byte	0
 10358 322b 32       		.uleb128 0x32
 10359 322c 3E000000 		.4byte	.LVL487
 10360 3230 D0340000 		.4byte	0x34d0
 10361 3234 3E320000 		.4byte	0x323e
 10362 3238 2B       		.uleb128 0x2b
 10363 3239 01       		.uleb128 0x1
 10364 323a 50       		.byte	0x50
 10365 323b 01       		.uleb128 0x1
 10366 323c 30       		.byte	0x30
 10367 323d 00       		.byte	0
 10368 323e 32       		.uleb128 0x32
 10369 323f 44000000 		.4byte	.LVL488
 10370 3243 DB340000 		.4byte	0x34db
 10371 3247 51320000 		.4byte	0x3251
 10372 324b 2B       		.uleb128 0x2b
 10373 324c 01       		.uleb128 0x1
 10374 324d 50       		.byte	0x50
 10375 324e 01       		.uleb128 0x1
 10376 324f 30       		.byte	0x30
 10377 3250 00       		.byte	0
 10378 3251 32       		.uleb128 0x32
 10379 3252 4A000000 		.4byte	.LVL489
 10380 3256 E6340000 		.4byte	0x34e6
 10381 325a 64320000 		.4byte	0x3264
 10382 325e 2B       		.uleb128 0x2b
ARM GAS  C:\Users\164\AppData\Local\Temp\ccvDnxKa.s 			page 222


 10383 325f 01       		.uleb128 0x1
 10384 3260 50       		.byte	0x50
 10385 3261 01       		.uleb128 0x1
 10386 3262 30       		.byte	0x30
 10387 3263 00       		.byte	0
 10388 3264 34       		.uleb128 0x34
 10389 3265 4E000000 		.4byte	.LVL490
 10390 3269 09180000 		.4byte	0x1809
 10391 326d 00       		.byte	0
 10392 326e 4E       		.uleb128 0x4e
 10393 326f 90040000 		.4byte	.LASF259
 10394 3273 0E       		.byte	0xe
 10395 3274 1A       		.byte	0x1a
 10396 3275 CC060000 		.4byte	0x6cc
 10397 3279 4E       		.uleb128 0x4e
 10398 327a 7A0C0000 		.4byte	.LASF260
 10399 327e 0E       		.byte	0xe
 10400 327f 1C       		.byte	0x1c
 10401 3280 CC060000 		.4byte	0x6cc
 10402 3284 4E       		.uleb128 0x4e
 10403 3285 1E0F0000 		.4byte	.LASF261
 10404 3289 0E       		.byte	0xe
 10405 328a 1D       		.byte	0x1d
 10406 328b CC060000 		.4byte	0x6cc
 10407 328f 4E       		.uleb128 0x4e
 10408 3290 48000000 		.4byte	.LASF262
 10409 3294 0E       		.byte	0xe
 10410 3295 1E       		.byte	0x1e
 10411 3296 CC060000 		.4byte	0x6cc
 10412 329a 4E       		.uleb128 0x4e
 10413 329b 3D040000 		.4byte	.LASF263
 10414 329f 0E       		.byte	0xe
 10415 32a0 1F       		.byte	0x1f
 10416 32a1 CC060000 		.4byte	0x6cc
 10417 32a5 4E       		.uleb128 0x4e
 10418 32a6 690C0000 		.4byte	.LASF264
 10419 32aa 0E       		.byte	0xe
 10420 32ab 20       		.byte	0x20
 10421 32ac CC060000 		.4byte	0x6cc
 10422 32b0 4E       		.uleb128 0x4e
 10423 32b1 37020000 		.4byte	.LASF265
 10424 32b5 0E       		.byte	0xe
 10425 32b6 21       		.byte	0x21
 10426 32b7 CC060000 		.4byte	0x6cc
 10427 32bb 4E       		.uleb128 0x4e
 10428 32bc F6080000 		.4byte	.LASF266
 10429 32c0 0E       		.byte	0xe
 10430 32c1 22       		.byte	0x22
 10431 32c2 CC060000 		.4byte	0x6cc
 10432 32c6 4E       		.uleb128 0x4e
 10433 32c7 E6070000 		.4byte	.LASF267
 10434 32cb 0E       		.byte	0xe
 10435 32cc 24       		.byte	0x24
 10436 32cd CC060000 		.4byte	0x6cc
 10437 32d1 4E       		.uleb128 0x4e
 10438 32d2 8A0C0000 		.4byte	.LASF268
 10439 32d6 0E       		.byte	0xe
ARM GAS  C:\Users\164\AppData\Local\Temp\ccvDnxKa.s 			page 223


 10440 32d7 25       		.byte	0x25
 10441 32d8 CC060000 		.4byte	0x6cc
 10442 32dc 4E       		.uleb128 0x4e
 10443 32dd DB010000 		.4byte	.LASF269
 10444 32e1 0E       		.byte	0xe
 10445 32e2 26       		.byte	0x26
 10446 32e3 CC060000 		.4byte	0x6cc
 10447 32e7 4E       		.uleb128 0x4e
 10448 32e8 B0070000 		.4byte	.LASF270
 10449 32ec 0E       		.byte	0xe
 10450 32ed 27       		.byte	0x27
 10451 32ee CC060000 		.4byte	0x6cc
 10452 32f2 3A       		.uleb128 0x3a
 10453 32f3 9A080000 		.4byte	.LASF271
 10454 32f7 0F       		.byte	0xf
 10455 32f8 1207     		.2byte	0x712
 10456 32fa FE320000 		.4byte	0x32fe
 10457 32fe 1C       		.uleb128 0x1c
 10458 32ff 0C010000 		.4byte	0x10c
 10459 3303 3A       		.uleb128 0x3a
 10460 3304 8A080000 		.4byte	.LASF258
 10461 3308 01       		.byte	0x1
 10462 3309 DB03     		.2byte	0x3db
 10463 330b 0F330000 		.4byte	0x330f
 10464 330f 07       		.uleb128 0x7
 10465 3310 9B180000 		.4byte	0x189b
 10466 3314 4F       		.uleb128 0x4f
 10467 3315 1A0B0000 		.4byte	.LASF272
 10468 3319 1A0B0000 		.4byte	.LASF272
 10469 331d 03       		.byte	0x3
 10470 331e 5D       		.byte	0x5d
 10471 331f 4F       		.uleb128 0x4f
 10472 3320 58090000 		.4byte	.LASF273
 10473 3324 58090000 		.4byte	.LASF273
 10474 3328 06       		.byte	0x6
 10475 3329 27       		.byte	0x27
 10476 332a 4F       		.uleb128 0x4f
 10477 332b 130C0000 		.4byte	.LASF274
 10478 332f 130C0000 		.4byte	.LASF274
 10479 3333 0B       		.byte	0xb
 10480 3334 D7       		.byte	0xd7
 10481 3335 4F       		.uleb128 0x4f
 10482 3336 80060000 		.4byte	.LASF275
 10483 333a 80060000 		.4byte	.LASF275
 10484 333e 02       		.byte	0x2
 10485 333f 34       		.byte	0x34
 10486 3340 4F       		.uleb128 0x4f
 10487 3341 A60C0000 		.4byte	.LASF276
 10488 3345 A60C0000 		.4byte	.LASF276
 10489 3349 02       		.byte	0x2
 10490 334a 31       		.byte	0x31
 10491 334b 4F       		.uleb128 0x4f
 10492 334c 8F0D0000 		.4byte	.LASF277
 10493 3350 8F0D0000 		.4byte	.LASF277
 10494 3354 10       		.byte	0x10
 10495 3355 21       		.byte	0x21
 10496 3356 4F       		.uleb128 0x4f
ARM GAS  C:\Users\164\AppData\Local\Temp\ccvDnxKa.s 			page 224


 10497 3357 02040000 		.4byte	.LASF278
 10498 335b 02040000 		.4byte	.LASF278
 10499 335f 02       		.byte	0x2
 10500 3360 33       		.byte	0x33
 10501 3361 4F       		.uleb128 0x4f
 10502 3362 38080000 		.4byte	.LASF279
 10503 3366 38080000 		.4byte	.LASF279
 10504 336a 04       		.byte	0x4
 10505 336b 1B       		.byte	0x1b
 10506 336c 4F       		.uleb128 0x4f
 10507 336d 82050000 		.4byte	.LASF280
 10508 3371 82050000 		.4byte	.LASF280
 10509 3375 0B       		.byte	0xb
 10510 3376 D4       		.byte	0xd4
 10511 3377 4F       		.uleb128 0x4f
 10512 3378 47030000 		.4byte	.LASF281
 10513 337c 47030000 		.4byte	.LASF281
 10514 3380 03       		.byte	0x3
 10515 3381 5C       		.byte	0x5c
 10516 3382 4F       		.uleb128 0x4f
 10517 3383 4D090000 		.4byte	.LASF282
 10518 3387 4D090000 		.4byte	.LASF282
 10519 338b 11       		.byte	0x11
 10520 338c 1D       		.byte	0x1d
 10521 338d 4F       		.uleb128 0x4f
 10522 338e C0060000 		.4byte	.LASF283
 10523 3392 C0060000 		.4byte	.LASF283
 10524 3396 10       		.byte	0x10
 10525 3397 1E       		.byte	0x1e
 10526 3398 4F       		.uleb128 0x4f
 10527 3399 3F060000 		.4byte	.LASF284
 10528 339d 3F060000 		.4byte	.LASF284
 10529 33a1 04       		.byte	0x4
 10530 33a2 1A       		.byte	0x1a
 10531 33a3 4F       		.uleb128 0x4f
 10532 33a4 670A0000 		.4byte	.LASF285
 10533 33a8 670A0000 		.4byte	.LASF285
 10534 33ac 0B       		.byte	0xb
 10535 33ad DE       		.byte	0xde
 10536 33ae 4F       		.uleb128 0x4f
 10537 33af 05020000 		.4byte	.LASF286
 10538 33b3 05020000 		.4byte	.LASF286
 10539 33b7 11       		.byte	0x11
 10540 33b8 1B       		.byte	0x1b
 10541 33b9 4F       		.uleb128 0x4f
 10542 33ba 0F0D0000 		.4byte	.LASF287
 10543 33be 0F0D0000 		.4byte	.LASF287
 10544 33c2 0B       		.byte	0xb
 10545 33c3 DF       		.byte	0xdf
 10546 33c4 4F       		.uleb128 0x4f
 10547 33c5 F6040000 		.4byte	.LASF288
 10548 33c9 F6040000 		.4byte	.LASF288
 10549 33cd 0B       		.byte	0xb
 10550 33ce DC       		.byte	0xdc
 10551 33cf 4F       		.uleb128 0x4f
 10552 33d0 08050000 		.4byte	.LASF289
 10553 33d4 08050000 		.4byte	.LASF289
ARM GAS  C:\Users\164\AppData\Local\Temp\ccvDnxKa.s 			page 225


 10554 33d8 0B       		.byte	0xb
 10555 33d9 D6       		.byte	0xd6
 10556 33da 4F       		.uleb128 0x4f
 10557 33db F30D0000 		.4byte	.LASF290
 10558 33df F30D0000 		.4byte	.LASF290
 10559 33e3 0B       		.byte	0xb
 10560 33e4 D5       		.byte	0xd5
 10561 33e5 4F       		.uleb128 0x4f
 10562 33e6 BE0B0000 		.4byte	.LASF291
 10563 33ea BE0B0000 		.4byte	.LASF291
 10564 33ee 03       		.byte	0x3
 10565 33ef 63       		.byte	0x63
 10566 33f0 4F       		.uleb128 0x4f
 10567 33f1 CA0B0000 		.4byte	.LASF292
 10568 33f5 CA0B0000 		.4byte	.LASF292
 10569 33f9 0B       		.byte	0xb
 10570 33fa D3       		.byte	0xd3
 10571 33fb 4F       		.uleb128 0x4f
 10572 33fc 9A060000 		.4byte	.LASF293
 10573 3400 9A060000 		.4byte	.LASF293
 10574 3404 02       		.byte	0x2
 10575 3405 30       		.byte	0x30
 10576 3406 4F       		.uleb128 0x4f
 10577 3407 36050000 		.4byte	.LASF294
 10578 340b 36050000 		.4byte	.LASF294
 10579 340f 06       		.byte	0x6
 10580 3410 26       		.byte	0x26
 10581 3411 4F       		.uleb128 0x4f
 10582 3412 30010000 		.4byte	.LASF295
 10583 3416 30010000 		.4byte	.LASF295
 10584 341a 03       		.byte	0x3
 10585 341b 5F       		.byte	0x5f
 10586 341c 4F       		.uleb128 0x4f
 10587 341d B1000000 		.4byte	.LASF296
 10588 3421 B1000000 		.4byte	.LASF296
 10589 3425 12       		.byte	0x12
 10590 3426 18       		.byte	0x18
 10591 3427 4F       		.uleb128 0x4f
 10592 3428 140E0000 		.4byte	.LASF297
 10593 342c 140E0000 		.4byte	.LASF297
 10594 3430 03       		.byte	0x3
 10595 3431 61       		.byte	0x61
 10596 3432 4F       		.uleb128 0x4f
 10597 3433 C80D0000 		.4byte	.LASF298
 10598 3437 C80D0000 		.4byte	.LASF298
 10599 343b 03       		.byte	0x3
 10600 343c 62       		.byte	0x62
 10601 343d 4F       		.uleb128 0x4f
 10602 343e AB0E0000 		.4byte	.LASF299
 10603 3442 AB0E0000 		.4byte	.LASF299
 10604 3446 13       		.byte	0x13
 10605 3447 31       		.byte	0x31
 10606 3448 4F       		.uleb128 0x4f
 10607 3449 F7050000 		.4byte	.LASF300
 10608 344d F7050000 		.4byte	.LASF300
 10609 3451 05       		.byte	0x5
 10610 3452 2A       		.byte	0x2a
ARM GAS  C:\Users\164\AppData\Local\Temp\ccvDnxKa.s 			page 226


 10611 3453 4F       		.uleb128 0x4f
 10612 3454 1C020000 		.4byte	.LASF301
 10613 3458 1C020000 		.4byte	.LASF301
 10614 345c 10       		.byte	0x10
 10615 345d 1B       		.byte	0x1b
 10616 345e 4F       		.uleb128 0x4f
 10617 345f 9C030000 		.4byte	.LASF302
 10618 3463 9C030000 		.4byte	.LASF302
 10619 3467 14       		.byte	0x14
 10620 3468 1A       		.byte	0x1a
 10621 3469 4F       		.uleb128 0x4f
 10622 346a D5070000 		.4byte	.LASF303
 10623 346e D5070000 		.4byte	.LASF303
 10624 3472 14       		.byte	0x14
 10625 3473 1C       		.byte	0x1c
 10626 3474 4F       		.uleb128 0x4f
 10627 3475 12060000 		.4byte	.LASF304
 10628 3479 12060000 		.4byte	.LASF304
 10629 347d 15       		.byte	0x15
 10630 347e 29       		.byte	0x29
 10631 347f 4F       		.uleb128 0x4f
 10632 3480 B7030000 		.4byte	.LASF305
 10633 3484 B7030000 		.4byte	.LASF305
 10634 3488 0B       		.byte	0xb
 10635 3489 D2       		.byte	0xd2
 10636 348a 50       		.uleb128 0x50
 10637 348b 8F0D0000 		.4byte	.LASF277
 10638 348f A2040000 		.4byte	.LASF319
 10639 3493 0D       		.byte	0xd
 10640 3494 00       		.byte	0
 10641 3495 8F0D0000 		.4byte	.LASF277
 10642 3499 4F       		.uleb128 0x4f
 10643 349a 03070000 		.4byte	.LASF306
 10644 349e 03070000 		.4byte	.LASF306
 10645 34a2 04       		.byte	0x4
 10646 34a3 18       		.byte	0x18
 10647 34a4 4F       		.uleb128 0x4f
 10648 34a5 670E0000 		.4byte	.LASF307
 10649 34a9 670E0000 		.4byte	.LASF307
 10650 34ad 16       		.byte	0x16
 10651 34ae 18       		.byte	0x18
 10652 34af 4F       		.uleb128 0x4f
 10653 34b0 76090000 		.4byte	.LASF308
 10654 34b4 76090000 		.4byte	.LASF308
 10655 34b8 04       		.byte	0x4
 10656 34b9 1C       		.byte	0x1c
 10657 34ba 4F       		.uleb128 0x4f
 10658 34bb C7000000 		.4byte	.LASF309
 10659 34bf C7000000 		.4byte	.LASF309
 10660 34c3 16       		.byte	0x16
 10661 34c4 19       		.byte	0x19
 10662 34c5 4F       		.uleb128 0x4f
 10663 34c6 4C040000 		.4byte	.LASF310
 10664 34ca 4C040000 		.4byte	.LASF310
 10665 34ce 06       		.byte	0x6
 10666 34cf 32       		.byte	0x32
 10667 34d0 4F       		.uleb128 0x4f
ARM GAS  C:\Users\164\AppData\Local\Temp\ccvDnxKa.s 			page 227


 10668 34d1 AB050000 		.4byte	.LASF311
 10669 34d5 AB050000 		.4byte	.LASF311
 10670 34d9 05       		.byte	0x5
 10671 34da 34       		.byte	0x34
 10672 34db 4F       		.uleb128 0x4f
 10673 34dc 5B080000 		.4byte	.LASF312
 10674 34e0 5B080000 		.4byte	.LASF312
 10675 34e4 07       		.byte	0x7
 10676 34e5 2A       		.byte	0x2a
 10677 34e6 4F       		.uleb128 0x4f
 10678 34e7 DC030000 		.4byte	.LASF313
 10679 34eb DC030000 		.4byte	.LASF313
 10680 34ef 08       		.byte	0x8
 10681 34f0 3E       		.byte	0x3e
 10682 34f1 00       		.byte	0
 10683              		.section	.debug_abbrev,"",%progbits
 10684              	.Ldebug_abbrev0:
 10685 0000 01       		.uleb128 0x1
 10686 0001 11       		.uleb128 0x11
 10687 0002 01       		.byte	0x1
 10688 0003 25       		.uleb128 0x25
 10689 0004 0E       		.uleb128 0xe
 10690 0005 13       		.uleb128 0x13
 10691 0006 0B       		.uleb128 0xb
 10692 0007 03       		.uleb128 0x3
 10693 0008 0E       		.uleb128 0xe
 10694 0009 1B       		.uleb128 0x1b
 10695 000a 0E       		.uleb128 0xe
 10696 000b 55       		.uleb128 0x55
 10697 000c 17       		.uleb128 0x17
 10698 000d 11       		.uleb128 0x11
 10699 000e 01       		.uleb128 0x1
 10700 000f 10       		.uleb128 0x10
 10701 0010 17       		.uleb128 0x17
 10702 0011 00       		.byte	0
 10703 0012 00       		.byte	0
 10704 0013 02       		.uleb128 0x2
 10705 0014 24       		.uleb128 0x24
 10706 0015 00       		.byte	0
 10707 0016 0B       		.uleb128 0xb
 10708 0017 0B       		.uleb128 0xb
 10709 0018 3E       		.uleb128 0x3e
 10710 0019 0B       		.uleb128 0xb
 10711 001a 03       		.uleb128 0x3
 10712 001b 08       		.uleb128 0x8
 10713 001c 00       		.byte	0
 10714 001d 00       		.byte	0
 10715 001e 03       		.uleb128 0x3
 10716 001f 24       		.uleb128 0x24
 10717 0020 00       		.byte	0
 10718 0021 0B       		.uleb128 0xb
 10719 0022 0B       		.uleb128 0xb
 10720 0023 3E       		.uleb128 0x3e
 10721 0024 0B       		.uleb128 0xb
 10722 0025 03       		.uleb128 0x3
 10723 0026 0E       		.uleb128 0xe
 10724 0027 00       		.byte	0
ARM GAS  C:\Users\164\AppData\Local\Temp\ccvDnxKa.s 			page 228


 10725 0028 00       		.byte	0
 10726 0029 04       		.uleb128 0x4
 10727 002a 16       		.uleb128 0x16
 10728 002b 00       		.byte	0
 10729 002c 03       		.uleb128 0x3
 10730 002d 0E       		.uleb128 0xe
 10731 002e 3A       		.uleb128 0x3a
 10732 002f 0B       		.uleb128 0xb
 10733 0030 3B       		.uleb128 0x3b
 10734 0031 0B       		.uleb128 0xb
 10735 0032 49       		.uleb128 0x49
 10736 0033 13       		.uleb128 0x13
 10737 0034 00       		.byte	0
 10738 0035 00       		.byte	0
 10739 0036 05       		.uleb128 0x5
 10740 0037 0F       		.uleb128 0xf
 10741 0038 00       		.byte	0
 10742 0039 0B       		.uleb128 0xb
 10743 003a 0B       		.uleb128 0xb
 10744 003b 00       		.byte	0
 10745 003c 00       		.byte	0
 10746 003d 06       		.uleb128 0x6
 10747 003e 0F       		.uleb128 0xf
 10748 003f 00       		.byte	0
 10749 0040 0B       		.uleb128 0xb
 10750 0041 0B       		.uleb128 0xb
 10751 0042 49       		.uleb128 0x49
 10752 0043 13       		.uleb128 0x13
 10753 0044 00       		.byte	0
 10754 0045 00       		.byte	0
 10755 0046 07       		.uleb128 0x7
 10756 0047 26       		.uleb128 0x26
 10757 0048 00       		.byte	0
 10758 0049 49       		.uleb128 0x49
 10759 004a 13       		.uleb128 0x13
 10760 004b 00       		.byte	0
 10761 004c 00       		.byte	0
 10762 004d 08       		.uleb128 0x8
 10763 004e 15       		.uleb128 0x15
 10764 004f 01       		.byte	0x1
 10765 0050 27       		.uleb128 0x27
 10766 0051 19       		.uleb128 0x19
 10767 0052 01       		.uleb128 0x1
 10768 0053 13       		.uleb128 0x13
 10769 0054 00       		.byte	0
 10770 0055 00       		.byte	0
 10771 0056 09       		.uleb128 0x9
 10772 0057 05       		.uleb128 0x5
 10773 0058 00       		.byte	0
 10774 0059 49       		.uleb128 0x49
 10775 005a 13       		.uleb128 0x13
 10776 005b 00       		.byte	0
 10777 005c 00       		.byte	0
 10778 005d 0A       		.uleb128 0xa
 10779 005e 13       		.uleb128 0x13
 10780 005f 01       		.byte	0x1
 10781 0060 03       		.uleb128 0x3
ARM GAS  C:\Users\164\AppData\Local\Temp\ccvDnxKa.s 			page 229


 10782 0061 08       		.uleb128 0x8
 10783 0062 0B       		.uleb128 0xb
 10784 0063 05       		.uleb128 0x5
 10785 0064 3A       		.uleb128 0x3a
 10786 0065 0B       		.uleb128 0xb
 10787 0066 3B       		.uleb128 0x3b
 10788 0067 0B       		.uleb128 0xb
 10789 0068 01       		.uleb128 0x1
 10790 0069 13       		.uleb128 0x13
 10791 006a 00       		.byte	0
 10792 006b 00       		.byte	0
 10793 006c 0B       		.uleb128 0xb
 10794 006d 0D       		.uleb128 0xd
 10795 006e 00       		.byte	0
 10796 006f 03       		.uleb128 0x3
 10797 0070 0E       		.uleb128 0xe
 10798 0071 3A       		.uleb128 0x3a
 10799 0072 0B       		.uleb128 0xb
 10800 0073 3B       		.uleb128 0x3b
 10801 0074 0B       		.uleb128 0xb
 10802 0075 49       		.uleb128 0x49
 10803 0076 13       		.uleb128 0x13
 10804 0077 38       		.uleb128 0x38
 10805 0078 0B       		.uleb128 0xb
 10806 0079 00       		.byte	0
 10807 007a 00       		.byte	0
 10808 007b 0C       		.uleb128 0xc
 10809 007c 0D       		.uleb128 0xd
 10810 007d 00       		.byte	0
 10811 007e 03       		.uleb128 0x3
 10812 007f 08       		.uleb128 0x8
 10813 0080 3A       		.uleb128 0x3a
 10814 0081 0B       		.uleb128 0xb
 10815 0082 3B       		.uleb128 0x3b
 10816 0083 0B       		.uleb128 0xb
 10817 0084 49       		.uleb128 0x49
 10818 0085 13       		.uleb128 0x13
 10819 0086 38       		.uleb128 0x38
 10820 0087 0B       		.uleb128 0xb
 10821 0088 00       		.byte	0
 10822 0089 00       		.byte	0
 10823 008a 0D       		.uleb128 0xd
 10824 008b 0D       		.uleb128 0xd
 10825 008c 00       		.byte	0
 10826 008d 03       		.uleb128 0x3
 10827 008e 0E       		.uleb128 0xe
 10828 008f 3A       		.uleb128 0x3a
 10829 0090 0B       		.uleb128 0xb
 10830 0091 3B       		.uleb128 0x3b
 10831 0092 0B       		.uleb128 0xb
 10832 0093 49       		.uleb128 0x49
 10833 0094 13       		.uleb128 0x13
 10834 0095 38       		.uleb128 0x38
 10835 0096 05       		.uleb128 0x5
 10836 0097 00       		.byte	0
 10837 0098 00       		.byte	0
 10838 0099 0E       		.uleb128 0xe
ARM GAS  C:\Users\164\AppData\Local\Temp\ccvDnxKa.s 			page 230


 10839 009a 13       		.uleb128 0x13
 10840 009b 01       		.byte	0x1
 10841 009c 03       		.uleb128 0x3
 10842 009d 0E       		.uleb128 0xe
 10843 009e 0B       		.uleb128 0xb
 10844 009f 0B       		.uleb128 0xb
 10845 00a0 3A       		.uleb128 0x3a
 10846 00a1 0B       		.uleb128 0xb
 10847 00a2 3B       		.uleb128 0x3b
 10848 00a3 0B       		.uleb128 0xb
 10849 00a4 01       		.uleb128 0x1
 10850 00a5 13       		.uleb128 0x13
 10851 00a6 00       		.byte	0
 10852 00a7 00       		.byte	0
 10853 00a8 0F       		.uleb128 0xf
 10854 00a9 0D       		.uleb128 0xd
 10855 00aa 00       		.byte	0
 10856 00ab 03       		.uleb128 0x3
 10857 00ac 08       		.uleb128 0x8
 10858 00ad 3A       		.uleb128 0x3a
 10859 00ae 0B       		.uleb128 0xb
 10860 00af 3B       		.uleb128 0x3b
 10861 00b0 0B       		.uleb128 0xb
 10862 00b1 49       		.uleb128 0x49
 10863 00b2 13       		.uleb128 0x13
 10864 00b3 0B       		.uleb128 0xb
 10865 00b4 0B       		.uleb128 0xb
 10866 00b5 0D       		.uleb128 0xd
 10867 00b6 0B       		.uleb128 0xb
 10868 00b7 0C       		.uleb128 0xc
 10869 00b8 0B       		.uleb128 0xb
 10870 00b9 38       		.uleb128 0x38
 10871 00ba 0B       		.uleb128 0xb
 10872 00bb 00       		.byte	0
 10873 00bc 00       		.byte	0
 10874 00bd 10       		.uleb128 0x10
 10875 00be 0D       		.uleb128 0xd
 10876 00bf 00       		.byte	0
 10877 00c0 49       		.uleb128 0x49
 10878 00c1 13       		.uleb128 0x13
 10879 00c2 38       		.uleb128 0x38
 10880 00c3 0B       		.uleb128 0xb
 10881 00c4 00       		.byte	0
 10882 00c5 00       		.byte	0
 10883 00c6 11       		.uleb128 0x11
 10884 00c7 04       		.uleb128 0x4
 10885 00c8 01       		.byte	0x1
 10886 00c9 0B       		.uleb128 0xb
 10887 00ca 0B       		.uleb128 0xb
 10888 00cb 49       		.uleb128 0x49
 10889 00cc 13       		.uleb128 0x13
 10890 00cd 3A       		.uleb128 0x3a
 10891 00ce 0B       		.uleb128 0xb
 10892 00cf 3B       		.uleb128 0x3b
 10893 00d0 0B       		.uleb128 0xb
 10894 00d1 01       		.uleb128 0x1
 10895 00d2 13       		.uleb128 0x13
ARM GAS  C:\Users\164\AppData\Local\Temp\ccvDnxKa.s 			page 231


 10896 00d3 00       		.byte	0
 10897 00d4 00       		.byte	0
 10898 00d5 12       		.uleb128 0x12
 10899 00d6 28       		.uleb128 0x28
 10900 00d7 00       		.byte	0
 10901 00d8 03       		.uleb128 0x3
 10902 00d9 0E       		.uleb128 0xe
 10903 00da 1C       		.uleb128 0x1c
 10904 00db 0D       		.uleb128 0xd
 10905 00dc 00       		.byte	0
 10906 00dd 00       		.byte	0
 10907 00de 13       		.uleb128 0x13
 10908 00df 28       		.uleb128 0x28
 10909 00e0 00       		.byte	0
 10910 00e1 03       		.uleb128 0x3
 10911 00e2 0E       		.uleb128 0xe
 10912 00e3 1C       		.uleb128 0x1c
 10913 00e4 0B       		.uleb128 0xb
 10914 00e5 00       		.byte	0
 10915 00e6 00       		.byte	0
 10916 00e7 14       		.uleb128 0x14
 10917 00e8 17       		.uleb128 0x17
 10918 00e9 01       		.byte	0x1
 10919 00ea 0B       		.uleb128 0xb
 10920 00eb 0B       		.uleb128 0xb
 10921 00ec 3A       		.uleb128 0x3a
 10922 00ed 0B       		.uleb128 0xb
 10923 00ee 3B       		.uleb128 0x3b
 10924 00ef 0B       		.uleb128 0xb
 10925 00f0 01       		.uleb128 0x1
 10926 00f1 13       		.uleb128 0x13
 10927 00f2 00       		.byte	0
 10928 00f3 00       		.byte	0
 10929 00f4 15       		.uleb128 0x15
 10930 00f5 0D       		.uleb128 0xd
 10931 00f6 00       		.byte	0
 10932 00f7 03       		.uleb128 0x3
 10933 00f8 08       		.uleb128 0x8
 10934 00f9 3A       		.uleb128 0x3a
 10935 00fa 0B       		.uleb128 0xb
 10936 00fb 3B       		.uleb128 0x3b
 10937 00fc 0B       		.uleb128 0xb
 10938 00fd 49       		.uleb128 0x49
 10939 00fe 13       		.uleb128 0x13
 10940 00ff 00       		.byte	0
 10941 0100 00       		.byte	0
 10942 0101 16       		.uleb128 0x16
 10943 0102 0D       		.uleb128 0xd
 10944 0103 00       		.byte	0
 10945 0104 03       		.uleb128 0x3
 10946 0105 0E       		.uleb128 0xe
 10947 0106 3A       		.uleb128 0x3a
 10948 0107 0B       		.uleb128 0xb
 10949 0108 3B       		.uleb128 0x3b
 10950 0109 0B       		.uleb128 0xb
 10951 010a 49       		.uleb128 0x49
 10952 010b 13       		.uleb128 0x13
ARM GAS  C:\Users\164\AppData\Local\Temp\ccvDnxKa.s 			page 232


 10953 010c 00       		.byte	0
 10954 010d 00       		.byte	0
 10955 010e 17       		.uleb128 0x17
 10956 010f 0D       		.uleb128 0xd
 10957 0110 00       		.byte	0
 10958 0111 03       		.uleb128 0x3
 10959 0112 0E       		.uleb128 0xe
 10960 0113 3A       		.uleb128 0x3a
 10961 0114 0B       		.uleb128 0xb
 10962 0115 3B       		.uleb128 0x3b
 10963 0116 0B       		.uleb128 0xb
 10964 0117 49       		.uleb128 0x49
 10965 0118 13       		.uleb128 0x13
 10966 0119 0B       		.uleb128 0xb
 10967 011a 0B       		.uleb128 0xb
 10968 011b 0D       		.uleb128 0xd
 10969 011c 0B       		.uleb128 0xb
 10970 011d 0C       		.uleb128 0xc
 10971 011e 0B       		.uleb128 0xb
 10972 011f 38       		.uleb128 0x38
 10973 0120 0B       		.uleb128 0xb
 10974 0121 00       		.byte	0
 10975 0122 00       		.byte	0
 10976 0123 18       		.uleb128 0x18
 10977 0124 13       		.uleb128 0x13
 10978 0125 00       		.byte	0
 10979 0126 03       		.uleb128 0x3
 10980 0127 0E       		.uleb128 0xe
 10981 0128 3C       		.uleb128 0x3c
 10982 0129 19       		.uleb128 0x19
 10983 012a 00       		.byte	0
 10984 012b 00       		.byte	0
 10985 012c 19       		.uleb128 0x19
 10986 012d 01       		.uleb128 0x1
 10987 012e 01       		.byte	0x1
 10988 012f 49       		.uleb128 0x49
 10989 0130 13       		.uleb128 0x13
 10990 0131 01       		.uleb128 0x1
 10991 0132 13       		.uleb128 0x13
 10992 0133 00       		.byte	0
 10993 0134 00       		.byte	0
 10994 0135 1A       		.uleb128 0x1a
 10995 0136 21       		.uleb128 0x21
 10996 0137 00       		.byte	0
 10997 0138 49       		.uleb128 0x49
 10998 0139 13       		.uleb128 0x13
 10999 013a 00       		.byte	0
 11000 013b 00       		.byte	0
 11001 013c 1B       		.uleb128 0x1b
 11002 013d 21       		.uleb128 0x21
 11003 013e 00       		.byte	0
 11004 013f 49       		.uleb128 0x49
 11005 0140 13       		.uleb128 0x13
 11006 0141 2F       		.uleb128 0x2f
 11007 0142 0B       		.uleb128 0xb
 11008 0143 00       		.byte	0
 11009 0144 00       		.byte	0
ARM GAS  C:\Users\164\AppData\Local\Temp\ccvDnxKa.s 			page 233


 11010 0145 1C       		.uleb128 0x1c
 11011 0146 35       		.uleb128 0x35
 11012 0147 00       		.byte	0
 11013 0148 49       		.uleb128 0x49
 11014 0149 13       		.uleb128 0x13
 11015 014a 00       		.byte	0
 11016 014b 00       		.byte	0
 11017 014c 1D       		.uleb128 0x1d
 11018 014d 0D       		.uleb128 0xd
 11019 014e 00       		.byte	0
 11020 014f 03       		.uleb128 0x3
 11021 0150 0E       		.uleb128 0xe
 11022 0151 49       		.uleb128 0x49
 11023 0152 13       		.uleb128 0x13
 11024 0153 38       		.uleb128 0x38
 11025 0154 0B       		.uleb128 0xb
 11026 0155 34       		.uleb128 0x34
 11027 0156 19       		.uleb128 0x19
 11028 0157 00       		.byte	0
 11029 0158 00       		.byte	0
 11030 0159 1E       		.uleb128 0x1e
 11031 015a 04       		.uleb128 0x4
 11032 015b 01       		.byte	0x1
 11033 015c 03       		.uleb128 0x3
 11034 015d 0E       		.uleb128 0xe
 11035 015e 0B       		.uleb128 0xb
 11036 015f 0B       		.uleb128 0xb
 11037 0160 49       		.uleb128 0x49
 11038 0161 13       		.uleb128 0x13
 11039 0162 3A       		.uleb128 0x3a
 11040 0163 0B       		.uleb128 0xb
 11041 0164 3B       		.uleb128 0x3b
 11042 0165 0B       		.uleb128 0xb
 11043 0166 01       		.uleb128 0x1
 11044 0167 13       		.uleb128 0x13
 11045 0168 00       		.byte	0
 11046 0169 00       		.byte	0
 11047 016a 1F       		.uleb128 0x1f
 11048 016b 2E       		.uleb128 0x2e
 11049 016c 01       		.byte	0x1
 11050 016d 03       		.uleb128 0x3
 11051 016e 0E       		.uleb128 0xe
 11052 016f 3A       		.uleb128 0x3a
 11053 0170 0B       		.uleb128 0xb
 11054 0171 3B       		.uleb128 0x3b
 11055 0172 0B       		.uleb128 0xb
 11056 0173 27       		.uleb128 0x27
 11057 0174 19       		.uleb128 0x19
 11058 0175 20       		.uleb128 0x20
 11059 0176 0B       		.uleb128 0xb
 11060 0177 01       		.uleb128 0x1
 11061 0178 13       		.uleb128 0x13
 11062 0179 00       		.byte	0
 11063 017a 00       		.byte	0
 11064 017b 20       		.uleb128 0x20
 11065 017c 05       		.uleb128 0x5
 11066 017d 00       		.byte	0
ARM GAS  C:\Users\164\AppData\Local\Temp\ccvDnxKa.s 			page 234


 11067 017e 03       		.uleb128 0x3
 11068 017f 08       		.uleb128 0x8
 11069 0180 3A       		.uleb128 0x3a
 11070 0181 0B       		.uleb128 0xb
 11071 0182 3B       		.uleb128 0x3b
 11072 0183 0B       		.uleb128 0xb
 11073 0184 49       		.uleb128 0x49
 11074 0185 13       		.uleb128 0x13
 11075 0186 00       		.byte	0
 11076 0187 00       		.byte	0
 11077 0188 21       		.uleb128 0x21
 11078 0189 05       		.uleb128 0x5
 11079 018a 00       		.byte	0
 11080 018b 03       		.uleb128 0x3
 11081 018c 0E       		.uleb128 0xe
 11082 018d 3A       		.uleb128 0x3a
 11083 018e 0B       		.uleb128 0xb
 11084 018f 3B       		.uleb128 0x3b
 11085 0190 0B       		.uleb128 0xb
 11086 0191 49       		.uleb128 0x49
 11087 0192 13       		.uleb128 0x13
 11088 0193 00       		.byte	0
 11089 0194 00       		.byte	0
 11090 0195 22       		.uleb128 0x22
 11091 0196 34       		.uleb128 0x34
 11092 0197 00       		.byte	0
 11093 0198 03       		.uleb128 0x3
 11094 0199 08       		.uleb128 0x8
 11095 019a 3A       		.uleb128 0x3a
 11096 019b 0B       		.uleb128 0xb
 11097 019c 3B       		.uleb128 0x3b
 11098 019d 0B       		.uleb128 0xb
 11099 019e 49       		.uleb128 0x49
 11100 019f 13       		.uleb128 0x13
 11101 01a0 00       		.byte	0
 11102 01a1 00       		.byte	0
 11103 01a2 23       		.uleb128 0x23
 11104 01a3 2E       		.uleb128 0x2e
 11105 01a4 01       		.byte	0x1
 11106 01a5 03       		.uleb128 0x3
 11107 01a6 0E       		.uleb128 0xe
 11108 01a7 3A       		.uleb128 0x3a
 11109 01a8 0B       		.uleb128 0xb
 11110 01a9 3B       		.uleb128 0x3b
 11111 01aa 0B       		.uleb128 0xb
 11112 01ab 27       		.uleb128 0x27
 11113 01ac 19       		.uleb128 0x19
 11114 01ad 49       		.uleb128 0x49
 11115 01ae 13       		.uleb128 0x13
 11116 01af 20       		.uleb128 0x20
 11117 01b0 0B       		.uleb128 0xb
 11118 01b1 01       		.uleb128 0x1
 11119 01b2 13       		.uleb128 0x13
 11120 01b3 00       		.byte	0
 11121 01b4 00       		.byte	0
 11122 01b5 24       		.uleb128 0x24
 11123 01b6 2E       		.uleb128 0x2e
ARM GAS  C:\Users\164\AppData\Local\Temp\ccvDnxKa.s 			page 235


 11124 01b7 01       		.byte	0x1
 11125 01b8 03       		.uleb128 0x3
 11126 01b9 0E       		.uleb128 0xe
 11127 01ba 3A       		.uleb128 0x3a
 11128 01bb 0B       		.uleb128 0xb
 11129 01bc 3B       		.uleb128 0x3b
 11130 01bd 05       		.uleb128 0x5
 11131 01be 27       		.uleb128 0x27
 11132 01bf 19       		.uleb128 0x19
 11133 01c0 11       		.uleb128 0x11
 11134 01c1 01       		.uleb128 0x1
 11135 01c2 12       		.uleb128 0x12
 11136 01c3 06       		.uleb128 0x6
 11137 01c4 40       		.uleb128 0x40
 11138 01c5 18       		.uleb128 0x18
 11139 01c6 9742     		.uleb128 0x2117
 11140 01c8 19       		.uleb128 0x19
 11141 01c9 01       		.uleb128 0x1
 11142 01ca 13       		.uleb128 0x13
 11143 01cb 00       		.byte	0
 11144 01cc 00       		.byte	0
 11145 01cd 25       		.uleb128 0x25
 11146 01ce 05       		.uleb128 0x5
 11147 01cf 00       		.byte	0
 11148 01d0 03       		.uleb128 0x3
 11149 01d1 08       		.uleb128 0x8
 11150 01d2 3A       		.uleb128 0x3a
 11151 01d3 0B       		.uleb128 0xb
 11152 01d4 3B       		.uleb128 0x3b
 11153 01d5 05       		.uleb128 0x5
 11154 01d6 49       		.uleb128 0x49
 11155 01d7 13       		.uleb128 0x13
 11156 01d8 02       		.uleb128 0x2
 11157 01d9 18       		.uleb128 0x18
 11158 01da 00       		.byte	0
 11159 01db 00       		.byte	0
 11160 01dc 26       		.uleb128 0x26
 11161 01dd 05       		.uleb128 0x5
 11162 01de 00       		.byte	0
 11163 01df 03       		.uleb128 0x3
 11164 01e0 0E       		.uleb128 0xe
 11165 01e1 3A       		.uleb128 0x3a
 11166 01e2 0B       		.uleb128 0xb
 11167 01e3 3B       		.uleb128 0x3b
 11168 01e4 05       		.uleb128 0x5
 11169 01e5 49       		.uleb128 0x49
 11170 01e6 13       		.uleb128 0x13
 11171 01e7 02       		.uleb128 0x2
 11172 01e8 18       		.uleb128 0x18
 11173 01e9 00       		.byte	0
 11174 01ea 00       		.byte	0
 11175 01eb 27       		.uleb128 0x27
 11176 01ec 2E       		.uleb128 0x2e
 11177 01ed 01       		.byte	0x1
 11178 01ee 3F       		.uleb128 0x3f
 11179 01ef 19       		.uleb128 0x19
 11180 01f0 03       		.uleb128 0x3
ARM GAS  C:\Users\164\AppData\Local\Temp\ccvDnxKa.s 			page 236


 11181 01f1 0E       		.uleb128 0xe
 11182 01f2 3A       		.uleb128 0x3a
 11183 01f3 0B       		.uleb128 0xb
 11184 01f4 3B       		.uleb128 0x3b
 11185 01f5 05       		.uleb128 0x5
 11186 01f6 27       		.uleb128 0x27
 11187 01f7 19       		.uleb128 0x19
 11188 01f8 11       		.uleb128 0x11
 11189 01f9 01       		.uleb128 0x1
 11190 01fa 12       		.uleb128 0x12
 11191 01fb 06       		.uleb128 0x6
 11192 01fc 40       		.uleb128 0x40
 11193 01fd 18       		.uleb128 0x18
 11194 01fe 9742     		.uleb128 0x2117
 11195 0200 19       		.uleb128 0x19
 11196 0201 01       		.uleb128 0x1
 11197 0202 13       		.uleb128 0x13
 11198 0203 00       		.byte	0
 11199 0204 00       		.byte	0
 11200 0205 28       		.uleb128 0x28
 11201 0206 05       		.uleb128 0x5
 11202 0207 00       		.byte	0
 11203 0208 03       		.uleb128 0x3
 11204 0209 08       		.uleb128 0x8
 11205 020a 3A       		.uleb128 0x3a
 11206 020b 0B       		.uleb128 0xb
 11207 020c 3B       		.uleb128 0x3b
 11208 020d 05       		.uleb128 0x5
 11209 020e 49       		.uleb128 0x49
 11210 020f 13       		.uleb128 0x13
 11211 0210 02       		.uleb128 0x2
 11212 0211 17       		.uleb128 0x17
 11213 0212 00       		.byte	0
 11214 0213 00       		.byte	0
 11215 0214 29       		.uleb128 0x29
 11216 0215 05       		.uleb128 0x5
 11217 0216 00       		.byte	0
 11218 0217 03       		.uleb128 0x3
 11219 0218 0E       		.uleb128 0xe
 11220 0219 3A       		.uleb128 0x3a
 11221 021a 0B       		.uleb128 0xb
 11222 021b 3B       		.uleb128 0x3b
 11223 021c 05       		.uleb128 0x5
 11224 021d 49       		.uleb128 0x49
 11225 021e 13       		.uleb128 0x13
 11226 021f 02       		.uleb128 0x2
 11227 0220 17       		.uleb128 0x17
 11228 0221 00       		.byte	0
 11229 0222 00       		.byte	0
 11230 0223 2A       		.uleb128 0x2a
 11231 0224 898201   		.uleb128 0x4109
 11232 0227 01       		.byte	0x1
 11233 0228 11       		.uleb128 0x11
 11234 0229 01       		.uleb128 0x1
 11235 022a 31       		.uleb128 0x31
 11236 022b 13       		.uleb128 0x13
 11237 022c 00       		.byte	0
ARM GAS  C:\Users\164\AppData\Local\Temp\ccvDnxKa.s 			page 237


 11238 022d 00       		.byte	0
 11239 022e 2B       		.uleb128 0x2b
 11240 022f 8A8201   		.uleb128 0x410a
 11241 0232 00       		.byte	0
 11242 0233 02       		.uleb128 0x2
 11243 0234 18       		.uleb128 0x18
 11244 0235 9142     		.uleb128 0x2111
 11245 0237 18       		.uleb128 0x18
 11246 0238 00       		.byte	0
 11247 0239 00       		.byte	0
 11248 023a 2C       		.uleb128 0x2c
 11249 023b 34       		.uleb128 0x34
 11250 023c 00       		.byte	0
 11251 023d 03       		.uleb128 0x3
 11252 023e 08       		.uleb128 0x8
 11253 023f 3A       		.uleb128 0x3a
 11254 0240 0B       		.uleb128 0xb
 11255 0241 3B       		.uleb128 0x3b
 11256 0242 05       		.uleb128 0x5
 11257 0243 49       		.uleb128 0x49
 11258 0244 13       		.uleb128 0x13
 11259 0245 02       		.uleb128 0x2
 11260 0246 18       		.uleb128 0x18
 11261 0247 00       		.byte	0
 11262 0248 00       		.byte	0
 11263 0249 2D       		.uleb128 0x2d
 11264 024a 1D       		.uleb128 0x1d
 11265 024b 01       		.byte	0x1
 11266 024c 31       		.uleb128 0x31
 11267 024d 13       		.uleb128 0x13
 11268 024e 11       		.uleb128 0x11
 11269 024f 01       		.uleb128 0x1
 11270 0250 12       		.uleb128 0x12
 11271 0251 06       		.uleb128 0x6
 11272 0252 58       		.uleb128 0x58
 11273 0253 0B       		.uleb128 0xb
 11274 0254 59       		.uleb128 0x59
 11275 0255 05       		.uleb128 0x5
 11276 0256 01       		.uleb128 0x1
 11277 0257 13       		.uleb128 0x13
 11278 0258 00       		.byte	0
 11279 0259 00       		.byte	0
 11280 025a 2E       		.uleb128 0x2e
 11281 025b 05       		.uleb128 0x5
 11282 025c 00       		.byte	0
 11283 025d 31       		.uleb128 0x31
 11284 025e 13       		.uleb128 0x13
 11285 025f 02       		.uleb128 0x2
 11286 0260 18       		.uleb128 0x18
 11287 0261 00       		.byte	0
 11288 0262 00       		.byte	0
 11289 0263 2F       		.uleb128 0x2f
 11290 0264 05       		.uleb128 0x5
 11291 0265 00       		.byte	0
 11292 0266 31       		.uleb128 0x31
 11293 0267 13       		.uleb128 0x13
 11294 0268 1C       		.uleb128 0x1c
ARM GAS  C:\Users\164\AppData\Local\Temp\ccvDnxKa.s 			page 238


 11295 0269 0B       		.uleb128 0xb
 11296 026a 00       		.byte	0
 11297 026b 00       		.byte	0
 11298 026c 30       		.uleb128 0x30
 11299 026d 05       		.uleb128 0x5
 11300 026e 00       		.byte	0
 11301 026f 31       		.uleb128 0x31
 11302 0270 13       		.uleb128 0x13
 11303 0271 02       		.uleb128 0x2
 11304 0272 17       		.uleb128 0x17
 11305 0273 00       		.byte	0
 11306 0274 00       		.byte	0
 11307 0275 31       		.uleb128 0x31
 11308 0276 0B       		.uleb128 0xb
 11309 0277 01       		.byte	0x1
 11310 0278 11       		.uleb128 0x11
 11311 0279 01       		.uleb128 0x1
 11312 027a 12       		.uleb128 0x12
 11313 027b 06       		.uleb128 0x6
 11314 027c 01       		.uleb128 0x1
 11315 027d 13       		.uleb128 0x13
 11316 027e 00       		.byte	0
 11317 027f 00       		.byte	0
 11318 0280 32       		.uleb128 0x32
 11319 0281 898201   		.uleb128 0x4109
 11320 0284 01       		.byte	0x1
 11321 0285 11       		.uleb128 0x11
 11322 0286 01       		.uleb128 0x1
 11323 0287 31       		.uleb128 0x31
 11324 0288 13       		.uleb128 0x13
 11325 0289 01       		.uleb128 0x1
 11326 028a 13       		.uleb128 0x13
 11327 028b 00       		.byte	0
 11328 028c 00       		.byte	0
 11329 028d 33       		.uleb128 0x33
 11330 028e 34       		.uleb128 0x34
 11331 028f 00       		.byte	0
 11332 0290 03       		.uleb128 0x3
 11333 0291 08       		.uleb128 0x8
 11334 0292 3A       		.uleb128 0x3a
 11335 0293 0B       		.uleb128 0xb
 11336 0294 3B       		.uleb128 0x3b
 11337 0295 05       		.uleb128 0x5
 11338 0296 49       		.uleb128 0x49
 11339 0297 13       		.uleb128 0x13
 11340 0298 02       		.uleb128 0x2
 11341 0299 17       		.uleb128 0x17
 11342 029a 00       		.byte	0
 11343 029b 00       		.byte	0
 11344 029c 34       		.uleb128 0x34
 11345 029d 898201   		.uleb128 0x4109
 11346 02a0 00       		.byte	0
 11347 02a1 11       		.uleb128 0x11
 11348 02a2 01       		.uleb128 0x1
 11349 02a3 31       		.uleb128 0x31
 11350 02a4 13       		.uleb128 0x13
 11351 02a5 00       		.byte	0
ARM GAS  C:\Users\164\AppData\Local\Temp\ccvDnxKa.s 			page 239


 11352 02a6 00       		.byte	0
 11353 02a7 35       		.uleb128 0x35
 11354 02a8 34       		.uleb128 0x34
 11355 02a9 00       		.byte	0
 11356 02aa 03       		.uleb128 0x3
 11357 02ab 0E       		.uleb128 0xe
 11358 02ac 3A       		.uleb128 0x3a
 11359 02ad 0B       		.uleb128 0xb
 11360 02ae 3B       		.uleb128 0x3b
 11361 02af 05       		.uleb128 0x5
 11362 02b0 49       		.uleb128 0x49
 11363 02b1 13       		.uleb128 0x13
 11364 02b2 02       		.uleb128 0x2
 11365 02b3 17       		.uleb128 0x17
 11366 02b4 00       		.byte	0
 11367 02b5 00       		.byte	0
 11368 02b6 36       		.uleb128 0x36
 11369 02b7 0A       		.uleb128 0xa
 11370 02b8 00       		.byte	0
 11371 02b9 03       		.uleb128 0x3
 11372 02ba 0E       		.uleb128 0xe
 11373 02bb 3A       		.uleb128 0x3a
 11374 02bc 0B       		.uleb128 0xb
 11375 02bd 3B       		.uleb128 0x3b
 11376 02be 05       		.uleb128 0x5
 11377 02bf 11       		.uleb128 0x11
 11378 02c0 01       		.uleb128 0x1
 11379 02c1 00       		.byte	0
 11380 02c2 00       		.byte	0
 11381 02c3 37       		.uleb128 0x37
 11382 02c4 34       		.uleb128 0x34
 11383 02c5 00       		.byte	0
 11384 02c6 03       		.uleb128 0x3
 11385 02c7 0E       		.uleb128 0xe
 11386 02c8 3A       		.uleb128 0x3a
 11387 02c9 0B       		.uleb128 0xb
 11388 02ca 3B       		.uleb128 0x3b
 11389 02cb 05       		.uleb128 0x5
 11390 02cc 49       		.uleb128 0x49
 11391 02cd 13       		.uleb128 0x13
 11392 02ce 02       		.uleb128 0x2
 11393 02cf 18       		.uleb128 0x18
 11394 02d0 00       		.byte	0
 11395 02d1 00       		.byte	0
 11396 02d2 38       		.uleb128 0x38
 11397 02d3 0B       		.uleb128 0xb
 11398 02d4 01       		.byte	0x1
 11399 02d5 11       		.uleb128 0x11
 11400 02d6 01       		.uleb128 0x1
 11401 02d7 12       		.uleb128 0x12
 11402 02d8 06       		.uleb128 0x6
 11403 02d9 00       		.byte	0
 11404 02da 00       		.byte	0
 11405 02db 39       		.uleb128 0x39
 11406 02dc 34       		.uleb128 0x34
 11407 02dd 00       		.byte	0
 11408 02de 31       		.uleb128 0x31
ARM GAS  C:\Users\164\AppData\Local\Temp\ccvDnxKa.s 			page 240


 11409 02df 13       		.uleb128 0x13
 11410 02e0 02       		.uleb128 0x2
 11411 02e1 17       		.uleb128 0x17
 11412 02e2 00       		.byte	0
 11413 02e3 00       		.byte	0
 11414 02e4 3A       		.uleb128 0x3a
 11415 02e5 34       		.uleb128 0x34
 11416 02e6 00       		.byte	0
 11417 02e7 03       		.uleb128 0x3
 11418 02e8 0E       		.uleb128 0xe
 11419 02e9 3A       		.uleb128 0x3a
 11420 02ea 0B       		.uleb128 0xb
 11421 02eb 3B       		.uleb128 0x3b
 11422 02ec 05       		.uleb128 0x5
 11423 02ed 49       		.uleb128 0x49
 11424 02ee 13       		.uleb128 0x13
 11425 02ef 3F       		.uleb128 0x3f
 11426 02f0 19       		.uleb128 0x19
 11427 02f1 3C       		.uleb128 0x3c
 11428 02f2 19       		.uleb128 0x19
 11429 02f3 00       		.byte	0
 11430 02f4 00       		.byte	0
 11431 02f5 3B       		.uleb128 0x3b
 11432 02f6 21       		.uleb128 0x21
 11433 02f7 00       		.byte	0
 11434 02f8 00       		.byte	0
 11435 02f9 00       		.byte	0
 11436 02fa 3C       		.uleb128 0x3c
 11437 02fb 2E       		.uleb128 0x2e
 11438 02fc 01       		.byte	0x1
 11439 02fd 3F       		.uleb128 0x3f
 11440 02fe 19       		.uleb128 0x19
 11441 02ff 03       		.uleb128 0x3
 11442 0300 0E       		.uleb128 0xe
 11443 0301 3A       		.uleb128 0x3a
 11444 0302 0B       		.uleb128 0xb
 11445 0303 3B       		.uleb128 0x3b
 11446 0304 0B       		.uleb128 0xb
 11447 0305 27       		.uleb128 0x27
 11448 0306 19       		.uleb128 0x19
 11449 0307 49       		.uleb128 0x49
 11450 0308 13       		.uleb128 0x13
 11451 0309 11       		.uleb128 0x11
 11452 030a 01       		.uleb128 0x1
 11453 030b 12       		.uleb128 0x12
 11454 030c 06       		.uleb128 0x6
 11455 030d 40       		.uleb128 0x40
 11456 030e 18       		.uleb128 0x18
 11457 030f 9742     		.uleb128 0x2117
 11458 0311 19       		.uleb128 0x19
 11459 0312 01       		.uleb128 0x1
 11460 0313 13       		.uleb128 0x13
 11461 0314 00       		.byte	0
 11462 0315 00       		.byte	0
 11463 0316 3D       		.uleb128 0x3d
 11464 0317 05       		.uleb128 0x5
 11465 0318 00       		.byte	0
ARM GAS  C:\Users\164\AppData\Local\Temp\ccvDnxKa.s 			page 241


 11466 0319 03       		.uleb128 0x3
 11467 031a 08       		.uleb128 0x8
 11468 031b 3A       		.uleb128 0x3a
 11469 031c 0B       		.uleb128 0xb
 11470 031d 3B       		.uleb128 0x3b
 11471 031e 0B       		.uleb128 0xb
 11472 031f 49       		.uleb128 0x49
 11473 0320 13       		.uleb128 0x13
 11474 0321 02       		.uleb128 0x2
 11475 0322 17       		.uleb128 0x17
 11476 0323 00       		.byte	0
 11477 0324 00       		.byte	0
 11478 0325 3E       		.uleb128 0x3e
 11479 0326 05       		.uleb128 0x5
 11480 0327 00       		.byte	0
 11481 0328 03       		.uleb128 0x3
 11482 0329 08       		.uleb128 0x8
 11483 032a 3A       		.uleb128 0x3a
 11484 032b 0B       		.uleb128 0xb
 11485 032c 3B       		.uleb128 0x3b
 11486 032d 0B       		.uleb128 0xb
 11487 032e 49       		.uleb128 0x49
 11488 032f 13       		.uleb128 0x13
 11489 0330 02       		.uleb128 0x2
 11490 0331 18       		.uleb128 0x18
 11491 0332 00       		.byte	0
 11492 0333 00       		.byte	0
 11493 0334 3F       		.uleb128 0x3f
 11494 0335 34       		.uleb128 0x34
 11495 0336 00       		.byte	0
 11496 0337 03       		.uleb128 0x3
 11497 0338 08       		.uleb128 0x8
 11498 0339 3A       		.uleb128 0x3a
 11499 033a 0B       		.uleb128 0xb
 11500 033b 3B       		.uleb128 0x3b
 11501 033c 0B       		.uleb128 0xb
 11502 033d 49       		.uleb128 0x49
 11503 033e 13       		.uleb128 0x13
 11504 033f 02       		.uleb128 0x2
 11505 0340 17       		.uleb128 0x17
 11506 0341 00       		.byte	0
 11507 0342 00       		.byte	0
 11508 0343 40       		.uleb128 0x40
 11509 0344 2E       		.uleb128 0x2e
 11510 0345 01       		.byte	0x1
 11511 0346 03       		.uleb128 0x3
 11512 0347 0E       		.uleb128 0xe
 11513 0348 3A       		.uleb128 0x3a
 11514 0349 0B       		.uleb128 0xb
 11515 034a 3B       		.uleb128 0x3b
 11516 034b 0B       		.uleb128 0xb
 11517 034c 27       		.uleb128 0x27
 11518 034d 19       		.uleb128 0x19
 11519 034e 49       		.uleb128 0x49
 11520 034f 13       		.uleb128 0x13
 11521 0350 11       		.uleb128 0x11
 11522 0351 01       		.uleb128 0x1
ARM GAS  C:\Users\164\AppData\Local\Temp\ccvDnxKa.s 			page 242


 11523 0352 12       		.uleb128 0x12
 11524 0353 06       		.uleb128 0x6
 11525 0354 40       		.uleb128 0x40
 11526 0355 18       		.uleb128 0x18
 11527 0356 9742     		.uleb128 0x2117
 11528 0358 19       		.uleb128 0x19
 11529 0359 01       		.uleb128 0x1
 11530 035a 13       		.uleb128 0x13
 11531 035b 00       		.byte	0
 11532 035c 00       		.byte	0
 11533 035d 41       		.uleb128 0x41
 11534 035e 1D       		.uleb128 0x1d
 11535 035f 01       		.byte	0x1
 11536 0360 31       		.uleb128 0x31
 11537 0361 13       		.uleb128 0x13
 11538 0362 11       		.uleb128 0x11
 11539 0363 01       		.uleb128 0x1
 11540 0364 12       		.uleb128 0x12
 11541 0365 06       		.uleb128 0x6
 11542 0366 58       		.uleb128 0x58
 11543 0367 0B       		.uleb128 0xb
 11544 0368 59       		.uleb128 0x59
 11545 0369 0B       		.uleb128 0xb
 11546 036a 01       		.uleb128 0x1
 11547 036b 13       		.uleb128 0x13
 11548 036c 00       		.byte	0
 11549 036d 00       		.byte	0
 11550 036e 42       		.uleb128 0x42
 11551 036f 34       		.uleb128 0x34
 11552 0370 00       		.byte	0
 11553 0371 03       		.uleb128 0x3
 11554 0372 08       		.uleb128 0x8
 11555 0373 3A       		.uleb128 0x3a
 11556 0374 0B       		.uleb128 0xb
 11557 0375 3B       		.uleb128 0x3b
 11558 0376 0B       		.uleb128 0xb
 11559 0377 49       		.uleb128 0x49
 11560 0378 13       		.uleb128 0x13
 11561 0379 02       		.uleb128 0x2
 11562 037a 18       		.uleb128 0x18
 11563 037b 00       		.byte	0
 11564 037c 00       		.byte	0
 11565 037d 43       		.uleb128 0x43
 11566 037e 1D       		.uleb128 0x1d
 11567 037f 01       		.byte	0x1
 11568 0380 31       		.uleb128 0x31
 11569 0381 13       		.uleb128 0x13
 11570 0382 11       		.uleb128 0x11
 11571 0383 01       		.uleb128 0x1
 11572 0384 12       		.uleb128 0x12
 11573 0385 06       		.uleb128 0x6
 11574 0386 58       		.uleb128 0x58
 11575 0387 0B       		.uleb128 0xb
 11576 0388 59       		.uleb128 0x59
 11577 0389 0B       		.uleb128 0xb
 11578 038a 00       		.byte	0
 11579 038b 00       		.byte	0
ARM GAS  C:\Users\164\AppData\Local\Temp\ccvDnxKa.s 			page 243


 11580 038c 44       		.uleb128 0x44
 11581 038d 05       		.uleb128 0x5
 11582 038e 00       		.byte	0
 11583 038f 31       		.uleb128 0x31
 11584 0390 13       		.uleb128 0x13
 11585 0391 00       		.byte	0
 11586 0392 00       		.byte	0
 11587 0393 45       		.uleb128 0x45
 11588 0394 34       		.uleb128 0x34
 11589 0395 00       		.byte	0
 11590 0396 31       		.uleb128 0x31
 11591 0397 13       		.uleb128 0x13
 11592 0398 02       		.uleb128 0x2
 11593 0399 18       		.uleb128 0x18
 11594 039a 00       		.byte	0
 11595 039b 00       		.byte	0
 11596 039c 46       		.uleb128 0x46
 11597 039d 0B       		.uleb128 0xb
 11598 039e 01       		.byte	0x1
 11599 039f 55       		.uleb128 0x55
 11600 03a0 17       		.uleb128 0x17
 11601 03a1 01       		.uleb128 0x1
 11602 03a2 13       		.uleb128 0x13
 11603 03a3 00       		.byte	0
 11604 03a4 00       		.byte	0
 11605 03a5 47       		.uleb128 0x47
 11606 03a6 05       		.uleb128 0x5
 11607 03a7 00       		.byte	0
 11608 03a8 03       		.uleb128 0x3
 11609 03a9 0E       		.uleb128 0xe
 11610 03aa 3A       		.uleb128 0x3a
 11611 03ab 0B       		.uleb128 0xb
 11612 03ac 3B       		.uleb128 0x3b
 11613 03ad 0B       		.uleb128 0xb
 11614 03ae 49       		.uleb128 0x49
 11615 03af 13       		.uleb128 0x13
 11616 03b0 02       		.uleb128 0x2
 11617 03b1 17       		.uleb128 0x17
 11618 03b2 00       		.byte	0
 11619 03b3 00       		.byte	0
 11620 03b4 48       		.uleb128 0x48
 11621 03b5 34       		.uleb128 0x34
 11622 03b6 00       		.byte	0
 11623 03b7 03       		.uleb128 0x3
 11624 03b8 0E       		.uleb128 0xe
 11625 03b9 3A       		.uleb128 0x3a
 11626 03ba 0B       		.uleb128 0xb
 11627 03bb 3B       		.uleb128 0x3b
 11628 03bc 0B       		.uleb128 0xb
 11629 03bd 49       		.uleb128 0x49
 11630 03be 13       		.uleb128 0x13
 11631 03bf 02       		.uleb128 0x2
 11632 03c0 17       		.uleb128 0x17
 11633 03c1 00       		.byte	0
 11634 03c2 00       		.byte	0
 11635 03c3 49       		.uleb128 0x49
 11636 03c4 2E       		.uleb128 0x2e
ARM GAS  C:\Users\164\AppData\Local\Temp\ccvDnxKa.s 			page 244


 11637 03c5 01       		.byte	0x1
 11638 03c6 3F       		.uleb128 0x3f
 11639 03c7 19       		.uleb128 0x19
 11640 03c8 03       		.uleb128 0x3
 11641 03c9 0E       		.uleb128 0xe
 11642 03ca 3A       		.uleb128 0x3a
 11643 03cb 0B       		.uleb128 0xb
 11644 03cc 3B       		.uleb128 0x3b
 11645 03cd 05       		.uleb128 0x5
 11646 03ce 27       		.uleb128 0x27
 11647 03cf 19       		.uleb128 0x19
 11648 03d0 49       		.uleb128 0x49
 11649 03d1 13       		.uleb128 0x13
 11650 03d2 11       		.uleb128 0x11
 11651 03d3 01       		.uleb128 0x1
 11652 03d4 12       		.uleb128 0x12
 11653 03d5 06       		.uleb128 0x6
 11654 03d6 40       		.uleb128 0x40
 11655 03d7 18       		.uleb128 0x18
 11656 03d8 9742     		.uleb128 0x2117
 11657 03da 19       		.uleb128 0x19
 11658 03db 01       		.uleb128 0x1
 11659 03dc 13       		.uleb128 0x13
 11660 03dd 00       		.byte	0
 11661 03de 00       		.byte	0
 11662 03df 4A       		.uleb128 0x4a
 11663 03e0 34       		.uleb128 0x34
 11664 03e1 00       		.byte	0
 11665 03e2 03       		.uleb128 0x3
 11666 03e3 0E       		.uleb128 0xe
 11667 03e4 49       		.uleb128 0x49
 11668 03e5 13       		.uleb128 0x13
 11669 03e6 34       		.uleb128 0x34
 11670 03e7 19       		.uleb128 0x19
 11671 03e8 02       		.uleb128 0x2
 11672 03e9 18       		.uleb128 0x18
 11673 03ea 00       		.byte	0
 11674 03eb 00       		.byte	0
 11675 03ec 4B       		.uleb128 0x4b
 11676 03ed 34       		.uleb128 0x34
 11677 03ee 00       		.byte	0
 11678 03ef 03       		.uleb128 0x3
 11679 03f0 0E       		.uleb128 0xe
 11680 03f1 3A       		.uleb128 0x3a
 11681 03f2 0B       		.uleb128 0xb
 11682 03f3 3B       		.uleb128 0x3b
 11683 03f4 05       		.uleb128 0x5
 11684 03f5 49       		.uleb128 0x49
 11685 03f6 13       		.uleb128 0x13
 11686 03f7 00       		.byte	0
 11687 03f8 00       		.byte	0
 11688 03f9 4C       		.uleb128 0x4c
 11689 03fa 18       		.uleb128 0x18
 11690 03fb 00       		.byte	0
 11691 03fc 00       		.byte	0
 11692 03fd 00       		.byte	0
 11693 03fe 4D       		.uleb128 0x4d
ARM GAS  C:\Users\164\AppData\Local\Temp\ccvDnxKa.s 			page 245


 11694 03ff 898201   		.uleb128 0x4109
 11695 0402 01       		.byte	0x1
 11696 0403 11       		.uleb128 0x11
 11697 0404 01       		.uleb128 0x1
 11698 0405 00       		.byte	0
 11699 0406 00       		.byte	0
 11700 0407 4E       		.uleb128 0x4e
 11701 0408 34       		.uleb128 0x34
 11702 0409 00       		.byte	0
 11703 040a 03       		.uleb128 0x3
 11704 040b 0E       		.uleb128 0xe
 11705 040c 3A       		.uleb128 0x3a
 11706 040d 0B       		.uleb128 0xb
 11707 040e 3B       		.uleb128 0x3b
 11708 040f 0B       		.uleb128 0xb
 11709 0410 49       		.uleb128 0x49
 11710 0411 13       		.uleb128 0x13
 11711 0412 3F       		.uleb128 0x3f
 11712 0413 19       		.uleb128 0x19
 11713 0414 3C       		.uleb128 0x3c
 11714 0415 19       		.uleb128 0x19
 11715 0416 00       		.byte	0
 11716 0417 00       		.byte	0
 11717 0418 4F       		.uleb128 0x4f
 11718 0419 2E       		.uleb128 0x2e
 11719 041a 00       		.byte	0
 11720 041b 3F       		.uleb128 0x3f
 11721 041c 19       		.uleb128 0x19
 11722 041d 3C       		.uleb128 0x3c
 11723 041e 19       		.uleb128 0x19
 11724 041f 6E       		.uleb128 0x6e
 11725 0420 0E       		.uleb128 0xe
 11726 0421 03       		.uleb128 0x3
 11727 0422 0E       		.uleb128 0xe
 11728 0423 3A       		.uleb128 0x3a
 11729 0424 0B       		.uleb128 0xb
 11730 0425 3B       		.uleb128 0x3b
 11731 0426 0B       		.uleb128 0xb
 11732 0427 00       		.byte	0
 11733 0428 00       		.byte	0
 11734 0429 50       		.uleb128 0x50
 11735 042a 2E       		.uleb128 0x2e
 11736 042b 00       		.byte	0
 11737 042c 3F       		.uleb128 0x3f
 11738 042d 19       		.uleb128 0x19
 11739 042e 3C       		.uleb128 0x3c
 11740 042f 19       		.uleb128 0x19
 11741 0430 6E       		.uleb128 0x6e
 11742 0431 0E       		.uleb128 0xe
 11743 0432 03       		.uleb128 0x3
 11744 0433 0E       		.uleb128 0xe
 11745 0434 3A       		.uleb128 0x3a
 11746 0435 0B       		.uleb128 0xb
 11747 0436 3B       		.uleb128 0x3b
 11748 0437 0B       		.uleb128 0xb
 11749 0438 6E       		.uleb128 0x6e
 11750 0439 0E       		.uleb128 0xe
ARM GAS  C:\Users\164\AppData\Local\Temp\ccvDnxKa.s 			page 246


 11751 043a 00       		.byte	0
 11752 043b 00       		.byte	0
 11753 043c 00       		.byte	0
 11754              		.section	.debug_loc,"",%progbits
 11755              	.Ldebug_loc0:
 11756              	.LLST0:
 11757 0000 00000000 		.4byte	.LVL2
 11758 0004 0B000000 		.4byte	.LVL4-1
 11759 0008 0100     		.2byte	0x1
 11760 000a 50       		.byte	0x50
 11761 000b 0B000000 		.4byte	.LVL4-1
 11762 000f 1C000000 		.4byte	.LFE121
 11763 0013 0100     		.2byte	0x1
 11764 0015 54       		.byte	0x54
 11765 0016 00000000 		.4byte	0
 11766 001a 00000000 		.4byte	0
 11767              	.LLST1:
 11768 001e 00000000 		.4byte	.LVL2
 11769 0022 08000000 		.4byte	.LVL3
 11770 0026 0100     		.2byte	0x1
 11771 0028 51       		.byte	0x51
 11772 0029 08000000 		.4byte	.LVL3
 11773 002d 1C000000 		.4byte	.LFE121
 11774 0031 0100     		.2byte	0x1
 11775 0033 55       		.byte	0x55
 11776 0034 00000000 		.4byte	0
 11777 0038 00000000 		.4byte	0
 11778              	.LLST2:
 11779 003c 00000000 		.4byte	.LVL2
 11780 0040 0B000000 		.4byte	.LVL4-1
 11781 0044 0100     		.2byte	0x1
 11782 0046 52       		.byte	0x52
 11783 0047 0B000000 		.4byte	.LVL4-1
 11784 004b 1C000000 		.4byte	.LFE121
 11785 004f 0400     		.2byte	0x4
 11786 0051 F3       		.byte	0xf3
 11787 0052 01       		.uleb128 0x1
 11788 0053 52       		.byte	0x52
 11789 0054 9F       		.byte	0x9f
 11790 0055 00000000 		.4byte	0
 11791 0059 00000000 		.4byte	0
 11792              	.LLST3:
 11793 005d 00000000 		.4byte	.LVL5
 11794 0061 0C000000 		.4byte	.LVL8
 11795 0065 0100     		.2byte	0x1
 11796 0067 50       		.byte	0x50
 11797 0068 0C000000 		.4byte	.LVL8
 11798 006c 0F000000 		.4byte	.LVL9-1
 11799 0070 0100     		.2byte	0x1
 11800 0072 51       		.byte	0x51
 11801 0073 0F000000 		.4byte	.LVL9-1
 11802 0077 20000000 		.4byte	.LFE125
 11803 007b 0400     		.2byte	0x4
 11804 007d F3       		.byte	0xf3
 11805 007e 01       		.uleb128 0x1
 11806 007f 50       		.byte	0x50
 11807 0080 9F       		.byte	0x9f
ARM GAS  C:\Users\164\AppData\Local\Temp\ccvDnxKa.s 			page 247


 11808 0081 00000000 		.4byte	0
 11809 0085 00000000 		.4byte	0
 11810              	.LLST4:
 11811 0089 00000000 		.4byte	.LVL5
 11812 008d 0A000000 		.4byte	.LVL7
 11813 0091 0100     		.2byte	0x1
 11814 0093 51       		.byte	0x51
 11815 0094 0A000000 		.4byte	.LVL7
 11816 0098 1C000000 		.4byte	.LVL10
 11817 009c 0100     		.2byte	0x1
 11818 009e 55       		.byte	0x55
 11819 009f 1C000000 		.4byte	.LVL10
 11820 00a3 20000000 		.4byte	.LFE125
 11821 00a7 0400     		.2byte	0x4
 11822 00a9 F3       		.byte	0xf3
 11823 00aa 01       		.uleb128 0x1
 11824 00ab 51       		.byte	0x51
 11825 00ac 9F       		.byte	0x9f
 11826 00ad 00000000 		.4byte	0
 11827 00b1 00000000 		.4byte	0
 11828              	.LLST5:
 11829 00b5 00000000 		.4byte	.LVL5
 11830 00b9 08000000 		.4byte	.LVL6
 11831 00bd 0100     		.2byte	0x1
 11832 00bf 52       		.byte	0x52
 11833 00c0 08000000 		.4byte	.LVL6
 11834 00c4 20000000 		.4byte	.LFE125
 11835 00c8 0400     		.2byte	0x4
 11836 00ca F3       		.byte	0xf3
 11837 00cb 01       		.uleb128 0x1
 11838 00cc 52       		.byte	0x52
 11839 00cd 9F       		.byte	0x9f
 11840 00ce 00000000 		.4byte	0
 11841 00d2 00000000 		.4byte	0
 11842              	.LLST6:
 11843 00d6 00000000 		.4byte	.LVL11
 11844 00da 0C000000 		.4byte	.LVL14
 11845 00de 0100     		.2byte	0x1
 11846 00e0 50       		.byte	0x50
 11847 00e1 0C000000 		.4byte	.LVL14
 11848 00e5 0F000000 		.4byte	.LVL15-1
 11849 00e9 0100     		.2byte	0x1
 11850 00eb 51       		.byte	0x51
 11851 00ec 0F000000 		.4byte	.LVL15-1
 11852 00f0 20000000 		.4byte	.LFE128
 11853 00f4 0400     		.2byte	0x4
 11854 00f6 F3       		.byte	0xf3
 11855 00f7 01       		.uleb128 0x1
 11856 00f8 50       		.byte	0x50
 11857 00f9 9F       		.byte	0x9f
 11858 00fa 00000000 		.4byte	0
 11859 00fe 00000000 		.4byte	0
 11860              	.LLST7:
 11861 0102 00000000 		.4byte	.LVL11
 11862 0106 0A000000 		.4byte	.LVL13
 11863 010a 0100     		.2byte	0x1
 11864 010c 51       		.byte	0x51
ARM GAS  C:\Users\164\AppData\Local\Temp\ccvDnxKa.s 			page 248


 11865 010d 0A000000 		.4byte	.LVL13
 11866 0111 1C000000 		.4byte	.LVL16
 11867 0115 0100     		.2byte	0x1
 11868 0117 55       		.byte	0x55
 11869 0118 1C000000 		.4byte	.LVL16
 11870 011c 20000000 		.4byte	.LFE128
 11871 0120 0400     		.2byte	0x4
 11872 0122 F3       		.byte	0xf3
 11873 0123 01       		.uleb128 0x1
 11874 0124 51       		.byte	0x51
 11875 0125 9F       		.byte	0x9f
 11876 0126 00000000 		.4byte	0
 11877 012a 00000000 		.4byte	0
 11878              	.LLST8:
 11879 012e 00000000 		.4byte	.LVL11
 11880 0132 08000000 		.4byte	.LVL12
 11881 0136 0100     		.2byte	0x1
 11882 0138 52       		.byte	0x52
 11883 0139 08000000 		.4byte	.LVL12
 11884 013d 20000000 		.4byte	.LFE128
 11885 0141 0400     		.2byte	0x4
 11886 0143 F3       		.byte	0xf3
 11887 0144 01       		.uleb128 0x1
 11888 0145 52       		.byte	0x52
 11889 0146 9F       		.byte	0x9f
 11890 0147 00000000 		.4byte	0
 11891 014b 00000000 		.4byte	0
 11892              	.LLST9:
 11893 014f 00000000 		.4byte	.LVL17
 11894 0153 0C000000 		.4byte	.LVL20
 11895 0157 0100     		.2byte	0x1
 11896 0159 50       		.byte	0x50
 11897 015a 0C000000 		.4byte	.LVL20
 11898 015e 0F000000 		.4byte	.LVL21-1
 11899 0162 0100     		.2byte	0x1
 11900 0164 51       		.byte	0x51
 11901 0165 0F000000 		.4byte	.LVL21-1
 11902 0169 20000000 		.4byte	.LFE130
 11903 016d 0400     		.2byte	0x4
 11904 016f F3       		.byte	0xf3
 11905 0170 01       		.uleb128 0x1
 11906 0171 50       		.byte	0x50
 11907 0172 9F       		.byte	0x9f
 11908 0173 00000000 		.4byte	0
 11909 0177 00000000 		.4byte	0
 11910              	.LLST10:
 11911 017b 00000000 		.4byte	.LVL17
 11912 017f 0A000000 		.4byte	.LVL19
 11913 0183 0100     		.2byte	0x1
 11914 0185 51       		.byte	0x51
 11915 0186 0A000000 		.4byte	.LVL19
 11916 018a 1C000000 		.4byte	.LVL22
 11917 018e 0100     		.2byte	0x1
 11918 0190 55       		.byte	0x55
 11919 0191 1C000000 		.4byte	.LVL22
 11920 0195 20000000 		.4byte	.LFE130
 11921 0199 0400     		.2byte	0x4
ARM GAS  C:\Users\164\AppData\Local\Temp\ccvDnxKa.s 			page 249


 11922 019b F3       		.byte	0xf3
 11923 019c 01       		.uleb128 0x1
 11924 019d 51       		.byte	0x51
 11925 019e 9F       		.byte	0x9f
 11926 019f 00000000 		.4byte	0
 11927 01a3 00000000 		.4byte	0
 11928              	.LLST11:
 11929 01a7 00000000 		.4byte	.LVL17
 11930 01ab 08000000 		.4byte	.LVL18
 11931 01af 0100     		.2byte	0x1
 11932 01b1 52       		.byte	0x52
 11933 01b2 08000000 		.4byte	.LVL18
 11934 01b6 20000000 		.4byte	.LFE130
 11935 01ba 0400     		.2byte	0x4
 11936 01bc F3       		.byte	0xf3
 11937 01bd 01       		.uleb128 0x1
 11938 01be 52       		.byte	0x52
 11939 01bf 9F       		.byte	0x9f
 11940 01c0 00000000 		.4byte	0
 11941 01c4 00000000 		.4byte	0
 11942              	.LLST12:
 11943 01c8 00000000 		.4byte	.LVL23
 11944 01cc 06000000 		.4byte	.LVL24
 11945 01d0 0100     		.2byte	0x1
 11946 01d2 50       		.byte	0x50
 11947 01d3 06000000 		.4byte	.LVL24
 11948 01d7 10000000 		.4byte	.LFE108
 11949 01db 0400     		.2byte	0x4
 11950 01dd F3       		.byte	0xf3
 11951 01de 01       		.uleb128 0x1
 11952 01df 50       		.byte	0x50
 11953 01e0 9F       		.byte	0x9f
 11954 01e1 00000000 		.4byte	0
 11955 01e5 00000000 		.4byte	0
 11956              	.LLST13:
 11957 01e9 00000000 		.4byte	.LVL23
 11958 01ed 09000000 		.4byte	.LVL25-1
 11959 01f1 0100     		.2byte	0x1
 11960 01f3 51       		.byte	0x51
 11961 01f4 09000000 		.4byte	.LVL25-1
 11962 01f8 10000000 		.4byte	.LFE108
 11963 01fc 0100     		.2byte	0x1
 11964 01fe 54       		.byte	0x54
 11965 01ff 00000000 		.4byte	0
 11966 0203 00000000 		.4byte	0
 11967              	.LLST14:
 11968 0207 00000000 		.4byte	.LVL23
 11969 020b 09000000 		.4byte	.LVL25-1
 11970 020f 0100     		.2byte	0x1
 11971 0211 52       		.byte	0x52
 11972 0212 09000000 		.4byte	.LVL25-1
 11973 0216 10000000 		.4byte	.LFE108
 11974 021a 0400     		.2byte	0x4
 11975 021c F3       		.byte	0xf3
 11976 021d 01       		.uleb128 0x1
 11977 021e 52       		.byte	0x52
 11978 021f 9F       		.byte	0x9f
ARM GAS  C:\Users\164\AppData\Local\Temp\ccvDnxKa.s 			page 250


 11979 0220 00000000 		.4byte	0
 11980 0224 00000000 		.4byte	0
 11981              	.LLST15:
 11982 0228 00000000 		.4byte	.LVL26
 11983 022c 22000000 		.4byte	.LVL30
 11984 0230 0100     		.2byte	0x1
 11985 0232 50       		.byte	0x50
 11986 0233 22000000 		.4byte	.LVL30
 11987 0237 58000000 		.4byte	.LVL40
 11988 023b 0100     		.2byte	0x1
 11989 023d 56       		.byte	0x56
 11990 023e 58000000 		.4byte	.LVL40
 11991 0242 5C000000 		.4byte	.LFE122
 11992 0246 0400     		.2byte	0x4
 11993 0248 F3       		.byte	0xf3
 11994 0249 01       		.uleb128 0x1
 11995 024a 50       		.byte	0x50
 11996 024b 9F       		.byte	0x9f
 11997 024c 00000000 		.4byte	0
 11998 0250 00000000 		.4byte	0
 11999              	.LLST16:
 12000 0254 00000000 		.4byte	.LVL26
 12001 0258 22000000 		.4byte	.LVL30
 12002 025c 0100     		.2byte	0x1
 12003 025e 51       		.byte	0x51
 12004 025f 22000000 		.4byte	.LVL30
 12005 0263 58000000 		.4byte	.LVL40
 12006 0267 0100     		.2byte	0x1
 12007 0269 54       		.byte	0x54
 12008 026a 58000000 		.4byte	.LVL40
 12009 026e 5C000000 		.4byte	.LFE122
 12010 0272 0400     		.2byte	0x4
 12011 0274 F3       		.byte	0xf3
 12012 0275 01       		.uleb128 0x1
 12013 0276 51       		.byte	0x51
 12014 0277 9F       		.byte	0x9f
 12015 0278 00000000 		.4byte	0
 12016 027c 00000000 		.4byte	0
 12017              	.LLST17:
 12018 0280 00000000 		.4byte	.LVL26
 12019 0284 22000000 		.4byte	.LVL30
 12020 0288 0100     		.2byte	0x1
 12021 028a 52       		.byte	0x52
 12022 028b 22000000 		.4byte	.LVL30
 12023 028f 5C000000 		.4byte	.LFE122
 12024 0293 0400     		.2byte	0x4
 12025 0295 F3       		.byte	0xf3
 12026 0296 01       		.uleb128 0x1
 12027 0297 52       		.byte	0x52
 12028 0298 9F       		.byte	0x9f
 12029 0299 00000000 		.4byte	0
 12030 029d 00000000 		.4byte	0
 12031              	.LLST18:
 12032 02a1 08000000 		.4byte	.LVL27
 12033 02a5 0A000000 		.4byte	.LVL28
 12034 02a9 0300     		.2byte	0x3
 12035 02ab 91       		.byte	0x91
ARM GAS  C:\Users\164\AppData\Local\Temp\ccvDnxKa.s 			page 251


 12036 02ac 50       		.sleb128 -48
 12037 02ad 9F       		.byte	0x9f
 12038 02ae 0A000000 		.4byte	.LVL28
 12039 02b2 12000000 		.4byte	.LVL29
 12040 02b6 0100     		.2byte	0x1
 12041 02b8 53       		.byte	0x53
 12042 02b9 12000000 		.4byte	.LVL29
 12043 02bd 22000000 		.4byte	.LVL30
 12044 02c1 0300     		.2byte	0x3
 12045 02c3 91       		.byte	0x91
 12046 02c4 B47F     		.sleb128 -76
 12047 02c6 22000000 		.4byte	.LVL30
 12048 02ca 3E000000 		.4byte	.LVL37
 12049 02ce 0300     		.2byte	0x3
 12050 02d0 91       		.byte	0x91
 12051 02d1 50       		.sleb128 -48
 12052 02d2 9F       		.byte	0x9f
 12053 02d3 3E000000 		.4byte	.LVL37
 12054 02d7 45000000 		.4byte	.LVL38-1
 12055 02db 0100     		.2byte	0x1
 12056 02dd 52       		.byte	0x52
 12057 02de 45000000 		.4byte	.LVL38-1
 12058 02e2 58000000 		.4byte	.LVL40
 12059 02e6 0300     		.2byte	0x3
 12060 02e8 91       		.byte	0x91
 12061 02e9 50       		.sleb128 -48
 12062 02ea 9F       		.byte	0x9f
 12063 02eb 58000000 		.4byte	.LVL40
 12064 02ef 5C000000 		.4byte	.LFE122
 12065 02f3 0300     		.2byte	0x3
 12066 02f5 7D       		.byte	0x7d
 12067 02f6 50       		.sleb128 -48
 12068 02f7 9F       		.byte	0x9f
 12069 02f8 00000000 		.4byte	0
 12070 02fc 00000000 		.4byte	0
 12071              	.LLST19:
 12072 0300 08000000 		.4byte	.LVL27
 12073 0304 28000000 		.4byte	.LVL31
 12074 0308 0400     		.2byte	0x4
 12075 030a 91       		.byte	0x91
 12076 030b B47F     		.sleb128 -76
 12077 030d 9F       		.byte	0x9f
 12078 030e 28000000 		.4byte	.LVL31
 12079 0312 2B000000 		.4byte	.LVL32-1
 12080 0316 0100     		.2byte	0x1
 12081 0318 50       		.byte	0x50
 12082 0319 2B000000 		.4byte	.LVL32-1
 12083 031d 2E000000 		.4byte	.LVL33
 12084 0321 0400     		.2byte	0x4
 12085 0323 91       		.byte	0x91
 12086 0324 B47F     		.sleb128 -76
 12087 0326 9F       		.byte	0x9f
 12088 0327 2E000000 		.4byte	.LVL33
 12089 032b 31000000 		.4byte	.LVL34-1
 12090 032f 0100     		.2byte	0x1
 12091 0331 50       		.byte	0x50
 12092 0332 31000000 		.4byte	.LVL34-1
ARM GAS  C:\Users\164\AppData\Local\Temp\ccvDnxKa.s 			page 252


 12093 0336 58000000 		.4byte	.LVL40
 12094 033a 0400     		.2byte	0x4
 12095 033c 91       		.byte	0x91
 12096 033d B47F     		.sleb128 -76
 12097 033f 9F       		.byte	0x9f
 12098 0340 58000000 		.4byte	.LVL40
 12099 0344 5C000000 		.4byte	.LFE122
 12100 0348 0400     		.2byte	0x4
 12101 034a 7D       		.byte	0x7d
 12102 034b B47F     		.sleb128 -76
 12103 034d 9F       		.byte	0x9f
 12104 034e 00000000 		.4byte	0
 12105 0352 00000000 		.4byte	0
 12106              	.LLST20:
 12107 0356 36000000 		.4byte	.LVL35
 12108 035a 3C000000 		.4byte	.LVL36
 12109 035e 0400     		.2byte	0x4
 12110 0360 91       		.byte	0x91
 12111 0361 B47F     		.sleb128 -76
 12112 0363 9F       		.byte	0x9f
 12113 0364 00000000 		.4byte	0
 12114 0368 00000000 		.4byte	0
 12115              	.LLST21:
 12116 036c 00000000 		.4byte	.LVL41
 12117 0370 1C000000 		.4byte	.LVL43
 12118 0374 0100     		.2byte	0x1
 12119 0376 50       		.byte	0x50
 12120 0377 1C000000 		.4byte	.LVL43
 12121 037b 24000000 		.4byte	.LVL46
 12122 037f 0100     		.2byte	0x1
 12123 0381 56       		.byte	0x56
 12124 0382 24000000 		.4byte	.LVL46
 12125 0386 3E000000 		.4byte	.LVL49
 12126 038a 0100     		.2byte	0x1
 12127 038c 50       		.byte	0x50
 12128 038d 3E000000 		.4byte	.LVL49
 12129 0391 8A000000 		.4byte	.LVL60
 12130 0395 0100     		.2byte	0x1
 12131 0397 56       		.byte	0x56
 12132 0398 8A000000 		.4byte	.LVL60
 12133 039c 8C000000 		.4byte	.LVL61
 12134 03a0 0100     		.2byte	0x1
 12135 03a2 50       		.byte	0x50
 12136 03a3 8C000000 		.4byte	.LVL61
 12137 03a7 A6000000 		.4byte	.LVL64
 12138 03ab 0100     		.2byte	0x1
 12139 03ad 56       		.byte	0x56
 12140 03ae A6000000 		.4byte	.LVL64
 12141 03b2 B0000000 		.4byte	.LFE119
 12142 03b6 0400     		.2byte	0x4
 12143 03b8 F3       		.byte	0xf3
 12144 03b9 01       		.uleb128 0x1
 12145 03ba 50       		.byte	0x50
 12146 03bb 9F       		.byte	0x9f
 12147 03bc 00000000 		.4byte	0
 12148 03c0 00000000 		.4byte	0
 12149              	.LLST22:
ARM GAS  C:\Users\164\AppData\Local\Temp\ccvDnxKa.s 			page 253


 12150 03c4 00000000 		.4byte	.LVL41
 12151 03c8 1F000000 		.4byte	.LVL44-1
 12152 03cc 0100     		.2byte	0x1
 12153 03ce 51       		.byte	0x51
 12154 03cf 1F000000 		.4byte	.LVL44-1
 12155 03d3 24000000 		.4byte	.LVL46
 12156 03d7 0100     		.2byte	0x1
 12157 03d9 54       		.byte	0x54
 12158 03da 24000000 		.4byte	.LVL46
 12159 03de 3E000000 		.4byte	.LVL49
 12160 03e2 0100     		.2byte	0x1
 12161 03e4 51       		.byte	0x51
 12162 03e5 3E000000 		.4byte	.LVL49
 12163 03e9 8A000000 		.4byte	.LVL60
 12164 03ed 0100     		.2byte	0x1
 12165 03ef 54       		.byte	0x54
 12166 03f0 8A000000 		.4byte	.LVL60
 12167 03f4 8C000000 		.4byte	.LVL61
 12168 03f8 0100     		.2byte	0x1
 12169 03fa 51       		.byte	0x51
 12170 03fb 8C000000 		.4byte	.LVL61
 12171 03ff A6000000 		.4byte	.LVL64
 12172 0403 0100     		.2byte	0x1
 12173 0405 54       		.byte	0x54
 12174 0406 A6000000 		.4byte	.LVL64
 12175 040a B0000000 		.4byte	.LFE119
 12176 040e 0400     		.2byte	0x4
 12177 0410 F3       		.byte	0xf3
 12178 0411 01       		.uleb128 0x1
 12179 0412 51       		.byte	0x51
 12180 0413 9F       		.byte	0x9f
 12181 0414 00000000 		.4byte	0
 12182 0418 00000000 		.4byte	0
 12183              	.LLST23:
 12184 041c 00000000 		.4byte	.LVL41
 12185 0420 1F000000 		.4byte	.LVL44-1
 12186 0424 0100     		.2byte	0x1
 12187 0426 52       		.byte	0x52
 12188 0427 1F000000 		.4byte	.LVL44-1
 12189 042b 24000000 		.4byte	.LVL46
 12190 042f 0400     		.2byte	0x4
 12191 0431 F3       		.byte	0xf3
 12192 0432 01       		.uleb128 0x1
 12193 0433 52       		.byte	0x52
 12194 0434 9F       		.byte	0x9f
 12195 0435 24000000 		.4byte	.LVL46
 12196 0439 3E000000 		.4byte	.LVL49
 12197 043d 0100     		.2byte	0x1
 12198 043f 52       		.byte	0x52
 12199 0440 3E000000 		.4byte	.LVL49
 12200 0444 8A000000 		.4byte	.LVL60
 12201 0448 0400     		.2byte	0x4
 12202 044a F3       		.byte	0xf3
 12203 044b 01       		.uleb128 0x1
 12204 044c 52       		.byte	0x52
 12205 044d 9F       		.byte	0x9f
 12206 044e 8A000000 		.4byte	.LVL60
ARM GAS  C:\Users\164\AppData\Local\Temp\ccvDnxKa.s 			page 254


 12207 0452 8C000000 		.4byte	.LVL61
 12208 0456 0100     		.2byte	0x1
 12209 0458 52       		.byte	0x52
 12210 0459 8C000000 		.4byte	.LVL61
 12211 045d B0000000 		.4byte	.LFE119
 12212 0461 0400     		.2byte	0x4
 12213 0463 F3       		.byte	0xf3
 12214 0464 01       		.uleb128 0x1
 12215 0465 52       		.byte	0x52
 12216 0466 9F       		.byte	0x9f
 12217 0467 00000000 		.4byte	0
 12218 046b 00000000 		.4byte	0
 12219              	.LLST24:
 12220 046f 08000000 		.4byte	.LVL42
 12221 0473 22000000 		.4byte	.LVL45
 12222 0477 0300     		.2byte	0x3
 12223 0479 91       		.byte	0x91
 12224 047a 50       		.sleb128 -48
 12225 047b 9F       		.byte	0x9f
 12226 047c 22000000 		.4byte	.LVL45
 12227 0480 24000000 		.4byte	.LVL46
 12228 0484 0100     		.2byte	0x1
 12229 0486 50       		.byte	0x50
 12230 0487 24000000 		.4byte	.LVL46
 12231 048b 26000000 		.4byte	.LVL47
 12232 048f 0300     		.2byte	0x3
 12233 0491 91       		.byte	0x91
 12234 0492 50       		.sleb128 -48
 12235 0493 9F       		.byte	0x9f
 12236 0494 26000000 		.4byte	.LVL47
 12237 0498 2E000000 		.4byte	.LVL48
 12238 049c 0100     		.2byte	0x1
 12239 049e 53       		.byte	0x53
 12240 049f 2E000000 		.4byte	.LVL48
 12241 04a3 3E000000 		.4byte	.LVL49
 12242 04a7 0200     		.2byte	0x2
 12243 04a9 7D       		.byte	0x7d
 12244 04aa 00       		.sleb128 0
 12245 04ab 3E000000 		.4byte	.LVL49
 12246 04af 88000000 		.4byte	.LVL59
 12247 04b3 0300     		.2byte	0x3
 12248 04b5 91       		.byte	0x91
 12249 04b6 50       		.sleb128 -48
 12250 04b7 9F       		.byte	0x9f
 12251 04b8 88000000 		.4byte	.LVL59
 12252 04bc 8A000000 		.4byte	.LVL60
 12253 04c0 0100     		.2byte	0x1
 12254 04c2 52       		.byte	0x52
 12255 04c3 8A000000 		.4byte	.LVL60
 12256 04c7 8C000000 		.4byte	.LVL61
 12257 04cb 0300     		.2byte	0x3
 12258 04cd 91       		.byte	0x91
 12259 04ce 50       		.sleb128 -48
 12260 04cf 9F       		.byte	0x9f
 12261 04d0 8C000000 		.4byte	.LVL61
 12262 04d4 93000000 		.4byte	.LVL62-1
 12263 04d8 0100     		.2byte	0x1
ARM GAS  C:\Users\164\AppData\Local\Temp\ccvDnxKa.s 			page 255


 12264 04da 52       		.byte	0x52
 12265 04db 00000000 		.4byte	0
 12266 04df 00000000 		.4byte	0
 12267              	.LLST25:
 12268 04e3 24000000 		.4byte	.LVL46
 12269 04e7 8A000000 		.4byte	.LVL60
 12270 04eb 0600     		.2byte	0x6
 12271 04ed 03       		.byte	0x3
 12272 04ee 28000000 		.4byte	.LC5
 12273 04f2 9F       		.byte	0x9f
 12274 04f3 00000000 		.4byte	0
 12275 04f7 00000000 		.4byte	0
 12276              	.LLST26:
 12277 04fb 24000000 		.4byte	.LVL46
 12278 04ff 8A000000 		.4byte	.LVL60
 12279 0503 0300     		.2byte	0x3
 12280 0505 08       		.byte	0x8
 12281 0506 20       		.byte	0x20
 12282 0507 9F       		.byte	0x9f
 12283 0508 00000000 		.4byte	0
 12284 050c 00000000 		.4byte	0
 12285              	.LLST27:
 12286 0510 24000000 		.4byte	.LVL46
 12287 0514 26000000 		.4byte	.LVL47
 12288 0518 0300     		.2byte	0x3
 12289 051a 91       		.byte	0x91
 12290 051b 50       		.sleb128 -48
 12291 051c 9F       		.byte	0x9f
 12292 051d 26000000 		.4byte	.LVL47
 12293 0521 2E000000 		.4byte	.LVL48
 12294 0525 0100     		.2byte	0x1
 12295 0527 53       		.byte	0x53
 12296 0528 2E000000 		.4byte	.LVL48
 12297 052c 3E000000 		.4byte	.LVL49
 12298 0530 0200     		.2byte	0x2
 12299 0532 7D       		.byte	0x7d
 12300 0533 00       		.sleb128 0
 12301 0534 3E000000 		.4byte	.LVL49
 12302 0538 88000000 		.4byte	.LVL59
 12303 053c 0300     		.2byte	0x3
 12304 053e 91       		.byte	0x91
 12305 053f 50       		.sleb128 -48
 12306 0540 9F       		.byte	0x9f
 12307 0541 88000000 		.4byte	.LVL59
 12308 0545 8A000000 		.4byte	.LVL60
 12309 0549 0100     		.2byte	0x1
 12310 054b 52       		.byte	0x52
 12311 054c 00000000 		.4byte	0
 12312 0550 00000000 		.4byte	0
 12313              	.LLST28:
 12314 0554 24000000 		.4byte	.LVL46
 12315 0558 8A000000 		.4byte	.LVL60
 12316 055c 0100     		.2byte	0x1
 12317 055e 5D       		.byte	0x5d
 12318 055f 00000000 		.4byte	0
 12319 0563 00000000 		.4byte	0
 12320              	.LLST29:
ARM GAS  C:\Users\164\AppData\Local\Temp\ccvDnxKa.s 			page 256


 12321 0567 5A000000 		.4byte	.LVL51
 12322 056b 6C000000 		.4byte	.LVL54
 12323 056f 0300     		.2byte	0x3
 12324 0571 08       		.byte	0x8
 12325 0572 20       		.byte	0x20
 12326 0573 9F       		.byte	0x9f
 12327 0574 00000000 		.4byte	0
 12328 0578 00000000 		.4byte	0
 12329              	.LLST30:
 12330 057c 5A000000 		.4byte	.LVL51
 12331 0580 5D000000 		.4byte	.LVL52-1
 12332 0584 0100     		.2byte	0x1
 12333 0586 50       		.byte	0x50
 12334 0587 5D000000 		.4byte	.LVL52-1
 12335 058b 6C000000 		.4byte	.LVL54
 12336 058f 0100     		.2byte	0x1
 12337 0591 55       		.byte	0x55
 12338 0592 00000000 		.4byte	0
 12339 0596 00000000 		.4byte	0
 12340              	.LLST31:
 12341 059a 5A000000 		.4byte	.LVL51
 12342 059e 6C000000 		.4byte	.LVL54
 12343 05a2 0100     		.2byte	0x1
 12344 05a4 5D       		.byte	0x5d
 12345 05a5 00000000 		.4byte	0
 12346 05a9 00000000 		.4byte	0
 12347              	.LLST32:
 12348 05ad 80000000 		.4byte	.LVL57
 12349 05b1 86000000 		.4byte	.LVL58
 12350 05b5 0100     		.2byte	0x1
 12351 05b7 5D       		.byte	0x5d
 12352 05b8 00000000 		.4byte	0
 12353 05bc 00000000 		.4byte	0
 12354              	.LLST33:
 12355 05c0 00000000 		.4byte	.LVL65
 12356 05c4 10000000 		.4byte	.LVL68
 12357 05c8 0100     		.2byte	0x1
 12358 05ca 50       		.byte	0x50
 12359 05cb 10000000 		.4byte	.LVL68
 12360 05cf 18000000 		.4byte	.LVL71
 12361 05d3 0400     		.2byte	0x4
 12362 05d5 F3       		.byte	0xf3
 12363 05d6 01       		.uleb128 0x1
 12364 05d7 50       		.byte	0x50
 12365 05d8 9F       		.byte	0x9f
 12366 05d9 18000000 		.4byte	.LVL71
 12367 05dd 1A000000 		.4byte	.LVL72
 12368 05e1 0100     		.2byte	0x1
 12369 05e3 50       		.byte	0x50
 12370 05e4 1A000000 		.4byte	.LVL72
 12371 05e8 2C000000 		.4byte	.LFE118
 12372 05ec 0400     		.2byte	0x4
 12373 05ee F3       		.byte	0xf3
 12374 05ef 01       		.uleb128 0x1
 12375 05f0 50       		.byte	0x50
 12376 05f1 9F       		.byte	0x9f
 12377 05f2 00000000 		.4byte	0
ARM GAS  C:\Users\164\AppData\Local\Temp\ccvDnxKa.s 			page 257


 12378 05f6 00000000 		.4byte	0
 12379              	.LLST34:
 12380 05fa 00000000 		.4byte	.LVL65
 12381 05fe 0E000000 		.4byte	.LVL67
 12382 0602 0100     		.2byte	0x1
 12383 0604 51       		.byte	0x51
 12384 0605 0E000000 		.4byte	.LVL67
 12385 0609 18000000 		.4byte	.LVL71
 12386 060d 0100     		.2byte	0x1
 12387 060f 54       		.byte	0x54
 12388 0610 18000000 		.4byte	.LVL71
 12389 0614 1A000000 		.4byte	.LVL72
 12390 0618 0100     		.2byte	0x1
 12391 061a 51       		.byte	0x51
 12392 061b 1A000000 		.4byte	.LVL72
 12393 061f 2C000000 		.4byte	.LFE118
 12394 0623 0100     		.2byte	0x1
 12395 0625 54       		.byte	0x54
 12396 0626 00000000 		.4byte	0
 12397 062a 00000000 		.4byte	0
 12398              	.LLST35:
 12399 062e 00000000 		.4byte	.LVL65
 12400 0632 13000000 		.4byte	.LVL69-1
 12401 0636 0100     		.2byte	0x1
 12402 0638 52       		.byte	0x52
 12403 0639 13000000 		.4byte	.LVL69-1
 12404 063d 18000000 		.4byte	.LVL71
 12405 0641 0400     		.2byte	0x4
 12406 0643 F3       		.byte	0xf3
 12407 0644 01       		.uleb128 0x1
 12408 0645 52       		.byte	0x52
 12409 0646 9F       		.byte	0x9f
 12410 0647 18000000 		.4byte	.LVL71
 12411 064b 1A000000 		.4byte	.LVL72
 12412 064f 0100     		.2byte	0x1
 12413 0651 52       		.byte	0x52
 12414 0652 1A000000 		.4byte	.LVL72
 12415 0656 2C000000 		.4byte	.LFE118
 12416 065a 0400     		.2byte	0x4
 12417 065c F3       		.byte	0xf3
 12418 065d 01       		.uleb128 0x1
 12419 065e 52       		.byte	0x52
 12420 065f 9F       		.byte	0x9f
 12421 0660 00000000 		.4byte	0
 12422 0664 00000000 		.4byte	0
 12423              	.LLST36:
 12424 0668 04000000 		.4byte	.LVL66
 12425 066c 16000000 		.4byte	.LVL70
 12426 0670 0200     		.2byte	0x2
 12427 0672 30       		.byte	0x30
 12428 0673 9F       		.byte	0x9f
 12429 0674 16000000 		.4byte	.LVL70
 12430 0678 18000000 		.4byte	.LVL71
 12431 067c 0100     		.2byte	0x1
 12432 067e 50       		.byte	0x50
 12433 067f 18000000 		.4byte	.LVL71
 12434 0683 1A000000 		.4byte	.LVL72
ARM GAS  C:\Users\164\AppData\Local\Temp\ccvDnxKa.s 			page 258


 12435 0687 0200     		.2byte	0x2
 12436 0689 30       		.byte	0x30
 12437 068a 9F       		.byte	0x9f
 12438 068b 1A000000 		.4byte	.LVL72
 12439 068f 2C000000 		.4byte	.LFE118
 12440 0693 0100     		.2byte	0x1
 12441 0695 55       		.byte	0x55
 12442 0696 00000000 		.4byte	0
 12443 069a 00000000 		.4byte	0
 12444              	.LLST37:
 12445 069e 00000000 		.4byte	.LVL74
 12446 06a2 09000000 		.4byte	.LVL75-1
 12447 06a6 0100     		.2byte	0x1
 12448 06a8 50       		.byte	0x50
 12449 06a9 09000000 		.4byte	.LVL75-1
 12450 06ad 1C000000 		.4byte	.LVL79
 12451 06b1 0100     		.2byte	0x1
 12452 06b3 54       		.byte	0x54
 12453 06b4 1C000000 		.4byte	.LVL79
 12454 06b8 48000000 		.4byte	.LFE115
 12455 06bc 0400     		.2byte	0x4
 12456 06be F3       		.byte	0xf3
 12457 06bf 01       		.uleb128 0x1
 12458 06c0 50       		.byte	0x50
 12459 06c1 9F       		.byte	0x9f
 12460 06c2 00000000 		.4byte	0
 12461 06c6 00000000 		.4byte	0
 12462              	.LLST38:
 12463 06ca 00000000 		.4byte	.LVL74
 12464 06ce 09000000 		.4byte	.LVL75-1
 12465 06d2 0100     		.2byte	0x1
 12466 06d4 51       		.byte	0x51
 12467 06d5 09000000 		.4byte	.LVL75-1
 12468 06d9 48000000 		.4byte	.LFE115
 12469 06dd 0100     		.2byte	0x1
 12470 06df 55       		.byte	0x55
 12471 06e0 00000000 		.4byte	0
 12472 06e4 00000000 		.4byte	0
 12473              	.LLST39:
 12474 06e8 00000000 		.4byte	.LVL74
 12475 06ec 09000000 		.4byte	.LVL75-1
 12476 06f0 0100     		.2byte	0x1
 12477 06f2 52       		.byte	0x52
 12478 06f3 09000000 		.4byte	.LVL75-1
 12479 06f7 48000000 		.4byte	.LFE115
 12480 06fb 0400     		.2byte	0x4
 12481 06fd F3       		.byte	0xf3
 12482 06fe 01       		.uleb128 0x1
 12483 06ff 52       		.byte	0x52
 12484 0700 9F       		.byte	0x9f
 12485 0701 00000000 		.4byte	0
 12486 0705 00000000 		.4byte	0
 12487              	.LLST40:
 12488 0709 0C000000 		.4byte	.LVL76
 12489 070d 0F000000 		.4byte	.LVL77-1
 12490 0711 0100     		.2byte	0x1
 12491 0713 50       		.byte	0x50
ARM GAS  C:\Users\164\AppData\Local\Temp\ccvDnxKa.s 			page 259


 12492 0714 0F000000 		.4byte	.LVL77-1
 12493 0718 48000000 		.4byte	.LFE115
 12494 071c 0100     		.2byte	0x1
 12495 071e 56       		.byte	0x56
 12496 071f 00000000 		.4byte	0
 12497 0723 00000000 		.4byte	0
 12498              	.LLST41:
 12499 0727 18000000 		.4byte	.LVL78
 12500 072b 21000000 		.4byte	.LVL80-1
 12501 072f 0100     		.2byte	0x1
 12502 0731 50       		.byte	0x50
 12503 0732 21000000 		.4byte	.LVL80-1
 12504 0736 46000000 		.4byte	.LVL85
 12505 073a 0100     		.2byte	0x1
 12506 073c 54       		.byte	0x54
 12507 073d 00000000 		.4byte	0
 12508 0741 00000000 		.4byte	0
 12509              	.LLST42:
 12510 0745 34000000 		.4byte	.LVL82
 12511 0749 3C000000 		.4byte	.LVL83
 12512 074d 0100     		.2byte	0x1
 12513 074f 50       		.byte	0x50
 12514 0750 00000000 		.4byte	0
 12515 0754 00000000 		.4byte	0
 12516              	.LLST43:
 12517 0758 00000000 		.4byte	.LVL86
 12518 075c 09000000 		.4byte	.LVL87-1
 12519 0760 0100     		.2byte	0x1
 12520 0762 50       		.byte	0x50
 12521 0763 09000000 		.4byte	.LVL87-1
 12522 0767 34000000 		.4byte	.LFE114
 12523 076b 0400     		.2byte	0x4
 12524 076d F3       		.byte	0xf3
 12525 076e 01       		.uleb128 0x1
 12526 076f 50       		.byte	0x50
 12527 0770 9F       		.byte	0x9f
 12528 0771 00000000 		.4byte	0
 12529 0775 00000000 		.4byte	0
 12530              	.LLST44:
 12531 0779 00000000 		.4byte	.LVL86
 12532 077d 09000000 		.4byte	.LVL87-1
 12533 0781 0100     		.2byte	0x1
 12534 0783 51       		.byte	0x51
 12535 0784 09000000 		.4byte	.LVL87-1
 12536 0788 34000000 		.4byte	.LFE114
 12537 078c 0100     		.2byte	0x1
 12538 078e 55       		.byte	0x55
 12539 078f 00000000 		.4byte	0
 12540 0793 00000000 		.4byte	0
 12541              	.LLST45:
 12542 0797 00000000 		.4byte	.LVL86
 12543 079b 09000000 		.4byte	.LVL87-1
 12544 079f 0100     		.2byte	0x1
 12545 07a1 52       		.byte	0x52
 12546 07a2 09000000 		.4byte	.LVL87-1
 12547 07a6 34000000 		.4byte	.LFE114
 12548 07aa 0400     		.2byte	0x4
ARM GAS  C:\Users\164\AppData\Local\Temp\ccvDnxKa.s 			page 260


 12549 07ac F3       		.byte	0xf3
 12550 07ad 01       		.uleb128 0x1
 12551 07ae 52       		.byte	0x52
 12552 07af 9F       		.byte	0x9f
 12553 07b0 00000000 		.4byte	0
 12554 07b4 00000000 		.4byte	0
 12555              	.LLST46:
 12556 07b8 0A000000 		.4byte	.LVL87
 12557 07bc 0D000000 		.4byte	.LVL88-1
 12558 07c0 0100     		.2byte	0x1
 12559 07c2 50       		.byte	0x50
 12560 07c3 00000000 		.4byte	0
 12561 07c7 00000000 		.4byte	0
 12562              	.LLST47:
 12563 07cb 0E000000 		.4byte	.LVL88
 12564 07cf 16000000 		.4byte	.LVL89
 12565 07d3 0100     		.2byte	0x1
 12566 07d5 50       		.byte	0x50
 12567 07d6 00000000 		.4byte	0
 12568 07da 00000000 		.4byte	0
 12569              	.LLST48:
 12570 07de 00000000 		.4byte	.LVL92
 12571 07e2 16000000 		.4byte	.LVL95
 12572 07e6 0100     		.2byte	0x1
 12573 07e8 50       		.byte	0x50
 12574 07e9 16000000 		.4byte	.LVL95
 12575 07ed 19000000 		.4byte	.LVL96-1
 12576 07f1 0100     		.2byte	0x1
 12577 07f3 51       		.byte	0x51
 12578 07f4 19000000 		.4byte	.LVL96-1
 12579 07f8 E2000000 		.4byte	.LVL111
 12580 07fc 0100     		.2byte	0x1
 12581 07fe 54       		.byte	0x54
 12582 07ff E2000000 		.4byte	.LVL111
 12583 0803 E8000000 		.4byte	.LFE113
 12584 0807 0400     		.2byte	0x4
 12585 0809 F3       		.byte	0xf3
 12586 080a 01       		.uleb128 0x1
 12587 080b 50       		.byte	0x50
 12588 080c 9F       		.byte	0x9f
 12589 080d 00000000 		.4byte	0
 12590 0811 00000000 		.4byte	0
 12591              	.LLST49:
 12592 0815 00000000 		.4byte	.LVL92
 12593 0819 14000000 		.4byte	.LVL94
 12594 081d 0100     		.2byte	0x1
 12595 081f 51       		.byte	0x51
 12596 0820 14000000 		.4byte	.LVL94
 12597 0824 E2000000 		.4byte	.LVL111
 12598 0828 0100     		.2byte	0x1
 12599 082a 55       		.byte	0x55
 12600 082b E2000000 		.4byte	.LVL111
 12601 082f E8000000 		.4byte	.LFE113
 12602 0833 0400     		.2byte	0x4
 12603 0835 F3       		.byte	0xf3
 12604 0836 01       		.uleb128 0x1
 12605 0837 51       		.byte	0x51
ARM GAS  C:\Users\164\AppData\Local\Temp\ccvDnxKa.s 			page 261


 12606 0838 9F       		.byte	0x9f
 12607 0839 00000000 		.4byte	0
 12608 083d 00000000 		.4byte	0
 12609              	.LLST50:
 12610 0841 00000000 		.4byte	.LVL92
 12611 0845 12000000 		.4byte	.LVL93
 12612 0849 0100     		.2byte	0x1
 12613 084b 52       		.byte	0x52
 12614 084c 12000000 		.4byte	.LVL93
 12615 0850 9C000000 		.4byte	.LVL106
 12616 0854 0100     		.2byte	0x1
 12617 0856 58       		.byte	0x58
 12618 0857 9C000000 		.4byte	.LVL106
 12619 085b E8000000 		.4byte	.LFE113
 12620 085f 0400     		.2byte	0x4
 12621 0861 F3       		.byte	0xf3
 12622 0862 01       		.uleb128 0x1
 12623 0863 52       		.byte	0x52
 12624 0864 9F       		.byte	0x9f
 12625 0865 00000000 		.4byte	0
 12626 0869 00000000 		.4byte	0
 12627              	.LLST51:
 12628 086d 9C000000 		.4byte	.LVL106
 12629 0871 E2000000 		.4byte	.LVL111
 12630 0875 0100     		.2byte	0x1
 12631 0877 58       		.byte	0x58
 12632 0878 00000000 		.4byte	0
 12633 087c 00000000 		.4byte	0
 12634              	.LLST52:
 12635 0880 A0000000 		.4byte	.LVL107
 12636 0884 E2000000 		.4byte	.LVL111
 12637 0888 0100     		.2byte	0x1
 12638 088a 59       		.byte	0x59
 12639 088b 00000000 		.4byte	0
 12640 088f 00000000 		.4byte	0
 12641              	.LLST53:
 12642 0893 A4000000 		.4byte	.LVL108
 12643 0897 E2000000 		.4byte	.LVL111
 12644 089b 0100     		.2byte	0x1
 12645 089d 57       		.byte	0x57
 12646 089e 00000000 		.4byte	0
 12647 08a2 00000000 		.4byte	0
 12648              	.LLST54:
 12649 08a6 2C000000 		.4byte	.LVL97
 12650 08aa 34000000 		.4byte	.LVL99
 12651 08ae 0300     		.2byte	0x3
 12652 08b0 76       		.byte	0x76
 12653 08b1 70       		.sleb128 -16
 12654 08b2 9F       		.byte	0x9f
 12655 08b3 34000000 		.4byte	.LVL99
 12656 08b7 40000000 		.4byte	.LVL101
 12657 08bb 0400     		.2byte	0x4
 12658 08bd 91       		.byte	0x91
 12659 08be BC7F     		.sleb128 -68
 12660 08c0 9F       		.byte	0x9f
 12661 08c1 00000000 		.4byte	0
 12662 08c5 00000000 		.4byte	0
ARM GAS  C:\Users\164\AppData\Local\Temp\ccvDnxKa.s 			page 262


 12663              	.LLST55:
 12664 08c9 2C000000 		.4byte	.LVL97
 12665 08cd 32000000 		.4byte	.LVL98
 12666 08d1 0200     		.2byte	0x2
 12667 08d3 31       		.byte	0x31
 12668 08d4 9F       		.byte	0x9f
 12669 08d5 32000000 		.4byte	.LVL98
 12670 08d9 40000000 		.4byte	.LVL101
 12671 08dd 0200     		.2byte	0x2
 12672 08df 30       		.byte	0x30
 12673 08e0 9F       		.byte	0x9f
 12674 08e1 00000000 		.4byte	0
 12675 08e5 00000000 		.4byte	0
 12676              	.LLST56:
 12677 08e9 2C000000 		.4byte	.LVL97
 12678 08ed 32000000 		.4byte	.LVL98
 12679 08f1 0400     		.2byte	0x4
 12680 08f3 91       		.byte	0x91
 12681 08f4 BE7F     		.sleb128 -66
 12682 08f6 9F       		.byte	0x9f
 12683 08f7 32000000 		.4byte	.LVL98
 12684 08fb 38000000 		.4byte	.LVL100
 12685 08ff 0400     		.2byte	0x4
 12686 0901 91       		.byte	0x91
 12687 0902 BD7F     		.sleb128 -67
 12688 0904 9F       		.byte	0x9f
 12689 0905 38000000 		.4byte	.LVL100
 12690 0909 80000000 		.4byte	.LVL103
 12691 090d 0400     		.2byte	0x4
 12692 090f 91       		.byte	0x91
 12693 0910 BC7F     		.sleb128 -68
 12694 0912 9F       		.byte	0x9f
 12695 0913 80000000 		.4byte	.LVL103
 12696 0917 89000000 		.4byte	.LVL104-1
 12697 091b 0100     		.2byte	0x1
 12698 091d 53       		.byte	0x53
 12699 091e 89000000 		.4byte	.LVL104-1
 12700 0922 E2000000 		.4byte	.LVL111
 12701 0926 0400     		.2byte	0x4
 12702 0928 91       		.byte	0x91
 12703 0929 BC7F     		.sleb128 -68
 12704 092b 9F       		.byte	0x9f
 12705 092c E2000000 		.4byte	.LVL111
 12706 0930 E8000000 		.4byte	.LFE113
 12707 0934 0400     		.2byte	0x4
 12708 0936 7D       		.byte	0x7d
 12709 0937 BC7F     		.sleb128 -68
 12710 0939 9F       		.byte	0x9f
 12711 093a 00000000 		.4byte	0
 12712 093e 00000000 		.4byte	0
 12713              	.LLST57:
 12714 0942 40000000 		.4byte	.LVL101
 12715 0946 4A000000 		.4byte	.LVL102
 12716 094a 0300     		.2byte	0x3
 12717 094c 91       		.byte	0x91
 12718 094d 40       		.sleb128 -64
 12719 094e 9F       		.byte	0x9f
ARM GAS  C:\Users\164\AppData\Local\Temp\ccvDnxKa.s 			page 263


 12720 094f 00000000 		.4byte	0
 12721 0953 00000000 		.4byte	0
 12722              	.LLST58:
 12723 0957 40000000 		.4byte	.LVL101
 12724 095b 4A000000 		.4byte	.LVL102
 12725 095f 0200     		.2byte	0x2
 12726 0961 3A       		.byte	0x3a
 12727 0962 9F       		.byte	0x9f
 12728 0963 00000000 		.4byte	0
 12729 0967 00000000 		.4byte	0
 12730              	.LLST59:
 12731 096b 40000000 		.4byte	.LVL101
 12732 096f E2000000 		.4byte	.LVL111
 12733 0973 0300     		.2byte	0x3
 12734 0975 91       		.byte	0x91
 12735 0976 41       		.sleb128 -63
 12736 0977 9F       		.byte	0x9f
 12737 0978 E2000000 		.4byte	.LVL111
 12738 097c E8000000 		.4byte	.LFE113
 12739 0980 0300     		.2byte	0x3
 12740 0982 7D       		.byte	0x7d
 12741 0983 41       		.sleb128 -63
 12742 0984 9F       		.byte	0x9f
 12743 0985 00000000 		.4byte	0
 12744 0989 00000000 		.4byte	0
 12745              	.LLST60:
 12746 098d 00000000 		.4byte	.LVL112
 12747 0991 12000000 		.4byte	.LVL114
 12748 0995 0100     		.2byte	0x1
 12749 0997 50       		.byte	0x50
 12750 0998 12000000 		.4byte	.LVL114
 12751 099c 1A000000 		.4byte	.LVL117
 12752 09a0 0400     		.2byte	0x4
 12753 09a2 F3       		.byte	0xf3
 12754 09a3 01       		.uleb128 0x1
 12755 09a4 50       		.byte	0x50
 12756 09a5 9F       		.byte	0x9f
 12757 09a6 1A000000 		.4byte	.LVL117
 12758 09aa 1E000000 		.4byte	.LVL119
 12759 09ae 0100     		.2byte	0x1
 12760 09b0 50       		.byte	0x50
 12761 09b1 1E000000 		.4byte	.LVL119
 12762 09b5 3A000000 		.4byte	.LFE111
 12763 09b9 0400     		.2byte	0x4
 12764 09bb F3       		.byte	0xf3
 12765 09bc 01       		.uleb128 0x1
 12766 09bd 50       		.byte	0x50
 12767 09be 9F       		.byte	0x9f
 12768 09bf 00000000 		.4byte	0
 12769 09c3 00000000 		.4byte	0
 12770              	.LLST61:
 12771 09c7 00000000 		.4byte	.LVL112
 12772 09cb 0E000000 		.4byte	.LVL113
 12773 09cf 0100     		.2byte	0x1
 12774 09d1 51       		.byte	0x51
 12775 09d2 0E000000 		.4byte	.LVL113
 12776 09d6 1A000000 		.4byte	.LVL117
ARM GAS  C:\Users\164\AppData\Local\Temp\ccvDnxKa.s 			page 264


 12777 09da 0100     		.2byte	0x1
 12778 09dc 54       		.byte	0x54
 12779 09dd 1A000000 		.4byte	.LVL117
 12780 09e1 1C000000 		.4byte	.LVL118
 12781 09e5 0100     		.2byte	0x1
 12782 09e7 51       		.byte	0x51
 12783 09e8 1C000000 		.4byte	.LVL118
 12784 09ec 3A000000 		.4byte	.LFE111
 12785 09f0 0100     		.2byte	0x1
 12786 09f2 54       		.byte	0x54
 12787 09f3 00000000 		.4byte	0
 12788 09f7 00000000 		.4byte	0
 12789              	.LLST62:
 12790 09fb 00000000 		.4byte	.LVL112
 12791 09ff 15000000 		.4byte	.LVL115-1
 12792 0a03 0100     		.2byte	0x1
 12793 0a05 52       		.byte	0x52
 12794 0a06 15000000 		.4byte	.LVL115-1
 12795 0a0a 1A000000 		.4byte	.LVL117
 12796 0a0e 0400     		.2byte	0x4
 12797 0a10 F3       		.byte	0xf3
 12798 0a11 01       		.uleb128 0x1
 12799 0a12 52       		.byte	0x52
 12800 0a13 9F       		.byte	0x9f
 12801 0a14 1A000000 		.4byte	.LVL117
 12802 0a18 21000000 		.4byte	.LVL120-1
 12803 0a1c 0100     		.2byte	0x1
 12804 0a1e 52       		.byte	0x52
 12805 0a1f 21000000 		.4byte	.LVL120-1
 12806 0a23 3A000000 		.4byte	.LFE111
 12807 0a27 0400     		.2byte	0x4
 12808 0a29 F3       		.byte	0xf3
 12809 0a2a 01       		.uleb128 0x1
 12810 0a2b 52       		.byte	0x52
 12811 0a2c 9F       		.byte	0x9f
 12812 0a2d 00000000 		.4byte	0
 12813 0a31 00000000 		.4byte	0
 12814              	.LLST63:
 12815 0a35 18000000 		.4byte	.LVL116
 12816 0a39 1A000000 		.4byte	.LVL117
 12817 0a3d 0100     		.2byte	0x1
 12818 0a3f 50       		.byte	0x50
 12819 0a40 28000000 		.4byte	.LVL121
 12820 0a44 3A000000 		.4byte	.LFE111
 12821 0a48 0100     		.2byte	0x1
 12822 0a4a 55       		.byte	0x55
 12823 0a4b 00000000 		.4byte	0
 12824 0a4f 00000000 		.4byte	0
 12825              	.LLST64:
 12826 0a53 00000000 		.4byte	.LVL123
 12827 0a57 08000000 		.4byte	.LVL125
 12828 0a5b 0100     		.2byte	0x1
 12829 0a5d 50       		.byte	0x50
 12830 0a5e 08000000 		.4byte	.LVL125
 12831 0a62 1C000000 		.4byte	.LFE110
 12832 0a66 0400     		.2byte	0x4
 12833 0a68 F3       		.byte	0xf3
ARM GAS  C:\Users\164\AppData\Local\Temp\ccvDnxKa.s 			page 265


 12834 0a69 01       		.uleb128 0x1
 12835 0a6a 50       		.byte	0x50
 12836 0a6b 9F       		.byte	0x9f
 12837 0a6c 00000000 		.4byte	0
 12838 0a70 00000000 		.4byte	0
 12839              	.LLST65:
 12840 0a74 00000000 		.4byte	.LVL123
 12841 0a78 06000000 		.4byte	.LVL124
 12842 0a7c 0100     		.2byte	0x1
 12843 0a7e 51       		.byte	0x51
 12844 0a7f 06000000 		.4byte	.LVL124
 12845 0a83 1C000000 		.4byte	.LFE110
 12846 0a87 0100     		.2byte	0x1
 12847 0a89 54       		.byte	0x54
 12848 0a8a 00000000 		.4byte	0
 12849 0a8e 00000000 		.4byte	0
 12850              	.LLST66:
 12851 0a92 00000000 		.4byte	.LVL123
 12852 0a96 0B000000 		.4byte	.LVL126-1
 12853 0a9a 0100     		.2byte	0x1
 12854 0a9c 52       		.byte	0x52
 12855 0a9d 0B000000 		.4byte	.LVL126-1
 12856 0aa1 1C000000 		.4byte	.LFE110
 12857 0aa5 0400     		.2byte	0x4
 12858 0aa7 F3       		.byte	0xf3
 12859 0aa8 01       		.uleb128 0x1
 12860 0aa9 52       		.byte	0x52
 12861 0aaa 9F       		.byte	0x9f
 12862 0aab 00000000 		.4byte	0
 12863 0aaf 00000000 		.4byte	0
 12864              	.LLST67:
 12865 0ab3 0E000000 		.4byte	.LVL127
 12866 0ab7 10000000 		.4byte	.LVL128
 12867 0abb 0100     		.2byte	0x1
 12868 0abd 50       		.byte	0x50
 12869 0abe 10000000 		.4byte	.LVL128
 12870 0ac2 1C000000 		.4byte	.LFE110
 12871 0ac6 0100     		.2byte	0x1
 12872 0ac8 55       		.byte	0x55
 12873 0ac9 00000000 		.4byte	0
 12874 0acd 00000000 		.4byte	0
 12875              	.LLST69:
 12876 0ad1 00000000 		.4byte	.LVL130
 12877 0ad5 08000000 		.4byte	.LVL132
 12878 0ad9 0100     		.2byte	0x1
 12879 0adb 50       		.byte	0x50
 12880 0adc 08000000 		.4byte	.LVL132
 12881 0ae0 20000000 		.4byte	.LFE109
 12882 0ae4 0400     		.2byte	0x4
 12883 0ae6 F3       		.byte	0xf3
 12884 0ae7 01       		.uleb128 0x1
 12885 0ae8 50       		.byte	0x50
 12886 0ae9 9F       		.byte	0x9f
 12887 0aea 00000000 		.4byte	0
 12888 0aee 00000000 		.4byte	0
 12889              	.LLST70:
 12890 0af2 00000000 		.4byte	.LVL130
ARM GAS  C:\Users\164\AppData\Local\Temp\ccvDnxKa.s 			page 266


 12891 0af6 06000000 		.4byte	.LVL131
 12892 0afa 0100     		.2byte	0x1
 12893 0afc 51       		.byte	0x51
 12894 0afd 06000000 		.4byte	.LVL131
 12895 0b01 20000000 		.4byte	.LFE109
 12896 0b05 0100     		.2byte	0x1
 12897 0b07 54       		.byte	0x54
 12898 0b08 00000000 		.4byte	0
 12899 0b0c 00000000 		.4byte	0
 12900              	.LLST71:
 12901 0b10 00000000 		.4byte	.LVL130
 12902 0b14 0B000000 		.4byte	.LVL133-1
 12903 0b18 0100     		.2byte	0x1
 12904 0b1a 52       		.byte	0x52
 12905 0b1b 0B000000 		.4byte	.LVL133-1
 12906 0b1f 20000000 		.4byte	.LFE109
 12907 0b23 0400     		.2byte	0x4
 12908 0b25 F3       		.byte	0xf3
 12909 0b26 01       		.uleb128 0x1
 12910 0b27 52       		.byte	0x52
 12911 0b28 9F       		.byte	0x9f
 12912 0b29 00000000 		.4byte	0
 12913 0b2d 00000000 		.4byte	0
 12914              	.LLST72:
 12915 0b31 0E000000 		.4byte	.LVL134
 12916 0b35 10000000 		.4byte	.LVL135
 12917 0b39 0100     		.2byte	0x1
 12918 0b3b 50       		.byte	0x50
 12919 0b3c 10000000 		.4byte	.LVL135
 12920 0b40 20000000 		.4byte	.LFE109
 12921 0b44 0100     		.2byte	0x1
 12922 0b46 55       		.byte	0x55
 12923 0b47 00000000 		.4byte	0
 12924 0b4b 00000000 		.4byte	0
 12925              	.LLST73:
 12926 0b4f 00000000 		.4byte	.LVL137
 12927 0b53 20000000 		.4byte	.LVL141
 12928 0b57 0100     		.2byte	0x1
 12929 0b59 50       		.byte	0x50
 12930 0b5a 20000000 		.4byte	.LVL141
 12931 0b5e 2E000000 		.4byte	.LVL144
 12932 0b62 0400     		.2byte	0x4
 12933 0b64 F3       		.byte	0xf3
 12934 0b65 01       		.uleb128 0x1
 12935 0b66 50       		.byte	0x50
 12936 0b67 9F       		.byte	0x9f
 12937 0b68 2E000000 		.4byte	.LVL144
 12938 0b6c 32000000 		.4byte	.LVL146
 12939 0b70 0100     		.2byte	0x1
 12940 0b72 50       		.byte	0x50
 12941 0b73 32000000 		.4byte	.LVL146
 12942 0b77 60000000 		.4byte	.LFE105
 12943 0b7b 0400     		.2byte	0x4
 12944 0b7d F3       		.byte	0xf3
 12945 0b7e 01       		.uleb128 0x1
 12946 0b7f 50       		.byte	0x50
 12947 0b80 9F       		.byte	0x9f
ARM GAS  C:\Users\164\AppData\Local\Temp\ccvDnxKa.s 			page 267


 12948 0b81 00000000 		.4byte	0
 12949 0b85 00000000 		.4byte	0
 12950              	.LLST74:
 12951 0b89 00000000 		.4byte	.LVL137
 12952 0b8d 23000000 		.4byte	.LVL142-1
 12953 0b91 0100     		.2byte	0x1
 12954 0b93 51       		.byte	0x51
 12955 0b94 23000000 		.4byte	.LVL142-1
 12956 0b98 2E000000 		.4byte	.LVL144
 12957 0b9c 0100     		.2byte	0x1
 12958 0b9e 55       		.byte	0x55
 12959 0b9f 2E000000 		.4byte	.LVL144
 12960 0ba3 30000000 		.4byte	.LVL145
 12961 0ba7 0100     		.2byte	0x1
 12962 0ba9 51       		.byte	0x51
 12963 0baa 30000000 		.4byte	.LVL145
 12964 0bae 5A000000 		.4byte	.LVL149
 12965 0bb2 0100     		.2byte	0x1
 12966 0bb4 55       		.byte	0x55
 12967 0bb5 5A000000 		.4byte	.LVL149
 12968 0bb9 60000000 		.4byte	.LFE105
 12969 0bbd 0400     		.2byte	0x4
 12970 0bbf F3       		.byte	0xf3
 12971 0bc0 01       		.uleb128 0x1
 12972 0bc1 51       		.byte	0x51
 12973 0bc2 9F       		.byte	0x9f
 12974 0bc3 00000000 		.4byte	0
 12975 0bc7 00000000 		.4byte	0
 12976              	.LLST75:
 12977 0bcb 00000000 		.4byte	.LVL137
 12978 0bcf 0A000000 		.4byte	.LVL139
 12979 0bd3 0100     		.2byte	0x1
 12980 0bd5 52       		.byte	0x52
 12981 0bd6 0A000000 		.4byte	.LVL139
 12982 0bda 60000000 		.4byte	.LFE105
 12983 0bde 0400     		.2byte	0x4
 12984 0be0 F3       		.byte	0xf3
 12985 0be1 01       		.uleb128 0x1
 12986 0be2 52       		.byte	0x52
 12987 0be3 9F       		.byte	0x9f
 12988 0be4 00000000 		.4byte	0
 12989 0be8 00000000 		.4byte	0
 12990              	.LLST76:
 12991 0bec 08000000 		.4byte	.LVL138
 12992 0bf0 5A000000 		.4byte	.LVL149
 12993 0bf4 0100     		.2byte	0x1
 12994 0bf6 54       		.byte	0x54
 12995 0bf7 00000000 		.4byte	0
 12996 0bfb 00000000 		.4byte	0
 12997              	.LLST77:
 12998 0bff 36000000 		.4byte	.LVL147
 12999 0c03 3E000000 		.4byte	.LVL148
 13000 0c07 0100     		.2byte	0x1
 13001 0c09 50       		.byte	0x50
 13002 0c0a 3E000000 		.4byte	.LVL148
 13003 0c0e 60000000 		.4byte	.LFE105
 13004 0c12 0100     		.2byte	0x1
ARM GAS  C:\Users\164\AppData\Local\Temp\ccvDnxKa.s 			page 268


 13005 0c14 53       		.byte	0x53
 13006 0c15 00000000 		.4byte	0
 13007 0c19 00000000 		.4byte	0
 13008              	.LLST78:
 13009 0c1d 00000000 		.4byte	.LVL150
 13010 0c21 0E000000 		.4byte	.LVL153
 13011 0c25 0100     		.2byte	0x1
 13012 0c27 50       		.byte	0x50
 13013 0c28 0E000000 		.4byte	.LVL153
 13014 0c2c 11000000 		.4byte	.LVL154-1
 13015 0c30 0100     		.2byte	0x1
 13016 0c32 51       		.byte	0x51
 13017 0c33 11000000 		.4byte	.LVL154-1
 13018 0c37 1E000000 		.4byte	.LFE126
 13019 0c3b 0400     		.2byte	0x4
 13020 0c3d F3       		.byte	0xf3
 13021 0c3e 01       		.uleb128 0x1
 13022 0c3f 50       		.byte	0x50
 13023 0c40 9F       		.byte	0x9f
 13024 0c41 00000000 		.4byte	0
 13025 0c45 00000000 		.4byte	0
 13026              	.LLST79:
 13027 0c49 00000000 		.4byte	.LVL150
 13028 0c4d 0C000000 		.4byte	.LVL152
 13029 0c51 0100     		.2byte	0x1
 13030 0c53 51       		.byte	0x51
 13031 0c54 0C000000 		.4byte	.LVL152
 13032 0c58 1E000000 		.4byte	.LFE126
 13033 0c5c 0100     		.2byte	0x1
 13034 0c5e 55       		.byte	0x55
 13035 0c5f 00000000 		.4byte	0
 13036 0c63 00000000 		.4byte	0
 13037              	.LLST80:
 13038 0c67 00000000 		.4byte	.LVL150
 13039 0c6b 0A000000 		.4byte	.LVL151
 13040 0c6f 0100     		.2byte	0x1
 13041 0c71 52       		.byte	0x52
 13042 0c72 0A000000 		.4byte	.LVL151
 13043 0c76 1E000000 		.4byte	.LFE126
 13044 0c7a 0400     		.2byte	0x4
 13045 0c7c F3       		.byte	0xf3
 13046 0c7d 01       		.uleb128 0x1
 13047 0c7e 52       		.byte	0x52
 13048 0c7f 9F       		.byte	0x9f
 13049 0c80 00000000 		.4byte	0
 13050 0c84 00000000 		.4byte	0
 13051              	.LLST81:
 13052 0c88 00000000 		.4byte	.LVL160
 13053 0c8c 2C000000 		.4byte	.LVL161
 13054 0c90 0100     		.2byte	0x1
 13055 0c92 50       		.byte	0x50
 13056 0c93 2C000000 		.4byte	.LVL161
 13057 0c97 2E000000 		.4byte	.LVL162
 13058 0c9b 0400     		.2byte	0x4
 13059 0c9d F3       		.byte	0xf3
 13060 0c9e 01       		.uleb128 0x1
 13061 0c9f 50       		.byte	0x50
ARM GAS  C:\Users\164\AppData\Local\Temp\ccvDnxKa.s 			page 269


 13062 0ca0 9F       		.byte	0x9f
 13063 0ca1 2E000000 		.4byte	.LVL162
 13064 0ca5 32000000 		.4byte	.LVL163
 13065 0ca9 0100     		.2byte	0x1
 13066 0cab 50       		.byte	0x50
 13067 0cac 32000000 		.4byte	.LVL163
 13068 0cb0 34000000 		.4byte	.LVL164
 13069 0cb4 0400     		.2byte	0x4
 13070 0cb6 F3       		.byte	0xf3
 13071 0cb7 01       		.uleb128 0x1
 13072 0cb8 50       		.byte	0x50
 13073 0cb9 9F       		.byte	0x9f
 13074 0cba 34000000 		.4byte	.LVL164
 13075 0cbe 38000000 		.4byte	.LVL165
 13076 0cc2 0100     		.2byte	0x1
 13077 0cc4 50       		.byte	0x50
 13078 0cc5 38000000 		.4byte	.LVL165
 13079 0cc9 3A000000 		.4byte	.LVL166
 13080 0ccd 0400     		.2byte	0x4
 13081 0ccf F3       		.byte	0xf3
 13082 0cd0 01       		.uleb128 0x1
 13083 0cd1 50       		.byte	0x50
 13084 0cd2 9F       		.byte	0x9f
 13085 0cd3 3A000000 		.4byte	.LVL166
 13086 0cd7 3E000000 		.4byte	.LVL167
 13087 0cdb 0100     		.2byte	0x1
 13088 0cdd 50       		.byte	0x50
 13089 0cde 3E000000 		.4byte	.LVL167
 13090 0ce2 40000000 		.4byte	.LVL168
 13091 0ce6 0400     		.2byte	0x4
 13092 0ce8 F3       		.byte	0xf3
 13093 0ce9 01       		.uleb128 0x1
 13094 0cea 50       		.byte	0x50
 13095 0ceb 9F       		.byte	0x9f
 13096 0cec 40000000 		.4byte	.LVL168
 13097 0cf0 44000000 		.4byte	.LVL169
 13098 0cf4 0100     		.2byte	0x1
 13099 0cf6 50       		.byte	0x50
 13100 0cf7 44000000 		.4byte	.LVL169
 13101 0cfb 46000000 		.4byte	.LVL170
 13102 0cff 0400     		.2byte	0x4
 13103 0d01 F3       		.byte	0xf3
 13104 0d02 01       		.uleb128 0x1
 13105 0d03 50       		.byte	0x50
 13106 0d04 9F       		.byte	0x9f
 13107 0d05 46000000 		.4byte	.LVL170
 13108 0d09 4A000000 		.4byte	.LVL171
 13109 0d0d 0100     		.2byte	0x1
 13110 0d0f 50       		.byte	0x50
 13111 0d10 4A000000 		.4byte	.LVL171
 13112 0d14 4C000000 		.4byte	.LVL172
 13113 0d18 0400     		.2byte	0x4
 13114 0d1a F3       		.byte	0xf3
 13115 0d1b 01       		.uleb128 0x1
 13116 0d1c 50       		.byte	0x50
 13117 0d1d 9F       		.byte	0x9f
 13118 0d1e 4C000000 		.4byte	.LVL172
ARM GAS  C:\Users\164\AppData\Local\Temp\ccvDnxKa.s 			page 270


 13119 0d22 50000000 		.4byte	.LVL173
 13120 0d26 0100     		.2byte	0x1
 13121 0d28 50       		.byte	0x50
 13122 0d29 50000000 		.4byte	.LVL173
 13123 0d2d 52000000 		.4byte	.LVL174
 13124 0d31 0400     		.2byte	0x4
 13125 0d33 F3       		.byte	0xf3
 13126 0d34 01       		.uleb128 0x1
 13127 0d35 50       		.byte	0x50
 13128 0d36 9F       		.byte	0x9f
 13129 0d37 52000000 		.4byte	.LVL174
 13130 0d3b 54000000 		.4byte	.LVL175
 13131 0d3f 0100     		.2byte	0x1
 13132 0d41 50       		.byte	0x50
 13133 0d42 54000000 		.4byte	.LVL175
 13134 0d46 56000000 		.4byte	.LVL176
 13135 0d4a 0400     		.2byte	0x4
 13136 0d4c F3       		.byte	0xf3
 13137 0d4d 01       		.uleb128 0x1
 13138 0d4e 50       		.byte	0x50
 13139 0d4f 9F       		.byte	0x9f
 13140 0d50 56000000 		.4byte	.LVL176
 13141 0d54 5A000000 		.4byte	.LVL177
 13142 0d58 0100     		.2byte	0x1
 13143 0d5a 50       		.byte	0x50
 13144 0d5b 5A000000 		.4byte	.LVL177
 13145 0d5f 5C000000 		.4byte	.LVL178
 13146 0d63 0400     		.2byte	0x4
 13147 0d65 F3       		.byte	0xf3
 13148 0d66 01       		.uleb128 0x1
 13149 0d67 50       		.byte	0x50
 13150 0d68 9F       		.byte	0x9f
 13151 0d69 5C000000 		.4byte	.LVL178
 13152 0d6d 60000000 		.4byte	.LVL179
 13153 0d71 0100     		.2byte	0x1
 13154 0d73 50       		.byte	0x50
 13155 0d74 60000000 		.4byte	.LVL179
 13156 0d78 62000000 		.4byte	.LVL180
 13157 0d7c 0400     		.2byte	0x4
 13158 0d7e F3       		.byte	0xf3
 13159 0d7f 01       		.uleb128 0x1
 13160 0d80 50       		.byte	0x50
 13161 0d81 9F       		.byte	0x9f
 13162 0d82 62000000 		.4byte	.LVL180
 13163 0d86 66000000 		.4byte	.LVL181
 13164 0d8a 0100     		.2byte	0x1
 13165 0d8c 50       		.byte	0x50
 13166 0d8d 66000000 		.4byte	.LVL181
 13167 0d91 68000000 		.4byte	.LVL182
 13168 0d95 0400     		.2byte	0x4
 13169 0d97 F3       		.byte	0xf3
 13170 0d98 01       		.uleb128 0x1
 13171 0d99 50       		.byte	0x50
 13172 0d9a 9F       		.byte	0x9f
 13173 0d9b 68000000 		.4byte	.LVL182
 13174 0d9f 6C000000 		.4byte	.LVL183
 13175 0da3 0100     		.2byte	0x1
ARM GAS  C:\Users\164\AppData\Local\Temp\ccvDnxKa.s 			page 271


 13176 0da5 50       		.byte	0x50
 13177 0da6 6C000000 		.4byte	.LVL183
 13178 0daa 6E000000 		.4byte	.LVL184
 13179 0dae 0400     		.2byte	0x4
 13180 0db0 F3       		.byte	0xf3
 13181 0db1 01       		.uleb128 0x1
 13182 0db2 50       		.byte	0x50
 13183 0db3 9F       		.byte	0x9f
 13184 0db4 6E000000 		.4byte	.LVL184
 13185 0db8 72000000 		.4byte	.LVL185
 13186 0dbc 0100     		.2byte	0x1
 13187 0dbe 50       		.byte	0x50
 13188 0dbf 72000000 		.4byte	.LVL185
 13189 0dc3 74000000 		.4byte	.LVL186
 13190 0dc7 0400     		.2byte	0x4
 13191 0dc9 F3       		.byte	0xf3
 13192 0dca 01       		.uleb128 0x1
 13193 0dcb 50       		.byte	0x50
 13194 0dcc 9F       		.byte	0x9f
 13195 0dcd 74000000 		.4byte	.LVL186
 13196 0dd1 78000000 		.4byte	.LVL187
 13197 0dd5 0100     		.2byte	0x1
 13198 0dd7 50       		.byte	0x50
 13199 0dd8 78000000 		.4byte	.LVL187
 13200 0ddc AC000000 		.4byte	.LFE98
 13201 0de0 0400     		.2byte	0x4
 13202 0de2 F3       		.byte	0xf3
 13203 0de3 01       		.uleb128 0x1
 13204 0de4 50       		.byte	0x50
 13205 0de5 9F       		.byte	0x9f
 13206 0de6 00000000 		.4byte	0
 13207 0dea 00000000 		.4byte	0
 13208              	.LLST82:
 13209 0dee 2C000000 		.4byte	.LVL161
 13210 0df2 2E000000 		.4byte	.LVL162
 13211 0df6 0100     		.2byte	0x1
 13212 0df8 50       		.byte	0x50
 13213 0df9 32000000 		.4byte	.LVL163
 13214 0dfd 34000000 		.4byte	.LVL164
 13215 0e01 0100     		.2byte	0x1
 13216 0e03 50       		.byte	0x50
 13217 0e04 38000000 		.4byte	.LVL165
 13218 0e08 3A000000 		.4byte	.LVL166
 13219 0e0c 0100     		.2byte	0x1
 13220 0e0e 50       		.byte	0x50
 13221 0e0f 3E000000 		.4byte	.LVL167
 13222 0e13 40000000 		.4byte	.LVL168
 13223 0e17 0100     		.2byte	0x1
 13224 0e19 50       		.byte	0x50
 13225 0e1a 44000000 		.4byte	.LVL169
 13226 0e1e 46000000 		.4byte	.LVL170
 13227 0e22 0100     		.2byte	0x1
 13228 0e24 50       		.byte	0x50
 13229 0e25 4A000000 		.4byte	.LVL171
 13230 0e29 4C000000 		.4byte	.LVL172
 13231 0e2d 0100     		.2byte	0x1
 13232 0e2f 50       		.byte	0x50
ARM GAS  C:\Users\164\AppData\Local\Temp\ccvDnxKa.s 			page 272


 13233 0e30 50000000 		.4byte	.LVL173
 13234 0e34 52000000 		.4byte	.LVL174
 13235 0e38 0100     		.2byte	0x1
 13236 0e3a 50       		.byte	0x50
 13237 0e3b 54000000 		.4byte	.LVL175
 13238 0e3f 56000000 		.4byte	.LVL176
 13239 0e43 0100     		.2byte	0x1
 13240 0e45 50       		.byte	0x50
 13241 0e46 5A000000 		.4byte	.LVL177
 13242 0e4a 5C000000 		.4byte	.LVL178
 13243 0e4e 0100     		.2byte	0x1
 13244 0e50 50       		.byte	0x50
 13245 0e51 60000000 		.4byte	.LVL179
 13246 0e55 62000000 		.4byte	.LVL180
 13247 0e59 0100     		.2byte	0x1
 13248 0e5b 50       		.byte	0x50
 13249 0e5c 66000000 		.4byte	.LVL181
 13250 0e60 68000000 		.4byte	.LVL182
 13251 0e64 0100     		.2byte	0x1
 13252 0e66 50       		.byte	0x50
 13253 0e67 6C000000 		.4byte	.LVL183
 13254 0e6b 6E000000 		.4byte	.LVL184
 13255 0e6f 0100     		.2byte	0x1
 13256 0e71 50       		.byte	0x50
 13257 0e72 72000000 		.4byte	.LVL185
 13258 0e76 74000000 		.4byte	.LVL186
 13259 0e7a 0100     		.2byte	0x1
 13260 0e7c 50       		.byte	0x50
 13261 0e7d 78000000 		.4byte	.LVL187
 13262 0e81 AC000000 		.4byte	.LFE98
 13263 0e85 0100     		.2byte	0x1
 13264 0e87 50       		.byte	0x50
 13265 0e88 00000000 		.4byte	0
 13266 0e8c 00000000 		.4byte	0
 13267              	.LLST83:
 13268 0e90 00000000 		.4byte	.LVL188
 13269 0e94 19000000 		.4byte	.LVL189-1
 13270 0e98 0100     		.2byte	0x1
 13271 0e9a 50       		.byte	0x50
 13272 0e9b 19000000 		.4byte	.LVL189-1
 13273 0e9f 36000000 		.4byte	.LFE112
 13274 0ea3 0400     		.2byte	0x4
 13275 0ea5 F3       		.byte	0xf3
 13276 0ea6 01       		.uleb128 0x1
 13277 0ea7 50       		.byte	0x50
 13278 0ea8 9F       		.byte	0x9f
 13279 0ea9 00000000 		.4byte	0
 13280 0ead 00000000 		.4byte	0
 13281              	.LLST84:
 13282 0eb1 00000000 		.4byte	.LVL188
 13283 0eb5 19000000 		.4byte	.LVL189-1
 13284 0eb9 0100     		.2byte	0x1
 13285 0ebb 51       		.byte	0x51
 13286 0ebc 19000000 		.4byte	.LVL189-1
 13287 0ec0 36000000 		.4byte	.LFE112
 13288 0ec4 0100     		.2byte	0x1
 13289 0ec6 56       		.byte	0x56
ARM GAS  C:\Users\164\AppData\Local\Temp\ccvDnxKa.s 			page 273


 13290 0ec7 00000000 		.4byte	0
 13291 0ecb 00000000 		.4byte	0
 13292              	.LLST85:
 13293 0ecf 00000000 		.4byte	.LVL188
 13294 0ed3 19000000 		.4byte	.LVL189-1
 13295 0ed7 0100     		.2byte	0x1
 13296 0ed9 52       		.byte	0x52
 13297 0eda 19000000 		.4byte	.LVL189-1
 13298 0ede 36000000 		.4byte	.LFE112
 13299 0ee2 0400     		.2byte	0x4
 13300 0ee4 F3       		.byte	0xf3
 13301 0ee5 01       		.uleb128 0x1
 13302 0ee6 52       		.byte	0x52
 13303 0ee7 9F       		.byte	0x9f
 13304 0ee8 00000000 		.4byte	0
 13305 0eec 00000000 		.4byte	0
 13306              	.LLST86:
 13307 0ef0 00000000 		.4byte	.LVL191
 13308 0ef4 4E000000 		.4byte	.LVL194
 13309 0ef8 0100     		.2byte	0x1
 13310 0efa 50       		.byte	0x50
 13311 0efb 4E000000 		.4byte	.LVL194
 13312 0eff 56000000 		.4byte	.LVL196
 13313 0f03 0100     		.2byte	0x1
 13314 0f05 54       		.byte	0x54
 13315 0f06 56000000 		.4byte	.LVL196
 13316 0f0a 5C000000 		.4byte	.LVL197
 13317 0f0e 0100     		.2byte	0x1
 13318 0f10 50       		.byte	0x50
 13319 0f11 5C000000 		.4byte	.LVL197
 13320 0f15 64000000 		.4byte	.LVL199
 13321 0f19 0100     		.2byte	0x1
 13322 0f1b 54       		.byte	0x54
 13323 0f1c 64000000 		.4byte	.LVL199
 13324 0f20 6A000000 		.4byte	.LVL200
 13325 0f24 0100     		.2byte	0x1
 13326 0f26 50       		.byte	0x50
 13327 0f27 6A000000 		.4byte	.LVL200
 13328 0f2b 72000000 		.4byte	.LVL202
 13329 0f2f 0100     		.2byte	0x1
 13330 0f31 54       		.byte	0x54
 13331 0f32 72000000 		.4byte	.LVL202
 13332 0f36 76000000 		.4byte	.LVL203
 13333 0f3a 0100     		.2byte	0x1
 13334 0f3c 50       		.byte	0x50
 13335 0f3d 76000000 		.4byte	.LVL203
 13336 0f41 7E000000 		.4byte	.LVL205
 13337 0f45 0100     		.2byte	0x1
 13338 0f47 54       		.byte	0x54
 13339 0f48 7E000000 		.4byte	.LVL205
 13340 0f4c 84000000 		.4byte	.LVL206
 13341 0f50 0100     		.2byte	0x1
 13342 0f52 50       		.byte	0x50
 13343 0f53 84000000 		.4byte	.LVL206
 13344 0f57 8C000000 		.4byte	.LVL208
 13345 0f5b 0100     		.2byte	0x1
 13346 0f5d 54       		.byte	0x54
ARM GAS  C:\Users\164\AppData\Local\Temp\ccvDnxKa.s 			page 274


 13347 0f5e 8C000000 		.4byte	.LVL208
 13348 0f62 90000000 		.4byte	.LVL209
 13349 0f66 0100     		.2byte	0x1
 13350 0f68 50       		.byte	0x50
 13351 0f69 90000000 		.4byte	.LVL209
 13352 0f6d 96000000 		.4byte	.LVL211
 13353 0f71 0100     		.2byte	0x1
 13354 0f73 54       		.byte	0x54
 13355 0f74 96000000 		.4byte	.LVL211
 13356 0f78 A8000000 		.4byte	.LVL214
 13357 0f7c 0400     		.2byte	0x4
 13358 0f7e F3       		.byte	0xf3
 13359 0f7f 01       		.uleb128 0x1
 13360 0f80 50       		.byte	0x50
 13361 0f81 9F       		.byte	0x9f
 13362 0f82 A8000000 		.4byte	.LVL214
 13363 0f86 AE000000 		.4byte	.LVL215
 13364 0f8a 0100     		.2byte	0x1
 13365 0f8c 50       		.byte	0x50
 13366 0f8d AE000000 		.4byte	.LVL215
 13367 0f91 B4000000 		.4byte	.LVL217
 13368 0f95 0100     		.2byte	0x1
 13369 0f97 54       		.byte	0x54
 13370 0f98 B4000000 		.4byte	.LVL217
 13371 0f9c C6000000 		.4byte	.LVL220
 13372 0fa0 0400     		.2byte	0x4
 13373 0fa2 F3       		.byte	0xf3
 13374 0fa3 01       		.uleb128 0x1
 13375 0fa4 50       		.byte	0x50
 13376 0fa5 9F       		.byte	0x9f
 13377 0fa6 C6000000 		.4byte	.LVL220
 13378 0faa CA000000 		.4byte	.LVL221
 13379 0fae 0100     		.2byte	0x1
 13380 0fb0 50       		.byte	0x50
 13381 0fb1 CA000000 		.4byte	.LVL221
 13382 0fb5 E4000000 		.4byte	.LVL225
 13383 0fb9 0100     		.2byte	0x1
 13384 0fbb 54       		.byte	0x54
 13385 0fbc E4000000 		.4byte	.LVL225
 13386 0fc0 E8000000 		.4byte	.LVL226
 13387 0fc4 0100     		.2byte	0x1
 13388 0fc6 50       		.byte	0x50
 13389 0fc7 E8000000 		.4byte	.LVL226
 13390 0fcb F0000000 		.4byte	.LVL228
 13391 0fcf 0100     		.2byte	0x1
 13392 0fd1 54       		.byte	0x54
 13393 0fd2 F0000000 		.4byte	.LVL228
 13394 0fd6 FC000000 		.4byte	.LVL230
 13395 0fda 0100     		.2byte	0x1
 13396 0fdc 50       		.byte	0x50
 13397 0fdd FC000000 		.4byte	.LVL230
 13398 0fe1 3E010000 		.4byte	.LVL241
 13399 0fe5 0100     		.2byte	0x1
 13400 0fe7 54       		.byte	0x54
 13401 0fe8 3E010000 		.4byte	.LVL241
 13402 0fec 46010000 		.4byte	.LVL243
 13403 0ff0 0100     		.2byte	0x1
ARM GAS  C:\Users\164\AppData\Local\Temp\ccvDnxKa.s 			page 275


 13404 0ff2 50       		.byte	0x50
 13405 0ff3 46010000 		.4byte	.LVL243
 13406 0ff7 60010000 		.4byte	.LVL248
 13407 0ffb 0100     		.2byte	0x1
 13408 0ffd 54       		.byte	0x54
 13409 0ffe 60010000 		.4byte	.LVL248
 13410 1002 68010000 		.4byte	.LVL249
 13411 1006 0100     		.2byte	0x1
 13412 1008 50       		.byte	0x50
 13413 1009 68010000 		.4byte	.LVL249
 13414 100d 92010000 		.4byte	.LVL256
 13415 1011 0100     		.2byte	0x1
 13416 1013 54       		.byte	0x54
 13417 1014 92010000 		.4byte	.LVL256
 13418 1018 AA010000 		.4byte	.LVL259
 13419 101c 0400     		.2byte	0x4
 13420 101e F3       		.byte	0xf3
 13421 101f 01       		.uleb128 0x1
 13422 1020 50       		.byte	0x50
 13423 1021 9F       		.byte	0x9f
 13424 1022 AA010000 		.4byte	.LVL259
 13425 1026 B6010000 		.4byte	.LVL261
 13426 102a 0100     		.2byte	0x1
 13427 102c 50       		.byte	0x50
 13428 102d B6010000 		.4byte	.LVL261
 13429 1031 D6010000 		.4byte	.LVL263
 13430 1035 0100     		.2byte	0x1
 13431 1037 54       		.byte	0x54
 13432 1038 D6010000 		.4byte	.LVL263
 13433 103c 1C020000 		.4byte	.LVL273
 13434 1040 0400     		.2byte	0x4
 13435 1042 F3       		.byte	0xf3
 13436 1043 01       		.uleb128 0x1
 13437 1044 50       		.byte	0x50
 13438 1045 9F       		.byte	0x9f
 13439 1046 1C020000 		.4byte	.LVL273
 13440 104a 1E020000 		.4byte	.LVL274
 13441 104e 0100     		.2byte	0x1
 13442 1050 50       		.byte	0x50
 13443 1051 1E020000 		.4byte	.LVL274
 13444 1055 26020000 		.4byte	.LVL276
 13445 1059 0100     		.2byte	0x1
 13446 105b 54       		.byte	0x54
 13447 105c 26020000 		.4byte	.LVL276
 13448 1060 28020000 		.4byte	.LVL277
 13449 1064 0100     		.2byte	0x1
 13450 1066 50       		.byte	0x50
 13451 1067 28020000 		.4byte	.LVL277
 13452 106b 30020000 		.4byte	.LVL278
 13453 106f 0100     		.2byte	0x1
 13454 1071 54       		.byte	0x54
 13455 1072 30020000 		.4byte	.LVL278
 13456 1076 64020000 		.4byte	.LFE95
 13457 107a 0400     		.2byte	0x4
 13458 107c F3       		.byte	0xf3
 13459 107d 01       		.uleb128 0x1
 13460 107e 50       		.byte	0x50
ARM GAS  C:\Users\164\AppData\Local\Temp\ccvDnxKa.s 			page 276


 13461 107f 9F       		.byte	0x9f
 13462 1080 00000000 		.4byte	0
 13463 1084 00000000 		.4byte	0
 13464              	.LLST87:
 13465 1088 06000000 		.4byte	.LVL192
 13466 108c 30020000 		.4byte	.LVL278
 13467 1090 0200     		.2byte	0x2
 13468 1092 30       		.byte	0x30
 13469 1093 9F       		.byte	0x9f
 13470 1094 30020000 		.4byte	.LVL278
 13471 1098 64020000 		.4byte	.LFE95
 13472 109c 0100     		.2byte	0x1
 13473 109e 50       		.byte	0x50
 13474 109f 00000000 		.4byte	0
 13475 10a3 00000000 		.4byte	0
 13476              	.LLST88:
 13477 10a7 48000000 		.4byte	.LVL193
 13478 10ab 56000000 		.4byte	.LVL196
 13479 10af 0600     		.2byte	0x6
 13480 10b1 03       		.byte	0x3
 13481 10b2 74000000 		.4byte	.LC10
 13482 10b6 9F       		.byte	0x9f
 13483 10b7 00000000 		.4byte	0
 13484 10bb 00000000 		.4byte	0
 13485              	.LLST89:
 13486 10bf 56000000 		.4byte	.LVL196
 13487 10c3 64000000 		.4byte	.LVL199
 13488 10c7 0600     		.2byte	0x6
 13489 10c9 03       		.byte	0x3
 13490 10ca 04000000 		.4byte	.LC1
 13491 10ce 9F       		.byte	0x9f
 13492 10cf 00000000 		.4byte	0
 13493 10d3 00000000 		.4byte	0
 13494              	.LLST90:
 13495 10d7 64000000 		.4byte	.LVL199
 13496 10db 72000000 		.4byte	.LVL202
 13497 10df 0600     		.2byte	0x6
 13498 10e1 03       		.byte	0x3
 13499 10e2 0C000000 		.4byte	.LC2
 13500 10e6 9F       		.byte	0x9f
 13501 10e7 00000000 		.4byte	0
 13502 10eb 00000000 		.4byte	0
 13503              	.LLST91:
 13504 10ef 8C000000 		.4byte	.LVL208
 13505 10f3 90000000 		.4byte	.LVL209
 13506 10f7 0100     		.2byte	0x1
 13507 10f9 50       		.byte	0x50
 13508 10fa 90000000 		.4byte	.LVL209
 13509 10fe 96000000 		.4byte	.LVL211
 13510 1102 0100     		.2byte	0x1
 13511 1104 54       		.byte	0x54
 13512 1105 00000000 		.4byte	0
 13513 1109 00000000 		.4byte	0
 13514              	.LLST92:
 13515 110d 96000000 		.4byte	.LVL211
 13516 1111 99000000 		.4byte	.LVL212-1
 13517 1115 0100     		.2byte	0x1
ARM GAS  C:\Users\164\AppData\Local\Temp\ccvDnxKa.s 			page 277


 13518 1117 50       		.byte	0x50
 13519 1118 99000000 		.4byte	.LVL212-1
 13520 111c A8000000 		.4byte	.LVL214
 13521 1120 0100     		.2byte	0x1
 13522 1122 54       		.byte	0x54
 13523 1123 00000000 		.4byte	0
 13524 1127 00000000 		.4byte	0
 13525              	.LLST93:
 13526 112b B4000000 		.4byte	.LVL217
 13527 112f B7000000 		.4byte	.LVL218-1
 13528 1133 0100     		.2byte	0x1
 13529 1135 50       		.byte	0x50
 13530 1136 B7000000 		.4byte	.LVL218-1
 13531 113a C6000000 		.4byte	.LVL220
 13532 113e 0100     		.2byte	0x1
 13533 1140 54       		.byte	0x54
 13534 1141 00000000 		.4byte	0
 13535 1145 00000000 		.4byte	0
 13536              	.LLST94:
 13537 1149 00010000 		.4byte	.LVL231
 13538 114d 04010000 		.4byte	.LVL232
 13539 1151 0200     		.2byte	0x2
 13540 1153 30       		.byte	0x30
 13541 1154 9F       		.byte	0x9f
 13542 1155 04010000 		.4byte	.LVL232
 13543 1159 3E010000 		.4byte	.LVL241
 13544 115d 0100     		.2byte	0x1
 13545 115f 55       		.byte	0x55
 13546 1160 00000000 		.4byte	0
 13547 1164 00000000 		.4byte	0
 13548              	.LLST95:
 13549 1168 F8000000 		.4byte	.LVL229
 13550 116c 00010000 		.4byte	.LVL231
 13551 1170 0200     		.2byte	0x2
 13552 1172 91       		.byte	0x91
 13553 1173 42       		.sleb128 -62
 13554 1174 00000000 		.4byte	0
 13555 1178 00000000 		.4byte	0
 13556              	.LLST96:
 13557 117c 06010000 		.4byte	.LVL233
 13558 1180 10010000 		.4byte	.LVL234
 13559 1184 0600     		.2byte	0x6
 13560 1186 03       		.byte	0x3
 13561 1187 94000000 		.4byte	.LC14
 13562 118b 9F       		.byte	0x9f
 13563 118c 00000000 		.4byte	0
 13564 1190 00000000 		.4byte	0
 13565              	.LLST97:
 13566 1194 22010000 		.4byte	.LVL237
 13567 1198 26010000 		.4byte	.LVL238
 13568 119c 0100     		.2byte	0x1
 13569 119e 54       		.byte	0x54
 13570 119f 00000000 		.4byte	0
 13571 11a3 00000000 		.4byte	0
 13572              	.LLST98:
 13573 11a7 32010000 		.4byte	.LVL239
 13574 11ab 3E010000 		.4byte	.LVL241
ARM GAS  C:\Users\164\AppData\Local\Temp\ccvDnxKa.s 			page 278


 13575 11af 0200     		.2byte	0x2
 13576 11b1 91       		.byte	0x91
 13577 11b2 44       		.sleb128 -60
 13578 11b3 00000000 		.4byte	0
 13579 11b7 00000000 		.4byte	0
 13580              	.LLST99:
 13581 11bb 3E010000 		.4byte	.LVL241
 13582 11bf 40010000 		.4byte	.LVL242
 13583 11c3 0100     		.2byte	0x1
 13584 11c5 50       		.byte	0x50
 13585 11c6 00000000 		.4byte	0
 13586 11ca 00000000 		.4byte	0
 13587              	.LLST100:
 13588 11ce 4A010000 		.4byte	.LVL244
 13589 11d2 4E010000 		.4byte	.LVL245
 13590 11d6 0100     		.2byte	0x1
 13591 11d8 54       		.byte	0x54
 13592 11d9 00000000 		.4byte	0
 13593 11dd 00000000 		.4byte	0
 13594              	.LLST101:
 13595 11e1 52010000 		.4byte	.LVL246
 13596 11e5 54010000 		.4byte	.LVL247
 13597 11e9 0100     		.2byte	0x1
 13598 11eb 54       		.byte	0x54
 13599 11ec 00000000 		.4byte	0
 13600 11f0 00000000 		.4byte	0
 13601              	.LLST102:
 13602 11f4 60010000 		.4byte	.LVL248
 13603 11f8 68010000 		.4byte	.LVL249
 13604 11fc 0100     		.2byte	0x1
 13605 11fe 50       		.byte	0x50
 13606 11ff 68010000 		.4byte	.LVL249
 13607 1203 6C010000 		.4byte	.LVL250
 13608 1207 0100     		.2byte	0x1
 13609 1209 54       		.byte	0x54
 13610 120a 00000000 		.4byte	0
 13611 120e 00000000 		.4byte	0
 13612              	.LLST103:
 13613 1212 72010000 		.4byte	.LVL251
 13614 1216 76010000 		.4byte	.LVL252
 13615 121a 0100     		.2byte	0x1
 13616 121c 54       		.byte	0x54
 13617 121d 00000000 		.4byte	0
 13618 1221 00000000 		.4byte	0
 13619              	.LLST104:
 13620 1225 7E010000 		.4byte	.LVL253
 13621 1229 8E010000 		.4byte	.LVL255
 13622 122d 0100     		.2byte	0x1
 13623 122f 55       		.byte	0x55
 13624 1230 00000000 		.4byte	0
 13625 1234 00000000 		.4byte	0
 13626              	.LLST105:
 13627 1238 8E010000 		.4byte	.LVL255
 13628 123c 92010000 		.4byte	.LVL256
 13629 1240 0100     		.2byte	0x1
 13630 1242 54       		.byte	0x54
 13631 1243 92010000 		.4byte	.LVL256
ARM GAS  C:\Users\164\AppData\Local\Temp\ccvDnxKa.s 			page 279


 13632 1247 9A010000 		.4byte	.LVL257
 13633 124b 0400     		.2byte	0x4
 13634 124d F3       		.byte	0xf3
 13635 124e 01       		.uleb128 0x1
 13636 124f 50       		.byte	0x50
 13637 1250 9F       		.byte	0x9f
 13638 1251 00000000 		.4byte	0
 13639 1255 00000000 		.4byte	0
 13640              	.LLST106:
 13641 1259 B2010000 		.4byte	.LVL260
 13642 125d BA010000 		.4byte	.LVL262
 13643 1261 0200     		.2byte	0x2
 13644 1263 91       		.byte	0x91
 13645 1264 43       		.sleb128 -61
 13646 1265 00000000 		.4byte	0
 13647 1269 00000000 		.4byte	0
 13648              	.LLST107:
 13649 126d BA010000 		.4byte	.LVL262
 13650 1271 D6010000 		.4byte	.LVL263
 13651 1275 0100     		.2byte	0x1
 13652 1277 54       		.byte	0x54
 13653 1278 D6010000 		.4byte	.LVL263
 13654 127c 1C020000 		.4byte	.LVL273
 13655 1280 0400     		.2byte	0x4
 13656 1282 F3       		.byte	0xf3
 13657 1283 01       		.uleb128 0x1
 13658 1284 50       		.byte	0x50
 13659 1285 9F       		.byte	0x9f
 13660 1286 00000000 		.4byte	0
 13661 128a 00000000 		.4byte	0
 13662              	.LLST108:
 13663 128e D6010000 		.4byte	.LVL263
 13664 1292 DC010000 		.4byte	.LVL264
 13665 1296 0300     		.2byte	0x3
 13666 1298 91       		.byte	0x91
 13667 1299 44       		.sleb128 -60
 13668 129a 9F       		.byte	0x9f
 13669 129b 00000000 		.4byte	0
 13670 129f 00000000 		.4byte	0
 13671              	.LLST109:
 13672 12a3 D6010000 		.4byte	.LVL263
 13673 12a7 DC010000 		.4byte	.LVL264
 13674 12ab 0100     		.2byte	0x1
 13675 12ad 54       		.byte	0x54
 13676 12ae 00000000 		.4byte	0
 13677 12b2 00000000 		.4byte	0
 13678              	.LLST110:
 13679 12b6 E2010000 		.4byte	.LVL265
 13680 12ba EC010000 		.4byte	.LVL266
 13681 12be 0600     		.2byte	0x6
 13682 12c0 03       		.byte	0x3
 13683 12c1 98000000 		.4byte	.LC15
 13684 12c5 9F       		.byte	0x9f
 13685 12c6 00000000 		.4byte	0
 13686 12ca 00000000 		.4byte	0
 13687              	.LLST111:
 13688 12ce F8010000 		.4byte	.LVL268
ARM GAS  C:\Users\164\AppData\Local\Temp\ccvDnxKa.s 			page 280


 13689 12d2 02020000 		.4byte	.LVL269
 13690 12d6 0600     		.2byte	0x6
 13691 12d8 03       		.byte	0x3
 13692 12d9 94000000 		.4byte	.LC14
 13693 12dd 9F       		.byte	0x9f
 13694 12de 00000000 		.4byte	0
 13695 12e2 00000000 		.4byte	0
 13696              	.LLST112:
 13697 12e6 02020000 		.4byte	.LVL269
 13698 12ea 04020000 		.4byte	.LVL270
 13699 12ee 0300     		.2byte	0x3
 13700 12f0 91       		.byte	0x91
 13701 12f1 44       		.sleb128 -60
 13702 12f2 9F       		.byte	0x9f
 13703 12f3 00000000 		.4byte	0
 13704 12f7 00000000 		.4byte	0
 13705              	.LLST113:
 13706 12fb 10020000 		.4byte	.LVL271
 13707 12ff 18020000 		.4byte	.LVL272
 13708 1303 0200     		.2byte	0x2
 13709 1305 91       		.byte	0x91
 13710 1306 50       		.sleb128 -48
 13711 1307 00000000 		.4byte	0
 13712 130b 00000000 		.4byte	0
 13713              	.LLST114:
 13714 130f 00000000 		.4byte	.LVL279
 13715 1313 0A000000 		.4byte	.LVL281
 13716 1317 0100     		.2byte	0x1
 13717 1319 50       		.byte	0x50
 13718 131a 0A000000 		.4byte	.LVL281
 13719 131e 1A000000 		.4byte	.LFE107
 13720 1322 0400     		.2byte	0x4
 13721 1324 F3       		.byte	0xf3
 13722 1325 01       		.uleb128 0x1
 13723 1326 50       		.byte	0x50
 13724 1327 9F       		.byte	0x9f
 13725 1328 00000000 		.4byte	0
 13726 132c 00000000 		.4byte	0
 13727              	.LLST115:
 13728 1330 00000000 		.4byte	.LVL279
 13729 1334 0A000000 		.4byte	.LVL281
 13730 1338 0100     		.2byte	0x1
 13731 133a 51       		.byte	0x51
 13732 133b 0A000000 		.4byte	.LVL281
 13733 133f 1A000000 		.4byte	.LFE107
 13734 1343 0100     		.2byte	0x1
 13735 1345 56       		.byte	0x56
 13736 1346 00000000 		.4byte	0
 13737 134a 00000000 		.4byte	0
 13738              	.LLST116:
 13739 134e 00000000 		.4byte	.LVL279
 13740 1352 0A000000 		.4byte	.LVL281
 13741 1356 0100     		.2byte	0x1
 13742 1358 52       		.byte	0x52
 13743 1359 0A000000 		.4byte	.LVL281
 13744 135d 1A000000 		.4byte	.LFE107
 13745 1361 0100     		.2byte	0x1
ARM GAS  C:\Users\164\AppData\Local\Temp\ccvDnxKa.s 			page 281


 13746 1363 55       		.byte	0x55
 13747 1364 00000000 		.4byte	0
 13748 1368 00000000 		.4byte	0
 13749              	.LLST117:
 13750 136c 06000000 		.4byte	.LVL280
 13751 1370 0A000000 		.4byte	.LVL281
 13752 1374 0200     		.2byte	0x2
 13753 1376 31       		.byte	0x31
 13754 1377 9F       		.byte	0x9f
 13755 1378 0A000000 		.4byte	.LVL281
 13756 137c 1A000000 		.4byte	.LFE107
 13757 1380 0100     		.2byte	0x1
 13758 1382 54       		.byte	0x54
 13759 1383 00000000 		.4byte	0
 13760 1387 00000000 		.4byte	0
 13761              	.LLST118:
 13762 138b 00000000 		.4byte	.LVL284
 13763 138f 32000000 		.4byte	.LVL286
 13764 1393 0100     		.2byte	0x1
 13765 1395 50       		.byte	0x50
 13766 1396 32000000 		.4byte	.LVL286
 13767 139a 38000000 		.4byte	.LVL288
 13768 139e 0100     		.2byte	0x1
 13769 13a0 55       		.byte	0x55
 13770 13a1 38000000 		.4byte	.LVL288
 13771 13a5 3C000000 		.4byte	.LVL289
 13772 13a9 0100     		.2byte	0x1
 13773 13ab 50       		.byte	0x50
 13774 13ac 3C000000 		.4byte	.LVL289
 13775 13b0 58000000 		.4byte	.LVL295
 13776 13b4 0100     		.2byte	0x1
 13777 13b6 55       		.byte	0x55
 13778 13b7 58000000 		.4byte	.LVL295
 13779 13bb 64000000 		.4byte	.LVL297
 13780 13bf 0100     		.2byte	0x1
 13781 13c1 50       		.byte	0x50
 13782 13c2 64000000 		.4byte	.LVL297
 13783 13c6 B0000000 		.4byte	.LVL308
 13784 13ca 0100     		.2byte	0x1
 13785 13cc 55       		.byte	0x55
 13786 13cd B0000000 		.4byte	.LVL308
 13787 13d1 B8000000 		.4byte	.LVL309
 13788 13d5 0100     		.2byte	0x1
 13789 13d7 50       		.byte	0x50
 13790 13d8 B8000000 		.4byte	.LVL309
 13791 13dc EC000000 		.4byte	.LVL317
 13792 13e0 0100     		.2byte	0x1
 13793 13e2 55       		.byte	0x55
 13794 13e3 EC000000 		.4byte	.LVL317
 13795 13e7 F8000000 		.4byte	.LVL319
 13796 13eb 0400     		.2byte	0x4
 13797 13ed F3       		.byte	0xf3
 13798 13ee 01       		.uleb128 0x1
 13799 13ef 50       		.byte	0x50
 13800 13f0 9F       		.byte	0x9f
 13801 13f1 F8000000 		.4byte	.LVL319
 13802 13f5 FB000000 		.4byte	.LVL320-1
ARM GAS  C:\Users\164\AppData\Local\Temp\ccvDnxKa.s 			page 282


 13803 13f9 0100     		.2byte	0x1
 13804 13fb 50       		.byte	0x50
 13805 13fc FB000000 		.4byte	.LVL320-1
 13806 1400 FC000000 		.4byte	.LVL320
 13807 1404 0100     		.2byte	0x1
 13808 1406 55       		.byte	0x55
 13809 1407 FC000000 		.4byte	.LVL320
 13810 140b 1C010000 		.4byte	.LFE97
 13811 140f 0400     		.2byte	0x4
 13812 1411 F3       		.byte	0xf3
 13813 1412 01       		.uleb128 0x1
 13814 1413 50       		.byte	0x50
 13815 1414 9F       		.byte	0x9f
 13816 1415 00000000 		.4byte	0
 13817 1419 00000000 		.4byte	0
 13818              	.LLST119:
 13819 141d 2C000000 		.4byte	.LVL285
 13820 1421 38000000 		.4byte	.LVL288
 13821 1425 0600     		.2byte	0x6
 13822 1427 03       		.byte	0x3
 13823 1428 00000000 		.4byte	.LC0
 13824 142c 9F       		.byte	0x9f
 13825 142d 00000000 		.4byte	0
 13826 1431 00000000 		.4byte	0
 13827              	.LLST120:
 13828 1435 50000000 		.4byte	.LVL293
 13829 1439 55000000 		.4byte	.LVL294-1
 13830 143d 0100     		.2byte	0x1
 13831 143f 50       		.byte	0x50
 13832 1440 00000000 		.4byte	0
 13833 1444 00000000 		.4byte	0
 13834              	.LLST121:
 13835 1448 38000000 		.4byte	.LVL288
 13836 144c 3C000000 		.4byte	.LVL289
 13837 1450 0100     		.2byte	0x1
 13838 1452 50       		.byte	0x50
 13839 1453 3C000000 		.4byte	.LVL289
 13840 1457 42000000 		.4byte	.LVL291
 13841 145b 0100     		.2byte	0x1
 13842 145d 55       		.byte	0x55
 13843 145e 00000000 		.4byte	0
 13844 1462 00000000 		.4byte	0
 13845              	.LLST122:
 13846 1466 6C000000 		.4byte	.LVL299
 13847 146a 70000000 		.4byte	.LVL300
 13848 146e 0200     		.2byte	0x2
 13849 1470 30       		.byte	0x30
 13850 1471 9F       		.byte	0x9f
 13851 1472 70000000 		.4byte	.LVL300
 13852 1476 B0000000 		.4byte	.LVL308
 13853 147a 0100     		.2byte	0x1
 13854 147c 54       		.byte	0x54
 13855 147d 00000000 		.4byte	0
 13856 1481 00000000 		.4byte	0
 13857              	.LLST123:
 13858 1485 60000000 		.4byte	.LVL296
 13859 1489 68000000 		.4byte	.LVL298
ARM GAS  C:\Users\164\AppData\Local\Temp\ccvDnxKa.s 			page 283


 13860 148d 0200     		.2byte	0x2
 13861 148f 91       		.byte	0x91
 13862 1490 4E       		.sleb128 -50
 13863 1491 00000000 		.4byte	0
 13864 1495 00000000 		.4byte	0
 13865              	.LLST124:
 13866 1499 68000000 		.4byte	.LVL298
 13867 149d 6C000000 		.4byte	.LVL299
 13868 14a1 0100     		.2byte	0x1
 13869 14a3 55       		.byte	0x55
 13870 14a4 00000000 		.4byte	0
 13871 14a8 00000000 		.4byte	0
 13872              	.LLST125:
 13873 14ac 8C000000 		.4byte	.LVL302
 13874 14b0 94000000 		.4byte	.LVL303
 13875 14b4 0200     		.2byte	0x2
 13876 14b6 91       		.byte	0x91
 13877 14b7 4F       		.sleb128 -49
 13878 14b8 00000000 		.4byte	0
 13879 14bc 00000000 		.4byte	0
 13880              	.LLST126:
 13881 14c0 96000000 		.4byte	.LVL304
 13882 14c4 9A000000 		.4byte	.LVL305
 13883 14c8 0100     		.2byte	0x1
 13884 14ca 55       		.byte	0x55
 13885 14cb 00000000 		.4byte	0
 13886 14cf 00000000 		.4byte	0
 13887              	.LLST127:
 13888 14d3 A6000000 		.4byte	.LVL306
 13889 14d7 B0000000 		.4byte	.LVL308
 13890 14db 0200     		.2byte	0x2
 13891 14dd 91       		.byte	0x91
 13892 14de 50       		.sleb128 -48
 13893 14df 00000000 		.4byte	0
 13894 14e3 00000000 		.4byte	0
 13895              	.LLST128:
 13896 14e7 B0000000 		.4byte	.LVL308
 13897 14eb B8000000 		.4byte	.LVL309
 13898 14ef 0100     		.2byte	0x1
 13899 14f1 50       		.byte	0x50
 13900 14f2 B8000000 		.4byte	.LVL309
 13901 14f6 BC000000 		.4byte	.LVL310
 13902 14fa 0100     		.2byte	0x1
 13903 14fc 55       		.byte	0x55
 13904 14fd 00000000 		.4byte	0
 13905 1501 00000000 		.4byte	0
 13906              	.LLST129:
 13907 1505 C2000000 		.4byte	.LVL311
 13908 1509 C6000000 		.4byte	.LVL312
 13909 150d 0100     		.2byte	0x1
 13910 150f 55       		.byte	0x55
 13911 1510 00000000 		.4byte	0
 13912 1514 00000000 		.4byte	0
 13913              	.LLST130:
 13914 1518 CE000000 		.4byte	.LVL313
 13915 151c DE000000 		.4byte	.LVL315
 13916 1520 0100     		.2byte	0x1
ARM GAS  C:\Users\164\AppData\Local\Temp\ccvDnxKa.s 			page 284


 13917 1522 54       		.byte	0x54
 13918 1523 00000000 		.4byte	0
 13919 1527 00000000 		.4byte	0
 13920              	.LLST131:
 13921 152b DE000000 		.4byte	.LVL315
 13922 152f EA000000 		.4byte	.LVL316
 13923 1533 0100     		.2byte	0x1
 13924 1535 55       		.byte	0x55
 13925 1536 00000000 		.4byte	0
 13926 153a 00000000 		.4byte	0
 13927              	.LLST132:
 13928 153e 00000000 		.4byte	.LVL321
 13929 1542 10000000 		.4byte	.LVL322
 13930 1546 0100     		.2byte	0x1
 13931 1548 50       		.byte	0x50
 13932 1549 10000000 		.4byte	.LVL322
 13933 154d 36000000 		.4byte	.LVL328
 13934 1551 0100     		.2byte	0x1
 13935 1553 55       		.byte	0x55
 13936 1554 36000000 		.4byte	.LVL328
 13937 1558 38000000 		.4byte	.LVL329
 13938 155c 0100     		.2byte	0x1
 13939 155e 50       		.byte	0x50
 13940 155f 38000000 		.4byte	.LVL329
 13941 1563 44000000 		.4byte	.LVL331
 13942 1567 0100     		.2byte	0x1
 13943 1569 55       		.byte	0x55
 13944 156a 44000000 		.4byte	.LVL331
 13945 156e 47000000 		.4byte	.LVL332-1
 13946 1572 0100     		.2byte	0x1
 13947 1574 50       		.byte	0x50
 13948 1575 47000000 		.4byte	.LVL332-1
 13949 1579 4C000000 		.4byte	.LFE96
 13950 157d 0100     		.2byte	0x1
 13951 157f 55       		.byte	0x55
 13952 1580 00000000 		.4byte	0
 13953 1584 00000000 		.4byte	0
 13954              	.LLST133:
 13955 1588 10000000 		.4byte	.LVL322
 13956 158c 36000000 		.4byte	.LVL328
 13957 1590 0100     		.2byte	0x1
 13958 1592 54       		.byte	0x54
 13959 1593 38000000 		.4byte	.LVL329
 13960 1597 44000000 		.4byte	.LVL331
 13961 159b 0100     		.2byte	0x1
 13962 159d 54       		.byte	0x54
 13963 159e 00000000 		.4byte	0
 13964 15a2 00000000 		.4byte	0
 13965              	.LLST134:
 13966 15a6 1A000000 		.4byte	.LVL323
 13967 15aa 22000000 		.4byte	.LVL324
 13968 15ae 0200     		.2byte	0x2
 13969 15b0 91       		.byte	0x91
 13970 15b1 5F       		.sleb128 -33
 13971 15b2 00000000 		.4byte	0
 13972 15b6 00000000 		.4byte	0
 13973              	.LLST135:
ARM GAS  C:\Users\164\AppData\Local\Temp\ccvDnxKa.s 			page 285


 13974 15ba 38000000 		.4byte	.LVL329
 13975 15be 3C000000 		.4byte	.LVL330
 13976 15c2 0100     		.2byte	0x1
 13977 15c4 55       		.byte	0x55
 13978 15c5 00000000 		.4byte	0
 13979 15c9 00000000 		.4byte	0
 13980              	.LLST136:
 13981 15cd 00000000 		.4byte	.LVL333
 13982 15d1 08000000 		.4byte	.LVL334
 13983 15d5 0100     		.2byte	0x1
 13984 15d7 50       		.byte	0x50
 13985 15d8 08000000 		.4byte	.LVL334
 13986 15dc 26000000 		.4byte	.LVL339
 13987 15e0 0400     		.2byte	0x4
 13988 15e2 F3       		.byte	0xf3
 13989 15e3 01       		.uleb128 0x1
 13990 15e4 50       		.byte	0x50
 13991 15e5 9F       		.byte	0x9f
 13992 15e6 26000000 		.4byte	.LVL339
 13993 15ea 2C000000 		.4byte	.LVL340
 13994 15ee 0100     		.2byte	0x1
 13995 15f0 50       		.byte	0x50
 13996 15f1 2C000000 		.4byte	.LVL340
 13997 15f5 32000000 		.4byte	.LVL341
 13998 15f9 0400     		.2byte	0x4
 13999 15fb F3       		.byte	0xf3
 14000 15fc 01       		.uleb128 0x1
 14001 15fd 50       		.byte	0x50
 14002 15fe 9F       		.byte	0x9f
 14003 15ff 32000000 		.4byte	.LVL341
 14004 1603 3E000000 		.4byte	.LVL345
 14005 1607 0100     		.2byte	0x1
 14006 1609 50       		.byte	0x50
 14007 160a 3E000000 		.4byte	.LVL345
 14008 160e 46000000 		.4byte	.LFE106
 14009 1612 0400     		.2byte	0x4
 14010 1614 F3       		.byte	0xf3
 14011 1615 01       		.uleb128 0x1
 14012 1616 50       		.byte	0x50
 14013 1617 9F       		.byte	0x9f
 14014 1618 00000000 		.4byte	0
 14015 161c 00000000 		.4byte	0
 14016              	.LLST137:
 14017 1620 00000000 		.4byte	.LVL333
 14018 1624 08000000 		.4byte	.LVL334
 14019 1628 0100     		.2byte	0x1
 14020 162a 51       		.byte	0x51
 14021 162b 08000000 		.4byte	.LVL334
 14022 162f 26000000 		.4byte	.LVL339
 14023 1633 0100     		.2byte	0x1
 14024 1635 56       		.byte	0x56
 14025 1636 26000000 		.4byte	.LVL339
 14026 163a 2C000000 		.4byte	.LVL340
 14027 163e 0100     		.2byte	0x1
 14028 1640 51       		.byte	0x51
 14029 1641 2C000000 		.4byte	.LVL340
 14030 1645 32000000 		.4byte	.LVL341
ARM GAS  C:\Users\164\AppData\Local\Temp\ccvDnxKa.s 			page 286


 14031 1649 0100     		.2byte	0x1
 14032 164b 56       		.byte	0x56
 14033 164c 32000000 		.4byte	.LVL341
 14034 1650 34000000 		.4byte	.LVL342
 14035 1654 0100     		.2byte	0x1
 14036 1656 51       		.byte	0x51
 14037 1657 34000000 		.4byte	.LVL342
 14038 165b 46000000 		.4byte	.LFE106
 14039 165f 0400     		.2byte	0x4
 14040 1661 F3       		.byte	0xf3
 14041 1662 01       		.uleb128 0x1
 14042 1663 51       		.byte	0x51
 14043 1664 9F       		.byte	0x9f
 14044 1665 00000000 		.4byte	0
 14045 1669 00000000 		.4byte	0
 14046              	.LLST138:
 14047 166d 00000000 		.4byte	.LVL333
 14048 1671 08000000 		.4byte	.LVL334
 14049 1675 0100     		.2byte	0x1
 14050 1677 52       		.byte	0x52
 14051 1678 08000000 		.4byte	.LVL334
 14052 167c 26000000 		.4byte	.LVL339
 14053 1680 0100     		.2byte	0x1
 14054 1682 55       		.byte	0x55
 14055 1683 26000000 		.4byte	.LVL339
 14056 1687 2C000000 		.4byte	.LVL340
 14057 168b 0100     		.2byte	0x1
 14058 168d 52       		.byte	0x52
 14059 168e 2C000000 		.4byte	.LVL340
 14060 1692 32000000 		.4byte	.LVL341
 14061 1696 0100     		.2byte	0x1
 14062 1698 55       		.byte	0x55
 14063 1699 32000000 		.4byte	.LVL341
 14064 169d 3C000000 		.4byte	.LVL344
 14065 16a1 0100     		.2byte	0x1
 14066 16a3 52       		.byte	0x52
 14067 16a4 3C000000 		.4byte	.LVL344
 14068 16a8 46000000 		.4byte	.LFE106
 14069 16ac 0400     		.2byte	0x4
 14070 16ae F3       		.byte	0xf3
 14071 16af 01       		.uleb128 0x1
 14072 16b0 52       		.byte	0x52
 14073 16b1 9F       		.byte	0x9f
 14074 16b2 00000000 		.4byte	0
 14075 16b6 00000000 		.4byte	0
 14076              	.LLST139:
 14077 16ba 08000000 		.4byte	.LVL334
 14078 16be 26000000 		.4byte	.LVL339
 14079 16c2 0100     		.2byte	0x1
 14080 16c4 54       		.byte	0x54
 14081 16c5 2C000000 		.4byte	.LVL340
 14082 16c9 32000000 		.4byte	.LVL341
 14083 16cd 0100     		.2byte	0x1
 14084 16cf 54       		.byte	0x54
 14085 16d0 00000000 		.4byte	0
 14086 16d4 00000000 		.4byte	0
 14087              	.LLST140:
ARM GAS  C:\Users\164\AppData\Local\Temp\ccvDnxKa.s 			page 287


 14088 16d8 1A000000 		.4byte	.LVL336
 14089 16dc 22000000 		.4byte	.LVL337
 14090 16e0 0200     		.2byte	0x2
 14091 16e2 91       		.byte	0x91
 14092 16e3 6E       		.sleb128 -18
 14093 16e4 00000000 		.4byte	0
 14094 16e8 00000000 		.4byte	0
 14095              	.LLST141:
 14096 16ec 3A000000 		.4byte	.LVL343
 14097 16f0 42000000 		.4byte	.LVL346
 14098 16f4 0200     		.2byte	0x2
 14099 16f6 91       		.byte	0x91
 14100 16f7 6F       		.sleb128 -17
 14101 16f8 00000000 		.4byte	0
 14102 16fc 00000000 		.4byte	0
 14103              	.LLST142:
 14104 1700 00000000 		.4byte	.LVL347
 14105 1704 07000000 		.4byte	.LVL348-1
 14106 1708 0100     		.2byte	0x1
 14107 170a 50       		.byte	0x50
 14108 170b 07000000 		.4byte	.LVL348-1
 14109 170f 28000000 		.4byte	.LFE99
 14110 1713 0400     		.2byte	0x4
 14111 1715 F3       		.byte	0xf3
 14112 1716 01       		.uleb128 0x1
 14113 1717 50       		.byte	0x50
 14114 1718 9F       		.byte	0x9f
 14115 1719 00000000 		.4byte	0
 14116 171d 00000000 		.4byte	0
 14117              	.LLST143:
 14118 1721 00000000 		.4byte	.LVL347
 14119 1725 07000000 		.4byte	.LVL348-1
 14120 1729 0100     		.2byte	0x1
 14121 172b 51       		.byte	0x51
 14122 172c 07000000 		.4byte	.LVL348-1
 14123 1730 28000000 		.4byte	.LFE99
 14124 1734 0400     		.2byte	0x4
 14125 1736 F3       		.byte	0xf3
 14126 1737 01       		.uleb128 0x1
 14127 1738 51       		.byte	0x51
 14128 1739 9F       		.byte	0x9f
 14129 173a 00000000 		.4byte	0
 14130 173e 00000000 		.4byte	0
 14131              	.LLST144:
 14132 1742 00000000 		.4byte	.LVL347
 14133 1746 07000000 		.4byte	.LVL348-1
 14134 174a 0100     		.2byte	0x1
 14135 174c 52       		.byte	0x52
 14136 174d 07000000 		.4byte	.LVL348-1
 14137 1751 28000000 		.4byte	.LFE99
 14138 1755 0400     		.2byte	0x4
 14139 1757 F3       		.byte	0xf3
 14140 1758 01       		.uleb128 0x1
 14141 1759 52       		.byte	0x52
 14142 175a 9F       		.byte	0x9f
 14143 175b 00000000 		.4byte	0
 14144 175f 00000000 		.4byte	0
ARM GAS  C:\Users\164\AppData\Local\Temp\ccvDnxKa.s 			page 288


 14145              	.LLST145:
 14146 1763 08000000 		.4byte	.LVL348
 14147 1767 26000000 		.4byte	.LVL353
 14148 176b 0100     		.2byte	0x1
 14149 176d 50       		.byte	0x50
 14150 176e 00000000 		.4byte	0
 14151 1772 00000000 		.4byte	0
 14152              	.LLST146:
 14153 1776 0C000000 		.4byte	.LVL349
 14154 177a 1E000000 		.4byte	.LVL351
 14155 177e 0100     		.2byte	0x1
 14156 1780 53       		.byte	0x53
 14157 1781 24000000 		.4byte	.LVL352
 14158 1785 28000000 		.4byte	.LFE99
 14159 1789 0100     		.2byte	0x1
 14160 178b 53       		.byte	0x53
 14161 178c 00000000 		.4byte	0
 14162 1790 00000000 		.4byte	0
 14163              	.LLST147:
 14164 1794 00000000 		.4byte	.LVL354
 14165 1798 0E000000 		.4byte	.LVL356
 14166 179c 0100     		.2byte	0x1
 14167 179e 50       		.byte	0x50
 14168 179f 0E000000 		.4byte	.LVL356
 14169 17a3 7C000000 		.4byte	.LFE100
 14170 17a7 0400     		.2byte	0x4
 14171 17a9 F3       		.byte	0xf3
 14172 17aa 01       		.uleb128 0x1
 14173 17ab 50       		.byte	0x50
 14174 17ac 9F       		.byte	0x9f
 14175 17ad 00000000 		.4byte	0
 14176 17b1 00000000 		.4byte	0
 14177              	.LLST148:
 14178 17b5 00000000 		.4byte	.LVL354
 14179 17b9 11000000 		.4byte	.LVL357-1
 14180 17bd 0100     		.2byte	0x1
 14181 17bf 51       		.byte	0x51
 14182 17c0 11000000 		.4byte	.LVL357-1
 14183 17c4 7C000000 		.4byte	.LFE100
 14184 17c8 0400     		.2byte	0x4
 14185 17ca F3       		.byte	0xf3
 14186 17cb 01       		.uleb128 0x1
 14187 17cc 51       		.byte	0x51
 14188 17cd 9F       		.byte	0x9f
 14189 17ce 00000000 		.4byte	0
 14190 17d2 00000000 		.4byte	0
 14191              	.LLST149:
 14192 17d6 00000000 		.4byte	.LVL354
 14193 17da 0C000000 		.4byte	.LVL355
 14194 17de 0100     		.2byte	0x1
 14195 17e0 52       		.byte	0x52
 14196 17e1 0C000000 		.4byte	.LVL355
 14197 17e5 6C000000 		.4byte	.LVL366
 14198 17e9 0100     		.2byte	0x1
 14199 17eb 56       		.byte	0x56
 14200 17ec 00000000 		.4byte	0
 14201 17f0 00000000 		.4byte	0
ARM GAS  C:\Users\164\AppData\Local\Temp\ccvDnxKa.s 			page 289


 14202              	.LLST150:
 14203 17f4 14000000 		.4byte	.LVL358
 14204 17f8 18000000 		.4byte	.LVL359
 14205 17fc 0100     		.2byte	0x1
 14206 17fe 50       		.byte	0x50
 14207 17ff 00000000 		.4byte	0
 14208 1803 00000000 		.4byte	0
 14209              	.LLST151:
 14210 1807 2C000000 		.4byte	.LVL361
 14211 180b 4A000000 		.4byte	.LVL362
 14212 180f 0100     		.2byte	0x1
 14213 1811 50       		.byte	0x50
 14214 1812 4A000000 		.4byte	.LVL362
 14215 1816 52000000 		.4byte	.LVL364
 14216 181a 0100     		.2byte	0x1
 14217 181c 54       		.byte	0x54
 14218 181d 00000000 		.4byte	0
 14219 1821 00000000 		.4byte	0
 14220              	.LLST152:
 14221 1825 00000000 		.4byte	.LVL367
 14222 1829 07000000 		.4byte	.LVL368-1
 14223 182d 0100     		.2byte	0x1
 14224 182f 50       		.byte	0x50
 14225 1830 07000000 		.4byte	.LVL368-1
 14226 1834 24000000 		.4byte	.LFE101
 14227 1838 0400     		.2byte	0x4
 14228 183a F3       		.byte	0xf3
 14229 183b 01       		.uleb128 0x1
 14230 183c 50       		.byte	0x50
 14231 183d 9F       		.byte	0x9f
 14232 183e 00000000 		.4byte	0
 14233 1842 00000000 		.4byte	0
 14234              	.LLST153:
 14235 1846 08000000 		.4byte	.LVL368
 14236 184a 0C000000 		.4byte	.LVL369
 14237 184e 0100     		.2byte	0x1
 14238 1850 50       		.byte	0x50
 14239 1851 00000000 		.4byte	0
 14240 1855 00000000 		.4byte	0
 14241              	.LLST154:
 14242 1859 00000000 		.4byte	.LVL371
 14243 185d 11000000 		.4byte	.LVL374-1
 14244 1861 0100     		.2byte	0x1
 14245 1863 50       		.byte	0x50
 14246 1864 11000000 		.4byte	.LVL374-1
 14247 1868 28000000 		.4byte	.LFE102
 14248 186c 0400     		.2byte	0x4
 14249 186e F3       		.byte	0xf3
 14250 186f 01       		.uleb128 0x1
 14251 1870 50       		.byte	0x50
 14252 1871 9F       		.byte	0x9f
 14253 1872 00000000 		.4byte	0
 14254 1876 00000000 		.4byte	0
 14255              	.LLST155:
 14256 187a 00000000 		.4byte	.LVL371
 14257 187e 0C000000 		.4byte	.LVL373
 14258 1882 0100     		.2byte	0x1
ARM GAS  C:\Users\164\AppData\Local\Temp\ccvDnxKa.s 			page 290


 14259 1884 51       		.byte	0x51
 14260 1885 0C000000 		.4byte	.LVL373
 14261 1889 24000000 		.4byte	.LVL375
 14262 188d 0100     		.2byte	0x1
 14263 188f 54       		.byte	0x54
 14264 1890 00000000 		.4byte	0
 14265 1894 00000000 		.4byte	0
 14266              	.LLST156:
 14267 1898 00000000 		.4byte	.LVL371
 14268 189c 11000000 		.4byte	.LVL374-1
 14269 18a0 0100     		.2byte	0x1
 14270 18a2 52       		.byte	0x52
 14271 18a3 11000000 		.4byte	.LVL374-1
 14272 18a7 28000000 		.4byte	.LFE102
 14273 18ab 0400     		.2byte	0x4
 14274 18ad F3       		.byte	0xf3
 14275 18ae 01       		.uleb128 0x1
 14276 18af 52       		.byte	0x52
 14277 18b0 9F       		.byte	0x9f
 14278 18b1 00000000 		.4byte	0
 14279 18b5 00000000 		.4byte	0
 14280              	.LLST157:
 14281 18b9 00000000 		.4byte	.LVL371
 14282 18bd 0A000000 		.4byte	.LVL372
 14283 18c1 0100     		.2byte	0x1
 14284 18c3 53       		.byte	0x53
 14285 18c4 0A000000 		.4byte	.LVL372
 14286 18c8 24000000 		.4byte	.LVL375
 14287 18cc 0100     		.2byte	0x1
 14288 18ce 55       		.byte	0x55
 14289 18cf 24000000 		.4byte	.LVL375
 14290 18d3 28000000 		.4byte	.LFE102
 14291 18d7 0200     		.2byte	0x2
 14292 18d9 70       		.byte	0x70
 14293 18da 0C       		.sleb128 12
 14294 18db 00000000 		.4byte	0
 14295 18df 00000000 		.4byte	0
 14296              	.LLST158:
 14297 18e3 00000000 		.4byte	.LVL376
 14298 18e7 0B000000 		.4byte	.LVL377-1
 14299 18eb 0100     		.2byte	0x1
 14300 18ed 50       		.byte	0x50
 14301 18ee 0B000000 		.4byte	.LVL377-1
 14302 18f2 D6000000 		.4byte	.LVL394
 14303 18f6 0100     		.2byte	0x1
 14304 18f8 54       		.byte	0x54
 14305 18f9 D6000000 		.4byte	.LVL394
 14306 18fd 58010000 		.4byte	.LFE120
 14307 1901 0400     		.2byte	0x4
 14308 1903 F3       		.byte	0xf3
 14309 1904 01       		.uleb128 0x1
 14310 1905 50       		.byte	0x50
 14311 1906 9F       		.byte	0x9f
 14312 1907 00000000 		.4byte	0
 14313 190b 00000000 		.4byte	0
 14314              	.LLST159:
 14315 190f 00000000 		.4byte	.LVL395
ARM GAS  C:\Users\164\AppData\Local\Temp\ccvDnxKa.s 			page 291


 14316 1913 10000000 		.4byte	.LVL397
 14317 1917 0100     		.2byte	0x1
 14318 1919 50       		.byte	0x50
 14319 191a 10000000 		.4byte	.LVL397
 14320 191e 7C000000 		.4byte	.LVL410
 14321 1922 0100     		.2byte	0x1
 14322 1924 58       		.byte	0x58
 14323 1925 7C000000 		.4byte	.LVL410
 14324 1929 88000000 		.4byte	.LFE117
 14325 192d 0400     		.2byte	0x4
 14326 192f F3       		.byte	0xf3
 14327 1930 01       		.uleb128 0x1
 14328 1931 50       		.byte	0x50
 14329 1932 9F       		.byte	0x9f
 14330 1933 00000000 		.4byte	0
 14331 1937 00000000 		.4byte	0
 14332              	.LLST160:
 14333 193b 00000000 		.4byte	.LVL395
 14334 193f 10000000 		.4byte	.LVL397
 14335 1943 0100     		.2byte	0x1
 14336 1945 51       		.byte	0x51
 14337 1946 10000000 		.4byte	.LVL397
 14338 194a 7C000000 		.4byte	.LVL410
 14339 194e 0100     		.2byte	0x1
 14340 1950 55       		.byte	0x55
 14341 1951 7C000000 		.4byte	.LVL410
 14342 1955 88000000 		.4byte	.LFE117
 14343 1959 0400     		.2byte	0x4
 14344 195b F3       		.byte	0xf3
 14345 195c 01       		.uleb128 0x1
 14346 195d 51       		.byte	0x51
 14347 195e 9F       		.byte	0x9f
 14348 195f 00000000 		.4byte	0
 14349 1963 00000000 		.4byte	0
 14350              	.LLST161:
 14351 1967 00000000 		.4byte	.LVL395
 14352 196b 10000000 		.4byte	.LVL397
 14353 196f 0100     		.2byte	0x1
 14354 1971 52       		.byte	0x52
 14355 1972 10000000 		.4byte	.LVL397
 14356 1976 7C000000 		.4byte	.LVL410
 14357 197a 0100     		.2byte	0x1
 14358 197c 56       		.byte	0x56
 14359 197d 7C000000 		.4byte	.LVL410
 14360 1981 88000000 		.4byte	.LFE117
 14361 1985 0400     		.2byte	0x4
 14362 1987 F3       		.byte	0xf3
 14363 1988 01       		.uleb128 0x1
 14364 1989 52       		.byte	0x52
 14365 198a 9F       		.byte	0x9f
 14366 198b 00000000 		.4byte	0
 14367 198f 00000000 		.4byte	0
 14368              	.LLST162:
 14369 1993 0C000000 		.4byte	.LVL396
 14370 1997 10000000 		.4byte	.LVL397
 14371 199b 0200     		.2byte	0x2
 14372 199d 31       		.byte	0x31
ARM GAS  C:\Users\164\AppData\Local\Temp\ccvDnxKa.s 			page 292


 14373 199e 9F       		.byte	0x9f
 14374 199f 10000000 		.4byte	.LVL397
 14375 19a3 7C000000 		.4byte	.LVL410
 14376 19a7 0100     		.2byte	0x1
 14377 19a9 54       		.byte	0x54
 14378 19aa 00000000 		.4byte	0
 14379 19ae 00000000 		.4byte	0
 14380              	.LLST163:
 14381 19b2 3E000000 		.4byte	.LVL403
 14382 19b6 47000000 		.4byte	.LVL404-1
 14383 19ba 0100     		.2byte	0x1
 14384 19bc 50       		.byte	0x50
 14385 19bd 47000000 		.4byte	.LVL404-1
 14386 19c1 70000000 		.4byte	.LVL408
 14387 19c5 0100     		.2byte	0x1
 14388 19c7 57       		.byte	0x57
 14389 19c8 00000000 		.4byte	0
 14390 19cc 00000000 		.4byte	0
 14391              	.LLST164:
 14392 19d0 1A000000 		.4byte	.LVL398
 14393 19d4 21000000 		.4byte	.LVL399-1
 14394 19d8 0100     		.2byte	0x1
 14395 19da 52       		.byte	0x52
 14396 19db 21000000 		.4byte	.LVL399-1
 14397 19df 24000000 		.4byte	.LVL400
 14398 19e3 0800     		.2byte	0x8
 14399 19e5 74       		.byte	0x74
 14400 19e6 00       		.sleb128 0
 14401 19e7 34       		.byte	0x34
 14402 19e8 24       		.byte	0x24
 14403 19e9 75       		.byte	0x75
 14404 19ea 00       		.sleb128 0
 14405 19eb 22       		.byte	0x22
 14406 19ec 9F       		.byte	0x9f
 14407 19ed 00000000 		.4byte	0
 14408 19f1 00000000 		.4byte	0
 14409              	.LLST165:
 14410 19f5 00000000 		.4byte	.LVL411
 14411 19f9 0C000000 		.4byte	.LVL413
 14412 19fd 0100     		.2byte	0x1
 14413 19ff 50       		.byte	0x50
 14414 1a00 0C000000 		.4byte	.LVL413
 14415 1a04 32000000 		.4byte	.LVL418
 14416 1a08 0100     		.2byte	0x1
 14417 1a0a 57       		.byte	0x57
 14418 1a0b 32000000 		.4byte	.LVL418
 14419 1a0f 38000000 		.4byte	.LFE116
 14420 1a13 0400     		.2byte	0x4
 14421 1a15 F3       		.byte	0xf3
 14422 1a16 01       		.uleb128 0x1
 14423 1a17 50       		.byte	0x50
 14424 1a18 9F       		.byte	0x9f
 14425 1a19 00000000 		.4byte	0
 14426 1a1d 00000000 		.4byte	0
 14427              	.LLST166:
 14428 1a21 00000000 		.4byte	.LVL411
 14429 1a25 0C000000 		.4byte	.LVL413
ARM GAS  C:\Users\164\AppData\Local\Temp\ccvDnxKa.s 			page 293


 14430 1a29 0100     		.2byte	0x1
 14431 1a2b 51       		.byte	0x51
 14432 1a2c 0C000000 		.4byte	.LVL413
 14433 1a30 32000000 		.4byte	.LVL418
 14434 1a34 0100     		.2byte	0x1
 14435 1a36 55       		.byte	0x55
 14436 1a37 32000000 		.4byte	.LVL418
 14437 1a3b 38000000 		.4byte	.LFE116
 14438 1a3f 0400     		.2byte	0x4
 14439 1a41 F3       		.byte	0xf3
 14440 1a42 01       		.uleb128 0x1
 14441 1a43 51       		.byte	0x51
 14442 1a44 9F       		.byte	0x9f
 14443 1a45 00000000 		.4byte	0
 14444 1a49 00000000 		.4byte	0
 14445              	.LLST167:
 14446 1a4d 00000000 		.4byte	.LVL411
 14447 1a51 0C000000 		.4byte	.LVL413
 14448 1a55 0100     		.2byte	0x1
 14449 1a57 52       		.byte	0x52
 14450 1a58 0C000000 		.4byte	.LVL413
 14451 1a5c 32000000 		.4byte	.LVL418
 14452 1a60 0100     		.2byte	0x1
 14453 1a62 56       		.byte	0x56
 14454 1a63 32000000 		.4byte	.LVL418
 14455 1a67 38000000 		.4byte	.LFE116
 14456 1a6b 0400     		.2byte	0x4
 14457 1a6d F3       		.byte	0xf3
 14458 1a6e 01       		.uleb128 0x1
 14459 1a6f 52       		.byte	0x52
 14460 1a70 9F       		.byte	0x9f
 14461 1a71 00000000 		.4byte	0
 14462 1a75 00000000 		.4byte	0
 14463              	.LLST168:
 14464 1a79 08000000 		.4byte	.LVL412
 14465 1a7d 0C000000 		.4byte	.LVL413
 14466 1a81 0200     		.2byte	0x2
 14467 1a83 31       		.byte	0x31
 14468 1a84 9F       		.byte	0x9f
 14469 1a85 0C000000 		.4byte	.LVL413
 14470 1a89 32000000 		.4byte	.LVL418
 14471 1a8d 0100     		.2byte	0x1
 14472 1a8f 54       		.byte	0x54
 14473 1a90 00000000 		.4byte	0
 14474 1a94 00000000 		.4byte	0
 14475              	.LLST169:
 14476 1a98 16000000 		.4byte	.LVL414
 14477 1a9c 1D000000 		.4byte	.LVL415-1
 14478 1aa0 0100     		.2byte	0x1
 14479 1aa2 52       		.byte	0x52
 14480 1aa3 1D000000 		.4byte	.LVL415-1
 14481 1aa7 1E000000 		.4byte	.LVL415
 14482 1aab 0800     		.2byte	0x8
 14483 1aad 74       		.byte	0x74
 14484 1aae 00       		.sleb128 0
 14485 1aaf 34       		.byte	0x34
 14486 1ab0 24       		.byte	0x24
ARM GAS  C:\Users\164\AppData\Local\Temp\ccvDnxKa.s 			page 294


 14487 1ab1 75       		.byte	0x75
 14488 1ab2 00       		.sleb128 0
 14489 1ab3 22       		.byte	0x22
 14490 1ab4 9F       		.byte	0x9f
 14491 1ab5 00000000 		.4byte	0
 14492 1ab9 00000000 		.4byte	0
 14493              	.LLST170:
 14494 1abd 00000000 		.4byte	.LVL419
 14495 1ac1 0D000000 		.4byte	.LVL420-1
 14496 1ac5 0100     		.2byte	0x1
 14497 1ac7 50       		.byte	0x50
 14498 1ac8 0D000000 		.4byte	.LVL420-1
 14499 1acc 38000000 		.4byte	.LVL424
 14500 1ad0 0100     		.2byte	0x1
 14501 1ad2 54       		.byte	0x54
 14502 1ad3 38000000 		.4byte	.LVL424
 14503 1ad7 5C000000 		.4byte	.LFE127
 14504 1adb 0400     		.2byte	0x4
 14505 1add F3       		.byte	0xf3
 14506 1ade 01       		.uleb128 0x1
 14507 1adf 50       		.byte	0x50
 14508 1ae0 9F       		.byte	0x9f
 14509 1ae1 00000000 		.4byte	0
 14510 1ae5 00000000 		.4byte	0
 14511              	.LLST171:
 14512 1ae9 00000000 		.4byte	.LVL425
 14513 1aed 0D000000 		.4byte	.LVL426-1
 14514 1af1 0100     		.2byte	0x1
 14515 1af3 50       		.byte	0x50
 14516 1af4 0D000000 		.4byte	.LVL426-1
 14517 1af8 3A000000 		.4byte	.LVL430
 14518 1afc 0100     		.2byte	0x1
 14519 1afe 54       		.byte	0x54
 14520 1aff 3A000000 		.4byte	.LVL430
 14521 1b03 5C000000 		.4byte	.LFE123
 14522 1b07 0400     		.2byte	0x4
 14523 1b09 F3       		.byte	0xf3
 14524 1b0a 01       		.uleb128 0x1
 14525 1b0b 50       		.byte	0x50
 14526 1b0c 9F       		.byte	0x9f
 14527 1b0d 00000000 		.4byte	0
 14528 1b11 00000000 		.4byte	0
 14529              	.LLST172:
 14530 1b15 00000000 		.4byte	.LVL431
 14531 1b19 0D000000 		.4byte	.LVL432-1
 14532 1b1d 0100     		.2byte	0x1
 14533 1b1f 50       		.byte	0x50
 14534 1b20 0D000000 		.4byte	.LVL432-1
 14535 1b24 3A000000 		.4byte	.LVL436
 14536 1b28 0100     		.2byte	0x1
 14537 1b2a 54       		.byte	0x54
 14538 1b2b 3A000000 		.4byte	.LVL436
 14539 1b2f 5C000000 		.4byte	.LFE129
 14540 1b33 0400     		.2byte	0x4
 14541 1b35 F3       		.byte	0xf3
 14542 1b36 01       		.uleb128 0x1
 14543 1b37 50       		.byte	0x50
ARM GAS  C:\Users\164\AppData\Local\Temp\ccvDnxKa.s 			page 295


 14544 1b38 9F       		.byte	0x9f
 14545 1b39 00000000 		.4byte	0
 14546 1b3d 00000000 		.4byte	0
 14547              	.LLST173:
 14548 1b41 00000000 		.4byte	.LVL437
 14549 1b45 0D000000 		.4byte	.LVL438-1
 14550 1b49 0100     		.2byte	0x1
 14551 1b4b 50       		.byte	0x50
 14552 1b4c 0D000000 		.4byte	.LVL438-1
 14553 1b50 2E000000 		.4byte	.LVL441
 14554 1b54 0100     		.2byte	0x1
 14555 1b56 54       		.byte	0x54
 14556 1b57 2E000000 		.4byte	.LVL441
 14557 1b5b 48000000 		.4byte	.LFE131
 14558 1b5f 0400     		.2byte	0x4
 14559 1b61 F3       		.byte	0xf3
 14560 1b62 01       		.uleb128 0x1
 14561 1b63 50       		.byte	0x50
 14562 1b64 9F       		.byte	0x9f
 14563 1b65 00000000 		.4byte	0
 14564 1b69 00000000 		.4byte	0
 14565              	.LLST174:
 14566 1b6d 00000000 		.4byte	.LVL442
 14567 1b71 08000000 		.4byte	.LVL443
 14568 1b75 0100     		.2byte	0x1
 14569 1b77 50       		.byte	0x50
 14570 1b78 08000000 		.4byte	.LVL443
 14571 1b7c 56000000 		.4byte	.LFE103
 14572 1b80 0100     		.2byte	0x1
 14573 1b82 54       		.byte	0x54
 14574 1b83 00000000 		.4byte	0
 14575 1b87 00000000 		.4byte	0
 14576              	.LLST175:
 14577 1b8b 00000000 		.4byte	.LVL442
 14578 1b8f 0B000000 		.4byte	.LVL444-1
 14579 1b93 0100     		.2byte	0x1
 14580 1b95 51       		.byte	0x51
 14581 1b96 0B000000 		.4byte	.LVL444-1
 14582 1b9a 56000000 		.4byte	.LFE103
 14583 1b9e 0400     		.2byte	0x4
 14584 1ba0 F3       		.byte	0xf3
 14585 1ba1 01       		.uleb128 0x1
 14586 1ba2 51       		.byte	0x51
 14587 1ba3 9F       		.byte	0x9f
 14588 1ba4 00000000 		.4byte	0
 14589 1ba8 00000000 		.4byte	0
 14590              	.LLST176:
 14591 1bac 00000000 		.4byte	.LVL442
 14592 1bb0 0B000000 		.4byte	.LVL444-1
 14593 1bb4 0100     		.2byte	0x1
 14594 1bb6 52       		.byte	0x52
 14595 1bb7 0B000000 		.4byte	.LVL444-1
 14596 1bbb 1A000000 		.4byte	.LVL447
 14597 1bbf 0100     		.2byte	0x1
 14598 1bc1 55       		.byte	0x55
 14599 1bc2 1A000000 		.4byte	.LVL447
 14600 1bc6 56000000 		.4byte	.LFE103
ARM GAS  C:\Users\164\AppData\Local\Temp\ccvDnxKa.s 			page 296


 14601 1bca 0400     		.2byte	0x4
 14602 1bcc F3       		.byte	0xf3
 14603 1bcd 01       		.uleb128 0x1
 14604 1bce 52       		.byte	0x52
 14605 1bcf 9F       		.byte	0x9f
 14606 1bd0 00000000 		.4byte	0
 14607 1bd4 00000000 		.4byte	0
 14608              	.LLST177:
 14609 1bd8 00000000 		.4byte	.LVL442
 14610 1bdc 0B000000 		.4byte	.LVL444-1
 14611 1be0 0100     		.2byte	0x1
 14612 1be2 53       		.byte	0x53
 14613 1be3 0B000000 		.4byte	.LVL444-1
 14614 1be7 56000000 		.4byte	.LFE103
 14615 1beb 0400     		.2byte	0x4
 14616 1bed F3       		.byte	0xf3
 14617 1bee 01       		.uleb128 0x1
 14618 1bef 53       		.byte	0x53
 14619 1bf0 9F       		.byte	0x9f
 14620 1bf1 00000000 		.4byte	0
 14621 1bf5 00000000 		.4byte	0
 14622              	.LLST178:
 14623 1bf9 0C000000 		.4byte	.LVL444
 14624 1bfd 12000000 		.4byte	.LVL445
 14625 1c01 0100     		.2byte	0x1
 14626 1c03 50       		.byte	0x50
 14627 1c04 00000000 		.4byte	0
 14628 1c08 00000000 		.4byte	0
 14629              	.LLST179:
 14630 1c0c 16000000 		.4byte	.LVL446
 14631 1c10 1E000000 		.4byte	.LVL448
 14632 1c14 0100     		.2byte	0x1
 14633 1c16 50       		.byte	0x50
 14634 1c17 1E000000 		.4byte	.LVL448
 14635 1c1b 54000000 		.4byte	.LVL450
 14636 1c1f 0100     		.2byte	0x1
 14637 1c21 55       		.byte	0x55
 14638 1c22 00000000 		.4byte	0
 14639 1c26 00000000 		.4byte	0
 14640              	.LLST180:
 14641 1c2a 22000000 		.4byte	.LVL449
 14642 1c2e 54000000 		.4byte	.LVL450
 14643 1c32 0100     		.2byte	0x1
 14644 1c34 50       		.byte	0x50
 14645 1c35 00000000 		.4byte	0
 14646 1c39 00000000 		.4byte	0
 14647              	.LLST181:
 14648 1c3d 00000000 		.4byte	.LVL451
 14649 1c41 15000000 		.4byte	.LVL453-1
 14650 1c45 0100     		.2byte	0x1
 14651 1c47 51       		.byte	0x51
 14652 1c48 15000000 		.4byte	.LVL453-1
 14653 1c4c F2000000 		.4byte	.LVL477
 14654 1c50 0100     		.2byte	0x1
 14655 1c52 59       		.byte	0x59
 14656 1c53 F2000000 		.4byte	.LVL477
 14657 1c57 FC000000 		.4byte	.LFE104
ARM GAS  C:\Users\164\AppData\Local\Temp\ccvDnxKa.s 			page 297


 14658 1c5b 0400     		.2byte	0x4
 14659 1c5d F3       		.byte	0xf3
 14660 1c5e 01       		.uleb128 0x1
 14661 1c5f 51       		.byte	0x51
 14662 1c60 9F       		.byte	0x9f
 14663 1c61 00000000 		.4byte	0
 14664 1c65 00000000 		.4byte	0
 14665              	.LLST182:
 14666 1c69 00000000 		.4byte	.LVL451
 14667 1c6d 15000000 		.4byte	.LVL453-1
 14668 1c71 0100     		.2byte	0x1
 14669 1c73 52       		.byte	0x52
 14670 1c74 15000000 		.4byte	.LVL453-1
 14671 1c78 4C000000 		.4byte	.LVL463
 14672 1c7c 0100     		.2byte	0x1
 14673 1c7e 56       		.byte	0x56
 14674 1c7f 4C000000 		.4byte	.LVL463
 14675 1c83 D2000000 		.4byte	.LVL475
 14676 1c87 0400     		.2byte	0x4
 14677 1c89 F3       		.byte	0xf3
 14678 1c8a 01       		.uleb128 0x1
 14679 1c8b 52       		.byte	0x52
 14680 1c8c 9F       		.byte	0x9f
 14681 1c8d D2000000 		.4byte	.LVL475
 14682 1c91 EA000000 		.4byte	.LVL476
 14683 1c95 0100     		.2byte	0x1
 14684 1c97 56       		.byte	0x56
 14685 1c98 EA000000 		.4byte	.LVL476
 14686 1c9c FC000000 		.4byte	.LFE104
 14687 1ca0 0400     		.2byte	0x4
 14688 1ca2 F3       		.byte	0xf3
 14689 1ca3 01       		.uleb128 0x1
 14690 1ca4 52       		.byte	0x52
 14691 1ca5 9F       		.byte	0x9f
 14692 1ca6 00000000 		.4byte	0
 14693 1caa 00000000 		.4byte	0
 14694              	.LLST183:
 14695 1cae 00000000 		.4byte	.LVL451
 14696 1cb2 15000000 		.4byte	.LVL453-1
 14697 1cb6 0100     		.2byte	0x1
 14698 1cb8 53       		.byte	0x53
 14699 1cb9 15000000 		.4byte	.LVL453-1
 14700 1cbd 48000000 		.4byte	.LVL462
 14701 1cc1 0100     		.2byte	0x1
 14702 1cc3 54       		.byte	0x54
 14703 1cc4 48000000 		.4byte	.LVL462
 14704 1cc8 66000000 		.4byte	.LVL468
 14705 1ccc 0300     		.2byte	0x3
 14706 1cce 74       		.byte	0x74
 14707 1ccf 7E       		.sleb128 -2
 14708 1cd0 9F       		.byte	0x9f
 14709 1cd1 66000000 		.4byte	.LVL468
 14710 1cd5 D2000000 		.4byte	.LVL475
 14711 1cd9 0400     		.2byte	0x4
 14712 1cdb F3       		.byte	0xf3
 14713 1cdc 01       		.uleb128 0x1
 14714 1cdd 53       		.byte	0x53
ARM GAS  C:\Users\164\AppData\Local\Temp\ccvDnxKa.s 			page 298


 14715 1cde 9F       		.byte	0x9f
 14716 1cdf D2000000 		.4byte	.LVL475
 14717 1ce3 EA000000 		.4byte	.LVL476
 14718 1ce7 0100     		.2byte	0x1
 14719 1ce9 54       		.byte	0x54
 14720 1cea EA000000 		.4byte	.LVL476
 14721 1cee FC000000 		.4byte	.LFE104
 14722 1cf2 0400     		.2byte	0x4
 14723 1cf4 F3       		.byte	0xf3
 14724 1cf5 01       		.uleb128 0x1
 14725 1cf6 53       		.byte	0x53
 14726 1cf7 9F       		.byte	0x9f
 14727 1cf8 00000000 		.4byte	0
 14728 1cfc 00000000 		.4byte	0
 14729              	.LLST184:
 14730 1d00 00000000 		.4byte	.LVL451
 14731 1d04 F2000000 		.4byte	.LVL477
 14732 1d08 0200     		.2byte	0x2
 14733 1d0a 91       		.byte	0x91
 14734 1d0b 00       		.sleb128 0
 14735 1d0c F2000000 		.4byte	.LVL477
 14736 1d10 FC000000 		.4byte	.LFE104
 14737 1d14 0200     		.2byte	0x2
 14738 1d16 7D       		.byte	0x7d
 14739 1d17 00       		.sleb128 0
 14740 1d18 00000000 		.4byte	0
 14741 1d1c 00000000 		.4byte	0
 14742              	.LLST185:
 14743 1d20 00000000 		.4byte	.LVL451
 14744 1d24 F2000000 		.4byte	.LVL477
 14745 1d28 0200     		.2byte	0x2
 14746 1d2a 91       		.byte	0x91
 14747 1d2b 04       		.sleb128 4
 14748 1d2c F2000000 		.4byte	.LVL477
 14749 1d30 FC000000 		.4byte	.LFE104
 14750 1d34 0200     		.2byte	0x2
 14751 1d36 7D       		.byte	0x7d
 14752 1d37 04       		.sleb128 4
 14753 1d38 00000000 		.4byte	0
 14754 1d3c 00000000 		.4byte	0
 14755              	.LLST186:
 14756 1d40 00000000 		.4byte	.LVL451
 14757 1d44 F2000000 		.4byte	.LVL477
 14758 1d48 0200     		.2byte	0x2
 14759 1d4a 91       		.byte	0x91
 14760 1d4b 08       		.sleb128 8
 14761 1d4c F2000000 		.4byte	.LVL477
 14762 1d50 FC000000 		.4byte	.LFE104
 14763 1d54 0200     		.2byte	0x2
 14764 1d56 7D       		.byte	0x7d
 14765 1d57 08       		.sleb128 8
 14766 1d58 00000000 		.4byte	0
 14767 1d5c 00000000 		.4byte	0
 14768              	.LLST187:
 14769 1d60 16000000 		.4byte	.LVL453
 14770 1d64 1C000000 		.4byte	.LVL454
 14771 1d68 0100     		.2byte	0x1
ARM GAS  C:\Users\164\AppData\Local\Temp\ccvDnxKa.s 			page 299


 14772 1d6a 50       		.byte	0x50
 14773 1d6b 00000000 		.4byte	0
 14774 1d6f 00000000 		.4byte	0
 14775              	.LLST188:
 14776 1d73 20000000 		.4byte	.LVL455
 14777 1d77 2C000000 		.4byte	.LVL456
 14778 1d7b 0100     		.2byte	0x1
 14779 1d7d 50       		.byte	0x50
 14780 1d7e 32000000 		.4byte	.LVL458
 14781 1d82 40000000 		.4byte	.LVL459
 14782 1d86 0100     		.2byte	0x1
 14783 1d88 50       		.byte	0x50
 14784 1d89 40000000 		.4byte	.LVL459
 14785 1d8d 46000000 		.4byte	.LVL461
 14786 1d91 0100     		.2byte	0x1
 14787 1d93 5A       		.byte	0x5a
 14788 1d94 46000000 		.4byte	.LVL461
 14789 1d98 4E000000 		.4byte	.LVL464
 14790 1d9c 0100     		.2byte	0x1
 14791 1d9e 50       		.byte	0x50
 14792 1d9f 4E000000 		.4byte	.LVL464
 14793 1da3 D2000000 		.4byte	.LVL475
 14794 1da7 0100     		.2byte	0x1
 14795 1da9 5A       		.byte	0x5a
 14796 1daa 00000000 		.4byte	0
 14797 1dae 00000000 		.4byte	0
 14798              	.LLST189:
 14799 1db2 4C000000 		.4byte	.LVL463
 14800 1db6 D2000000 		.4byte	.LVL475
 14801 1dba 0100     		.2byte	0x1
 14802 1dbc 56       		.byte	0x56
 14803 1dbd 00000000 		.4byte	0
 14804 1dc1 00000000 		.4byte	0
 14805              	.LLST190:
 14806 1dc5 64000000 		.4byte	.LVL467
 14807 1dc9 68000000 		.4byte	.LVL469
 14808 1dcd 0200     		.2byte	0x2
 14809 1dcf 31       		.byte	0x31
 14810 1dd0 9F       		.byte	0x9f
 14811 1dd1 68000000 		.4byte	.LVL469
 14812 1dd5 D2000000 		.4byte	.LVL475
 14813 1dd9 0100     		.2byte	0x1
 14814 1ddb 54       		.byte	0x54
 14815 1ddc 00000000 		.4byte	0
 14816 1de0 00000000 		.4byte	0
 14817              		.section	.debug_aranges,"",%progbits
 14818 0000 54010000 		.4byte	0x154
 14819 0004 0200     		.2byte	0x2
 14820 0006 00000000 		.4byte	.Ldebug_info0
 14821 000a 04       		.byte	0x4
 14822 000b 00       		.byte	0
 14823 000c 0000     		.2byte	0
 14824 000e 0000     		.2byte	0
 14825 0010 00000000 		.4byte	.LFB124
 14826 0014 06000000 		.4byte	.LFE124-.LFB124
 14827 0018 00000000 		.4byte	.LFB132
 14828 001c 02000000 		.4byte	.LFE132-.LFB132
ARM GAS  C:\Users\164\AppData\Local\Temp\ccvDnxKa.s 			page 300


 14829 0020 00000000 		.4byte	.LFB121
 14830 0024 1C000000 		.4byte	.LFE121-.LFB121
 14831 0028 00000000 		.4byte	.LFB125
 14832 002c 20000000 		.4byte	.LFE125-.LFB125
 14833 0030 00000000 		.4byte	.LFB128
 14834 0034 20000000 		.4byte	.LFE128-.LFB128
 14835 0038 00000000 		.4byte	.LFB130
 14836 003c 20000000 		.4byte	.LFE130-.LFB130
 14837 0040 00000000 		.4byte	.LFB108
 14838 0044 10000000 		.4byte	.LFE108-.LFB108
 14839 0048 00000000 		.4byte	.LFB122
 14840 004c 5C000000 		.4byte	.LFE122-.LFB122
 14841 0050 00000000 		.4byte	.LFB119
 14842 0054 B0000000 		.4byte	.LFE119-.LFB119
 14843 0058 00000000 		.4byte	.LFB118
 14844 005c 2C000000 		.4byte	.LFE118-.LFB118
 14845 0060 00000000 		.4byte	.LFB115
 14846 0064 48000000 		.4byte	.LFE115-.LFB115
 14847 0068 00000000 		.4byte	.LFB114
 14848 006c 34000000 		.4byte	.LFE114-.LFB114
 14849 0070 00000000 		.4byte	.LFB113
 14850 0074 E8000000 		.4byte	.LFE113-.LFB113
 14851 0078 00000000 		.4byte	.LFB111
 14852 007c 3A000000 		.4byte	.LFE111-.LFB111
 14853 0080 00000000 		.4byte	.LFB110
 14854 0084 1C000000 		.4byte	.LFE110-.LFB110
 14855 0088 00000000 		.4byte	.LFB109
 14856 008c 20000000 		.4byte	.LFE109-.LFB109
 14857 0090 00000000 		.4byte	.LFB105
 14858 0094 60000000 		.4byte	.LFE105-.LFB105
 14859 0098 00000000 		.4byte	.LFB126
 14860 009c 1E000000 		.4byte	.LFE126-.LFB126
 14861 00a0 00000000 		.4byte	.LFB133
 14862 00a4 34000000 		.4byte	.LFE133-.LFB133
 14863 00a8 00000000 		.4byte	.LFB98
 14864 00ac AC000000 		.4byte	.LFE98-.LFB98
 14865 00b0 00000000 		.4byte	.LFB112
 14866 00b4 36000000 		.4byte	.LFE112-.LFB112
 14867 00b8 00000000 		.4byte	.LFB95
 14868 00bc 64020000 		.4byte	.LFE95-.LFB95
 14869 00c0 00000000 		.4byte	.LFB107
 14870 00c4 1A000000 		.4byte	.LFE107-.LFB107
 14871 00c8 00000000 		.4byte	.LFB97
 14872 00cc 1C010000 		.4byte	.LFE97-.LFB97
 14873 00d0 00000000 		.4byte	.LFB96
 14874 00d4 4C000000 		.4byte	.LFE96-.LFB96
 14875 00d8 00000000 		.4byte	.LFB106
 14876 00dc 46000000 		.4byte	.LFE106-.LFB106
 14877 00e0 00000000 		.4byte	.LFB99
 14878 00e4 28000000 		.4byte	.LFE99-.LFB99
 14879 00e8 00000000 		.4byte	.LFB100
 14880 00ec 7C000000 		.4byte	.LFE100-.LFB100
 14881 00f0 00000000 		.4byte	.LFB101
 14882 00f4 24000000 		.4byte	.LFE101-.LFB101
 14883 00f8 00000000 		.4byte	.LFB102
 14884 00fc 28000000 		.4byte	.LFE102-.LFB102
 14885 0100 00000000 		.4byte	.LFB120
ARM GAS  C:\Users\164\AppData\Local\Temp\ccvDnxKa.s 			page 301


 14886 0104 58010000 		.4byte	.LFE120-.LFB120
 14887 0108 00000000 		.4byte	.LFB117
 14888 010c 88000000 		.4byte	.LFE117-.LFB117
 14889 0110 00000000 		.4byte	.LFB116
 14890 0114 38000000 		.4byte	.LFE116-.LFB116
 14891 0118 00000000 		.4byte	.LFB127
 14892 011c 5C000000 		.4byte	.LFE127-.LFB127
 14893 0120 00000000 		.4byte	.LFB123
 14894 0124 5C000000 		.4byte	.LFE123-.LFB123
 14895 0128 00000000 		.4byte	.LFB129
 14896 012c 5C000000 		.4byte	.LFE129-.LFB129
 14897 0130 00000000 		.4byte	.LFB131
 14898 0134 48000000 		.4byte	.LFE131-.LFB131
 14899 0138 00000000 		.4byte	.LFB103
 14900 013c 56000000 		.4byte	.LFE103-.LFB103
 14901 0140 00000000 		.4byte	.LFB104
 14902 0144 FC000000 		.4byte	.LFE104-.LFB104
 14903 0148 00000000 		.4byte	.LFB134
 14904 014c 50000000 		.4byte	.LFE134-.LFB134
 14905 0150 00000000 		.4byte	0
 14906 0154 00000000 		.4byte	0
 14907              		.section	.debug_ranges,"",%progbits
 14908              	.Ldebug_ranges0:
 14909 0000 10000000 		.4byte	.LBB289
 14910 0004 36000000 		.4byte	.LBE289
 14911 0008 38000000 		.4byte	.LBB295
 14912 000c 44000000 		.4byte	.LBE295
 14913 0010 00000000 		.4byte	0
 14914 0014 00000000 		.4byte	0
 14915 0018 0A000000 		.4byte	.LBB300
 14916 001c 1E000000 		.4byte	.LBE300
 14917 0020 24000000 		.4byte	.LBB301
 14918 0024 26000000 		.4byte	.LBE301
 14919 0028 00000000 		.4byte	0
 14920 002c 00000000 		.4byte	0
 14921 0030 00000000 		.4byte	.LFB124
 14922 0034 06000000 		.4byte	.LFE124
 14923 0038 00000000 		.4byte	.LFB132
 14924 003c 02000000 		.4byte	.LFE132
 14925 0040 00000000 		.4byte	.LFB121
 14926 0044 1C000000 		.4byte	.LFE121
 14927 0048 00000000 		.4byte	.LFB125
 14928 004c 20000000 		.4byte	.LFE125
 14929 0050 00000000 		.4byte	.LFB128
 14930 0054 20000000 		.4byte	.LFE128
 14931 0058 00000000 		.4byte	.LFB130
 14932 005c 20000000 		.4byte	.LFE130
 14933 0060 00000000 		.4byte	.LFB108
 14934 0064 10000000 		.4byte	.LFE108
 14935 0068 00000000 		.4byte	.LFB122
 14936 006c 5C000000 		.4byte	.LFE122
 14937 0070 00000000 		.4byte	.LFB119
 14938 0074 B0000000 		.4byte	.LFE119
 14939 0078 00000000 		.4byte	.LFB118
 14940 007c 2C000000 		.4byte	.LFE118
 14941 0080 00000000 		.4byte	.LFB115
 14942 0084 48000000 		.4byte	.LFE115
ARM GAS  C:\Users\164\AppData\Local\Temp\ccvDnxKa.s 			page 302


 14943 0088 00000000 		.4byte	.LFB114
 14944 008c 34000000 		.4byte	.LFE114
 14945 0090 00000000 		.4byte	.LFB113
 14946 0094 E8000000 		.4byte	.LFE113
 14947 0098 00000000 		.4byte	.LFB111
 14948 009c 3A000000 		.4byte	.LFE111
 14949 00a0 00000000 		.4byte	.LFB110
 14950 00a4 1C000000 		.4byte	.LFE110
 14951 00a8 00000000 		.4byte	.LFB109
 14952 00ac 20000000 		.4byte	.LFE109
 14953 00b0 00000000 		.4byte	.LFB105
 14954 00b4 60000000 		.4byte	.LFE105
 14955 00b8 00000000 		.4byte	.LFB126
 14956 00bc 1E000000 		.4byte	.LFE126
 14957 00c0 00000000 		.4byte	.LFB133
 14958 00c4 34000000 		.4byte	.LFE133
 14959 00c8 00000000 		.4byte	.LFB98
 14960 00cc AC000000 		.4byte	.LFE98
 14961 00d0 00000000 		.4byte	.LFB112
 14962 00d4 36000000 		.4byte	.LFE112
 14963 00d8 00000000 		.4byte	.LFB95
 14964 00dc 64020000 		.4byte	.LFE95
 14965 00e0 00000000 		.4byte	.LFB107
 14966 00e4 1A000000 		.4byte	.LFE107
 14967 00e8 00000000 		.4byte	.LFB97
 14968 00ec 1C010000 		.4byte	.LFE97
 14969 00f0 00000000 		.4byte	.LFB96
 14970 00f4 4C000000 		.4byte	.LFE96
 14971 00f8 00000000 		.4byte	.LFB106
 14972 00fc 46000000 		.4byte	.LFE106
 14973 0100 00000000 		.4byte	.LFB99
 14974 0104 28000000 		.4byte	.LFE99
 14975 0108 00000000 		.4byte	.LFB100
 14976 010c 7C000000 		.4byte	.LFE100
 14977 0110 00000000 		.4byte	.LFB101
 14978 0114 24000000 		.4byte	.LFE101
 14979 0118 00000000 		.4byte	.LFB102
 14980 011c 28000000 		.4byte	.LFE102
 14981 0120 00000000 		.4byte	.LFB120
 14982 0124 58010000 		.4byte	.LFE120
 14983 0128 00000000 		.4byte	.LFB117
 14984 012c 88000000 		.4byte	.LFE117
 14985 0130 00000000 		.4byte	.LFB116
 14986 0134 38000000 		.4byte	.LFE116
 14987 0138 00000000 		.4byte	.LFB127
 14988 013c 5C000000 		.4byte	.LFE127
 14989 0140 00000000 		.4byte	.LFB123
 14990 0144 5C000000 		.4byte	.LFE123
 14991 0148 00000000 		.4byte	.LFB129
 14992 014c 5C000000 		.4byte	.LFE129
 14993 0150 00000000 		.4byte	.LFB131
 14994 0154 48000000 		.4byte	.LFE131
 14995 0158 00000000 		.4byte	.LFB103
 14996 015c 56000000 		.4byte	.LFE103
 14997 0160 00000000 		.4byte	.LFB104
 14998 0164 FC000000 		.4byte	.LFE104
 14999 0168 00000000 		.4byte	.LFB134
ARM GAS  C:\Users\164\AppData\Local\Temp\ccvDnxKa.s 			page 303


 15000 016c 50000000 		.4byte	.LFE134
 15001 0170 00000000 		.4byte	0
 15002 0174 00000000 		.4byte	0
 15003              		.section	.debug_line,"",%progbits
 15004              	.Ldebug_line0:
 15005 0000 B8090000 		.section	.debug_str,"MS",%progbits,1
 15005      02000503 
 15005      00000201 
 15005      FB0E0D00 
 15005      01010101 
 15006              	.LASF137:
 15007 0000 4F505F53 		.ascii	"OP_SETIV\000"
 15007      45544956 
 15007      00
 15008              	.LASF19:
 15009 0009 696E7438 		.ascii	"int8_t\000"
 15009      5F7400
 15010              	.LASF17:
 15011 0010 73697A65 		.ascii	"sizetype\000"
 15011      74797065 
 15011      00
 15012              	.LASF49:
 15013 0019 4D524243 		.ascii	"MRBC_TT_SYMBOL\000"
 15013      5F54545F 
 15013      53594D42 
 15013      4F4C00
 15014              	.LASF117:
 15015 0028 666C6167 		.ascii	"flag_space\000"
 15015      5F737061 
 15015      636500
 15016              	.LASF234:
 15017 0033 66696E64 		.ascii	"find_class_by_object\000"
 15017      5F636C61 
 15017      73735F62 
 15017      795F6F62 
 15017      6A656374 
 15018              	.LASF262:
 15019 0048 6D726263 		.ascii	"mrbc_class_true\000"
 15019      5F636C61 
 15019      73735F74 
 15019      72756500 
 15020              	.LASF318:
 15021 0058 4F50434F 		.ascii	"OPCODE\000"
 15021      444500
 15022              	.LASF179:
 15023 005f 6D726263 		.ascii	"mrbc_hash_iterator\000"
 15023      5F686173 
 15023      685F6974 
 15023      65726174 
 15023      6F7200
 15024              	.LASF23:
 15025 0072 696E7433 		.ascii	"int32_t\000"
 15025      325F7400 
 15026              	.LASF220:
 15027 007a 635F6F62 		.ascii	"c_object_compare\000"
 15027      6A656374 
 15027      5F636F6D 
ARM GAS  C:\Users\164\AppData\Local\Temp\ccvDnxKa.s 			page 304


 15027      70617265 
 15027      00
 15028              	.LASF59:
 15029 008b 696E7374 		.ascii	"instance\000"
 15029      616E6365 
 15029      00
 15030              	.LASF47:
 15031 0094 4D524243 		.ascii	"MRBC_TT_FIXNUM\000"
 15031      5F54545F 
 15031      4649584E 
 15031      554D00
 15032              	.LASF238:
 15033 00a3 5F5F6675 		.ascii	"__func__\000"
 15033      6E635F5F 
 15033      00
 15034              	.LASF99:
 15035 00ac 72657073 		.ascii	"reps\000"
 15035      00
 15036              	.LASF296:
 15037 00b1 6D726263 		.ascii	"mrbc_load_mrb\000"
 15037      5F6C6F61 
 15037      645F6D72 
 15037      6200
 15038              	.LASF253:
 15039 00bf 7265675F 		.ascii	"reg_ofs\000"
 15039      6F667300 
 15040              	.LASF309:
 15041 00c7 6D726263 		.ascii	"mrbc_init_class_float\000"
 15041      5F696E69 
 15041      745F636C 
 15041      6173735F 
 15041      666C6F61 
 15042              	.LASF29:
 15043 00dd 6D726263 		.ascii	"mrbc_sym\000"
 15043      5F73796D 
 15043      00
 15044              	.LASF240:
 15045 00e6 6D726263 		.ascii	"mrbc_define_method\000"
 15045      5F646566 
 15045      696E655F 
 15045      6D657468 
 15045      6F6400
 15046              	.LASF66:
 15047 00f9 73796D5F 		.ascii	"sym_id\000"
 15047      696400
 15048              	.LASF224:
 15049 0100 635F6E69 		.ascii	"c_nil_to_s\000"
 15049      6C5F746F 
 15049      5F7300
 15050              	.LASF113:
 15051 010b 52507269 		.ascii	"RPrintfFormat\000"
 15051      6E746646 
 15051      6F726D61 
 15051      7400
 15052              	.LASF317:
 15053 0119 524B6579 		.ascii	"RKeyValueHandle\000"
 15053      56616C75 
ARM GAS  C:\Users\164\AppData\Local\Temp\ccvDnxKa.s 			page 305


 15053      6548616E 
 15053      646C6500 
 15054              	.LASF105:
 15055 0129 6E5F6172 		.ascii	"n_args\000"
 15055      677300
 15056              	.LASF295:
 15057 0130 6D726263 		.ascii	"mrbc_vm_open\000"
 15057      5F766D5F 
 15057      6F70656E 
 15057      00
 15058              	.LASF229:
 15059 013d 635F6F62 		.ascii	"c_object_print\000"
 15059      6A656374 
 15059      5F707269 
 15059      6E7400
 15060              	.LASF93:
 15061 014c 726C656E 		.ascii	"rlen\000"
 15061      00
 15062              	.LASF120:
 15063 0151 70726563 		.ascii	"precision\000"
 15063      6973696F 
 15063      6E00
 15064              	.LASF177:
 15065 015b 706F696E 		.ascii	"point\000"
 15065      7400
 15066              	.LASF67:
 15067 0161 73757065 		.ascii	"super\000"
 15067      7200
 15068              	.LASF71:
 15069 0167 69766172 		.ascii	"ivar\000"
 15069      00
 15070              	.LASF65:
 15071 016c 52436C61 		.ascii	"RClass\000"
 15071      737300
 15072              	.LASF5:
 15073 0173 5F5F7569 		.ascii	"__uint8_t\000"
 15073      6E74385F 
 15073      7400
 15074              	.LASF257:
 15075 017d 6D726263 		.ascii	"mrbc_init_class\000"
 15075      5F696E69 
 15075      745F636C 
 15075      61737300 
 15076              	.LASF156:
 15077 018d 4F505F44 		.ascii	"OP_DIV\000"
 15077      495600
 15078              	.LASF208:
 15079 0194 72657375 		.ascii	"result\000"
 15079      6C7400
 15080              	.LASF50:
 15081 019b 4D524243 		.ascii	"MRBC_TT_CLASS\000"
 15081      5F54545F 
 15081      434C4153 
 15081      5300
 15082              	.LASF149:
 15083 01a9 4F505F52 		.ascii	"OP_RETURN\000"
 15083      45545552 
ARM GAS  C:\Users\164\AppData\Local\Temp\ccvDnxKa.s 			page 306


 15083      4E00
 15084              	.LASF56:
 15085 01b3 4D524243 		.ascii	"MRBC_TT_HASH\000"
 15085      5F54545F 
 15085      48415348 
 15085      00
 15086              	.LASF133:
 15087 01c0 4F505F4C 		.ascii	"OP_LOADF\000"
 15087      4F414446 
 15087      00
 15088              	.LASF128:
 15089 01c9 4F505F4C 		.ascii	"OP_LOADI\000"
 15089      4F414449 
 15089      00
 15090              	.LASF127:
 15091 01d2 4F505F4C 		.ascii	"OP_LOADL\000"
 15091      4F41444C 
 15091      00
 15092              	.LASF269:
 15093 01db 6D726263 		.ascii	"mrbc_class_range\000"
 15093      5F636C61 
 15093      73735F72 
 15093      616E6765 
 15093      00
 15094              	.LASF186:
 15095 01ec 6D726263 		.ascii	"mrbc_array_size\000"
 15095      5F617272 
 15095      61795F73 
 15095      697A6500 
 15096              	.LASF132:
 15097 01fc 4F505F4C 		.ascii	"OP_LOADT\000"
 15097      4F414454 
 15097      00
 15098              	.LASF286:
 15099 0205 6D726263 		.ascii	"mrbc_raw_free\000"
 15099      5F726177 
 15099      5F667265 
 15099      6500
 15100              	.LASF12:
 15101 0213 6C6F6E67 		.ascii	"long int\000"
 15101      20696E74 
 15101      00
 15102              	.LASF301:
 15103 021c 73747263 		.ascii	"strchr\000"
 15103      687200
 15104              	.LASF246:
 15105 0223 6D726263 		.ascii	"mrbc_init_class_nil\000"
 15105      5F696E69 
 15105      745F636C 
 15105      6173735F 
 15105      6E696C00 
 15106              	.LASF265:
 15107 0237 6D726263 		.ascii	"mrbc_class_fixnum\000"
 15107      5F636C61 
 15107      73735F66 
 15107      69786E75 
 15107      6D00
ARM GAS  C:\Users\164\AppData\Local\Temp\ccvDnxKa.s 			page 307


 15108              	.LASF51:
 15109 0249 4D524243 		.ascii	"MRBC_TT_OBJECT\000"
 15109      5F54545F 
 15109      4F424A45 
 15109      435400
 15110              	.LASF165:
 15111 0258 4F505F48 		.ascii	"OP_HASH\000"
 15111      41534800 
 15112              	.LASF193:
 15113 0260 6D726263 		.ascii	"mrbc_hash_iterator_new\000"
 15113      5F686173 
 15113      685F6974 
 15113      65726174 
 15113      6F725F6E 
 15114              	.LASF314:
 15115 0277 474E5520 		.ascii	"GNU C11 5.4.1 20160609 (release) [ARM/embedded-5-br"
 15115      43313120 
 15115      352E342E 
 15115      31203230 
 15115      31363036 
 15116 02aa 616E6368 		.ascii	"anch revision 237715] -mcpu=cortex-m3 -mthumb -g -O"
 15116      20726576 
 15116      6973696F 
 15116      6E203233 
 15116      37373135 
 15117 02dd 67202D66 		.ascii	"g -ffunction-sections -ffat-lto-objects\000"
 15117      66756E63 
 15117      74696F6E 
 15117      2D736563 
 15117      74696F6E 
 15118              	.LASF72:
 15119 0305 64617461 		.ascii	"data\000"
 15119      00
 15120              	.LASF157:
 15121 030a 4F505F45 		.ascii	"OP_EQ\000"
 15121      5100
 15122              	.LASF88:
 15123 0310 6D726263 		.ascii	"mrbc_class\000"
 15123      5F636C61 
 15123      737300
 15124              	.LASF184:
 15125 031b 636F6E73 		.ascii	"console_putchar\000"
 15125      6F6C655F 
 15125      70757463 
 15125      68617200 
 15126              	.LASF3:
 15127 032b 7369676E 		.ascii	"signed char\000"
 15127      65642063 
 15127      68617200 
 15128              	.LASF20:
 15129 0337 75696E74 		.ascii	"uint8_t\000"
 15129      385F7400 
 15130              	.LASF154:
 15131 033f 4F505F53 		.ascii	"OP_SUBI\000"
 15131      55424900 
 15132              	.LASF281:
 15133 0347 6D726263 		.ascii	"mrbc_get_callee_name\000"
ARM GAS  C:\Users\164\AppData\Local\Temp\ccvDnxKa.s 			page 308


 15133      5F676574 
 15133      5F63616C 
 15133      6C65655F 
 15133      6E616D65 
 15134              	.LASF178:
 15135 035c 705F656E 		.ascii	"p_end\000"
 15135      6400
 15136              	.LASF221:
 15137 0362 635F6F62 		.ascii	"c_object_neq\000"
 15137      6A656374 
 15137      5F6E6571 
 15137      00
 15138              	.LASF115:
 15139 036f 666C6167 		.ascii	"flag_plus\000"
 15139      5F706C75 
 15139      7300
 15140              	.LASF213:
 15141 0379 635F6F62 		.ascii	"c_object_new\000"
 15141      6A656374 
 15141      5F6E6577 
 15141      00
 15142              	.LASF41:
 15143 0386 524F626A 		.ascii	"RObject\000"
 15143      65637400 
 15144              	.LASF6:
 15145 038e 756E7369 		.ascii	"unsigned char\000"
 15145      676E6564 
 15145      20636861 
 15145      7200
 15146              	.LASF302:
 15147 039c 636F6E73 		.ascii	"const_object_add\000"
 15147      745F6F62 
 15147      6A656374 
 15147      5F616464 
 15147      00
 15148              	.LASF164:
 15149 03ad 4F505F53 		.ascii	"OP_STRCAT\000"
 15149      54524341 
 15149      5400
 15150              	.LASF305:
 15151 03b7 6D726263 		.ascii	"mrbc_rproc_alloc\000"
 15151      5F727072 
 15151      6F635F61 
 15151      6C6C6F63 
 15151      00
 15152              	.LASF70:
 15153 03c8 7265665F 		.ascii	"ref_count\000"
 15153      636F756E 
 15153      7400
 15154              	.LASF252:
 15155 03d2 6D726263 		.ascii	"mrbc_send\000"
 15155      5F73656E 
 15155      6400
 15156              	.LASF313:
 15157 03dc 6D726263 		.ascii	"mrbc_init_class_hash\000"
 15157      5F696E69 
 15157      745F636C 
ARM GAS  C:\Users\164\AppData\Local\Temp\ccvDnxKa.s 			page 309


 15157      6173735F 
 15157      68617368 
 15158              	.LASF129:
 15159 03f1 4F505F4C 		.ascii	"OP_LOADSYM\000"
 15159      4F414453 
 15159      594D00
 15160              	.LASF161:
 15161 03fc 4F505F47 		.ascii	"OP_GE\000"
 15161      4500
 15162              	.LASF278:
 15163 0402 6D726263 		.ascii	"mrbc_printf_bstr\000"
 15163      5F707269 
 15163      6E74665F 
 15163      62737472 
 15163      00
 15164              	.LASF108:
 15165 0413 5F5F676E 		.ascii	"__gnuc_va_list\000"
 15165      75635F76 
 15165      615F6C69 
 15165      737400
 15166              	.LASF160:
 15167 0422 4F505F47 		.ascii	"OP_GT\000"
 15167      5400
 15168              	.LASF97:
 15169 0428 706F6F6C 		.ascii	"pools\000"
 15169      7300
 15170              	.LASF227:
 15171 042e 76616C75 		.ascii	"value\000"
 15171      6500
 15172              	.LASF101:
 15173 0434 6D72625F 		.ascii	"mrb_proc\000"
 15173      70726F63 
 15173      00
 15174              	.LASF263:
 15175 043d 6D726263 		.ascii	"mrbc_class_nil\000"
 15175      5F636C61 
 15175      73735F6E 
 15175      696C00
 15176              	.LASF310:
 15177 044c 6D726263 		.ascii	"mrbc_init_class_string\000"
 15177      5F696E69 
 15177      745F636C 
 15177      6173735F 
 15177      73747269 
 15178              	.LASF199:
 15179 0463 635F6E69 		.ascii	"c_nil_false_not\000"
 15179      6C5F6661 
 15179      6C73655F 
 15179      6E6F7400 
 15180              	.LASF18:
 15181 0473 63686172 		.ascii	"char\000"
 15181      00
 15182              	.LASF33:
 15183 0478 70635F69 		.ascii	"pc_irep\000"
 15183      72657000 
 15184              	.LASF225:
 15185 0480 6D726263 		.ascii	"mrbc_run_mrblib\000"
ARM GAS  C:\Users\164\AppData\Local\Temp\ccvDnxKa.s 			page 310


 15185      5F72756E 
 15185      5F6D7262 
 15185      6C696200 
 15186              	.LASF259:
 15187 0490 6D726263 		.ascii	"mrbc_class_object\000"
 15187      5F636C61 
 15187      73735F6F 
 15187      626A6563 
 15187      7400
 15188              	.LASF319:
 15189 04a2 5F5F6275 		.ascii	"__builtin_strlen\000"
 15189      696C7469 
 15189      6E5F7374 
 15189      726C656E 
 15189      00
 15190              	.LASF9:
 15191 04b3 5F5F7569 		.ascii	"__uint16_t\000"
 15191      6E743136 
 15191      5F7400
 15192              	.LASF87:
 15193 04be 6D726263 		.ascii	"mrbc_value\000"
 15193      5F76616C 
 15193      756500
 15194              	.LASF150:
 15195 04c9 4F505F42 		.ascii	"OP_BLKPUSH\000"
 15195      4C4B5055 
 15195      534800
 15196              	.LASF215:
 15197 04d4 73796D73 		.ascii	"syms\000"
 15197      00
 15198              	.LASF76:
 15199 04d9 52417272 		.ascii	"RArray\000"
 15199      617900
 15200              	.LASF60:
 15201 04e0 70726F63 		.ascii	"proc\000"
 15201      00
 15202              	.LASF32:
 15203 04e5 766D5F69 		.ascii	"vm_id\000"
 15203      6400
 15204              	.LASF98:
 15205 04eb 7074725F 		.ascii	"ptr_to_sym\000"
 15205      746F5F73 
 15205      796D00
 15206              	.LASF288:
 15207 04f6 6D726263 		.ascii	"mrbc_instance_new\000"
 15207      5F696E73 
 15207      74616E63 
 15207      655F6E65 
 15207      7700
 15208              	.LASF289:
 15209 0508 6D726263 		.ascii	"mrbc_release\000"
 15209      5F72656C 
 15209      65617365 
 15209      00
 15210              	.LASF250:
 15211 0515 6D726263 		.ascii	"mrbc_funcall\000"
 15211      5F66756E 
ARM GAS  C:\Users\164\AppData\Local\Temp\ccvDnxKa.s 			page 311


 15211      63616C6C 
 15211      00
 15212              	.LASF155:
 15213 0522 4F505F4D 		.ascii	"OP_MUL\000"
 15213      554C00
 15214              	.LASF201:
 15215 0529 635F6661 		.ascii	"c_false_to_s\000"
 15215      6C73655F 
 15215      746F5F73 
 15215      00
 15216              	.LASF294:
 15217 0536 6D726263 		.ascii	"mrbc_string_new\000"
 15217      5F737472 
 15217      696E675F 
 15217      6E657700 
 15218              	.LASF135:
 15219 0546 4F505F53 		.ascii	"OP_SETGLOBAL\000"
 15219      4554474C 
 15219      4F42414C 
 15219      00
 15220              	.LASF125:
 15221 0553 4F505F4E 		.ascii	"OP_NOP\000"
 15221      4F5000
 15222              	.LASF239:
 15223 055a 6D726263 		.ascii	"mrbc_get_class_by_name\000"
 15223      5F676574 
 15223      5F636C61 
 15223      73735F62 
 15223      795F6E61 
 15224              	.LASF57:
 15225 0571 6D726263 		.ascii	"mrbc_vtype\000"
 15225      5F767479 
 15225      706500
 15226              	.LASF61:
 15227 057c 61727261 		.ascii	"array\000"
 15227      7900
 15228              	.LASF280:
 15229 0582 6D726263 		.ascii	"mrbc_obj_is_kind_of\000"
 15229      5F6F626A 
 15229      5F69735F 
 15229      6B696E64 
 15229      5F6F6600 
 15230              	.LASF151:
 15231 0596 4F505F41 		.ascii	"OP_ADD\000"
 15231      444400
 15232              	.LASF106:
 15233 059d 6D726263 		.ascii	"mrbc_callinfo\000"
 15233      5F63616C 
 15233      6C696E66 
 15233      6F00
 15234              	.LASF311:
 15235 05ab 6D726263 		.ascii	"mrbc_init_class_array\000"
 15235      5F696E69 
 15235      745F636C 
 15235      6173735F 
 15235      61727261 
 15236              	.LASF251:
ARM GAS  C:\Users\164\AppData\Local\Temp\ccvDnxKa.s 			page 312


 15237 05c1 63616C6C 		.ascii	"callinfo\000"
 15237      696E666F 
 15237      00
 15238              	.LASF248:
 15239 05ca 6D726263 		.ascii	"mrbc_init_class_false\000"
 15239      5F696E69 
 15239      745F636C 
 15239      6173735F 
 15239      66616C73 
 15240              	.LASF145:
 15241 05e0 4F505F53 		.ascii	"OP_SEND\000"
 15241      454E4400 
 15242              	.LASF254:
 15243 05e8 6D657468 		.ascii	"method\000"
 15243      6F6400
 15244              	.LASF122:
 15245 05ef 6275665F 		.ascii	"buf_end\000"
 15245      656E6400 
 15246              	.LASF300:
 15247 05f7 6D726263 		.ascii	"mrbc_array_get\000"
 15247      5F617272 
 15247      61795F67 
 15247      657400
 15248              	.LASF141:
 15249 0606 4F505F53 		.ascii	"OP_SETUPVAR\000"
 15249      45545550 
 15249      56415200 
 15250              	.LASF304:
 15251 0612 5F5F6173 		.ascii	"__assert_func\000"
 15251      73657274 
 15251      5F66756E 
 15251      6300
 15252              	.LASF195:
 15253 0620 6D726263 		.ascii	"mrbc_hash_i_next\000"
 15253      5F686173 
 15253      685F695F 
 15253      6E657874 
 15253      00
 15254              	.LASF53:
 15255 0631 4D524243 		.ascii	"MRBC_TT_ARRAY\000"
 15255      5F54545F 
 15255      41525241 
 15255      5900
 15256              	.LASF284:
 15257 063f 7374725F 		.ascii	"str_to_symid\000"
 15257      746F5F73 
 15257      796D6964 
 15257      00
 15258              	.LASF159:
 15259 064c 4F505F4C 		.ascii	"OP_LE\000"
 15259      4500
 15260              	.LASF45:
 15261 0652 4D524243 		.ascii	"MRBC_TT_FALSE\000"
 15261      5F54545F 
 15261      46414C53 
 15261      4500
 15262              	.LASF175:
ARM GAS  C:\Users\164\AppData\Local\Temp\ccvDnxKa.s 			page 313


 15263 0660 52486173 		.ascii	"RHashIterator\000"
 15263      68497465 
 15263      7261746F 
 15263      7200
 15264              	.LASF14:
 15265 066e 6C6F6E67 		.ascii	"long unsigned int\000"
 15265      20756E73 
 15265      69676E65 
 15265      6420696E 
 15265      7400
 15266              	.LASF275:
 15267 0680 6D726263 		.ascii	"mrbc_printf_int\000"
 15267      5F707269 
 15267      6E74665F 
 15267      696E7400 
 15268              	.LASF109:
 15269 0690 5F5F7661 		.ascii	"__va_list\000"
 15269      5F6C6973 
 15269      7400
 15270              	.LASF293:
 15271 069a 636F6E73 		.ascii	"console_printf\000"
 15271      6F6C655F 
 15271      7072696E 
 15271      746600
 15272              	.LASF158:
 15273 06a9 4F505F4C 		.ascii	"OP_LT\000"
 15273      5400
 15274              	.LASF180:
 15275 06af 6D726263 		.ascii	"mrbc_printf_init\000"
 15275      5F707269 
 15275      6E74665F 
 15275      696E6974 
 15275      00
 15276              	.LASF283:
 15277 06c0 73747263 		.ascii	"strcpy\000"
 15277      707900
 15278              	.LASF147:
 15279 06c7 4F505F43 		.ascii	"OP_CALL\000"
 15279      414C4C00 
 15280              	.LASF228:
 15281 06cf 636F6E73 		.ascii	"console_print\000"
 15281      6F6C655F 
 15281      7072696E 
 15281      7400
 15282              	.LASF206:
 15283 06dd 635F6F62 		.ascii	"c_object_to_s\000"
 15283      6A656374 
 15283      5F746F5F 
 15283      7300
 15284              	.LASF79:
 15285 06eb 52537472 		.ascii	"RString\000"
 15285      696E6700 
 15286              	.LASF176:
 15287 06f3 74617267 		.ascii	"target\000"
 15287      657400
 15288              	.LASF78:
 15289 06fa 6E5F7374 		.ascii	"n_stored\000"
ARM GAS  C:\Users\164\AppData\Local\Temp\ccvDnxKa.s 			page 314


 15289      6F726564 
 15289      00
 15290              	.LASF306:
 15291 0703 6D726263 		.ascii	"mrbc_symbol_new\000"
 15291      5F73796D 
 15291      626F6C5F 
 15291      6E657700 
 15292              	.LASF140:
 15293 0713 4F505F47 		.ascii	"OP_GETUPVAR\000"
 15293      45545550 
 15293      56415200 
 15294              	.LASF110:
 15295 071f 5F5F6170 		.ascii	"__ap\000"
 15295      00
 15296              	.LASF172:
 15297 0724 4F505F53 		.ascii	"OP_STOP\000"
 15297      544F5000 
 15298              	.LASF200:
 15299 072c 635F6E69 		.ascii	"c_nil_inspect\000"
 15299      6C5F696E 
 15299      73706563 
 15299      7400
 15300              	.LASF191:
 15301 073a 6D726263 		.ascii	"mrbc_range_first\000"
 15301      5F72616E 
 15301      67655F66 
 15301      69727374 
 15301      00
 15302              	.LASF31:
 15303 074b 69726570 		.ascii	"irep\000"
 15303      00
 15304              	.LASF94:
 15305 0750 696C656E 		.ascii	"ilen\000"
 15305      00
 15306              	.LASF25:
 15307 0755 75696E74 		.ascii	"uintptr_t\000"
 15307      7074725F 
 15307      7400
 15308              	.LASF77:
 15309 075f 64617461 		.ascii	"data_size\000"
 15309      5F73697A 
 15309      6500
 15310              	.LASF256:
 15311 0769 4552524F 		.ascii	"ERROR\000"
 15311      5200
 15312              	.LASF81:
 15313 076f 5252616E 		.ascii	"RRange\000"
 15313      676500
 15314              	.LASF196:
 15315 0776 61726763 		.ascii	"argc\000"
 15315      00
 15316              	.LASF189:
 15317 077b 6D726263 		.ascii	"mrbc_string_cstr\000"
 15317      5F737472 
 15317      696E675F 
 15317      63737472 
 15317      00
ARM GAS  C:\Users\164\AppData\Local\Temp\ccvDnxKa.s 			page 315


 15318              	.LASF142:
 15319 078c 4F505F4A 		.ascii	"OP_JMP\000"
 15319      4D5000
 15320              	.LASF52:
 15321 0793 4D524243 		.ascii	"MRBC_TT_PROC\000"
 15321      5F54545F 
 15321      50524F43 
 15321      00
 15322              	.LASF242:
 15323 07a0 7270726F 		.ascii	"rproc\000"
 15323      6300
 15324              	.LASF144:
 15325 07a6 4F505F4A 		.ascii	"OP_JMPNOT\000"
 15325      4D504E4F 
 15325      5400
 15326              	.LASF270:
 15327 07b0 6D726263 		.ascii	"mrbc_class_hash\000"
 15327      5F636C61 
 15327      73735F68 
 15327      61736800 
 15328              	.LASF68:
 15329 07c0 70726F63 		.ascii	"procs\000"
 15329      7300
 15330              	.LASF42:
 15331 07c6 4D524243 		.ascii	"MRBC_TT_HANDLE\000"
 15331      5F54545F 
 15331      48414E44 
 15331      4C4500
 15332              	.LASF303:
 15333 07d5 636F6E73 		.ascii	"const_object_get\000"
 15333      745F6F62 
 15333      6A656374 
 15333      5F676574 
 15333      00
 15334              	.LASF267:
 15335 07e6 6D726263 		.ascii	"mrbc_class_string\000"
 15335      5F636C61 
 15335      73735F73 
 15335      7472696E 
 15335      6700
 15336              	.LASF13:
 15337 07f8 5F5F7569 		.ascii	"__uint32_t\000"
 15337      6E743332 
 15337      5F7400
 15338              	.LASF35:
 15339 0803 63757272 		.ascii	"current_regs\000"
 15339      656E745F 
 15339      72656773 
 15339      00
 15340              	.LASF216:
 15341 0810 6F72675F 		.ascii	"org_pc_irep\000"
 15341      70635F69 
 15341      72657000 
 15342              	.LASF1:
 15343 081c 6C6F6E67 		.ascii	"long long int\000"
 15343      206C6F6E 
 15343      6720696E 
ARM GAS  C:\Users\164\AppData\Local\Temp\ccvDnxKa.s 			page 316


 15343      7400
 15344              	.LASF111:
 15345 082a 76615F6C 		.ascii	"va_list\000"
 15345      69737400 
 15346              	.LASF119:
 15347 0832 77696474 		.ascii	"width\000"
 15347      6800
 15348              	.LASF279:
 15349 0838 73796D69 		.ascii	"symid_to_str\000"
 15349      645F746F 
 15349      5F737472 
 15349      00
 15350              	.LASF226:
 15351 0845 635F6F62 		.ascii	"c_object_class\000"
 15351      6A656374 
 15351      5F636C61 
 15351      737300
 15352              	.LASF28:
 15353 0854 646F7562 		.ascii	"double\000"
 15353      6C6500
 15354              	.LASF312:
 15355 085b 6D726263 		.ascii	"mrbc_init_class_range\000"
 15355      5F696E69 
 15355      745F636C 
 15355      6173735F 
 15355      72616E67 
 15356              	.LASF230:
 15357 0871 6D726263 		.ascii	"mrbc_print_sub\000"
 15357      5F707269 
 15357      6E745F73 
 15357      756200
 15358              	.LASF174:
 15359 0880 6D726263 		.ascii	"mrbc_hash\000"
 15359      5F686173 
 15359      6800
 15360              	.LASF258:
 15361 088a 6D72626C 		.ascii	"mrblib_bytecode\000"
 15361      69625F62 
 15361      79746563 
 15361      6F646500 
 15362              	.LASF271:
 15363 089a 49544D5F 		.ascii	"ITM_RxBuffer\000"
 15363      52784275 
 15363      66666572 
 15363      00
 15364              	.LASF153:
 15365 08a7 4F505F53 		.ascii	"OP_SUB\000"
 15365      554200
 15366              	.LASF69:
 15367 08ae 52496E73 		.ascii	"RInstance\000"
 15367      74616E63 
 15367      6500
 15368              	.LASF112:
 15369 08b8 666C6F61 		.ascii	"float\000"
 15369      7400
 15370              	.LASF203:
 15371 08be 635F6F62 		.ascii	"c_object_not\000"
ARM GAS  C:\Users\164\AppData\Local\Temp\ccvDnxKa.s 			page 317


 15371      6A656374 
 15371      5F6E6F74 
 15371      00
 15372              	.LASF62:
 15373 08cb 73747269 		.ascii	"string\000"
 15373      6E6700
 15374              	.LASF0:
 15375 08d2 756E7369 		.ascii	"unsigned int\000"
 15375      676E6564 
 15375      20696E74 
 15375      00
 15376              	.LASF55:
 15377 08df 4D524243 		.ascii	"MRBC_TT_RANGE\000"
 15377      5F54545F 
 15377      52414E47 
 15377      4500
 15378              	.LASF173:
 15379 08ed 4F505F41 		.ascii	"OP_ABORT\000"
 15379      424F5254 
 15379      00
 15380              	.LASF266:
 15381 08f6 6D726263 		.ascii	"mrbc_class_float\000"
 15381      5F636C61 
 15381      73735F66 
 15381      6C6F6174 
 15381      00
 15382              	.LASF217:
 15383 0907 6F72675F 		.ascii	"org_pc\000"
 15383      706300
 15384              	.LASF168:
 15385 090e 4F505F43 		.ascii	"OP_CLASS\000"
 15385      4C415353 
 15385      00
 15386              	.LASF190:
 15387 0917 6D726263 		.ascii	"mrbc_range_exclude_end\000"
 15387      5F72616E 
 15387      67655F65 
 15387      78636C75 
 15387      64655F65 
 15388              	.LASF245:
 15389 092e 635F6F62 		.ascii	"c_object_attr_reader\000"
 15389      6A656374 
 15389      5F617474 
 15389      725F7265 
 15389      61646572 
 15390              	.LASF166:
 15391 0943 4F505F4C 		.ascii	"OP_LAMBDA\000"
 15391      414D4244 
 15391      4100
 15392              	.LASF282:
 15393 094d 6D726263 		.ascii	"mrbc_alloc\000"
 15393      5F616C6C 
 15393      6F6300
 15394              	.LASF273:
 15395 0958 6D726263 		.ascii	"mrbc_string_new_cstr\000"
 15395      5F737472 
 15395      696E675F 
ARM GAS  C:\Users\164\AppData\Local\Temp\ccvDnxKa.s 			page 318


 15395      6E65775F 
 15395      63737472 
 15396              	.LASF148:
 15397 096d 4F505F45 		.ascii	"OP_ENTER\000"
 15397      4E544552 
 15397      00
 15398              	.LASF308:
 15399 0976 6D726263 		.ascii	"mrbc_init_class_symbol\000"
 15399      5F696E69 
 15399      745F636C 
 15399      6173735F 
 15399      73796D62 
 15400              	.LASF235:
 15401 098d 66696E64 		.ascii	"find_method\000"
 15401      5F6D6574 
 15401      686F6400 
 15402              	.LASF247:
 15403 0999 6D726263 		.ascii	"mrbc_init_class_proc\000"
 15403      5F696E69 
 15403      745F636C 
 15403      6173735F 
 15403      70726F63 
 15404              	.LASF181:
 15405 09ae 6D726263 		.ascii	"mrbc_printf_end\000"
 15405      5F707269 
 15405      6E74665F 
 15405      656E6400 
 15406              	.LASF85:
 15407 09be 52486173 		.ascii	"RHash\000"
 15407      6800
 15408              	.LASF83:
 15409 09c4 66697273 		.ascii	"first\000"
 15409      7400
 15410              	.LASF39:
 15411 09ca 666C6167 		.ascii	"flag_preemption\000"
 15411      5F707265 
 15411      656D7074 
 15411      696F6E00 
 15412              	.LASF231:
 15413 09da 6D726263 		.ascii	"mrbc_p_sub\000"
 15413      5F705F73 
 15413      756200
 15414              	.LASF146:
 15415 09e5 4F505F53 		.ascii	"OP_SENDB\000"
 15415      454E4442 
 15415      00
 15416              	.LASF82:
 15417 09ee 666C6167 		.ascii	"flag_exclude\000"
 15417      5F657863 
 15417      6C756465 
 15417      00
 15418              	.LASF123:
 15419 09fb 66737472 		.ascii	"fstr\000"
 15419      00
 15420              	.LASF143:
 15421 0a00 4F505F4A 		.ascii	"OP_JMPIF\000"
 15421      4D504946 
ARM GAS  C:\Users\164\AppData\Local\Temp\ccvDnxKa.s 			page 319


 15421      00
 15422              	.LASF205:
 15423 0a09 6D726263 		.ascii	"mrbc_printf_str\000"
 15423      5F707269 
 15423      6E74665F 
 15423      73747200 
 15424              	.LASF236:
 15425 0a19 72656376 		.ascii	"recv\000"
 15425      00
 15426              	.LASF219:
 15427 0a1e 635F6F62 		.ascii	"c_object_equal3\000"
 15427      6A656374 
 15427      5F657175 
 15427      616C3300 
 15428              	.LASF114:
 15429 0a2e 74797065 		.ascii	"type\000"
 15429      00
 15430              	.LASF116:
 15431 0a33 666C6167 		.ascii	"flag_minus\000"
 15431      5F6D696E 
 15431      757300
 15432              	.LASF171:
 15433 0a3e 4F505F54 		.ascii	"OP_TCLASS\000"
 15433      434C4153 
 15433      5300
 15434              	.LASF2:
 15435 0a48 6C6F6E67 		.ascii	"long double\000"
 15435      20646F75 
 15435      626C6500 
 15436              	.LASF139:
 15437 0a54 4F505F53 		.ascii	"OP_SETCONST\000"
 15437      4554434F 
 15437      4E535400 
 15438              	.LASF58:
 15439 0a60 68616E64 		.ascii	"handle\000"
 15439      6C6500
 15440              	.LASF285:
 15441 0a67 6D726263 		.ascii	"mrbc_instance_setiv\000"
 15441      5F696E73 
 15441      74616E63 
 15441      655F7365 
 15441      74697600 
 15442              	.LASF134:
 15443 0a7b 4F505F47 		.ascii	"OP_GETGLOBAL\000"
 15443      4554474C 
 15443      4F42414C 
 15443      00
 15444              	.LASF222:
 15445 0a88 635F6F62 		.ascii	"c_object_alias_method\000"
 15445      6A656374 
 15445      5F616C69 
 15445      61735F6D 
 15445      6574686F 
 15446              	.LASF4:
 15447 0a9e 5F5F696E 		.ascii	"__int8_t\000"
 15447      74385F74 
 15447      00
ARM GAS  C:\Users\164\AppData\Local\Temp\ccvDnxKa.s 			page 320


 15448              	.LASF170:
 15449 0aa7 4F505F4D 		.ascii	"OP_METHOD\000"
 15449      4554484F 
 15449      4400
 15450              	.LASF46:
 15451 0ab1 4D524243 		.ascii	"MRBC_TT_TRUE\000"
 15451      5F54545F 
 15451      54525545 
 15451      00
 15452              	.LASF80:
 15453 0abe 73697A65 		.ascii	"size\000"
 15453      00
 15454              	.LASF202:
 15455 0ac3 635F7472 		.ascii	"c_true_to_s\000"
 15455      75655F74 
 15455      6F5F7300 
 15456              	.LASF15:
 15457 0acf 6C6F6E67 		.ascii	"long long unsigned int\000"
 15457      206C6F6E 
 15457      6720756E 
 15457      7369676E 
 15457      65642069 
 15458              	.LASF138:
 15459 0ae6 4F505F47 		.ascii	"OP_GETCONST\000"
 15459      4554434F 
 15459      4E535400 
 15460              	.LASF54:
 15461 0af2 4D524243 		.ascii	"MRBC_TT_STRING\000"
 15461      5F54545F 
 15461      53545249 
 15461      4E4700
 15462              	.LASF26:
 15463 0b01 6D726263 		.ascii	"mrbc_int\000"
 15463      5F696E74 
 15463      00
 15464              	.LASF74:
 15465 0b0a 635F6675 		.ascii	"c_func\000"
 15465      6E6300
 15466              	.LASF22:
 15467 0b11 75696E74 		.ascii	"uint16_t\000"
 15467      31365F74 
 15467      00
 15468              	.LASF272:
 15469 0b1a 6D726263 		.ascii	"mrbc_push_callinfo\000"
 15469      5F707573 
 15469      685F6361 
 15469      6C6C696E 
 15469      666F00
 15470              	.LASF244:
 15471 0b2d 635F6F62 		.ascii	"c_object_attr_accessor\000"
 15471      6A656374 
 15471      5F617474 
 15471      725F6163 
 15471      63657373 
 15472              	.LASF130:
 15473 0b44 4F505F4C 		.ascii	"OP_LOADNIL\000"
 15473      4F41444E 
ARM GAS  C:\Users\164\AppData\Local\Temp\ccvDnxKa.s 			page 321


 15473      494C00
 15474              	.LASF207:
 15475 0b4f 635F6F62 		.ascii	"c_object_kind_of\000"
 15475      6A656374 
 15475      5F6B696E 
 15475      645F6F66 
 15475      00
 15476              	.LASF211:
 15477 0b60 6E616D65 		.ascii	"namebuf\000"
 15477      62756600 
 15478              	.LASF187:
 15479 0b68 6D726263 		.ascii	"mrbc_string_size\000"
 15479      5F737472 
 15479      696E675F 
 15479      73697A65 
 15479      00
 15480              	.LASF162:
 15481 0b79 4F505F41 		.ascii	"OP_ARRAY\000"
 15481      52524159 
 15481      00
 15482              	.LASF40:
 15483 0b82 666C6167 		.ascii	"flag_need_memfree\000"
 15483      5F6E6565 
 15483      645F6D65 
 15483      6D667265 
 15483      6500
 15484              	.LASF214:
 15485 0b94 6E65775F 		.ascii	"new_obj\000"
 15485      6F626A00 
 15486              	.LASF243:
 15487 0b9c 6D726263 		.ascii	"mrbc_init_class_object\000"
 15487      5F696E69 
 15487      745F636C 
 15487      6173735F 
 15487      6F626A65 
 15488              	.LASF38:
 15489 0bb3 6572726F 		.ascii	"error_code\000"
 15489      725F636F 
 15489      646500
 15490              	.LASF291:
 15491 0bbe 6D726263 		.ascii	"mrbc_vm_run\000"
 15491      5F766D5F 
 15491      72756E00 
 15492              	.LASF292:
 15493 0bca 6D726263 		.ascii	"mrbc_compare\000"
 15493      5F636F6D 
 15493      70617265 
 15493      00
 15494              	.LASF7:
 15495 0bd7 5F5F696E 		.ascii	"__int16_t\000"
 15495      7431365F 
 15495      7400
 15496              	.LASF152:
 15497 0be1 4F505F41 		.ascii	"OP_ADDI\000"
 15497      44444900 
 15498              	.LASF34:
 15499 0be9 72656773 		.ascii	"regs\000"
ARM GAS  C:\Users\164\AppData\Local\Temp\ccvDnxKa.s 			page 322


 15499      00
 15500              	.LASF118:
 15501 0bee 666C6167 		.ascii	"flag_zero\000"
 15501      5F7A6572 
 15501      6F00
 15502              	.LASF90:
 15503 0bf8 49524550 		.ascii	"IREP\000"
 15503      00
 15504              	.LASF16:
 15505 0bfd 5F5F7569 		.ascii	"__uintptr_t\000"
 15505      6E747074 
 15505      725F7400 
 15506              	.LASF95:
 15507 0c09 706C656E 		.ascii	"plen\000"
 15507      00
 15508              	.LASF96:
 15509 0c0e 636F6465 		.ascii	"code\000"
 15509      00
 15510              	.LASF274:
 15511 0c13 6D726263 		.ascii	"mrbc_dec_ref_counter\000"
 15511      5F646563 
 15511      5F726566 
 15511      5F636F75 
 15511      6E746572 
 15512              	.LASF183:
 15513 0c28 75696E74 		.ascii	"uint32_to_bin\000"
 15513      33325F74 
 15513      6F5F6269 
 15513      6E00
 15514              	.LASF249:
 15515 0c36 6D726263 		.ascii	"mrbc_init_class_true\000"
 15515      5F696E69 
 15515      745F636C 
 15515      6173735F 
 15515      74727565 
 15516              	.LASF192:
 15517 0c4b 6D726263 		.ascii	"mrbc_range_last\000"
 15517      5F72616E 
 15517      67655F6C 
 15517      61737400 
 15518              	.LASF210:
 15519 0c5b 6E616D65 		.ascii	"name\000"
 15519      00
 15520              	.LASF103:
 15521 0c60 43414C4C 		.ascii	"CALLINFO\000"
 15521      494E464F 
 15521      00
 15522              	.LASF264:
 15523 0c69 6D726263 		.ascii	"mrbc_class_array\000"
 15523      5F636C61 
 15523      73735F61 
 15523      72726179 
 15523      00
 15524              	.LASF260:
 15525 0c7a 6D726263 		.ascii	"mrbc_class_proc\000"
 15525      5F636C61 
 15525      73735F70 
ARM GAS  C:\Users\164\AppData\Local\Temp\ccvDnxKa.s 			page 323


 15525      726F6300 
 15526              	.LASF268:
 15527 0c8a 6D726263 		.ascii	"mrbc_class_symbol\000"
 15527      5F636C61 
 15527      73735F73 
 15527      796D626F 
 15527      6C00
 15528              	.LASF8:
 15529 0c9c 73686F72 		.ascii	"short int\000"
 15529      7420696E 
 15529      7400
 15530              	.LASF276:
 15531 0ca6 6D726263 		.ascii	"mrbc_printf_main\000"
 15531      5F707269 
 15531      6E74665F 
 15531      6D61696E 
 15531      00
 15532              	.LASF126:
 15533 0cb7 4F505F4D 		.ascii	"OP_MOVE\000"
 15533      4F564500 
 15534              	.LASF89:
 15535 0cbf 66756E63 		.ascii	"func\000"
 15535      00
 15536              	.LASF63:
 15537 0cc4 72616E67 		.ascii	"range\000"
 15537      6500
 15538              	.LASF44:
 15539 0cca 4D524243 		.ascii	"MRBC_TT_NIL\000"
 15539      5F54545F 
 15539      4E494C00 
 15540              	.LASF185:
 15541 0cd6 6D726263 		.ascii	"mrbc_symbol_cstr\000"
 15541      5F73796D 
 15541      626F6C5F 
 15541      63737472 
 15541      00
 15542              	.LASF21:
 15543 0ce7 696E7431 		.ascii	"int16_t\000"
 15543      365F7400 
 15544              	.LASF169:
 15545 0cef 4F505F45 		.ascii	"OP_EXEC\000"
 15545      58454300 
 15546              	.LASF124:
 15547 0cf7 6D726263 		.ascii	"mrbc_printf\000"
 15547      5F707269 
 15547      6E746600 
 15548              	.LASF86:
 15549 0d03 6D726263 		.ascii	"mrbc_object\000"
 15549      5F6F626A 
 15549      65637400 
 15550              	.LASF287:
 15551 0d0f 6D726263 		.ascii	"mrbc_instance_getiv\000"
 15551      5F696E73 
 15551      74616E63 
 15551      655F6765 
 15551      74697600 
 15552              	.LASF188:
ARM GAS  C:\Users\164\AppData\Local\Temp\ccvDnxKa.s 			page 324


 15553 0d23 636F6E73 		.ascii	"console_nprint\000"
 15553      6F6C655F 
 15553      6E707269 
 15553      6E7400
 15554              	.LASF232:
 15555 0d32 6D726263 		.ascii	"mrbc_puts_sub\000"
 15555      5F707574 
 15555      735F7375 
 15555      6200
 15556              	.LASF233:
 15557 0d40 635F6F62 		.ascii	"c_object_puts\000"
 15557      6A656374 
 15557      5F707574 
 15557      7300
 15558              	.LASF167:
 15559 0d4e 4F505F52 		.ascii	"OP_RANGE\000"
 15559      414E4745 
 15559      00
 15560              	.LASF212:
 15561 0d57 635F6F62 		.ascii	"c_object_getiv\000"
 15561      6A656374 
 15561      5F676574 
 15561      697600
 15562              	.LASF100:
 15563 0d66 6D726263 		.ascii	"mrbc_proc\000"
 15563      5F70726F 
 15563      6300
 15564              	.LASF163:
 15565 0d70 4F505F53 		.ascii	"OP_STRING\000"
 15565      5452494E 
 15565      4700
 15566              	.LASF136:
 15567 0d7a 4F505F47 		.ascii	"OP_GETIV\000"
 15567      45544956 
 15567      00
 15568              	.LASF30:
 15569 0d83 6D726263 		.ascii	"mrbc_func_t\000"
 15569      5F66756E 
 15569      635F7400 
 15570              	.LASF277:
 15571 0d8f 7374726C 		.ascii	"strlen\000"
 15571      656E00
 15572              	.LASF131:
 15573 0d96 4F505F4C 		.ascii	"OP_LOADSELF\000"
 15573      4F414453 
 15573      454C4600 
 15574              	.LASF218:
 15575 0da2 6F72675F 		.ascii	"org_regs\000"
 15575      72656773 
 15575      00
 15576              	.LASF107:
 15577 0dab 6D726263 		.ascii	"mrbc_vm\000"
 15577      5F766D00 
 15578              	.LASF194:
 15579 0db3 6D726263 		.ascii	"mrbc_hash_i_has_next\000"
 15579      5F686173 
 15579      685F695F 
ARM GAS  C:\Users\164\AppData\Local\Temp\ccvDnxKa.s 			page 325


 15579      6861735F 
 15579      6E657874 
 15580              	.LASF298:
 15581 0dc8 6D726263 		.ascii	"mrbc_vm_end\000"
 15581      5F766D5F 
 15581      656E6400 
 15582              	.LASF197:
 15583 0dd4 635F696E 		.ascii	"c_ineffect\000"
 15583      65666665 
 15583      637400
 15584              	.LASF223:
 15585 0ddf 70726F63 		.ascii	"proc_alias\000"
 15585      5F616C69 
 15585      617300
 15586              	.LASF24:
 15587 0dea 75696E74 		.ascii	"uint32_t\000"
 15587      33325F74 
 15587      00
 15588              	.LASF290:
 15589 0df3 6D726263 		.ascii	"mrbc_dup\000"
 15589      5F647570 
 15589      00
 15590              	.LASF255:
 15591 0dfc 444F4E45 		.ascii	"DONE\000"
 15591      00
 15592              	.LASF10:
 15593 0e01 73686F72 		.ascii	"short unsigned int\000"
 15593      7420756E 
 15593      7369676E 
 15593      65642069 
 15593      6E7400
 15594              	.LASF297:
 15595 0e14 6D726263 		.ascii	"mrbc_vm_begin\000"
 15595      5F766D5F 
 15595      62656769 
 15595      6E00
 15596              	.LASF316:
 15597 0e22 433A5C55 		.ascii	"C:\\Users\\164\\Desktop\\github\\mcmc\\Design01.cyd"
 15597      73657273 
 15597      5C313634 
 15597      5C446573 
 15597      6B746F70 
 15598 0e4f 736E00   		.ascii	"sn\000"
 15599              	.LASF315:
 15600 0e52 636C6173 		.ascii	"class.c\000"
 15600      732E6300 
 15601              	.LASF37:
 15602 0e5a 74617267 		.ascii	"target_class\000"
 15602      65745F63 
 15602      6C617373 
 15602      00
 15603              	.LASF307:
 15604 0e67 6D726263 		.ascii	"mrbc_init_class_fixnum\000"
 15604      5F696E69 
 15604      745F636C 
 15604      6173735F 
 15604      6669786E 
ARM GAS  C:\Users\164\AppData\Local\Temp\ccvDnxKa.s 			page 326


 15605              	.LASF73:
 15606 0e7e 5250726F 		.ascii	"RProc\000"
 15606      6300
 15607              	.LASF204:
 15608 0e84 635F7072 		.ascii	"c_proc_to_s\000"
 15608      6F635F74 
 15608      6F5F7300 
 15609              	.LASF11:
 15610 0e90 5F5F696E 		.ascii	"__int32_t\000"
 15610      7433325F 
 15610      7400
 15611              	.LASF27:
 15612 0e9a 6D726263 		.ascii	"mrbc_float\000"
 15612      5F666C6F 
 15612      617400
 15613              	.LASF92:
 15614 0ea5 6E726567 		.ascii	"nregs\000"
 15614      7300
 15615              	.LASF299:
 15616 0eab 68616C5F 		.ascii	"hal_write\000"
 15616      77726974 
 15616      6500
 15617              	.LASF198:
 15618 0eb5 635F7072 		.ascii	"c_proc_call\000"
 15618      6F635F63 
 15618      616C6C00 
 15619              	.LASF64:
 15620 0ec1 68617368 		.ascii	"hash\000"
 15620      00
 15621              	.LASF43:
 15622 0ec6 4D524243 		.ascii	"MRBC_TT_EMPTY\000"
 15622      5F54545F 
 15622      454D5054 
 15622      5900
 15623              	.LASF91:
 15624 0ed4 6E6C6F63 		.ascii	"nlocals\000"
 15624      616C7300 
 15625              	.LASF75:
 15626 0edc 6E657874 		.ascii	"next\000"
 15626      00
 15627              	.LASF182:
 15628 0ee1 75696E74 		.ascii	"uint16_to_bin\000"
 15628      31365F74 
 15628      6F5F6269 
 15628      6E00
 15629              	.LASF36:
 15630 0eef 63616C6C 		.ascii	"callinfo_tail\000"
 15630      696E666F 
 15630      5F746169 
 15630      6C00
 15631              	.LASF121:
 15632 0efd 52507269 		.ascii	"RPrintf\000"
 15632      6E746600 
 15633              	.LASF104:
 15634 0f05 70726576 		.ascii	"prev\000"
 15634      00
 15635              	.LASF48:
ARM GAS  C:\Users\164\AppData\Local\Temp\ccvDnxKa.s 			page 327


 15636 0f0a 4D524243 		.ascii	"MRBC_TT_FLOAT\000"
 15636      5F54545F 
 15636      464C4F41 
 15636      5400
 15637              	.LASF241:
 15638 0f18 6366756E 		.ascii	"cfunc\000"
 15638      6300
 15639              	.LASF261:
 15640 0f1e 6D726263 		.ascii	"mrbc_class_false\000"
 15640      5F636C61 
 15640      73735F66 
 15640      616C7365 
 15640      00
 15641              	.LASF84:
 15642 0f2f 6C617374 		.ascii	"last\000"
 15642      00
 15643              	.LASF209:
 15644 0f34 635F6F62 		.ascii	"c_object_setiv\000"
 15644      6A656374 
 15644      5F736574 
 15644      697600
 15645              	.LASF237:
 15646 0f43 6D726263 		.ascii	"mrbc_define_class\000"
 15646      5F646566 
 15646      696E655F 
 15646      636C6173 
 15646      7300
 15647              	.LASF102:
 15648 0f55 6D726263 		.ascii	"mrbc_irep\000"
 15648      5F697265 
 15648      7000
 15649              		.ident	"GCC: (GNU Tools for ARM Embedded Processors) 5.4.1 20160609 (release) [ARM/embedded-5-bran
