ARM GAS  C:\Users\164\AppData\Local\Temp\ccvDnxKa.s 			page 1


   1              		.syntax unified
   2              		.cpu cortex-m3
   3              		.fpu softvfp
   4              		.eabi_attribute 20, 1
   5              		.eabi_attribute 21, 1
   6              		.eabi_attribute 23, 3
   7              		.eabi_attribute 24, 1
   8              		.eabi_attribute 25, 1
   9              		.eabi_attribute 26, 1
  10              		.eabi_attribute 30, 1
  11              		.eabi_attribute 34, 1
  12              		.eabi_attribute 18, 4
  13              		.thumb
  14              		.syntax unified
  15              		.file	"class.c"
  16              		.text
  17              	.Ltext0:
  18              		.cfi_sections	.debug_frame
  19              		.section	.text.c_nil_false_not,"ax",%progbits
  20              		.align	2
  21              		.thumb
  22              		.thumb_func
  23              		.type	c_nil_false_not, %function
  24              	c_nil_false_not:
  25              	.LFB124:
  26              		.file 1 "class.c"
   1:class.c       **** /*! @file
   2:class.c       ****   @brief
   3:class.c       ****   mruby/c Object, Proc, Nil, False and True class and class specific functions.
   4:class.c       **** 
   5:class.c       ****   <pre>
   6:class.c       ****   Copyright (C) 2015-2018 Kyushu Institute of Technology.
   7:class.c       ****   Copyright (C) 2015-2018 Shimane IT Open-Innovation Center.
   8:class.c       **** 
   9:class.c       ****   This file is distributed under BSD 3-Clause License.
  10:class.c       **** 
  11:class.c       **** 
  12:class.c       ****   </pre>
  13:class.c       **** */
  14:class.c       **** 
  15:class.c       **** #include "vm_config.h"
  16:class.c       **** #include <string.h>
  17:class.c       **** #include <assert.h>
  18:class.c       **** 
  19:class.c       **** #include "value.h"
  20:class.c       **** #include "vm.h"
  21:class.c       **** #include "class.h"
  22:class.c       **** #include "alloc.h"
  23:class.c       **** #include "static.h"
  24:class.c       **** #include "symbol.h"
  25:class.c       **** #include "console.h"
  26:class.c       **** #include "opcode.h"
  27:class.c       **** #include "load.h"
  28:class.c       **** 
  29:class.c       **** #include "c_array.h"
  30:class.c       **** #include "c_hash.h"
  31:class.c       **** #include "c_numeric.h"
ARM GAS  C:\Users\164\AppData\Local\Temp\ccvDnxKa.s 			page 2


  32:class.c       **** #include "c_math.h"
  33:class.c       **** #include "c_string.h"
  34:class.c       **** #include "c_range.h"
  35:class.c       **** 
  36:class.c       **** 
  37:class.c       **** static int mrbc_puts_sub(mrbc_value *v);
  38:class.c       **** static int mrbc_p_sub(mrbc_value *v);
  39:class.c       **** 
  40:class.c       **** //================================================================
  41:class.c       **** /*! print - sub function
  42:class.c       ****   @param  v	pointer to target value.
  43:class.c       ****   @retval 0	normal return.
  44:class.c       ****   @retval 1	already output LF.
  45:class.c       ****  */
  46:class.c       **** static int mrbc_print_sub(mrbc_value *v)
  47:class.c       **** {
  48:class.c       ****   int ret = 0;
  49:class.c       **** 
  50:class.c       ****   switch( v->tt ){
  51:class.c       ****   case MRBC_TT_EMPTY:	console_print("(empty)");	break;
  52:class.c       ****   case MRBC_TT_NIL:					break;
  53:class.c       ****   case MRBC_TT_FALSE:	console_print("false");		break;
  54:class.c       ****   case MRBC_TT_TRUE:	console_print("true");		break;
  55:class.c       ****   case MRBC_TT_FIXNUM:	console_printf("%d", v->i);	break;
  56:class.c       **** #if MRBC_USE_FLOAT
  57:class.c       ****   case MRBC_TT_FLOAT:    console_printf("%g", v->d);	break;
  58:class.c       **** #endif
  59:class.c       ****   case MRBC_TT_SYMBOL:
  60:class.c       ****     console_print(mrbc_symbol_cstr(v));
  61:class.c       ****     break;
  62:class.c       **** 
  63:class.c       ****   case MRBC_TT_CLASS:
  64:class.c       ****     console_print(symid_to_str(v->cls->sym_id));
  65:class.c       ****     break;
  66:class.c       **** 
  67:class.c       ****   case MRBC_TT_OBJECT:
  68:class.c       ****     console_printf( "#<%s:%08x>",
  69:class.c       **** 	symid_to_str( find_class_by_object(0,v)->sym_id ), v->instance );
  70:class.c       ****     break;
  71:class.c       **** 
  72:class.c       ****   case MRBC_TT_PROC:
  73:class.c       ****     console_printf( "#<Proc:%08x>", v->proc );
  74:class.c       ****     break;
  75:class.c       **** 
  76:class.c       ****   case MRBC_TT_ARRAY:{
  77:class.c       ****     console_putchar('[');
  78:class.c       ****     int i;
  79:class.c       ****     for( i = 0; i < mrbc_array_size(v); i++ ) {
  80:class.c       ****       if( i != 0 ) console_print(", ");
  81:class.c       ****       mrbc_value v1 = mrbc_array_get(v, i);
  82:class.c       ****       mrbc_p_sub(&v1);
  83:class.c       ****     }
  84:class.c       ****     console_putchar(']');
  85:class.c       ****   } break;
  86:class.c       **** 
  87:class.c       **** #if MRBC_USE_STRING
  88:class.c       ****   case MRBC_TT_STRING:
ARM GAS  C:\Users\164\AppData\Local\Temp\ccvDnxKa.s 			page 3


  89:class.c       ****     console_nprint( mrbc_string_cstr(v), mrbc_string_size(v) );
  90:class.c       ****     if( mrbc_string_size(v) != 0 &&
  91:class.c       **** 	mrbc_string_cstr(v)[ mrbc_string_size(v) - 1 ] == '\n' ) ret = 1;
  92:class.c       ****     break;
  93:class.c       **** #endif
  94:class.c       **** 
  95:class.c       ****   case MRBC_TT_RANGE:{
  96:class.c       ****     mrbc_value v1 = mrbc_range_first(v);
  97:class.c       ****     mrbc_print_sub(&v1);
  98:class.c       ****     console_print( mrbc_range_exclude_end(v) ? "..." : ".." );
  99:class.c       ****     v1 = mrbc_range_last(v);
 100:class.c       ****     mrbc_print_sub(&v1);
 101:class.c       ****   } break;
 102:class.c       **** 
 103:class.c       ****   case MRBC_TT_HASH:{
 104:class.c       ****     console_putchar('{');
 105:class.c       ****     mrbc_hash_iterator ite = mrbc_hash_iterator_new(v);
 106:class.c       ****     while( mrbc_hash_i_has_next(&ite) ) {
 107:class.c       ****       mrbc_value *vk = mrbc_hash_i_next(&ite);
 108:class.c       ****       mrbc_p_sub(vk);
 109:class.c       ****       console_print("=>");
 110:class.c       ****       mrbc_p_sub(vk+1);
 111:class.c       ****       if( mrbc_hash_i_has_next(&ite) ) console_print(", ");
 112:class.c       ****     }
 113:class.c       ****     console_putchar('}');
 114:class.c       ****   } break;
 115:class.c       **** 
 116:class.c       ****   default:
 117:class.c       ****     console_printf("Not support MRBC_TT_XX(%d)", v->tt);
 118:class.c       ****     break;
 119:class.c       ****   }
 120:class.c       **** 
 121:class.c       ****   return ret;
 122:class.c       **** }
 123:class.c       **** 
 124:class.c       **** 
 125:class.c       **** //================================================================
 126:class.c       **** /*! puts - sub function
 127:class.c       **** 
 128:class.c       ****   @param  v	pointer to target value.
 129:class.c       ****   @retval 0	normal return.
 130:class.c       ****   @retval 1	already output LF.
 131:class.c       ****  */
 132:class.c       **** static int mrbc_puts_sub(mrbc_value *v)
 133:class.c       **** {
 134:class.c       ****   if( v->tt == MRBC_TT_ARRAY ) {
 135:class.c       ****     int i;
 136:class.c       ****     for( i = 0; i < mrbc_array_size(v); i++ ) {
 137:class.c       ****       if( i != 0 ) console_putchar('\n');
 138:class.c       ****       mrbc_value v1 = mrbc_array_get(v, i);
 139:class.c       ****       mrbc_puts_sub(&v1);
 140:class.c       ****     }
 141:class.c       ****     return 0;
 142:class.c       ****   }
 143:class.c       **** 
 144:class.c       ****   return mrbc_print_sub(v);
 145:class.c       **** }
ARM GAS  C:\Users\164\AppData\Local\Temp\ccvDnxKa.s 			page 4


 146:class.c       **** 
 147:class.c       **** 
 148:class.c       **** //================================================================
 149:class.c       **** /*! p - sub function
 150:class.c       ****  */
 151:class.c       **** static int mrbc_p_sub(mrbc_value *v)
 152:class.c       **** {
 153:class.c       ****   switch( v->tt ){
 154:class.c       ****   case MRBC_TT_NIL:
 155:class.c       ****     console_print("nil");
 156:class.c       ****     break;
 157:class.c       **** 
 158:class.c       ****   case MRBC_TT_SYMBOL:{
 159:class.c       ****     const char *s = mrbc_symbol_cstr( v );
 160:class.c       ****     char *fmt = strchr(s, ':') ? "\":%s\"" : ":%s";
 161:class.c       ****     console_printf(fmt, s);
 162:class.c       ****   } break;
 163:class.c       **** 
 164:class.c       **** #if MRBC_USE_STRING
 165:class.c       ****   case MRBC_TT_STRING:{
 166:class.c       ****     console_putchar('"');
 167:class.c       ****     const unsigned char *s = (const unsigned char *)mrbc_string_cstr(v);
 168:class.c       ****     int i;
 169:class.c       ****     for( i = 0; i < mrbc_string_size(v); i++ ) {
 170:class.c       ****       if( s[i] < ' ' || 0x7f <= s[i] ) {	// tiny isprint()
 171:class.c       **** 	console_printf("\\x%02X", s[i]);
 172:class.c       ****       } else {
 173:class.c       **** 	console_putchar(s[i]);
 174:class.c       ****       }
 175:class.c       ****     }
 176:class.c       ****     console_putchar('"');
 177:class.c       ****   } break;
 178:class.c       **** #endif
 179:class.c       **** 
 180:class.c       ****   case MRBC_TT_RANGE:{
 181:class.c       ****     mrbc_value v1 = mrbc_range_first(v);
 182:class.c       ****     mrbc_p_sub(&v1);
 183:class.c       ****     console_print( mrbc_range_exclude_end(v) ? "..." : ".." );
 184:class.c       ****     v1 = mrbc_range_last(v);
 185:class.c       ****     mrbc_p_sub(&v1);
 186:class.c       ****   } break;
 187:class.c       **** 
 188:class.c       ****   default:
 189:class.c       ****     mrbc_print_sub(v);
 190:class.c       ****     break;
 191:class.c       ****   }
 192:class.c       **** 
 193:class.c       ****   return 0;
 194:class.c       **** }
 195:class.c       **** 
 196:class.c       **** 
 197:class.c       **** 
 198:class.c       **** 
 199:class.c       **** //================================================================
 200:class.c       **** /*!@brief
 201:class.c       ****   find class by object
 202:class.c       **** 
ARM GAS  C:\Users\164\AppData\Local\Temp\ccvDnxKa.s 			page 5


 203:class.c       ****   @param  vm
 204:class.c       ****   @param  obj
 205:class.c       ****   @return pointer to mrbc_class
 206:class.c       **** */
 207:class.c       **** mrbc_class *find_class_by_object(struct VM *vm, const mrbc_object *obj)
 208:class.c       **** {
 209:class.c       ****   mrbc_class *cls;
 210:class.c       **** 
 211:class.c       ****   switch( obj->tt ) {
 212:class.c       ****   case MRBC_TT_TRUE:	cls = mrbc_class_true;		break;
 213:class.c       ****   case MRBC_TT_FALSE:	cls = mrbc_class_false; 	break;
 214:class.c       ****   case MRBC_TT_NIL:	cls = mrbc_class_nil;		break;
 215:class.c       ****   case MRBC_TT_FIXNUM:	cls = mrbc_class_fixnum;	break;
 216:class.c       ****   case MRBC_TT_FLOAT:	cls = mrbc_class_float; 	break;
 217:class.c       ****   case MRBC_TT_SYMBOL:	cls = mrbc_class_symbol;	break;
 218:class.c       **** 
 219:class.c       ****   case MRBC_TT_OBJECT:	cls = obj->instance->cls;       break;
 220:class.c       ****   case MRBC_TT_CLASS:    cls = obj->cls;                 break;
 221:class.c       ****   case MRBC_TT_PROC:	cls = mrbc_class_proc;		break;
 222:class.c       ****   case MRBC_TT_ARRAY:	cls = mrbc_class_array; 	break;
 223:class.c       ****   case MRBC_TT_STRING:	cls = mrbc_class_string;	break;
 224:class.c       ****   case MRBC_TT_RANGE:	cls = mrbc_class_range; 	break;
 225:class.c       ****   case MRBC_TT_HASH:	cls = mrbc_class_hash;		break;
 226:class.c       **** 
 227:class.c       ****   default:		cls = mrbc_class_object;	break;
 228:class.c       ****   }
 229:class.c       **** 
 230:class.c       ****   return cls;
 231:class.c       **** }
 232:class.c       **** 
 233:class.c       **** 
 234:class.c       **** 
 235:class.c       **** //================================================================
 236:class.c       **** /*!@brief
 237:class.c       ****   find method from
 238:class.c       **** 
 239:class.c       ****   @param  vm
 240:class.c       ****   @param  recv
 241:class.c       ****   @param  sym_id
 242:class.c       ****   @return
 243:class.c       **** */
 244:class.c       **** mrbc_proc *find_method(struct VM *vm, const mrbc_object *recv, mrbc_sym sym_id)
 245:class.c       **** {
 246:class.c       ****   mrbc_class *cls = find_class_by_object(vm, recv);
 247:class.c       **** 
 248:class.c       ****   while( cls != 0 ) {
 249:class.c       ****     mrbc_proc *proc = cls->procs;
 250:class.c       ****     while( proc != 0 ) {
 251:class.c       ****       if( proc->sym_id == sym_id ) {
 252:class.c       ****         return proc;
 253:class.c       ****       }
 254:class.c       ****       proc = proc->next;
 255:class.c       ****     }
 256:class.c       ****     cls = cls->super;
 257:class.c       ****   }
 258:class.c       ****   return 0;
 259:class.c       **** }
ARM GAS  C:\Users\164\AppData\Local\Temp\ccvDnxKa.s 			page 6


 260:class.c       **** 
 261:class.c       **** 
 262:class.c       **** 
 263:class.c       **** //================================================================
 264:class.c       **** /*!@brief
 265:class.c       ****   define class
 266:class.c       **** 
 267:class.c       ****   @param  vm		pointer to vm.
 268:class.c       ****   @param  name		class name.
 269:class.c       ****   @param  super		super class.
 270:class.c       **** */
 271:class.c       **** mrbc_class * mrbc_define_class(struct VM *vm, const char *name, mrbc_class *super)
 272:class.c       **** {
 273:class.c       ****   if( super == NULL ) super = mrbc_class_object;  // set default to Object.
 274:class.c       **** 
 275:class.c       ****   mrbc_sym sym_id = str_to_symid(name);
 276:class.c       ****   mrbc_object obj = const_object_get(sym_id);
 277:class.c       **** 
 278:class.c       ****   // create a new class?
 279:class.c       ****   if( obj.tt == MRBC_TT_NIL ) {
 280:class.c       ****     mrbc_class *cls = mrbc_alloc( 0, sizeof(mrbc_class) );
 281:class.c       ****     if( !cls ) return cls;	// ENOMEM
 282:class.c       **** 
 283:class.c       ****     cls->sym_id = sym_id;
 284:class.c       **** #ifdef MRBC_DEBUG
 285:class.c       ****     cls->names = name;	// for debug; delete soon.
 286:class.c       **** #endif
 287:class.c       ****     cls->super = super;
 288:class.c       ****     cls->procs = 0;
 289:class.c       **** 
 290:class.c       ****     // register to global constant.
 291:class.c       ****     mrbc_value v = {.tt = MRBC_TT_CLASS};
 292:class.c       ****     v.cls = cls;
 293:class.c       ****     const_object_add(sym_id, &v);
 294:class.c       **** 
 295:class.c       ****     return cls;
 296:class.c       ****   }
 297:class.c       **** 
 298:class.c       ****   // already?
 299:class.c       ****   if( obj.tt == MRBC_TT_CLASS ) {
 300:class.c       ****     return obj.cls;
 301:class.c       ****   }
 302:class.c       **** 
 303:class.c       ****   // error.
 304:class.c       ****   // raise TypeError.
 305:class.c       ****   assert( !"TypeError" );
 306:class.c       **** }
 307:class.c       **** 
 308:class.c       **** 
 309:class.c       **** 
 310:class.c       **** //================================================================
 311:class.c       **** /*! get class by name
 312:class.c       **** 
 313:class.c       ****   @param  name		class name.
 314:class.c       ****   @return		pointer to class object.
 315:class.c       **** */
 316:class.c       **** mrbc_class * mrbc_get_class_by_name( const char *name )
ARM GAS  C:\Users\164\AppData\Local\Temp\ccvDnxKa.s 			page 7


 317:class.c       **** {
 318:class.c       ****   mrbc_sym sym_id = str_to_symid(name);
 319:class.c       ****   mrbc_object obj = const_object_get(sym_id);
 320:class.c       **** 
 321:class.c       ****   return (obj.tt == MRBC_TT_CLASS) ? obj.cls : NULL;
 322:class.c       **** }
 323:class.c       **** 
 324:class.c       **** 
 325:class.c       **** //================================================================
 326:class.c       **** /*!@brief
 327:class.c       ****   define class method or instance method.
 328:class.c       **** 
 329:class.c       ****   @param  vm		pointer to vm.
 330:class.c       ****   @param  cls		pointer to class.
 331:class.c       ****   @param  name		method name.
 332:class.c       ****   @param  cfunc		pointer to function.
 333:class.c       **** */
 334:class.c       **** void mrbc_define_method(struct VM *vm, mrbc_class *cls, const char *name, mrbc_func_t cfunc)
 335:class.c       **** {
 336:class.c       ****   if( cls == NULL ) cls = mrbc_class_object;	// set default to Object.
 337:class.c       **** 
 338:class.c       ****   mrbc_proc *rproc = mrbc_rproc_alloc(vm, name);
 339:class.c       ****   rproc->c_func = 1;  // c-func
 340:class.c       ****   rproc->next = cls->procs;
 341:class.c       ****   cls->procs = rproc;
 342:class.c       ****   rproc->func = cfunc;
 343:class.c       **** }
 344:class.c       **** 
 345:class.c       **** 
 346:class.c       **** // Call a method
 347:class.c       **** // v[0]: receiver
 348:class.c       **** // v[1..]: params
 349:class.c       **** //================================================================
 350:class.c       **** /*!@brief
 351:class.c       ****   call a method with params
 352:class.c       **** 
 353:class.c       ****   @param  vm		pointer to vm
 354:class.c       ****   @param  name		method name
 355:class.c       ****   @param  v		receiver and params
 356:class.c       ****   @param  argc		num of params
 357:class.c       **** */
 358:class.c       **** void mrbc_funcall(struct VM *vm, const char *name, mrbc_value *v, int argc)
 359:class.c       **** {
 360:class.c       ****   mrbc_sym sym_id = str_to_symid(name);
 361:class.c       ****   mrbc_proc *m = find_method(vm, &v[0], sym_id);
 362:class.c       **** 
 363:class.c       ****   if( m==0 ) return;   // no method
 364:class.c       **** 
 365:class.c       ****   mrbc_callinfo *callinfo = mrbc_alloc(vm, sizeof(mrbc_callinfo));
 366:class.c       ****   callinfo->current_regs = vm->current_regs;
 367:class.c       ****   callinfo->pc_irep = vm->pc_irep;
 368:class.c       ****   callinfo->pc = vm->pc;
 369:class.c       ****   callinfo->n_args = 0;
 370:class.c       ****   callinfo->target_class = vm->target_class;
 371:class.c       ****   callinfo->prev = vm->callinfo_tail;
 372:class.c       ****   vm->callinfo_tail = callinfo;
 373:class.c       **** 
ARM GAS  C:\Users\164\AppData\Local\Temp\ccvDnxKa.s 			page 8


 374:class.c       ****   // target irep
 375:class.c       ****   vm->pc = 0;
 376:class.c       ****   vm->pc_irep = m->irep;
 377:class.c       **** 
 378:class.c       ****   // new regs
 379:class.c       ****   vm->current_regs += 2;   // recv and symbol
 380:class.c       **** 
 381:class.c       **** }
 382:class.c       **** 
 383:class.c       **** 
 384:class.c       **** 
 385:class.c       **** //================================================================
 386:class.c       **** /*! (BETA) Call any method of the object, but written by C.
 387:class.c       **** 
 388:class.c       ****   @param  vm		pointer to vm.
 389:class.c       ****   @param  v		see bellow example.
 390:class.c       ****   @param  reg_ofs	see bellow example.
 391:class.c       ****   @param  recv		pointer to receiver.
 392:class.c       ****   @param  name		method name.
 393:class.c       ****   @param  argc		num of params.
 394:class.c       **** 
 395:class.c       ****   @example
 396:class.c       ****   // (Fixnum).to_s(16)
 397:class.c       ****   static void c_fixnum_to_s(struct VM *vm, mrbc_value v[], int argc)
 398:class.c       ****   {
 399:class.c       ****     mrbc_value *recv = &v[1];
 400:class.c       ****     mrbc_value arg1 = mrbc_fixnum_value(16);
 401:class.c       ****     mrbc_value ret = mrbc_send( vm, v, argc, recv, "to_s", 1, &arg1 );
 402:class.c       ****     SET_RETURN(ret);
 403:class.c       ****   }
 404:class.c       ****  */
 405:class.c       **** mrbc_value mrbc_send( struct VM *vm, mrbc_value *v, int reg_ofs,
 406:class.c       **** 		     mrbc_value *recv, const char *method, int argc, ... )
 407:class.c       **** {
 408:class.c       ****   mrbc_sym sym_id = str_to_symid(method);
 409:class.c       ****   mrbc_proc *m = find_method(vm, recv, sym_id);
 410:class.c       **** 
 411:class.c       ****   if( m == 0 ) {
 412:class.c       ****     console_printf("No method. vtype=%d method='%s'\n", recv->tt, method );
 413:class.c       ****     goto ERROR;
 414:class.c       ****   }
 415:class.c       ****   if( !m->c_func ) {
 416:class.c       ****     console_printf("Method %s is not C function\n", method );
 417:class.c       ****     goto ERROR;
 418:class.c       ****   }
 419:class.c       **** 
 420:class.c       ****   // create call stack.
 421:class.c       ****   mrbc_value *regs = v + reg_ofs + 2;
 422:class.c       ****   mrbc_release( &regs[0] );
 423:class.c       ****   regs[0] = *recv;
 424:class.c       ****   mrbc_dup(recv);
 425:class.c       **** 
 426:class.c       ****   va_list ap;
 427:class.c       ****   va_start(ap, argc);
 428:class.c       ****   int i;
 429:class.c       ****   for( i = 1; i <= argc; i++ ) {
 430:class.c       ****     mrbc_release( &regs[i] );
ARM GAS  C:\Users\164\AppData\Local\Temp\ccvDnxKa.s 			page 9


 431:class.c       ****     regs[i] = *va_arg(ap, mrbc_value *);
 432:class.c       ****   }
 433:class.c       ****   mrbc_release( &regs[i] );
 434:class.c       ****   regs[i] = mrbc_nil_value();
 435:class.c       ****   va_end(ap);
 436:class.c       **** 
 437:class.c       ****   // call method.
 438:class.c       ****   m->func(vm, regs, argc);
 439:class.c       ****   mrbc_value ret = regs[0];
 440:class.c       **** 
 441:class.c       ****   for(; i >= 0; i-- ) {
 442:class.c       ****     regs[i].tt = MRBC_TT_EMPTY;
 443:class.c       ****   }
 444:class.c       **** 
 445:class.c       ****   return ret;
 446:class.c       **** 
 447:class.c       ****  ERROR:
 448:class.c       ****   return mrbc_nil_value();
 449:class.c       **** }
 450:class.c       **** 
 451:class.c       **** 
 452:class.c       **** 
 453:class.c       **** 
 454:class.c       **** //================================================================
 455:class.c       **** // Object class
 456:class.c       **** 
 457:class.c       **** //================================================================
 458:class.c       **** /*! (method) alias_method
 459:class.c       **** 
 460:class.c       ****   note: using the 'alias' keyword, this method will be called.
 461:class.c       **** */
 462:class.c       **** static void c_object_alias_method(struct VM *vm, mrbc_value v[], int argc)
 463:class.c       **** {
 464:class.c       ****   // find method only in this class.
 465:class.c       ****   mrb_proc *proc = v[0].cls->procs;
 466:class.c       ****   while( proc != NULL ) {
 467:class.c       ****     if( proc->sym_id == v[2].i ) break;
 468:class.c       ****     proc = proc->next;
 469:class.c       ****   }
 470:class.c       ****   if( !proc ) {
 471:class.c       ****     console_printf("NameError: undefined_method '%s'\n", symid_to_str(v[2].i));
 472:class.c       ****     return;
 473:class.c       ****   }
 474:class.c       **** 
 475:class.c       ****   // copy the Proc object
 476:class.c       ****   mrbc_proc *proc_alias = mrbc_alloc(0, sizeof(mrbc_proc));
 477:class.c       ****   if( !proc_alias ) return;		// ENOMEM
 478:class.c       ****   memcpy( proc_alias, proc, sizeof(mrbc_proc) );
 479:class.c       **** 
 480:class.c       ****   // regist procs link.
 481:class.c       ****   proc_alias->sym_id = v[1].i;
 482:class.c       **** #if defined(MRBC_DEBUG)
 483:class.c       ****   proc_alias->names = symid_to_str(v[1].i);
 484:class.c       **** #endif
 485:class.c       ****   proc_alias->next = v[0].cls->procs;
 486:class.c       ****   v[0].cls->procs = proc_alias;
 487:class.c       **** }
ARM GAS  C:\Users\164\AppData\Local\Temp\ccvDnxKa.s 			page 10


 488:class.c       **** 
 489:class.c       **** 
 490:class.c       **** #ifdef MRBC_DEBUG
 491:class.c       **** //================================================================
 492:class.c       **** /*! (method) p
 493:class.c       ****  */
 494:class.c       **** static void c_object_p(struct VM *vm, mrbc_value v[], int argc)
 495:class.c       **** {
 496:class.c       ****   int i;
 497:class.c       ****   for( i = 1; i <= argc; i++ ) {
 498:class.c       ****     mrbc_p_sub( &v[i] );
 499:class.c       ****     console_putchar('\n');
 500:class.c       ****   }
 501:class.c       **** }
 502:class.c       **** #endif
 503:class.c       **** 
 504:class.c       **** 
 505:class.c       **** //================================================================
 506:class.c       **** /*! (method) puts
 507:class.c       ****  */
 508:class.c       **** static void c_object_puts(struct VM *vm, mrbc_value v[], int argc)
 509:class.c       **** {
 510:class.c       ****   int i;
 511:class.c       ****   if( argc ){
 512:class.c       ****     for( i = 1; i <= argc; i++ ) {
 513:class.c       ****       if( mrbc_puts_sub( &v[i] ) == 0 ) console_putchar('\n');
 514:class.c       ****     }
 515:class.c       ****   } else {
 516:class.c       ****     console_putchar('\n');
 517:class.c       ****   }
 518:class.c       **** }
 519:class.c       **** 
 520:class.c       **** 
 521:class.c       **** //================================================================
 522:class.c       **** /*! (method) print
 523:class.c       ****  */
 524:class.c       **** static void c_object_print(struct VM *vm, mrbc_value v[], int argc)
 525:class.c       **** {
 526:class.c       ****   int i;
 527:class.c       ****   for( i = 1; i <= argc; i++ ) {
 528:class.c       ****     mrbc_print_sub( &v[i] );
 529:class.c       ****   }
 530:class.c       **** }
 531:class.c       **** 
 532:class.c       **** 
 533:class.c       **** //================================================================
 534:class.c       **** /*! (operator) !
 535:class.c       ****  */
 536:class.c       **** static void c_object_not(struct VM *vm, mrbc_value v[], int argc)
 537:class.c       **** {
 538:class.c       ****   SET_FALSE_RETURN();
 539:class.c       **** }
 540:class.c       **** 
 541:class.c       **** 
 542:class.c       **** //================================================================
 543:class.c       **** /*! (operator) !=
 544:class.c       ****  */
ARM GAS  C:\Users\164\AppData\Local\Temp\ccvDnxKa.s 			page 11


 545:class.c       **** static void c_object_neq(struct VM *vm, mrbc_value v[], int argc)
 546:class.c       **** {
 547:class.c       ****   int result = mrbc_compare( &v[0], &v[1] );
 548:class.c       ****   SET_BOOL_RETURN( result != 0 );
 549:class.c       **** }
 550:class.c       **** 
 551:class.c       **** 
 552:class.c       **** //================================================================
 553:class.c       **** /*! (operator) <=>
 554:class.c       ****  */
 555:class.c       **** static void c_object_compare(struct VM *vm, mrbc_value v[], int argc)
 556:class.c       **** {
 557:class.c       ****   int result = mrbc_compare( &v[0], &v[1] );
 558:class.c       ****   SET_INT_RETURN( result );
 559:class.c       **** }
 560:class.c       **** 
 561:class.c       **** 
 562:class.c       **** //================================================================
 563:class.c       **** /*! (operator) ===
 564:class.c       ****  */
 565:class.c       **** static void c_object_equal3(struct VM *vm, mrbc_value v[], int argc)
 566:class.c       **** {
 567:class.c       ****   int result;
 568:class.c       **** 
 569:class.c       ****   if( v[0].tt == MRBC_TT_CLASS ) {
 570:class.c       ****     result = mrbc_obj_is_kind_of( &v[1], v[0].cls );
 571:class.c       ****   } else {
 572:class.c       ****     result = (mrbc_compare( &v[0], &v[1] ) == 0);
 573:class.c       ****   }
 574:class.c       **** 
 575:class.c       ****   SET_BOOL_RETURN( result );
 576:class.c       **** }
 577:class.c       **** 
 578:class.c       **** 
 579:class.c       **** //================================================================
 580:class.c       **** /*! (method) class
 581:class.c       ****  */
 582:class.c       **** static void c_object_class(struct VM *vm, mrbc_value v[], int argc)
 583:class.c       **** {
 584:class.c       ****   mrbc_value value = {.tt = MRBC_TT_CLASS};
 585:class.c       ****   value.cls = find_class_by_object( vm, v );
 586:class.c       ****   SET_RETURN( value );
 587:class.c       **** }
 588:class.c       **** 
 589:class.c       **** 
 590:class.c       **** 
 591:class.c       **** // Object.new
 592:class.c       **** static void c_object_new(struct VM *vm, mrbc_value v[], int argc)
 593:class.c       **** {
 594:class.c       ****   mrbc_value new_obj = mrbc_instance_new(vm, v->cls, 0);
 595:class.c       **** 
 596:class.c       ****   char syms[]="______initialize";
 597:class.c       ****   uint32_to_bin( 1,(uint8_t*)&syms[0]);
 598:class.c       ****   uint16_to_bin(10,(uint8_t*)&syms[4]);
 599:class.c       **** 
 600:class.c       ****   uint32_t code[2] = {
 601:class.c       ****     MKOPCODE(OP_SEND) | MKARG_A(0) | MKARG_B(0) | MKARG_C(argc),
ARM GAS  C:\Users\164\AppData\Local\Temp\ccvDnxKa.s 			page 12


 602:class.c       ****     MKOPCODE(OP_ABORT)
 603:class.c       ****     };
 604:class.c       ****    mrbc_irep irep = {
 605:class.c       ****     0,     // nlocals
 606:class.c       ****     0,     // nregs
 607:class.c       ****     0,     // rlen
 608:class.c       ****     2,     // ilen
 609:class.c       ****     0,     // plen
 610:class.c       ****     (uint8_t *)code,   // iseq
 611:class.c       ****     NULL,  // pools
 612:class.c       ****     (uint8_t *)syms,  // ptr_to_sym
 613:class.c       ****     NULL,  // reps
 614:class.c       ****   };
 615:class.c       **** 
 616:class.c       ****   mrbc_release(&v[0]);
 617:class.c       ****   v[0] = new_obj;
 618:class.c       ****   mrbc_dup(&new_obj);
 619:class.c       **** 
 620:class.c       ****   mrbc_irep *org_pc_irep = vm->pc_irep;
 621:class.c       ****   uint16_t  org_pc = vm->pc;
 622:class.c       ****   mrbc_value* org_regs = vm->current_regs;
 623:class.c       ****   vm->pc = 0;
 624:class.c       ****   vm->pc_irep = &irep;
 625:class.c       ****   vm->current_regs = v;
 626:class.c       **** 
 627:class.c       ****   while( mrbc_vm_run(vm) == 0 )
 628:class.c       ****     ;
 629:class.c       **** 
 630:class.c       ****   vm->pc = org_pc;
 631:class.c       ****   vm->pc_irep = org_pc_irep;
 632:class.c       ****   vm->current_regs = org_regs;
 633:class.c       **** 
 634:class.c       ****   SET_RETURN(new_obj);
 635:class.c       **** }
 636:class.c       **** 
 637:class.c       **** //================================================================
 638:class.c       **** /*! (method) instance variable getter
 639:class.c       ****  */
 640:class.c       **** static void c_object_getiv(struct VM *vm, mrbc_value v[], int argc)
 641:class.c       **** {
 642:class.c       ****   const char *name = mrbc_get_callee_name(vm);
 643:class.c       ****   mrbc_sym sym_id = str_to_symid( name );
 644:class.c       ****   mrbc_value ret = mrbc_instance_getiv(&v[0], sym_id);
 645:class.c       **** 
 646:class.c       ****   SET_RETURN(ret);
 647:class.c       **** }
 648:class.c       **** 
 649:class.c       **** 
 650:class.c       **** //================================================================
 651:class.c       **** /*! (method) instance variable setter
 652:class.c       ****  */
 653:class.c       **** static void c_object_setiv(struct VM *vm, mrbc_value v[], int argc)
 654:class.c       **** {
 655:class.c       ****   const char *name = mrbc_get_callee_name(vm);
 656:class.c       **** 
 657:class.c       ****   char *namebuf = mrbc_alloc(vm, strlen(name));
 658:class.c       ****   if( !namebuf ) return;
ARM GAS  C:\Users\164\AppData\Local\Temp\ccvDnxKa.s 			page 13


 659:class.c       ****   strcpy(namebuf, name);
 660:class.c       ****   namebuf[strlen(name)-1] = '\0';	// delete '='
 661:class.c       ****   mrbc_sym sym_id = str_to_symid(namebuf);
 662:class.c       **** 
 663:class.c       ****   mrbc_instance_setiv(&v[0], sym_id, &v[1]);
 664:class.c       ****   mrbc_raw_free(namebuf);
 665:class.c       **** }
 666:class.c       **** 
 667:class.c       **** 
 668:class.c       **** 
 669:class.c       **** //================================================================
 670:class.c       **** /*! (class method) access method 'attr_reader'
 671:class.c       ****  */
 672:class.c       **** static void c_object_attr_reader(struct VM *vm, mrbc_value v[], int argc)
 673:class.c       **** {
 674:class.c       ****   int i;
 675:class.c       ****   for( i = 1; i <= argc; i++ ) {
 676:class.c       ****     if( v[i].tt != MRBC_TT_SYMBOL ) continue;	// TypeError raise?
 677:class.c       **** 
 678:class.c       ****     // define reader method
 679:class.c       ****     const char *name = mrbc_symbol_cstr(&v[i]);
 680:class.c       ****     mrbc_define_method(vm, v[0].cls, name, c_object_getiv);
 681:class.c       ****   }
 682:class.c       **** }
 683:class.c       **** 
 684:class.c       **** 
 685:class.c       **** //================================================================
 686:class.c       **** /*! (class method) access method 'attr_accessor'
 687:class.c       ****  */
 688:class.c       **** static void c_object_attr_accessor(struct VM *vm, mrbc_value v[], int argc)
 689:class.c       **** {
 690:class.c       ****   int i;
 691:class.c       ****   for( i = 1; i <= argc; i++ ) {
 692:class.c       ****     if( v[i].tt != MRBC_TT_SYMBOL ) continue;	// TypeError raise?
 693:class.c       **** 
 694:class.c       ****     // define reader method
 695:class.c       ****     const char *name = mrbc_symbol_cstr(&v[i]);
 696:class.c       ****     mrbc_define_method(vm, v[0].cls, name, c_object_getiv);
 697:class.c       **** 
 698:class.c       ****     // make string "....=" and define writer method.
 699:class.c       ****     char *namebuf = mrbc_alloc(vm, strlen(name)+2);
 700:class.c       ****     if( !namebuf ) return;
 701:class.c       ****     strcpy(namebuf, name);
 702:class.c       ****     strcat(namebuf, "=");
 703:class.c       ****     mrbc_symbol_new(vm, namebuf);
 704:class.c       ****     mrbc_define_method(vm, v[0].cls, namebuf, c_object_setiv);
 705:class.c       ****     mrbc_raw_free(namebuf);
 706:class.c       ****   }
 707:class.c       **** }
 708:class.c       **** 
 709:class.c       **** 
 710:class.c       **** //================================================================
 711:class.c       **** /*! (method) is_a, kind_of
 712:class.c       ****  */
 713:class.c       **** static void c_object_kind_of(struct VM *vm, mrbc_value v[], int argc)
 714:class.c       **** {
 715:class.c       ****   int result = 0;
ARM GAS  C:\Users\164\AppData\Local\Temp\ccvDnxKa.s 			page 14


 716:class.c       ****   if( v[1].tt != MRBC_TT_CLASS ) goto DONE;
 717:class.c       **** 
 718:class.c       ****   result = mrbc_obj_is_kind_of( &v[0], v[1].cls );
 719:class.c       **** 
 720:class.c       ****  DONE:
 721:class.c       ****   SET_BOOL_RETURN( result );
 722:class.c       **** }
 723:class.c       **** 
 724:class.c       **** 
 725:class.c       **** #if MRBC_USE_STRING
 726:class.c       **** //================================================================
 727:class.c       **** /*! (method) to_s
 728:class.c       ****  */
 729:class.c       **** static void c_object_to_s(struct VM *vm, mrbc_value v[], int argc)
 730:class.c       **** {
 731:class.c       ****   char buf[32];
 732:class.c       ****   const char *s = buf;
 733:class.c       **** 
 734:class.c       ****   switch( v->tt ) {
 735:class.c       ****   case MRBC_TT_CLASS:
 736:class.c       ****     s = symid_to_str( v->cls->sym_id );
 737:class.c       ****     break;
 738:class.c       **** 
 739:class.c       ****   case MRBC_TT_OBJECT:{
 740:class.c       ****     // (NOTE) address part assumes 32bit. but enough for this.
 741:class.c       ****     mrbc_printf pf;
 742:class.c       **** 
 743:class.c       ****     mrbc_printf_init( &pf, buf, sizeof(buf), "#<%s:%08x>" );
 744:class.c       ****     while( mrbc_printf_main( &pf ) > 0 ) {
 745:class.c       ****       switch(pf.fmt.type) {
 746:class.c       ****       case 's':
 747:class.c       **** 	mrbc_printf_str( &pf, symid_to_str(v->instance->cls->sym_id), ' ' );
 748:class.c       **** 	break;
 749:class.c       ****       case 'x':
 750:class.c       **** 	mrbc_printf_int( &pf, (uintptr_t)v->instance, 16 );
 751:class.c       **** 	break;
 752:class.c       ****       }
 753:class.c       ****     }
 754:class.c       ****     mrbc_printf_end( &pf );
 755:class.c       ****   } break;
 756:class.c       **** 
 757:class.c       ****   default:
 758:class.c       ****     s = "";
 759:class.c       ****     break;
 760:class.c       ****   }
 761:class.c       **** 
 762:class.c       ****   SET_RETURN( mrbc_string_new_cstr( vm, s ) );
 763:class.c       **** }
 764:class.c       **** #endif
 765:class.c       **** 
 766:class.c       **** 
 767:class.c       **** #ifdef MRBC_DEBUG
 768:class.c       **** static void c_object_instance_methods(struct VM *vm, mrbc_value v[], int argc)
 769:class.c       **** {
 770:class.c       ****   // TODO: check argument.
 771:class.c       **** 
 772:class.c       ****   // temporary code for operation check.
ARM GAS  C:\Users\164\AppData\Local\Temp\ccvDnxKa.s 			page 15


 773:class.c       ****   console_printf( "[" );
 774:class.c       ****   int flag_first = 1;
 775:class.c       **** 
 776:class.c       ****   mrbc_class *cls = find_class_by_object( vm, v );
 777:class.c       ****   mrbc_proc *proc = cls->procs;
 778:class.c       ****   while( proc ) {
 779:class.c       ****     console_printf( "%s:%s", (flag_first ? "" : ", "),
 780:class.c       **** 		    symid_to_str(proc->sym_id) );
 781:class.c       ****     flag_first = 0;
 782:class.c       ****     proc = proc->next;
 783:class.c       ****   }
 784:class.c       **** 
 785:class.c       ****   console_printf( "]" );
 786:class.c       **** 
 787:class.c       ****   SET_NIL_RETURN();
 788:class.c       **** }
 789:class.c       **** #endif
 790:class.c       **** 
 791:class.c       **** 
 792:class.c       **** static void mrbc_init_class_object(struct VM *vm)
 793:class.c       **** {
 794:class.c       ****   // Class
 795:class.c       ****   mrbc_class_object = mrbc_define_class(vm, "Object", 0);
 796:class.c       ****   // Methods
 797:class.c       ****   mrbc_define_method(vm, mrbc_class_object, "initialize", c_ineffect);
 798:class.c       ****   mrbc_define_method(vm, mrbc_class_object, "alias_method", c_object_alias_method);
 799:class.c       ****   mrbc_define_method(vm, mrbc_class_object, "puts", c_object_puts);
 800:class.c       ****   mrbc_define_method(vm, mrbc_class_object, "print", c_object_print);
 801:class.c       ****   mrbc_define_method(vm, mrbc_class_object, "!", c_object_not);
 802:class.c       ****   mrbc_define_method(vm, mrbc_class_object, "!=", c_object_neq);
 803:class.c       ****   mrbc_define_method(vm, mrbc_class_object, "<=>", c_object_compare);
 804:class.c       ****   mrbc_define_method(vm, mrbc_class_object, "===", c_object_equal3);
 805:class.c       ****   mrbc_define_method(vm, mrbc_class_object, "class", c_object_class);
 806:class.c       ****   mrbc_define_method(vm, mrbc_class_object, "new", c_object_new);
 807:class.c       ****   mrbc_define_method(vm, mrbc_class_object, "attr_reader", c_object_attr_reader);
 808:class.c       ****   mrbc_define_method(vm, mrbc_class_object, "attr_accessor", c_object_attr_accessor);
 809:class.c       ****   mrbc_define_method(vm, mrbc_class_object, "is_a?", c_object_kind_of);
 810:class.c       ****   mrbc_define_method(vm, mrbc_class_object, "kind_of?", c_object_kind_of);
 811:class.c       **** 
 812:class.c       **** 
 813:class.c       **** #if MRBC_USE_STRING
 814:class.c       ****   mrbc_define_method(vm, mrbc_class_object, "inspect", c_object_to_s);
 815:class.c       ****   mrbc_define_method(vm, mrbc_class_object, "to_s", c_object_to_s);
 816:class.c       **** #endif
 817:class.c       **** 
 818:class.c       **** #ifdef MRBC_DEBUG
 819:class.c       ****   mrbc_define_method(vm, mrbc_class_object, "instance_methods", c_object_instance_methods);
 820:class.c       ****   mrbc_define_method(vm, mrbc_class_object, "p", c_object_p);
 821:class.c       **** #endif
 822:class.c       **** }
 823:class.c       **** 
 824:class.c       **** // =============== ProcClass
 825:class.c       **** 
 826:class.c       **** void c_proc_call(struct VM *vm, mrbc_value v[], int argc)
 827:class.c       **** {
 828:class.c       ****   // push callinfo, but not release regs
 829:class.c       ****   mrbc_push_callinfo(vm, argc);
ARM GAS  C:\Users\164\AppData\Local\Temp\ccvDnxKa.s 			page 16


 830:class.c       **** 
 831:class.c       ****   // target irep
 832:class.c       ****   vm->pc = 0;
 833:class.c       ****   vm->pc_irep = v[0].proc->irep;
 834:class.c       **** 
 835:class.c       ****   vm->current_regs = v;
 836:class.c       **** }
 837:class.c       **** 
 838:class.c       **** 
 839:class.c       **** #if MRBC_USE_STRING
 840:class.c       **** static void c_proc_to_s(struct VM *vm, mrbc_value v[], int argc)
 841:class.c       **** {
 842:class.c       ****   // (NOTE) address part assumes 32bit. but enough for this.
 843:class.c       ****   char buf[32];
 844:class.c       ****   mrbc_printf pf;
 845:class.c       **** 
 846:class.c       ****   mrbc_printf_init( &pf, buf, sizeof(buf), "<#Proc:%08x>" );
 847:class.c       ****   while( mrbc_printf_main( &pf ) > 0 ) {
 848:class.c       ****     mrbc_printf_int( &pf, (uintptr_t)v->proc, 16 );
 849:class.c       ****   }
 850:class.c       ****   mrbc_printf_end( &pf );
 851:class.c       **** 
 852:class.c       ****   SET_RETURN( mrbc_string_new_cstr( vm, buf ) );
 853:class.c       **** }
 854:class.c       **** #endif
 855:class.c       **** 
 856:class.c       **** static void mrbc_init_class_proc(struct VM *vm)
 857:class.c       **** {
 858:class.c       ****   // Class
 859:class.c       ****   mrbc_class_proc= mrbc_define_class(vm, "Proc", mrbc_class_object);
 860:class.c       ****   // Methods
 861:class.c       ****   mrbc_define_method(vm, mrbc_class_proc, "call", c_proc_call);
 862:class.c       **** #if MRBC_USE_STRING
 863:class.c       ****   mrbc_define_method(vm, mrbc_class_proc, "inspect", c_proc_to_s);
 864:class.c       ****   mrbc_define_method(vm, mrbc_class_proc, "to_s", c_proc_to_s);
 865:class.c       **** #endif
 866:class.c       **** }
 867:class.c       **** 
 868:class.c       **** 
 869:class.c       **** //================================================================
 870:class.c       **** // Nil class
 871:class.c       **** 
 872:class.c       **** //================================================================
 873:class.c       **** /*! (method) !
 874:class.c       **** */
 875:class.c       **** static void c_nil_false_not(struct VM *vm, mrbc_value v[], int argc)
 876:class.c       **** {
  27              		.loc 1 876 0
  28              		.cfi_startproc
  29              		@ args = 0, pretend = 0, frame = 0
  30              		@ frame_needed = 0, uses_anonymous_args = 0
  31              		@ link register save eliminated.
  32              	.LVL0:
 877:class.c       ****   v[0].tt = MRBC_TT_TRUE;
  33              		.loc 1 877 0
  34 0000 0323     		movs	r3, #3
  35 0002 0B70     		strb	r3, [r1]
ARM GAS  C:\Users\164\AppData\Local\Temp\ccvDnxKa.s 			page 17


  36 0004 7047     		bx	lr
  37              		.cfi_endproc
  38              	.LFE124:
  39              		.size	c_nil_false_not, .-c_nil_false_not
  40 0006 00BF     		.section	.text.c_ineffect,"ax",%progbits
  41              		.align	2
  42              		.global	c_ineffect
  43              		.thumb
  44              		.thumb_func
  45              		.type	c_ineffect, %function
  46              	c_ineffect:
  47              	.LFB132:
 878:class.c       **** }
 879:class.c       **** 
 880:class.c       **** 
 881:class.c       **** #if MRBC_USE_STRING
 882:class.c       **** //================================================================
 883:class.c       **** /*! (method) inspect
 884:class.c       **** */
 885:class.c       **** static void c_nil_inspect(struct VM *vm, mrbc_value v[], int argc)
 886:class.c       **** {
 887:class.c       ****   v[0] = mrbc_string_new_cstr(vm, "nil");
 888:class.c       **** }
 889:class.c       **** 
 890:class.c       **** 
 891:class.c       **** //================================================================
 892:class.c       **** /*! (method) to_s
 893:class.c       **** */
 894:class.c       **** static void c_nil_to_s(struct VM *vm, mrbc_value v[], int argc)
 895:class.c       **** {
 896:class.c       ****   v[0] = mrbc_string_new(vm, NULL, 0);
 897:class.c       **** }
 898:class.c       **** #endif
 899:class.c       **** 
 900:class.c       **** //================================================================
 901:class.c       **** /*! Nil class
 902:class.c       **** */
 903:class.c       **** static void mrbc_init_class_nil(struct VM *vm)
 904:class.c       **** {
 905:class.c       ****   // Class
 906:class.c       ****   mrbc_class_nil = mrbc_define_class(vm, "NilClass", mrbc_class_object);
 907:class.c       ****   // Methods
 908:class.c       ****   mrbc_define_method(vm, mrbc_class_nil, "!", c_nil_false_not);
 909:class.c       **** #if MRBC_USE_STRING
 910:class.c       ****   mrbc_define_method(vm, mrbc_class_nil, "inspect", c_nil_inspect);
 911:class.c       ****   mrbc_define_method(vm, mrbc_class_nil, "to_s", c_nil_to_s);
 912:class.c       **** #endif
 913:class.c       **** }
 914:class.c       **** 
 915:class.c       **** 
 916:class.c       **** 
 917:class.c       **** //================================================================
 918:class.c       **** // False class
 919:class.c       **** 
 920:class.c       **** #if MRBC_USE_STRING
 921:class.c       **** //================================================================
 922:class.c       **** /*! (method) to_s
ARM GAS  C:\Users\164\AppData\Local\Temp\ccvDnxKa.s 			page 18


 923:class.c       **** */
 924:class.c       **** static void c_false_to_s(struct VM *vm, mrbc_value v[], int argc)
 925:class.c       **** {
 926:class.c       ****   v[0] = mrbc_string_new_cstr(vm, "false");
 927:class.c       **** }
 928:class.c       **** #endif
 929:class.c       **** 
 930:class.c       **** //================================================================
 931:class.c       **** /*! False class
 932:class.c       **** */
 933:class.c       **** static void mrbc_init_class_false(struct VM *vm)
 934:class.c       **** {
 935:class.c       ****   // Class
 936:class.c       ****   mrbc_class_false = mrbc_define_class(vm, "FalseClass", mrbc_class_object);
 937:class.c       ****   // Methods
 938:class.c       ****   mrbc_define_method(vm, mrbc_class_false, "!", c_nil_false_not);
 939:class.c       **** #if MRBC_USE_STRING
 940:class.c       ****   mrbc_define_method(vm, mrbc_class_false, "inspect", c_false_to_s);
 941:class.c       ****   mrbc_define_method(vm, mrbc_class_false, "to_s", c_false_to_s);
 942:class.c       **** #endif
 943:class.c       **** }
 944:class.c       **** 
 945:class.c       **** 
 946:class.c       **** 
 947:class.c       **** //================================================================
 948:class.c       **** // True class
 949:class.c       **** 
 950:class.c       **** #if MRBC_USE_STRING
 951:class.c       **** //================================================================
 952:class.c       **** /*! (method) to_s
 953:class.c       **** */
 954:class.c       **** static void c_true_to_s(struct VM *vm, mrbc_value v[], int argc)
 955:class.c       **** {
 956:class.c       ****   v[0] = mrbc_string_new_cstr(vm, "true");
 957:class.c       **** }
 958:class.c       **** #endif
 959:class.c       **** 
 960:class.c       **** static void mrbc_init_class_true(struct VM *vm)
 961:class.c       **** {
 962:class.c       ****   // Class
 963:class.c       ****   mrbc_class_true = mrbc_define_class(vm, "TrueClass", mrbc_class_object);
 964:class.c       ****   // Methods
 965:class.c       **** #if MRBC_USE_STRING
 966:class.c       ****   mrbc_define_method(vm, mrbc_class_true, "inspect", c_true_to_s);
 967:class.c       ****   mrbc_define_method(vm, mrbc_class_true, "to_s", c_true_to_s);
 968:class.c       **** #endif
 969:class.c       **** }
 970:class.c       **** 
 971:class.c       **** 
 972:class.c       **** 
 973:class.c       **** //================================================================
 974:class.c       **** /*! Ineffect operator / method
 975:class.c       **** */
 976:class.c       **** void c_ineffect(struct VM *vm, mrbc_value v[], int argc)
 977:class.c       **** {
  48              		.loc 1 977 0
  49              		.cfi_startproc
ARM GAS  C:\Users\164\AppData\Local\Temp\ccvDnxKa.s 			page 19


  50              		@ args = 0, pretend = 0, frame = 0
  51              		@ frame_needed = 0, uses_anonymous_args = 0
  52              		@ link register save eliminated.
  53              	.LVL1:
  54 0000 7047     		bx	lr
  55              		.cfi_endproc
  56              	.LFE132:
  57              		.size	c_ineffect, .-c_ineffect
  58 0002 00BF     		.section	.text.c_proc_call,"ax",%progbits
  59              		.align	2
  60              		.global	c_proc_call
  61              		.thumb
  62              		.thumb_func
  63              		.type	c_proc_call, %function
  64              	c_proc_call:
  65              	.LFB121:
 827:class.c       ****   // push callinfo, but not release regs
  66              		.loc 1 827 0
  67              		.cfi_startproc
  68              		@ args = 0, pretend = 0, frame = 0
  69              		@ frame_needed = 0, uses_anonymous_args = 0
  70              	.LVL2:
 827:class.c       ****   // push callinfo, but not release regs
  71              		.loc 1 827 0
  72 0000 38B5     		push	{r3, r4, r5, lr}
  73              		.cfi_def_cfa_offset 16
  74              		.cfi_offset 3, -16
  75              		.cfi_offset 4, -12
  76              		.cfi_offset 5, -8
  77              		.cfi_offset 14, -4
  78 0002 0446     		mov	r4, r0
  79 0004 0D46     		mov	r5, r1
 829:class.c       **** 
  80              		.loc 1 829 0
  81 0006 1146     		mov	r1, r2
  82              	.LVL3:
  83 0008 FFF7FEFF 		bl	mrbc_push_callinfo
  84              	.LVL4:
 832:class.c       ****   vm->pc_irep = v[0].proc->irep;
  85              		.loc 1 832 0
  86 000c 0023     		movs	r3, #0
  87 000e 2382     		strh	r3, [r4, #16]	@ movhi
 833:class.c       **** 
  88              		.loc 1 833 0
  89 0010 AB68     		ldr	r3, [r5, #8]
  90 0012 DB68     		ldr	r3, [r3, #12]
  91 0014 E360     		str	r3, [r4, #12]
 835:class.c       **** }
  92              		.loc 1 835 0
  93 0016 C4F85856 		str	r5, [r4, #1624]
  94 001a 38BD     		pop	{r3, r4, r5, pc}
  95              		.cfi_endproc
  96              	.LFE121:
  97              		.size	c_proc_call, .-c_proc_call
  98              		.section	.text.c_nil_inspect,"ax",%progbits
  99              		.align	2
 100              		.thumb
ARM GAS  C:\Users\164\AppData\Local\Temp\ccvDnxKa.s 			page 20


 101              		.thumb_func
 102              		.type	c_nil_inspect, %function
 103              	c_nil_inspect:
 104              	.LFB125:
 886:class.c       ****   v[0] = mrbc_string_new_cstr(vm, "nil");
 105              		.loc 1 886 0
 106              		.cfi_startproc
 107              		@ args = 0, pretend = 0, frame = 16
 108              		@ frame_needed = 0, uses_anonymous_args = 0
 109              	.LVL5:
 110 0000 30B5     		push	{r4, r5, lr}
 111              		.cfi_def_cfa_offset 12
 112              		.cfi_offset 4, -12
 113              		.cfi_offset 5, -8
 114              		.cfi_offset 14, -4
 115 0002 85B0     		sub	sp, sp, #20
 116              		.cfi_def_cfa_offset 32
 117 0004 0D46     		mov	r5, r1
 887:class.c       **** }
 118              		.loc 1 887 0
 119 0006 054A     		ldr	r2, .L7
 120              	.LVL6:
 121 0008 0146     		mov	r1, r0
 122              	.LVL7:
 123 000a 6846     		mov	r0, sp
 124              	.LVL8:
 125 000c FFF7FEFF 		bl	mrbc_string_new_cstr
 126              	.LVL9:
 127 0010 9DE80F00 		ldmia	sp, {r0, r1, r2, r3}
 128 0014 85E80F00 		stmia	r5, {r0, r1, r2, r3}
 888:class.c       **** 
 129              		.loc 1 888 0
 130 0018 05B0     		add	sp, sp, #20
 131              		.cfi_def_cfa_offset 12
 132              		@ sp needed
 133 001a 30BD     		pop	{r4, r5, pc}
 134              	.LVL10:
 135              	.L8:
 136              		.align	2
 137              	.L7:
 138 001c 00000000 		.word	.LC0
 139              		.cfi_endproc
 140              	.LFE125:
 141              		.size	c_nil_inspect, .-c_nil_inspect
 142              		.section	.text.c_false_to_s,"ax",%progbits
 143              		.align	2
 144              		.thumb
 145              		.thumb_func
 146              		.type	c_false_to_s, %function
 147              	c_false_to_s:
 148              	.LFB128:
 925:class.c       ****   v[0] = mrbc_string_new_cstr(vm, "false");
 149              		.loc 1 925 0
 150              		.cfi_startproc
 151              		@ args = 0, pretend = 0, frame = 16
 152              		@ frame_needed = 0, uses_anonymous_args = 0
 153              	.LVL11:
ARM GAS  C:\Users\164\AppData\Local\Temp\ccvDnxKa.s 			page 21


 154 0000 30B5     		push	{r4, r5, lr}
 155              		.cfi_def_cfa_offset 12
 156              		.cfi_offset 4, -12
 157              		.cfi_offset 5, -8
 158              		.cfi_offset 14, -4
 159 0002 85B0     		sub	sp, sp, #20
 160              		.cfi_def_cfa_offset 32
 161 0004 0D46     		mov	r5, r1
 926:class.c       **** }
 162              		.loc 1 926 0
 163 0006 054A     		ldr	r2, .L11
 164              	.LVL12:
 165 0008 0146     		mov	r1, r0
 166              	.LVL13:
 167 000a 6846     		mov	r0, sp
 168              	.LVL14:
 169 000c FFF7FEFF 		bl	mrbc_string_new_cstr
 170              	.LVL15:
 171 0010 9DE80F00 		ldmia	sp, {r0, r1, r2, r3}
 172 0014 85E80F00 		stmia	r5, {r0, r1, r2, r3}
 927:class.c       **** #endif
 173              		.loc 1 927 0
 174 0018 05B0     		add	sp, sp, #20
 175              		.cfi_def_cfa_offset 12
 176              		@ sp needed
 177 001a 30BD     		pop	{r4, r5, pc}
 178              	.LVL16:
 179              	.L12:
 180              		.align	2
 181              	.L11:
 182 001c 04000000 		.word	.LC1
 183              		.cfi_endproc
 184              	.LFE128:
 185              		.size	c_false_to_s, .-c_false_to_s
 186              		.section	.text.c_true_to_s,"ax",%progbits
 187              		.align	2
 188              		.thumb
 189              		.thumb_func
 190              		.type	c_true_to_s, %function
 191              	c_true_to_s:
 192              	.LFB130:
 955:class.c       ****   v[0] = mrbc_string_new_cstr(vm, "true");
 193              		.loc 1 955 0
 194              		.cfi_startproc
 195              		@ args = 0, pretend = 0, frame = 16
 196              		@ frame_needed = 0, uses_anonymous_args = 0
 197              	.LVL17:
 198 0000 30B5     		push	{r4, r5, lr}
 199              		.cfi_def_cfa_offset 12
 200              		.cfi_offset 4, -12
 201              		.cfi_offset 5, -8
 202              		.cfi_offset 14, -4
 203 0002 85B0     		sub	sp, sp, #20
 204              		.cfi_def_cfa_offset 32
 205 0004 0D46     		mov	r5, r1
 956:class.c       **** }
 206              		.loc 1 956 0
ARM GAS  C:\Users\164\AppData\Local\Temp\ccvDnxKa.s 			page 22


 207 0006 054A     		ldr	r2, .L15
 208              	.LVL18:
 209 0008 0146     		mov	r1, r0
 210              	.LVL19:
 211 000a 6846     		mov	r0, sp
 212              	.LVL20:
 213 000c FFF7FEFF 		bl	mrbc_string_new_cstr
 214              	.LVL21:
 215 0010 9DE80F00 		ldmia	sp, {r0, r1, r2, r3}
 216 0014 85E80F00 		stmia	r5, {r0, r1, r2, r3}
 957:class.c       **** #endif
 217              		.loc 1 957 0
 218 0018 05B0     		add	sp, sp, #20
 219              		.cfi_def_cfa_offset 12
 220              		@ sp needed
 221 001a 30BD     		pop	{r4, r5, pc}
 222              	.LVL22:
 223              	.L16:
 224              		.align	2
 225              	.L15:
 226 001c 0C000000 		.word	.LC2
 227              		.cfi_endproc
 228              	.LFE130:
 229              		.size	c_true_to_s, .-c_true_to_s
 230              		.section	.text.c_object_not,"ax",%progbits
 231              		.align	2
 232              		.thumb
 233              		.thumb_func
 234              		.type	c_object_not, %function
 235              	c_object_not:
 236              	.LFB108:
 537:class.c       ****   SET_FALSE_RETURN();
 237              		.loc 1 537 0
 238              		.cfi_startproc
 239              		@ args = 0, pretend = 0, frame = 0
 240              		@ frame_needed = 0, uses_anonymous_args = 0
 241              	.LVL23:
 242 0000 10B5     		push	{r4, lr}
 243              		.cfi_def_cfa_offset 8
 244              		.cfi_offset 4, -8
 245              		.cfi_offset 14, -4
 246 0002 0C46     		mov	r4, r1
 538:class.c       **** }
 247              		.loc 1 538 0
 248 0004 0846     		mov	r0, r1
 249              	.LVL24:
 250 0006 FFF7FEFF 		bl	mrbc_dec_ref_counter
 251              	.LVL25:
 252 000a 0223     		movs	r3, #2
 253 000c 2370     		strb	r3, [r4]
 254 000e 10BD     		pop	{r4, pc}
 255              		.cfi_endproc
 256              	.LFE108:
 257              		.size	c_object_not, .-c_object_not
 258              		.section	.text.c_proc_to_s,"ax",%progbits
 259              		.align	2
 260              		.thumb
ARM GAS  C:\Users\164\AppData\Local\Temp\ccvDnxKa.s 			page 23


 261              		.thumb_func
 262              		.type	c_proc_to_s, %function
 263              	c_proc_to_s:
 264              	.LFB122:
 841:class.c       ****   // (NOTE) address part assumes 32bit. but enough for this.
 265              		.loc 1 841 0
 266              		.cfi_startproc
 267              		@ args = 0, pretend = 0, frame = 80
 268              		@ frame_needed = 0, uses_anonymous_args = 0
 269              	.LVL26:
 270 0000 70B5     		push	{r4, r5, r6, lr}
 271              		.cfi_def_cfa_offset 16
 272              		.cfi_offset 4, -16
 273              		.cfi_offset 5, -12
 274              		.cfi_offset 6, -8
 275              		.cfi_offset 14, -4
 276 0002 94B0     		sub	sp, sp, #80
 277              		.cfi_def_cfa_offset 96
 278 0004 0646     		mov	r6, r0
 279 0006 0C46     		mov	r4, r1
 280              	.LVL27:
 281              	.LBB98:
 282              	.LBB99:
 283              		.file 2 "console.h"
   1:console.h     **** /*! @file
   2:console.h     ****   @brief
   3:console.h     ****   console output module. (not yet input)
   4:console.h     **** 
   5:console.h     ****   <pre>
   6:console.h     ****   Copyright (C) 2015-2018 Kyushu Institute of Technology.
   7:console.h     ****   Copyright (C) 2015-2018 Shimane IT Open-Innovation Center.
   8:console.h     **** 
   9:console.h     ****   This file is distributed under BSD 3-Clause License.
  10:console.h     **** 
  11:console.h     ****   </pre>
  12:console.h     **** */
  13:console.h     **** 
  14:console.h     **** #ifndef MRBC_SRC_CONSOLE_H_
  15:console.h     **** #define MRBC_SRC_CONSOLE_H_
  16:console.h     **** 
  17:console.h     **** #include <stdint.h>
  18:console.h     **** #include <stdarg.h>
  19:console.h     **** #include <string.h>
  20:console.h     **** #include "hal/hal.h"
  21:console.h     **** 
  22:console.h     **** #ifdef __cplusplus
  23:console.h     **** extern "C" {
  24:console.h     **** #endif
  25:console.h     **** 
  26:console.h     **** 
  27:console.h     **** //================================================================
  28:console.h     **** /*! printf tiny (mruby/c) version data container.
  29:console.h     **** */
  30:console.h     **** typedef struct RPrintf {
  31:console.h     ****   char *buf;		//!< output buffer.
  32:console.h     ****   const char *buf_end;	//!< output buffer end point.
  33:console.h     ****   char *p;		//!< output buffer write point.
ARM GAS  C:\Users\164\AppData\Local\Temp\ccvDnxKa.s 			page 24


  34:console.h     ****   const char *fstr;	//!< format string. (e.g. "%d %03x")
  35:console.h     **** 
  36:console.h     ****   struct RPrintfFormat {
  37:console.h     ****     char type;				//!< format char. (e.g. 'd','f','x'...)
  38:console.h     ****     unsigned int flag_plus : 1;
  39:console.h     ****     unsigned int flag_minus : 1;
  40:console.h     ****     unsigned int flag_space : 1;
  41:console.h     ****     unsigned int flag_zero : 1;
  42:console.h     ****     int width;				//!< display width. (e.g. %10d as 10)
  43:console.h     ****     int precision;			//!< precision (e.g. %5.2f as 2)
  44:console.h     ****   } fmt;
  45:console.h     **** } mrbc_printf;
  46:console.h     **** 
  47:console.h     **** 
  48:console.h     **** void console_printf(const char *fstr, ...);
  49:console.h     **** int mrbc_printf_main(mrbc_printf *pf);
  50:console.h     **** int mrbc_printf_char(mrbc_printf *pf, int ch);
  51:console.h     **** int mrbc_printf_bstr(mrbc_printf *pf, const char *str, int len, int pad);
  52:console.h     **** int mrbc_printf_int(mrbc_printf *pf, mrbc_int value, int base);
  53:console.h     **** int mrbc_printf_float(mrbc_printf *pf, double value);
  54:console.h     **** void mrbc_printf_replace_buffer(mrbc_printf *pf, char *buf, int size);
  55:console.h     **** 
  56:console.h     **** 
  57:console.h     **** //================================================================
  58:console.h     **** /*! output a character
  59:console.h     **** 
  60:console.h     ****   @param  c	character
  61:console.h     **** */
  62:console.h     **** static inline void console_putchar(char c)
  63:console.h     **** {
  64:console.h     ****   hal_write(1, &c, 1);
  65:console.h     **** }
  66:console.h     **** 
  67:console.h     **** 
  68:console.h     **** //================================================================
  69:console.h     **** /*! output string
  70:console.h     **** 
  71:console.h     ****   @param str	str
  72:console.h     **** */
  73:console.h     **** static inline void console_print(const char *str)
  74:console.h     **** {
  75:console.h     ****   hal_write(1, str, strlen(str));
  76:console.h     **** }
  77:console.h     **** 
  78:console.h     **** 
  79:console.h     **** //================================================================
  80:console.h     **** /*! output string with length parameter.
  81:console.h     **** 
  82:console.h     ****   @param str	str
  83:console.h     ****   @param size	byte length.
  84:console.h     **** */
  85:console.h     **** static inline void console_nprint(const char *str, int size)
  86:console.h     **** {
  87:console.h     ****   hal_write(1, str, size);
  88:console.h     **** }
  89:console.h     **** 
  90:console.h     **** 
ARM GAS  C:\Users\164\AppData\Local\Temp\ccvDnxKa.s 			page 25


  91:console.h     **** //================================================================
  92:console.h     **** /*! initialize data container.
  93:console.h     **** 
  94:console.h     ****   @param  pf	pointer to mrbc_printf
  95:console.h     ****   @param  buf	pointer to output buffer.
  96:console.h     ****   @param  size	buffer size.
  97:console.h     ****   @param  fstr	format string.
  98:console.h     **** */
  99:console.h     **** static inline void mrbc_printf_init( mrbc_printf *pf, char *buf, int size,
 100:console.h     **** 				     const char *fstr )
 101:console.h     **** {
 102:console.h     ****   pf->p = pf->buf = buf;
 284              		.loc 2 102 0
 285 0008 0CAB     		add	r3, sp, #48
 286              	.LVL28:
 287 000a 0593     		str	r3, [sp, #20]
 288 000c 0793     		str	r3, [sp, #28]
 103:console.h     ****   pf->buf_end = buf + size - 1;
 289              		.loc 2 103 0
 290 000e 0DF14F03 		add	r3, sp, #79
 291              	.LVL29:
 292 0012 0693     		str	r3, [sp, #24]
 104:console.h     ****   pf->fstr = fstr;
 293              		.loc 2 104 0
 294 0014 104B     		ldr	r3, .L23
 295 0016 0893     		str	r3, [sp, #32]
 105:console.h     ****   pf->fmt = (struct RPrintfFormat){0};
 296              		.loc 2 105 0
 297 0018 0023     		movs	r3, #0
 298 001a 0993     		str	r3, [sp, #36]
 299 001c 0A93     		str	r3, [sp, #40]
 300 001e 0B93     		str	r3, [sp, #44]
 301 0020 04E0     		b	.L20
 302              	.LVL30:
 303              	.L21:
 304              	.LBE99:
 305              	.LBE98:
 848:class.c       ****   }
 306              		.loc 1 848 0
 307 0022 1022     		movs	r2, #16
 308 0024 A168     		ldr	r1, [r4, #8]
 309 0026 05A8     		add	r0, sp, #20
 310              	.LVL31:
 311 0028 FFF7FEFF 		bl	mrbc_printf_int
 312              	.LVL32:
 313              	.L20:
 847:class.c       ****     mrbc_printf_int( &pf, (uintptr_t)v->proc, 16 );
 314              		.loc 1 847 0
 315 002c 05A8     		add	r0, sp, #20
 316              	.LVL33:
 317 002e FFF7FEFF 		bl	mrbc_printf_main
 318              	.LVL34:
 319 0032 0028     		cmp	r0, #0
 320 0034 F5DC     		bgt	.L21
 321              	.LVL35:
 322              	.LBB100:
 323              	.LBB101:
ARM GAS  C:\Users\164\AppData\Local\Temp\ccvDnxKa.s 			page 26


 106:console.h     **** }
 107:console.h     **** 
 108:console.h     **** 
 109:console.h     **** //================================================================
 110:console.h     **** /*! clear output buffer in container.
 111:console.h     **** 
 112:console.h     ****   @param  pf	pointer to mrbc_printf
 113:console.h     **** */
 114:console.h     **** static inline void mrbc_printf_clear( mrbc_printf *pf )
 115:console.h     **** {
 116:console.h     ****   pf->p = pf->buf;
 117:console.h     **** }
 118:console.h     **** 
 119:console.h     **** 
 120:console.h     **** //================================================================
 121:console.h     **** /*! terminate ('\0') output buffer.
 122:console.h     **** 
 123:console.h     ****   @param  pf	pointer to mrbc_printf
 124:console.h     **** */
 125:console.h     **** static inline void mrbc_printf_end( mrbc_printf *pf )
 126:console.h     **** {
 127:console.h     ****   *pf->p = '\0';
 324              		.loc 2 127 0
 325 0036 0022     		movs	r2, #0
 326 0038 079B     		ldr	r3, [sp, #28]
 327 003a 1A70     		strb	r2, [r3]
 328              	.LVL36:
 329              	.LBE101:
 330              	.LBE100:
 331              	.LBB102:
 852:class.c       **** }
 332              		.loc 1 852 0
 333 003c 0CAA     		add	r2, sp, #48
 334              	.LVL37:
 335 003e 3146     		mov	r1, r6
 336 0040 6846     		mov	r0, sp
 337 0042 FFF7FEFF 		bl	mrbc_string_new_cstr
 338              	.LVL38:
 339 0046 2046     		mov	r0, r4
 340 0048 FFF7FEFF 		bl	mrbc_dec_ref_counter
 341              	.LVL39:
 342 004c 9DE80F00 		ldmia	sp, {r0, r1, r2, r3}
 343 0050 84E80F00 		stmia	r4, {r0, r1, r2, r3}
 344              	.LBE102:
 853:class.c       **** #endif
 345              		.loc 1 853 0
 346 0054 14B0     		add	sp, sp, #80
 347              		.cfi_def_cfa_offset 16
 348              		@ sp needed
 349 0056 70BD     		pop	{r4, r5, r6, pc}
 350              	.LVL40:
 351              	.L24:
 352              		.align	2
 353              	.L23:
 354 0058 14000000 		.word	.LC3
 355              		.cfi_endproc
 356              	.LFE122:
ARM GAS  C:\Users\164\AppData\Local\Temp\ccvDnxKa.s 			page 27


 357              		.size	c_proc_to_s, .-c_proc_to_s
 358              		.section	.text.c_object_to_s,"ax",%progbits
 359              		.align	2
 360              		.thumb
 361              		.thumb_func
 362              		.type	c_object_to_s, %function
 363              	c_object_to_s:
 364              	.LFB119:
 730:class.c       ****   char buf[32];
 365              		.loc 1 730 0
 366              		.cfi_startproc
 367              		@ args = 0, pretend = 0, frame = 64
 368              		@ frame_needed = 0, uses_anonymous_args = 0
 369              	.LVL41:
 370 0000 70B5     		push	{r4, r5, r6, lr}
 371              		.cfi_def_cfa_offset 16
 372              		.cfi_offset 4, -16
 373              		.cfi_offset 5, -12
 374              		.cfi_offset 6, -8
 375              		.cfi_offset 14, -4
 376 0002 90B0     		sub	sp, sp, #64
 377              		.cfi_def_cfa_offset 80
 378 0004 0646     		mov	r6, r0
 379 0006 0C46     		mov	r4, r1
 380              	.LVL42:
 734:class.c       ****   case MRBC_TT_CLASS:
 381              		.loc 1 734 0
 382 0008 91F90030 		ldrsb	r3, [r1]
 383 000c 072B     		cmp	r3, #7
 384 000e 02D0     		beq	.L27
 385 0010 142B     		cmp	r3, #20
 386 0012 07D0     		beq	.L28
 387 0014 39E0     		b	.L36
 388              	.L27:
 736:class.c       ****     break;
 389              		.loc 1 736 0
 390 0016 8B68     		ldr	r3, [r1, #8]
 391 0018 B3F90000 		ldrsh	r0, [r3]
 392              	.LVL43:
 393 001c FFF7FEFF 		bl	symid_to_str
 394              	.LVL44:
 395 0020 0246     		mov	r2, r0
 396              	.LVL45:
 737:class.c       **** 
 397              		.loc 1 737 0
 398 0022 33E0     		b	.L26
 399              	.LVL46:
 400              	.L28:
 401              	.LBB111:
 402              	.LBB112:
 403              	.LBB113:
 102:console.h     ****   pf->buf_end = buf + size - 1;
 404              		.loc 2 102 0
 405 0024 08AB     		add	r3, sp, #32
 406              	.LVL47:
 407 0026 0093     		str	r3, [sp]
 408 0028 0293     		str	r3, [sp, #8]
ARM GAS  C:\Users\164\AppData\Local\Temp\ccvDnxKa.s 			page 28


 103:console.h     ****   pf->fstr = fstr;
 409              		.loc 2 103 0
 410 002a 0DF13F03 		add	r3, sp, #63
 411              	.LVL48:
 412 002e 0193     		str	r3, [sp, #4]
 104:console.h     ****   pf->fmt = (struct RPrintfFormat){0};
 413              		.loc 2 104 0
 414 0030 1D4B     		ldr	r3, .L38
 415 0032 0393     		str	r3, [sp, #12]
 105:console.h     **** }
 416              		.loc 2 105 0
 417 0034 0023     		movs	r3, #0
 418 0036 0493     		str	r3, [sp, #16]
 419 0038 0593     		str	r3, [sp, #20]
 420 003a 0693     		str	r3, [sp, #24]
 421 003c 1BE0     		b	.L30
 422              	.LVL49:
 423              	.L34:
 424              	.LBE113:
 425              	.LBE112:
 745:class.c       ****       case 's':
 426              		.loc 1 745 0
 427 003e 9DF81030 		ldrb	r3, [sp, #16]	@ zero_extendqisi2
 428 0042 732B     		cmp	r3, #115
 429 0044 02D0     		beq	.L31
 430 0046 782B     		cmp	r3, #120
 431 0048 10D0     		beq	.L32
 432 004a 14E0     		b	.L30
 433              	.L31:
 747:class.c       **** 	break;
 434              		.loc 1 747 0
 435 004c A368     		ldr	r3, [r4, #8]
 436 004e 5B68     		ldr	r3, [r3, #4]
 437 0050 B3F90000 		ldrsh	r0, [r3]
 438 0054 FFF7FEFF 		bl	symid_to_str
 439              	.LVL50:
 440 0058 0546     		mov	r5, r0
 441              	.LVL51:
 442              	.LBB114:
 443              	.LBB115:
 128:console.h     **** }
 129:console.h     **** 
 130:console.h     **** 
 131:console.h     **** //================================================================
 132:console.h     **** /*! return string length in buffer
 133:console.h     **** 
 134:console.h     ****   @param  pf	pointer to mrbc_printf
 135:console.h     ****   @return	length
 136:console.h     **** */
 137:console.h     **** static inline int mrbc_printf_len( mrbc_printf *pf )
 138:console.h     **** {
 139:console.h     ****   return pf->p - pf->buf;
 140:console.h     **** }
 141:console.h     **** 
 142:console.h     **** 
 143:console.h     **** //================================================================
 144:console.h     **** /*! sprintf subcontract function for char '%s'
ARM GAS  C:\Users\164\AppData\Local\Temp\ccvDnxKa.s 			page 29


 145:console.h     **** 
 146:console.h     ****   @param  pf	pointer to mrbc_printf.
 147:console.h     ****   @param  str	output string.
 148:console.h     ****   @param  pad	padding character.
 149:console.h     ****   @retval 0	done.
 150:console.h     ****   @retval -1	buffer full.
 151:console.h     ****   @note		not terminate ('\0') buffer tail.
 152:console.h     **** */
 153:console.h     **** static inline int mrbc_printf_str( mrbc_printf *pf, const char *str, int pad )
 154:console.h     **** {
 155:console.h     ****   return mrbc_printf_bstr( pf, str, strlen(str), pad );
 444              		.loc 2 155 0
 445 005a FFF7FEFF 		bl	strlen
 446              	.LVL52:
 447 005e 2023     		movs	r3, #32
 448 0060 0246     		mov	r2, r0
 449 0062 2946     		mov	r1, r5
 450 0064 6846     		mov	r0, sp
 451 0066 FFF7FEFF 		bl	mrbc_printf_bstr
 452              	.LVL53:
 453 006a 04E0     		b	.L30
 454              	.LVL54:
 455              	.L32:
 456              	.LBE115:
 457              	.LBE114:
 750:class.c       **** 	break;
 458              		.loc 1 750 0
 459 006c 1022     		movs	r2, #16
 460 006e A168     		ldr	r1, [r4, #8]
 461 0070 6846     		mov	r0, sp
 462 0072 FFF7FEFF 		bl	mrbc_printf_int
 463              	.LVL55:
 464              	.L30:
 744:class.c       ****       switch(pf.fmt.type) {
 465              		.loc 1 744 0
 466 0076 6846     		mov	r0, sp
 467 0078 FFF7FEFF 		bl	mrbc_printf_main
 468              	.LVL56:
 469 007c 0028     		cmp	r0, #0
 470 007e DEDC     		bgt	.L34
 471              	.LVL57:
 472              	.LBB116:
 473              	.LBB117:
 127:console.h     **** }
 474              		.loc 2 127 0
 475 0080 0022     		movs	r2, #0
 476 0082 029B     		ldr	r3, [sp, #8]
 477 0084 1A70     		strb	r2, [r3]
 478              	.LVL58:
 479              	.LBE117:
 480              	.LBE116:
 481              	.LBE111:
 732:class.c       **** 
 482              		.loc 1 732 0
 483 0086 08AA     		add	r2, sp, #32
 484              	.LVL59:
 755:class.c       **** 
ARM GAS  C:\Users\164\AppData\Local\Temp\ccvDnxKa.s 			page 30


 485              		.loc 1 755 0
 486 0088 00E0     		b	.L26
 487              	.LVL60:
 488              	.L36:
 758:class.c       ****     break;
 489              		.loc 1 758 0
 490 008a 084A     		ldr	r2, .L38+4
 491              	.LVL61:
 492              	.L26:
 493              	.LBB118:
 762:class.c       **** }
 494              		.loc 1 762 0
 495 008c 3146     		mov	r1, r6
 496 008e 6846     		mov	r0, sp
 497 0090 FFF7FEFF 		bl	mrbc_string_new_cstr
 498              	.LVL62:
 499 0094 2046     		mov	r0, r4
 500 0096 FFF7FEFF 		bl	mrbc_dec_ref_counter
 501              	.LVL63:
 502 009a 9DE80F00 		ldmia	sp, {r0, r1, r2, r3}
 503 009e 84E80F00 		stmia	r4, {r0, r1, r2, r3}
 504              	.LBE118:
 763:class.c       **** #endif
 505              		.loc 1 763 0
 506 00a2 10B0     		add	sp, sp, #64
 507              		.cfi_def_cfa_offset 16
 508              		@ sp needed
 509 00a4 70BD     		pop	{r4, r5, r6, pc}
 510              	.LVL64:
 511              	.L39:
 512 00a6 00BF     		.align	2
 513              	.L38:
 514 00a8 28000000 		.word	.LC5
 515 00ac 24000000 		.word	.LC4
 516              		.cfi_endproc
 517              	.LFE119:
 518              		.size	c_object_to_s, .-c_object_to_s
 519              		.section	.text.c_object_kind_of,"ax",%progbits
 520              		.align	2
 521              		.thumb
 522              		.thumb_func
 523              		.type	c_object_kind_of, %function
 524              	c_object_kind_of:
 525              	.LFB118:
 714:class.c       ****   int result = 0;
 526              		.loc 1 714 0
 527              		.cfi_startproc
 528              		@ args = 0, pretend = 0, frame = 0
 529              		@ frame_needed = 0, uses_anonymous_args = 0
 530              	.LVL65:
 531 0000 38B5     		push	{r3, r4, r5, lr}
 532              		.cfi_def_cfa_offset 16
 533              		.cfi_offset 3, -16
 534              		.cfi_offset 4, -12
 535              		.cfi_offset 5, -8
 536              		.cfi_offset 14, -4
 537 0002 0C46     		mov	r4, r1
ARM GAS  C:\Users\164\AppData\Local\Temp\ccvDnxKa.s 			page 31


 538              	.LVL66:
 716:class.c       **** 
 539              		.loc 1 716 0
 540 0004 91F91030 		ldrsb	r3, [r1, #16]
 541 0008 072B     		cmp	r3, #7
 542 000a 05D1     		bne	.L43
 718:class.c       **** 
 543              		.loc 1 718 0
 544 000c 8969     		ldr	r1, [r1, #24]
 545              	.LVL67:
 546 000e 2046     		mov	r0, r4
 547              	.LVL68:
 548 0010 FFF7FEFF 		bl	mrbc_obj_is_kind_of
 549              	.LVL69:
 550 0014 0546     		mov	r5, r0
 551              	.LVL70:
 552 0016 00E0     		b	.L41
 553              	.LVL71:
 554              	.L43:
 715:class.c       ****   if( v[1].tt != MRBC_TT_CLASS ) goto DONE;
 555              		.loc 1 715 0
 556 0018 0025     		movs	r5, #0
 557              	.LVL72:
 558              	.L41:
 721:class.c       **** }
 559              		.loc 1 721 0
 560 001a 2046     		mov	r0, r4
 561 001c FFF7FEFF 		bl	mrbc_dec_ref_counter
 562              	.LVL73:
 563 0020 0DB1     		cbz	r5, .L44
 564 0022 0323     		movs	r3, #3
 565 0024 00E0     		b	.L42
 566              	.L44:
 567 0026 0223     		movs	r3, #2
 568              	.L42:
 721:class.c       **** }
 569              		.loc 1 721 0 is_stmt 0 discriminator 4
 570 0028 2370     		strb	r3, [r4]
 571 002a 38BD     		pop	{r3, r4, r5, pc}
 572              		.cfi_endproc
 573              	.LFE118:
 574              		.size	c_object_kind_of, .-c_object_kind_of
 575              		.section	.text.c_object_setiv,"ax",%progbits
 576              		.align	2
 577              		.thumb
 578              		.thumb_func
 579              		.type	c_object_setiv, %function
 580              	c_object_setiv:
 581              	.LFB115:
 654:class.c       ****   const char *name = mrbc_get_callee_name(vm);
 582              		.loc 1 654 0 is_stmt 1
 583              		.cfi_startproc
 584              		@ args = 0, pretend = 0, frame = 0
 585              		@ frame_needed = 0, uses_anonymous_args = 0
 586              	.LVL74:
 587 0000 70B5     		push	{r4, r5, r6, lr}
 588              		.cfi_def_cfa_offset 16
ARM GAS  C:\Users\164\AppData\Local\Temp\ccvDnxKa.s 			page 32


 589              		.cfi_offset 4, -16
 590              		.cfi_offset 5, -12
 591              		.cfi_offset 6, -8
 592              		.cfi_offset 14, -4
 593 0002 0446     		mov	r4, r0
 594 0004 0D46     		mov	r5, r1
 655:class.c       **** 
 595              		.loc 1 655 0
 596 0006 FFF7FEFF 		bl	mrbc_get_callee_name
 597              	.LVL75:
 598 000a 0646     		mov	r6, r0
 599              	.LVL76:
 657:class.c       ****   if( !namebuf ) return;
 600              		.loc 1 657 0
 601 000c FFF7FEFF 		bl	strlen
 602              	.LVL77:
 603 0010 0146     		mov	r1, r0
 604 0012 2046     		mov	r0, r4
 605 0014 FFF7FEFF 		bl	mrbc_alloc
 606              	.LVL78:
 658:class.c       ****   strcpy(namebuf, name);
 607              		.loc 1 658 0
 608 0018 A8B1     		cbz	r0, .L46
 609 001a 0446     		mov	r4, r0
 610              	.LVL79:
 659:class.c       ****   namebuf[strlen(name)-1] = '\0';	// delete '='
 611              		.loc 1 659 0
 612 001c 3146     		mov	r1, r6
 613 001e FFF7FEFF 		bl	strcpy
 614              	.LVL80:
 660:class.c       ****   mrbc_sym sym_id = str_to_symid(namebuf);
 615              		.loc 1 660 0
 616 0022 3046     		mov	r0, r6
 617 0024 FFF7FEFF 		bl	strlen
 618              	.LVL81:
 619 0028 0138     		subs	r0, r0, #1
 620 002a 0023     		movs	r3, #0
 621 002c 2354     		strb	r3, [r4, r0]
 661:class.c       **** 
 622              		.loc 1 661 0
 623 002e 2046     		mov	r0, r4
 624 0030 FFF7FEFF 		bl	str_to_symid
 625              	.LVL82:
 663:class.c       ****   mrbc_raw_free(namebuf);
 626              		.loc 1 663 0
 627 0034 05F11002 		add	r2, r5, #16
 628 0038 0146     		mov	r1, r0
 629 003a 2846     		mov	r0, r5
 630              	.LVL83:
 631 003c FFF7FEFF 		bl	mrbc_instance_setiv
 632              	.LVL84:
 664:class.c       **** }
 633              		.loc 1 664 0
 634 0040 2046     		mov	r0, r4
 635 0042 FFF7FEFF 		bl	mrbc_raw_free
 636              	.LVL85:
 637              	.L46:
ARM GAS  C:\Users\164\AppData\Local\Temp\ccvDnxKa.s 			page 33


 638 0046 70BD     		pop	{r4, r5, r6, pc}
 639              		.cfi_endproc
 640              	.LFE115:
 641              		.size	c_object_setiv, .-c_object_setiv
 642              		.section	.text.c_object_getiv,"ax",%progbits
 643              		.align	2
 644              		.thumb
 645              		.thumb_func
 646              		.type	c_object_getiv, %function
 647              	c_object_getiv:
 648              	.LFB114:
 641:class.c       ****   const char *name = mrbc_get_callee_name(vm);
 649              		.loc 1 641 0
 650              		.cfi_startproc
 651              		@ args = 0, pretend = 0, frame = 32
 652              		@ frame_needed = 0, uses_anonymous_args = 0
 653              	.LVL86:
 654 0000 70B5     		push	{r4, r5, r6, lr}
 655              		.cfi_def_cfa_offset 16
 656              		.cfi_offset 4, -16
 657              		.cfi_offset 5, -12
 658              		.cfi_offset 6, -8
 659              		.cfi_offset 14, -4
 660 0002 88B0     		sub	sp, sp, #32
 661              		.cfi_def_cfa_offset 48
 662 0004 0D46     		mov	r5, r1
 642:class.c       ****   mrbc_sym sym_id = str_to_symid( name );
 663              		.loc 1 642 0
 664 0006 FFF7FEFF 		bl	mrbc_get_callee_name
 665              	.LVL87:
 643:class.c       ****   mrbc_value ret = mrbc_instance_getiv(&v[0], sym_id);
 666              		.loc 1 643 0
 667 000a FFF7FEFF 		bl	str_to_symid
 668              	.LVL88:
 644:class.c       **** 
 669              		.loc 1 644 0
 670 000e 04AE     		add	r6, sp, #16
 671 0010 0246     		mov	r2, r0
 672 0012 2946     		mov	r1, r5
 673 0014 3046     		mov	r0, r6
 674              	.LVL89:
 675 0016 FFF7FEFF 		bl	mrbc_instance_getiv
 676              	.LVL90:
 677              	.LBB119:
 646:class.c       **** }
 678              		.loc 1 646 0
 679 001a 96E80F00 		ldmia	r6, {r0, r1, r2, r3}
 680 001e 8DE80F00 		stmia	sp, {r0, r1, r2, r3}
 681 0022 2846     		mov	r0, r5
 682 0024 FFF7FEFF 		bl	mrbc_dec_ref_counter
 683              	.LVL91:
 684 0028 9DE80F00 		ldmia	sp, {r0, r1, r2, r3}
 685 002c 85E80F00 		stmia	r5, {r0, r1, r2, r3}
 686              	.LBE119:
 647:class.c       **** 
 687              		.loc 1 647 0
 688 0030 08B0     		add	sp, sp, #32
ARM GAS  C:\Users\164\AppData\Local\Temp\ccvDnxKa.s 			page 34


 689              		.cfi_def_cfa_offset 16
 690              		@ sp needed
 691 0032 70BD     		pop	{r4, r5, r6, pc}
 692              		.cfi_endproc
 693              	.LFE114:
 694              		.size	c_object_getiv, .-c_object_getiv
 695              		.section	.text.c_object_new,"ax",%progbits
 696              		.align	2
 697              		.thumb
 698              		.thumb_func
 699              		.type	c_object_new, %function
 700              	c_object_new:
 701              	.LFB113:
 593:class.c       ****   mrbc_value new_obj = mrbc_instance_new(vm, v->cls, 0);
 702              		.loc 1 593 0
 703              		.cfi_startproc
 704              		@ args = 0, pretend = 0, frame = 88
 705              		@ frame_needed = 0, uses_anonymous_args = 0
 706              	.LVL92:
 707 0000 2DE9F043 		push	{r4, r5, r6, r7, r8, r9, lr}
 708              		.cfi_def_cfa_offset 28
 709              		.cfi_offset 4, -28
 710              		.cfi_offset 5, -24
 711              		.cfi_offset 6, -20
 712              		.cfi_offset 7, -16
 713              		.cfi_offset 8, -12
 714              		.cfi_offset 9, -8
 715              		.cfi_offset 14, -4
 716 0004 97B0     		sub	sp, sp, #92
 717              		.cfi_def_cfa_offset 120
 718 0006 0446     		mov	r4, r0
 719 0008 0D46     		mov	r5, r1
 720 000a 9046     		mov	r8, r2
 594:class.c       **** 
 721              		.loc 1 594 0
 722 000c 12AF     		add	r7, sp, #72
 723 000e 0023     		movs	r3, #0
 724 0010 8A68     		ldr	r2, [r1, #8]
 725              	.LVL93:
 726 0012 0146     		mov	r1, r0
 727              	.LVL94:
 728 0014 3846     		mov	r0, r7
 729              	.LVL95:
 730 0016 FFF7FEFF 		bl	mrbc_instance_new
 731              	.LVL96:
 596:class.c       ****   uint32_to_bin( 1,(uint8_t*)&syms[0]);
 732              		.loc 1 596 0
 733 001a 0DAE     		add	r6, sp, #52
 734 001c DFF8C4E0 		ldr	lr, .L54
 735 0020 BEE80F00 		ldmia	lr!, {r0, r1, r2, r3}
 736 0024 0FC6     		stmia	r6!, {r0, r1, r2, r3}
 737 0026 DEF80030 		ldr	r3, [lr]
 738 002a 3370     		strb	r3, [r6]
 739              	.LVL97:
 740              	.LBB120:
 741              	.LBB121:
 742              		.file 3 "vm.h"
ARM GAS  C:\Users\164\AppData\Local\Temp\ccvDnxKa.s 			page 35


   1:vm.h          **** /*! @file
   2:vm.h          ****   @brief
   3:vm.h          ****   mruby bytecode executor.
   4:vm.h          **** 
   5:vm.h          ****   <pre>
   6:vm.h          ****   Copyright (C) 2015-2017 Kyushu Institute of Technology.
   7:vm.h          ****   Copyright (C) 2015-2017 Shimane IT Open-Innovation Center.
   8:vm.h          **** 
   9:vm.h          ****   This file is distributed under BSD 3-Clause License.
  10:vm.h          **** 
  11:vm.h          ****   Fetch mruby VM bytecodes, decode and execute.
  12:vm.h          **** 
  13:vm.h          ****   </pre>
  14:vm.h          **** */
  15:vm.h          **** 
  16:vm.h          **** #ifndef MRBC_SRC_VM_H_
  17:vm.h          **** #define MRBC_SRC_VM_H_
  18:vm.h          **** 
  19:vm.h          **** #include <stdint.h>
  20:vm.h          **** #include "vm_config.h"
  21:vm.h          **** #include "value.h"
  22:vm.h          **** 
  23:vm.h          **** #ifdef __cplusplus
  24:vm.h          **** extern "C" {
  25:vm.h          **** #endif
  26:vm.h          **** 
  27:vm.h          **** 
  28:vm.h          **** //================================================================
  29:vm.h          **** /*!@brief
  30:vm.h          ****   IREP Internal REPresentation
  31:vm.h          **** */
  32:vm.h          **** typedef struct IREP {
  33:vm.h          ****   uint16_t nlocals;		//!< # of local variables
  34:vm.h          ****   uint16_t nregs;		//!< # of register variables
  35:vm.h          ****   uint16_t rlen;		//!< # of child IREP blocks
  36:vm.h          ****   uint16_t ilen;		//!< # of irep
  37:vm.h          ****   uint16_t plen;		//!< # of pool
  38:vm.h          **** 
  39:vm.h          ****   uint8_t     *code;		//!< ISEQ (code) BLOCK
  40:vm.h          ****   mrbc_object  **pools;          //!< array of POOL objects pointer.
  41:vm.h          ****   uint8_t     *ptr_to_sym;
  42:vm.h          ****   struct IREP **reps;		//!< array of child IREP's pointer.
  43:vm.h          **** 
  44:vm.h          **** } mrbc_irep;
  45:vm.h          **** typedef struct IREP mrb_irep;
  46:vm.h          **** 
  47:vm.h          **** 
  48:vm.h          **** //================================================================
  49:vm.h          **** /*!@brief
  50:vm.h          ****   Call information
  51:vm.h          **** */
  52:vm.h          **** typedef struct CALLINFO {
  53:vm.h          ****   struct CALLINFO *prev;
  54:vm.h          ****   mrbc_irep *pc_irep;
  55:vm.h          ****   uint16_t  pc;
  56:vm.h          ****   mrbc_value *current_regs;
  57:vm.h          ****   mrbc_class *target_class;
ARM GAS  C:\Users\164\AppData\Local\Temp\ccvDnxKa.s 			page 36


  58:vm.h          ****   uint8_t   n_args;     // num of args
  59:vm.h          **** } mrbc_callinfo;
  60:vm.h          **** typedef struct CALLINFO mrb_callinfo;
  61:vm.h          **** 
  62:vm.h          **** 
  63:vm.h          **** //================================================================
  64:vm.h          **** /*!@brief
  65:vm.h          ****   Virtual Machine
  66:vm.h          **** */
  67:vm.h          **** typedef struct VM {
  68:vm.h          ****   mrbc_irep *irep;
  69:vm.h          **** 
  70:vm.h          ****   uint8_t        vm_id; // vm_id : 1..n
  71:vm.h          ****   const uint8_t *mrb;   // bytecode
  72:vm.h          **** 
  73:vm.h          ****   mrbc_irep *pc_irep;    // PC
  74:vm.h          ****   uint16_t  pc;         // PC
  75:vm.h          **** 
  76:vm.h          ****   //  uint16_t     reg_top;
  77:vm.h          ****   mrbc_value    regs[MAX_REGS_SIZE];
  78:vm.h          ****   mrbc_value   *current_regs;
  79:vm.h          ****   mrbc_callinfo *callinfo_tail;
  80:vm.h          **** 
  81:vm.h          ****   mrbc_class *target_class;
  82:vm.h          **** 
  83:vm.h          ****   int32_t error_code;
  84:vm.h          **** 
  85:vm.h          ****   volatile int8_t flag_preemption;
  86:vm.h          ****   int8_t flag_need_memfree;
  87:vm.h          **** } mrbc_vm;
  88:vm.h          **** typedef struct VM mrb_vm;
  89:vm.h          **** 
  90:vm.h          **** 
  91:vm.h          **** const char *mrbc_get_irep_symbol(const uint8_t *p, int n);
  92:vm.h          **** const char *mrbc_get_callee_name(struct VM *vm);
  93:vm.h          **** void mrbc_push_callinfo(struct VM *vm, int n_args);
  94:vm.h          **** void mrbc_pop_callinfo(struct VM *vm);
  95:vm.h          **** mrbc_vm *mrbc_vm_open(struct VM *vm_arg);
  96:vm.h          **** void mrbc_vm_close(struct VM *vm);
  97:vm.h          **** void mrbc_vm_begin(struct VM *vm);
  98:vm.h          **** void mrbc_vm_end(struct VM *vm);
  99:vm.h          **** int mrbc_vm_run(struct VM *vm);
 100:vm.h          **** 
 101:vm.h          **** 
 102:vm.h          **** //================================================================
 103:vm.h          **** /*! Get 32bit value from memory.
 104:vm.h          **** 
 105:vm.h          ****   @param  s	Pointer to memory.
 106:vm.h          ****   @return	32bit unsigned value.
 107:vm.h          **** */
 108:vm.h          **** static inline uint32_t bin_to_uint32( const void *s )
 109:vm.h          **** {
 110:vm.h          ****   // Little endian, no alignment.
 111:vm.h          ****   //  e.g. ARM Coretex-M4, Intel x86
 112:vm.h          **** #if defined(MRBC_LITTLE_ENDIAN) && !defined(MRBC_REQUIRE_32BIT_ALIGNMENT)
 113:vm.h          ****   uint32_t x = *((uint32_t *)s);
 114:vm.h          ****   return (x << 24) | ((x & 0xff00) << 8) | ((x >> 8) & 0xff00) | (x >> 24);
ARM GAS  C:\Users\164\AppData\Local\Temp\ccvDnxKa.s 			page 37


 115:vm.h          **** 
 116:vm.h          ****   // Big endian, no alignment.
 117:vm.h          ****   //  e.g. IBM PPC405
 118:vm.h          **** #elif defined(MRBC_BIG_ENDIAN) && !defined(MRBC_REQUIRE_32BIT_ALIGNMENT)
 119:vm.h          ****   uint32_t x = *((uint32_t *)s);
 120:vm.h          ****   return x;
 121:vm.h          **** 
 122:vm.h          ****   // 32bit alignment required.
 123:vm.h          ****   // Little endian
 124:vm.h          ****   //  e.g. ARM Coretex-M0
 125:vm.h          ****   // Big endian
 126:vm.h          ****   //  e.g. OpenRISC
 127:vm.h          **** #elif defined(MRBC_REQUIRE_32BIT_ALIGNMENT)
 128:vm.h          ****   uint8_t *p = (uint8_t *)s;
 129:vm.h          ****   uint32_t x = *p++;
 130:vm.h          ****   x <<= 8;
 131:vm.h          ****   x |= *p++;
 132:vm.h          ****   x <<= 8;
 133:vm.h          ****   x |= *p++;
 134:vm.h          ****   x <<= 8;
 135:vm.h          ****   x |= *p;
 136:vm.h          ****   return x;
 137:vm.h          **** 
 138:vm.h          **** #else
 139:vm.h          ****   #error "Specify MRBC_BIG_ENDIAN or MRBC_LITTLE_ENDIAN"
 140:vm.h          **** #endif
 141:vm.h          **** }
 142:vm.h          **** 
 143:vm.h          **** 
 144:vm.h          **** //================================================================
 145:vm.h          **** /*! Get 16bit value from memory.
 146:vm.h          **** 
 147:vm.h          ****   @param  s	Pointer to memory.
 148:vm.h          ****   @return	16bit unsigned value.
 149:vm.h          **** */
 150:vm.h          **** static inline uint16_t bin_to_uint16( const void *s )
 151:vm.h          **** {
 152:vm.h          ****   // Little endian, no alignment.
 153:vm.h          **** #if defined(MRBC_LITTLE_ENDIAN) && !defined(MRBC_REQUIRE_32BIT_ALIGNMENT)
 154:vm.h          ****   uint16_t x = *((uint16_t *)s);
 155:vm.h          ****   return (x << 8) | (x >> 8);
 156:vm.h          **** 
 157:vm.h          ****   // Big endian, no alignment.
 158:vm.h          **** #elif defined(MRBC_BIG_ENDIAN) && !defined(MRBC_REQUIRE_32BIT_ALIGNMENT)
 159:vm.h          ****   uint16_t x = *((uint16_t *)s);
 160:vm.h          ****   return x;
 161:vm.h          **** 
 162:vm.h          ****   // 32bit alignment required.
 163:vm.h          **** #elif defined(MRBC_REQUIRE_32BIT_ALIGNMENT)
 164:vm.h          ****   uint8_t *p = (uint8_t *)s;
 165:vm.h          ****   uint16_t x = *p++;
 166:vm.h          ****   x <<= 8;
 167:vm.h          ****   x |= *p;
 168:vm.h          ****   return x;
 169:vm.h          **** 
 170:vm.h          **** #endif
 171:vm.h          **** }
ARM GAS  C:\Users\164\AppData\Local\Temp\ccvDnxKa.s 			page 38


 172:vm.h          **** 
 173:vm.h          **** 
 174:vm.h          **** //================================================================
 175:vm.h          **** /*! Set 32bit value to memory.
 176:vm.h          **** 
 177:vm.h          ****   @param  s	Source value.
 178:vm.h          ****   @param  d	Pointer to memory.
 179:vm.h          **** */
 180:vm.h          **** static inline void uint32_to_bin( uint32_t v, void *d )
 181:vm.h          **** {
 182:vm.h          ****   uint8_t *p = (uint8_t *)d + 3;
 183:vm.h          ****   *p-- = 0xff & v;
 743              		.loc 3 183 0
 744 002c 0123     		movs	r3, #1
 745 002e 8DF83730 		strb	r3, [sp, #55]
 746              	.LVL98:
 184:vm.h          ****   v >>= 8;
 185:vm.h          ****   *p-- = 0xff & v;
 747              		.loc 3 185 0
 748 0032 0026     		movs	r6, #0
 749              	.LVL99:
 750 0034 8DF83660 		strb	r6, [sp, #54]
 751              	.LVL100:
 186:vm.h          ****   v >>= 8;
 187:vm.h          ****   *p-- = 0xff & v;
 752              		.loc 3 187 0
 753 0038 8DF83560 		strb	r6, [sp, #53]
 188:vm.h          ****   v >>= 8;
 189:vm.h          ****   *p = 0xff & v;
 754              		.loc 3 189 0
 755 003c 8DF83460 		strb	r6, [sp, #52]
 756              	.LVL101:
 757              	.LBE121:
 758              	.LBE120:
 759              	.LBB122:
 760              	.LBB123:
 190:vm.h          **** }
 191:vm.h          **** 
 192:vm.h          **** 
 193:vm.h          **** //================================================================
 194:vm.h          **** /*! Set 16bit value to memory.
 195:vm.h          **** 
 196:vm.h          ****   @param  s	Source value.
 197:vm.h          ****   @param  d	Pointer to memory.
 198:vm.h          **** */
 199:vm.h          **** static inline void uint16_to_bin( uint16_t v, void *d )
 200:vm.h          **** {
 201:vm.h          ****   uint8_t *p = (uint8_t *)d;
 202:vm.h          ****   *p++ = (v >> 8);
 761              		.loc 3 202 0
 762 0040 8DF83860 		strb	r6, [sp, #56]
 203:vm.h          ****   *p = 0xff & v;
 763              		.loc 3 203 0
 764 0044 0A23     		movs	r3, #10
 765 0046 8DF83930 		strb	r3, [sp, #57]
 766              	.LVL102:
 767              	.LBE123:
ARM GAS  C:\Users\164\AppData\Local\Temp\ccvDnxKa.s 			page 39


 768              	.LBE122:
 601:class.c       ****     MKOPCODE(OP_ABORT)
 769              		.loc 1 601 0
 770 004a 4FEAC833 		lsl	r3, r8, #15
 771 004e 03F47C13 		and	r3, r3, #4128768
 772 0052 43EAC873 		orr	r3, r3, r8, lsl #31
 773 0056 43F00053 		orr	r3, r3, #536870912
 600:class.c       ****     MKOPCODE(OP_SEND) | MKARG_A(0) | MKARG_B(0) | MKARG_C(argc),
 774              		.loc 1 600 0
 775 005a 0B93     		str	r3, [sp, #44]
 776 005c 4FF0A043 		mov	r3, #1342177280
 777 0060 0C93     		str	r3, [sp, #48]
 604:class.c       ****     0,     // nlocals
 778              		.loc 1 604 0
 779 0062 ADF81060 		strh	r6, [sp, #16]	@ movhi
 780 0066 ADF81260 		strh	r6, [sp, #18]	@ movhi
 781 006a ADF81460 		strh	r6, [sp, #20]	@ movhi
 782 006e 0223     		movs	r3, #2
 783 0070 ADF81630 		strh	r3, [sp, #22]	@ movhi
 784 0074 ADF81860 		strh	r6, [sp, #24]	@ movhi
 785 0078 0BAB     		add	r3, sp, #44
 786 007a 0793     		str	r3, [sp, #28]
 787 007c 0896     		str	r6, [sp, #32]
 788 007e 0DAB     		add	r3, sp, #52
 789              	.LVL103:
 790 0080 0993     		str	r3, [sp, #36]
 791 0082 0A96     		str	r6, [sp, #40]
 616:class.c       ****   v[0] = new_obj;
 792              		.loc 1 616 0
 793 0084 2846     		mov	r0, r5
 794 0086 FFF7FEFF 		bl	mrbc_release
 795              	.LVL104:
 617:class.c       ****   mrbc_dup(&new_obj);
 796              		.loc 1 617 0
 797 008a 97E80F00 		ldmia	r7, {r0, r1, r2, r3}
 798 008e 85E80F00 		stmia	r5, {r0, r1, r2, r3}
 618:class.c       **** 
 799              		.loc 1 618 0
 800 0092 3846     		mov	r0, r7
 801 0094 FFF7FEFF 		bl	mrbc_dup
 802              	.LVL105:
 620:class.c       ****   uint16_t  org_pc = vm->pc;
 803              		.loc 1 620 0
 804 0098 D4F80C80 		ldr	r8, [r4, #12]
 805              	.LVL106:
 621:class.c       ****   mrbc_value* org_regs = vm->current_regs;
 806              		.loc 1 621 0
 807 009c B4F81090 		ldrh	r9, [r4, #16]
 808              	.LVL107:
 622:class.c       ****   vm->pc = 0;
 809              		.loc 1 622 0
 810 00a0 D4F85876 		ldr	r7, [r4, #1624]
 811              	.LVL108:
 623:class.c       ****   vm->pc_irep = &irep;
 812              		.loc 1 623 0
 813 00a4 2682     		strh	r6, [r4, #16]	@ movhi
 624:class.c       ****   vm->current_regs = v;
ARM GAS  C:\Users\164\AppData\Local\Temp\ccvDnxKa.s 			page 40


 814              		.loc 1 624 0
 815 00a6 04AB     		add	r3, sp, #16
 816 00a8 E360     		str	r3, [r4, #12]
 625:class.c       **** 
 817              		.loc 1 625 0
 818 00aa C4F85856 		str	r5, [r4, #1624]
 819              	.L52:
 627:class.c       ****     ;
 820              		.loc 1 627 0 discriminator 1
 821 00ae 2046     		mov	r0, r4
 822 00b0 FFF7FEFF 		bl	mrbc_vm_run
 823              	.LVL109:
 824 00b4 0028     		cmp	r0, #0
 825 00b6 FAD0     		beq	.L52
 630:class.c       ****   vm->pc_irep = org_pc_irep;
 826              		.loc 1 630 0
 827 00b8 A4F81090 		strh	r9, [r4, #16]	@ movhi
 631:class.c       ****   vm->current_regs = org_regs;
 828              		.loc 1 631 0
 829 00bc C4F80C80 		str	r8, [r4, #12]
 632:class.c       **** 
 830              		.loc 1 632 0
 831 00c0 C4F85876 		str	r7, [r4, #1624]
 832              	.LBB124:
 634:class.c       **** }
 833              		.loc 1 634 0
 834 00c4 16AB     		add	r3, sp, #88
 835 00c6 13E90F00 		ldmdb	r3, {r0, r1, r2, r3}
 836 00ca 8DE80F00 		stmia	sp, {r0, r1, r2, r3}
 837 00ce 2846     		mov	r0, r5
 838 00d0 FFF7FEFF 		bl	mrbc_dec_ref_counter
 839              	.LVL110:
 840 00d4 9DE80F00 		ldmia	sp, {r0, r1, r2, r3}
 841 00d8 85E80F00 		stmia	r5, {r0, r1, r2, r3}
 842              	.LBE124:
 635:class.c       **** 
 843              		.loc 1 635 0
 844 00dc 17B0     		add	sp, sp, #92
 845              		.cfi_def_cfa_offset 28
 846              		@ sp needed
 847 00de BDE8F083 		pop	{r4, r5, r6, r7, r8, r9, pc}
 848              	.LVL111:
 849              	.L55:
 850 00e2 00BF     		.align	2
 851              	.L54:
 852 00e4 34000000 		.word	.LC6
 853              		.cfi_endproc
 854              	.LFE113:
 855              		.size	c_object_new, .-c_object_new
 856              		.section	.text.c_object_equal3,"ax",%progbits
 857              		.align	2
 858              		.thumb
 859              		.thumb_func
 860              		.type	c_object_equal3, %function
 861              	c_object_equal3:
 862              	.LFB111:
 566:class.c       ****   int result;
ARM GAS  C:\Users\164\AppData\Local\Temp\ccvDnxKa.s 			page 41


 863              		.loc 1 566 0
 864              		.cfi_startproc
 865              		@ args = 0, pretend = 0, frame = 0
 866              		@ frame_needed = 0, uses_anonymous_args = 0
 867              	.LVL112:
 868 0000 38B5     		push	{r3, r4, r5, lr}
 869              		.cfi_def_cfa_offset 16
 870              		.cfi_offset 3, -16
 871              		.cfi_offset 4, -12
 872              		.cfi_offset 5, -8
 873              		.cfi_offset 14, -4
 874 0002 0C46     		mov	r4, r1
 569:class.c       ****     result = mrbc_obj_is_kind_of( &v[1], v[0].cls );
 875              		.loc 1 569 0
 876 0004 91F90030 		ldrsb	r3, [r1]
 877 0008 072B     		cmp	r3, #7
 878 000a 06D1     		bne	.L57
 570:class.c       ****   } else {
 879              		.loc 1 570 0
 880 000c 8968     		ldr	r1, [r1, #8]
 881              	.LVL113:
 882 000e 04F11000 		add	r0, r4, #16
 883              	.LVL114:
 884 0012 FFF7FEFF 		bl	mrbc_obj_is_kind_of
 885              	.LVL115:
 886 0016 0546     		mov	r5, r0
 887              	.LVL116:
 888 0018 06E0     		b	.L58
 889              	.LVL117:
 890              	.L57:
 572:class.c       ****   }
 891              		.loc 1 572 0
 892 001a 1031     		adds	r1, r1, #16
 893              	.LVL118:
 894 001c 2046     		mov	r0, r4
 895              	.LVL119:
 896 001e FFF7FEFF 		bl	mrbc_compare
 897              	.LVL120:
 898 0022 B0FA80F5 		clz	r5, r0
 899 0026 6D09     		lsrs	r5, r5, #5
 900              	.LVL121:
 901              	.L58:
 575:class.c       **** }
 902              		.loc 1 575 0
 903 0028 2046     		mov	r0, r4
 904 002a FFF7FEFF 		bl	mrbc_dec_ref_counter
 905              	.LVL122:
 906 002e 0DB1     		cbz	r5, .L60
 907 0030 0323     		movs	r3, #3
 908 0032 00E0     		b	.L59
 909              	.L60:
 910 0034 0223     		movs	r3, #2
 911              	.L59:
 575:class.c       **** }
 912              		.loc 1 575 0 is_stmt 0 discriminator 4
 913 0036 2370     		strb	r3, [r4]
 914 0038 38BD     		pop	{r3, r4, r5, pc}
ARM GAS  C:\Users\164\AppData\Local\Temp\ccvDnxKa.s 			page 42


 915              		.cfi_endproc
 916              	.LFE111:
 917              		.size	c_object_equal3, .-c_object_equal3
 918 003a 00BF     		.section	.text.c_object_compare,"ax",%progbits
 919              		.align	2
 920              		.thumb
 921              		.thumb_func
 922              		.type	c_object_compare, %function
 923              	c_object_compare:
 924              	.LFB110:
 556:class.c       ****   int result = mrbc_compare( &v[0], &v[1] );
 925              		.loc 1 556 0 is_stmt 1
 926              		.cfi_startproc
 927              		@ args = 0, pretend = 0, frame = 0
 928              		@ frame_needed = 0, uses_anonymous_args = 0
 929              	.LVL123:
 930 0000 38B5     		push	{r3, r4, r5, lr}
 931              		.cfi_def_cfa_offset 16
 932              		.cfi_offset 3, -16
 933              		.cfi_offset 4, -12
 934              		.cfi_offset 5, -8
 935              		.cfi_offset 14, -4
 936 0002 0C46     		mov	r4, r1
 557:class.c       ****   SET_INT_RETURN( result );
 937              		.loc 1 557 0
 938 0004 1031     		adds	r1, r1, #16
 939              	.LVL124:
 940 0006 2046     		mov	r0, r4
 941              	.LVL125:
 942 0008 FFF7FEFF 		bl	mrbc_compare
 943              	.LVL126:
 944 000c 0546     		mov	r5, r0
 945              	.LVL127:
 946              	.LBB125:
 558:class.c       **** }
 947              		.loc 1 558 0
 948 000e 2046     		mov	r0, r4
 949              	.LVL128:
 950 0010 FFF7FEFF 		bl	mrbc_dec_ref_counter
 951              	.LVL129:
 952 0014 0423     		movs	r3, #4
 953 0016 2370     		strb	r3, [r4]
 954 0018 A560     		str	r5, [r4, #8]
 955 001a 38BD     		pop	{r3, r4, r5, pc}
 956              	.LBE125:
 957              		.cfi_endproc
 958              	.LFE110:
 959              		.size	c_object_compare, .-c_object_compare
 960              		.section	.text.c_object_neq,"ax",%progbits
 961              		.align	2
 962              		.thumb
 963              		.thumb_func
 964              		.type	c_object_neq, %function
 965              	c_object_neq:
 966              	.LFB109:
 546:class.c       ****   int result = mrbc_compare( &v[0], &v[1] );
 967              		.loc 1 546 0
ARM GAS  C:\Users\164\AppData\Local\Temp\ccvDnxKa.s 			page 43


 968              		.cfi_startproc
 969              		@ args = 0, pretend = 0, frame = 0
 970              		@ frame_needed = 0, uses_anonymous_args = 0
 971              	.LVL130:
 972 0000 38B5     		push	{r3, r4, r5, lr}
 973              		.cfi_def_cfa_offset 16
 974              		.cfi_offset 3, -16
 975              		.cfi_offset 4, -12
 976              		.cfi_offset 5, -8
 977              		.cfi_offset 14, -4
 978 0002 0C46     		mov	r4, r1
 547:class.c       ****   SET_BOOL_RETURN( result != 0 );
 979              		.loc 1 547 0
 980 0004 1031     		adds	r1, r1, #16
 981              	.LVL131:
 982 0006 2046     		mov	r0, r4
 983              	.LVL132:
 984 0008 FFF7FEFF 		bl	mrbc_compare
 985              	.LVL133:
 986 000c 0546     		mov	r5, r0
 987              	.LVL134:
 548:class.c       **** }
 988              		.loc 1 548 0
 989 000e 2046     		mov	r0, r4
 990              	.LVL135:
 991 0010 FFF7FEFF 		bl	mrbc_dec_ref_counter
 992              	.LVL136:
 993 0014 0DB1     		cbz	r5, .L66
 994 0016 0323     		movs	r3, #3
 995 0018 00E0     		b	.L65
 996              	.L66:
 997 001a 0223     		movs	r3, #2
 998              	.L65:
 548:class.c       **** }
 999              		.loc 1 548 0 is_stmt 0 discriminator 4
 1000 001c 2370     		strb	r3, [r4]
 1001 001e 38BD     		pop	{r3, r4, r5, pc}
 1002              		.cfi_endproc
 1003              	.LFE109:
 1004              		.size	c_object_neq, .-c_object_neq
 1005              		.section	.text.c_object_alias_method,"ax",%progbits
 1006              		.align	2
 1007              		.thumb
 1008              		.thumb_func
 1009              		.type	c_object_alias_method, %function
 1010              	c_object_alias_method:
 1011              	.LFB105:
 463:class.c       ****   // find method only in this class.
 1012              		.loc 1 463 0 is_stmt 1
 1013              		.cfi_startproc
 1014              		@ args = 0, pretend = 0, frame = 0
 1015              		@ frame_needed = 0, uses_anonymous_args = 0
 1016              	.LVL137:
 1017 0000 70B5     		push	{r4, r5, r6, lr}
 1018              		.cfi_def_cfa_offset 16
 1019              		.cfi_offset 4, -16
 1020              		.cfi_offset 5, -12
ARM GAS  C:\Users\164\AppData\Local\Temp\ccvDnxKa.s 			page 44


 1021              		.cfi_offset 6, -8
 1022              		.cfi_offset 14, -4
 1023 0002 0D46     		mov	r5, r1
 465:class.c       ****   while( proc != NULL ) {
 1024              		.loc 1 465 0
 1025 0004 8B68     		ldr	r3, [r1, #8]
 1026 0006 9C68     		ldr	r4, [r3, #8]
 1027              	.LVL138:
 466:class.c       ****     if( proc->sym_id == v[2].i ) break;
 1028              		.loc 1 466 0
 1029 0008 05E0     		b	.L69
 1030              	.LVL139:
 1031              	.L71:
 467:class.c       ****     proc = proc->next;
 1032              		.loc 1 467 0
 1033 000a B4F90420 		ldrsh	r2, [r4, #4]
 1034 000e AB6A     		ldr	r3, [r5, #40]
 1035 0010 9A42     		cmp	r2, r3
 1036 0012 02D0     		beq	.L70
 468:class.c       ****   }
 1037              		.loc 1 468 0
 1038 0014 A468     		ldr	r4, [r4, #8]
 1039              	.LVL140:
 1040              	.L69:
 466:class.c       ****     if( proc->sym_id == v[2].i ) break;
 1041              		.loc 1 466 0
 1042 0016 002C     		cmp	r4, #0
 1043 0018 F7D1     		bne	.L71
 1044              	.L70:
 470:class.c       ****     console_printf("NameError: undefined_method '%s'\n", symid_to_str(v[2].i));
 1045              		.loc 1 470 0
 1046 001a 44B9     		cbnz	r4, .L72
 471:class.c       ****     return;
 1047              		.loc 1 471 0
 1048 001c B5F92800 		ldrsh	r0, [r5, #40]
 1049              	.LVL141:
 1050 0020 FFF7FEFF 		bl	symid_to_str
 1051              	.LVL142:
 1052 0024 0146     		mov	r1, r0
 1053 0026 0D48     		ldr	r0, .L75
 1054 0028 FFF7FEFF 		bl	console_printf
 1055              	.LVL143:
 472:class.c       ****   }
 1056              		.loc 1 472 0
 1057 002c 70BD     		pop	{r4, r5, r6, pc}
 1058              	.LVL144:
 1059              	.L72:
 476:class.c       ****   if( !proc_alias ) return;		// ENOMEM
 1060              		.loc 1 476 0
 1061 002e 1021     		movs	r1, #16
 1062              	.LVL145:
 1063 0030 0020     		movs	r0, #0
 1064              	.LVL146:
 1065 0032 FFF7FEFF 		bl	mrbc_alloc
 1066              	.LVL147:
 477:class.c       ****   memcpy( proc_alias, proc, sizeof(mrbc_proc) );
 1067              		.loc 1 477 0
ARM GAS  C:\Users\164\AppData\Local\Temp\ccvDnxKa.s 			page 45


 1068 0036 0346     		mov	r3, r0
 1069 0038 70B1     		cbz	r0, .L68
 478:class.c       **** 
 1070              		.loc 1 478 0
 1071 003a 2668     		ldr	r6, [r4]	@ unaligned
 1072 003c 6068     		ldr	r0, [r4, #4]	@ unaligned
 1073              	.LVL148:
 1074 003e A168     		ldr	r1, [r4, #8]	@ unaligned
 1075 0040 E268     		ldr	r2, [r4, #12]	@ unaligned
 1076 0042 1E60     		str	r6, [r3]	@ unaligned
 1077 0044 5860     		str	r0, [r3, #4]	@ unaligned
 1078 0046 9960     		str	r1, [r3, #8]	@ unaligned
 1079 0048 DA60     		str	r2, [r3, #12]	@ unaligned
 481:class.c       **** #if defined(MRBC_DEBUG)
 1080              		.loc 1 481 0
 1081 004a AA69     		ldr	r2, [r5, #24]
 1082 004c 9A80     		strh	r2, [r3, #4]	@ movhi
 485:class.c       ****   v[0].cls->procs = proc_alias;
 1083              		.loc 1 485 0
 1084 004e AA68     		ldr	r2, [r5, #8]
 1085 0050 9268     		ldr	r2, [r2, #8]
 1086 0052 9A60     		str	r2, [r3, #8]
 486:class.c       **** }
 1087              		.loc 1 486 0
 1088 0054 AA68     		ldr	r2, [r5, #8]
 1089 0056 9360     		str	r3, [r2, #8]
 1090              	.L68:
 1091 0058 70BD     		pop	{r4, r5, r6, pc}
 1092              	.LVL149:
 1093              	.L76:
 1094 005a 00BF     		.align	2
 1095              	.L75:
 1096 005c 48000000 		.word	.LC7
 1097              		.cfi_endproc
 1098              	.LFE105:
 1099              		.size	c_object_alias_method, .-c_object_alias_method
 1100              		.section	.text.c_nil_to_s,"ax",%progbits
 1101              		.align	2
 1102              		.thumb
 1103              		.thumb_func
 1104              		.type	c_nil_to_s, %function
 1105              	c_nil_to_s:
 1106              	.LFB126:
 895:class.c       ****   v[0] = mrbc_string_new(vm, NULL, 0);
 1107              		.loc 1 895 0
 1108              		.cfi_startproc
 1109              		@ args = 0, pretend = 0, frame = 16
 1110              		@ frame_needed = 0, uses_anonymous_args = 0
 1111              	.LVL150:
 1112 0000 30B5     		push	{r4, r5, lr}
 1113              		.cfi_def_cfa_offset 12
 1114              		.cfi_offset 4, -12
 1115              		.cfi_offset 5, -8
 1116              		.cfi_offset 14, -4
 1117 0002 85B0     		sub	sp, sp, #20
 1118              		.cfi_def_cfa_offset 32
 1119 0004 0D46     		mov	r5, r1
ARM GAS  C:\Users\164\AppData\Local\Temp\ccvDnxKa.s 			page 46


 896:class.c       **** }
 1120              		.loc 1 896 0
 1121 0006 0023     		movs	r3, #0
 1122 0008 1A46     		mov	r2, r3
 1123              	.LVL151:
 1124 000a 0146     		mov	r1, r0
 1125              	.LVL152:
 1126 000c 6846     		mov	r0, sp
 1127              	.LVL153:
 1128 000e FFF7FEFF 		bl	mrbc_string_new
 1129              	.LVL154:
 1130 0012 9DE80F00 		ldmia	sp, {r0, r1, r2, r3}
 1131 0016 85E80F00 		stmia	r5, {r0, r1, r2, r3}
 897:class.c       **** #endif
 1132              		.loc 1 897 0
 1133 001a 05B0     		add	sp, sp, #20
 1134              		.cfi_def_cfa_offset 12
 1135              		@ sp needed
 1136 001c 30BD     		pop	{r4, r5, pc}
 1137              		.cfi_endproc
 1138              	.LFE126:
 1139              		.size	c_nil_to_s, .-c_nil_to_s
 1140 001e 00BF     		.section	.text.mrbc_run_mrblib,"ax",%progbits
 1141              		.align	2
 1142              		.thumb
 1143              		.thumb_func
 1144              		.type	mrbc_run_mrblib, %function
 1145              	mrbc_run_mrblib:
 1146              	.LFB133:
 978:class.c       ****   // nothing to do.
 979:class.c       **** }
 980:class.c       **** 
 981:class.c       **** 
 982:class.c       **** //================================================================
 983:class.c       **** /*! Run mrblib, which is mruby bytecode
 984:class.c       **** */
 985:class.c       **** static void mrbc_run_mrblib(void)
 986:class.c       **** {
 1147              		.loc 1 986 0
 1148              		.cfi_startproc
 1149              		@ args = 0, pretend = 0, frame = 1648
 1150              		@ frame_needed = 0, uses_anonymous_args = 0
 1151 0000 00B5     		push	{lr}
 1152              		.cfi_def_cfa_offset 4
 1153              		.cfi_offset 14, -4
 1154 0002 ADF2746D 		subw	sp, sp, #1652
 1155              		.cfi_def_cfa_offset 1656
 987:class.c       ****   extern const uint8_t mrblib_bytecode[];
 988:class.c       **** 
 989:class.c       ****   mrbc_vm vm;
 990:class.c       ****   mrbc_vm_open(&vm);
 1156              		.loc 1 990 0
 1157 0006 6846     		mov	r0, sp
 1158 0008 FFF7FEFF 		bl	mrbc_vm_open
 1159              	.LVL155:
 991:class.c       ****   mrbc_load_mrb(&vm, mrblib_bytecode);
 1160              		.loc 1 991 0
ARM GAS  C:\Users\164\AppData\Local\Temp\ccvDnxKa.s 			page 47


 1161 000c 0849     		ldr	r1, .L81
 1162 000e 6846     		mov	r0, sp
 1163 0010 FFF7FEFF 		bl	mrbc_load_mrb
 1164              	.LVL156:
 992:class.c       ****   mrbc_vm_begin(&vm);
 1165              		.loc 1 992 0
 1166 0014 6846     		mov	r0, sp
 1167 0016 FFF7FEFF 		bl	mrbc_vm_begin
 1168              	.LVL157:
 993:class.c       ****   mrbc_vm_run(&vm);
 1169              		.loc 1 993 0
 1170 001a 6846     		mov	r0, sp
 1171 001c FFF7FEFF 		bl	mrbc_vm_run
 1172              	.LVL158:
 994:class.c       ****   mrbc_vm_end(&vm);
 1173              		.loc 1 994 0
 1174 0020 6846     		mov	r0, sp
 1175 0022 FFF7FEFF 		bl	mrbc_vm_end
 1176              	.LVL159:
 995:class.c       ****   //mrbc_vm_close(&vm);
 996:class.c       **** }
 1177              		.loc 1 996 0
 1178 0026 0DF2746D 		addw	sp, sp, #1652
 1179              		.cfi_def_cfa_offset 4
 1180              		@ sp needed
 1181 002a 5DF804FB 		ldr	pc, [sp], #4
 1182              	.L82:
 1183 002e 00BF     		.align	2
 1184              	.L81:
 1185 0030 00000000 		.word	mrblib_bytecode
 1186              		.cfi_endproc
 1187              	.LFE133:
 1188              		.size	mrbc_run_mrblib, .-mrbc_run_mrblib
 1189              		.section	.text.find_class_by_object,"ax",%progbits
 1190              		.align	2
 1191              		.global	find_class_by_object
 1192              		.thumb
 1193              		.thumb_func
 1194              		.type	find_class_by_object, %function
 1195              	find_class_by_object:
 1196              	.LFB98:
 208:class.c       ****   mrbc_class *cls;
 1197              		.loc 1 208 0
 1198              		.cfi_startproc
 1199              		@ args = 0, pretend = 0, frame = 0
 1200              		@ frame_needed = 0, uses_anonymous_args = 0
 1201              		@ link register save eliminated.
 1202              	.LVL160:
 211:class.c       ****   case MRBC_TT_TRUE:	cls = mrbc_class_true;		break;
 1203              		.loc 1 211 0
 1204 0000 91F90030 		ldrsb	r3, [r1]
 1205 0004 013B     		subs	r3, r3, #1
 1206 0006 182B     		cmp	r3, #24
 1207 0008 34D8     		bhi	.L84
 1208 000a DFE803F0 		tbb	[pc, r3]
 1209              	.L86:
 1210 000e 13       		.byte	(.L85-.L86)/2
ARM GAS  C:\Users\164\AppData\Local\Temp\ccvDnxKa.s 			page 48


 1211 000f 10       		.byte	(.L87-.L86)/2
 1212 0010 0D       		.byte	(.L88-.L86)/2
 1213 0011 16       		.byte	(.L89-.L86)/2
 1214 0012 19       		.byte	(.L90-.L86)/2
 1215 0013 1C       		.byte	(.L91-.L86)/2
 1216 0014 22       		.byte	(.L92-.L86)/2
 1217 0015 33       		.byte	(.L84-.L86)/2
 1218 0016 33       		.byte	(.L84-.L86)/2
 1219 0017 33       		.byte	(.L84-.L86)/2
 1220 0018 33       		.byte	(.L84-.L86)/2
 1221 0019 33       		.byte	(.L84-.L86)/2
 1222 001a 33       		.byte	(.L84-.L86)/2
 1223 001b 33       		.byte	(.L84-.L86)/2
 1224 001c 33       		.byte	(.L84-.L86)/2
 1225 001d 33       		.byte	(.L84-.L86)/2
 1226 001e 33       		.byte	(.L84-.L86)/2
 1227 001f 33       		.byte	(.L84-.L86)/2
 1228 0020 33       		.byte	(.L84-.L86)/2
 1229 0021 1F       		.byte	(.L93-.L86)/2
 1230 0022 24       		.byte	(.L94-.L86)/2
 1231 0023 27       		.byte	(.L95-.L86)/2
 1232 0024 2A       		.byte	(.L96-.L86)/2
 1233 0025 2D       		.byte	(.L97-.L86)/2
 1234 0026 30       		.byte	(.L98-.L86)/2
 1235 0027 00       		.p2align 1
 1236              	.L88:
 212:class.c       ****   case MRBC_TT_FALSE:	cls = mrbc_class_false; 	break;
 1237              		.loc 1 212 0
 1238 0028 144B     		ldr	r3, .L100
 1239 002a 1868     		ldr	r0, [r3]
 1240              	.LVL161:
 1241 002c 7047     		bx	lr
 1242              	.LVL162:
 1243              	.L87:
 213:class.c       ****   case MRBC_TT_NIL:	cls = mrbc_class_nil;		break;
 1244              		.loc 1 213 0
 1245 002e 144B     		ldr	r3, .L100+4
 1246 0030 1868     		ldr	r0, [r3]
 1247              	.LVL163:
 1248 0032 7047     		bx	lr
 1249              	.LVL164:
 1250              	.L85:
 214:class.c       ****   case MRBC_TT_FIXNUM:	cls = mrbc_class_fixnum;	break;
 1251              		.loc 1 214 0
 1252 0034 134B     		ldr	r3, .L100+8
 1253 0036 1868     		ldr	r0, [r3]
 1254              	.LVL165:
 1255 0038 7047     		bx	lr
 1256              	.LVL166:
 1257              	.L89:
 215:class.c       ****   case MRBC_TT_FLOAT:	cls = mrbc_class_float; 	break;
 1258              		.loc 1 215 0
 1259 003a 134B     		ldr	r3, .L100+12
 1260 003c 1868     		ldr	r0, [r3]
 1261              	.LVL167:
 1262 003e 7047     		bx	lr
 1263              	.LVL168:
ARM GAS  C:\Users\164\AppData\Local\Temp\ccvDnxKa.s 			page 49


 1264              	.L90:
 216:class.c       ****   case MRBC_TT_SYMBOL:	cls = mrbc_class_symbol;	break;
 1265              		.loc 1 216 0
 1266 0040 124B     		ldr	r3, .L100+16
 1267 0042 1868     		ldr	r0, [r3]
 1268              	.LVL169:
 1269 0044 7047     		bx	lr
 1270              	.LVL170:
 1271              	.L91:
 217:class.c       **** 
 1272              		.loc 1 217 0
 1273 0046 124B     		ldr	r3, .L100+20
 1274 0048 1868     		ldr	r0, [r3]
 1275              	.LVL171:
 1276 004a 7047     		bx	lr
 1277              	.LVL172:
 1278              	.L93:
 219:class.c       ****   case MRBC_TT_CLASS:    cls = obj->cls;                 break;
 1279              		.loc 1 219 0
 1280 004c 8B68     		ldr	r3, [r1, #8]
 1281 004e 5868     		ldr	r0, [r3, #4]
 1282              	.LVL173:
 1283 0050 7047     		bx	lr
 1284              	.LVL174:
 1285              	.L92:
 220:class.c       ****   case MRBC_TT_PROC:	cls = mrbc_class_proc;		break;
 1286              		.loc 1 220 0
 1287 0052 8868     		ldr	r0, [r1, #8]
 1288              	.LVL175:
 1289 0054 7047     		bx	lr
 1290              	.LVL176:
 1291              	.L94:
 221:class.c       ****   case MRBC_TT_ARRAY:	cls = mrbc_class_array; 	break;
 1292              		.loc 1 221 0
 1293 0056 0F4B     		ldr	r3, .L100+24
 1294 0058 1868     		ldr	r0, [r3]
 1295              	.LVL177:
 1296 005a 7047     		bx	lr
 1297              	.LVL178:
 1298              	.L95:
 222:class.c       ****   case MRBC_TT_STRING:	cls = mrbc_class_string;	break;
 1299              		.loc 1 222 0
 1300 005c 0E4B     		ldr	r3, .L100+28
 1301 005e 1868     		ldr	r0, [r3]
 1302              	.LVL179:
 1303 0060 7047     		bx	lr
 1304              	.LVL180:
 1305              	.L96:
 223:class.c       ****   case MRBC_TT_RANGE:	cls = mrbc_class_range; 	break;
 1306              		.loc 1 223 0
 1307 0062 0E4B     		ldr	r3, .L100+32
 1308 0064 1868     		ldr	r0, [r3]
 1309              	.LVL181:
 1310 0066 7047     		bx	lr
 1311              	.LVL182:
 1312              	.L97:
 224:class.c       ****   case MRBC_TT_HASH:	cls = mrbc_class_hash;		break;
ARM GAS  C:\Users\164\AppData\Local\Temp\ccvDnxKa.s 			page 50


 1313              		.loc 1 224 0
 1314 0068 0D4B     		ldr	r3, .L100+36
 1315 006a 1868     		ldr	r0, [r3]
 1316              	.LVL183:
 1317 006c 7047     		bx	lr
 1318              	.LVL184:
 1319              	.L98:
 225:class.c       **** 
 1320              		.loc 1 225 0
 1321 006e 0D4B     		ldr	r3, .L100+40
 1322 0070 1868     		ldr	r0, [r3]
 1323              	.LVL185:
 1324 0072 7047     		bx	lr
 1325              	.LVL186:
 1326              	.L84:
 227:class.c       ****   }
 1327              		.loc 1 227 0
 1328 0074 0C4B     		ldr	r3, .L100+44
 1329 0076 1868     		ldr	r0, [r3]
 1330              	.LVL187:
 231:class.c       **** 
 1331              		.loc 1 231 0
 1332 0078 7047     		bx	lr
 1333              	.L101:
 1334 007a 00BF     		.align	2
 1335              	.L100:
 1336 007c 00000000 		.word	mrbc_class_true
 1337 0080 00000000 		.word	mrbc_class_false
 1338 0084 00000000 		.word	mrbc_class_nil
 1339 0088 00000000 		.word	mrbc_class_fixnum
 1340 008c 00000000 		.word	mrbc_class_float
 1341 0090 00000000 		.word	mrbc_class_symbol
 1342 0094 00000000 		.word	mrbc_class_proc
 1343 0098 00000000 		.word	mrbc_class_array
 1344 009c 00000000 		.word	mrbc_class_string
 1345 00a0 00000000 		.word	mrbc_class_range
 1346 00a4 00000000 		.word	mrbc_class_hash
 1347 00a8 00000000 		.word	mrbc_class_object
 1348              		.cfi_endproc
 1349              	.LFE98:
 1350              		.size	find_class_by_object, .-find_class_by_object
 1351              		.section	.text.c_object_class,"ax",%progbits
 1352              		.align	2
 1353              		.thumb
 1354              		.thumb_func
 1355              		.type	c_object_class, %function
 1356              	c_object_class:
 1357              	.LFB112:
 583:class.c       ****   mrbc_value value = {.tt = MRBC_TT_CLASS};
 1358              		.loc 1 583 0
 1359              		.cfi_startproc
 1360              		@ args = 0, pretend = 0, frame = 32
 1361              		@ frame_needed = 0, uses_anonymous_args = 0
 1362              	.LVL188:
 1363 0000 70B5     		push	{r4, r5, r6, lr}
 1364              		.cfi_def_cfa_offset 16
 1365              		.cfi_offset 4, -16
ARM GAS  C:\Users\164\AppData\Local\Temp\ccvDnxKa.s 			page 51


 1366              		.cfi_offset 5, -12
 1367              		.cfi_offset 6, -8
 1368              		.cfi_offset 14, -4
 1369 0002 88B0     		sub	sp, sp, #32
 1370              		.cfi_def_cfa_offset 48
 1371 0004 0E46     		mov	r6, r1
 584:class.c       ****   value.cls = find_class_by_object( vm, v );
 1372              		.loc 1 584 0
 1373 0006 04AD     		add	r5, sp, #16
 1374 0008 0023     		movs	r3, #0
 1375 000a 0493     		str	r3, [sp, #16]
 1376 000c 0593     		str	r3, [sp, #20]
 1377 000e 0793     		str	r3, [sp, #28]
 1378 0010 0723     		movs	r3, #7
 1379 0012 8DF81030 		strb	r3, [sp, #16]
 585:class.c       ****   SET_RETURN( value );
 1380              		.loc 1 585 0
 1381 0016 FFF7FEFF 		bl	find_class_by_object
 1382              	.LVL189:
 1383 001a 0690     		str	r0, [sp, #24]
 1384              	.LBB126:
 586:class.c       **** }
 1385              		.loc 1 586 0
 1386 001c 95E80F00 		ldmia	r5, {r0, r1, r2, r3}
 1387 0020 8DE80F00 		stmia	sp, {r0, r1, r2, r3}
 1388 0024 3046     		mov	r0, r6
 1389 0026 FFF7FEFF 		bl	mrbc_dec_ref_counter
 1390              	.LVL190:
 1391 002a 9DE80F00 		ldmia	sp, {r0, r1, r2, r3}
 1392 002e 86E80F00 		stmia	r6, {r0, r1, r2, r3}
 1393              	.LBE126:
 587:class.c       **** 
 1394              		.loc 1 587 0
 1395 0032 08B0     		add	sp, sp, #32
 1396              		.cfi_def_cfa_offset 16
 1397              		@ sp needed
 1398 0034 70BD     		pop	{r4, r5, r6, pc}
 1399              		.cfi_endproc
 1400              	.LFE112:
 1401              		.size	c_object_class, .-c_object_class
 1402 0036 00BF     		.section	.text.mrbc_print_sub,"ax",%progbits
 1403              		.align	2
 1404              		.thumb
 1405              		.thumb_func
 1406              		.type	mrbc_print_sub, %function
 1407              	mrbc_print_sub:
 1408              	.LFB95:
  47:class.c       ****   int ret = 0;
 1409              		.loc 1 47 0
 1410              		.cfi_startproc
 1411              		@ args = 0, pretend = 0, frame = 48
 1412              		@ frame_needed = 0, uses_anonymous_args = 0
 1413              	.LVL191:
 1414 0000 70B5     		push	{r4, r5, r6, lr}
 1415              		.cfi_def_cfa_offset 16
 1416              		.cfi_offset 4, -16
 1417              		.cfi_offset 5, -12
ARM GAS  C:\Users\164\AppData\Local\Temp\ccvDnxKa.s 			page 52


 1418              		.cfi_offset 6, -8
 1419              		.cfi_offset 14, -4
 1420 0002 8CB0     		sub	sp, sp, #48
 1421              		.cfi_def_cfa_offset 64
 1422 0004 0446     		mov	r4, r0
 1423              	.LVL192:
  50:class.c       ****   case MRBC_TT_EMPTY:	console_print("(empty)");	break;
 1424              		.loc 1 50 0
 1425 0006 90F90010 		ldrsb	r1, [r0]
 1426 000a 1929     		cmp	r1, #25
 1427 000c 00F20681 		bhi	.L105
 1428 0010 DFE811F0 		tbh	[pc, r1, lsl #1]
 1429              	.L107:
 1430 0014 1A00     		.2byte	(.L106-.L107)/2
 1431 0016 0901     		.2byte	(.L128-.L107)/2
 1432 0018 2100     		.2byte	(.L109-.L107)/2
 1433 001a 2800     		.2byte	(.L110-.L107)/2
 1434 001c 2F00     		.2byte	(.L111-.L107)/2
 1435 001e 3500     		.2byte	(.L112-.L107)/2
 1436 0020 3C00     		.2byte	(.L113-.L107)/2
 1437 0022 4A00     		.2byte	(.L114-.L107)/2
 1438 0024 0401     		.2byte	(.L105-.L107)/2
 1439 0026 0401     		.2byte	(.L105-.L107)/2
 1440 0028 0401     		.2byte	(.L105-.L107)/2
 1441 002a 0401     		.2byte	(.L105-.L107)/2
 1442 002c 0401     		.2byte	(.L105-.L107)/2
 1443 002e 0401     		.2byte	(.L105-.L107)/2
 1444 0030 0401     		.2byte	(.L105-.L107)/2
 1445 0032 0401     		.2byte	(.L105-.L107)/2
 1446 0034 0401     		.2byte	(.L105-.L107)/2
 1447 0036 0401     		.2byte	(.L105-.L107)/2
 1448 0038 0401     		.2byte	(.L105-.L107)/2
 1449 003a 0401     		.2byte	(.L105-.L107)/2
 1450 003c 5900     		.2byte	(.L115-.L107)/2
 1451 003e 6800     		.2byte	(.L116-.L107)/2
 1452 0040 6E00     		.2byte	(.L117-.L107)/2
 1453 0042 9500     		.2byte	(.L118-.L107)/2
 1454 0044 A600     		.2byte	(.L119-.L107)/2
 1455 0046 CB00     		.2byte	(.L120-.L107)/2
 1456              		.p2align 1
 1457              	.L106:
 1458              	.LVL193:
 1459              	.LBB184:
 1460              	.LBB185:
  75:console.h     **** }
 1461              		.loc 2 75 0
 1462 0048 0722     		movs	r2, #7
 1463 004a 7A49     		ldr	r1, .L133
 1464 004c 0120     		movs	r0, #1
 1465              	.LVL194:
 1466 004e FFF7FEFF 		bl	hal_write
 1467              	.LVL195:
 1468              	.LBE185:
 1469              	.LBE184:
  48:class.c       **** 
 1470              		.loc 1 48 0
 1471 0052 0020     		movs	r0, #0
ARM GAS  C:\Users\164\AppData\Local\Temp\ccvDnxKa.s 			page 53


 1472 0054 ECE0     		b	.L108
 1473              	.LVL196:
 1474              	.L109:
 1475              	.LBB186:
 1476              	.LBB187:
  75:console.h     **** }
 1477              		.loc 2 75 0
 1478 0056 0522     		movs	r2, #5
 1479 0058 7749     		ldr	r1, .L133+4
 1480 005a 0120     		movs	r0, #1
 1481              	.LVL197:
 1482 005c FFF7FEFF 		bl	hal_write
 1483              	.LVL198:
 1484              	.LBE187:
 1485              	.LBE186:
  48:class.c       **** 
 1486              		.loc 1 48 0
 1487 0060 0020     		movs	r0, #0
 1488 0062 E5E0     		b	.L108
 1489              	.LVL199:
 1490              	.L110:
 1491              	.LBB188:
 1492              	.LBB189:
  75:console.h     **** }
 1493              		.loc 2 75 0
 1494 0064 0422     		movs	r2, #4
 1495 0066 7549     		ldr	r1, .L133+8
 1496 0068 0120     		movs	r0, #1
 1497              	.LVL200:
 1498 006a FFF7FEFF 		bl	hal_write
 1499              	.LVL201:
 1500              	.LBE189:
 1501              	.LBE188:
  48:class.c       **** 
 1502              		.loc 1 48 0
 1503 006e 0020     		movs	r0, #0
 1504 0070 DEE0     		b	.L108
 1505              	.LVL202:
 1506              	.L111:
  55:class.c       **** #if MRBC_USE_FLOAT
 1507              		.loc 1 55 0
 1508 0072 8168     		ldr	r1, [r0, #8]
 1509 0074 7248     		ldr	r0, .L133+12
 1510              	.LVL203:
 1511 0076 FFF7FEFF 		bl	console_printf
 1512              	.LVL204:
  48:class.c       **** 
 1513              		.loc 1 48 0
 1514 007a 0020     		movs	r0, #0
  55:class.c       **** #if MRBC_USE_FLOAT
 1515              		.loc 1 55 0
 1516 007c D8E0     		b	.L108
 1517              	.LVL205:
 1518              	.L112:
  57:class.c       **** #endif
 1519              		.loc 1 57 0
 1520 007e D0E90223 		ldrd	r2, [r0, #8]
ARM GAS  C:\Users\164\AppData\Local\Temp\ccvDnxKa.s 			page 54


 1521 0082 7048     		ldr	r0, .L133+16
 1522              	.LVL206:
 1523 0084 FFF7FEFF 		bl	console_printf
 1524              	.LVL207:
  48:class.c       **** 
 1525              		.loc 1 48 0
 1526 0088 0020     		movs	r0, #0
  57:class.c       **** #endif
 1527              		.loc 1 57 0
 1528 008a D1E0     		b	.L108
 1529              	.LVL208:
 1530              	.L113:
 1531              	.LBB190:
 1532              	.LBB191:
 1533              		.file 4 "symbol.h"
   1:symbol.h      **** /*! @file
   2:symbol.h      ****   @brief
   3:symbol.h      ****   mruby/c Symbol class
   4:symbol.h      **** 
   5:symbol.h      ****   <pre>
   6:symbol.h      ****   Copyright (C) 2015-2018 Kyushu Institute of Technology.
   7:symbol.h      ****   Copyright (C) 2015-2018 Shimane IT Open-Innovation Center.
   8:symbol.h      **** 
   9:symbol.h      ****   This file is distributed under BSD 3-Clause License.
  10:symbol.h      **** 
  11:symbol.h      ****   </pre>
  12:symbol.h      **** */
  13:symbol.h      **** 
  14:symbol.h      **** #ifndef MRBC_SRC_SYMBOL_H_
  15:symbol.h      **** #define MRBC_SRC_SYMBOL_H_
  16:symbol.h      **** 
  17:symbol.h      **** #include "value.h"
  18:symbol.h      **** 
  19:symbol.h      **** #ifdef __cplusplus
  20:symbol.h      **** extern "C" {
  21:symbol.h      **** #endif
  22:symbol.h      **** 
  23:symbol.h      **** 
  24:symbol.h      **** mrbc_value mrbc_symbol_new(struct VM *vm, const char *str);
  25:symbol.h      **** uint16_t calc_hash(const char *str);
  26:symbol.h      **** mrbc_sym str_to_symid(const char *str);
  27:symbol.h      **** const char *symid_to_str(mrbc_sym sym_id);
  28:symbol.h      **** void mrbc_init_class_symbol(struct VM *vm);
  29:symbol.h      **** 
  30:symbol.h      **** #if defined(MRBC_DEBUG)
  31:symbol.h      **** void mrbc_symbol_statistics( int *total_used );
  32:symbol.h      **** #endif
  33:symbol.h      **** 
  34:symbol.h      **** 
  35:symbol.h      **** //================================================================
  36:symbol.h      **** /*! get c-language string (char *)
  37:symbol.h      **** */
  38:symbol.h      **** static inline const char * mrbc_symbol_cstr(const mrbc_value *v)
  39:symbol.h      **** {
  40:symbol.h      ****   return symid_to_str(v->i);
 1534              		.loc 4 40 0
 1535 008c B0F90800 		ldrsh	r0, [r0, #8]
ARM GAS  C:\Users\164\AppData\Local\Temp\ccvDnxKa.s 			page 55


 1536              	.LVL209:
 1537 0090 FFF7FEFF 		bl	symid_to_str
 1538              	.LVL210:
 1539 0094 0446     		mov	r4, r0
 1540              	.LVL211:
 1541              	.LBE191:
 1542              	.LBE190:
 1543              	.LBB192:
 1544              	.LBB193:
  75:console.h     **** }
 1545              		.loc 2 75 0
 1546 0096 FFF7FEFF 		bl	strlen
 1547              	.LVL212:
 1548 009a 0246     		mov	r2, r0
 1549 009c 2146     		mov	r1, r4
 1550 009e 0120     		movs	r0, #1
 1551 00a0 FFF7FEFF 		bl	hal_write
 1552              	.LVL213:
 1553              	.LBE193:
 1554              	.LBE192:
  48:class.c       **** 
 1555              		.loc 1 48 0
 1556 00a4 0020     		movs	r0, #0
 1557 00a6 C3E0     		b	.L108
 1558              	.LVL214:
 1559              	.L114:
  64:class.c       ****     break;
 1560              		.loc 1 64 0
 1561 00a8 8368     		ldr	r3, [r0, #8]
 1562 00aa B3F90000 		ldrsh	r0, [r3]
 1563              	.LVL215:
 1564 00ae FFF7FEFF 		bl	symid_to_str
 1565              	.LVL216:
 1566 00b2 0446     		mov	r4, r0
 1567              	.LVL217:
 1568              	.LBB194:
 1569              	.LBB195:
  75:console.h     **** }
 1570              		.loc 2 75 0
 1571 00b4 FFF7FEFF 		bl	strlen
 1572              	.LVL218:
 1573 00b8 0246     		mov	r2, r0
 1574 00ba 2146     		mov	r1, r4
 1575 00bc 0120     		movs	r0, #1
 1576 00be FFF7FEFF 		bl	hal_write
 1577              	.LVL219:
 1578              	.LBE195:
 1579              	.LBE194:
  48:class.c       **** 
 1580              		.loc 1 48 0
 1581 00c2 0020     		movs	r0, #0
 1582 00c4 B4E0     		b	.L108
 1583              	.LVL220:
 1584              	.L115:
  69:class.c       ****     break;
 1585              		.loc 1 69 0
 1586 00c6 0146     		mov	r1, r0
ARM GAS  C:\Users\164\AppData\Local\Temp\ccvDnxKa.s 			page 56


 1587 00c8 0020     		movs	r0, #0
 1588              	.LVL221:
 1589 00ca FFF7FEFF 		bl	find_class_by_object
 1590              	.LVL222:
  68:class.c       **** 	symid_to_str( find_class_by_object(0,v)->sym_id ), v->instance );
 1591              		.loc 1 68 0
 1592 00ce B0F90000 		ldrsh	r0, [r0]
 1593 00d2 FFF7FEFF 		bl	symid_to_str
 1594              	.LVL223:
 1595 00d6 A268     		ldr	r2, [r4, #8]
 1596 00d8 0146     		mov	r1, r0
 1597 00da 5B48     		ldr	r0, .L133+20
 1598 00dc FFF7FEFF 		bl	console_printf
 1599              	.LVL224:
  48:class.c       **** 
 1600              		.loc 1 48 0
 1601 00e0 0020     		movs	r0, #0
  70:class.c       **** 
 1602              		.loc 1 70 0
 1603 00e2 A5E0     		b	.L108
 1604              	.LVL225:
 1605              	.L116:
  73:class.c       ****     break;
 1606              		.loc 1 73 0
 1607 00e4 8168     		ldr	r1, [r0, #8]
 1608 00e6 5948     		ldr	r0, .L133+24
 1609              	.LVL226:
 1610 00e8 FFF7FEFF 		bl	console_printf
 1611              	.LVL227:
  48:class.c       **** 
 1612              		.loc 1 48 0
 1613 00ec 0020     		movs	r0, #0
  74:class.c       **** 
 1614              		.loc 1 74 0
 1615 00ee 9FE0     		b	.L108
 1616              	.LVL228:
 1617              	.L117:
 1618 00f0 0CA9     		add	r1, sp, #48
 1619 00f2 5B23     		movs	r3, #91
 1620 00f4 01F82E3D 		strb	r3, [r1, #-46]!
 1621              	.LVL229:
 1622              	.LBB196:
 1623              	.LBB197:
 1624              	.LBB198:
  64:console.h     **** }
 1625              		.loc 2 64 0
 1626 00f8 0122     		movs	r2, #1
 1627 00fa 1046     		mov	r0, r2
 1628              	.LVL230:
 1629 00fc FFF7FEFF 		bl	hal_write
 1630              	.LVL231:
 1631              	.LBE198:
 1632              	.LBE197:
  79:class.c       ****       if( i != 0 ) console_print(", ");
 1633              		.loc 1 79 0
 1634 0100 0025     		movs	r5, #0
 1635 0102 0EE0     		b	.L121
ARM GAS  C:\Users\164\AppData\Local\Temp\ccvDnxKa.s 			page 57


 1636              	.LVL232:
 1637              	.L123:
 1638              	.LBB199:
  80:class.c       ****       mrbc_value v1 = mrbc_array_get(v, i);
 1639              		.loc 1 80 0
 1640 0104 25B1     		cbz	r5, .L122
 1641              	.LVL233:
 1642              	.LBB200:
 1643              	.LBB201:
  75:console.h     **** }
 1644              		.loc 2 75 0
 1645 0106 0222     		movs	r2, #2
 1646 0108 5149     		ldr	r1, .L133+28
 1647 010a 0120     		movs	r0, #1
 1648 010c FFF7FEFF 		bl	hal_write
 1649              	.LVL234:
 1650              	.L122:
 1651              	.LBE201:
 1652              	.LBE200:
  81:class.c       ****       mrbc_p_sub(&v1);
 1653              		.loc 1 81 0 discriminator 2
 1654 0110 2A46     		mov	r2, r5
 1655 0112 2146     		mov	r1, r4
 1656 0114 04A8     		add	r0, sp, #16
 1657 0116 FFF7FEFF 		bl	mrbc_array_get
 1658              	.LVL235:
  82:class.c       ****     }
 1659              		.loc 1 82 0 discriminator 2
 1660 011a 04A8     		add	r0, sp, #16
 1661 011c FFF7FEFF 		bl	mrbc_p_sub
 1662              	.LVL236:
 1663              	.LBE199:
  79:class.c       ****       if( i != 0 ) console_print(", ");
 1664              		.loc 1 79 0 discriminator 2
 1665 0120 0135     		adds	r5, r5, #1
 1666              	.LVL237:
 1667              	.L121:
 1668              	.LBB202:
 1669              	.LBB203:
 1670              		.file 5 "c_array.h"
   1:c_array.h     **** /*! @file
   2:c_array.h     ****   @brief
   3:c_array.h     ****   mruby/c Array class
   4:c_array.h     **** 
   5:c_array.h     ****   <pre>
   6:c_array.h     ****   Copyright (C) 2015-2018 Kyushu Institute of Technology.
   7:c_array.h     ****   Copyright (C) 2015-2018 Shimane IT Open-Innovation Center.
   8:c_array.h     **** 
   9:c_array.h     ****   This file is distributed under BSD 3-Clause License.
  10:c_array.h     **** 
  11:c_array.h     ****   </pre>
  12:c_array.h     **** */
  13:c_array.h     **** 
  14:c_array.h     **** #ifndef MRBC_SRC_C_ARRAY_H_
  15:c_array.h     **** #define MRBC_SRC_C_ARRAY_H_
  16:c_array.h     **** 
  17:c_array.h     **** #include "value.h"
ARM GAS  C:\Users\164\AppData\Local\Temp\ccvDnxKa.s 			page 58


  18:c_array.h     **** 
  19:c_array.h     **** #ifdef __cplusplus
  20:c_array.h     **** extern "C" {
  21:c_array.h     **** #endif
  22:c_array.h     **** 
  23:c_array.h     **** //================================================================
  24:c_array.h     **** /*!@brief
  25:c_array.h     ****   Define Array handle.
  26:c_array.h     **** */
  27:c_array.h     **** typedef struct RArray {
  28:c_array.h     ****   MRBC_OBJECT_HEADER;
  29:c_array.h     **** 
  30:c_array.h     ****   uint16_t data_size;	//!< data buffer size.
  31:c_array.h     ****   uint16_t n_stored;	//!< # of stored.
  32:c_array.h     ****   mrbc_value *data;	//!< pointer to allocated memory.
  33:c_array.h     **** 
  34:c_array.h     **** } mrbc_array;
  35:c_array.h     **** 
  36:c_array.h     **** 
  37:c_array.h     **** mrbc_value mrbc_array_new(struct VM *vm, int size);
  38:c_array.h     **** void mrbc_array_delete(mrbc_value *ary);
  39:c_array.h     **** void mrbc_array_clear_vm_id(mrbc_value *ary);
  40:c_array.h     **** int mrbc_array_resize(mrbc_value *ary, int size);
  41:c_array.h     **** int mrbc_array_set(mrbc_value *ary, int idx, mrbc_value *set_val);
  42:c_array.h     **** mrbc_value mrbc_array_get(mrbc_value *ary, int idx);
  43:c_array.h     **** int mrbc_array_push(mrbc_value *ary, mrbc_value *set_val);
  44:c_array.h     **** mrbc_value mrbc_array_pop(mrbc_value *ary);
  45:c_array.h     **** int mrbc_array_unshift(mrbc_value *ary, mrbc_value *set_val);
  46:c_array.h     **** mrbc_value mrbc_array_shift(mrbc_value *ary);
  47:c_array.h     **** int mrbc_array_insert(mrbc_value *ary, int idx, mrbc_value *set_val);
  48:c_array.h     **** mrbc_value mrbc_array_remove(mrbc_value *ary, int idx);
  49:c_array.h     **** void mrbc_array_clear(mrbc_value *ary);
  50:c_array.h     **** int mrbc_array_compare(const mrbc_value *v1, const mrbc_value *v2);
  51:c_array.h     **** void mrbc_array_minmax(mrbc_value *ary, mrbc_value **pp_min_value, mrbc_value **pp_max_value);
  52:c_array.h     **** void mrbc_init_class_array(struct VM *vm);
  53:c_array.h     **** 
  54:c_array.h     **** 
  55:c_array.h     **** //================================================================
  56:c_array.h     **** /*! get size
  57:c_array.h     **** */
  58:c_array.h     **** static inline int mrbc_array_size(const mrbc_value *ary)
  59:c_array.h     **** {
  60:c_array.h     ****   return ary->array->n_stored;
 1671              		.loc 5 60 0 discriminator 1
 1672 0122 A368     		ldr	r3, [r4, #8]
 1673 0124 DB88     		ldrh	r3, [r3, #6]
 1674              	.LVL238:
 1675              	.LBE203:
 1676              	.LBE202:
  79:class.c       ****       if( i != 0 ) console_print(", ");
 1677              		.loc 1 79 0 discriminator 1
 1678 0126 9D42     		cmp	r5, r3
 1679 0128 ECDB     		blt	.L123
 1680 012a 0CA9     		add	r1, sp, #48
 1681 012c 5D23     		movs	r3, #93
 1682 012e 01F82C3D 		strb	r3, [r1, #-44]!
 1683              	.LVL239:
ARM GAS  C:\Users\164\AppData\Local\Temp\ccvDnxKa.s 			page 59


 1684              	.LBB204:
 1685              	.LBB205:
  64:console.h     **** }
 1686              		.loc 2 64 0
 1687 0132 0122     		movs	r2, #1
 1688 0134 1046     		mov	r0, r2
 1689 0136 FFF7FEFF 		bl	hal_write
 1690              	.LVL240:
 1691              	.LBE205:
 1692              	.LBE204:
 1693              	.LBE196:
  48:class.c       **** 
 1694              		.loc 1 48 0
 1695 013a 0020     		movs	r0, #0
 1696 013c 78E0     		b	.L108
 1697              	.LVL241:
 1698              	.L118:
 1699              	.LBB206:
 1700              	.LBB207:
 1701              		.file 6 "c_string.h"
   1:c_string.h    **** /*! @file
   2:c_string.h    ****   @brief
   3:c_string.h    ****   mruby/c String object
   4:c_string.h    **** 
   5:c_string.h    ****   <pre>
   6:c_string.h    ****   Copyright (C) 2015-2018 Kyushu Institute of Technology.
   7:c_string.h    ****   Copyright (C) 2015-2018 Shimane IT Open-Innovation Center.
   8:c_string.h    **** 
   9:c_string.h    ****   This file is distributed under BSD 3-Clause License.
  10:c_string.h    **** 
  11:c_string.h    ****   </pre>
  12:c_string.h    **** */
  13:c_string.h    **** 
  14:c_string.h    **** #ifndef MRBC_SRC_C_STRING_H_
  15:c_string.h    **** #define MRBC_SRC_C_STRING_H_
  16:c_string.h    **** 
  17:c_string.h    **** #include <stdint.h>
  18:c_string.h    **** #include <string.h>
  19:c_string.h    **** #include "value.h"
  20:c_string.h    **** 
  21:c_string.h    **** #ifdef __cplusplus
  22:c_string.h    **** extern "C" {
  23:c_string.h    **** #endif
  24:c_string.h    **** 
  25:c_string.h    **** //================================================================
  26:c_string.h    **** /*!@brief
  27:c_string.h    ****   Define String handle.
  28:c_string.h    **** */
  29:c_string.h    **** typedef struct RString {
  30:c_string.h    ****   MRBC_OBJECT_HEADER;
  31:c_string.h    **** 
  32:c_string.h    ****   uint16_t size;	//!< string length.
  33:c_string.h    ****   uint8_t *data;	//!< pointer to allocated buffer.
  34:c_string.h    **** 
  35:c_string.h    **** } mrbc_string;
  36:c_string.h    **** 
  37:c_string.h    **** 
ARM GAS  C:\Users\164\AppData\Local\Temp\ccvDnxKa.s 			page 60


  38:c_string.h    **** mrbc_value mrbc_string_new(struct VM *vm, const void *src, int len);
  39:c_string.h    **** mrbc_value mrbc_string_new_cstr(struct VM *vm, const char *src);
  40:c_string.h    **** mrbc_value mrbc_string_new_alloc(struct VM *vm, void *buf, int len);
  41:c_string.h    **** void mrbc_string_delete(mrbc_value *str);
  42:c_string.h    **** void mrbc_string_clear_vm_id(mrbc_value *str);
  43:c_string.h    **** mrbc_value mrbc_string_dup(struct VM *vm, mrbc_value *s1);
  44:c_string.h    **** mrbc_value mrbc_string_add(struct VM *vm, const mrbc_value *s1, const mrbc_value *s2);
  45:c_string.h    **** int mrbc_string_append(mrbc_value *s1, const mrbc_value *s2);
  46:c_string.h    **** int mrbc_string_append_cstr(mrbc_value *s1, const char *s2);
  47:c_string.h    **** int mrbc_string_index(const mrbc_value *src, const mrbc_value *pattern, int offset);
  48:c_string.h    **** int mrbc_string_strip(mrbc_value *src, int mode);
  49:c_string.h    **** int mrbc_string_chomp(mrbc_value *src);
  50:c_string.h    **** void mrbc_init_class_string(struct VM *vm);
  51:c_string.h    **** 
  52:c_string.h    **** 
  53:c_string.h    **** //================================================================
  54:c_string.h    **** /*! compare
  55:c_string.h    **** */
  56:c_string.h    **** static inline int mrbc_string_compare(const mrbc_value *v1, const mrbc_value *v2)
  57:c_string.h    **** {
  58:c_string.h    ****   int len = (v1->string->size < v2->string->size) ?
  59:c_string.h    ****     v1->string->size : v2->string->size;
  60:c_string.h    **** 
  61:c_string.h    ****   int res = memcmp(v1->string->data, v2->string->data, len);
  62:c_string.h    ****   if( res != 0 ) return res;
  63:c_string.h    **** 
  64:c_string.h    ****   return v1->string->size - v2->string->size;
  65:c_string.h    **** }
  66:c_string.h    **** 
  67:c_string.h    **** //================================================================
  68:c_string.h    **** /*! get size
  69:c_string.h    **** */
  70:c_string.h    **** static inline int mrbc_string_size(const mrbc_value *str)
  71:c_string.h    **** {
  72:c_string.h    ****   return str->string->size;
  73:c_string.h    **** }
  74:c_string.h    **** 
  75:c_string.h    **** //================================================================
  76:c_string.h    **** /*! get c-language string (char *)
  77:c_string.h    **** */
  78:c_string.h    **** static inline char * mrbc_string_cstr(const mrbc_value *v)
  79:c_string.h    **** {
  80:c_string.h    ****   return (char*)v->string->data;
 1702              		.loc 6 80 0
 1703 013e 8368     		ldr	r3, [r0, #8]
 1704              	.LVL242:
 1705              	.LBE207:
 1706              	.LBE206:
 1707              	.LBB208:
 1708              	.LBB209:
  87:console.h     **** }
 1709              		.loc 2 87 0
 1710 0140 9A88     		ldrh	r2, [r3, #4]
 1711 0142 9968     		ldr	r1, [r3, #8]
 1712 0144 0120     		movs	r0, #1
 1713              	.LVL243:
 1714 0146 FFF7FEFF 		bl	hal_write
ARM GAS  C:\Users\164\AppData\Local\Temp\ccvDnxKa.s 			page 61


 1715              	.LVL244:
 1716              	.LBE209:
 1717              	.LBE208:
 1718              	.LBB210:
 1719              	.LBB211:
  72:c_string.h    **** }
 1720              		.loc 6 72 0
 1721 014a A268     		ldr	r2, [r4, #8]
 1722 014c 9388     		ldrh	r3, [r2, #4]
 1723              	.LVL245:
 1724              	.LBE211:
 1725              	.LBE210:
  90:class.c       **** 	mrbc_string_cstr(v)[ mrbc_string_size(v) - 1 ] == '\n' ) ret = 1;
 1726              		.loc 1 90 0
 1727 014e 002B     		cmp	r3, #0
 1728 0150 6BD0     		beq	.L129
 1729              	.LVL246:
 1730              	.LBB212:
 1731              	.LBB213:
 1732              		.loc 6 80 0
 1733 0152 9268     		ldr	r2, [r2, #8]
 1734              	.LVL247:
 1735              	.LBE213:
 1736              	.LBE212:
  91:class.c       ****     break;
 1737              		.loc 1 91 0
 1738 0154 013B     		subs	r3, r3, #1
 1739 0156 D35C     		ldrb	r3, [r2, r3]	@ zero_extendqisi2
  90:class.c       **** 	mrbc_string_cstr(v)[ mrbc_string_size(v) - 1 ] == '\n' ) ret = 1;
 1740              		.loc 1 90 0
 1741 0158 0A2B     		cmp	r3, #10
 1742 015a 68D0     		beq	.L130
  48:class.c       **** 
 1743              		.loc 1 48 0
 1744 015c 0020     		movs	r0, #0
 1745 015e 67E0     		b	.L108
 1746              	.LVL248:
 1747              	.L119:
 1748              	.LBB214:
 1749              	.LBB215:
 1750              	.LBB216:
 1751              		.file 7 "c_range.h"
   1:c_range.h     **** /*! @file
   2:c_range.h     ****   @brief
   3:c_range.h     ****   mruby/c Range object
   4:c_range.h     **** 
   5:c_range.h     ****   <pre>
   6:c_range.h     ****   Copyright (C) 2015-2018 Kyushu Institute of Technology.
   7:c_range.h     ****   Copyright (C) 2015-2018 Shimane IT Open-Innovation Center.
   8:c_range.h     **** 
   9:c_range.h     ****   This file is distributed under BSD 3-Clause License.
  10:c_range.h     **** 
  11:c_range.h     ****   </pre>
  12:c_range.h     **** */
  13:c_range.h     **** 
  14:c_range.h     **** #ifndef MRBC_SRC_C_RANGE_H_
  15:c_range.h     **** #define MRBC_SRC_C_RANGE_H_
ARM GAS  C:\Users\164\AppData\Local\Temp\ccvDnxKa.s 			page 62


  16:c_range.h     **** 
  17:c_range.h     **** #include <stdint.h>
  18:c_range.h     **** #include "value.h"
  19:c_range.h     **** 
  20:c_range.h     **** #ifdef __cplusplus
  21:c_range.h     **** extern "C" {
  22:c_range.h     **** #endif
  23:c_range.h     **** 
  24:c_range.h     **** //================================================================
  25:c_range.h     **** /*!@brief
  26:c_range.h     ****   Define Range object (same the handles of other objects)
  27:c_range.h     **** */
  28:c_range.h     **** typedef struct RRange {
  29:c_range.h     ****   MRBC_OBJECT_HEADER;
  30:c_range.h     **** 
  31:c_range.h     ****   uint8_t flag_exclude;	// true: exclude the end object, otherwise include.
  32:c_range.h     ****   mrbc_value first;
  33:c_range.h     ****   mrbc_value last;
  34:c_range.h     **** 
  35:c_range.h     **** } mrbc_range;
  36:c_range.h     **** 
  37:c_range.h     **** 
  38:c_range.h     **** mrbc_value mrbc_range_new(struct VM *vm, mrbc_value *first, mrbc_value *last, int flag_exclude);
  39:c_range.h     **** void mrbc_range_delete(mrbc_value *v);
  40:c_range.h     **** void mrbc_range_clear_vm_id(mrbc_value *v);
  41:c_range.h     **** int mrbc_range_compare(const mrbc_value *v1, const mrbc_value *v2);
  42:c_range.h     **** void mrbc_init_class_range(struct VM *vm);
  43:c_range.h     **** 
  44:c_range.h     **** 
  45:c_range.h     **** //================================================================
  46:c_range.h     **** /*! get first value
  47:c_range.h     **** */
  48:c_range.h     **** static inline mrbc_value mrbc_range_first(const mrbc_value *v)
  49:c_range.h     **** {
  50:c_range.h     ****   return v->range->first;
 1752              		.loc 7 50 0
 1753 0160 8368     		ldr	r3, [r0, #8]
 1754 0162 04AD     		add	r5, sp, #16
 1755 0164 0833     		adds	r3, r3, #8
 1756 0166 0FCB     		ldmia	r3, {r0, r1, r2, r3}
 1757              	.LVL249:
 1758 0168 85E80F00 		stmia	r5, {r0, r1, r2, r3}
 1759              	.LVL250:
 1760              	.LBE216:
 1761              	.LBE215:
  97:class.c       ****     console_print( mrbc_range_exclude_end(v) ? "..." : ".." );
 1762              		.loc 1 97 0
 1763 016c 2846     		mov	r0, r5
 1764 016e FFF747FF 		bl	mrbc_print_sub
 1765              	.LVL251:
 1766              	.LBB217:
 1767              	.LBB218:
  51:c_range.h     **** }
  52:c_range.h     **** 
  53:c_range.h     **** //================================================================
  54:c_range.h     **** /*! get last value
  55:c_range.h     **** */
ARM GAS  C:\Users\164\AppData\Local\Temp\ccvDnxKa.s 			page 63


  56:c_range.h     **** static inline mrbc_value mrbc_range_last(const mrbc_value *v)
  57:c_range.h     **** {
  58:c_range.h     ****   return v->range->last;
  59:c_range.h     **** }
  60:c_range.h     **** 
  61:c_range.h     **** //================================================================
  62:c_range.h     **** /*! get exclude_end?
  63:c_range.h     **** */
  64:c_range.h     **** static inline int mrbc_range_exclude_end(const mrbc_value *v)
  65:c_range.h     **** {
  66:c_range.h     ****   return v->range->flag_exclude;
 1768              		.loc 7 66 0
 1769 0172 A368     		ldr	r3, [r4, #8]
 1770 0174 DB78     		ldrb	r3, [r3, #3]	@ zero_extendqisi2
 1771              	.LVL252:
 1772              	.LBE218:
 1773              	.LBE217:
  98:class.c       ****     v1 = mrbc_range_last(v);
 1774              		.loc 1 98 0
 1775 0176 0BB1     		cbz	r3, .L131
 1776 0178 364D     		ldr	r5, .L133+32
 1777 017a 00E0     		b	.L124
 1778              	.L131:
 1779 017c 364D     		ldr	r5, .L133+36
 1780              	.L124:
 1781              	.LVL253:
 1782              	.LBB219:
 1783              	.LBB220:
  75:console.h     **** }
 1784              		.loc 2 75 0 discriminator 4
 1785 017e 2846     		mov	r0, r5
 1786 0180 FFF7FEFF 		bl	strlen
 1787              	.LVL254:
 1788 0184 0246     		mov	r2, r0
 1789 0186 2946     		mov	r1, r5
 1790 0188 0120     		movs	r0, #1
 1791 018a FFF7FEFF 		bl	hal_write
 1792              	.LVL255:
 1793              	.LBE220:
 1794              	.LBE219:
 1795              	.LBB221:
 1796              	.LBB222:
  58:c_range.h     **** }
 1797              		.loc 7 58 0 discriminator 4
 1798 018e A368     		ldr	r3, [r4, #8]
 1799 0190 08AC     		add	r4, sp, #32
 1800              	.LVL256:
 1801 0192 1833     		adds	r3, r3, #24
 1802 0194 0FCB     		ldmia	r3, {r0, r1, r2, r3}
 1803 0196 84E80F00 		stmia	r4, {r0, r1, r2, r3}
 1804              	.LVL257:
 1805              	.LBE222:
 1806              	.LBE221:
  99:class.c       ****     mrbc_print_sub(&v1);
 1807              		.loc 1 99 0 discriminator 4
 1808 019a 04AD     		add	r5, sp, #16
 1809 019c 85E80F00 		stmia	r5, {r0, r1, r2, r3}
ARM GAS  C:\Users\164\AppData\Local\Temp\ccvDnxKa.s 			page 64


 100:class.c       ****   } break;
 1810              		.loc 1 100 0 discriminator 4
 1811 01a0 2846     		mov	r0, r5
 1812 01a2 FFF72DFF 		bl	mrbc_print_sub
 1813              	.LVL258:
 1814              	.LBE214:
  48:class.c       **** 
 1815              		.loc 1 48 0 discriminator 4
 1816 01a6 0020     		movs	r0, #0
 101:class.c       **** 
 1817              		.loc 1 101 0 discriminator 4
 1818 01a8 42E0     		b	.L108
 1819              	.LVL259:
 1820              	.L120:
 1821 01aa 0CA9     		add	r1, sp, #48
 1822 01ac 7B23     		movs	r3, #123
 1823 01ae 01F82D3D 		strb	r3, [r1, #-45]!
 1824              	.LVL260:
 1825              	.LBB223:
 1826              	.LBB224:
 1827              	.LBB225:
  64:console.h     **** }
 1828              		.loc 2 64 0
 1829 01b2 0122     		movs	r2, #1
 1830 01b4 1046     		mov	r0, r2
 1831              	.LVL261:
 1832 01b6 FFF7FEFF 		bl	hal_write
 1833              	.LVL262:
 1834              	.LBE225:
 1835              	.LBE224:
 1836              	.LBB226:
 1837              	.LBB227:
 1838              		.file 8 "c_hash.h"
   1:c_hash.h      **** /*! @file
   2:c_hash.h      ****   @brief
   3:c_hash.h      ****   mruby/c Hash class
   4:c_hash.h      **** 
   5:c_hash.h      ****   <pre>
   6:c_hash.h      ****   Copyright (C) 2015-2018 Kyushu Institute of Technology.
   7:c_hash.h      ****   Copyright (C) 2015-2018 Shimane IT Open-Innovation Center.
   8:c_hash.h      **** 
   9:c_hash.h      ****   This file is distributed under BSD 3-Clause License.
  10:c_hash.h      **** 
  11:c_hash.h      ****   </pre>
  12:c_hash.h      **** */
  13:c_hash.h      **** 
  14:c_hash.h      **** #ifndef MRBC_SRC_C_HASH_H_
  15:c_hash.h      **** #define MRBC_SRC_C_HASH_H_
  16:c_hash.h      **** 
  17:c_hash.h      **** #include "value.h"
  18:c_hash.h      **** #include "c_array.h"
  19:c_hash.h      **** 
  20:c_hash.h      **** #ifdef __cplusplus
  21:c_hash.h      **** extern "C" {
  22:c_hash.h      **** #endif
  23:c_hash.h      **** 
  24:c_hash.h      **** //================================================================
ARM GAS  C:\Users\164\AppData\Local\Temp\ccvDnxKa.s 			page 65


  25:c_hash.h      **** /*!@brief
  26:c_hash.h      ****   Define Hash handle.
  27:c_hash.h      **** */
  28:c_hash.h      **** typedef struct RHash {
  29:c_hash.h      ****   // (NOTE)
  30:c_hash.h      ****   //  Needs to be same members and order as RArray.
  31:c_hash.h      ****   MRBC_OBJECT_HEADER;
  32:c_hash.h      **** 
  33:c_hash.h      ****   uint16_t data_size;	//!< data buffer size.
  34:c_hash.h      ****   uint16_t n_stored;	//!< # of stored.
  35:c_hash.h      ****   mrbc_value *data;	//!< pointer to allocated memory.
  36:c_hash.h      **** 
  37:c_hash.h      ****   // TODO: and other member for search.
  38:c_hash.h      **** 
  39:c_hash.h      **** } mrbc_hash;
  40:c_hash.h      **** 
  41:c_hash.h      **** 
  42:c_hash.h      **** //================================================================
  43:c_hash.h      **** /*!@brief
  44:c_hash.h      ****   Define Hash iterator.
  45:c_hash.h      **** */
  46:c_hash.h      **** typedef struct RHashIterator {
  47:c_hash.h      ****   mrbc_hash *target;
  48:c_hash.h      ****   mrbc_value *point;
  49:c_hash.h      ****   mrbc_value *p_end;
  50:c_hash.h      **** } mrbc_hash_iterator;
  51:c_hash.h      **** 
  52:c_hash.h      **** 
  53:c_hash.h      **** mrbc_value mrbc_hash_new(struct VM *vm, int size);
  54:c_hash.h      **** void mrbc_hash_delete(mrbc_value *hash);
  55:c_hash.h      **** mrbc_value *mrbc_hash_search(const mrbc_value *hash, const mrbc_value *key);
  56:c_hash.h      **** int mrbc_hash_set(mrbc_value *hash, mrbc_value *key, mrbc_value *val);
  57:c_hash.h      **** mrbc_value mrbc_hash_get(mrbc_value *hash, mrbc_value *key);
  58:c_hash.h      **** mrbc_value mrbc_hash_remove(mrbc_value *hash, mrbc_value *key);
  59:c_hash.h      **** void mrbc_hash_clear(mrbc_value *hash);
  60:c_hash.h      **** int mrbc_hash_compare(const mrbc_value *v1, const mrbc_value *v2);
  61:c_hash.h      **** mrbc_value mrbc_hash_dup(struct VM *vm, mrbc_value *src);
  62:c_hash.h      **** void mrbc_init_class_hash(struct VM *vm);
  63:c_hash.h      **** 
  64:c_hash.h      **** 
  65:c_hash.h      **** 
  66:c_hash.h      **** //================================================================
  67:c_hash.h      **** /*! get size
  68:c_hash.h      **** */
  69:c_hash.h      **** static inline int mrbc_hash_size(const mrbc_value *hash) {
  70:c_hash.h      ****   return hash->hash->n_stored / 2;
  71:c_hash.h      **** }
  72:c_hash.h      **** 
  73:c_hash.h      **** //================================================================
  74:c_hash.h      **** /*! clear vm_id
  75:c_hash.h      **** */
  76:c_hash.h      **** static inline void mrbc_hash_clear_vm_id(mrbc_value *hash) {
  77:c_hash.h      ****   mrbc_array_clear_vm_id(hash);
  78:c_hash.h      **** }
  79:c_hash.h      **** 
  80:c_hash.h      **** //================================================================
  81:c_hash.h      **** /*! resize buffer
ARM GAS  C:\Users\164\AppData\Local\Temp\ccvDnxKa.s 			page 66


  82:c_hash.h      **** */
  83:c_hash.h      **** static inline int mrbc_hash_resize(mrbc_value *hash, int size)
  84:c_hash.h      **** {
  85:c_hash.h      ****   return mrbc_array_resize(hash, size * 2);
  86:c_hash.h      **** }
  87:c_hash.h      **** 
  88:c_hash.h      **** 
  89:c_hash.h      **** //================================================================
  90:c_hash.h      **** /*! iterator constructor
  91:c_hash.h      **** */
  92:c_hash.h      **** static inline mrbc_hash_iterator mrbc_hash_iterator_new( mrbc_value *v )
  93:c_hash.h      **** {
  94:c_hash.h      ****   mrbc_hash_iterator ite;
  95:c_hash.h      ****   ite.target = v->hash;
 1839              		.loc 8 95 0
 1840 01ba A268     		ldr	r2, [r4, #8]
 1841 01bc 0492     		str	r2, [sp, #16]
  96:c_hash.h      ****   ite.point = v->hash->data;
 1842              		.loc 8 96 0
 1843 01be 9368     		ldr	r3, [r2, #8]
 1844 01c0 0593     		str	r3, [sp, #20]
  97:c_hash.h      ****   ite.p_end = ite.point + v->hash->n_stored;
 1845              		.loc 8 97 0
 1846 01c2 D688     		ldrh	r6, [r2, #6]
 1847 01c4 03EB0616 		add	r6, r3, r6, lsl #4
 1848 01c8 0696     		str	r6, [sp, #24]
  98:c_hash.h      **** 
  99:c_hash.h      ****   return ite;
 1849              		.loc 8 99 0
 1850 01ca 01AB     		add	r3, sp, #4
 1851 01cc 04AA     		add	r2, sp, #16
 1852 01ce 07CA     		ldmia	r2, {r0, r1, r2}
 1853 01d0 83E80700 		stmia	r3, {r0, r1, r2}
 1854 01d4 15E0     		b	.L126
 1855              	.LVL263:
 1856              	.L127:
 1857              	.LBE227:
 1858              	.LBE226:
 1859              	.LBB228:
 1860              	.LBB229:
 1861              	.LBB230:
 100:c_hash.h      **** }
 101:c_hash.h      **** 
 102:c_hash.h      **** //================================================================
 103:c_hash.h      **** /*! iterator has_next?
 104:c_hash.h      **** */
 105:c_hash.h      **** static inline int mrbc_hash_i_has_next( mrbc_hash_iterator *ite )
 106:c_hash.h      **** {
 107:c_hash.h      ****   return ite->point < ite->p_end;
 108:c_hash.h      **** }
 109:c_hash.h      **** 
 110:c_hash.h      **** //================================================================
 111:c_hash.h      **** /*! iterator getter
 112:c_hash.h      **** */
 113:c_hash.h      **** static inline mrbc_value *mrbc_hash_i_next( mrbc_hash_iterator *ite )
 114:c_hash.h      **** {
 115:c_hash.h      ****   mrbc_value *ret = ite->point;
ARM GAS  C:\Users\164\AppData\Local\Temp\ccvDnxKa.s 			page 67


 116:c_hash.h      ****   ite->point += 2;
 1862              		.loc 8 116 0
 1863 01d6 04F12005 		add	r5, r4, #32
 1864 01da 0295     		str	r5, [sp, #8]
 1865              	.LVL264:
 1866              	.LBE230:
 1867              	.LBE229:
 108:class.c       ****       console_print("=>");
 1868              		.loc 1 108 0
 1869 01dc 2046     		mov	r0, r4
 1870 01de FFF7FEFF 		bl	mrbc_p_sub
 1871              	.LVL265:
 1872              	.LBB231:
 1873              	.LBB232:
  75:console.h     **** }
 1874              		.loc 2 75 0
 1875 01e2 0222     		movs	r2, #2
 1876 01e4 1D49     		ldr	r1, .L133+40
 1877 01e6 0120     		movs	r0, #1
 1878 01e8 FFF7FEFF 		bl	hal_write
 1879              	.LVL266:
 1880              	.LBE232:
 1881              	.LBE231:
 110:class.c       ****       if( mrbc_hash_i_has_next(&ite) ) console_print(", ");
 1882              		.loc 1 110 0
 1883 01ec 04F11000 		add	r0, r4, #16
 1884 01f0 FFF7FEFF 		bl	mrbc_p_sub
 1885              	.LVL267:
 111:class.c       ****     }
 1886              		.loc 1 111 0
 1887 01f4 AE42     		cmp	r6, r5
 1888 01f6 04D9     		bls	.L126
 1889              	.LVL268:
 1890              	.LBB233:
 1891              	.LBB234:
  75:console.h     **** }
 1892              		.loc 2 75 0
 1893 01f8 0222     		movs	r2, #2
 1894 01fa 1549     		ldr	r1, .L133+28
 1895 01fc 0120     		movs	r0, #1
 1896 01fe FFF7FEFF 		bl	hal_write
 1897              	.LVL269:
 1898              	.L126:
 1899              	.LBE234:
 1900              	.LBE233:
 1901              	.LBE228:
 1902              	.LBB235:
 1903              	.LBB236:
 107:c_hash.h      **** }
 1904              		.loc 8 107 0
 1905 0202 029C     		ldr	r4, [sp, #8]
 1906              	.LVL270:
 1907              	.LBE236:
 1908              	.LBE235:
 106:class.c       ****       mrbc_value *vk = mrbc_hash_i_next(&ite);
 1909              		.loc 1 106 0
 1910 0204 B442     		cmp	r4, r6
ARM GAS  C:\Users\164\AppData\Local\Temp\ccvDnxKa.s 			page 68


 1911 0206 E6D3     		bcc	.L127
 1912 0208 0CA9     		add	r1, sp, #48
 1913 020a 7D23     		movs	r3, #125
 1914 020c 01F8203D 		strb	r3, [r1, #-32]!
 1915              	.LVL271:
 1916              	.LBB237:
 1917              	.LBB238:
  64:console.h     **** }
 1918              		.loc 2 64 0
 1919 0210 0122     		movs	r2, #1
 1920 0212 1046     		mov	r0, r2
 1921 0214 FFF7FEFF 		bl	hal_write
 1922              	.LVL272:
 1923              	.LBE238:
 1924              	.LBE237:
 1925              	.LBE223:
  48:class.c       **** 
 1926              		.loc 1 48 0
 1927 0218 0020     		movs	r0, #0
 114:class.c       **** 
 1928              		.loc 1 114 0
 1929 021a 09E0     		b	.L108
 1930              	.LVL273:
 1931              	.L105:
 117:class.c       ****     break;
 1932              		.loc 1 117 0
 1933 021c 1048     		ldr	r0, .L133+44
 1934              	.LVL274:
 1935 021e FFF7FEFF 		bl	console_printf
 1936              	.LVL275:
  48:class.c       **** 
 1937              		.loc 1 48 0
 1938 0222 0020     		movs	r0, #0
 118:class.c       ****   }
 1939              		.loc 1 118 0
 1940 0224 04E0     		b	.L108
 1941              	.LVL276:
 1942              	.L128:
  48:class.c       **** 
 1943              		.loc 1 48 0
 1944 0226 0020     		movs	r0, #0
 1945              	.LVL277:
 1946 0228 02E0     		b	.L108
 1947              	.L129:
 1948 022a 0020     		movs	r0, #0
 1949 022c 00E0     		b	.L108
 1950              	.L130:
  91:class.c       ****     break;
 1951              		.loc 1 91 0
 1952 022e 0120     		movs	r0, #1
 1953              	.LVL278:
 1954              	.L108:
 122:class.c       **** 
 1955              		.loc 1 122 0
 1956 0230 0CB0     		add	sp, sp, #48
 1957              		.cfi_def_cfa_offset 16
 1958              		@ sp needed
ARM GAS  C:\Users\164\AppData\Local\Temp\ccvDnxKa.s 			page 69


 1959 0232 70BD     		pop	{r4, r5, r6, pc}
 1960              	.L134:
 1961              		.align	2
 1962              	.L133:
 1963 0234 74000000 		.word	.LC10
 1964 0238 04000000 		.word	.LC1
 1965 023c 0C000000 		.word	.LC2
 1966 0240 7C000000 		.word	.LC11
 1967 0244 80000000 		.word	.LC12
 1968 0248 28000000 		.word	.LC5
 1969 024c 84000000 		.word	.LC13
 1970 0250 94000000 		.word	.LC14
 1971 0254 6C000000 		.word	.LC8
 1972 0258 70000000 		.word	.LC9
 1973 025c 98000000 		.word	.LC15
 1974 0260 9C000000 		.word	.LC16
 1975              		.cfi_endproc
 1976              	.LFE95:
 1977              		.size	mrbc_print_sub, .-mrbc_print_sub
 1978              		.section	.text.c_object_print,"ax",%progbits
 1979              		.align	2
 1980              		.thumb
 1981              		.thumb_func
 1982              		.type	c_object_print, %function
 1983              	c_object_print:
 1984              	.LFB107:
 525:class.c       ****   int i;
 1985              		.loc 1 525 0
 1986              		.cfi_startproc
 1987              		@ args = 0, pretend = 0, frame = 0
 1988              		@ frame_needed = 0, uses_anonymous_args = 0
 1989              	.LVL279:
 1990 0000 70B5     		push	{r4, r5, r6, lr}
 1991              		.cfi_def_cfa_offset 16
 1992              		.cfi_offset 4, -16
 1993              		.cfi_offset 5, -12
 1994              		.cfi_offset 6, -8
 1995              		.cfi_offset 14, -4
 1996 0002 0E46     		mov	r6, r1
 1997 0004 1546     		mov	r5, r2
 1998              	.LVL280:
 527:class.c       ****     mrbc_print_sub( &v[i] );
 1999              		.loc 1 527 0
 2000 0006 0124     		movs	r4, #1
 2001 0008 04E0     		b	.L136
 2002              	.LVL281:
 2003              	.L137:
 528:class.c       ****   }
 2004              		.loc 1 528 0 discriminator 3
 2005 000a 06EB0410 		add	r0, r6, r4, lsl #4
 2006 000e FFF7FEFF 		bl	mrbc_print_sub
 2007              	.LVL282:
 527:class.c       ****     mrbc_print_sub( &v[i] );
 2008              		.loc 1 527 0 discriminator 3
 2009 0012 0134     		adds	r4, r4, #1
 2010              	.LVL283:
 2011              	.L136:
ARM GAS  C:\Users\164\AppData\Local\Temp\ccvDnxKa.s 			page 70


 527:class.c       ****     mrbc_print_sub( &v[i] );
 2012              		.loc 1 527 0 is_stmt 0 discriminator 1
 2013 0014 AC42     		cmp	r4, r5
 2014 0016 F8DD     		ble	.L137
 530:class.c       **** 
 2015              		.loc 1 530 0 is_stmt 1
 2016 0018 70BD     		pop	{r4, r5, r6, pc}
 2017              		.cfi_endproc
 2018              	.LFE107:
 2019              		.size	c_object_print, .-c_object_print
 2020 001a 00BF     		.section	.text.mrbc_p_sub,"ax",%progbits
 2021              		.align	2
 2022              		.thumb
 2023              		.thumb_func
 2024              		.type	mrbc_p_sub, %function
 2025              	mrbc_p_sub:
 2026              	.LFB97:
 152:class.c       ****   switch( v->tt ){
 2027              		.loc 1 152 0
 2028              		.cfi_startproc
 2029              		@ args = 0, pretend = 0, frame = 40
 2030              		@ frame_needed = 0, uses_anonymous_args = 0
 2031              	.LVL284:
 2032 0000 70B5     		push	{r4, r5, r6, lr}
 2033              		.cfi_def_cfa_offset 16
 2034              		.cfi_offset 4, -16
 2035              		.cfi_offset 5, -12
 2036              		.cfi_offset 6, -8
 2037              		.cfi_offset 14, -4
 2038 0002 8AB0     		sub	sp, sp, #40
 2039              		.cfi_def_cfa_offset 56
 2040 0004 0546     		mov	r5, r0
 153:class.c       ****   case MRBC_TT_NIL:
 2041              		.loc 1 153 0
 2042 0006 90F90030 		ldrsb	r3, [r0]
 2043 000a 013B     		subs	r3, r3, #1
 2044 000c 172B     		cmp	r3, #23
 2045 000e 73D8     		bhi	.L140
 2046 0010 DFE803F0 		tbb	[pc, r3]
 2047              	.L142:
 2048 0014 0C       		.byte	(.L141-.L142)/2
 2049 0015 72       		.byte	(.L140-.L142)/2
 2050 0016 72       		.byte	(.L140-.L142)/2
 2051 0017 72       		.byte	(.L140-.L142)/2
 2052 0018 72       		.byte	(.L140-.L142)/2
 2053 0019 12       		.byte	(.L143-.L142)/2
 2054 001a 72       		.byte	(.L140-.L142)/2
 2055 001b 72       		.byte	(.L140-.L142)/2
 2056 001c 72       		.byte	(.L140-.L142)/2
 2057 001d 72       		.byte	(.L140-.L142)/2
 2058 001e 72       		.byte	(.L140-.L142)/2
 2059 001f 72       		.byte	(.L140-.L142)/2
 2060 0020 72       		.byte	(.L140-.L142)/2
 2061 0021 72       		.byte	(.L140-.L142)/2
 2062 0022 72       		.byte	(.L140-.L142)/2
 2063 0023 72       		.byte	(.L140-.L142)/2
 2064 0024 72       		.byte	(.L140-.L142)/2
ARM GAS  C:\Users\164\AppData\Local\Temp\ccvDnxKa.s 			page 71


 2065 0025 72       		.byte	(.L140-.L142)/2
 2066 0026 72       		.byte	(.L140-.L142)/2
 2067 0027 72       		.byte	(.L140-.L142)/2
 2068 0028 72       		.byte	(.L140-.L142)/2
 2069 0029 72       		.byte	(.L140-.L142)/2
 2070 002a 22       		.byte	(.L144-.L142)/2
 2071 002b 4E       		.byte	(.L145-.L142)/2
 2072              		.p2align 1
 2073              	.L141:
 2074              	.LVL285:
 2075              	.LBB264:
 2076              	.LBB265:
  75:console.h     **** }
 2077              		.loc 2 75 0
 2078 002c 0322     		movs	r2, #3
 2079 002e 3549     		ldr	r1, .L156
 2080 0030 0120     		movs	r0, #1
 2081              	.LVL286:
 2082 0032 FFF7FEFF 		bl	hal_write
 2083              	.LVL287:
 2084 0036 61E0     		b	.L146
 2085              	.LVL288:
 2086              	.L143:
 2087              	.LBE265:
 2088              	.LBE264:
 2089              	.LBB266:
 2090              	.LBB267:
 2091              	.LBB268:
 2092              		.loc 4 40 0
 2093 0038 B0F90800 		ldrsh	r0, [r0, #8]
 2094              	.LVL289:
 2095 003c FFF7FEFF 		bl	symid_to_str
 2096              	.LVL290:
 2097 0040 0446     		mov	r4, r0
 2098              	.LVL291:
 2099              	.LBE268:
 2100              	.LBE267:
 160:class.c       ****     console_printf(fmt, s);
 2101              		.loc 1 160 0
 2102 0042 3A21     		movs	r1, #58
 2103 0044 FFF7FEFF 		bl	strchr
 2104              	.LVL292:
 2105 0048 08B1     		cbz	r0, .L153
 2106 004a 2F48     		ldr	r0, .L156+4
 2107 004c 00E0     		b	.L147
 2108              	.L153:
 2109 004e 2F48     		ldr	r0, .L156+8
 2110              	.L147:
 2111              	.LVL293:
 161:class.c       ****   } break;
 2112              		.loc 1 161 0 discriminator 4
 2113 0050 2146     		mov	r1, r4
 2114 0052 FFF7FEFF 		bl	console_printf
 2115              	.LVL294:
 2116              	.LBE266:
 162:class.c       **** 
 2117              		.loc 1 162 0 discriminator 4
ARM GAS  C:\Users\164\AppData\Local\Temp\ccvDnxKa.s 			page 72


 2118 0056 51E0     		b	.L146
 2119              	.LVL295:
 2120              	.L144:
 2121 0058 0AA9     		add	r1, sp, #40
 2122 005a 2223     		movs	r3, #34
 2123 005c 01F8223D 		strb	r3, [r1, #-34]!
 2124              	.LVL296:
 2125              	.LBB269:
 2126              	.LBB270:
 2127              	.LBB271:
  64:console.h     **** }
 2128              		.loc 2 64 0
 2129 0060 0122     		movs	r2, #1
 2130 0062 1046     		mov	r0, r2
 2131              	.LVL297:
 2132 0064 FFF7FEFF 		bl	hal_write
 2133              	.LVL298:
 2134              	.LBE271:
 2135              	.LBE270:
 2136              	.LBB272:
 2137              	.LBB273:
 2138              		.loc 6 80 0
 2139 0068 AB68     		ldr	r3, [r5, #8]
 2140 006a 9E68     		ldr	r6, [r3, #8]
 2141              	.LVL299:
 2142              	.LBE273:
 2143              	.LBE272:
 169:class.c       ****       if( s[i] < ' ' || 0x7f <= s[i] ) {	// tiny isprint()
 2144              		.loc 1 169 0
 2145 006c 0024     		movs	r4, #0
 2146 006e 12E0     		b	.L148
 2147              	.LVL300:
 2148              	.L151:
 170:class.c       **** 	console_printf("\\x%02X", s[i]);
 2149              		.loc 1 170 0
 2150 0070 325D     		ldrb	r2, [r6, r4]	@ zero_extendqisi2
 2151 0072 A2F12003 		sub	r3, r2, #32
 2152 0076 DBB2     		uxtb	r3, r3
 2153 0078 5E2B     		cmp	r3, #94
 2154 007a 04D9     		bls	.L149
 171:class.c       ****       } else {
 2155              		.loc 1 171 0
 2156 007c 1146     		mov	r1, r2
 2157 007e 2448     		ldr	r0, .L156+12
 2158 0080 FFF7FEFF 		bl	console_printf
 2159              	.LVL301:
 2160 0084 06E0     		b	.L150
 2161              	.L149:
 2162 0086 0AA9     		add	r1, sp, #40
 2163 0088 01F8212D 		strb	r2, [r1, #-33]!
 2164              	.LVL302:
 2165              	.LBB274:
 2166              	.LBB275:
  64:console.h     **** }
 2167              		.loc 2 64 0
 2168 008c 0122     		movs	r2, #1
 2169 008e 1046     		mov	r0, r2
ARM GAS  C:\Users\164\AppData\Local\Temp\ccvDnxKa.s 			page 73


 2170 0090 FFF7FEFF 		bl	hal_write
 2171              	.LVL303:
 2172              	.L150:
 2173              	.LBE275:
 2174              	.LBE274:
 169:class.c       ****       if( s[i] < ' ' || 0x7f <= s[i] ) {	// tiny isprint()
 2175              		.loc 1 169 0 discriminator 2
 2176 0094 0134     		adds	r4, r4, #1
 2177              	.LVL304:
 2178              	.L148:
 2179              	.LBB276:
 2180              	.LBB277:
  72:c_string.h    **** }
 2181              		.loc 6 72 0 discriminator 1
 2182 0096 AB68     		ldr	r3, [r5, #8]
 2183 0098 9B88     		ldrh	r3, [r3, #4]
 2184              	.LVL305:
 2185              	.LBE277:
 2186              	.LBE276:
 169:class.c       ****       if( s[i] < ' ' || 0x7f <= s[i] ) {	// tiny isprint()
 2187              		.loc 1 169 0 discriminator 1
 2188 009a 9C42     		cmp	r4, r3
 2189 009c E8DB     		blt	.L151
 2190 009e 0AA9     		add	r1, sp, #40
 2191 00a0 2223     		movs	r3, #34
 2192 00a2 01F8203D 		strb	r3, [r1, #-32]!
 2193              	.LVL306:
 2194              	.LBB278:
 2195              	.LBB279:
  64:console.h     **** }
 2196              		.loc 2 64 0
 2197 00a6 0122     		movs	r2, #1
 2198 00a8 1046     		mov	r0, r2
 2199 00aa FFF7FEFF 		bl	hal_write
 2200              	.LVL307:
 2201 00ae 25E0     		b	.L146
 2202              	.LVL308:
 2203              	.L145:
 2204              	.LBE279:
 2205              	.LBE278:
 2206              	.LBE269:
 2207              	.LBB280:
 2208              	.LBB281:
 2209              	.LBB282:
  50:c_range.h     **** }
 2210              		.loc 7 50 0
 2211 00b0 8368     		ldr	r3, [r0, #8]
 2212 00b2 02AC     		add	r4, sp, #8
 2213 00b4 0833     		adds	r3, r3, #8
 2214 00b6 0FCB     		ldmia	r3, {r0, r1, r2, r3}
 2215              	.LVL309:
 2216 00b8 84E80F00 		stmia	r4, {r0, r1, r2, r3}
 2217              	.LVL310:
 2218              	.LBE282:
 2219              	.LBE281:
 182:class.c       ****     console_print( mrbc_range_exclude_end(v) ? "..." : ".." );
 2220              		.loc 1 182 0
ARM GAS  C:\Users\164\AppData\Local\Temp\ccvDnxKa.s 			page 74


 2221 00bc 2046     		mov	r0, r4
 2222 00be FFF79FFF 		bl	mrbc_p_sub
 2223              	.LVL311:
 2224              	.LBB283:
 2225              	.LBB284:
 2226              		.loc 7 66 0
 2227 00c2 AB68     		ldr	r3, [r5, #8]
 2228 00c4 DB78     		ldrb	r3, [r3, #3]	@ zero_extendqisi2
 2229              	.LVL312:
 2230              	.LBE284:
 2231              	.LBE283:
 183:class.c       ****     v1 = mrbc_range_last(v);
 2232              		.loc 1 183 0
 2233 00c6 0BB1     		cbz	r3, .L154
 2234 00c8 124C     		ldr	r4, .L156+16
 2235 00ca 00E0     		b	.L152
 2236              	.L154:
 2237 00cc 124C     		ldr	r4, .L156+20
 2238              	.L152:
 2239              	.LVL313:
 2240              	.LBB285:
 2241              	.LBB286:
  75:console.h     **** }
 2242              		.loc 2 75 0 discriminator 4
 2243 00ce 2046     		mov	r0, r4
 2244 00d0 FFF7FEFF 		bl	strlen
 2245              	.LVL314:
 2246 00d4 0246     		mov	r2, r0
 2247 00d6 2146     		mov	r1, r4
 2248 00d8 0120     		movs	r0, #1
 2249 00da FFF7FEFF 		bl	hal_write
 2250              	.LVL315:
 2251              	.LBE286:
 2252              	.LBE285:
 2253              	.LBB287:
 2254              	.LBB288:
  58:c_range.h     **** }
 2255              		.loc 7 58 0 discriminator 4
 2256 00de AB68     		ldr	r3, [r5, #8]
 2257 00e0 06AC     		add	r4, sp, #24
 2258 00e2 1833     		adds	r3, r3, #24
 2259 00e4 0FCB     		ldmia	r3, {r0, r1, r2, r3}
 2260 00e6 84E80F00 		stmia	r4, {r0, r1, r2, r3}
 2261              	.LVL316:
 2262              	.LBE288:
 2263              	.LBE287:
 184:class.c       ****     mrbc_p_sub(&v1);
 2264              		.loc 1 184 0 discriminator 4
 2265 00ea 02AD     		add	r5, sp, #8
 2266              	.LVL317:
 2267 00ec 85E80F00 		stmia	r5, {r0, r1, r2, r3}
 185:class.c       ****   } break;
 2268              		.loc 1 185 0 discriminator 4
 2269 00f0 2846     		mov	r0, r5
 2270 00f2 FFF785FF 		bl	mrbc_p_sub
 2271              	.LVL318:
 2272              	.LBE280:
ARM GAS  C:\Users\164\AppData\Local\Temp\ccvDnxKa.s 			page 75


 186:class.c       **** 
 2273              		.loc 1 186 0 discriminator 4
 2274 00f6 01E0     		b	.L146
 2275              	.LVL319:
 2276              	.L140:
 189:class.c       ****     break;
 2277              		.loc 1 189 0
 2278 00f8 FFF7FEFF 		bl	mrbc_print_sub
 2279              	.LVL320:
 2280              	.L146:
 194:class.c       **** 
 2281              		.loc 1 194 0
 2282 00fc 0020     		movs	r0, #0
 2283 00fe 0AB0     		add	sp, sp, #40
 2284              		.cfi_def_cfa_offset 16
 2285              		@ sp needed
 2286 0100 70BD     		pop	{r4, r5, r6, pc}
 2287              	.L157:
 2288 0102 00BF     		.align	2
 2289              	.L156:
 2290 0104 00000000 		.word	.LC0
 2291 0108 B8000000 		.word	.LC17
 2292 010c C0000000 		.word	.LC18
 2293 0110 C4000000 		.word	.LC19
 2294 0114 6C000000 		.word	.LC8
 2295 0118 70000000 		.word	.LC9
 2296              		.cfi_endproc
 2297              	.LFE97:
 2298              		.size	mrbc_p_sub, .-mrbc_p_sub
 2299              		.section	.text.mrbc_puts_sub,"ax",%progbits
 2300              		.align	2
 2301              		.thumb
 2302              		.thumb_func
 2303              		.type	mrbc_puts_sub, %function
 2304              	mrbc_puts_sub:
 2305              	.LFB96:
 133:class.c       ****   if( v->tt == MRBC_TT_ARRAY ) {
 2306              		.loc 1 133 0
 2307              		.cfi_startproc
 2308              		@ args = 0, pretend = 0, frame = 24
 2309              		@ frame_needed = 0, uses_anonymous_args = 0
 2310              	.LVL321:
 2311 0000 30B5     		push	{r4, r5, lr}
 2312              		.cfi_def_cfa_offset 12
 2313              		.cfi_offset 4, -12
 2314              		.cfi_offset 5, -8
 2315              		.cfi_offset 14, -4
 2316 0002 87B0     		sub	sp, sp, #28
 2317              		.cfi_def_cfa_offset 40
 2318 0004 0546     		mov	r5, r0
 134:class.c       ****     int i;
 2319              		.loc 1 134 0
 2320 0006 90F90030 		ldrsb	r3, [r0]
 2321 000a 162B     		cmp	r3, #22
 2322 000c 1AD1     		bne	.L165
 2323 000e 12E0     		b	.L164
 2324              	.LVL322:
ARM GAS  C:\Users\164\AppData\Local\Temp\ccvDnxKa.s 			page 76


 2325              	.L162:
 2326              	.LBB289:
 2327              	.LBB290:
 137:class.c       ****       mrbc_value v1 = mrbc_array_get(v, i);
 2328              		.loc 1 137 0
 2329 0010 3CB1     		cbz	r4, .L161
 2330 0012 06A9     		add	r1, sp, #24
 2331 0014 0A23     		movs	r3, #10
 2332 0016 01F8113D 		strb	r3, [r1, #-17]!
 2333              	.LVL323:
 2334              	.LBB291:
 2335              	.LBB292:
  64:console.h     **** }
 2336              		.loc 2 64 0 discriminator 1
 2337 001a 0122     		movs	r2, #1
 2338 001c 1046     		mov	r0, r2
 2339 001e FFF7FEFF 		bl	hal_write
 2340              	.LVL324:
 2341              	.L161:
 2342              	.LBE292:
 2343              	.LBE291:
 138:class.c       ****       mrbc_puts_sub(&v1);
 2344              		.loc 1 138 0 discriminator 2
 2345 0022 2246     		mov	r2, r4
 2346 0024 2946     		mov	r1, r5
 2347 0026 02A8     		add	r0, sp, #8
 2348 0028 FFF7FEFF 		bl	mrbc_array_get
 2349              	.LVL325:
 139:class.c       ****     }
 2350              		.loc 1 139 0 discriminator 2
 2351 002c 02A8     		add	r0, sp, #8
 2352 002e FFF7E7FF 		bl	mrbc_puts_sub
 2353              	.LVL326:
 2354              	.LBE290:
 136:class.c       ****       if( i != 0 ) console_putchar('\n');
 2355              		.loc 1 136 0 discriminator 2
 2356 0032 0134     		adds	r4, r4, #1
 2357              	.LVL327:
 2358 0034 00E0     		b	.L159
 2359              	.LVL328:
 2360              	.L164:
 2361              	.LBE289:
 2362 0036 0024     		movs	r4, #0
 2363              	.LVL329:
 2364              	.L159:
 2365              	.LBB295:
 2366              	.LBB293:
 2367              	.LBB294:
 2368              		.loc 5 60 0 discriminator 1
 2369 0038 AB68     		ldr	r3, [r5, #8]
 2370 003a DB88     		ldrh	r3, [r3, #6]
 2371              	.LVL330:
 2372              	.LBE294:
 2373              	.LBE293:
 136:class.c       ****       if( i != 0 ) console_putchar('\n');
 2374              		.loc 1 136 0 discriminator 1
 2375 003c 9C42     		cmp	r4, r3
ARM GAS  C:\Users\164\AppData\Local\Temp\ccvDnxKa.s 			page 77


 2376 003e E7DB     		blt	.L162
 141:class.c       ****   }
 2377              		.loc 1 141 0
 2378 0040 0020     		movs	r0, #0
 2379 0042 01E0     		b	.L163
 2380              	.LVL331:
 2381              	.L165:
 2382              	.LBE295:
 144:class.c       **** }
 2383              		.loc 1 144 0
 2384 0044 FFF7FEFF 		bl	mrbc_print_sub
 2385              	.LVL332:
 2386              	.L163:
 145:class.c       **** 
 2387              		.loc 1 145 0
 2388 0048 07B0     		add	sp, sp, #28
 2389              		.cfi_def_cfa_offset 12
 2390              		@ sp needed
 2391 004a 30BD     		pop	{r4, r5, pc}
 2392              		.cfi_endproc
 2393              	.LFE96:
 2394              		.size	mrbc_puts_sub, .-mrbc_puts_sub
 2395              		.section	.text.c_object_puts,"ax",%progbits
 2396              		.align	2
 2397              		.thumb
 2398              		.thumb_func
 2399              		.type	c_object_puts, %function
 2400              	c_object_puts:
 2401              	.LFB106:
 509:class.c       ****   int i;
 2402              		.loc 1 509 0
 2403              		.cfi_startproc
 2404              		@ args = 0, pretend = 0, frame = 8
 2405              		@ frame_needed = 0, uses_anonymous_args = 0
 2406              	.LVL333:
 2407 0000 70B5     		push	{r4, r5, r6, lr}
 2408              		.cfi_def_cfa_offset 16
 2409              		.cfi_offset 4, -16
 2410              		.cfi_offset 5, -12
 2411              		.cfi_offset 6, -8
 2412              		.cfi_offset 14, -4
 2413 0002 82B0     		sub	sp, sp, #8
 2414              		.cfi_def_cfa_offset 24
 511:class.c       ****     for( i = 1; i <= argc; i++ ) {
 2415              		.loc 1 511 0
 2416 0004 7AB9     		cbnz	r2, .L173
 2417 0006 14E0     		b	.L174
 2418              	.LVL334:
 2419              	.L171:
 513:class.c       ****     }
 2420              		.loc 1 513 0
 2421 0008 06EB0410 		add	r0, r6, r4, lsl #4
 2422 000c FFF7FEFF 		bl	mrbc_puts_sub
 2423              	.LVL335:
 2424 0010 38B9     		cbnz	r0, .L170
 2425 0012 02A9     		add	r1, sp, #8
 2426 0014 0A23     		movs	r3, #10
ARM GAS  C:\Users\164\AppData\Local\Temp\ccvDnxKa.s 			page 78


 2427 0016 01F8023D 		strb	r3, [r1, #-2]!
 2428              	.LVL336:
 2429              	.LBB296:
 2430              	.LBB297:
  64:console.h     **** }
 2431              		.loc 2 64 0 discriminator 1
 2432 001a 0122     		movs	r2, #1
 2433 001c 1046     		mov	r0, r2
 2434 001e FFF7FEFF 		bl	hal_write
 2435              	.LVL337:
 2436              	.L170:
 2437              	.LBE297:
 2438              	.LBE296:
 512:class.c       ****       if( mrbc_puts_sub( &v[i] ) == 0 ) console_putchar('\n');
 2439              		.loc 1 512 0 discriminator 2
 2440 0022 0134     		adds	r4, r4, #1
 2441              	.LVL338:
 2442 0024 02E0     		b	.L168
 2443              	.LVL339:
 2444              	.L173:
 2445 0026 0E46     		mov	r6, r1
 2446 0028 1546     		mov	r5, r2
 2447 002a 0124     		movs	r4, #1
 2448              	.LVL340:
 2449              	.L168:
 512:class.c       ****       if( mrbc_puts_sub( &v[i] ) == 0 ) console_putchar('\n');
 2450              		.loc 1 512 0 is_stmt 0 discriminator 1
 2451 002c AC42     		cmp	r4, r5
 2452 002e EBDD     		ble	.L171
 2453 0030 07E0     		b	.L167
 2454              	.LVL341:
 2455              	.L174:
 2456 0032 02A9     		add	r1, sp, #8
 2457              	.LVL342:
 2458 0034 0A23     		movs	r3, #10
 2459 0036 01F8013D 		strb	r3, [r1, #-1]!
 2460              	.LVL343:
 2461              	.LBB298:
 2462              	.LBB299:
  64:console.h     **** }
 2463              		.loc 2 64 0 is_stmt 1
 2464 003a 0122     		movs	r2, #1
 2465              	.LVL344:
 2466 003c 1046     		mov	r0, r2
 2467              	.LVL345:
 2468 003e FFF7FEFF 		bl	hal_write
 2469              	.LVL346:
 2470              	.L167:
 2471              	.LBE299:
 2472              	.LBE298:
 518:class.c       **** 
 2473              		.loc 1 518 0
 2474 0042 02B0     		add	sp, sp, #8
 2475              		.cfi_def_cfa_offset 16
 2476              		@ sp needed
 2477 0044 70BD     		pop	{r4, r5, r6, pc}
 2478              		.cfi_endproc
ARM GAS  C:\Users\164\AppData\Local\Temp\ccvDnxKa.s 			page 79


 2479              	.LFE106:
 2480              		.size	c_object_puts, .-c_object_puts
 2481 0046 00BF     		.section	.text.find_method,"ax",%progbits
 2482              		.align	2
 2483              		.global	find_method
 2484              		.thumb
 2485              		.thumb_func
 2486              		.type	find_method, %function
 2487              	find_method:
 2488              	.LFB99:
 245:class.c       ****   mrbc_class *cls = find_class_by_object(vm, recv);
 2489              		.loc 1 245 0
 2490              		.cfi_startproc
 2491              		@ args = 0, pretend = 0, frame = 0
 2492              		@ frame_needed = 0, uses_anonymous_args = 0
 2493              	.LVL347:
 2494 0000 10B5     		push	{r4, lr}
 2495              		.cfi_def_cfa_offset 8
 2496              		.cfi_offset 4, -8
 2497              		.cfi_offset 14, -4
 2498 0002 1446     		mov	r4, r2
 246:class.c       **** 
 2499              		.loc 1 246 0
 2500 0004 FFF7FEFF 		bl	find_class_by_object
 2501              	.LVL348:
 248:class.c       ****     mrbc_proc *proc = cls->procs;
 2502              		.loc 1 248 0
 2503 0008 09E0     		b	.L177
 2504              	.L181:
 2505              	.LBB300:
 249:class.c       ****     while( proc != 0 ) {
 2506              		.loc 1 249 0
 2507 000a 8368     		ldr	r3, [r0, #8]
 2508              	.LVL349:
 250:class.c       ****       if( proc->sym_id == sym_id ) {
 2509              		.loc 1 250 0
 2510 000c 04E0     		b	.L178
 2511              	.L180:
 251:class.c       ****         return proc;
 2512              		.loc 1 251 0
 2513 000e B3F90420 		ldrsh	r2, [r3, #4]
 2514 0012 A242     		cmp	r2, r4
 2515 0014 06D0     		beq	.L182
 254:class.c       ****     }
 2516              		.loc 1 254 0
 2517 0016 9B68     		ldr	r3, [r3, #8]
 2518              	.LVL350:
 2519              	.L178:
 250:class.c       ****       if( proc->sym_id == sym_id ) {
 2520              		.loc 1 250 0
 2521 0018 002B     		cmp	r3, #0
 2522 001a F8D1     		bne	.L180
 256:class.c       ****   }
 2523              		.loc 1 256 0
 2524 001c 4068     		ldr	r0, [r0, #4]
 2525              	.LVL351:
 2526              	.L177:
ARM GAS  C:\Users\164\AppData\Local\Temp\ccvDnxKa.s 			page 80


 2527              	.LBE300:
 248:class.c       ****     mrbc_proc *proc = cls->procs;
 2528              		.loc 1 248 0
 2529 001e 0028     		cmp	r0, #0
 2530 0020 F3D1     		bne	.L181
 2531 0022 10BD     		pop	{r4, pc}
 2532              	.LVL352:
 2533              	.L182:
 2534              	.LBB301:
 252:class.c       ****       }
 2535              		.loc 1 252 0
 2536 0024 1846     		mov	r0, r3
 2537              	.LVL353:
 2538              	.LBE301:
 259:class.c       **** 
 2539              		.loc 1 259 0
 2540 0026 10BD     		pop	{r4, pc}
 2541              		.cfi_endproc
 2542              	.LFE99:
 2543              		.size	find_method, .-find_method
 2544              		.section	.text.mrbc_define_class,"ax",%progbits
 2545              		.align	2
 2546              		.global	mrbc_define_class
 2547              		.thumb
 2548              		.thumb_func
 2549              		.type	mrbc_define_class, %function
 2550              	mrbc_define_class:
 2551              	.LFB100:
 272:class.c       ****   if( super == NULL ) super = mrbc_class_object;  // set default to Object.
 2552              		.loc 1 272 0
 2553              		.cfi_startproc
 2554              		@ args = 0, pretend = 0, frame = 32
 2555              		@ frame_needed = 0, uses_anonymous_args = 0
 2556              	.LVL354:
 2557 0000 70B5     		push	{r4, r5, r6, lr}
 2558              		.cfi_def_cfa_offset 16
 2559              		.cfi_offset 4, -16
 2560              		.cfi_offset 5, -12
 2561              		.cfi_offset 6, -8
 2562              		.cfi_offset 14, -4
 2563 0002 88B0     		sub	sp, sp, #32
 2564              		.cfi_def_cfa_offset 48
 273:class.c       **** 
 2565              		.loc 1 273 0
 2566 0004 1646     		mov	r6, r2
 2567 0006 0AB9     		cbnz	r2, .L185
 273:class.c       **** 
 2568              		.loc 1 273 0 is_stmt 0 discriminator 1
 2569 0008 184B     		ldr	r3, .L191
 2570 000a 1E68     		ldr	r6, [r3]
 2571              	.LVL355:
 2572              	.L185:
 275:class.c       ****   mrbc_object obj = const_object_get(sym_id);
 2573              		.loc 1 275 0 is_stmt 1
 2574 000c 0846     		mov	r0, r1
 2575              	.LVL356:
 2576 000e FFF7FEFF 		bl	str_to_symid
ARM GAS  C:\Users\164\AppData\Local\Temp\ccvDnxKa.s 			page 81


 2577              	.LVL357:
 2578 0012 0546     		mov	r5, r0
 2579              	.LVL358:
 276:class.c       **** 
 2580              		.loc 1 276 0
 2581 0014 0146     		mov	r1, r0
 2582 0016 04A8     		add	r0, sp, #16
 2583              	.LVL359:
 2584 0018 FFF7FEFF 		bl	const_object_get
 2585              	.LVL360:
 279:class.c       ****     mrbc_class *cls = mrbc_alloc( 0, sizeof(mrbc_class) );
 2586              		.loc 1 279 0
 2587 001c 9DF91030 		ldrsb	r3, [sp, #16]
 2588 0020 012B     		cmp	r3, #1
 2589 0022 16D1     		bne	.L186
 2590              	.LBB302:
 280:class.c       ****     if( !cls ) return cls;	// ENOMEM
 2591              		.loc 1 280 0
 2592 0024 0C21     		movs	r1, #12
 2593 0026 0020     		movs	r0, #0
 2594 0028 FFF7FEFF 		bl	mrbc_alloc
 2595              	.LVL361:
 281:class.c       **** 
 2596              		.loc 1 281 0
 2597 002c 0446     		mov	r4, r0
 2598 002e 70B1     		cbz	r0, .L187
 283:class.c       **** #ifdef MRBC_DEBUG
 2599              		.loc 1 283 0
 2600 0030 0580     		strh	r5, [r0]	@ movhi
 287:class.c       ****     cls->procs = 0;
 2601              		.loc 1 287 0
 2602 0032 4660     		str	r6, [r0, #4]
 288:class.c       **** 
 2603              		.loc 1 288 0
 2604 0034 0023     		movs	r3, #0
 2605 0036 8360     		str	r3, [r0, #8]
 291:class.c       ****     v.cls = cls;
 2606              		.loc 1 291 0
 2607 0038 0093     		str	r3, [sp]
 2608 003a 0193     		str	r3, [sp, #4]
 2609 003c 0393     		str	r3, [sp, #12]
 2610 003e 0723     		movs	r3, #7
 2611 0040 8DF80030 		strb	r3, [sp]
 292:class.c       ****     const_object_add(sym_id, &v);
 2612              		.loc 1 292 0
 2613 0044 0290     		str	r0, [sp, #8]
 293:class.c       **** 
 2614              		.loc 1 293 0
 2615 0046 6946     		mov	r1, sp
 2616 0048 2846     		mov	r0, r5
 2617              	.LVL362:
 2618 004a FFF7FEFF 		bl	const_object_add
 2619              	.LVL363:
 2620              	.L187:
 2621 004e 2046     		mov	r0, r4
 2622 0050 0AE0     		b	.L188
 2623              	.LVL364:
ARM GAS  C:\Users\164\AppData\Local\Temp\ccvDnxKa.s 			page 82


 2624              	.L186:
 2625              	.LBE302:
 299:class.c       ****     return obj.cls;
 2626              		.loc 1 299 0
 2627 0052 072B     		cmp	r3, #7
 2628 0054 01D1     		bne	.L189
 300:class.c       ****   }
 2629              		.loc 1 300 0
 2630 0056 0698     		ldr	r0, [sp, #24]
 2631 0058 06E0     		b	.L188
 2632              	.L189:
 305:class.c       **** }
 2633              		.loc 1 305 0
 2634 005a 054B     		ldr	r3, .L191+4
 2635 005c 054A     		ldr	r2, .L191+8
 2636 005e 40F23111 		movw	r1, #305
 2637 0062 0548     		ldr	r0, .L191+12
 2638 0064 FFF7FEFF 		bl	__assert_func
 2639              	.LVL365:
 2640              	.L188:
 306:class.c       **** 
 2641              		.loc 1 306 0 discriminator 1
 2642 0068 08B0     		add	sp, sp, #32
 2643              		.cfi_def_cfa_offset 16
 2644              		@ sp needed
 2645 006a 70BD     		pop	{r4, r5, r6, pc}
 2646              	.LVL366:
 2647              	.L192:
 2648              		.align	2
 2649              	.L191:
 2650 006c 00000000 		.word	mrbc_class_object
 2651 0070 CC000000 		.word	.LC20
 2652 0074 00000000 		.word	.LANCHOR0
 2653 0078 DC000000 		.word	.LC21
 2654              		.cfi_endproc
 2655              	.LFE100:
 2656              		.size	mrbc_define_class, .-mrbc_define_class
 2657              		.section	.text.mrbc_get_class_by_name,"ax",%progbits
 2658              		.align	2
 2659              		.global	mrbc_get_class_by_name
 2660              		.thumb
 2661              		.thumb_func
 2662              		.type	mrbc_get_class_by_name, %function
 2663              	mrbc_get_class_by_name:
 2664              	.LFB101:
 317:class.c       ****   mrbc_sym sym_id = str_to_symid(name);
 2665              		.loc 1 317 0
 2666              		.cfi_startproc
 2667              		@ args = 0, pretend = 0, frame = 16
 2668              		@ frame_needed = 0, uses_anonymous_args = 0
 2669              	.LVL367:
 2670 0000 00B5     		push	{lr}
 2671              		.cfi_def_cfa_offset 4
 2672              		.cfi_offset 14, -4
 2673 0002 85B0     		sub	sp, sp, #20
 2674              		.cfi_def_cfa_offset 24
 318:class.c       ****   mrbc_object obj = const_object_get(sym_id);
ARM GAS  C:\Users\164\AppData\Local\Temp\ccvDnxKa.s 			page 83


 2675              		.loc 1 318 0
 2676 0004 FFF7FEFF 		bl	str_to_symid
 2677              	.LVL368:
 319:class.c       **** 
 2678              		.loc 1 319 0
 2679 0008 0146     		mov	r1, r0
 2680 000a 6846     		mov	r0, sp
 2681              	.LVL369:
 2682 000c FFF7FEFF 		bl	const_object_get
 2683              	.LVL370:
 321:class.c       **** }
 2684              		.loc 1 321 0
 2685 0010 9DF90030 		ldrsb	r3, [sp]
 2686 0014 072B     		cmp	r3, #7
 2687 0016 01D1     		bne	.L195
 321:class.c       **** }
 2688              		.loc 1 321 0 is_stmt 0 discriminator 1
 2689 0018 0298     		ldr	r0, [sp, #8]
 2690 001a 00E0     		b	.L194
 2691              	.L195:
 321:class.c       **** }
 2692              		.loc 1 321 0
 2693 001c 0020     		movs	r0, #0
 2694              	.L194:
 322:class.c       **** 
 2695              		.loc 1 322 0 is_stmt 1 discriminator 4
 2696 001e 05B0     		add	sp, sp, #20
 2697              		.cfi_def_cfa_offset 4
 2698              		@ sp needed
 2699 0020 5DF804FB 		ldr	pc, [sp], #4
 2700              		.cfi_endproc
 2701              	.LFE101:
 2702              		.size	mrbc_get_class_by_name, .-mrbc_get_class_by_name
 2703              		.section	.text.mrbc_define_method,"ax",%progbits
 2704              		.align	2
 2705              		.global	mrbc_define_method
 2706              		.thumb
 2707              		.thumb_func
 2708              		.type	mrbc_define_method, %function
 2709              	mrbc_define_method:
 2710              	.LFB102:
 335:class.c       ****   if( cls == NULL ) cls = mrbc_class_object;	// set default to Object.
 2711              		.loc 1 335 0
 2712              		.cfi_startproc
 2713              		@ args = 0, pretend = 0, frame = 0
 2714              		@ frame_needed = 0, uses_anonymous_args = 0
 2715              	.LVL371:
 2716 0000 38B5     		push	{r3, r4, r5, lr}
 2717              		.cfi_def_cfa_offset 16
 2718              		.cfi_offset 3, -16
 2719              		.cfi_offset 4, -12
 2720              		.cfi_offset 5, -8
 2721              		.cfi_offset 14, -4
 2722 0002 1D46     		mov	r5, r3
 336:class.c       **** 
 2723              		.loc 1 336 0
 2724 0004 0C46     		mov	r4, r1
ARM GAS  C:\Users\164\AppData\Local\Temp\ccvDnxKa.s 			page 84


 2725 0006 09B9     		cbnz	r1, .L198
 336:class.c       **** 
 2726              		.loc 1 336 0 is_stmt 0 discriminator 1
 2727 0008 064B     		ldr	r3, .L200
 2728              	.LVL372:
 2729 000a 1C68     		ldr	r4, [r3]
 2730              	.LVL373:
 2731              	.L198:
 338:class.c       ****   rproc->c_func = 1;  // c-func
 2732              		.loc 1 338 0 is_stmt 1
 2733 000c 1146     		mov	r1, r2
 2734 000e FFF7FEFF 		bl	mrbc_rproc_alloc
 2735              	.LVL374:
 339:class.c       ****   rproc->next = cls->procs;
 2736              		.loc 1 339 0
 2737 0012 C378     		ldrb	r3, [r0, #3]	@ zero_extendqisi2
 2738 0014 43F00103 		orr	r3, r3, #1
 2739 0018 C370     		strb	r3, [r0, #3]
 340:class.c       ****   cls->procs = rproc;
 2740              		.loc 1 340 0
 2741 001a A368     		ldr	r3, [r4, #8]
 2742 001c 8360     		str	r3, [r0, #8]
 341:class.c       ****   rproc->func = cfunc;
 2743              		.loc 1 341 0
 2744 001e A060     		str	r0, [r4, #8]
 342:class.c       **** }
 2745              		.loc 1 342 0
 2746 0020 C560     		str	r5, [r0, #12]
 2747 0022 38BD     		pop	{r3, r4, r5, pc}
 2748              	.LVL375:
 2749              	.L201:
 2750              		.align	2
 2751              	.L200:
 2752 0024 00000000 		.word	mrbc_class_object
 2753              		.cfi_endproc
 2754              	.LFE102:
 2755              		.size	mrbc_define_method, .-mrbc_define_method
 2756              		.section	.text.mrbc_init_class_object,"ax",%progbits
 2757              		.align	2
 2758              		.thumb
 2759              		.thumb_func
 2760              		.type	mrbc_init_class_object, %function
 2761              	mrbc_init_class_object:
 2762              	.LFB120:
 793:class.c       ****   // Class
 2763              		.loc 1 793 0
 2764              		.cfi_startproc
 2765              		@ args = 0, pretend = 0, frame = 0
 2766              		@ frame_needed = 0, uses_anonymous_args = 0
 2767              	.LVL376:
 2768 0000 70B5     		push	{r4, r5, r6, lr}
 2769              		.cfi_def_cfa_offset 16
 2770              		.cfi_offset 4, -16
 2771              		.cfi_offset 5, -12
 2772              		.cfi_offset 6, -8
 2773              		.cfi_offset 14, -4
 2774 0002 0446     		mov	r4, r0
ARM GAS  C:\Users\164\AppData\Local\Temp\ccvDnxKa.s 			page 85


 795:class.c       ****   // Methods
 2775              		.loc 1 795 0
 2776 0004 0022     		movs	r2, #0
 2777 0006 3449     		ldr	r1, .L204
 2778 0008 FFF7FEFF 		bl	mrbc_define_class
 2779              	.LVL377:
 2780 000c 0146     		mov	r1, r0
 2781 000e 334D     		ldr	r5, .L204+4
 2782 0010 2860     		str	r0, [r5]
 797:class.c       ****   mrbc_define_method(vm, mrbc_class_object, "alias_method", c_object_alias_method);
 2783              		.loc 1 797 0
 2784 0012 334B     		ldr	r3, .L204+8
 2785 0014 334A     		ldr	r2, .L204+12
 2786 0016 2046     		mov	r0, r4
 2787 0018 FFF7FEFF 		bl	mrbc_define_method
 2788              	.LVL378:
 798:class.c       ****   mrbc_define_method(vm, mrbc_class_object, "puts", c_object_puts);
 2789              		.loc 1 798 0
 2790 001c 324B     		ldr	r3, .L204+16
 2791 001e 334A     		ldr	r2, .L204+20
 2792 0020 2968     		ldr	r1, [r5]
 2793 0022 2046     		mov	r0, r4
 2794 0024 FFF7FEFF 		bl	mrbc_define_method
 2795              	.LVL379:
 799:class.c       ****   mrbc_define_method(vm, mrbc_class_object, "print", c_object_print);
 2796              		.loc 1 799 0
 2797 0028 314B     		ldr	r3, .L204+24
 2798 002a 324A     		ldr	r2, .L204+28
 2799 002c 2968     		ldr	r1, [r5]
 2800 002e 2046     		mov	r0, r4
 2801 0030 FFF7FEFF 		bl	mrbc_define_method
 2802              	.LVL380:
 800:class.c       ****   mrbc_define_method(vm, mrbc_class_object, "!", c_object_not);
 2803              		.loc 1 800 0
 2804 0034 304B     		ldr	r3, .L204+32
 2805 0036 314A     		ldr	r2, .L204+36
 2806 0038 2968     		ldr	r1, [r5]
 2807 003a 2046     		mov	r0, r4
 2808 003c FFF7FEFF 		bl	mrbc_define_method
 2809              	.LVL381:
 801:class.c       ****   mrbc_define_method(vm, mrbc_class_object, "!=", c_object_neq);
 2810              		.loc 1 801 0
 2811 0040 2F4B     		ldr	r3, .L204+40
 2812 0042 304A     		ldr	r2, .L204+44
 2813 0044 2968     		ldr	r1, [r5]
 2814 0046 2046     		mov	r0, r4
 2815 0048 FFF7FEFF 		bl	mrbc_define_method
 2816              	.LVL382:
 802:class.c       ****   mrbc_define_method(vm, mrbc_class_object, "<=>", c_object_compare);
 2817              		.loc 1 802 0
 2818 004c 2E4B     		ldr	r3, .L204+48
 2819 004e 2F4A     		ldr	r2, .L204+52
 2820 0050 2968     		ldr	r1, [r5]
 2821 0052 2046     		mov	r0, r4
 2822 0054 FFF7FEFF 		bl	mrbc_define_method
 2823              	.LVL383:
 803:class.c       ****   mrbc_define_method(vm, mrbc_class_object, "===", c_object_equal3);
ARM GAS  C:\Users\164\AppData\Local\Temp\ccvDnxKa.s 			page 86


 2824              		.loc 1 803 0
 2825 0058 2D4B     		ldr	r3, .L204+56
 2826 005a 2E4A     		ldr	r2, .L204+60
 2827 005c 2968     		ldr	r1, [r5]
 2828 005e 2046     		mov	r0, r4
 2829 0060 FFF7FEFF 		bl	mrbc_define_method
 2830              	.LVL384:
 804:class.c       ****   mrbc_define_method(vm, mrbc_class_object, "class", c_object_class);
 2831              		.loc 1 804 0
 2832 0064 2C4B     		ldr	r3, .L204+64
 2833 0066 2D4A     		ldr	r2, .L204+68
 2834 0068 2968     		ldr	r1, [r5]
 2835 006a 2046     		mov	r0, r4
 2836 006c FFF7FEFF 		bl	mrbc_define_method
 2837              	.LVL385:
 805:class.c       ****   mrbc_define_method(vm, mrbc_class_object, "new", c_object_new);
 2838              		.loc 1 805 0
 2839 0070 2B4B     		ldr	r3, .L204+72
 2840 0072 2C4A     		ldr	r2, .L204+76
 2841 0074 2968     		ldr	r1, [r5]
 2842 0076 2046     		mov	r0, r4
 2843 0078 FFF7FEFF 		bl	mrbc_define_method
 2844              	.LVL386:
 806:class.c       ****   mrbc_define_method(vm, mrbc_class_object, "attr_reader", c_object_attr_reader);
 2845              		.loc 1 806 0
 2846 007c 2A4B     		ldr	r3, .L204+80
 2847 007e 2B4A     		ldr	r2, .L204+84
 2848 0080 2968     		ldr	r1, [r5]
 2849 0082 2046     		mov	r0, r4
 2850 0084 FFF7FEFF 		bl	mrbc_define_method
 2851              	.LVL387:
 807:class.c       ****   mrbc_define_method(vm, mrbc_class_object, "attr_accessor", c_object_attr_accessor);
 2852              		.loc 1 807 0
 2853 0088 294B     		ldr	r3, .L204+88
 2854 008a 2A4A     		ldr	r2, .L204+92
 2855 008c 2968     		ldr	r1, [r5]
 2856 008e 2046     		mov	r0, r4
 2857 0090 FFF7FEFF 		bl	mrbc_define_method
 2858              	.LVL388:
 808:class.c       ****   mrbc_define_method(vm, mrbc_class_object, "is_a?", c_object_kind_of);
 2859              		.loc 1 808 0
 2860 0094 284B     		ldr	r3, .L204+96
 2861 0096 294A     		ldr	r2, .L204+100
 2862 0098 2968     		ldr	r1, [r5]
 2863 009a 2046     		mov	r0, r4
 2864 009c FFF7FEFF 		bl	mrbc_define_method
 2865              	.LVL389:
 809:class.c       ****   mrbc_define_method(vm, mrbc_class_object, "kind_of?", c_object_kind_of);
 2866              		.loc 1 809 0
 2867 00a0 274E     		ldr	r6, .L204+104
 2868 00a2 3346     		mov	r3, r6
 2869 00a4 274A     		ldr	r2, .L204+108
 2870 00a6 2968     		ldr	r1, [r5]
 2871 00a8 2046     		mov	r0, r4
 2872 00aa FFF7FEFF 		bl	mrbc_define_method
 2873              	.LVL390:
 810:class.c       **** 
ARM GAS  C:\Users\164\AppData\Local\Temp\ccvDnxKa.s 			page 87


 2874              		.loc 1 810 0
 2875 00ae 3346     		mov	r3, r6
 2876 00b0 254A     		ldr	r2, .L204+112
 2877 00b2 2968     		ldr	r1, [r5]
 2878 00b4 2046     		mov	r0, r4
 2879 00b6 FFF7FEFF 		bl	mrbc_define_method
 2880              	.LVL391:
 814:class.c       ****   mrbc_define_method(vm, mrbc_class_object, "to_s", c_object_to_s);
 2881              		.loc 1 814 0
 2882 00ba 244E     		ldr	r6, .L204+116
 2883 00bc 3346     		mov	r3, r6
 2884 00be 244A     		ldr	r2, .L204+120
 2885 00c0 2968     		ldr	r1, [r5]
 2886 00c2 2046     		mov	r0, r4
 2887 00c4 FFF7FEFF 		bl	mrbc_define_method
 2888              	.LVL392:
 815:class.c       **** #endif
 2889              		.loc 1 815 0
 2890 00c8 3346     		mov	r3, r6
 2891 00ca 224A     		ldr	r2, .L204+124
 2892 00cc 2968     		ldr	r1, [r5]
 2893 00ce 2046     		mov	r0, r4
 2894 00d0 FFF7FEFF 		bl	mrbc_define_method
 2895              	.LVL393:
 2896 00d4 70BD     		pop	{r4, r5, r6, pc}
 2897              	.LVL394:
 2898              	.L205:
 2899 00d6 00BF     		.align	2
 2900              	.L204:
 2901 00d8 E4000000 		.word	.LC22
 2902 00dc 00000000 		.word	mrbc_class_object
 2903 00e0 00000000 		.word	c_ineffect
 2904 00e4 EC000000 		.word	.LC23
 2905 00e8 00000000 		.word	c_object_alias_method
 2906 00ec F8000000 		.word	.LC24
 2907 00f0 00000000 		.word	c_object_puts
 2908 00f4 08010000 		.word	.LC25
 2909 00f8 00000000 		.word	c_object_print
 2910 00fc 10010000 		.word	.LC26
 2911 0100 00000000 		.word	c_object_not
 2912 0104 18010000 		.word	.LC27
 2913 0108 00000000 		.word	c_object_neq
 2914 010c 1C010000 		.word	.LC28
 2915 0110 00000000 		.word	c_object_compare
 2916 0114 20010000 		.word	.LC29
 2917 0118 00000000 		.word	c_object_equal3
 2918 011c 24010000 		.word	.LC30
 2919 0120 00000000 		.word	c_object_class
 2920 0124 28010000 		.word	.LC31
 2921 0128 00000000 		.word	c_object_new
 2922 012c 30010000 		.word	.LC32
 2923 0130 00000000 		.word	c_object_attr_reader
 2924 0134 34010000 		.word	.LC33
 2925 0138 00000000 		.word	c_object_attr_accessor
 2926 013c 40010000 		.word	.LC34
 2927 0140 00000000 		.word	c_object_kind_of
 2928 0144 50010000 		.word	.LC35
ARM GAS  C:\Users\164\AppData\Local\Temp\ccvDnxKa.s 			page 88


 2929 0148 58010000 		.word	.LC36
 2930 014c 00000000 		.word	c_object_to_s
 2931 0150 64010000 		.word	.LC37
 2932 0154 6C010000 		.word	.LC38
 2933              		.cfi_endproc
 2934              	.LFE120:
 2935              		.size	mrbc_init_class_object, .-mrbc_init_class_object
 2936              		.section	.text.c_object_attr_accessor,"ax",%progbits
 2937              		.align	2
 2938              		.thumb
 2939              		.thumb_func
 2940              		.type	c_object_attr_accessor, %function
 2941              	c_object_attr_accessor:
 2942              	.LFB117:
 689:class.c       ****   int i;
 2943              		.loc 1 689 0
 2944              		.cfi_startproc
 2945              		@ args = 0, pretend = 0, frame = 16
 2946              		@ frame_needed = 0, uses_anonymous_args = 0
 2947              	.LVL395:
 2948 0000 2DE9F043 		push	{r4, r5, r6, r7, r8, r9, lr}
 2949              		.cfi_def_cfa_offset 28
 2950              		.cfi_offset 4, -28
 2951              		.cfi_offset 5, -24
 2952              		.cfi_offset 6, -20
 2953              		.cfi_offset 7, -16
 2954              		.cfi_offset 8, -12
 2955              		.cfi_offset 9, -8
 2956              		.cfi_offset 14, -4
 2957 0004 85B0     		sub	sp, sp, #20
 2958              		.cfi_def_cfa_offset 48
 2959 0006 8046     		mov	r8, r0
 2960 0008 0D46     		mov	r5, r1
 2961 000a 1646     		mov	r6, r2
 2962              	.LVL396:
 691:class.c       ****     if( v[i].tt != MRBC_TT_SYMBOL ) continue;	// TypeError raise?
 2963              		.loc 1 691 0
 2964 000c 0124     		movs	r4, #1
 2965 000e 30E0     		b	.L207
 2966              	.LVL397:
 2967              	.L210:
 2968              	.LBB303:
 692:class.c       **** 
 2969              		.loc 1 692 0
 2970 0010 2301     		lsls	r3, r4, #4
 2971 0012 EA18     		adds	r2, r5, r3
 2972 0014 EB56     		ldrsb	r3, [r5, r3]
 2973 0016 062B     		cmp	r3, #6
 2974 0018 2AD1     		bne	.L208
 2975              	.LVL398:
 2976              	.LBB304:
 2977              	.LBB305:
 2978              		.loc 4 40 0
 2979 001a B2F90800 		ldrsh	r0, [r2, #8]
 2980 001e FFF7FEFF 		bl	symid_to_str
 2981              	.LVL399:
 2982 0022 8146     		mov	r9, r0
ARM GAS  C:\Users\164\AppData\Local\Temp\ccvDnxKa.s 			page 89


 2983              	.LVL400:
 2984              	.LBE305:
 2985              	.LBE304:
 696:class.c       **** 
 2986              		.loc 1 696 0
 2987 0024 154B     		ldr	r3, .L212
 2988 0026 0246     		mov	r2, r0
 2989 0028 A968     		ldr	r1, [r5, #8]
 2990 002a 4046     		mov	r0, r8
 2991 002c FFF7FEFF 		bl	mrbc_define_method
 2992              	.LVL401:
 699:class.c       ****     if( !namebuf ) return;
 2993              		.loc 1 699 0
 2994 0030 4846     		mov	r0, r9
 2995 0032 FFF7FEFF 		bl	strlen
 2996              	.LVL402:
 2997 0036 811C     		adds	r1, r0, #2
 2998 0038 4046     		mov	r0, r8
 2999 003a FFF7FEFF 		bl	mrbc_alloc
 3000              	.LVL403:
 700:class.c       ****     strcpy(namebuf, name);
 3001              		.loc 1 700 0
 3002 003e 0746     		mov	r7, r0
 3003 0040 C8B1     		cbz	r0, .L206
 701:class.c       ****     strcat(namebuf, "=");
 3004              		.loc 1 701 0
 3005 0042 4946     		mov	r1, r9
 3006 0044 FFF7FEFF 		bl	strcpy
 3007              	.LVL404:
 702:class.c       ****     mrbc_symbol_new(vm, namebuf);
 3008              		.loc 1 702 0
 3009 0048 3846     		mov	r0, r7
 3010 004a FFF7FEFF 		bl	strlen
 3011              	.LVL405:
 3012 004e 0C4B     		ldr	r3, .L212+4
 3013 0050 1B88     		ldrh	r3, [r3]	@ unaligned
 3014 0052 3B52     		strh	r3, [r7, r0]	@ unaligned
 703:class.c       ****     mrbc_define_method(vm, v[0].cls, namebuf, c_object_setiv);
 3015              		.loc 1 703 0
 3016 0054 3A46     		mov	r2, r7
 3017 0056 4146     		mov	r1, r8
 3018 0058 6846     		mov	r0, sp
 3019 005a FFF7FEFF 		bl	mrbc_symbol_new
 3020              	.LVL406:
 704:class.c       ****     mrbc_raw_free(namebuf);
 3021              		.loc 1 704 0
 3022 005e 094B     		ldr	r3, .L212+8
 3023 0060 3A46     		mov	r2, r7
 3024 0062 A968     		ldr	r1, [r5, #8]
 3025 0064 4046     		mov	r0, r8
 3026 0066 FFF7FEFF 		bl	mrbc_define_method
 3027              	.LVL407:
 705:class.c       ****   }
 3028              		.loc 1 705 0
 3029 006a 3846     		mov	r0, r7
 3030 006c FFF7FEFF 		bl	mrbc_raw_free
 3031              	.LVL408:
ARM GAS  C:\Users\164\AppData\Local\Temp\ccvDnxKa.s 			page 90


 3032              	.L208:
 3033              	.LBE303:
 691:class.c       ****     if( v[i].tt != MRBC_TT_SYMBOL ) continue;	// TypeError raise?
 3034              		.loc 1 691 0 discriminator 2
 3035 0070 0134     		adds	r4, r4, #1
 3036              	.LVL409:
 3037              	.L207:
 691:class.c       ****     if( v[i].tt != MRBC_TT_SYMBOL ) continue;	// TypeError raise?
 3038              		.loc 1 691 0 is_stmt 0 discriminator 1
 3039 0072 B442     		cmp	r4, r6
 3040 0074 CCDD     		ble	.L210
 3041              	.L206:
 707:class.c       **** 
 3042              		.loc 1 707 0 is_stmt 1
 3043 0076 05B0     		add	sp, sp, #20
 3044              		.cfi_def_cfa_offset 28
 3045              		@ sp needed
 3046 0078 BDE8F083 		pop	{r4, r5, r6, r7, r8, r9, pc}
 3047              	.LVL410:
 3048              	.L213:
 3049              		.align	2
 3050              	.L212:
 3051 007c 00000000 		.word	c_object_getiv
 3052 0080 74010000 		.word	.LC39
 3053 0084 00000000 		.word	c_object_setiv
 3054              		.cfi_endproc
 3055              	.LFE117:
 3056              		.size	c_object_attr_accessor, .-c_object_attr_accessor
 3057              		.section	.text.c_object_attr_reader,"ax",%progbits
 3058              		.align	2
 3059              		.thumb
 3060              		.thumb_func
 3061              		.type	c_object_attr_reader, %function
 3062              	c_object_attr_reader:
 3063              	.LFB116:
 673:class.c       ****   int i;
 3064              		.loc 1 673 0
 3065              		.cfi_startproc
 3066              		@ args = 0, pretend = 0, frame = 0
 3067              		@ frame_needed = 0, uses_anonymous_args = 0
 3068              	.LVL411:
 3069 0000 F8B5     		push	{r3, r4, r5, r6, r7, lr}
 3070              		.cfi_def_cfa_offset 24
 3071              		.cfi_offset 3, -24
 3072              		.cfi_offset 4, -20
 3073              		.cfi_offset 5, -16
 3074              		.cfi_offset 6, -12
 3075              		.cfi_offset 7, -8
 3076              		.cfi_offset 14, -4
 3077 0002 0746     		mov	r7, r0
 3078 0004 0D46     		mov	r5, r1
 3079 0006 1646     		mov	r6, r2
 3080              	.LVL412:
 675:class.c       ****     if( v[i].tt != MRBC_TT_SYMBOL ) continue;	// TypeError raise?
 3081              		.loc 1 675 0
 3082 0008 0124     		movs	r4, #1
 3083 000a 0FE0     		b	.L215
ARM GAS  C:\Users\164\AppData\Local\Temp\ccvDnxKa.s 			page 91


 3084              	.LVL413:
 3085              	.L217:
 3086              	.LBB306:
 676:class.c       **** 
 3087              		.loc 1 676 0
 3088 000c 2301     		lsls	r3, r4, #4
 3089 000e EA18     		adds	r2, r5, r3
 3090 0010 EB56     		ldrsb	r3, [r5, r3]
 3091 0012 062B     		cmp	r3, #6
 3092 0014 09D1     		bne	.L216
 3093              	.LVL414:
 3094              	.LBB307:
 3095              	.LBB308:
 3096              		.loc 4 40 0
 3097 0016 B2F90800 		ldrsh	r0, [r2, #8]
 3098 001a FFF7FEFF 		bl	symid_to_str
 3099              	.LVL415:
 3100              	.LBE308:
 3101              	.LBE307:
 680:class.c       ****   }
 3102              		.loc 1 680 0
 3103 001e 054B     		ldr	r3, .L219
 3104 0020 0246     		mov	r2, r0
 3105 0022 A968     		ldr	r1, [r5, #8]
 3106 0024 3846     		mov	r0, r7
 3107 0026 FFF7FEFF 		bl	mrbc_define_method
 3108              	.LVL416:
 3109              	.L216:
 3110              	.LBE306:
 675:class.c       ****     if( v[i].tt != MRBC_TT_SYMBOL ) continue;	// TypeError raise?
 3111              		.loc 1 675 0 discriminator 2
 3112 002a 0134     		adds	r4, r4, #1
 3113              	.LVL417:
 3114              	.L215:
 675:class.c       ****     if( v[i].tt != MRBC_TT_SYMBOL ) continue;	// TypeError raise?
 3115              		.loc 1 675 0 is_stmt 0 discriminator 1
 3116 002c B442     		cmp	r4, r6
 3117 002e EDDD     		ble	.L217
 682:class.c       **** 
 3118              		.loc 1 682 0 is_stmt 1
 3119 0030 F8BD     		pop	{r3, r4, r5, r6, r7, pc}
 3120              	.LVL418:
 3121              	.L220:
 3122 0032 00BF     		.align	2
 3123              	.L219:
 3124 0034 00000000 		.word	c_object_getiv
 3125              		.cfi_endproc
 3126              	.LFE116:
 3127              		.size	c_object_attr_reader, .-c_object_attr_reader
 3128              		.section	.text.mrbc_init_class_nil,"ax",%progbits
 3129              		.align	2
 3130              		.thumb
 3131              		.thumb_func
 3132              		.type	mrbc_init_class_nil, %function
 3133              	mrbc_init_class_nil:
 3134              	.LFB127:
 904:class.c       ****   // Class
ARM GAS  C:\Users\164\AppData\Local\Temp\ccvDnxKa.s 			page 92


 3135              		.loc 1 904 0
 3136              		.cfi_startproc
 3137              		@ args = 0, pretend = 0, frame = 0
 3138              		@ frame_needed = 0, uses_anonymous_args = 0
 3139              	.LVL419:
 3140 0000 38B5     		push	{r3, r4, r5, lr}
 3141              		.cfi_def_cfa_offset 16
 3142              		.cfi_offset 3, -16
 3143              		.cfi_offset 4, -12
 3144              		.cfi_offset 5, -8
 3145              		.cfi_offset 14, -4
 3146 0002 0446     		mov	r4, r0
 906:class.c       ****   // Methods
 3147              		.loc 1 906 0
 3148 0004 0C4B     		ldr	r3, .L223
 3149 0006 1A68     		ldr	r2, [r3]
 3150 0008 0C49     		ldr	r1, .L223+4
 3151 000a FFF7FEFF 		bl	mrbc_define_class
 3152              	.LVL420:
 3153 000e 0146     		mov	r1, r0
 3154 0010 0B4D     		ldr	r5, .L223+8
 3155 0012 2860     		str	r0, [r5]
 908:class.c       **** #if MRBC_USE_STRING
 3156              		.loc 1 908 0
 3157 0014 0B4B     		ldr	r3, .L223+12
 3158 0016 0C4A     		ldr	r2, .L223+16
 3159 0018 2046     		mov	r0, r4
 3160 001a FFF7FEFF 		bl	mrbc_define_method
 3161              	.LVL421:
 910:class.c       ****   mrbc_define_method(vm, mrbc_class_nil, "to_s", c_nil_to_s);
 3162              		.loc 1 910 0
 3163 001e 0B4B     		ldr	r3, .L223+20
 3164 0020 0B4A     		ldr	r2, .L223+24
 3165 0022 2968     		ldr	r1, [r5]
 3166 0024 2046     		mov	r0, r4
 3167 0026 FFF7FEFF 		bl	mrbc_define_method
 3168              	.LVL422:
 911:class.c       **** #endif
 3169              		.loc 1 911 0
 3170 002a 0A4B     		ldr	r3, .L223+28
 3171 002c 0A4A     		ldr	r2, .L223+32
 3172 002e 2968     		ldr	r1, [r5]
 3173 0030 2046     		mov	r0, r4
 3174 0032 FFF7FEFF 		bl	mrbc_define_method
 3175              	.LVL423:
 3176 0036 38BD     		pop	{r3, r4, r5, pc}
 3177              	.LVL424:
 3178              	.L224:
 3179              		.align	2
 3180              	.L223:
 3181 0038 00000000 		.word	mrbc_class_object
 3182 003c 78010000 		.word	.LC40
 3183 0040 00000000 		.word	mrbc_class_nil
 3184 0044 00000000 		.word	c_nil_false_not
 3185 0048 18010000 		.word	.LC27
 3186 004c 00000000 		.word	c_nil_inspect
 3187 0050 64010000 		.word	.LC37
ARM GAS  C:\Users\164\AppData\Local\Temp\ccvDnxKa.s 			page 93


 3188 0054 00000000 		.word	c_nil_to_s
 3189 0058 6C010000 		.word	.LC38
 3190              		.cfi_endproc
 3191              	.LFE127:
 3192              		.size	mrbc_init_class_nil, .-mrbc_init_class_nil
 3193              		.section	.text.mrbc_init_class_proc,"ax",%progbits
 3194              		.align	2
 3195              		.thumb
 3196              		.thumb_func
 3197              		.type	mrbc_init_class_proc, %function
 3198              	mrbc_init_class_proc:
 3199              	.LFB123:
 857:class.c       ****   // Class
 3200              		.loc 1 857 0
 3201              		.cfi_startproc
 3202              		@ args = 0, pretend = 0, frame = 0
 3203              		@ frame_needed = 0, uses_anonymous_args = 0
 3204              	.LVL425:
 3205 0000 70B5     		push	{r4, r5, r6, lr}
 3206              		.cfi_def_cfa_offset 16
 3207              		.cfi_offset 4, -16
 3208              		.cfi_offset 5, -12
 3209              		.cfi_offset 6, -8
 3210              		.cfi_offset 14, -4
 3211 0002 0446     		mov	r4, r0
 859:class.c       ****   // Methods
 3212              		.loc 1 859 0
 3213 0004 0D4B     		ldr	r3, .L227
 3214 0006 1A68     		ldr	r2, [r3]
 3215 0008 0D49     		ldr	r1, .L227+4
 3216 000a FFF7FEFF 		bl	mrbc_define_class
 3217              	.LVL426:
 3218 000e 0146     		mov	r1, r0
 3219 0010 0C4D     		ldr	r5, .L227+8
 3220 0012 2860     		str	r0, [r5]
 861:class.c       **** #if MRBC_USE_STRING
 3221              		.loc 1 861 0
 3222 0014 0C4B     		ldr	r3, .L227+12
 3223 0016 0D4A     		ldr	r2, .L227+16
 3224 0018 2046     		mov	r0, r4
 3225 001a FFF7FEFF 		bl	mrbc_define_method
 3226              	.LVL427:
 863:class.c       ****   mrbc_define_method(vm, mrbc_class_proc, "to_s", c_proc_to_s);
 3227              		.loc 1 863 0
 3228 001e 0C4E     		ldr	r6, .L227+20
 3229 0020 3346     		mov	r3, r6
 3230 0022 0C4A     		ldr	r2, .L227+24
 3231 0024 2968     		ldr	r1, [r5]
 3232 0026 2046     		mov	r0, r4
 3233 0028 FFF7FEFF 		bl	mrbc_define_method
 3234              	.LVL428:
 864:class.c       **** #endif
 3235              		.loc 1 864 0
 3236 002c 3346     		mov	r3, r6
 3237 002e 0A4A     		ldr	r2, .L227+28
 3238 0030 2968     		ldr	r1, [r5]
 3239 0032 2046     		mov	r0, r4
ARM GAS  C:\Users\164\AppData\Local\Temp\ccvDnxKa.s 			page 94


 3240 0034 FFF7FEFF 		bl	mrbc_define_method
 3241              	.LVL429:
 3242 0038 70BD     		pop	{r4, r5, r6, pc}
 3243              	.LVL430:
 3244              	.L228:
 3245 003a 00BF     		.align	2
 3246              	.L227:
 3247 003c 00000000 		.word	mrbc_class_object
 3248 0040 84010000 		.word	.LC41
 3249 0044 00000000 		.word	mrbc_class_proc
 3250 0048 00000000 		.word	c_proc_call
 3251 004c 8C010000 		.word	.LC42
 3252 0050 00000000 		.word	c_proc_to_s
 3253 0054 64010000 		.word	.LC37
 3254 0058 6C010000 		.word	.LC38
 3255              		.cfi_endproc
 3256              	.LFE123:
 3257              		.size	mrbc_init_class_proc, .-mrbc_init_class_proc
 3258              		.section	.text.mrbc_init_class_false,"ax",%progbits
 3259              		.align	2
 3260              		.thumb
 3261              		.thumb_func
 3262              		.type	mrbc_init_class_false, %function
 3263              	mrbc_init_class_false:
 3264              	.LFB129:
 934:class.c       ****   // Class
 3265              		.loc 1 934 0
 3266              		.cfi_startproc
 3267              		@ args = 0, pretend = 0, frame = 0
 3268              		@ frame_needed = 0, uses_anonymous_args = 0
 3269              	.LVL431:
 3270 0000 70B5     		push	{r4, r5, r6, lr}
 3271              		.cfi_def_cfa_offset 16
 3272              		.cfi_offset 4, -16
 3273              		.cfi_offset 5, -12
 3274              		.cfi_offset 6, -8
 3275              		.cfi_offset 14, -4
 3276 0002 0446     		mov	r4, r0
 936:class.c       ****   // Methods
 3277              		.loc 1 936 0
 3278 0004 0D4B     		ldr	r3, .L231
 3279 0006 1A68     		ldr	r2, [r3]
 3280 0008 0D49     		ldr	r1, .L231+4
 3281 000a FFF7FEFF 		bl	mrbc_define_class
 3282              	.LVL432:
 3283 000e 0146     		mov	r1, r0
 3284 0010 0C4D     		ldr	r5, .L231+8
 3285 0012 2860     		str	r0, [r5]
 938:class.c       **** #if MRBC_USE_STRING
 3286              		.loc 1 938 0
 3287 0014 0C4B     		ldr	r3, .L231+12
 3288 0016 0D4A     		ldr	r2, .L231+16
 3289 0018 2046     		mov	r0, r4
 3290 001a FFF7FEFF 		bl	mrbc_define_method
 3291              	.LVL433:
 940:class.c       ****   mrbc_define_method(vm, mrbc_class_false, "to_s", c_false_to_s);
 3292              		.loc 1 940 0
ARM GAS  C:\Users\164\AppData\Local\Temp\ccvDnxKa.s 			page 95


 3293 001e 0C4E     		ldr	r6, .L231+20
 3294 0020 3346     		mov	r3, r6
 3295 0022 0C4A     		ldr	r2, .L231+24
 3296 0024 2968     		ldr	r1, [r5]
 3297 0026 2046     		mov	r0, r4
 3298 0028 FFF7FEFF 		bl	mrbc_define_method
 3299              	.LVL434:
 941:class.c       **** #endif
 3300              		.loc 1 941 0
 3301 002c 3346     		mov	r3, r6
 3302 002e 0A4A     		ldr	r2, .L231+28
 3303 0030 2968     		ldr	r1, [r5]
 3304 0032 2046     		mov	r0, r4
 3305 0034 FFF7FEFF 		bl	mrbc_define_method
 3306              	.LVL435:
 3307 0038 70BD     		pop	{r4, r5, r6, pc}
 3308              	.LVL436:
 3309              	.L232:
 3310 003a 00BF     		.align	2
 3311              	.L231:
 3312 003c 00000000 		.word	mrbc_class_object
 3313 0040 94010000 		.word	.LC43
 3314 0044 00000000 		.word	mrbc_class_false
 3315 0048 00000000 		.word	c_nil_false_not
 3316 004c 18010000 		.word	.LC27
 3317 0050 00000000 		.word	c_false_to_s
 3318 0054 64010000 		.word	.LC37
 3319 0058 6C010000 		.word	.LC38
 3320              		.cfi_endproc
 3321              	.LFE129:
 3322              		.size	mrbc_init_class_false, .-mrbc_init_class_false
 3323              		.section	.text.mrbc_init_class_true,"ax",%progbits
 3324              		.align	2
 3325              		.thumb
 3326              		.thumb_func
 3327              		.type	mrbc_init_class_true, %function
 3328              	mrbc_init_class_true:
 3329              	.LFB131:
 961:class.c       ****   // Class
 3330              		.loc 1 961 0
 3331              		.cfi_startproc
 3332              		@ args = 0, pretend = 0, frame = 0
 3333              		@ frame_needed = 0, uses_anonymous_args = 0
 3334              	.LVL437:
 3335 0000 70B5     		push	{r4, r5, r6, lr}
 3336              		.cfi_def_cfa_offset 16
 3337              		.cfi_offset 4, -16
 3338              		.cfi_offset 5, -12
 3339              		.cfi_offset 6, -8
 3340              		.cfi_offset 14, -4
 3341 0002 0446     		mov	r4, r0
 963:class.c       ****   // Methods
 3342              		.loc 1 963 0
 3343 0004 0A4B     		ldr	r3, .L235
 3344 0006 1A68     		ldr	r2, [r3]
 3345 0008 0A49     		ldr	r1, .L235+4
 3346 000a FFF7FEFF 		bl	mrbc_define_class
ARM GAS  C:\Users\164\AppData\Local\Temp\ccvDnxKa.s 			page 96


 3347              	.LVL438:
 3348 000e 0146     		mov	r1, r0
 3349 0010 094D     		ldr	r5, .L235+8
 3350 0012 2860     		str	r0, [r5]
 966:class.c       ****   mrbc_define_method(vm, mrbc_class_true, "to_s", c_true_to_s);
 3351              		.loc 1 966 0
 3352 0014 094E     		ldr	r6, .L235+12
 3353 0016 3346     		mov	r3, r6
 3354 0018 094A     		ldr	r2, .L235+16
 3355 001a 2046     		mov	r0, r4
 3356 001c FFF7FEFF 		bl	mrbc_define_method
 3357              	.LVL439:
 967:class.c       **** #endif
 3358              		.loc 1 967 0
 3359 0020 3346     		mov	r3, r6
 3360 0022 084A     		ldr	r2, .L235+20
 3361 0024 2968     		ldr	r1, [r5]
 3362 0026 2046     		mov	r0, r4
 3363 0028 FFF7FEFF 		bl	mrbc_define_method
 3364              	.LVL440:
 3365 002c 70BD     		pop	{r4, r5, r6, pc}
 3366              	.LVL441:
 3367              	.L236:
 3368 002e 00BF     		.align	2
 3369              	.L235:
 3370 0030 00000000 		.word	mrbc_class_object
 3371 0034 A0010000 		.word	.LC44
 3372 0038 00000000 		.word	mrbc_class_true
 3373 003c 00000000 		.word	c_true_to_s
 3374 0040 64010000 		.word	.LC37
 3375 0044 6C010000 		.word	.LC38
 3376              		.cfi_endproc
 3377              	.LFE131:
 3378              		.size	mrbc_init_class_true, .-mrbc_init_class_true
 3379              		.section	.text.mrbc_funcall,"ax",%progbits
 3380              		.align	2
 3381              		.global	mrbc_funcall
 3382              		.thumb
 3383              		.thumb_func
 3384              		.type	mrbc_funcall, %function
 3385              	mrbc_funcall:
 3386              	.LFB103:
 359:class.c       ****   mrbc_sym sym_id = str_to_symid(name);
 3387              		.loc 1 359 0
 3388              		.cfi_startproc
 3389              		@ args = 0, pretend = 0, frame = 0
 3390              		@ frame_needed = 0, uses_anonymous_args = 0
 3391              	.LVL442:
 3392 0000 38B5     		push	{r3, r4, r5, lr}
 3393              		.cfi_def_cfa_offset 16
 3394              		.cfi_offset 3, -16
 3395              		.cfi_offset 4, -12
 3396              		.cfi_offset 5, -8
 3397              		.cfi_offset 14, -4
 3398 0002 0446     		mov	r4, r0
 3399 0004 1546     		mov	r5, r2
 360:class.c       ****   mrbc_proc *m = find_method(vm, &v[0], sym_id);
ARM GAS  C:\Users\164\AppData\Local\Temp\ccvDnxKa.s 			page 97


 3400              		.loc 1 360 0
 3401 0006 0846     		mov	r0, r1
 3402              	.LVL443:
 3403 0008 FFF7FEFF 		bl	str_to_symid
 3404              	.LVL444:
 361:class.c       **** 
 3405              		.loc 1 361 0
 3406 000c 0246     		mov	r2, r0
 3407 000e 2946     		mov	r1, r5
 3408 0010 2046     		mov	r0, r4
 3409              	.LVL445:
 3410 0012 FFF7FEFF 		bl	find_method
 3411              	.LVL446:
 363:class.c       **** 
 3412              		.loc 1 363 0
 3413 0016 E8B1     		cbz	r0, .L237
 3414 0018 0546     		mov	r5, r0
 3415              	.LVL447:
 365:class.c       ****   callinfo->current_regs = vm->current_regs;
 3416              		.loc 1 365 0
 3417 001a 1821     		movs	r1, #24
 3418 001c 2046     		mov	r0, r4
 3419              	.LVL448:
 3420 001e FFF7FEFF 		bl	mrbc_alloc
 3421              	.LVL449:
 366:class.c       ****   callinfo->pc_irep = vm->pc_irep;
 3422              		.loc 1 366 0
 3423 0022 D4F85836 		ldr	r3, [r4, #1624]
 3424 0026 C360     		str	r3, [r0, #12]
 367:class.c       ****   callinfo->pc = vm->pc;
 3425              		.loc 1 367 0
 3426 0028 E368     		ldr	r3, [r4, #12]
 3427 002a 4360     		str	r3, [r0, #4]
 368:class.c       ****   callinfo->n_args = 0;
 3428              		.loc 1 368 0
 3429 002c 238A     		ldrh	r3, [r4, #16]
 3430 002e 0381     		strh	r3, [r0, #8]	@ movhi
 369:class.c       ****   callinfo->target_class = vm->target_class;
 3431              		.loc 1 369 0
 3432 0030 0023     		movs	r3, #0
 3433 0032 0375     		strb	r3, [r0, #20]
 370:class.c       ****   callinfo->prev = vm->callinfo_tail;
 3434              		.loc 1 370 0
 3435 0034 D4F86026 		ldr	r2, [r4, #1632]
 3436 0038 0261     		str	r2, [r0, #16]
 371:class.c       ****   vm->callinfo_tail = callinfo;
 3437              		.loc 1 371 0
 3438 003a D4F85C26 		ldr	r2, [r4, #1628]
 3439 003e 0260     		str	r2, [r0]
 372:class.c       **** 
 3440              		.loc 1 372 0
 3441 0040 C4F85C06 		str	r0, [r4, #1628]
 375:class.c       ****   vm->pc_irep = m->irep;
 3442              		.loc 1 375 0
 3443 0044 2382     		strh	r3, [r4, #16]	@ movhi
 376:class.c       **** 
 3444              		.loc 1 376 0
ARM GAS  C:\Users\164\AppData\Local\Temp\ccvDnxKa.s 			page 98


 3445 0046 EB68     		ldr	r3, [r5, #12]
 3446 0048 E360     		str	r3, [r4, #12]
 379:class.c       **** 
 3447              		.loc 1 379 0
 3448 004a D4F85836 		ldr	r3, [r4, #1624]
 3449 004e 2033     		adds	r3, r3, #32
 3450 0050 C4F85836 		str	r3, [r4, #1624]
 3451              	.LVL450:
 3452              	.L237:
 3453 0054 38BD     		pop	{r3, r4, r5, pc}
 3454              		.cfi_endproc
 3455              	.LFE103:
 3456              		.size	mrbc_funcall, .-mrbc_funcall
 3457 0056 00BF     		.section	.text.mrbc_send,"ax",%progbits
 3458              		.align	2
 3459              		.global	mrbc_send
 3460              		.thumb
 3461              		.thumb_func
 3462              		.type	mrbc_send, %function
 3463              	mrbc_send:
 3464              	.LFB104:
 407:class.c       ****   mrbc_sym sym_id = str_to_symid(method);
 3465              		.loc 1 407 0
 3466              		.cfi_startproc
 3467              		@ args = 12, pretend = 0, frame = 24
 3468              		@ frame_needed = 0, uses_anonymous_args = 1
 3469              	.LVL451:
 3470 0000 2DE9F04F 		push	{r4, r5, r6, r7, r8, r9, r10, fp, lr}
 3471              		.cfi_def_cfa_offset 36
 3472              		.cfi_offset 4, -36
 3473              		.cfi_offset 5, -32
 3474              		.cfi_offset 6, -28
 3475              		.cfi_offset 7, -24
 3476              		.cfi_offset 8, -20
 3477              		.cfi_offset 9, -16
 3478              		.cfi_offset 10, -12
 3479              		.cfi_offset 11, -8
 3480              		.cfi_offset 14, -4
 3481 0004 87B0     		sub	sp, sp, #28
 3482              		.cfi_def_cfa_offset 64
 3483 0006 8046     		mov	r8, r0
 3484 0008 8946     		mov	r9, r1
 3485 000a 1646     		mov	r6, r2
 3486 000c 1C46     		mov	r4, r3
 3487 000e 129F     		ldr	r7, [sp, #72]
 408:class.c       ****   mrbc_proc *m = find_method(vm, recv, sym_id);
 3488              		.loc 1 408 0
 3489 0010 1198     		ldr	r0, [sp, #68]
 3490              	.LVL452:
 3491 0012 FFF7FEFF 		bl	str_to_symid
 3492              	.LVL453:
 409:class.c       **** 
 3493              		.loc 1 409 0
 3494 0016 0246     		mov	r2, r0
 3495 0018 1099     		ldr	r1, [sp, #64]
 3496 001a 4846     		mov	r0, r9
 3497              	.LVL454:
ARM GAS  C:\Users\164\AppData\Local\Temp\ccvDnxKa.s 			page 99


 3498 001c FFF7FEFF 		bl	find_method
 3499              	.LVL455:
 411:class.c       ****     console_printf("No method. vtype=%d method='%s'\n", recv->tt, method );
 3500              		.loc 1 411 0
 3501 0020 38B9     		cbnz	r0, .L241
 412:class.c       ****     goto ERROR;
 3502              		.loc 1 412 0
 3503 0022 119A     		ldr	r2, [sp, #68]
 3504 0024 109B     		ldr	r3, [sp, #64]
 3505 0026 93F90010 		ldrsb	r1, [r3]
 3506 002a 3248     		ldr	r0, .L250
 3507              	.LVL456:
 3508 002c FFF7FEFF 		bl	console_printf
 3509              	.LVL457:
 413:class.c       ****   }
 3510              		.loc 1 413 0
 3511 0030 4FE0     		b	.L242
 3512              	.LVL458:
 3513              	.L241:
 3514 0032 8246     		mov	r10, r0
 415:class.c       ****     console_printf("Method %s is not C function\n", method );
 3515              		.loc 1 415 0
 3516 0034 C378     		ldrb	r3, [r0, #3]	@ zero_extendqisi2
 3517 0036 13F0010F 		tst	r3, #1
 3518 003a 04D1     		bne	.L243
 416:class.c       ****     goto ERROR;
 3519              		.loc 1 416 0
 3520 003c 1199     		ldr	r1, [sp, #68]
 3521 003e 2E48     		ldr	r0, .L250+4
 3522              	.LVL459:
 3523 0040 FFF7FEFF 		bl	console_printf
 3524              	.LVL460:
 417:class.c       ****   }
 3525              		.loc 1 417 0
 3526 0044 45E0     		b	.L242
 3527              	.LVL461:
 3528              	.L243:
 421:class.c       ****   mrbc_release( &regs[0] );
 3529              		.loc 1 421 0
 3530 0046 0234     		adds	r4, r4, #2
 3531              	.LVL462:
 3532 0048 06EB0416 		add	r6, r6, r4, lsl #4
 3533              	.LVL463:
 422:class.c       ****   regs[0] = *recv;
 3534              		.loc 1 422 0
 3535 004c 3046     		mov	r0, r6
 3536              	.LVL464:
 3537 004e FFF7FEFF 		bl	mrbc_release
 3538              	.LVL465:
 423:class.c       ****   mrbc_dup(recv);
 3539              		.loc 1 423 0
 3540 0052 109B     		ldr	r3, [sp, #64]
 3541 0054 0FCB     		ldmia	r3, {r0, r1, r2, r3}
 3542 0056 86E80F00 		stmia	r6, {r0, r1, r2, r3}
 424:class.c       **** 
 3543              		.loc 1 424 0
 3544 005a 1098     		ldr	r0, [sp, #64]
ARM GAS  C:\Users\164\AppData\Local\Temp\ccvDnxKa.s 			page 100


 3545 005c FFF7FEFF 		bl	mrbc_dup
 3546              	.LVL466:
 427:class.c       ****   int i;
 3547              		.loc 1 427 0
 3548 0060 13AB     		add	r3, sp, #76
 3549 0062 0593     		str	r3, [sp, #20]
 3550              	.LVL467:
 429:class.c       ****     mrbc_release( &regs[i] );
 3551              		.loc 1 429 0
 3552 0064 0124     		movs	r4, #1
 3553              	.LVL468:
 3554 0066 0CE0     		b	.L244
 3555              	.LVL469:
 3556              	.L245:
 430:class.c       ****     regs[i] = *va_arg(ap, mrbc_value *);
 3557              		.loc 1 430 0 discriminator 3
 3558 0068 06EB0415 		add	r5, r6, r4, lsl #4
 3559 006c 2846     		mov	r0, r5
 3560 006e FFF7FEFF 		bl	mrbc_release
 3561              	.LVL470:
 431:class.c       ****   }
 3562              		.loc 1 431 0 discriminator 3
 3563 0072 059B     		ldr	r3, [sp, #20]
 3564 0074 1A1D     		adds	r2, r3, #4
 3565 0076 0592     		str	r2, [sp, #20]
 3566 0078 1968     		ldr	r1, [r3]
 3567 007a 0FC9     		ldmia	r1, {r0, r1, r2, r3}
 3568 007c 85E80F00 		stmia	r5, {r0, r1, r2, r3}
 429:class.c       ****     mrbc_release( &regs[i] );
 3569              		.loc 1 429 0 discriminator 3
 3570 0080 0134     		adds	r4, r4, #1
 3571              	.LVL471:
 3572              	.L244:
 429:class.c       ****     mrbc_release( &regs[i] );
 3573              		.loc 1 429 0 is_stmt 0 discriminator 1
 3574 0082 BC42     		cmp	r4, r7
 3575 0084 F0DD     		ble	.L245
 433:class.c       ****   regs[i] = mrbc_nil_value();
 3576              		.loc 1 433 0 is_stmt 1
 3577 0086 4FEA041B 		lsl	fp, r4, #4
 3578 008a 06EB0B05 		add	r5, r6, fp
 3579 008e 2846     		mov	r0, r5
 3580 0090 FFF7FEFF 		bl	mrbc_release
 3581              	.LVL472:
 434:class.c       ****   va_end(ap);
 3582              		.loc 1 434 0
 3583 0094 0023     		movs	r3, #0
 3584 0096 46F80B30 		str	r3, [r6, fp]
 3585 009a 6B60     		str	r3, [r5, #4]
 3586 009c AB60     		str	r3, [r5, #8]
 3587 009e EB60     		str	r3, [r5, #12]
 3588 00a0 0123     		movs	r3, #1
 3589 00a2 06F80B30 		strb	r3, [r6, fp]
 438:class.c       ****   mrbc_value ret = regs[0];
 3590              		.loc 1 438 0
 3591 00a6 DAF80C30 		ldr	r3, [r10, #12]
 3592 00aa 3A46     		mov	r2, r7
ARM GAS  C:\Users\164\AppData\Local\Temp\ccvDnxKa.s 			page 101


 3593 00ac 3146     		mov	r1, r6
 3594 00ae 4846     		mov	r0, r9
 3595 00b0 9847     		blx	r3
 3596              	.LVL473:
 439:class.c       **** 
 3597              		.loc 1 439 0
 3598 00b2 96E80F00 		ldmia	r6, {r0, r1, r2, r3}
 3599 00b6 8DE80F00 		stmia	sp, {r0, r1, r2, r3}
 441:class.c       ****     regs[i].tt = MRBC_TT_EMPTY;
 3600              		.loc 1 441 0
 3601 00ba 03E0     		b	.L246
 3602              	.L247:
 442:class.c       ****   }
 3603              		.loc 1 442 0 discriminator 2
 3604 00bc 2301     		lsls	r3, r4, #4
 3605 00be 0022     		movs	r2, #0
 3606 00c0 F254     		strb	r2, [r6, r3]
 441:class.c       ****     regs[i].tt = MRBC_TT_EMPTY;
 3607              		.loc 1 441 0 discriminator 2
 3608 00c2 013C     		subs	r4, r4, #1
 3609              	.LVL474:
 3610              	.L246:
 441:class.c       ****     regs[i].tt = MRBC_TT_EMPTY;
 3611              		.loc 1 441 0 is_stmt 0 discriminator 1
 3612 00c4 002C     		cmp	r4, #0
 3613 00c6 F9DA     		bge	.L247
 445:class.c       **** 
 3614              		.loc 1 445 0 is_stmt 1
 3615 00c8 9DE80F00 		ldmia	sp, {r0, r1, r2, r3}
 3616 00cc 88E80F00 		stmia	r8, {r0, r1, r2, r3}
 3617 00d0 0BE0     		b	.L240
 3618              	.LVL475:
 3619              	.L242:
 448:class.c       **** }
 3620              		.loc 1 448 0
 3621 00d2 0023     		movs	r3, #0
 3622 00d4 C8F80030 		str	r3, [r8]
 3623 00d8 C8F80430 		str	r3, [r8, #4]
 3624 00dc C8F80830 		str	r3, [r8, #8]
 3625 00e0 C8F80C30 		str	r3, [r8, #12]
 3626 00e4 0123     		movs	r3, #1
 3627 00e6 88F80030 		strb	r3, [r8]
 3628              	.LVL476:
 3629              	.L240:
 449:class.c       **** 
 3630              		.loc 1 449 0
 3631 00ea 4046     		mov	r0, r8
 3632 00ec 07B0     		add	sp, sp, #28
 3633              		.cfi_def_cfa_offset 36
 3634              		@ sp needed
 3635 00ee BDE8F08F 		pop	{r4, r5, r6, r7, r8, r9, r10, fp, pc}
 3636              	.LVL477:
 3637              	.L251:
 3638 00f2 00BF     		.align	2
 3639              	.L250:
 3640 00f4 AC010000 		.word	.LC45
 3641 00f8 D0010000 		.word	.LC46
ARM GAS  C:\Users\164\AppData\Local\Temp\ccvDnxKa.s 			page 102


 3642              		.cfi_endproc
 3643              	.LFE104:
 3644              		.size	mrbc_send, .-mrbc_send
 3645              		.section	.text.mrbc_init_class,"ax",%progbits
 3646              		.align	2
 3647              		.global	mrbc_init_class
 3648              		.thumb
 3649              		.thumb_func
 3650              		.type	mrbc_init_class, %function
 3651              	mrbc_init_class:
 3652              	.LFB134:
 997:class.c       **** 
 998:class.c       **** 
 999:class.c       **** 
1000:class.c       **** 
1001:class.c       **** //================================================================
1002:class.c       **** // initialize
1003:class.c       **** 
1004:class.c       **** void mrbc_init_class(void)
1005:class.c       **** {
 3653              		.loc 1 1005 0
 3654              		.cfi_startproc
 3655              		@ args = 0, pretend = 0, frame = 0
 3656              		@ frame_needed = 0, uses_anonymous_args = 0
 3657 0000 08B5     		push	{r3, lr}
 3658              		.cfi_def_cfa_offset 8
 3659              		.cfi_offset 3, -8
 3660              		.cfi_offset 14, -4
1006:class.c       ****   mrbc_init_class_object(0);
 3661              		.loc 1 1006 0
 3662 0002 0020     		movs	r0, #0
 3663 0004 FFF7FEFF 		bl	mrbc_init_class_object
 3664              	.LVL478:
1007:class.c       ****   mrbc_init_class_nil(0);
 3665              		.loc 1 1007 0
 3666 0008 0020     		movs	r0, #0
 3667 000a FFF7FEFF 		bl	mrbc_init_class_nil
 3668              	.LVL479:
1008:class.c       ****   mrbc_init_class_proc(0);
 3669              		.loc 1 1008 0
 3670 000e 0020     		movs	r0, #0
 3671 0010 FFF7FEFF 		bl	mrbc_init_class_proc
 3672              	.LVL480:
1009:class.c       ****   mrbc_init_class_false(0);
 3673              		.loc 1 1009 0
 3674 0014 0020     		movs	r0, #0
 3675 0016 FFF7FEFF 		bl	mrbc_init_class_false
 3676              	.LVL481:
1010:class.c       ****   mrbc_init_class_true(0);
 3677              		.loc 1 1010 0
 3678 001a 0020     		movs	r0, #0
 3679 001c FFF7FEFF 		bl	mrbc_init_class_true
 3680              	.LVL482:
1011:class.c       **** 
1012:class.c       ****   mrbc_init_class_fixnum(0);
 3681              		.loc 1 1012 0
 3682 0020 0020     		movs	r0, #0
ARM GAS  C:\Users\164\AppData\Local\Temp\ccvDnxKa.s 			page 103


 3683 0022 FFF7FEFF 		bl	mrbc_init_class_fixnum
 3684              	.LVL483:
1013:class.c       ****   mrbc_init_class_symbol(0);
 3685              		.loc 1 1013 0
 3686 0026 0020     		movs	r0, #0
 3687 0028 FFF7FEFF 		bl	mrbc_init_class_symbol
 3688              	.LVL484:
1014:class.c       **** #if MRBC_USE_FLOAT
1015:class.c       ****   mrbc_init_class_float(0);
 3689              		.loc 1 1015 0
 3690 002c 0020     		movs	r0, #0
 3691 002e FFF7FEFF 		bl	mrbc_init_class_float
 3692              	.LVL485:
1016:class.c       **** #if MRBC_USE_MATH
1017:class.c       ****   mrbc_init_class_math(0);
1018:class.c       **** #endif
1019:class.c       **** #endif
1020:class.c       **** #if MRBC_USE_STRING
1021:class.c       ****   mrbc_init_class_string(0);
 3693              		.loc 1 1021 0
 3694 0032 0020     		movs	r0, #0
 3695 0034 FFF7FEFF 		bl	mrbc_init_class_string
 3696              	.LVL486:
1022:class.c       **** #endif
1023:class.c       ****   mrbc_init_class_array(0);
 3697              		.loc 1 1023 0
 3698 0038 0020     		movs	r0, #0
 3699 003a FFF7FEFF 		bl	mrbc_init_class_array
 3700              	.LVL487:
1024:class.c       ****   mrbc_init_class_range(0);
 3701              		.loc 1 1024 0
 3702 003e 0020     		movs	r0, #0
 3703 0040 FFF7FEFF 		bl	mrbc_init_class_range
 3704              	.LVL488:
1025:class.c       ****   mrbc_init_class_hash(0);
 3705              		.loc 1 1025 0
 3706 0044 0020     		movs	r0, #0
 3707 0046 FFF7FEFF 		bl	mrbc_init_class_hash
 3708              	.LVL489:
1026:class.c       **** 
1027:class.c       ****   mrbc_run_mrblib();
 3709              		.loc 1 1027 0
 3710 004a FFF7FEFF 		bl	mrbc_run_mrblib
 3711              	.LVL490:
 3712 004e 08BD     		pop	{r3, pc}
 3713              		.cfi_endproc
 3714              	.LFE134:
 3715              		.size	mrbc_init_class, .-mrbc_init_class
 3716              		.section	.rodata
 3717              		.align	2
 3718              		.set	.LANCHOR0,. + 0
 3719              		.type	__func__.7379, %object
 3720              		.size	__func__.7379, 18
 3721              	__func__.7379:
 3722 0000 6D726263 		.ascii	"mrbc_define_class\000"
 3722      5F646566 
 3722      696E655F 
ARM GAS  C:\Users\164\AppData\Local\Temp\ccvDnxKa.s 			page 104


 3722      636C6173 
 3722      7300
 3723              		.section	.rodata.str1.4,"aMS",%progbits,1
 3724              		.align	2
 3725              	.LC0:
 3726 0000 6E696C00 		.ascii	"nil\000"
 3727              	.LC1:
 3728 0004 66616C73 		.ascii	"false\000"
 3728      6500
 3729 000a 0000     		.space	2
