ARM GAS  C:\Users\164\AppData\Local\Temp\ccc3r1Kk.s 			page 1


   1              		.syntax unified
   2              		.cpu cortex-m3
   3              		.fpu softvfp
   4              		.eabi_attribute 20, 1
   5              		.eabi_attribute 21, 1
   6              		.eabi_attribute 23, 3
   7              		.eabi_attribute 24, 1
   8              		.eabi_attribute 25, 1
   9              		.eabi_attribute 26, 1
  10              		.eabi_attribute 30, 1
  11              		.eabi_attribute 34, 1
  12              		.eabi_attribute 18, 4
  13              		.thumb
  14              		.syntax unified
  15              		.file	"console.c"
  16              		.text
  17              	.Ltext0:
  18              		.cfi_sections	.debug_frame
  19              		.section	.text.mrbc_printf_main,"ax",%progbits
  20              		.align	2
  21              		.global	mrbc_printf_main
  22              		.thumb
  23              		.thumb_func
  24              		.type	mrbc_printf_main, %function
  25              	mrbc_printf_main:
  26              	.LFB79:
  27              		.file 1 "console.c"
   1:console.c     **** /*! @file
   2:console.c     ****   @brief
   3:console.c     ****   console output module. (not yet input)
   4:console.c     **** 
   5:console.c     ****   <pre>
   6:console.c     ****   Copyright (C) 2015-2018 Kyushu Institute of Technology.
   7:console.c     ****   Copyright (C) 2015-2018 Shimane IT Open-Innovation Center.
   8:console.c     **** 
   9:console.c     ****   This file is distributed under BSD 3-Clause License.
  10:console.c     **** 
  11:console.c     ****   </pre>
  12:console.c     **** */
  13:console.c     **** 
  14:console.c     **** #include "vm_config.h"
  15:console.c     **** #include <stdint.h>
  16:console.c     **** #include <stdarg.h>
  17:console.c     **** #include <string.h>
  18:console.c     **** #if MRBC_USE_FLOAT
  19:console.c     **** #include <stdio.h>
  20:console.c     **** #endif
  21:console.c     **** #include "value.h"
  22:console.c     **** #include "console.h"
  23:console.c     **** 
  24:console.c     **** 
  25:console.c     **** 
  26:console.c     **** //================================================================
  27:console.c     **** /*! output formatted string
  28:console.c     **** 
  29:console.c     ****   @param  fstr		format string.
  30:console.c     **** */
ARM GAS  C:\Users\164\AppData\Local\Temp\ccc3r1Kk.s 			page 2


  31:console.c     **** void console_printf(const char *fstr, ...)
  32:console.c     **** {
  33:console.c     ****   va_list ap;
  34:console.c     ****   va_start(ap, fstr);
  35:console.c     **** 
  36:console.c     ****   mrbc_printf pf;
  37:console.c     ****   char buf[82];
  38:console.c     ****   mrbc_printf_init( &pf, buf, sizeof(buf), fstr );
  39:console.c     **** 
  40:console.c     ****   int ret;
  41:console.c     ****   while( 1 ) {
  42:console.c     ****     ret = mrbc_printf_main( &pf );
  43:console.c     ****     if( mrbc_printf_len( &pf ) ) {
  44:console.c     ****       hal_write(1, buf, mrbc_printf_len( &pf ));
  45:console.c     ****       mrbc_printf_clear( &pf );
  46:console.c     ****     }
  47:console.c     ****     if( ret == 0 ) break;
  48:console.c     ****     if( ret < 0 ) continue;
  49:console.c     ****     if( ret > 0 ) {
  50:console.c     ****       switch(pf.fmt.type) {
  51:console.c     ****       case 'c':
  52:console.c     **** 	ret = mrbc_printf_char( &pf, va_arg(ap, int) );
  53:console.c     **** 	break;
  54:console.c     **** 
  55:console.c     ****       case 's':
  56:console.c     **** 	ret = mrbc_printf_str( &pf, va_arg(ap, char *), ' ');
  57:console.c     **** 	break;
  58:console.c     **** 
  59:console.c     ****       case 'd':
  60:console.c     ****       case 'i':
  61:console.c     ****       case 'u':
  62:console.c     **** 	ret = mrbc_printf_int( &pf, va_arg(ap, unsigned int), 10);
  63:console.c     **** 	break;
  64:console.c     **** 
  65:console.c     ****       case 'b':
  66:console.c     ****       case 'B':
  67:console.c     **** 	ret = mrbc_printf_int( &pf, va_arg(ap, unsigned int), 2);
  68:console.c     **** 	break;
  69:console.c     **** 
  70:console.c     ****       case 'x':
  71:console.c     ****       case 'X':
  72:console.c     **** 	ret = mrbc_printf_int( &pf, va_arg(ap, unsigned int), 16);
  73:console.c     **** 	break;
  74:console.c     **** 
  75:console.c     **** #if MRBC_USE_FLOAT
  76:console.c     ****       case 'f':
  77:console.c     ****       case 'e':
  78:console.c     ****       case 'E':
  79:console.c     ****       case 'g':
  80:console.c     ****       case 'G':
  81:console.c     **** 	ret = mrbc_printf_float( &pf, va_arg(ap, double) );
  82:console.c     **** 	break;
  83:console.c     **** #endif
  84:console.c     **** 
  85:console.c     ****       default:
  86:console.c     **** 	break;
  87:console.c     ****       }
ARM GAS  C:\Users\164\AppData\Local\Temp\ccc3r1Kk.s 			page 3


  88:console.c     **** 
  89:console.c     ****       hal_write(1, buf, mrbc_printf_len( &pf ));
  90:console.c     ****       mrbc_printf_clear( &pf );
  91:console.c     ****     }
  92:console.c     ****   }
  93:console.c     **** 
  94:console.c     ****   va_end(ap);
  95:console.c     **** }
  96:console.c     **** 
  97:console.c     **** 
  98:console.c     **** 
  99:console.c     **** //================================================================
 100:console.c     **** /*! sprintf subcontract function
 101:console.c     **** 
 102:console.c     ****   @param  pf	pointer to mrbc_printf
 103:console.c     ****   @retval 0	(format string) done.
 104:console.c     ****   @retval 1	found a format identifier.
 105:console.c     ****   @retval -1	buffer full.
 106:console.c     ****   @note		not terminate ('\0') buffer tail.
 107:console.c     **** */
 108:console.c     **** int mrbc_printf_main( mrbc_printf *pf )
 109:console.c     **** {
  28              		.loc 1 109 0
  29              		.cfi_startproc
  30              		@ args = 0, pretend = 0, frame = 0
  31              		@ frame_needed = 0, uses_anonymous_args = 0
  32              		@ link register save eliminated.
  33              	.LVL0:
  34 0000 30B4     		push	{r4, r5}
  35              		.cfi_def_cfa_offset 8
  36              		.cfi_offset 4, -8
  37              		.cfi_offset 5, -4
  38              	.LVL1:
 110:console.c     ****   int ch = -1;
 111:console.c     ****   pf->fmt = (struct RPrintfFormat){0};
  39              		.loc 1 111 0
  40 0002 0023     		movs	r3, #0
  41 0004 0361     		str	r3, [r0, #16]
  42 0006 4361     		str	r3, [r0, #20]
  43 0008 8361     		str	r3, [r0, #24]
 110:console.c     ****   int ch = -1;
  44              		.loc 1 110 0
  45 000a 4FF0FF35 		mov	r5, #-1
 112:console.c     **** 
 113:console.c     ****   while( pf->p < pf->buf_end && (ch = *pf->fstr) != '\0' ) {
  46              		.loc 1 113 0
  47 000e 0BE0     		b	.L2
  48              	.LVL2:
  49              	.L6:
 114:console.c     ****     pf->fstr++;
  50              		.loc 1 114 0
  51 0010 4C1C     		adds	r4, r1, #1
  52 0012 C460     		str	r4, [r0, #12]
 115:console.c     ****     if( ch == '%' ) {
  53              		.loc 1 115 0
  54 0014 252B     		cmp	r3, #37
  55 0016 04D1     		bne	.L3
ARM GAS  C:\Users\164\AppData\Local\Temp\ccc3r1Kk.s 			page 4


 116:console.c     ****       if( *pf->fstr == '%' ) {	// is "%%"
  56              		.loc 1 116 0
  57 0018 4978     		ldrb	r1, [r1, #1]	@ zero_extendqisi2
  58 001a 2529     		cmp	r1, #37
  59 001c 35D1     		bne	.L4
 117:console.c     **** 	pf->fstr++;
  60              		.loc 1 117 0
  61 001e 0134     		adds	r4, r4, #1
  62 0020 C460     		str	r4, [r0, #12]
  63              	.L3:
 118:console.c     ****       } else {
 119:console.c     **** 	goto PARSE_FLAG;
 120:console.c     ****       }
 121:console.c     ****     }
 122:console.c     ****     *pf->p++ = ch;
  64              		.loc 1 122 0
  65 0022 511C     		adds	r1, r2, #1
  66 0024 8160     		str	r1, [r0, #8]
  67 0026 1370     		strb	r3, [r2]
  68              	.LVL3:
  69              	.L2:
 113:console.c     ****     pf->fstr++;
  70              		.loc 1 113 0
  71 0028 8268     		ldr	r2, [r0, #8]
  72 002a 4368     		ldr	r3, [r0, #4]
  73 002c 9A42     		cmp	r2, r3
  74 002e 04D2     		bcs	.L5
 113:console.c     ****     pf->fstr++;
  75              		.loc 1 113 0 is_stmt 0 discriminator 1
  76 0030 C168     		ldr	r1, [r0, #12]
  77 0032 0B78     		ldrb	r3, [r1]	@ zero_extendqisi2
  78 0034 1D46     		mov	r5, r3
  79              	.LVL4:
  80 0036 002B     		cmp	r3, #0
  81 0038 EAD1     		bne	.L6
  82              	.LVL5:
  83              	.L5:
 123:console.c     ****   }
 124:console.c     ****   return -(ch != '\0');
  84              		.loc 1 124 0 is_stmt 1
  85 003a 281C     		adds	r0, r5, #0
  86              	.LVL6:
  87 003c 18BF     		it	ne
  88 003e 0120     		movne	r0, #1
  89 0040 4042     		negs	r0, r0
  90 0042 51E0     		b	.L7
  91              	.LVL7:
  92              	.L15:
 125:console.c     **** 
 126:console.c     **** 
 127:console.c     ****  PARSE_FLAG:
 128:console.c     ****   // parse format - '%' [flag] [width] [.precision] type
 129:console.c     ****   //   e.g. "%05d"
 130:console.c     ****   while( (ch = *pf->fstr) ) {
 131:console.c     ****     switch( ch ) {
  93              		.loc 1 131 0
  94 0044 203B     		subs	r3, r3, #32
ARM GAS  C:\Users\164\AppData\Local\Temp\ccc3r1Kk.s 			page 5


  95              	.LVL8:
  96 0046 102B     		cmp	r3, #16
  97 0048 2CD8     		bhi	.L8
  98 004a DFE803F0 		tbb	[pc, r3]
  99              	.L10:
 100 004e 0E       		.byte	(.L9-.L10)/2
 101 004f 2B       		.byte	(.L8-.L10)/2
 102 0050 2B       		.byte	(.L8-.L10)/2
 103 0051 2B       		.byte	(.L8-.L10)/2
 104 0052 2B       		.byte	(.L8-.L10)/2
 105 0053 2B       		.byte	(.L8-.L10)/2
 106 0054 2B       		.byte	(.L8-.L10)/2
 107 0055 2B       		.byte	(.L8-.L10)/2
 108 0056 2B       		.byte	(.L8-.L10)/2
 109 0057 2B       		.byte	(.L8-.L10)/2
 110 0058 2B       		.byte	(.L8-.L10)/2
 111 0059 09       		.byte	(.L11-.L10)/2
 112 005a 2B       		.byte	(.L8-.L10)/2
 113 005b 13       		.byte	(.L12-.L10)/2
 114 005c 2B       		.byte	(.L8-.L10)/2
 115 005d 2B       		.byte	(.L8-.L10)/2
 116 005e 18       		.byte	(.L13-.L10)/2
 117 005f 00       		.p2align 1
 118              	.L11:
 132:console.c     ****     case '+': pf->fmt.flag_plus = 1; break;
 119              		.loc 1 132 0
 120 0060 437C     		ldrb	r3, [r0, #17]	@ zero_extendqisi2
 121              	.LVL9:
 122 0062 43F00103 		orr	r3, r3, #1
 123 0066 4374     		strb	r3, [r0, #17]
 124              	.LVL10:
 125 0068 0DE0     		b	.L14
 126              	.LVL11:
 127              	.L9:
 133:console.c     ****     case ' ': pf->fmt.flag_space = 1; break;
 128              		.loc 1 133 0
 129 006a 437C     		ldrb	r3, [r0, #17]	@ zero_extendqisi2
 130              	.LVL12:
 131 006c 43F00403 		orr	r3, r3, #4
 132 0070 4374     		strb	r3, [r0, #17]
 133              	.LVL13:
 134 0072 08E0     		b	.L14
 135              	.LVL14:
 136              	.L12:
 134:console.c     ****     case '-': pf->fmt.flag_minus = 1; break;
 137              		.loc 1 134 0
 138 0074 437C     		ldrb	r3, [r0, #17]	@ zero_extendqisi2
 139              	.LVL15:
 140 0076 43F00203 		orr	r3, r3, #2
 141 007a 4374     		strb	r3, [r0, #17]
 142              	.LVL16:
 143 007c 03E0     		b	.L14
 144              	.LVL17:
 145              	.L13:
 135:console.c     ****     case '0': pf->fmt.flag_zero = 1; break;
 146              		.loc 1 135 0
 147 007e 437C     		ldrb	r3, [r0, #17]	@ zero_extendqisi2
ARM GAS  C:\Users\164\AppData\Local\Temp\ccc3r1Kk.s 			page 6


 148              	.LVL18:
 149 0080 43F00803 		orr	r3, r3, #8
 150 0084 4374     		strb	r3, [r0, #17]
 151              	.LVL19:
 152              	.L14:
 136:console.c     ****     default : goto PARSE_WIDTH;
 137:console.c     ****     }
 138:console.c     ****     pf->fstr++;
 153              		.loc 1 138 0
 154 0086 0132     		adds	r2, r2, #1
 155 0088 C260     		str	r2, [r0, #12]
 156              	.L4:
 130:console.c     ****     switch( ch ) {
 157              		.loc 1 130 0
 158 008a C268     		ldr	r2, [r0, #12]
 159 008c 1378     		ldrb	r3, [r2]	@ zero_extendqisi2
 160              	.LVL20:
 161 008e 002B     		cmp	r3, #0
 162 0090 D8D1     		bne	.L15
 163 0092 07E0     		b	.L8
 164              	.LVL21:
 165              	.L16:
 139:console.c     ****   }
 140:console.c     **** 
 141:console.c     ****  PARSE_WIDTH:
 142:console.c     ****   while( (ch = *pf->fstr - '0'), (0 <= ch && ch <= 9)) {	// isdigit()
 143:console.c     ****     pf->fmt.width = pf->fmt.width * 10 + ch;
 166              		.loc 1 143 0
 167 0094 4369     		ldr	r3, [r0, #20]
 168 0096 03EB8303 		add	r3, r3, r3, lsl #2
 169 009a 5900     		lsls	r1, r3, #1
 170 009c 2144     		add	r1, r1, r4
 171 009e 4161     		str	r1, [r0, #20]
 144:console.c     ****     pf->fstr++;
 172              		.loc 1 144 0
 173 00a0 0132     		adds	r2, r2, #1
 174 00a2 C260     		str	r2, [r0, #12]
 175              	.LVL22:
 176              	.L8:
 142:console.c     ****     pf->fmt.width = pf->fmt.width * 10 + ch;
 177              		.loc 1 142 0
 178 00a4 C268     		ldr	r2, [r0, #12]
 179 00a6 1378     		ldrb	r3, [r2]	@ zero_extendqisi2
 180 00a8 A3F13004 		sub	r4, r3, #48
 181              	.LVL23:
 182 00ac 092C     		cmp	r4, #9
 183 00ae F1D9     		bls	.L16
 145:console.c     ****   }
 146:console.c     ****   if( *pf->fstr == '.' ) {
 184              		.loc 1 146 0
 185 00b0 2E2B     		cmp	r3, #46
 186 00b2 0FD1     		bne	.L17
 147:console.c     ****     pf->fstr++;
 187              		.loc 1 147 0
 188 00b4 0132     		adds	r2, r2, #1
 189 00b6 C260     		str	r2, [r0, #12]
 148:console.c     ****     while( (ch = *pf->fstr - '0'), (0 <= ch && ch <= 9)) {
ARM GAS  C:\Users\164\AppData\Local\Temp\ccc3r1Kk.s 			page 7


 190              		.loc 1 148 0
 191 00b8 07E0     		b	.L18
 192              	.LVL24:
 193              	.L19:
 149:console.c     ****       pf->fmt.precision = pf->fmt.precision * 10 + ch;
 194              		.loc 1 149 0
 195 00ba 8369     		ldr	r3, [r0, #24]
 196 00bc 03EB8303 		add	r3, r3, r3, lsl #2
 197 00c0 5C00     		lsls	r4, r3, #1
 198 00c2 2244     		add	r2, r2, r4
 199              	.LVL25:
 200 00c4 8261     		str	r2, [r0, #24]
 201              	.LVL26:
 150:console.c     ****       pf->fstr++;
 202              		.loc 1 150 0
 203 00c6 0131     		adds	r1, r1, #1
 204 00c8 C160     		str	r1, [r0, #12]
 205              	.L18:
 148:console.c     ****     while( (ch = *pf->fstr - '0'), (0 <= ch && ch <= 9)) {
 206              		.loc 1 148 0
 207 00ca C168     		ldr	r1, [r0, #12]
 208 00cc 0A78     		ldrb	r2, [r1]	@ zero_extendqisi2
 209 00ce 303A     		subs	r2, r2, #48
 210              	.LVL27:
 211 00d0 092A     		cmp	r2, #9
 212 00d2 F2D9     		bls	.L19
 213              	.LVL28:
 214              	.L17:
 151:console.c     ****     }
 152:console.c     ****   }
 153:console.c     ****   if( *pf->fstr ) pf->fmt.type = *pf->fstr++;
 215              		.loc 1 153 0
 216 00d4 C368     		ldr	r3, [r0, #12]
 217 00d6 1A78     		ldrb	r2, [r3]	@ zero_extendqisi2
 218 00d8 2AB1     		cbz	r2, .L20
 219              		.loc 1 153 0 is_stmt 0 discriminator 1
 220 00da 5A1C     		adds	r2, r3, #1
 221 00dc C260     		str	r2, [r0, #12]
 222 00de 1B78     		ldrb	r3, [r3]	@ zero_extendqisi2
 223 00e0 0374     		strb	r3, [r0, #16]
 154:console.c     **** 
 155:console.c     ****   return 1;
 224              		.loc 1 155 0 is_stmt 1 discriminator 1
 225 00e2 0120     		movs	r0, #1
 226              	.LVL29:
 227 00e4 00E0     		b	.L7
 228              	.LVL30:
 229              	.L20:
 230              		.loc 1 155 0 is_stmt 0
 231 00e6 0120     		movs	r0, #1
 232              	.LVL31:
 233              	.L7:
 156:console.c     **** }
 234              		.loc 1 156 0 is_stmt 1
 235 00e8 30BC     		pop	{r4, r5}
 236              		.cfi_restore 5
 237              		.cfi_restore 4
ARM GAS  C:\Users\164\AppData\Local\Temp\ccc3r1Kk.s 			page 8


 238              		.cfi_def_cfa_offset 0
 239 00ea 7047     		bx	lr
 240              		.cfi_endproc
 241              	.LFE79:
 242              		.size	mrbc_printf_main, .-mrbc_printf_main
 243              		.section	.text.mrbc_printf_char,"ax",%progbits
 244              		.align	2
 245              		.global	mrbc_printf_char
 246              		.thumb
 247              		.thumb_func
 248              		.type	mrbc_printf_char, %function
 249              	mrbc_printf_char:
 250              	.LFB80:
 157:console.c     **** 
 158:console.c     **** 
 159:console.c     **** 
 160:console.c     **** //================================================================
 161:console.c     **** /*! sprintf subcontract function for char '%c'
 162:console.c     **** 
 163:console.c     ****   @param  pf	pointer to mrbc_printf
 164:console.c     ****   @param  ch	output character (ASCII)
 165:console.c     ****   @retval 0	done.
 166:console.c     ****   @retval -1	buffer full.
 167:console.c     ****   @note		not terminate ('\0') buffer tail.
 168:console.c     **** */
 169:console.c     **** int mrbc_printf_char( mrbc_printf *pf, int ch )
 170:console.c     **** {
 251              		.loc 1 170 0
 252              		.cfi_startproc
 253              		@ args = 0, pretend = 0, frame = 0
 254              		@ frame_needed = 0, uses_anonymous_args = 0
 255              		@ link register save eliminated.
 256              	.LVL32:
 257 0000 10B4     		push	{r4}
 258              		.cfi_def_cfa_offset 4
 259              		.cfi_offset 4, -4
 171:console.c     ****   if( pf->fmt.flag_minus ) {
 260              		.loc 1 171 0
 261 0002 437C     		ldrb	r3, [r0, #17]	@ zero_extendqisi2
 262 0004 13F0020F 		tst	r3, #2
 263 0008 06D0     		beq	.L23
 172:console.c     ****     if( pf->p == pf->buf_end ) return -1;
 264              		.loc 1 172 0
 265 000a 8368     		ldr	r3, [r0, #8]
 266 000c 4268     		ldr	r2, [r0, #4]
 267 000e 9342     		cmp	r3, r2
 268 0010 1CD0     		beq	.L27
 173:console.c     ****     *pf->p++ = ch;
 269              		.loc 1 173 0
 270 0012 5A1C     		adds	r2, r3, #1
 271 0014 8260     		str	r2, [r0, #8]
 272 0016 1970     		strb	r1, [r3]
 273              	.L23:
 174:console.c     ****   }
 175:console.c     **** 
 176:console.c     ****   int width = pf->fmt.width;
 274              		.loc 1 176 0
ARM GAS  C:\Users\164\AppData\Local\Temp\ccc3r1Kk.s 			page 9


 275 0018 4269     		ldr	r2, [r0, #20]
 276              	.LVL33:
 177:console.c     ****   while( --width > 0 ) {
 277              		.loc 1 177 0
 278 001a 07E0     		b	.L25
 279              	.L26:
 178:console.c     ****     if( pf->p == pf->buf_end ) return -1;
 280              		.loc 1 178 0
 281 001c 8368     		ldr	r3, [r0, #8]
 282 001e 4468     		ldr	r4, [r0, #4]
 283 0020 A342     		cmp	r3, r4
 284 0022 16D0     		beq	.L28
 179:console.c     ****     *pf->p++ = ' ';
 285              		.loc 1 179 0
 286 0024 5C1C     		adds	r4, r3, #1
 287 0026 8460     		str	r4, [r0, #8]
 288 0028 2024     		movs	r4, #32
 289 002a 1C70     		strb	r4, [r3]
 290              	.L25:
 177:console.c     ****   while( --width > 0 ) {
 291              		.loc 1 177 0
 292 002c 013A     		subs	r2, r2, #1
 293              	.LVL34:
 294 002e 002A     		cmp	r2, #0
 295 0030 F4DC     		bgt	.L26
 180:console.c     ****   }
 181:console.c     **** 
 182:console.c     ****   if( !pf->fmt.flag_minus ) {
 296              		.loc 1 182 0
 297 0032 437C     		ldrb	r3, [r0, #17]	@ zero_extendqisi2
 298 0034 13F0020F 		tst	r3, #2
 299 0038 0ED1     		bne	.L29
 183:console.c     ****     if( pf->p == pf->buf_end ) return -1;
 300              		.loc 1 183 0
 301 003a 8368     		ldr	r3, [r0, #8]
 302 003c 4268     		ldr	r2, [r0, #4]
 303              	.LVL35:
 304 003e 9342     		cmp	r3, r2
 305 0040 0CD0     		beq	.L30
 184:console.c     ****     *pf->p++ = ch;
 306              		.loc 1 184 0
 307 0042 5A1C     		adds	r2, r3, #1
 308 0044 8260     		str	r2, [r0, #8]
 309 0046 1970     		strb	r1, [r3]
 185:console.c     ****   }
 186:console.c     **** 
 187:console.c     ****   return 0;
 310              		.loc 1 187 0
 311 0048 0020     		movs	r0, #0
 312              	.LVL36:
 313 004a 09E0     		b	.L24
 314              	.LVL37:
 315              	.L27:
 172:console.c     ****     *pf->p++ = ch;
 316              		.loc 1 172 0
 317 004c 4FF0FF30 		mov	r0, #-1
 318              	.LVL38:
ARM GAS  C:\Users\164\AppData\Local\Temp\ccc3r1Kk.s 			page 10


 319 0050 06E0     		b	.L24
 320              	.LVL39:
 321              	.L28:
 178:console.c     ****     *pf->p++ = ' ';
 322              		.loc 1 178 0
 323 0052 4FF0FF30 		mov	r0, #-1
 324              	.LVL40:
 325 0056 03E0     		b	.L24
 326              	.LVL41:
 327              	.L29:
 328              		.loc 1 187 0
 329 0058 0020     		movs	r0, #0
 330              	.LVL42:
 331 005a 01E0     		b	.L24
 332              	.LVL43:
 333              	.L30:
 183:console.c     ****     *pf->p++ = ch;
 334              		.loc 1 183 0
 335 005c 4FF0FF30 		mov	r0, #-1
 336              	.LVL44:
 337              	.L24:
 188:console.c     **** }
 338              		.loc 1 188 0
 339 0060 10BC     		pop	{r4}
 340              		.cfi_restore 4
 341              		.cfi_def_cfa_offset 0
 342 0062 7047     		bx	lr
 343              		.cfi_endproc
 344              	.LFE80:
 345              		.size	mrbc_printf_char, .-mrbc_printf_char
 346              		.section	.text.mrbc_printf_bstr,"ax",%progbits
 347              		.align	2
 348              		.global	mrbc_printf_bstr
 349              		.thumb
 350              		.thumb_func
 351              		.type	mrbc_printf_bstr, %function
 352              	mrbc_printf_bstr:
 353              	.LFB81:
 189:console.c     **** 
 190:console.c     **** 
 191:console.c     **** //================================================================
 192:console.c     **** /*! sprintf subcontract function for byte array.
 193:console.c     **** 
 194:console.c     ****   @param  pf	pointer to mrbc_printf.
 195:console.c     ****   @param  str	pointer to byte array.
 196:console.c     ****   @param  len	byte length.
 197:console.c     ****   @param  pad	padding character.
 198:console.c     ****   @retval 0	done.
 199:console.c     ****   @retval -1	buffer full.
 200:console.c     ****   @note		not terminate ('\0') buffer tail.
 201:console.c     **** */
 202:console.c     **** int mrbc_printf_bstr( mrbc_printf *pf, const char *str, int len, int pad )
 203:console.c     **** {
 354              		.loc 1 203 0
 355              		.cfi_startproc
 356              		@ args = 0, pretend = 0, frame = 0
 357              		@ frame_needed = 0, uses_anonymous_args = 0
ARM GAS  C:\Users\164\AppData\Local\Temp\ccc3r1Kk.s 			page 11


 358              		@ link register save eliminated.
 359              	.LVL45:
 360 0000 F0B4     		push	{r4, r5, r6, r7}
 361              		.cfi_def_cfa_offset 16
 362              		.cfi_offset 4, -16
 363              		.cfi_offset 5, -12
 364              		.cfi_offset 6, -8
 365              		.cfi_offset 7, -4
 366              	.LVL46:
 204:console.c     ****   int ret = 0;
 205:console.c     **** 
 206:console.c     ****   if( str == NULL ) {
 367              		.loc 1 206 0
 368 0002 0C46     		mov	r4, r1
 369 0004 09B9     		cbnz	r1, .L33
 207:console.c     ****     str = "(null)";
 208:console.c     ****     len = 6;
 370              		.loc 1 208 0
 371 0006 0622     		movs	r2, #6
 372              	.LVL47:
 207:console.c     ****     str = "(null)";
 373              		.loc 1 207 0
 374 0008 1F4C     		ldr	r4, .L50
 375              	.L33:
 376              	.LVL48:
 209:console.c     ****   }
 210:console.c     ****   if( pf->fmt.precision && len > pf->fmt.precision ) len = pf->fmt.precision;
 377              		.loc 1 210 0
 378 000a 8169     		ldr	r1, [r0, #24]
 379 000c 11B1     		cbz	r1, .L34
 380              		.loc 1 210 0 is_stmt 0 discriminator 1
 381 000e 8A42     		cmp	r2, r1
 382 0010 00DD     		ble	.L34
 383              		.loc 1 210 0
 384 0012 0A46     		mov	r2, r1
 385              	.LVL49:
 386              	.L34:
 211:console.c     **** 
 212:console.c     ****   int tw = len;
 213:console.c     ****   if( pf->fmt.width > len ) tw = pf->fmt.width;
 387              		.loc 1 213 0 is_stmt 1
 388 0014 4169     		ldr	r1, [r0, #20]
 389 0016 8A42     		cmp	r2, r1
 390 0018 00DB     		blt	.L35
 212:console.c     ****   if( pf->fmt.width > len ) tw = pf->fmt.width;
 391              		.loc 1 212 0
 392 001a 1146     		mov	r1, r2
 393              	.L35:
 394              	.LVL50:
 214:console.c     **** 
 215:console.c     ****   int remain = pf->buf_end - pf->p;
 395              		.loc 1 215 0
 396 001c 4568     		ldr	r5, [r0, #4]
 397 001e 8668     		ldr	r6, [r0, #8]
 398 0020 AD1B     		subs	r5, r5, r6
 399              	.LVL51:
 216:console.c     ****   if( len > remain ) {
ARM GAS  C:\Users\164\AppData\Local\Temp\ccc3r1Kk.s 			page 12


 400              		.loc 1 216 0
 401 0022 AA42     		cmp	r2, r5
 402 0024 01DC     		bgt	.L47
 204:console.c     **** 
 403              		.loc 1 204 0
 404 0026 0027     		movs	r7, #0
 405 0028 02E0     		b	.L36
 406              	.L47:
 217:console.c     ****     len = remain;
 407              		.loc 1 217 0
 408 002a 2A46     		mov	r2, r5
 409              	.LVL52:
 218:console.c     ****     ret = -1;
 410              		.loc 1 218 0
 411 002c 4FF0FF37 		mov	r7, #-1
 412              	.L36:
 413              	.LVL53:
 219:console.c     ****   }
 220:console.c     ****   if( tw > remain ) {
 414              		.loc 1 220 0
 415 0030 A942     		cmp	r1, r5
 416 0032 02DD     		ble	.L37
 221:console.c     ****     tw = remain;
 417              		.loc 1 221 0
 418 0034 2946     		mov	r1, r5
 419              	.LVL54:
 222:console.c     ****     ret = -1;
 420              		.loc 1 222 0
 421 0036 4FF0FF37 		mov	r7, #-1
 422              	.LVL55:
 423              	.L37:
 223:console.c     ****   }
 224:console.c     **** 
 225:console.c     ****   int n_pad = tw - len;
 424              		.loc 1 225 0
 425 003a 891A     		subs	r1, r1, r2
 426              	.LVL56:
 226:console.c     **** 
 227:console.c     ****   if( !pf->fmt.flag_minus ) {
 427              		.loc 1 227 0
 428 003c 457C     		ldrb	r5, [r0, #17]	@ zero_extendqisi2
 429              	.LVL57:
 430 003e 15F0020F 		tst	r5, #2
 431 0042 05D0     		beq	.L38
 432 0044 10E0     		b	.L41
 433              	.LVL58:
 434              	.L40:
 228:console.c     ****     while( n_pad-- > 0 ) {
 229:console.c     ****       *pf->p++ = pad;
 435              		.loc 1 229 0
 436 0046 8168     		ldr	r1, [r0, #8]
 437 0048 4E1C     		adds	r6, r1, #1
 438 004a 8660     		str	r6, [r0, #8]
 439 004c 0B70     		strb	r3, [r1]
 228:console.c     ****     while( n_pad-- > 0 ) {
 440              		.loc 1 228 0
 441 004e 2946     		mov	r1, r5
ARM GAS  C:\Users\164\AppData\Local\Temp\ccc3r1Kk.s 			page 13


 442              	.LVL59:
 443              	.L38:
 444 0050 4D1E     		subs	r5, r1, #1
 445              	.LVL60:
 446 0052 0029     		cmp	r1, #0
 447 0054 F7DC     		bgt	.L40
 448 0056 2946     		mov	r1, r5
 449 0058 06E0     		b	.L41
 450              	.LVL61:
 451              	.L42:
 230:console.c     ****     }
 231:console.c     ****   }
 232:console.c     ****   while( len-- > 0 ) {
 233:console.c     ****     *pf->p++ = *str++;
 452              		.loc 1 233 0
 453 005a 8268     		ldr	r2, [r0, #8]
 454 005c 561C     		adds	r6, r2, #1
 455 005e 8660     		str	r6, [r0, #8]
 456              	.LVL62:
 457 0060 2678     		ldrb	r6, [r4]	@ zero_extendqisi2
 458 0062 1670     		strb	r6, [r2]
 232:console.c     ****     *pf->p++ = *str++;
 459              		.loc 1 232 0
 460 0064 2A46     		mov	r2, r5
 461              		.loc 1 233 0
 462 0066 0134     		adds	r4, r4, #1
 463              	.LVL63:
 464              	.L41:
 232:console.c     ****     *pf->p++ = *str++;
 465              		.loc 1 232 0
 466 0068 551E     		subs	r5, r2, #1
 467              	.LVL64:
 468 006a 002A     		cmp	r2, #0
 469 006c F5DC     		bgt	.L42
 470 006e 04E0     		b	.L43
 471              	.LVL65:
 472              	.L44:
 234:console.c     ****   }
 235:console.c     ****   while( n_pad-- > 0 ) {
 236:console.c     ****     *pf->p++ = pad;
 473              		.loc 1 236 0
 474 0070 8268     		ldr	r2, [r0, #8]
 475 0072 511C     		adds	r1, r2, #1
 476 0074 8160     		str	r1, [r0, #8]
 477 0076 1370     		strb	r3, [r2]
 235:console.c     ****     *pf->p++ = pad;
 478              		.loc 1 235 0
 479 0078 2146     		mov	r1, r4
 480              	.LVL66:
 481              	.L43:
 482 007a 4C1E     		subs	r4, r1, #1
 483              	.LVL67:
 484 007c 0029     		cmp	r1, #0
 485 007e F7DC     		bgt	.L44
 237:console.c     ****   }
 238:console.c     **** 
 239:console.c     ****   return ret;
ARM GAS  C:\Users\164\AppData\Local\Temp\ccc3r1Kk.s 			page 14


 240:console.c     **** }
 486              		.loc 1 240 0
 487 0080 3846     		mov	r0, r7
 488              	.LVL68:
 489 0082 F0BC     		pop	{r4, r5, r6, r7}
 490              		.cfi_restore 7
 491              		.cfi_restore 6
 492              		.cfi_restore 5
 493              		.cfi_restore 4
 494              		.cfi_def_cfa_offset 0
 495              	.LVL69:
 496 0084 7047     		bx	lr
 497              	.L51:
 498 0086 00BF     		.align	2
 499              	.L50:
 500 0088 00000000 		.word	.LC0
 501              		.cfi_endproc
 502              	.LFE81:
 503              		.size	mrbc_printf_bstr, .-mrbc_printf_bstr
 504              		.section	.text.mrbc_printf_int,"ax",%progbits
 505              		.align	2
 506              		.global	mrbc_printf_int
 507              		.thumb
 508              		.thumb_func
 509              		.type	mrbc_printf_int, %function
 510              	mrbc_printf_int:
 511              	.LFB82:
 241:console.c     **** 
 242:console.c     **** 
 243:console.c     **** 
 244:console.c     **** //================================================================
 245:console.c     **** /*! sprintf subcontract function for integer '%d' '%x' '%b'
 246:console.c     **** 
 247:console.c     ****   @param  pf	pointer to mrbc_printf.
 248:console.c     ****   @param  value	output value.
 249:console.c     ****   @param  base	n base.
 250:console.c     ****   @retval 0	done.
 251:console.c     ****   @retval -1	buffer full.
 252:console.c     ****   @note		not terminate ('\0') buffer tail.
 253:console.c     **** */
 254:console.c     **** int mrbc_printf_int( mrbc_printf *pf, mrbc_int value, int base )
 255:console.c     **** {
 512              		.loc 1 255 0
 513              		.cfi_startproc
 514              		@ args = 0, pretend = 0, frame = 40
 515              		@ frame_needed = 0, uses_anonymous_args = 0
 516              	.LVL70:
 517 0000 70B5     		push	{r4, r5, r6, lr}
 518              		.cfi_def_cfa_offset 16
 519              		.cfi_offset 4, -16
 520              		.cfi_offset 5, -12
 521              		.cfi_offset 6, -8
 522              		.cfi_offset 14, -4
 523 0002 8AB0     		sub	sp, sp, #40
 524              		.cfi_def_cfa_offset 56
 525              	.LVL71:
 256:console.c     ****   int sign = 0;
ARM GAS  C:\Users\164\AppData\Local\Temp\ccc3r1Kk.s 			page 15


 257:console.c     ****   uint32_t v = value;	// (note) Change this when supporting 64 bit.
 526              		.loc 1 257 0
 527 0004 0C46     		mov	r4, r1
 528              	.LVL72:
 258:console.c     **** 
 259:console.c     ****   if( pf->fmt.type == 'd' || pf->fmt.type == 'i' ) {	// signed.
 529              		.loc 1 259 0
 530 0006 037C     		ldrb	r3, [r0, #16]	@ zero_extendqisi2
 531 0008 642B     		cmp	r3, #100
 532 000a 01D0     		beq	.L53
 533              		.loc 1 259 0 is_stmt 0 discriminator 1
 534 000c 692B     		cmp	r3, #105
 535 000e 0DD1     		bne	.L65
 536              	.L53:
 260:console.c     ****     if( value < 0 ) {
 537              		.loc 1 260 0 is_stmt 1
 538 0010 0029     		cmp	r1, #0
 539 0012 02DA     		bge	.L55
 540              	.LVL73:
 261:console.c     ****       sign = '-';
 262:console.c     ****       v = -value;
 541              		.loc 1 262 0
 542 0014 4C42     		negs	r4, r1
 543              	.LVL74:
 261:console.c     ****       sign = '-';
 544              		.loc 1 261 0
 545 0016 2D26     		movs	r6, #45
 546 0018 0DE0     		b	.L54
 547              	.LVL75:
 548              	.L55:
 263:console.c     ****     } else if( pf->fmt.flag_plus ) {
 549              		.loc 1 263 0
 550 001a 417C     		ldrb	r1, [r0, #17]	@ zero_extendqisi2
 551              	.LVL76:
 552 001c 11F0010F 		tst	r1, #1
 553 0020 06D1     		bne	.L66
 264:console.c     ****       sign = '+';
 265:console.c     ****     } else if( pf->fmt.flag_space ) {
 554              		.loc 1 265 0
 555 0022 11F0040F 		tst	r1, #4
 556 0026 05D1     		bne	.L67
 256:console.c     ****   uint32_t v = value;	// (note) Change this when supporting 64 bit.
 557              		.loc 1 256 0
 558 0028 0026     		movs	r6, #0
 559 002a 04E0     		b	.L54
 560              	.LVL77:
 561              	.L65:
 562 002c 0026     		movs	r6, #0
 563 002e 02E0     		b	.L54
 564              	.LVL78:
 565              	.L66:
 264:console.c     ****       sign = '+';
 566              		.loc 1 264 0
 567 0030 2B26     		movs	r6, #43
 568 0032 00E0     		b	.L54
 569              	.L67:
 266:console.c     ****       sign = ' ';
ARM GAS  C:\Users\164\AppData\Local\Temp\ccc3r1Kk.s 			page 16


 570              		.loc 1 266 0
 571 0034 2026     		movs	r6, #32
 572              	.LVL79:
 573              	.L54:
 267:console.c     ****     }
 268:console.c     ****   }
 269:console.c     **** 
 270:console.c     ****   if( pf->fmt.flag_minus || pf->fmt.width == 0 ) {
 574              		.loc 1 270 0
 575 0036 417C     		ldrb	r1, [r0, #17]	@ zero_extendqisi2
 576 0038 11F0020F 		tst	r1, #2
 577 003c 01D1     		bne	.L56
 578              		.loc 1 270 0 is_stmt 0 discriminator 1
 579 003e 4169     		ldr	r1, [r0, #20]
 580 0040 19B9     		cbnz	r1, .L57
 581              	.L56:
 271:console.c     ****     pf->fmt.flag_zero = 0; // disable zero padding if left align or width zero.
 582              		.loc 1 271 0 is_stmt 1
 583 0042 417C     		ldrb	r1, [r0, #17]	@ zero_extendqisi2
 584 0044 6FF3C301 		bfc	r1, #3, #1
 585 0048 4174     		strb	r1, [r0, #17]
 586              	.L57:
 272:console.c     ****   }
 273:console.c     ****   pf->fmt.precision = 0;
 587              		.loc 1 273 0
 588 004a 0021     		movs	r1, #0
 589 004c 8161     		str	r1, [r0, #24]
 274:console.c     **** 
 275:console.c     ****   int bias_a = (pf->fmt.type == 'X') ? 'A' - 10 : 'a' - 10;
 590              		.loc 1 275 0
 591 004e 582B     		cmp	r3, #88
 592 0050 01D1     		bne	.L68
 593 0052 3721     		movs	r1, #55
 594 0054 00E0     		b	.L58
 595              	.L68:
 596 0056 5721     		movs	r1, #87
 597              	.L58:
 598              	.LVL80:
 276:console.c     **** 
 277:console.c     ****   // create string to local buffer
 278:console.c     ****   char buf[32+2];	// int32 + terminate + 1
 279:console.c     ****   char *p = buf + sizeof(buf) - 1;
 280:console.c     ****   *p = '\0';
 599              		.loc 1 280 0 discriminator 4
 600 0058 0AAD     		add	r5, sp, #40
 601 005a 0023     		movs	r3, #0
 602 005c 05F8033D 		strb	r3, [r5, #-3]!
 603              	.LVL81:
 604              	.L61:
 605              	.LBB19:
 281:console.c     ****   do {
 282:console.c     ****     int i = v % base;
 606              		.loc 1 282 0
 607 0060 B4FBF2F3 		udiv	r3, r4, r2
 608 0064 02FB1343 		mls	r3, r2, r3, r4
 609              	.LVL82:
 283:console.c     ****     *--p = (i < 10)? i + '0' : i + bias_a;
ARM GAS  C:\Users\164\AppData\Local\Temp\ccc3r1Kk.s 			page 17


 610              		.loc 1 283 0
 611 0068 013D     		subs	r5, r5, #1
 612              	.LVL83:
 613 006a 092B     		cmp	r3, #9
 614 006c 02DC     		bgt	.L59
 615              		.loc 1 283 0 is_stmt 0 discriminator 1
 616 006e 3033     		adds	r3, r3, #48
 617              	.LVL84:
 618 0070 DBB2     		uxtb	r3, r3
 619              	.LVL85:
 620 0072 01E0     		b	.L60
 621              	.LVL86:
 622              	.L59:
 623              		.loc 1 283 0 discriminator 2
 624 0074 0B44     		add	r3, r3, r1
 625              	.LVL87:
 626 0076 DBB2     		uxtb	r3, r3
 627              	.L60:
 628              		.loc 1 283 0 discriminator 4
 629 0078 2B70     		strb	r3, [r5]
 284:console.c     ****     v /= base;
 630              		.loc 1 284 0 is_stmt 1 discriminator 4
 631 007a B4FBF2F4 		udiv	r4, r4, r2
 632              	.LVL88:
 633              	.LBE19:
 285:console.c     ****   } while( v != 0 );
 634              		.loc 1 285 0 discriminator 4
 635 007e 002C     		cmp	r4, #0
 636 0080 EED1     		bne	.L61
 286:console.c     **** 
 287:console.c     ****   // decide pad character and output sign character
 288:console.c     ****   int pad;
 289:console.c     ****   if( pf->fmt.flag_zero ) {
 637              		.loc 1 289 0
 638 0082 437C     		ldrb	r3, [r0, #17]	@ zero_extendqisi2
 639 0084 13F0080F 		tst	r3, #8
 640 0088 0DD0     		beq	.L62
 641              	.LVL89:
 290:console.c     ****     pad = '0';
 291:console.c     ****     if( sign ) {
 642              		.loc 1 291 0
 643 008a 96B1     		cbz	r6, .L69
 292:console.c     ****       *pf->p++ = sign;
 644              		.loc 1 292 0
 645 008c 8368     		ldr	r3, [r0, #8]
 646 008e 5A1C     		adds	r2, r3, #1
 647              	.LVL90:
 648 0090 8260     		str	r2, [r0, #8]
 649 0092 1E70     		strb	r6, [r3]
 293:console.c     ****       if( pf->p >= pf->buf_end ) return -1;
 650              		.loc 1 293 0
 651 0094 8268     		ldr	r2, [r0, #8]
 652 0096 4368     		ldr	r3, [r0, #4]
 653 0098 9A42     		cmp	r2, r3
 654 009a 18D2     		bcs	.L70
 294:console.c     ****       pf->fmt.width--;
 655              		.loc 1 294 0
ARM GAS  C:\Users\164\AppData\Local\Temp\ccc3r1Kk.s 			page 18


 656 009c 4369     		ldr	r3, [r0, #20]
 657 009e 013B     		subs	r3, r3, #1
 658 00a0 4361     		str	r3, [r0, #20]
 290:console.c     ****     if( sign ) {
 659              		.loc 1 290 0
 660 00a2 3026     		movs	r6, #48
 661              	.LVL91:
 662 00a4 08E0     		b	.L63
 663              	.LVL92:
 664              	.L62:
 295:console.c     ****     }
 296:console.c     ****   } else {
 297:console.c     ****     pad = ' ';
 298:console.c     ****     if( sign ) *--p = sign;
 665              		.loc 1 298 0
 666 00a6 36B1     		cbz	r6, .L71
 667              	.LVL93:
 668              		.loc 1 298 0 is_stmt 0 discriminator 1
 669 00a8 05F8016C 		strb	r6, [r5, #-1]
 670 00ac 013D     		subs	r5, r5, #1
 671              	.LVL94:
 297:console.c     ****     if( sign ) *--p = sign;
 672              		.loc 1 297 0 is_stmt 1 discriminator 1
 673 00ae 2026     		movs	r6, #32
 674              	.LVL95:
 675 00b0 02E0     		b	.L63
 676              	.LVL96:
 677              	.L69:
 290:console.c     ****     if( sign ) {
 678              		.loc 1 290 0
 679 00b2 3026     		movs	r6, #48
 680              	.LVL97:
 681 00b4 00E0     		b	.L63
 682              	.LVL98:
 683              	.L71:
 297:console.c     ****     if( sign ) *--p = sign;
 684              		.loc 1 297 0
 685 00b6 2026     		movs	r6, #32
 686              	.LVL99:
 687              	.L63:
 688 00b8 0446     		mov	r4, r0
 689              	.LVL100:
 690              	.LBB20:
 691              	.LBB21:
 692              		.file 2 "console.h"
   1:console.h     **** /*! @file
   2:console.h     ****   @brief
   3:console.h     ****   console output module. (not yet input)
   4:console.h     **** 
   5:console.h     ****   <pre>
   6:console.h     ****   Copyright (C) 2015-2018 Kyushu Institute of Technology.
   7:console.h     ****   Copyright (C) 2015-2018 Shimane IT Open-Innovation Center.
   8:console.h     **** 
   9:console.h     ****   This file is distributed under BSD 3-Clause License.
  10:console.h     **** 
  11:console.h     ****   </pre>
  12:console.h     **** */
ARM GAS  C:\Users\164\AppData\Local\Temp\ccc3r1Kk.s 			page 19


  13:console.h     **** 
  14:console.h     **** #ifndef MRBC_SRC_CONSOLE_H_
  15:console.h     **** #define MRBC_SRC_CONSOLE_H_
  16:console.h     **** 
  17:console.h     **** #include <stdint.h>
  18:console.h     **** #include <stdarg.h>
  19:console.h     **** #include <string.h>
  20:console.h     **** #include "hal/hal.h"
  21:console.h     **** 
  22:console.h     **** #ifdef __cplusplus
  23:console.h     **** extern "C" {
  24:console.h     **** #endif
  25:console.h     **** 
  26:console.h     **** 
  27:console.h     **** //================================================================
  28:console.h     **** /*! printf tiny (mruby/c) version data container.
  29:console.h     **** */
  30:console.h     **** typedef struct RPrintf {
  31:console.h     ****   char *buf;		//!< output buffer.
  32:console.h     ****   const char *buf_end;	//!< output buffer end point.
  33:console.h     ****   char *p;		//!< output buffer write point.
  34:console.h     ****   const char *fstr;	//!< format string. (e.g. "%d %03x")
  35:console.h     **** 
  36:console.h     ****   struct RPrintfFormat {
  37:console.h     ****     char type;				//!< format char. (e.g. 'd','f','x'...)
  38:console.h     ****     unsigned int flag_plus : 1;
  39:console.h     ****     unsigned int flag_minus : 1;
  40:console.h     ****     unsigned int flag_space : 1;
  41:console.h     ****     unsigned int flag_zero : 1;
  42:console.h     ****     int width;				//!< display width. (e.g. %10d as 10)
  43:console.h     ****     int precision;			//!< precision (e.g. %5.2f as 2)
  44:console.h     ****   } fmt;
  45:console.h     **** } mrbc_printf;
  46:console.h     **** 
  47:console.h     **** 
  48:console.h     **** void console_printf(const char *fstr, ...);
  49:console.h     **** int mrbc_printf_main(mrbc_printf *pf);
  50:console.h     **** int mrbc_printf_char(mrbc_printf *pf, int ch);
  51:console.h     **** int mrbc_printf_bstr(mrbc_printf *pf, const char *str, int len, int pad);
  52:console.h     **** int mrbc_printf_int(mrbc_printf *pf, mrbc_int value, int base);
  53:console.h     **** int mrbc_printf_float(mrbc_printf *pf, double value);
  54:console.h     **** void mrbc_printf_replace_buffer(mrbc_printf *pf, char *buf, int size);
  55:console.h     **** 
  56:console.h     **** 
  57:console.h     **** //================================================================
  58:console.h     **** /*! output a character
  59:console.h     **** 
  60:console.h     ****   @param  c	character
  61:console.h     **** */
  62:console.h     **** static inline void console_putchar(char c)
  63:console.h     **** {
  64:console.h     ****   hal_write(1, &c, 1);
  65:console.h     **** }
  66:console.h     **** 
  67:console.h     **** 
  68:console.h     **** //================================================================
  69:console.h     **** /*! output string
ARM GAS  C:\Users\164\AppData\Local\Temp\ccc3r1Kk.s 			page 20


  70:console.h     **** 
  71:console.h     ****   @param str	str
  72:console.h     **** */
  73:console.h     **** static inline void console_print(const char *str)
  74:console.h     **** {
  75:console.h     ****   hal_write(1, str, strlen(str));
  76:console.h     **** }
  77:console.h     **** 
  78:console.h     **** 
  79:console.h     **** //================================================================
  80:console.h     **** /*! output string with length parameter.
  81:console.h     **** 
  82:console.h     ****   @param str	str
  83:console.h     ****   @param size	byte length.
  84:console.h     **** */
  85:console.h     **** static inline void console_nprint(const char *str, int size)
  86:console.h     **** {
  87:console.h     ****   hal_write(1, str, size);
  88:console.h     **** }
  89:console.h     **** 
  90:console.h     **** 
  91:console.h     **** //================================================================
  92:console.h     **** /*! initialize data container.
  93:console.h     **** 
  94:console.h     ****   @param  pf	pointer to mrbc_printf
  95:console.h     ****   @param  buf	pointer to output buffer.
  96:console.h     ****   @param  size	buffer size.
  97:console.h     ****   @param  fstr	format string.
  98:console.h     **** */
  99:console.h     **** static inline void mrbc_printf_init( mrbc_printf *pf, char *buf, int size,
 100:console.h     **** 				     const char *fstr )
 101:console.h     **** {
 102:console.h     ****   pf->p = pf->buf = buf;
 103:console.h     ****   pf->buf_end = buf + size - 1;
 104:console.h     ****   pf->fstr = fstr;
 105:console.h     ****   pf->fmt = (struct RPrintfFormat){0};
 106:console.h     **** }
 107:console.h     **** 
 108:console.h     **** 
 109:console.h     **** //================================================================
 110:console.h     **** /*! clear output buffer in container.
 111:console.h     **** 
 112:console.h     ****   @param  pf	pointer to mrbc_printf
 113:console.h     **** */
 114:console.h     **** static inline void mrbc_printf_clear( mrbc_printf *pf )
 115:console.h     **** {
 116:console.h     ****   pf->p = pf->buf;
 117:console.h     **** }
 118:console.h     **** 
 119:console.h     **** 
 120:console.h     **** //================================================================
 121:console.h     **** /*! terminate ('\0') output buffer.
 122:console.h     **** 
 123:console.h     ****   @param  pf	pointer to mrbc_printf
 124:console.h     **** */
 125:console.h     **** static inline void mrbc_printf_end( mrbc_printf *pf )
 126:console.h     **** {
ARM GAS  C:\Users\164\AppData\Local\Temp\ccc3r1Kk.s 			page 21


 127:console.h     ****   *pf->p = '\0';
 128:console.h     **** }
 129:console.h     **** 
 130:console.h     **** 
 131:console.h     **** //================================================================
 132:console.h     **** /*! return string length in buffer
 133:console.h     **** 
 134:console.h     ****   @param  pf	pointer to mrbc_printf
 135:console.h     ****   @return	length
 136:console.h     **** */
 137:console.h     **** static inline int mrbc_printf_len( mrbc_printf *pf )
 138:console.h     **** {
 139:console.h     ****   return pf->p - pf->buf;
 140:console.h     **** }
 141:console.h     **** 
 142:console.h     **** 
 143:console.h     **** //================================================================
 144:console.h     **** /*! sprintf subcontract function for char '%s'
 145:console.h     **** 
 146:console.h     ****   @param  pf	pointer to mrbc_printf.
 147:console.h     ****   @param  str	output string.
 148:console.h     ****   @param  pad	padding character.
 149:console.h     ****   @retval 0	done.
 150:console.h     ****   @retval -1	buffer full.
 151:console.h     ****   @note		not terminate ('\0') buffer tail.
 152:console.h     **** */
 153:console.h     **** static inline int mrbc_printf_str( mrbc_printf *pf, const char *str, int pad )
 154:console.h     **** {
 155:console.h     ****   return mrbc_printf_bstr( pf, str, strlen(str), pad );
 693              		.loc 2 155 0
 694 00ba 2846     		mov	r0, r5
 695              	.LVL101:
 696 00bc FFF7FEFF 		bl	strlen
 697              	.LVL102:
 698 00c0 3346     		mov	r3, r6
 699 00c2 0246     		mov	r2, r0
 700 00c4 2946     		mov	r1, r5
 701 00c6 2046     		mov	r0, r4
 702 00c8 FFF7FEFF 		bl	mrbc_printf_bstr
 703              	.LVL103:
 704              	.LBE21:
 705              	.LBE20:
 299:console.c     ****   }
 300:console.c     ****   return mrbc_printf_str( pf, p, pad );
 706              		.loc 1 300 0
 707 00cc 01E0     		b	.L64
 708              	.LVL104:
 709              	.L70:
 293:console.c     ****       pf->fmt.width--;
 710              		.loc 1 293 0
 711 00ce 4FF0FF30 		mov	r0, #-1
 712              	.LVL105:
 713              	.L64:
 301:console.c     **** }
 714              		.loc 1 301 0
 715 00d2 0AB0     		add	sp, sp, #40
 716              		.cfi_def_cfa_offset 16
ARM GAS  C:\Users\164\AppData\Local\Temp\ccc3r1Kk.s 			page 22


 717              		@ sp needed
 718 00d4 70BD     		pop	{r4, r5, r6, pc}
 719              		.cfi_endproc
 720              	.LFE82:
 721              		.size	mrbc_printf_int, .-mrbc_printf_int
 722 00d6 00BF     		.section	.text.mrbc_printf_float,"ax",%progbits
 723              		.align	2
 724              		.global	mrbc_printf_float
 725              		.thumb
 726              		.thumb_func
 727              		.type	mrbc_printf_float, %function
 728              	mrbc_printf_float:
 729              	.LFB83:
 302:console.c     **** 
 303:console.c     **** 
 304:console.c     **** 
 305:console.c     **** #if MRBC_USE_FLOAT
 306:console.c     **** //================================================================
 307:console.c     **** /*! sprintf subcontract function for float(double) '%f'
 308:console.c     **** 
 309:console.c     ****   @param  pf	pointer to mrbc_printf.
 310:console.c     ****   @param  value	output value.
 311:console.c     ****   @retval 0	done.
 312:console.c     ****   @retval -1	buffer full.
 313:console.c     **** */
 314:console.c     **** int mrbc_printf_float( mrbc_printf *pf, double value )
 315:console.c     **** {
 730              		.loc 1 315 0
 731              		.cfi_startproc
 732              		@ args = 0, pretend = 0, frame = 16
 733              		@ frame_needed = 0, uses_anonymous_args = 0
 734              	.LVL106:
 735 0000 D0B5     		push	{r4, r6, r7, lr}
 736              		.cfi_def_cfa_offset 16
 737              		.cfi_offset 4, -16
 738              		.cfi_offset 6, -12
 739              		.cfi_offset 7, -8
 740              		.cfi_offset 14, -4
 741 0002 86B0     		sub	sp, sp, #24
 742              		.cfi_def_cfa_offset 40
 743 0004 0446     		mov	r4, r0
 744 0006 1646     		mov	r6, r2
 745 0008 1F46     		mov	r7, r3
 316:console.c     ****   char fstr[16];
 317:console.c     ****   const char *p1 = pf->fstr;
 746              		.loc 1 317 0
 747 000a C168     		ldr	r1, [r0, #12]
 748              	.LVL107:
 318:console.c     ****   char *p2 = fstr + sizeof(fstr) - 1;
 319:console.c     **** 
 320:console.c     ****   *p2 = '\0';
 749              		.loc 1 320 0
 750 000c 06AA     		add	r2, sp, #24
 751              	.LVL108:
 752 000e 0023     		movs	r3, #0
 753 0010 02F8013D 		strb	r3, [r2, #-1]!
 754              	.LVL109:
ARM GAS  C:\Users\164\AppData\Local\Temp\ccc3r1Kk.s 			page 23


 755              	.L74:
 321:console.c     ****   while( (*--p2 = *--p1) != '%' )
 756              		.loc 1 321 0 discriminator 1
 757 0014 11F8013D 		ldrb	r3, [r1, #-1]!	@ zero_extendqisi2
 758              	.LVL110:
 759 0018 02F8013D 		strb	r3, [r2, #-1]!
 760              	.LVL111:
 761 001c 252B     		cmp	r3, #37
 762 001e F9D1     		bne	.L74
 322:console.c     ****     ;
 323:console.c     **** 
 324:console.c     ****   snprintf( pf->p, (pf->buf_end - pf->p + 1), p2, value );
 763              		.loc 1 324 0
 764 0020 6168     		ldr	r1, [r4, #4]
 765              	.LVL112:
 766 0022 A068     		ldr	r0, [r4, #8]
 767              	.LVL113:
 768 0024 091A     		subs	r1, r1, r0
 769 0026 CDE90067 		strd	r6, [sp]
 770 002a 0131     		adds	r1, r1, #1
 771 002c FFF7FEFF 		bl	snprintf
 772              	.LVL114:
 325:console.c     **** 
 326:console.c     ****   while( *pf->p != '\0' )
 773              		.loc 1 326 0
 774 0030 01E0     		b	.L75
 775              	.L76:
 327:console.c     ****     pf->p++;
 776              		.loc 1 327 0
 777 0032 0133     		adds	r3, r3, #1
 778 0034 A360     		str	r3, [r4, #8]
 779              	.L75:
 326:console.c     ****     pf->p++;
 780              		.loc 1 326 0
 781 0036 A368     		ldr	r3, [r4, #8]
 782 0038 1A78     		ldrb	r2, [r3]	@ zero_extendqisi2
 783 003a 002A     		cmp	r2, #0
 784 003c F9D1     		bne	.L76
 328:console.c     **** 
 329:console.c     ****   return -(pf->p == pf->buf_end);
 785              		.loc 1 329 0
 786 003e 6068     		ldr	r0, [r4, #4]
 330:console.c     **** }
 787              		.loc 1 330 0
 788 0040 8342     		cmp	r3, r0
 789 0042 4FF0FF30 		mov	r0, #-1
 790 0046 18BF     		it	ne
 791 0048 0020     		movne	r0, #0
 792 004a 06B0     		add	sp, sp, #24
 793              		.cfi_def_cfa_offset 16
 794              		@ sp needed
 795 004c D0BD     		pop	{r4, r6, r7, pc}
 796              		.cfi_endproc
 797              	.LFE83:
 798              		.size	mrbc_printf_float, .-mrbc_printf_float
 799 004e 00BF     		.section	.text.console_printf,"ax",%progbits
 800              		.align	2
ARM GAS  C:\Users\164\AppData\Local\Temp\ccc3r1Kk.s 			page 24


 801              		.global	console_printf
 802              		.thumb
 803              		.thumb_func
 804              		.type	console_printf, %function
 805              	console_printf:
 806              	.LFB78:
  32:console.c     ****   va_list ap;
 807              		.loc 1 32 0
 808              		.cfi_startproc
 809              		@ args = 4, pretend = 16, frame = 120
 810              		@ frame_needed = 0, uses_anonymous_args = 1
 811              	.LVL115:
 812 0000 0FB4     		push	{r0, r1, r2, r3}
 813              		.cfi_def_cfa_offset 16
 814              		.cfi_offset 0, -16
 815              		.cfi_offset 1, -12
 816              		.cfi_offset 2, -8
 817              		.cfi_offset 3, -4
 818 0002 10B5     		push	{r4, lr}
 819              		.cfi_def_cfa_offset 24
 820              		.cfi_offset 4, -24
 821              		.cfi_offset 14, -20
 822 0004 9EB0     		sub	sp, sp, #120
 823              		.cfi_def_cfa_offset 144
 824 0006 20AB     		add	r3, sp, #128
 825 0008 53F8042B 		ldr	r2, [r3], #4
  34:console.c     **** 
 826              		.loc 1 34 0
 827 000c 1D93     		str	r3, [sp, #116]
 828              	.LVL116:
 829              	.LBB22:
 830              	.LBB23:
 102:console.h     ****   pf->buf_end = buf + size - 1;
 831              		.loc 2 102 0
 832 000e 01AB     		add	r3, sp, #4
 833              	.LVL117:
 834 0010 1693     		str	r3, [sp, #88]
 835 0012 1893     		str	r3, [sp, #96]
 103:console.h     ****   pf->fstr = fstr;
 836              		.loc 2 103 0
 837 0014 0DF15503 		add	r3, sp, #85
 838              	.LVL118:
 839 0018 1793     		str	r3, [sp, #92]
 104:console.h     ****   pf->fmt = (struct RPrintfFormat){0};
 840              		.loc 2 104 0
 841 001a 1992     		str	r2, [sp, #100]
 105:console.h     **** }
 842              		.loc 2 105 0
 843 001c 0023     		movs	r3, #0
 844 001e 1A93     		str	r3, [sp, #104]
 845 0020 1B93     		str	r3, [sp, #108]
 846 0022 1C93     		str	r3, [sp, #112]
 847              	.LVL119:
 848              	.L79:
 849              	.LBE23:
 850              	.LBE22:
  42:console.c     ****     if( mrbc_printf_len( &pf ) ) {
ARM GAS  C:\Users\164\AppData\Local\Temp\ccc3r1Kk.s 			page 25


 851              		.loc 1 42 0
 852 0024 16A8     		add	r0, sp, #88
 853              	.LVL120:
 854 0026 FFF7FEFF 		bl	mrbc_printf_main
 855              	.LVL121:
 856 002a 0446     		mov	r4, r0
 857              	.LVL122:
 858              	.LBB24:
 859              	.LBB25:
 139:console.h     **** }
 860              		.loc 2 139 0
 861 002c 189B     		ldr	r3, [sp, #96]
 862 002e 169A     		ldr	r2, [sp, #88]
 863              	.LVL123:
 864              	.LBE25:
 865              	.LBE24:
  43:console.c     ****       hal_write(1, buf, mrbc_printf_len( &pf ));
 866              		.loc 1 43 0
 867 0030 9A1A     		subs	r2, r3, r2
 868 0032 05D0     		beq	.L80
  44:console.c     ****       mrbc_printf_clear( &pf );
 869              		.loc 1 44 0
 870 0034 01A9     		add	r1, sp, #4
 871              	.LVL124:
 872 0036 0120     		movs	r0, #1
 873              	.LVL125:
 874 0038 FFF7FEFF 		bl	hal_write
 875              	.LVL126:
 876              	.LBB26:
 877              	.LBB27:
 116:console.h     **** }
 878              		.loc 2 116 0
 879 003c 169B     		ldr	r3, [sp, #88]
 880 003e 1893     		str	r3, [sp, #96]
 881              	.LVL127:
 882              	.L80:
 883              	.LBE27:
 884              	.LBE26:
  47:console.c     ****     if( ret < 0 ) continue;
 885              		.loc 1 47 0
 886 0040 002C     		cmp	r4, #0
 887 0042 6CD0     		beq	.L78
  48:console.c     ****     if( ret > 0 ) {
 888              		.loc 1 48 0
 889 0044 002C     		cmp	r4, #0
 890 0046 EDDB     		blt	.L79
  49:console.c     ****       switch(pf.fmt.type) {
 891              		.loc 1 49 0
 892 0048 ECDD     		ble	.L79
  50:console.c     ****       case 'c':
 893              		.loc 1 50 0
 894 004a 9DF86830 		ldrb	r3, [sp, #104]	@ zero_extendqisi2
 895 004e 423B     		subs	r3, r3, #66
 896 0050 362B     		cmp	r3, #54
 897 0052 5AD8     		bhi	.L83
 898 0054 DFE803F0 		tbb	[pc, r3]
 899              	.L85:
ARM GAS  C:\Users\164\AppData\Local\Temp\ccc3r1Kk.s 			page 26


 900 0058 3B       		.byte	(.L84-.L85)/2
 901 0059 59       		.byte	(.L83-.L85)/2
 902 005a 59       		.byte	(.L83-.L85)/2
 903 005b 4D       		.byte	(.L86-.L85)/2
 904 005c 59       		.byte	(.L83-.L85)/2
 905 005d 4D       		.byte	(.L86-.L85)/2
 906 005e 59       		.byte	(.L83-.L85)/2
 907 005f 59       		.byte	(.L83-.L85)/2
 908 0060 59       		.byte	(.L83-.L85)/2
 909 0061 59       		.byte	(.L83-.L85)/2
 910 0062 59       		.byte	(.L83-.L85)/2
 911 0063 59       		.byte	(.L83-.L85)/2
 912 0064 59       		.byte	(.L83-.L85)/2
 913 0065 59       		.byte	(.L83-.L85)/2
 914 0066 59       		.byte	(.L83-.L85)/2
 915 0067 59       		.byte	(.L83-.L85)/2
 916 0068 59       		.byte	(.L83-.L85)/2
 917 0069 59       		.byte	(.L83-.L85)/2
 918 006a 59       		.byte	(.L83-.L85)/2
 919 006b 59       		.byte	(.L83-.L85)/2
 920 006c 59       		.byte	(.L83-.L85)/2
 921 006d 59       		.byte	(.L83-.L85)/2
 922 006e 44       		.byte	(.L87-.L85)/2
 923 006f 59       		.byte	(.L83-.L85)/2
 924 0070 59       		.byte	(.L83-.L85)/2
 925 0071 59       		.byte	(.L83-.L85)/2
 926 0072 59       		.byte	(.L83-.L85)/2
 927 0073 59       		.byte	(.L83-.L85)/2
 928 0074 59       		.byte	(.L83-.L85)/2
 929 0075 59       		.byte	(.L83-.L85)/2
 930 0076 59       		.byte	(.L83-.L85)/2
 931 0077 59       		.byte	(.L83-.L85)/2
 932 0078 3B       		.byte	(.L84-.L85)/2
 933 0079 1C       		.byte	(.L88-.L85)/2
 934 007a 32       		.byte	(.L89-.L85)/2
 935 007b 4D       		.byte	(.L86-.L85)/2
 936 007c 4D       		.byte	(.L86-.L85)/2
 937 007d 4D       		.byte	(.L86-.L85)/2
 938 007e 59       		.byte	(.L83-.L85)/2
 939 007f 32       		.byte	(.L89-.L85)/2
 940 0080 59       		.byte	(.L83-.L85)/2
 941 0081 59       		.byte	(.L83-.L85)/2
 942 0082 59       		.byte	(.L83-.L85)/2
 943 0083 59       		.byte	(.L83-.L85)/2
 944 0084 59       		.byte	(.L83-.L85)/2
 945 0085 59       		.byte	(.L83-.L85)/2
 946 0086 59       		.byte	(.L83-.L85)/2
 947 0087 59       		.byte	(.L83-.L85)/2
 948 0088 59       		.byte	(.L83-.L85)/2
 949 0089 24       		.byte	(.L90-.L85)/2
 950 008a 59       		.byte	(.L83-.L85)/2
 951 008b 32       		.byte	(.L89-.L85)/2
 952 008c 59       		.byte	(.L83-.L85)/2
 953 008d 59       		.byte	(.L83-.L85)/2
 954 008e 44       		.byte	(.L87-.L85)/2
 955 008f 00       		.p2align 1
 956              	.L88:
ARM GAS  C:\Users\164\AppData\Local\Temp\ccc3r1Kk.s 			page 27


  52:console.c     **** 	break;
 957              		.loc 1 52 0
 958 0090 1D9B     		ldr	r3, [sp, #116]
 959 0092 1A1D     		adds	r2, r3, #4
 960 0094 1D92     		str	r2, [sp, #116]
 961 0096 1968     		ldr	r1, [r3]
 962 0098 16A8     		add	r0, sp, #88
 963              	.LVL128:
 964 009a FFF7FEFF 		bl	mrbc_printf_char
 965              	.LVL129:
  53:console.c     **** 
 966              		.loc 1 53 0
 967 009e 34E0     		b	.L83
 968              	.LVL130:
 969              	.L90:
  56:console.c     **** 	break;
 970              		.loc 1 56 0
 971 00a0 1D9B     		ldr	r3, [sp, #116]
 972 00a2 1A1D     		adds	r2, r3, #4
 973 00a4 1D92     		str	r2, [sp, #116]
 974 00a6 1C68     		ldr	r4, [r3]
 975              	.LVL131:
 976              	.LBB28:
 977              	.LBB29:
 978              		.loc 2 155 0
 979 00a8 2046     		mov	r0, r4
 980 00aa FFF7FEFF 		bl	strlen
 981              	.LVL132:
 982 00ae 2023     		movs	r3, #32
 983 00b0 0246     		mov	r2, r0
 984 00b2 2146     		mov	r1, r4
 985 00b4 16A8     		add	r0, sp, #88
 986              	.LVL133:
 987 00b6 FFF7FEFF 		bl	mrbc_printf_bstr
 988              	.LVL134:
 989              	.LBE29:
 990              	.LBE28:
  57:console.c     **** 
 991              		.loc 1 57 0
 992 00ba 26E0     		b	.L83
 993              	.LVL135:
 994              	.L89:
  62:console.c     **** 	break;
 995              		.loc 1 62 0
 996 00bc 1D9B     		ldr	r3, [sp, #116]
 997 00be 1A1D     		adds	r2, r3, #4
 998 00c0 1D92     		str	r2, [sp, #116]
 999 00c2 0A22     		movs	r2, #10
 1000 00c4 1968     		ldr	r1, [r3]
 1001 00c6 16A8     		add	r0, sp, #88
 1002              	.LVL136:
 1003 00c8 FFF7FEFF 		bl	mrbc_printf_int
 1004              	.LVL137:
  63:console.c     **** 
 1005              		.loc 1 63 0
 1006 00cc 1DE0     		b	.L83
 1007              	.LVL138:
ARM GAS  C:\Users\164\AppData\Local\Temp\ccc3r1Kk.s 			page 28


 1008              	.L84:
  67:console.c     **** 	break;
 1009              		.loc 1 67 0
 1010 00ce 1D9B     		ldr	r3, [sp, #116]
 1011 00d0 1A1D     		adds	r2, r3, #4
 1012 00d2 1D92     		str	r2, [sp, #116]
 1013 00d4 0222     		movs	r2, #2
 1014 00d6 1968     		ldr	r1, [r3]
 1015 00d8 16A8     		add	r0, sp, #88
 1016              	.LVL139:
 1017 00da FFF7FEFF 		bl	mrbc_printf_int
 1018              	.LVL140:
  68:console.c     **** 
 1019              		.loc 1 68 0
 1020 00de 14E0     		b	.L83
 1021              	.LVL141:
 1022              	.L87:
  72:console.c     **** 	break;
 1023              		.loc 1 72 0
 1024 00e0 1D9B     		ldr	r3, [sp, #116]
 1025 00e2 1A1D     		adds	r2, r3, #4
 1026 00e4 1D92     		str	r2, [sp, #116]
 1027 00e6 1022     		movs	r2, #16
 1028 00e8 1968     		ldr	r1, [r3]
 1029 00ea 16A8     		add	r0, sp, #88
 1030              	.LVL142:
 1031 00ec FFF7FEFF 		bl	mrbc_printf_int
 1032              	.LVL143:
  73:console.c     **** 
 1033              		.loc 1 73 0
 1034 00f0 0BE0     		b	.L83
 1035              	.LVL144:
 1036              	.L86:
  81:console.c     **** 	break;
 1037              		.loc 1 81 0
 1038 00f2 1D9B     		ldr	r3, [sp, #116]
 1039 00f4 0733     		adds	r3, r3, #7
 1040 00f6 23F00703 		bic	r3, r3, #7
 1041 00fa 03F10802 		add	r2, r3, #8
 1042 00fe 1D92     		str	r2, [sp, #116]
 1043 0100 D3E90023 		ldrd	r2, [r3]
 1044 0104 16A8     		add	r0, sp, #88
 1045              	.LVL145:
 1046 0106 FFF7FEFF 		bl	mrbc_printf_float
 1047              	.LVL146:
 1048              	.L83:
  89:console.c     ****       mrbc_printf_clear( &pf );
 1049              		.loc 1 89 0
 1050 010a 169B     		ldr	r3, [sp, #88]
 1051 010c 189A     		ldr	r2, [sp, #96]
 1052 010e D21A     		subs	r2, r2, r3
 1053 0110 01A9     		add	r1, sp, #4
 1054              	.LVL147:
 1055 0112 0120     		movs	r0, #1
 1056 0114 FFF7FEFF 		bl	hal_write
 1057              	.LVL148:
 1058              	.LBB30:
ARM GAS  C:\Users\164\AppData\Local\Temp\ccc3r1Kk.s 			page 29


 1059              	.LBB31:
 116:console.h     **** }
 1060              		.loc 2 116 0
 1061 0118 169B     		ldr	r3, [sp, #88]
 1062 011a 1893     		str	r3, [sp, #96]
 1063 011c 82E7     		b	.L79
 1064              	.LVL149:
 1065              	.L78:
 1066              	.LBE31:
 1067              	.LBE30:
  95:console.c     **** 
 1068              		.loc 1 95 0
 1069 011e 1EB0     		add	sp, sp, #120
 1070              		.cfi_def_cfa_offset 24
 1071              		@ sp needed
 1072 0120 BDE81040 		pop	{r4, lr}
 1073              		.cfi_restore 14
 1074              		.cfi_restore 4
 1075              		.cfi_def_cfa_offset 16
 1076              	.LVL150:
 1077 0124 04B0     		add	sp, sp, #16
 1078              		.cfi_restore 3
 1079              		.cfi_restore 2
 1080              		.cfi_restore 1
 1081              		.cfi_restore 0
 1082              		.cfi_def_cfa_offset 0
 1083              	.LVL151:
 1084 0126 7047     		bx	lr
 1085              		.cfi_endproc
 1086              	.LFE78:
 1087              		.size	console_printf, .-console_printf
 1088              		.section	.text.mrbc_printf_replace_buffer,"ax",%progbits
 1089              		.align	2
 1090              		.global	mrbc_printf_replace_buffer
 1091              		.thumb
 1092              		.thumb_func
 1093              		.type	mrbc_printf_replace_buffer, %function
 1094              	mrbc_printf_replace_buffer:
 1095              	.LFB84:
 331:console.c     **** #endif
 332:console.c     **** 
 333:console.c     **** 
 334:console.c     **** 
 335:console.c     **** //================================================================
 336:console.c     **** /*! replace output buffer
 337:console.c     **** 
 338:console.c     ****   @param  pf	pointer to mrbc_printf
 339:console.c     ****   @param  buf	pointer to output buffer.
 340:console.c     ****   @param  size	buffer size.
 341:console.c     **** */
 342:console.c     **** void mrbc_printf_replace_buffer(mrbc_printf *pf, char *buf, int size)
 343:console.c     **** {
 1096              		.loc 1 343 0
 1097              		.cfi_startproc
 1098              		@ args = 0, pretend = 0, frame = 0
 1099              		@ frame_needed = 0, uses_anonymous_args = 0
 1100              		@ link register save eliminated.
ARM GAS  C:\Users\164\AppData\Local\Temp\ccc3r1Kk.s 			page 30


 1101              	.LVL152:
 1102 0000 10B4     		push	{r4}
 1103              		.cfi_def_cfa_offset 4
 1104              		.cfi_offset 4, -4
 344:console.c     ****   int p_ofs = pf->p - pf->buf;
 1105              		.loc 1 344 0
 1106 0002 8368     		ldr	r3, [r0, #8]
 1107 0004 0468     		ldr	r4, [r0]
 1108 0006 1B1B     		subs	r3, r3, r4
 1109              	.LVL153:
 345:console.c     ****   pf->buf = buf;
 1110              		.loc 1 345 0
 1111 0008 0160     		str	r1, [r0]
 346:console.c     ****   pf->buf_end = buf + size - 1;
 1112              		.loc 1 346 0
 1113 000a 013A     		subs	r2, r2, #1
 1114              	.LVL154:
 1115 000c 0A44     		add	r2, r2, r1
 1116              	.LVL155:
 1117 000e 4260     		str	r2, [r0, #4]
 347:console.c     ****   pf->p = pf->buf + p_ofs;
 1118              		.loc 1 347 0
 1119 0010 0B44     		add	r3, r3, r1
 1120              	.LVL156:
 1121 0012 8360     		str	r3, [r0, #8]
 1122              	.LVL157:
 348:console.c     **** }
 1123              		.loc 1 348 0
 1124 0014 10BC     		pop	{r4}
 1125              		.cfi_restore 4
 1126              		.cfi_def_cfa_offset 0
 1127 0016 7047     		bx	lr
 1128              		.cfi_endproc
 1129              	.LFE84:
 1130              		.size	mrbc_printf_replace_buffer, .-mrbc_printf_replace_buffer
 1131              		.section	.rodata.str1.4,"aMS",%progbits,1
 1132              		.align	2
 1133              	.LC0:
 1134 0000 286E756C 		.ascii	"(null)\000"
 1134      6C2900
 1135              		.text
 1136              	.Letext0:
 1137              		.file 3 "c:\\program files (x86)\\cypress\\psoc creator\\4.2\\psoc creator\\import\\gnu\\arm\\5.4.
 1138              		.file 4 "c:\\program files (x86)\\cypress\\psoc creator\\4.2\\psoc creator\\import\\gnu\\arm\\5.4.
 1139              		.file 5 "c:\\program files (x86)\\cypress\\psoc creator\\4.2\\psoc creator\\import\\gnu\\arm\\5.4.
 1140              		.file 6 "value.h"
 1141              		.file 7 "<built-in>"
 1142              		.file 8 "c:\\program files (x86)\\cypress\\psoc creator\\4.2\\psoc creator\\import\\gnu\\arm\\5.4.
 1143              		.file 9 "c:\\program files (x86)\\cypress\\psoc creator\\4.2\\psoc creator\\import\\gnu\\arm\\5.4.
 1144              		.file 10 "hal/hal.h"
 1145              		.file 11 "Generated_Source\\PSoC5/core_cm3.h"