ARM GAS  C:\Users\164\AppData\Local\Temp\ccyLpyEa.s 			page 1


   1              		.syntax unified
   2              		.cpu cortex-m3
   3              		.fpu softvfp
   4              		.eabi_attribute 20, 1
   5              		.eabi_attribute 21, 1
   6              		.eabi_attribute 23, 3
   7              		.eabi_attribute 24, 1
   8              		.eabi_attribute 25, 1
   9              		.eabi_attribute 26, 1
  10              		.eabi_attribute 30, 1
  11              		.eabi_attribute 34, 1
  12              		.eabi_attribute 18, 4
  13              		.thumb
  14              		.syntax unified
  15              		.file	"global.c"
  16              		.text
  17              	.Ltext0:
  18              		.cfi_sections	.debug_frame
  19              		.section	.text.search_global_object,"ax",%progbits
  20              		.align	2
  21              		.thumb
  22              		.thumb_func
  23              		.type	search_global_object, %function
  24              	search_global_object:
  25              	.LFB96:
  26              		.file 1 "global.c"
   1:global.c      **** 
   2:global.c      **** #include "vm_config.h"
   3:global.c      **** #include <assert.h>
   4:global.c      **** #include "value.h"
   5:global.c      **** #include "static.h"
   6:global.c      **** #include "global.h"
   7:global.c      **** #include "mrubyc.h"
   8:global.c      **** 
   9:global.c      **** /*
  10:global.c      **** 
  11:global.c      ****   GLobal objects are stored in 'mrbc_global' array.
  12:global.c      ****   'mrbc_global' array is decending order by sym_id.
  13:global.c      ****   In case of searching a global object, binary search is used.
  14:global.c      ****   In case of adding a global object, insertion sort is used.
  15:global.c      **** 
  16:global.c      **** */
  17:global.c      **** 
  18:global.c      **** typedef enum {
  19:global.c      ****   MRBC_GLOBAL_OBJECT = 1,
  20:global.c      ****   MRBC_CONST_OBJECT,
  21:global.c      **** } mrbc_globaltype;
  22:global.c      **** 
  23:global.c      **** typedef struct GLOBAL_OBJECT {
  24:global.c      ****   mrbc_globaltype gtype : 8;
  25:global.c      ****   mrbc_sym sym_id;
  26:global.c      ****   mrbc_object obj;
  27:global.c      **** } mrbc_globalobject;
  28:global.c      **** 
  29:global.c      **** // max of global object in mrbc_global[]
  30:global.c      **** static int global_end;
  31:global.c      **** static mrbc_globalobject mrbc_global[MAX_GLOBAL_OBJECT_SIZE];
ARM GAS  C:\Users\164\AppData\Local\Temp\ccyLpyEa.s 			page 2


  32:global.c      **** 
  33:global.c      **** //
  34:global.c      **** void  mrbc_init_global(void)
  35:global.c      **** {
  36:global.c      ****   global_end = 0;
  37:global.c      **** }
  38:global.c      **** 
  39:global.c      **** /* search */
  40:global.c      **** /* linear search is not efficient! */
  41:global.c      **** /* TODO: Use binary search */
  42:global.c      **** static int search_global_object(mrbc_sym sym_id, mrbc_globaltype gtype)
  43:global.c      **** {
  27              		.loc 1 43 0
  28              		.cfi_startproc
  29              		@ args = 0, pretend = 0, frame = 0
  30              		@ frame_needed = 0, uses_anonymous_args = 0
  31              		@ link register save eliminated.
  32              	.LVL0:
  33 0000 10B4     		push	{r4}
  34              		.cfi_def_cfa_offset 4
  35              		.cfi_offset 4, -4
  36              	.LVL1:
  44:global.c      ****   int i;
  45:global.c      ****   for( i=0 ; i<global_end ; i++ ){
  37              		.loc 1 45 0
  38 0002 0023     		movs	r3, #0
  39 0004 10E0     		b	.L2
  40              	.LVL2:
  41              	.L5:
  42              	.LBB2:
  46:global.c      ****     mrbc_globalobject *obj = &mrbc_global[i];
  47:global.c      ****     if( obj->sym_id == sym_id && obj->gtype == gtype ) return i;
  43              		.loc 1 47 0
  44 0006 03EB4304 		add	r4, r3, r3, lsl #1
  45 000a E200     		lsls	r2, r4, #3
  46 000c 0C4C     		ldr	r4, .L8
  47 000e 2244     		add	r2, r2, r4
  48 0010 B2F90220 		ldrsh	r2, [r2, #2]
  49 0014 8242     		cmp	r2, r0
  50 0016 06D1     		bne	.L3
  51              		.loc 1 47 0 is_stmt 0 discriminator 1
  52 0018 03EB4304 		add	r4, r3, r3, lsl #1
  53 001c E200     		lsls	r2, r4, #3
  54 001e 084C     		ldr	r4, .L8
  55 0020 A25C     		ldrb	r2, [r4, r2]	@ zero_extendqisi2
  56 0022 8A42     		cmp	r2, r1
  57 0024 08D0     		beq	.L6
  58              	.L3:
  59              	.LBE2:
  45:global.c      ****     mrbc_globalobject *obj = &mrbc_global[i];
  60              		.loc 1 45 0 is_stmt 1 discriminator 2
  61 0026 0133     		adds	r3, r3, #1
  62              	.LVL3:
  63              	.L2:
  45:global.c      ****     mrbc_globalobject *obj = &mrbc_global[i];
  64              		.loc 1 45 0 is_stmt 0 discriminator 1
  65 0028 054A     		ldr	r2, .L8
ARM GAS  C:\Users\164\AppData\Local\Temp\ccyLpyEa.s 			page 3


  66 002a D2F8B024 		ldr	r2, [r2, #1200]
  67 002e 9342     		cmp	r3, r2
  68 0030 E9DB     		blt	.L5
  48:global.c      ****   }
  49:global.c      ****   return -1;
  69              		.loc 1 49 0 is_stmt 1
  70 0032 4FF0FF30 		mov	r0, #-1
  71              	.LVL4:
  72 0036 00E0     		b	.L4
  73              	.LVL5:
  74              	.L6:
  75              	.LBB3:
  47:global.c      ****   }
  76              		.loc 1 47 0
  77 0038 1846     		mov	r0, r3
  78              	.LVL6:
  79              	.L4:
  80              	.LBE3:
  50:global.c      **** }
  81              		.loc 1 50 0
  82 003a 10BC     		pop	{r4}
  83              		.cfi_restore 4
  84              		.cfi_def_cfa_offset 0
  85 003c 7047     		bx	lr
  86              	.L9:
  87 003e 00BF     		.align	2
  88              	.L8:
  89 0040 00000000 		.word	.LANCHOR0
  90              		.cfi_endproc
  91              	.LFE96:
  92              		.size	search_global_object, .-search_global_object
  93              		.section	.text.mrbc_init_global,"ax",%progbits
  94              		.align	2
  95              		.global	mrbc_init_global
  96              		.thumb
  97              		.thumb_func
  98              		.type	mrbc_init_global, %function
  99              	mrbc_init_global:
 100              	.LFB95:
  35:global.c      ****   global_end = 0;
 101              		.loc 1 35 0
 102              		.cfi_startproc
 103              		@ args = 0, pretend = 0, frame = 0
 104              		@ frame_needed = 0, uses_anonymous_args = 0
 105              		@ link register save eliminated.
  36:global.c      **** }
 106              		.loc 1 36 0
 107 0000 0022     		movs	r2, #0
 108 0002 024B     		ldr	r3, .L11
 109 0004 C3F8B024 		str	r2, [r3, #1200]
 110 0008 7047     		bx	lr
 111              	.L12:
 112 000a 00BF     		.align	2
 113              	.L11:
 114 000c 00000000 		.word	.LANCHOR0
 115              		.cfi_endproc
 116              	.LFE95:
ARM GAS  C:\Users\164\AppData\Local\Temp\ccyLpyEa.s 			page 4


 117              		.size	mrbc_init_global, .-mrbc_init_global
 118              		.section	.text.global_object_add,"ax",%progbits
 119              		.align	2
 120              		.global	global_object_add
 121              		.thumb
 122              		.thumb_func
 123              		.type	global_object_add, %function
 124              	global_object_add:
 125              	.LFB97:
  51:global.c      **** 
  52:global.c      **** /* add */
  53:global.c      **** /* TODO: Check reference count */
  54:global.c      **** void global_object_add(mrbc_sym sym_id, mrbc_value v)
  55:global.c      **** {
 126              		.loc 1 55 0
 127              		.cfi_startproc
 128              		@ args = 16, pretend = 8, frame = 0
 129              		@ frame_needed = 0, uses_anonymous_args = 0
 130              	.LVL7:
 131 0000 82B0     		sub	sp, sp, #8
 132              		.cfi_def_cfa_offset 8
 133 0002 70B5     		push	{r4, r5, r6, lr}
 134              		.cfi_def_cfa_offset 24
 135              		.cfi_offset 4, -24
 136              		.cfi_offset 5, -20
 137              		.cfi_offset 6, -16
 138              		.cfi_offset 14, -12
 139 0004 0546     		mov	r5, r0
 140 0006 04A9     		add	r1, sp, #16
 141 0008 81E80C00 		stmia	r1, {r2, r3}
  56:global.c      ****   int index = search_global_object(sym_id, MRBC_GLOBAL_OBJECT);
 142              		.loc 1 56 0
 143 000c 0121     		movs	r1, #1
 144 000e FFF7FEFF 		bl	search_global_object
 145              	.LVL8:
  57:global.c      ****   if( index == -1 ) {
 146              		.loc 1 57 0
 147 0012 B0F1FF3F 		cmp	r0, #-1
 148 0016 0DD1     		bne	.L14
  58:global.c      ****     index = global_end++;
 149              		.loc 1 58 0
 150 0018 154B     		ldr	r3, .L17
 151 001a D3F8B044 		ldr	r4, [r3, #1200]
 152 001e 621C     		adds	r2, r4, #1
 153 0020 C3F8B024 		str	r2, [r3, #1200]
 154              	.LVL9:
  59:global.c      ****     assert( index < MAX_GLOBAL_OBJECT_SIZE );	// maybe raise ex
 155              		.loc 1 59 0
 156 0024 312C     		cmp	r4, #49
 157 0026 0EDD     		ble	.L15
 158              		.loc 1 59 0 is_stmt 0 discriminator 1
 159 0028 124B     		ldr	r3, .L17+4
 160 002a 134A     		ldr	r2, .L17+8
 161 002c 3B21     		movs	r1, #59
 162 002e 1348     		ldr	r0, .L17+12
 163 0030 FFF7FEFF 		bl	__assert_func
 164              	.LVL10:
ARM GAS  C:\Users\164\AppData\Local\Temp\ccyLpyEa.s 			page 5


 165              	.L14:
 166 0034 0446     		mov	r4, r0
  60:global.c      ****   } else {
  61:global.c      ****     mrbc_release( &(mrbc_global[index].obj) );
 167              		.loc 1 61 0 is_stmt 1
 168 0036 00EB4003 		add	r3, r0, r0, lsl #1
 169 003a D800     		lsls	r0, r3, #3
 170              	.LVL11:
 171 003c 0830     		adds	r0, r0, #8
 172 003e 0C4B     		ldr	r3, .L17
 173 0040 1844     		add	r0, r0, r3
 174 0042 FFF7FEFF 		bl	mrbc_release
 175              	.LVL12:
 176              	.L15:
  62:global.c      ****   }
  63:global.c      **** 
  64:global.c      ****   mrbc_global[index].gtype = MRBC_GLOBAL_OBJECT;
 177              		.loc 1 64 0
 178 0046 0A4A     		ldr	r2, .L17
 179 0048 6100     		lsls	r1, r4, #1
 180 004a 0819     		adds	r0, r1, r4
 181 004c C300     		lsls	r3, r0, #3
 182 004e D018     		adds	r0, r2, r3
 183 0050 0126     		movs	r6, #1
 184 0052 D654     		strb	r6, [r2, r3]
  65:global.c      ****   mrbc_global[index].sym_id = sym_id;
 185              		.loc 1 65 0
 186 0054 4580     		strh	r5, [r0, #2]	@ movhi
  66:global.c      ****   mrbc_global[index].obj = v;
 187              		.loc 1 66 0
 188 0056 0446     		mov	r4, r0
 189              	.LVL13:
 190 0058 0834     		adds	r4, r4, #8
 191 005a 04AB     		add	r3, sp, #16
 192 005c 0FCB     		ldmia	r3, {r0, r1, r2, r3}
 193 005e 84E80F00 		stmia	r4, {r0, r1, r2, r3}
  67:global.c      ****   mrbc_dup( &v );
 194              		.loc 1 67 0
 195 0062 04A8     		add	r0, sp, #16
 196 0064 FFF7FEFF 		bl	mrbc_dup
 197              	.LVL14:
  68:global.c      **** }
 198              		.loc 1 68 0
 199 0068 BDE87040 		pop	{r4, r5, r6, lr}
 200              		.cfi_restore 14
 201              		.cfi_restore 6
 202              		.cfi_restore 5
 203              		.cfi_restore 4
 204              		.cfi_def_cfa_offset 8
 205 006c 02B0     		add	sp, sp, #8
 206              		.cfi_def_cfa_offset 0
 207 006e 7047     		bx	lr
 208              	.L18:
 209              		.align	2
 210              	.L17:
 211 0070 00000000 		.word	.LANCHOR0
 212 0074 00000000 		.word	.LC0
ARM GAS  C:\Users\164\AppData\Local\Temp\ccyLpyEa.s 			page 6


 213 0078 00000000 		.word	.LANCHOR1
 214 007c 20000000 		.word	.LC1
 215              		.cfi_endproc
 216              	.LFE97:
 217              		.size	global_object_add, .-global_object_add
 218              		.section	.text.const_object_add,"ax",%progbits
 219              		.align	2
 220              		.global	const_object_add
 221              		.thumb
 222              		.thumb_func
 223              		.type	const_object_add, %function
 224              	const_object_add:
 225              	.LFB98:
  69:global.c      **** 
  70:global.c      **** /* add const */
  71:global.c      **** /* TODO: Check reference count */
  72:global.c      **** /* TODO: Integrate with global_add */
  73:global.c      **** void const_object_add(mrbc_sym sym_id, mrbc_object *obj)
  74:global.c      **** {
 226              		.loc 1 74 0
 227              		.cfi_startproc
 228              		@ args = 0, pretend = 0, frame = 0
 229              		@ frame_needed = 0, uses_anonymous_args = 0
 230              	.LVL15:
 231 0000 F8B5     		push	{r3, r4, r5, r6, r7, lr}
 232              		.cfi_def_cfa_offset 24
 233              		.cfi_offset 3, -24
 234              		.cfi_offset 4, -20
 235              		.cfi_offset 5, -16
 236              		.cfi_offset 6, -12
 237              		.cfi_offset 7, -8
 238              		.cfi_offset 14, -4
 239 0002 0646     		mov	r6, r0
 240 0004 0D46     		mov	r5, r1
  75:global.c      ****   int index = search_global_object(sym_id, MRBC_CONST_OBJECT);
 241              		.loc 1 75 0
 242 0006 0221     		movs	r1, #2
 243              	.LVL16:
 244 0008 FFF7FEFF 		bl	search_global_object
 245              	.LVL17:
  76:global.c      ****   if( index == -1 ){
 246              		.loc 1 76 0
 247 000c B0F1FF3F 		cmp	r0, #-1
 248 0010 0DD1     		bne	.L20
  77:global.c      ****     index = global_end;
 249              		.loc 1 77 0
 250 0012 144B     		ldr	r3, .L23
 251 0014 D3F8B044 		ldr	r4, [r3, #1200]
 252              	.LVL18:
  78:global.c      ****     global_end++;
 253              		.loc 1 78 0
 254 0018 621C     		adds	r2, r4, #1
 255 001a C3F8B024 		str	r2, [r3, #1200]
  79:global.c      ****     assert( index < MAX_GLOBAL_OBJECT_SIZE );	// maybe raise ex
 256              		.loc 1 79 0
 257 001e 312C     		cmp	r4, #49
 258 0020 0EDD     		ble	.L21
ARM GAS  C:\Users\164\AppData\Local\Temp\ccyLpyEa.s 			page 7


 259              		.loc 1 79 0 is_stmt 0 discriminator 1
 260 0022 114B     		ldr	r3, .L23+4
 261 0024 114A     		ldr	r2, .L23+8
 262 0026 4F21     		movs	r1, #79
 263 0028 1148     		ldr	r0, .L23+12
 264 002a FFF7FEFF 		bl	__assert_func
 265              	.LVL19:
 266              	.L20:
 267 002e 0446     		mov	r4, r0
  80:global.c      ****   } else {
  81:global.c      ****     // warning: already initialized constant.
  82:global.c      ****     mrbc_release( &(mrbc_global[index].obj) );
 268              		.loc 1 82 0 is_stmt 1
 269 0030 00EB4003 		add	r3, r0, r0, lsl #1
 270 0034 D800     		lsls	r0, r3, #3
 271              	.LVL20:
 272 0036 0830     		adds	r0, r0, #8
 273 0038 0A4B     		ldr	r3, .L23
 274 003a 1844     		add	r0, r0, r3
 275 003c FFF7FEFF 		bl	mrbc_release
 276              	.LVL21:
 277              	.L21:
  83:global.c      ****   }
  84:global.c      ****   mrbc_global[index].gtype = MRBC_CONST_OBJECT;
 278              		.loc 1 84 0
 279 0040 084A     		ldr	r2, .L23
 280 0042 6100     		lsls	r1, r4, #1
 281 0044 0819     		adds	r0, r1, r4
 282 0046 C300     		lsls	r3, r0, #3
 283 0048 D018     		adds	r0, r2, r3
 284 004a 0227     		movs	r7, #2
 285 004c D754     		strb	r7, [r2, r3]
  85:global.c      ****   mrbc_global[index].sym_id = sym_id;
 286              		.loc 1 85 0
 287 004e 4680     		strh	r6, [r0, #2]	@ movhi
  86:global.c      ****   mrbc_global[index].obj = *obj;
 288              		.loc 1 86 0
 289 0050 0446     		mov	r4, r0
 290              	.LVL22:
 291 0052 0834     		adds	r4, r4, #8
 292 0054 95E80F00 		ldmia	r5, {r0, r1, r2, r3}
 293 0058 84E80F00 		stmia	r4, {r0, r1, r2, r3}
  87:global.c      ****   mrbc_dup( obj );
 294              		.loc 1 87 0
 295 005c 2846     		mov	r0, r5
 296 005e FFF7FEFF 		bl	mrbc_dup
 297              	.LVL23:
 298 0062 F8BD     		pop	{r3, r4, r5, r6, r7, pc}
 299              	.LVL24:
 300              	.L24:
 301              		.align	2
 302              	.L23:
 303 0064 00000000 		.word	.LANCHOR0
 304 0068 00000000 		.word	.LC0
 305 006c 14000000 		.word	.LANCHOR1+20
 306 0070 20000000 		.word	.LC1
 307              		.cfi_endproc
ARM GAS  C:\Users\164\AppData\Local\Temp\ccyLpyEa.s 			page 8


 308              	.LFE98:
 309              		.size	const_object_add, .-const_object_add
 310              		.section	.text.global_object_get,"ax",%progbits
 311              		.align	2
 312              		.global	global_object_get
 313              		.thumb
 314              		.thumb_func
 315              		.type	global_object_get, %function
 316              	global_object_get:
 317              	.LFB99:
  88:global.c      **** }
  89:global.c      **** 
  90:global.c      **** /* get */
  91:global.c      **** mrbc_value global_object_get(mrbc_sym sym_id)
  92:global.c      **** {
 318              		.loc 1 92 0
 319              		.cfi_startproc
 320              		@ args = 0, pretend = 0, frame = 0
 321              		@ frame_needed = 0, uses_anonymous_args = 0
 322              	.LVL25:
 323 0000 F8B5     		push	{r3, r4, r5, r6, r7, lr}
 324              		.cfi_def_cfa_offset 24
 325              		.cfi_offset 3, -24
 326              		.cfi_offset 4, -20
 327              		.cfi_offset 5, -16
 328              		.cfi_offset 6, -12
 329              		.cfi_offset 7, -8
 330              		.cfi_offset 14, -4
 331 0002 0446     		mov	r4, r0
 332 0004 0846     		mov	r0, r1
 333              	.LVL26:
  93:global.c      ****   int index = search_global_object(sym_id, MRBC_GLOBAL_OBJECT);
 334              		.loc 1 93 0
 335 0006 0121     		movs	r1, #1
 336              	.LVL27:
 337 0008 FFF7FEFF 		bl	search_global_object
 338              	.LVL28:
  94:global.c      ****   if( index >= 0 ){
 339              		.loc 1 94 0
 340 000c 051E     		subs	r5, r0, #0
 341 000e 0FDB     		blt	.L26
  95:global.c      ****     mrbc_dup( &mrbc_global[index].obj );
 342              		.loc 1 95 0
 343 0010 0C4E     		ldr	r6, .L29
 344 0012 6F00     		lsls	r7, r5, #1
 345 0014 7B19     		adds	r3, r7, r5
 346 0016 D800     		lsls	r0, r3, #3
 347              	.LVL29:
 348 0018 0830     		adds	r0, r0, #8
 349 001a 3044     		add	r0, r0, r6
 350 001c FFF7FEFF 		bl	mrbc_dup
 351              	.LVL30:
  96:global.c      ****     return mrbc_global[index].obj;
 352              		.loc 1 96 0
 353 0020 3D44     		add	r5, r5, r7
 354              	.LVL31:
 355 0022 EB00     		lsls	r3, r5, #3
ARM GAS  C:\Users\164\AppData\Local\Temp\ccyLpyEa.s 			page 9


 356 0024 3344     		add	r3, r3, r6
 357 0026 0833     		adds	r3, r3, #8
 358 0028 0FCB     		ldmia	r3, {r0, r1, r2, r3}
 359 002a 84E80F00 		stmia	r4, {r0, r1, r2, r3}
 360 002e 06E0     		b	.L25
 361              	.LVL32:
 362              	.L26:
  97:global.c      ****   } else {
  98:global.c      ****     return mrbc_nil_value();
 363              		.loc 1 98 0
 364 0030 0023     		movs	r3, #0
 365 0032 2360     		str	r3, [r4]
 366 0034 6360     		str	r3, [r4, #4]
 367 0036 A360     		str	r3, [r4, #8]
 368 0038 E360     		str	r3, [r4, #12]
 369 003a 0123     		movs	r3, #1
 370 003c 2370     		strb	r3, [r4]
 371              	.LVL33:
 372              	.L25:
  99:global.c      ****   }
 100:global.c      **** }
 373              		.loc 1 100 0
 374 003e 2046     		mov	r0, r4
 375 0040 F8BD     		pop	{r3, r4, r5, r6, r7, pc}
 376              	.LVL34:
 377              	.L30:
 378 0042 00BF     		.align	2
 379              	.L29:
 380 0044 00000000 		.word	.LANCHOR0
 381              		.cfi_endproc
 382              	.LFE99:
 383              		.size	global_object_get, .-global_object_get
 384              		.section	.text.const_object_get,"ax",%progbits
 385              		.align	2
 386              		.global	const_object_get
 387              		.thumb
 388              		.thumb_func
 389              		.type	const_object_get, %function
 390              	const_object_get:
 391              	.LFB100:
 101:global.c      **** 
 102:global.c      **** /* get const */
 103:global.c      **** /* TODO: Integrate with get_global_object */
 104:global.c      **** mrbc_object const_object_get(mrbc_sym sym_id)
 105:global.c      **** {
 392              		.loc 1 105 0
 393              		.cfi_startproc
 394              		@ args = 0, pretend = 0, frame = 16
 395              		@ frame_needed = 0, uses_anonymous_args = 0
 396              	.LVL35:
 397 0000 F0B5     		push	{r4, r5, r6, r7, lr}
 398              		.cfi_def_cfa_offset 20
 399              		.cfi_offset 4, -20
 400              		.cfi_offset 5, -16
 401              		.cfi_offset 6, -12
 402              		.cfi_offset 7, -8
 403              		.cfi_offset 14, -4
ARM GAS  C:\Users\164\AppData\Local\Temp\ccyLpyEa.s 			page 10


 404 0002 85B0     		sub	sp, sp, #20
 405              		.cfi_def_cfa_offset 40
 406 0004 0446     		mov	r4, r0
 407 0006 0846     		mov	r0, r1
 408              	.LVL36:
 106:global.c      ****   int index = search_global_object(sym_id, MRBC_CONST_OBJECT);
 409              		.loc 1 106 0
 410 0008 0221     		movs	r1, #2
 411              	.LVL37:
 412 000a FFF7FEFF 		bl	search_global_object
 413              	.LVL38:
 107:global.c      ****   if( index >= 0 ){
 414              		.loc 1 107 0
 415 000e 051E     		subs	r5, r0, #0
 416 0010 0FDB     		blt	.L32
 108:global.c      ****     mrbc_dup( &mrbc_global[index].obj );
 417              		.loc 1 108 0
 418 0012 0F4E     		ldr	r6, .L35
 419 0014 6F00     		lsls	r7, r5, #1
 420 0016 7B19     		adds	r3, r7, r5
 421 0018 D800     		lsls	r0, r3, #3
 422              	.LVL39:
 423 001a 0830     		adds	r0, r0, #8
 424 001c 3044     		add	r0, r0, r6
 425 001e FFF7FEFF 		bl	mrbc_dup
 426              	.LVL40:
 109:global.c      ****     return mrbc_global[index].obj;
 427              		.loc 1 109 0
 428 0022 3D44     		add	r5, r5, r7
 429              	.LVL41:
 430 0024 EB00     		lsls	r3, r5, #3
 431 0026 3344     		add	r3, r3, r6
 432 0028 0833     		adds	r3, r3, #8
 433 002a 0FCB     		ldmia	r3, {r0, r1, r2, r3}
 434 002c 84E80F00 		stmia	r4, {r0, r1, r2, r3}
 435 0030 0BE0     		b	.L31
 436              	.LVL42:
 437              	.L32:
 110:global.c      ****   } else {
 111:global.c      ****     return mrbc_nil_value();
 438              		.loc 1 111 0
 439 0032 0022     		movs	r2, #0
 440 0034 0092     		str	r2, [sp]
 441 0036 0192     		str	r2, [sp, #4]
 442 0038 0292     		str	r2, [sp, #8]
 443 003a 0392     		str	r2, [sp, #12]
 444 003c 0122     		movs	r2, #1
 445 003e 8DF80020 		strb	r2, [sp]
 446 0042 9DE80F00 		ldmia	sp, {r0, r1, r2, r3}
 447              	.LVL43:
 448 0046 84E80F00 		stmia	r4, {r0, r1, r2, r3}
 449              	.LVL44:
 450              	.L31:
 112:global.c      ****   }
 113:global.c      **** }
 451              		.loc 1 113 0
 452 004a 2046     		mov	r0, r4
ARM GAS  C:\Users\164\AppData\Local\Temp\ccyLpyEa.s 			page 11


 453 004c 05B0     		add	sp, sp, #20
 454              		.cfi_def_cfa_offset 20
 455              		@ sp needed
 456 004e F0BD     		pop	{r4, r5, r6, r7, pc}
 457              	.LVL45:
 458              	.L36:
 459              		.align	2
 460              	.L35:
 461 0050 00000000 		.word	.LANCHOR0
 462              		.cfi_endproc
 463              	.LFE100:
 464              		.size	const_object_get, .-const_object_get
 465              		.section	.text.mrbc_global_clear_vm_id,"ax",%progbits
 466              		.align	2
 467              		.global	mrbc_global_clear_vm_id
 468              		.thumb
 469              		.thumb_func
 470              		.type	mrbc_global_clear_vm_id, %function
 471              	mrbc_global_clear_vm_id:
 472              	.LFB101:
 114:global.c      **** 
 115:global.c      **** 
 116:global.c      **** /* clear vm_id in global object for process terminated. */
 117:global.c      **** void mrbc_global_clear_vm_id(void)
 118:global.c      **** {
 473              		.loc 1 118 0
 474              		.cfi_startproc
 475              		@ args = 0, pretend = 0, frame = 0
 476              		@ frame_needed = 0, uses_anonymous_args = 0
 477 0000 10B5     		push	{r4, lr}
 478              		.cfi_def_cfa_offset 8
 479              		.cfi_offset 4, -8
 480              		.cfi_offset 14, -4
 481              	.LVL46:
 119:global.c      ****   int i;
 120:global.c      ****   for( i = 0; i < global_end; i++ ) {
 482              		.loc 1 120 0
 483 0002 0024     		movs	r4, #0
 484 0004 08E0     		b	.L38
 485              	.LVL47:
 486              	.L39:
 121:global.c      ****     mrbc_clear_vm_id( &mrbc_global[i].obj );
 487              		.loc 1 121 0 discriminator 3
 488 0006 04EB4403 		add	r3, r4, r4, lsl #1
 489 000a D800     		lsls	r0, r3, #3
 490 000c 0830     		adds	r0, r0, #8
 491 000e 054B     		ldr	r3, .L41
 492 0010 1844     		add	r0, r0, r3
 493 0012 FFF7FEFF 		bl	mrbc_clear_vm_id
 494              	.LVL48:
 120:global.c      ****     mrbc_clear_vm_id( &mrbc_global[i].obj );
 495              		.loc 1 120 0 discriminator 3
 496 0016 0134     		adds	r4, r4, #1
 497              	.LVL49:
 498              	.L38:
 120:global.c      ****     mrbc_clear_vm_id( &mrbc_global[i].obj );
 499              		.loc 1 120 0 is_stmt 0 discriminator 1
ARM GAS  C:\Users\164\AppData\Local\Temp\ccyLpyEa.s 			page 12


 500 0018 024B     		ldr	r3, .L41
 501 001a D3F8B034 		ldr	r3, [r3, #1200]
 502 001e 9C42     		cmp	r4, r3
 503 0020 F1DB     		blt	.L39
 122:global.c      ****   }
 123:global.c      **** }
 504              		.loc 1 123 0 is_stmt 1
 505 0022 10BD     		pop	{r4, pc}
 506              	.LVL50:
 507              	.L42:
 508              		.align	2
 509              	.L41:
 510 0024 00000000 		.word	.LANCHOR0
 511              		.cfi_endproc
 512              	.LFE101:
 513              		.size	mrbc_global_clear_vm_id, .-mrbc_global_clear_vm_id
 514              		.section	.rodata
 515              		.align	2
 516              		.set	.LANCHOR1,. + 0
 517              		.type	__func__.7317, %object
 518              		.size	__func__.7317, 18
 519              	__func__.7317:
 520 0000 676C6F62 		.ascii	"global_object_add\000"
 520      616C5F6F 
 520      626A6563 
 520      745F6164 
 520      6400
 521 0012 0000     		.space	2
 522              		.type	__func__.7323, %object
 523              		.size	__func__.7323, 17
 524              	__func__.7323:
 525 0014 636F6E73 		.ascii	"const_object_add\000"
 525      745F6F62 
 525      6A656374 
 525      5F616464 
 525      00
 526              		.section	.rodata.str1.4,"aMS",%progbits,1
 527              		.align	2
 528              	.LC0:
 529 0000 696E6465 		.ascii	"index < MAX_GLOBAL_OBJECT_SIZE\000"
 529      78203C20 
 529      4D41585F 
 529      474C4F42 
 529      414C5F4F 
 530 001f 00       		.space	1
 531              	.LC1:
 532 0020 676C6F62 		.ascii	"global.c\000"
 532      616C2E63 
 532      00
 533              		.bss
 534              		.align	3
 535              		.set	.LANCHOR0,. + 0
 536              		.type	mrbc_global, %object
 537              		.size	mrbc_global, 1200
 538              	mrbc_global:
 539 0000 00000000 		.space	1200
 539      00000000 
ARM GAS  C:\Users\164\AppData\Local\Temp\ccyLpyEa.s 			page 13


 539      00000000 
 539      00000000 
 539      00000000 
 540              		.type	global_end, %object
 541              		.size	global_end, 4
 542              	global_end:
 543 04b0 00000000 		.space	4
 544              		.text
 545              	.Letext0:
 546              		.file 2 "c:\\program files (x86)\\cypress\\psoc creator\\4.2\\psoc creator\\import\\gnu\\arm\\5.4.
 547              		.file 3 "c:\\program files (x86)\\cypress\\psoc creator\\4.2\\psoc creator\\import\\gnu\\arm\\5.4.
 548              		.file 4 "value.h"
 549              		.file 5 "vm.h"
 550              		.file 6 "c_array.h"
 551              		.file 7 "c_string.h"
 552              		.file 8 "c_range.h"
 553              		.file 9 "c_hash.h"
 554              		.file 10 "c:\\program files (x86)\\cypress\\psoc creator\\4.2\\psoc creator\\import\\gnu\\arm\\5.4
 555              		.file 11 "Generated_Source\\PSoC5/core_cm3.h"