ARM GAS  C:\Users\164\AppData\Local\Temp\ccv21Boz.s 			page 1


   1              		.syntax unified
   2              		.cpu cortex-m3
   3              		.fpu softvfp
   4              		.eabi_attribute 20, 1
   5              		.eabi_attribute 21, 1
   6              		.eabi_attribute 23, 3
   7              		.eabi_attribute 24, 1
   8              		.eabi_attribute 25, 1
   9              		.eabi_attribute 26, 1
  10              		.eabi_attribute 30, 1
  11              		.eabi_attribute 34, 1
  12              		.eabi_attribute 18, 4
  13              		.thumb
  14              		.syntax unified
  15              		.file	"keyvalue.c"
  16              		.text
  17              	.Ltext0:
  18              		.cfi_sections	.debug_frame
  19              		.section	.text.binary_search,"ax",%progbits
  20              		.align	2
  21              		.thumb
  22              		.thumb_func
  23              		.type	binary_search, %function
  24              	binary_search:
  25              	.LFB8:
  26              		.file 1 "..\\..\\mruby_c2\\Design01.cydsn\\keyvalue.c"
   1:..\..\mruby_c2\Design01.cydsn/keyvalue.c **** /*! @file
   2:..\..\mruby_c2\Design01.cydsn/keyvalue.c ****   @brief
   3:..\..\mruby_c2\Design01.cydsn/keyvalue.c ****   mruby/c Key(Symbol) - Value store.
   4:..\..\mruby_c2\Design01.cydsn/keyvalue.c **** 
   5:..\..\mruby_c2\Design01.cydsn/keyvalue.c ****   <pre>
   6:..\..\mruby_c2\Design01.cydsn/keyvalue.c ****   Copyright (C) 2015-2018 Kyushu Institute of Technology.
   7:..\..\mruby_c2\Design01.cydsn/keyvalue.c ****   Copyright (C) 2015-2018 Shimane IT Open-Innovation Center.
   8:..\..\mruby_c2\Design01.cydsn/keyvalue.c **** 
   9:..\..\mruby_c2\Design01.cydsn/keyvalue.c ****   This file is distributed under BSD 3-Clause License.
  10:..\..\mruby_c2\Design01.cydsn/keyvalue.c **** 
  11:..\..\mruby_c2\Design01.cydsn/keyvalue.c ****   </pre>
  12:..\..\mruby_c2\Design01.cydsn/keyvalue.c **** */
  13:..\..\mruby_c2\Design01.cydsn/keyvalue.c **** 
  14:..\..\mruby_c2\Design01.cydsn/keyvalue.c **** #include "vm_config.h"
  15:..\..\mruby_c2\Design01.cydsn/keyvalue.c **** #include <stdlib.h>
  16:..\..\mruby_c2\Design01.cydsn/keyvalue.c **** #include <string.h>
  17:..\..\mruby_c2\Design01.cydsn/keyvalue.c **** 
  18:..\..\mruby_c2\Design01.cydsn/keyvalue.c **** #include "value.h"
  19:..\..\mruby_c2\Design01.cydsn/keyvalue.c **** #include "alloc.h"
  20:..\..\mruby_c2\Design01.cydsn/keyvalue.c **** #include "keyvalue.h"
  21:..\..\mruby_c2\Design01.cydsn/keyvalue.c **** 
  22:..\..\mruby_c2\Design01.cydsn/keyvalue.c **** 
  23:..\..\mruby_c2\Design01.cydsn/keyvalue.c **** //================================================================
  24:..\..\mruby_c2\Design01.cydsn/keyvalue.c **** /*! binary search
  25:..\..\mruby_c2\Design01.cydsn/keyvalue.c **** 
  26:..\..\mruby_c2\Design01.cydsn/keyvalue.c ****   @param  kvh		pointer to key-value handle.
  27:..\..\mruby_c2\Design01.cydsn/keyvalue.c ****   @param  sym_id	symbol ID.
  28:..\..\mruby_c2\Design01.cydsn/keyvalue.c ****   @return		result. It's not necessarily found.
  29:..\..\mruby_c2\Design01.cydsn/keyvalue.c **** */
  30:..\..\mruby_c2\Design01.cydsn/keyvalue.c **** static int binary_search(mrb_kv_handle *kvh, mrb_sym sym_id)
  31:..\..\mruby_c2\Design01.cydsn/keyvalue.c **** {
ARM GAS  C:\Users\164\AppData\Local\Temp\ccv21Boz.s 			page 2


  27              		.loc 1 31 0
  28              		.cfi_startproc
  29              		@ args = 0, pretend = 0, frame = 0
  30              		@ frame_needed = 0, uses_anonymous_args = 0
  31              		@ link register save eliminated.
  32              	.LVL0:
  32:..\..\mruby_c2\Design01.cydsn/keyvalue.c ****   int left = 0;
  33:..\..\mruby_c2\Design01.cydsn/keyvalue.c ****   int right = kvh->n_stored - 1;
  33              		.loc 1 33 0
  34 0000 4288     		ldrh	r2, [r0, #2]
  35              	.LVL1:
  34:..\..\mruby_c2\Design01.cydsn/keyvalue.c ****   if( right < 0 ) return -1;
  36              		.loc 1 34 0
  37 0002 013A     		subs	r2, r2, #1
  38              	.LVL2:
  39 0004 14D4     		bmi	.L6
  31:..\..\mruby_c2\Design01.cydsn/keyvalue.c ****   int left = 0;
  40              		.loc 1 31 0
  41 0006 F0B4     		push	{r4, r5, r6, r7}
  42              		.cfi_def_cfa_offset 16
  43              		.cfi_offset 4, -16
  44              		.cfi_offset 5, -12
  45              		.cfi_offset 6, -8
  46              		.cfi_offset 7, -4
  47 0008 0026     		movs	r6, #0
  48 000a 0DE0     		b	.L4
  49              	.LVL3:
  50              	.L5:
  51              	.LBB2:
  35:..\..\mruby_c2\Design01.cydsn/keyvalue.c **** 
  36:..\..\mruby_c2\Design01.cydsn/keyvalue.c ****   while( left < right ) {
  37:..\..\mruby_c2\Design01.cydsn/keyvalue.c ****     int mid = (left + right) / 2;
  52              		.loc 1 37 0
  53 000c B318     		adds	r3, r6, r2
  54 000e 03EBD373 		add	r3, r3, r3, lsr #31
  55 0012 5B10     		asrs	r3, r3, #1
  56              	.LVL4:
  38:..\..\mruby_c2\Design01.cydsn/keyvalue.c ****     if( kvh->data[mid].sym_id < sym_id ) {
  57              		.loc 1 38 0
  58 0014 4768     		ldr	r7, [r0, #4]
  59 0016 03EB4305 		add	r5, r3, r3, lsl #1
  60 001a EC00     		lsls	r4, r5, #3
  61 001c 3C5F     		ldrsh	r4, [r7, r4]
  62 001e 8C42     		cmp	r4, r1
  63 0020 01DA     		bge	.L7
  39:..\..\mruby_c2\Design01.cydsn/keyvalue.c ****       left = mid + 1;
  64              		.loc 1 39 0
  65 0022 5E1C     		adds	r6, r3, #1
  66              	.LVL5:
  67 0024 00E0     		b	.L4
  68              	.L7:
  40:..\..\mruby_c2\Design01.cydsn/keyvalue.c ****     } else {
  41:..\..\mruby_c2\Design01.cydsn/keyvalue.c ****       right = mid;
  69              		.loc 1 41 0
  70 0026 1A46     		mov	r2, r3
  71              	.LVL6:
  72              	.L4:
ARM GAS  C:\Users\164\AppData\Local\Temp\ccv21Boz.s 			page 3


  73              	.LBE2:
  36:..\..\mruby_c2\Design01.cydsn/keyvalue.c ****     int mid = (left + right) / 2;
  74              		.loc 1 36 0
  75 0028 9642     		cmp	r6, r2
  76 002a EFDB     		blt	.L5
  42:..\..\mruby_c2\Design01.cydsn/keyvalue.c ****     }
  43:..\..\mruby_c2\Design01.cydsn/keyvalue.c ****   }
  44:..\..\mruby_c2\Design01.cydsn/keyvalue.c **** 
  45:..\..\mruby_c2\Design01.cydsn/keyvalue.c ****   return left;
  77              		.loc 1 45 0
  78 002c 3046     		mov	r0, r6
  79              	.LVL7:
  80 002e 02E0     		b	.L2
  81              	.LVL8:
  82              	.L6:
  83              		.cfi_def_cfa_offset 0
  84              		.cfi_restore 4
  85              		.cfi_restore 5
  86              		.cfi_restore 6
  87              		.cfi_restore 7
  34:..\..\mruby_c2\Design01.cydsn/keyvalue.c **** 
  88              		.loc 1 34 0
  89 0030 4FF0FF30 		mov	r0, #-1
  90              	.LVL9:
  91 0034 7047     		bx	lr
  92              	.LVL10:
  93              	.L2:
  94              		.cfi_def_cfa_offset 16
  95              		.cfi_offset 4, -16
  96              		.cfi_offset 5, -12
  97              		.cfi_offset 6, -8
  98              		.cfi_offset 7, -4
  46:..\..\mruby_c2\Design01.cydsn/keyvalue.c **** }
  99              		.loc 1 46 0
 100 0036 F0BC     		pop	{r4, r5, r6, r7}
 101              		.cfi_restore 7
 102              		.cfi_restore 6
 103              		.cfi_restore 5
 104              		.cfi_restore 4
 105              		.cfi_def_cfa_offset 0
 106 0038 7047     		bx	lr
 107              		.cfi_endproc
 108              	.LFE8:
 109              		.size	binary_search, .-binary_search
 110 003a 00BF     		.section	.text.compare_key,"ax",%progbits
 111              		.align	2
 112              		.thumb
 113              		.thumb_func
 114              		.type	compare_key, %function
 115              	compare_key:
 116              	.LFB16:
  47:..\..\mruby_c2\Design01.cydsn/keyvalue.c **** 
  48:..\..\mruby_c2\Design01.cydsn/keyvalue.c **** 
  49:..\..\mruby_c2\Design01.cydsn/keyvalue.c **** //================================================================
  50:..\..\mruby_c2\Design01.cydsn/keyvalue.c **** /*! constructor
  51:..\..\mruby_c2\Design01.cydsn/keyvalue.c **** 
  52:..\..\mruby_c2\Design01.cydsn/keyvalue.c ****   @param  vm	pointer to VM.
ARM GAS  C:\Users\164\AppData\Local\Temp\ccv21Boz.s 			page 4


  53:..\..\mruby_c2\Design01.cydsn/keyvalue.c ****   @param  size	initial size.
  54:..\..\mruby_c2\Design01.cydsn/keyvalue.c ****   @return 	Key-Value handle.
  55:..\..\mruby_c2\Design01.cydsn/keyvalue.c **** */
  56:..\..\mruby_c2\Design01.cydsn/keyvalue.c **** mrb_kv_handle * mrbc_kv_new(struct VM *vm, int size)
  57:..\..\mruby_c2\Design01.cydsn/keyvalue.c **** {
  58:..\..\mruby_c2\Design01.cydsn/keyvalue.c ****   /*
  59:..\..\mruby_c2\Design01.cydsn/keyvalue.c ****     Allocate handle and data buffer.
  60:..\..\mruby_c2\Design01.cydsn/keyvalue.c ****   */
  61:..\..\mruby_c2\Design01.cydsn/keyvalue.c ****   mrb_kv_handle *kvh = mrbc_alloc(vm, sizeof(mrb_kv_handle));
  62:..\..\mruby_c2\Design01.cydsn/keyvalue.c ****   if( !kvh ) return NULL;	// ENOMEM
  63:..\..\mruby_c2\Design01.cydsn/keyvalue.c **** 
  64:..\..\mruby_c2\Design01.cydsn/keyvalue.c ****   kvh->data = mrbc_alloc(vm, sizeof(mrb_kv) * size);
  65:..\..\mruby_c2\Design01.cydsn/keyvalue.c ****   if( !kvh->data ) {		// ENOMEM
  66:..\..\mruby_c2\Design01.cydsn/keyvalue.c ****     mrbc_raw_free( kvh );
  67:..\..\mruby_c2\Design01.cydsn/keyvalue.c ****     return NULL;
  68:..\..\mruby_c2\Design01.cydsn/keyvalue.c ****   }
  69:..\..\mruby_c2\Design01.cydsn/keyvalue.c **** 
  70:..\..\mruby_c2\Design01.cydsn/keyvalue.c ****   kvh->data_size = size;
  71:..\..\mruby_c2\Design01.cydsn/keyvalue.c ****   kvh->n_stored = 0;
  72:..\..\mruby_c2\Design01.cydsn/keyvalue.c **** 
  73:..\..\mruby_c2\Design01.cydsn/keyvalue.c ****   return kvh;
  74:..\..\mruby_c2\Design01.cydsn/keyvalue.c **** }
  75:..\..\mruby_c2\Design01.cydsn/keyvalue.c **** 
  76:..\..\mruby_c2\Design01.cydsn/keyvalue.c **** 
  77:..\..\mruby_c2\Design01.cydsn/keyvalue.c **** //================================================================
  78:..\..\mruby_c2\Design01.cydsn/keyvalue.c **** /*! destructor
  79:..\..\mruby_c2\Design01.cydsn/keyvalue.c **** 
  80:..\..\mruby_c2\Design01.cydsn/keyvalue.c ****   @param  kvh	pointer to key-value handle.
  81:..\..\mruby_c2\Design01.cydsn/keyvalue.c **** */
  82:..\..\mruby_c2\Design01.cydsn/keyvalue.c **** void mrbc_kv_delete(mrb_kv_handle *kvh)
  83:..\..\mruby_c2\Design01.cydsn/keyvalue.c **** {
  84:..\..\mruby_c2\Design01.cydsn/keyvalue.c ****   mrbc_kv_clear(kvh);
  85:..\..\mruby_c2\Design01.cydsn/keyvalue.c **** 
  86:..\..\mruby_c2\Design01.cydsn/keyvalue.c ****   mrbc_raw_free(kvh->data);
  87:..\..\mruby_c2\Design01.cydsn/keyvalue.c ****   mrbc_raw_free(kvh);
  88:..\..\mruby_c2\Design01.cydsn/keyvalue.c **** }
  89:..\..\mruby_c2\Design01.cydsn/keyvalue.c **** 
  90:..\..\mruby_c2\Design01.cydsn/keyvalue.c **** 
  91:..\..\mruby_c2\Design01.cydsn/keyvalue.c **** //================================================================
  92:..\..\mruby_c2\Design01.cydsn/keyvalue.c **** /*! clear vm_id
  93:..\..\mruby_c2\Design01.cydsn/keyvalue.c **** 
  94:..\..\mruby_c2\Design01.cydsn/keyvalue.c ****   @param  kvh	pointer to key-value handle.
  95:..\..\mruby_c2\Design01.cydsn/keyvalue.c **** */
  96:..\..\mruby_c2\Design01.cydsn/keyvalue.c **** void mrbc_kv_clear_vm_id(mrb_kv_handle *kvh)
  97:..\..\mruby_c2\Design01.cydsn/keyvalue.c **** {
  98:..\..\mruby_c2\Design01.cydsn/keyvalue.c ****   mrbc_set_vm_id( kvh, 0 );
  99:..\..\mruby_c2\Design01.cydsn/keyvalue.c **** 
 100:..\..\mruby_c2\Design01.cydsn/keyvalue.c ****   mrb_kv *p1 = kvh->data;
 101:..\..\mruby_c2\Design01.cydsn/keyvalue.c ****   const mrb_kv *p2 = p1 + kvh->n_stored;
 102:..\..\mruby_c2\Design01.cydsn/keyvalue.c ****   while( p1 < p2 ) {
 103:..\..\mruby_c2\Design01.cydsn/keyvalue.c ****     mrbc_clear_vm_id(&p1->value);
 104:..\..\mruby_c2\Design01.cydsn/keyvalue.c ****     p1++;
 105:..\..\mruby_c2\Design01.cydsn/keyvalue.c ****   }
 106:..\..\mruby_c2\Design01.cydsn/keyvalue.c **** }
 107:..\..\mruby_c2\Design01.cydsn/keyvalue.c **** 
 108:..\..\mruby_c2\Design01.cydsn/keyvalue.c **** 
 109:..\..\mruby_c2\Design01.cydsn/keyvalue.c **** //================================================================
ARM GAS  C:\Users\164\AppData\Local\Temp\ccv21Boz.s 			page 5


 110:..\..\mruby_c2\Design01.cydsn/keyvalue.c **** /*! resize buffer
 111:..\..\mruby_c2\Design01.cydsn/keyvalue.c **** 
 112:..\..\mruby_c2\Design01.cydsn/keyvalue.c ****   @param  kvh	pointer to key-value handle.
 113:..\..\mruby_c2\Design01.cydsn/keyvalue.c ****   @param  size	size.
 114:..\..\mruby_c2\Design01.cydsn/keyvalue.c ****   @return	mrb_error_code.
 115:..\..\mruby_c2\Design01.cydsn/keyvalue.c **** */
 116:..\..\mruby_c2\Design01.cydsn/keyvalue.c **** int mrbc_kv_resize(mrb_kv_handle *kvh, int size)
 117:..\..\mruby_c2\Design01.cydsn/keyvalue.c **** {
 118:..\..\mruby_c2\Design01.cydsn/keyvalue.c ****   mrb_kv *data2 = mrbc_raw_realloc(kvh->data, sizeof(mrb_kv) * size);
 119:..\..\mruby_c2\Design01.cydsn/keyvalue.c ****   if( !data2 ) return E_NOMEMORY_ERROR;		// ENOMEM
 120:..\..\mruby_c2\Design01.cydsn/keyvalue.c **** 
 121:..\..\mruby_c2\Design01.cydsn/keyvalue.c ****   kvh->data = data2;
 122:..\..\mruby_c2\Design01.cydsn/keyvalue.c ****   kvh->data_size = size;
 123:..\..\mruby_c2\Design01.cydsn/keyvalue.c **** 
 124:..\..\mruby_c2\Design01.cydsn/keyvalue.c ****   return 0;
 125:..\..\mruby_c2\Design01.cydsn/keyvalue.c **** }
 126:..\..\mruby_c2\Design01.cydsn/keyvalue.c **** 
 127:..\..\mruby_c2\Design01.cydsn/keyvalue.c **** 
 128:..\..\mruby_c2\Design01.cydsn/keyvalue.c **** 
 129:..\..\mruby_c2\Design01.cydsn/keyvalue.c **** //================================================================
 130:..\..\mruby_c2\Design01.cydsn/keyvalue.c **** /*! setter
 131:..\..\mruby_c2\Design01.cydsn/keyvalue.c **** 
 132:..\..\mruby_c2\Design01.cydsn/keyvalue.c ****   @param  kvh		pointer to key-value handle.
 133:..\..\mruby_c2\Design01.cydsn/keyvalue.c ****   @param  sym_id	symbol ID.
 134:..\..\mruby_c2\Design01.cydsn/keyvalue.c ****   @param  set_val	set value.
 135:..\..\mruby_c2\Design01.cydsn/keyvalue.c ****   @return		mrb_error_code.
 136:..\..\mruby_c2\Design01.cydsn/keyvalue.c **** */
 137:..\..\mruby_c2\Design01.cydsn/keyvalue.c **** int mrbc_kv_set(mrb_kv_handle *kvh, mrb_sym sym_id, mrb_value *set_val)
 138:..\..\mruby_c2\Design01.cydsn/keyvalue.c **** {
 139:..\..\mruby_c2\Design01.cydsn/keyvalue.c ****   int idx = binary_search(kvh, sym_id);
 140:..\..\mruby_c2\Design01.cydsn/keyvalue.c ****   if( idx < 0 ) {
 141:..\..\mruby_c2\Design01.cydsn/keyvalue.c ****     idx = 0;
 142:..\..\mruby_c2\Design01.cydsn/keyvalue.c ****     goto INSERT_VALUE;
 143:..\..\mruby_c2\Design01.cydsn/keyvalue.c ****   }
 144:..\..\mruby_c2\Design01.cydsn/keyvalue.c **** 
 145:..\..\mruby_c2\Design01.cydsn/keyvalue.c ****   // replace value ?
 146:..\..\mruby_c2\Design01.cydsn/keyvalue.c ****   if( kvh->data[idx].sym_id == sym_id ) {
 147:..\..\mruby_c2\Design01.cydsn/keyvalue.c ****     mrbc_dec_ref_counter( &kvh->data[idx].value );
 148:..\..\mruby_c2\Design01.cydsn/keyvalue.c ****     kvh->data[idx].value = *set_val;
 149:..\..\mruby_c2\Design01.cydsn/keyvalue.c ****     return 0;
 150:..\..\mruby_c2\Design01.cydsn/keyvalue.c ****   }
 151:..\..\mruby_c2\Design01.cydsn/keyvalue.c **** 
 152:..\..\mruby_c2\Design01.cydsn/keyvalue.c ****   if( kvh->data[idx].sym_id < sym_id ) {
 153:..\..\mruby_c2\Design01.cydsn/keyvalue.c ****     idx++;
 154:..\..\mruby_c2\Design01.cydsn/keyvalue.c ****   }
 155:..\..\mruby_c2\Design01.cydsn/keyvalue.c **** 
 156:..\..\mruby_c2\Design01.cydsn/keyvalue.c ****  INSERT_VALUE:
 157:..\..\mruby_c2\Design01.cydsn/keyvalue.c ****   // need resize?
 158:..\..\mruby_c2\Design01.cydsn/keyvalue.c ****   if( kvh->n_stored >= kvh->data_size ) {
 159:..\..\mruby_c2\Design01.cydsn/keyvalue.c ****     if( mrbc_kv_resize(kvh, kvh->data_size + 5) != 0 )
 160:..\..\mruby_c2\Design01.cydsn/keyvalue.c ****       return E_NOMEMORY_ERROR;		// ENOMEM
 161:..\..\mruby_c2\Design01.cydsn/keyvalue.c ****   }
 162:..\..\mruby_c2\Design01.cydsn/keyvalue.c **** 
 163:..\..\mruby_c2\Design01.cydsn/keyvalue.c ****   // need move data?
 164:..\..\mruby_c2\Design01.cydsn/keyvalue.c ****   if( idx < kvh->n_stored ) {
 165:..\..\mruby_c2\Design01.cydsn/keyvalue.c ****     int size = sizeof(mrb_kv) * (kvh->n_stored - idx);
 166:..\..\mruby_c2\Design01.cydsn/keyvalue.c ****     memmove( &kvh->data[idx+1], &kvh->data[idx], size );
ARM GAS  C:\Users\164\AppData\Local\Temp\ccv21Boz.s 			page 6


 167:..\..\mruby_c2\Design01.cydsn/keyvalue.c ****   }
 168:..\..\mruby_c2\Design01.cydsn/keyvalue.c **** 
 169:..\..\mruby_c2\Design01.cydsn/keyvalue.c ****   kvh->data[idx].sym_id = sym_id;
 170:..\..\mruby_c2\Design01.cydsn/keyvalue.c ****   kvh->data[idx].value = *set_val;
 171:..\..\mruby_c2\Design01.cydsn/keyvalue.c ****   kvh->n_stored++;
 172:..\..\mruby_c2\Design01.cydsn/keyvalue.c **** 
 173:..\..\mruby_c2\Design01.cydsn/keyvalue.c ****   return 0;
 174:..\..\mruby_c2\Design01.cydsn/keyvalue.c **** }
 175:..\..\mruby_c2\Design01.cydsn/keyvalue.c **** 
 176:..\..\mruby_c2\Design01.cydsn/keyvalue.c **** 
 177:..\..\mruby_c2\Design01.cydsn/keyvalue.c **** 
 178:..\..\mruby_c2\Design01.cydsn/keyvalue.c **** //================================================================
 179:..\..\mruby_c2\Design01.cydsn/keyvalue.c **** /*! getter
 180:..\..\mruby_c2\Design01.cydsn/keyvalue.c **** 
 181:..\..\mruby_c2\Design01.cydsn/keyvalue.c ****   @param  kvh		pointer to key-value handle.
 182:..\..\mruby_c2\Design01.cydsn/keyvalue.c ****   @param  sym_id	symbol ID.
 183:..\..\mruby_c2\Design01.cydsn/keyvalue.c ****   @return		pointer to mrb_value or NULL.
 184:..\..\mruby_c2\Design01.cydsn/keyvalue.c **** */
 185:..\..\mruby_c2\Design01.cydsn/keyvalue.c **** mrb_value * mrbc_kv_get(mrb_kv_handle *kvh, mrb_sym sym_id)
 186:..\..\mruby_c2\Design01.cydsn/keyvalue.c **** {
 187:..\..\mruby_c2\Design01.cydsn/keyvalue.c ****   int idx = binary_search(kvh, sym_id);
 188:..\..\mruby_c2\Design01.cydsn/keyvalue.c ****   if( idx < 0 ) return NULL;
 189:..\..\mruby_c2\Design01.cydsn/keyvalue.c ****   if( kvh->data[idx].sym_id != sym_id ) return NULL;
 190:..\..\mruby_c2\Design01.cydsn/keyvalue.c **** 
 191:..\..\mruby_c2\Design01.cydsn/keyvalue.c ****   return &kvh->data[idx].value;
 192:..\..\mruby_c2\Design01.cydsn/keyvalue.c **** }
 193:..\..\mruby_c2\Design01.cydsn/keyvalue.c **** 
 194:..\..\mruby_c2\Design01.cydsn/keyvalue.c **** 
 195:..\..\mruby_c2\Design01.cydsn/keyvalue.c **** 
 196:..\..\mruby_c2\Design01.cydsn/keyvalue.c **** //================================================================
 197:..\..\mruby_c2\Design01.cydsn/keyvalue.c **** /*! setter - only append tail
 198:..\..\mruby_c2\Design01.cydsn/keyvalue.c **** 
 199:..\..\mruby_c2\Design01.cydsn/keyvalue.c ****   @param  kvh		pointer to key-value handle.
 200:..\..\mruby_c2\Design01.cydsn/keyvalue.c ****   @param  sym_id	symbol ID.
 201:..\..\mruby_c2\Design01.cydsn/keyvalue.c ****   @param  set_val	set value.
 202:..\..\mruby_c2\Design01.cydsn/keyvalue.c ****   @return		mrb_error_code.
 203:..\..\mruby_c2\Design01.cydsn/keyvalue.c **** */
 204:..\..\mruby_c2\Design01.cydsn/keyvalue.c **** int mrbc_kv_append(mrb_kv_handle *kvh, mrb_sym sym_id, mrb_value *set_val)
 205:..\..\mruby_c2\Design01.cydsn/keyvalue.c **** {
 206:..\..\mruby_c2\Design01.cydsn/keyvalue.c ****   // need resize?
 207:..\..\mruby_c2\Design01.cydsn/keyvalue.c ****   if( kvh->n_stored >= kvh->data_size ) {
 208:..\..\mruby_c2\Design01.cydsn/keyvalue.c ****     if( mrbc_kv_resize(kvh, kvh->data_size + 5) != 0 )
 209:..\..\mruby_c2\Design01.cydsn/keyvalue.c ****       return E_NOMEMORY_ERROR;		// ENOMEM
 210:..\..\mruby_c2\Design01.cydsn/keyvalue.c ****   }
 211:..\..\mruby_c2\Design01.cydsn/keyvalue.c **** 
 212:..\..\mruby_c2\Design01.cydsn/keyvalue.c ****   kvh->data[kvh->n_stored].sym_id = sym_id;
 213:..\..\mruby_c2\Design01.cydsn/keyvalue.c ****   kvh->data[kvh->n_stored].value = *set_val;
 214:..\..\mruby_c2\Design01.cydsn/keyvalue.c ****   kvh->n_stored++;
 215:..\..\mruby_c2\Design01.cydsn/keyvalue.c **** 
 216:..\..\mruby_c2\Design01.cydsn/keyvalue.c ****   return 0;
 217:..\..\mruby_c2\Design01.cydsn/keyvalue.c **** }
 218:..\..\mruby_c2\Design01.cydsn/keyvalue.c **** 
 219:..\..\mruby_c2\Design01.cydsn/keyvalue.c **** 
 220:..\..\mruby_c2\Design01.cydsn/keyvalue.c **** 
 221:..\..\mruby_c2\Design01.cydsn/keyvalue.c **** static int compare_key( const void *kv1, const void *kv2 )
 222:..\..\mruby_c2\Design01.cydsn/keyvalue.c **** {
 117              		.loc 1 222 0
ARM GAS  C:\Users\164\AppData\Local\Temp\ccv21Boz.s 			page 7


 118              		.cfi_startproc
 119              		@ args = 0, pretend = 0, frame = 0
 120              		@ frame_needed = 0, uses_anonymous_args = 0
 121              		@ link register save eliminated.
 122              	.LVL11:
 223:..\..\mruby_c2\Design01.cydsn/keyvalue.c ****   return ((mrb_kv *)kv1)->sym_id - ((mrb_kv *)kv2)->sym_id;
 123              		.loc 1 223 0
 124 0000 B0F90000 		ldrsh	r0, [r0]
 125              	.LVL12:
 126 0004 B1F90030 		ldrsh	r3, [r1]
 224:..\..\mruby_c2\Design01.cydsn/keyvalue.c **** }
 127              		.loc 1 224 0
 128 0008 C01A     		subs	r0, r0, r3
 129 000a 7047     		bx	lr
 130              		.cfi_endproc
 131              	.LFE16:
 132              		.size	compare_key, .-compare_key
 133              		.section	.text.mrbc_kv_new,"ax",%progbits
 134              		.align	2
 135              		.global	mrbc_kv_new
 136              		.thumb
 137              		.thumb_func
 138              		.type	mrbc_kv_new, %function
 139              	mrbc_kv_new:
 140              	.LFB9:
  57:..\..\mruby_c2\Design01.cydsn/keyvalue.c ****   /*
 141              		.loc 1 57 0
 142              		.cfi_startproc
 143              		@ args = 0, pretend = 0, frame = 0
 144              		@ frame_needed = 0, uses_anonymous_args = 0
 145              	.LVL13:
 146 0000 70B5     		push	{r4, r5, r6, lr}
 147              		.cfi_def_cfa_offset 16
 148              		.cfi_offset 4, -16
 149              		.cfi_offset 5, -12
 150              		.cfi_offset 6, -8
 151              		.cfi_offset 14, -4
 152 0002 0646     		mov	r6, r0
 153 0004 0D46     		mov	r5, r1
  61:..\..\mruby_c2\Design01.cydsn/keyvalue.c ****   if( !kvh ) return NULL;	// ENOMEM
 154              		.loc 1 61 0
 155 0006 0821     		movs	r1, #8
 156              	.LVL14:
 157 0008 FFF7FEFF 		bl	mrbc_alloc
 158              	.LVL15:
  62:..\..\mruby_c2\Design01.cydsn/keyvalue.c **** 
 159              		.loc 1 62 0
 160 000c 90B1     		cbz	r0, .L14
 161 000e 0446     		mov	r4, r0
  64:..\..\mruby_c2\Design01.cydsn/keyvalue.c ****   if( !kvh->data ) {		// ENOMEM
 162              		.loc 1 64 0
 163 0010 05EB4503 		add	r3, r5, r5, lsl #1
 164 0014 D900     		lsls	r1, r3, #3
 165 0016 3046     		mov	r0, r6
 166              	.LVL16:
 167 0018 FFF7FEFF 		bl	mrbc_alloc
 168              	.LVL17:
ARM GAS  C:\Users\164\AppData\Local\Temp\ccv21Boz.s 			page 8


 169 001c 6060     		str	r0, [r4, #4]
  65:..\..\mruby_c2\Design01.cydsn/keyvalue.c ****     mrbc_raw_free( kvh );
 170              		.loc 1 65 0
 171 001e 20B9     		cbnz	r0, .L13
  66:..\..\mruby_c2\Design01.cydsn/keyvalue.c ****     return NULL;
 172              		.loc 1 66 0
 173 0020 2046     		mov	r0, r4
 174 0022 FFF7FEFF 		bl	mrbc_raw_free
 175              	.LVL18:
  67:..\..\mruby_c2\Design01.cydsn/keyvalue.c ****   }
 176              		.loc 1 67 0
 177 0026 0020     		movs	r0, #0
 178 0028 70BD     		pop	{r4, r5, r6, pc}
 179              	.LVL19:
 180              	.L13:
  70:..\..\mruby_c2\Design01.cydsn/keyvalue.c ****   kvh->n_stored = 0;
 181              		.loc 1 70 0
 182 002a 2580     		strh	r5, [r4]	@ movhi
  71:..\..\mruby_c2\Design01.cydsn/keyvalue.c **** 
 183              		.loc 1 71 0
 184 002c 0023     		movs	r3, #0
 185 002e 6380     		strh	r3, [r4, #2]	@ movhi
  73:..\..\mruby_c2\Design01.cydsn/keyvalue.c **** }
 186              		.loc 1 73 0
 187 0030 2046     		mov	r0, r4
 188 0032 70BD     		pop	{r4, r5, r6, pc}
 189              	.LVL20:
 190              	.L14:
  62:..\..\mruby_c2\Design01.cydsn/keyvalue.c **** 
 191              		.loc 1 62 0
 192 0034 0020     		movs	r0, #0
 193              	.LVL21:
  74:..\..\mruby_c2\Design01.cydsn/keyvalue.c **** 
 194              		.loc 1 74 0
 195 0036 70BD     		pop	{r4, r5, r6, pc}
 196              		.cfi_endproc
 197              	.LFE9:
 198              		.size	mrbc_kv_new, .-mrbc_kv_new
 199              		.section	.text.mrbc_kv_clear_vm_id,"ax",%progbits
 200              		.align	2
 201              		.global	mrbc_kv_clear_vm_id
 202              		.thumb
 203              		.thumb_func
 204              		.type	mrbc_kv_clear_vm_id, %function
 205              	mrbc_kv_clear_vm_id:
 206              	.LFB11:
  97:..\..\mruby_c2\Design01.cydsn/keyvalue.c ****   mrbc_set_vm_id( kvh, 0 );
 207              		.loc 1 97 0
 208              		.cfi_startproc
 209              		@ args = 0, pretend = 0, frame = 0
 210              		@ frame_needed = 0, uses_anonymous_args = 0
 211              	.LVL22:
 212 0000 38B5     		push	{r3, r4, r5, lr}
 213              		.cfi_def_cfa_offset 16
 214              		.cfi_offset 3, -16
 215              		.cfi_offset 4, -12
 216              		.cfi_offset 5, -8
ARM GAS  C:\Users\164\AppData\Local\Temp\ccv21Boz.s 			page 9


 217              		.cfi_offset 14, -4
 218 0002 0546     		mov	r5, r0
  98:..\..\mruby_c2\Design01.cydsn/keyvalue.c **** 
 219              		.loc 1 98 0
 220 0004 0021     		movs	r1, #0
 221 0006 FFF7FEFF 		bl	mrbc_set_vm_id
 222              	.LVL23:
 100:..\..\mruby_c2\Design01.cydsn/keyvalue.c ****   const mrb_kv *p2 = p1 + kvh->n_stored;
 223              		.loc 1 100 0
 224 000a 6C68     		ldr	r4, [r5, #4]
 225              	.LVL24:
 101:..\..\mruby_c2\Design01.cydsn/keyvalue.c ****   while( p1 < p2 ) {
 226              		.loc 1 101 0
 227 000c 6B88     		ldrh	r3, [r5, #2]
 228 000e 03EB4303 		add	r3, r3, r3, lsl #1
 229 0012 DD00     		lsls	r5, r3, #3
 230              	.LVL25:
 231 0014 2544     		add	r5, r5, r4
 232              	.LVL26:
 102:..\..\mruby_c2\Design01.cydsn/keyvalue.c ****     mrbc_clear_vm_id(&p1->value);
 233              		.loc 1 102 0
 234 0016 04E0     		b	.L17
 235              	.L18:
 103:..\..\mruby_c2\Design01.cydsn/keyvalue.c ****     p1++;
 236              		.loc 1 103 0
 237 0018 04F10800 		add	r0, r4, #8
 238 001c FFF7FEFF 		bl	mrbc_clear_vm_id
 239              	.LVL27:
 104:..\..\mruby_c2\Design01.cydsn/keyvalue.c ****   }
 240              		.loc 1 104 0
 241 0020 1834     		adds	r4, r4, #24
 242              	.LVL28:
 243              	.L17:
 102:..\..\mruby_c2\Design01.cydsn/keyvalue.c ****     mrbc_clear_vm_id(&p1->value);
 244              		.loc 1 102 0
 245 0022 AC42     		cmp	r4, r5
 246 0024 F8D3     		bcc	.L18
 106:..\..\mruby_c2\Design01.cydsn/keyvalue.c **** 
 247              		.loc 1 106 0
 248 0026 38BD     		pop	{r3, r4, r5, pc}
 249              		.cfi_endproc
 250              	.LFE11:
 251              		.size	mrbc_kv_clear_vm_id, .-mrbc_kv_clear_vm_id
 252              		.section	.text.mrbc_kv_resize,"ax",%progbits
 253              		.align	2
 254              		.global	mrbc_kv_resize
 255              		.thumb
 256              		.thumb_func
 257              		.type	mrbc_kv_resize, %function
 258              	mrbc_kv_resize:
 259              	.LFB12:
 117:..\..\mruby_c2\Design01.cydsn/keyvalue.c ****   mrb_kv *data2 = mrbc_raw_realloc(kvh->data, sizeof(mrb_kv) * size);
 260              		.loc 1 117 0
 261              		.cfi_startproc
 262              		@ args = 0, pretend = 0, frame = 0
 263              		@ frame_needed = 0, uses_anonymous_args = 0
 264              	.LVL29:
ARM GAS  C:\Users\164\AppData\Local\Temp\ccv21Boz.s 			page 10


 265 0000 38B5     		push	{r3, r4, r5, lr}
 266              		.cfi_def_cfa_offset 16
 267              		.cfi_offset 3, -16
 268              		.cfi_offset 4, -12
 269              		.cfi_offset 5, -8
 270              		.cfi_offset 14, -4
 271 0002 0546     		mov	r5, r0
 272 0004 0C46     		mov	r4, r1
 118:..\..\mruby_c2\Design01.cydsn/keyvalue.c ****   if( !data2 ) return E_NOMEMORY_ERROR;		// ENOMEM
 273              		.loc 1 118 0
 274 0006 01EB4103 		add	r3, r1, r1, lsl #1
 275 000a D900     		lsls	r1, r3, #3
 276              	.LVL30:
 277 000c 4068     		ldr	r0, [r0, #4]
 278              	.LVL31:
 279 000e FFF7FEFF 		bl	mrbc_raw_realloc
 280              	.LVL32:
 119:..\..\mruby_c2\Design01.cydsn/keyvalue.c **** 
 281              		.loc 1 119 0
 282 0012 18B1     		cbz	r0, .L22
 121:..\..\mruby_c2\Design01.cydsn/keyvalue.c ****   kvh->data_size = size;
 283              		.loc 1 121 0
 284 0014 6860     		str	r0, [r5, #4]
 122:..\..\mruby_c2\Design01.cydsn/keyvalue.c **** 
 285              		.loc 1 122 0
 286 0016 2C80     		strh	r4, [r5]	@ movhi
 124:..\..\mruby_c2\Design01.cydsn/keyvalue.c **** }
 287              		.loc 1 124 0
 288 0018 0020     		movs	r0, #0
 289              	.LVL33:
 290 001a 38BD     		pop	{r3, r4, r5, pc}
 291              	.LVL34:
 292              	.L22:
 119:..\..\mruby_c2\Design01.cydsn/keyvalue.c **** 
 293              		.loc 1 119 0
 294 001c 0120     		movs	r0, #1
 295              	.LVL35:
 125:..\..\mruby_c2\Design01.cydsn/keyvalue.c **** 
 296              		.loc 1 125 0
 297 001e 38BD     		pop	{r3, r4, r5, pc}
 298              		.cfi_endproc
 299              	.LFE12:
 300              		.size	mrbc_kv_resize, .-mrbc_kv_resize
 301              		.section	.text.mrbc_kv_set,"ax",%progbits
 302              		.align	2
 303              		.global	mrbc_kv_set
 304              		.thumb
 305              		.thumb_func
 306              		.type	mrbc_kv_set, %function
 307              	mrbc_kv_set:
 308              	.LFB13:
 138:..\..\mruby_c2\Design01.cydsn/keyvalue.c ****   int idx = binary_search(kvh, sym_id);
 309              		.loc 1 138 0
 310              		.cfi_startproc
 311              		@ args = 0, pretend = 0, frame = 0
 312              		@ frame_needed = 0, uses_anonymous_args = 0
 313              	.LVL36:
ARM GAS  C:\Users\164\AppData\Local\Temp\ccv21Boz.s 			page 11


 314 0000 2DE9F041 		push	{r4, r5, r6, r7, r8, lr}
 315              		.cfi_def_cfa_offset 24
 316              		.cfi_offset 4, -24
 317              		.cfi_offset 5, -20
 318              		.cfi_offset 6, -16
 319              		.cfi_offset 7, -12
 320              		.cfi_offset 8, -8
 321              		.cfi_offset 14, -4
 322 0004 0546     		mov	r5, r0
 323 0006 8846     		mov	r8, r1
 324 0008 1646     		mov	r6, r2
 139:..\..\mruby_c2\Design01.cydsn/keyvalue.c ****   if( idx < 0 ) {
 325              		.loc 1 139 0
 326 000a FFF7FEFF 		bl	binary_search
 327              	.LVL37:
 140:..\..\mruby_c2\Design01.cydsn/keyvalue.c ****     idx = 0;
 328              		.loc 1 140 0
 329 000e 041E     		subs	r4, r0, #0
 330 0010 18DB     		blt	.L30
 146:..\..\mruby_c2\Design01.cydsn/keyvalue.c ****     mrbc_dec_ref_counter( &kvh->data[idx].value );
 331              		.loc 1 146 0
 332 0012 6B68     		ldr	r3, [r5, #4]
 333 0014 04EB4402 		add	r2, r4, r4, lsl #1
 334 0018 D700     		lsls	r7, r2, #3
 335 001a D819     		adds	r0, r3, r7
 336              	.LVL38:
 337 001c DB5F     		ldrsh	r3, [r3, r7]
 338 001e 9845     		cmp	r8, r3
 339 0020 0CD1     		bne	.L26
 147:..\..\mruby_c2\Design01.cydsn/keyvalue.c ****     kvh->data[idx].value = *set_val;
 340              		.loc 1 147 0
 341 0022 0830     		adds	r0, r0, #8
 342 0024 FFF7FEFF 		bl	mrbc_dec_ref_counter
 343              	.LVL39:
 148:..\..\mruby_c2\Design01.cydsn/keyvalue.c ****     return 0;
 344              		.loc 1 148 0
 345 0028 6B68     		ldr	r3, [r5, #4]
 346 002a 1F44     		add	r7, r7, r3
 347 002c 0837     		adds	r7, r7, #8
 348 002e 96E80F00 		ldmia	r6, {r0, r1, r2, r3}
 349 0032 87E80F00 		stmia	r7, {r0, r1, r2, r3}
 149:..\..\mruby_c2\Design01.cydsn/keyvalue.c ****   }
 350              		.loc 1 149 0
 351 0036 0020     		movs	r0, #0
 352 0038 BDE8F081 		pop	{r4, r5, r6, r7, r8, pc}
 353              	.LVL40:
 354              	.L26:
 152:..\..\mruby_c2\Design01.cydsn/keyvalue.c ****     idx++;
 355              		.loc 1 152 0
 356 003c 9845     		cmp	r8, r3
 357 003e 02DD     		ble	.L25
 153:..\..\mruby_c2\Design01.cydsn/keyvalue.c ****   }
 358              		.loc 1 153 0
 359 0040 0134     		adds	r4, r4, #1
 360              	.LVL41:
 361 0042 00E0     		b	.L25
 362              	.LVL42:
ARM GAS  C:\Users\164\AppData\Local\Temp\ccv21Boz.s 			page 12


 363              	.L30:
 141:..\..\mruby_c2\Design01.cydsn/keyvalue.c ****     goto INSERT_VALUE;
 364              		.loc 1 141 0
 365 0044 0024     		movs	r4, #0
 366              	.LVL43:
 367              	.L25:
 158:..\..\mruby_c2\Design01.cydsn/keyvalue.c ****     if( mrbc_kv_resize(kvh, kvh->data_size + 5) != 0 )
 368              		.loc 1 158 0
 369 0046 6B88     		ldrh	r3, [r5, #2]
 370 0048 2988     		ldrh	r1, [r5]
 371 004a 8B42     		cmp	r3, r1
 372 004c 04D3     		bcc	.L28
 159:..\..\mruby_c2\Design01.cydsn/keyvalue.c ****       return E_NOMEMORY_ERROR;		// ENOMEM
 373              		.loc 1 159 0
 374 004e 0531     		adds	r1, r1, #5
 375 0050 2846     		mov	r0, r5
 376 0052 FFF7FEFF 		bl	mrbc_kv_resize
 377              	.LVL44:
 378 0056 28BB     		cbnz	r0, .L31
 379              	.L28:
 164:..\..\mruby_c2\Design01.cydsn/keyvalue.c ****     int size = sizeof(mrb_kv) * (kvh->n_stored - idx);
 380              		.loc 1 164 0
 381 0058 6B88     		ldrh	r3, [r5, #2]
 382 005a 9C42     		cmp	r4, r3
 383 005c 0FDA     		bge	.L29
 384              	.LBB3:
 165:..\..\mruby_c2\Design01.cydsn/keyvalue.c ****     memmove( &kvh->data[idx+1], &kvh->data[idx], size );
 385              		.loc 1 165 0
 386 005e 1B1B     		subs	r3, r3, r4
 387 0060 03EB4303 		add	r3, r3, r3, lsl #1
 388 0064 DA00     		lsls	r2, r3, #3
 389              	.LVL45:
 166:..\..\mruby_c2\Design01.cydsn/keyvalue.c ****   }
 390              		.loc 1 166 0
 391 0066 6F68     		ldr	r7, [r5, #4]
 392 0068 631C     		adds	r3, r4, #1
 393 006a 03EB4303 		add	r3, r3, r3, lsl #1
 394 006e D800     		lsls	r0, r3, #3
 395 0070 04EB4403 		add	r3, r4, r4, lsl #1
 396 0074 D900     		lsls	r1, r3, #3
 397 0076 3944     		add	r1, r1, r7
 398 0078 3844     		add	r0, r0, r7
 399 007a FFF7FEFF 		bl	memmove
 400              	.LVL46:
 401              	.L29:
 402              	.LBE3:
 169:..\..\mruby_c2\Design01.cydsn/keyvalue.c ****   kvh->data[idx].value = *set_val;
 403              		.loc 1 169 0
 404 007e 6A68     		ldr	r2, [r5, #4]
 405 0080 04EB4404 		add	r4, r4, r4, lsl #1
 406              	.LVL47:
 407 0084 E300     		lsls	r3, r4, #3
 408 0086 22F80380 		strh	r8, [r2, r3]	@ movhi
 170:..\..\mruby_c2\Design01.cydsn/keyvalue.c ****   kvh->n_stored++;
 409              		.loc 1 170 0
 410 008a 6C68     		ldr	r4, [r5, #4]
 411 008c 1C44     		add	r4, r4, r3
ARM GAS  C:\Users\164\AppData\Local\Temp\ccv21Boz.s 			page 13


 412 008e 0834     		adds	r4, r4, #8
 413 0090 96E80F00 		ldmia	r6, {r0, r1, r2, r3}
 414 0094 84E80F00 		stmia	r4, {r0, r1, r2, r3}
 171:..\..\mruby_c2\Design01.cydsn/keyvalue.c **** 
 415              		.loc 1 171 0
 416 0098 6B88     		ldrh	r3, [r5, #2]
 417 009a 0133     		adds	r3, r3, #1
 418 009c 6B80     		strh	r3, [r5, #2]	@ movhi
 173:..\..\mruby_c2\Design01.cydsn/keyvalue.c **** }
 419              		.loc 1 173 0
 420 009e 0020     		movs	r0, #0
 421 00a0 BDE8F081 		pop	{r4, r5, r6, r7, r8, pc}
 422              	.LVL48:
 423              	.L31:
 160:..\..\mruby_c2\Design01.cydsn/keyvalue.c ****   }
 424              		.loc 1 160 0
 425 00a4 0120     		movs	r0, #1
 174:..\..\mruby_c2\Design01.cydsn/keyvalue.c **** 
 426              		.loc 1 174 0
 427 00a6 BDE8F081 		pop	{r4, r5, r6, r7, r8, pc}
 428              		.cfi_endproc
 429              	.LFE13:
 430              		.size	mrbc_kv_set, .-mrbc_kv_set
 431 00aa 00BF     		.section	.text.mrbc_kv_get,"ax",%progbits
 432              		.align	2
 433              		.global	mrbc_kv_get
 434              		.thumb
 435              		.thumb_func
 436              		.type	mrbc_kv_get, %function
 437              	mrbc_kv_get:
 438              	.LFB14:
 186:..\..\mruby_c2\Design01.cydsn/keyvalue.c ****   int idx = binary_search(kvh, sym_id);
 439              		.loc 1 186 0
 440              		.cfi_startproc
 441              		@ args = 0, pretend = 0, frame = 0
 442              		@ frame_needed = 0, uses_anonymous_args = 0
 443              	.LVL49:
 444 0000 38B5     		push	{r3, r4, r5, lr}
 445              		.cfi_def_cfa_offset 16
 446              		.cfi_offset 3, -16
 447              		.cfi_offset 4, -12
 448              		.cfi_offset 5, -8
 449              		.cfi_offset 14, -4
 450 0002 0546     		mov	r5, r0
 451 0004 0C46     		mov	r4, r1
 187:..\..\mruby_c2\Design01.cydsn/keyvalue.c ****   if( idx < 0 ) return NULL;
 452              		.loc 1 187 0
 453 0006 FFF7FEFF 		bl	binary_search
 454              	.LVL50:
 188:..\..\mruby_c2\Design01.cydsn/keyvalue.c ****   if( kvh->data[idx].sym_id != sym_id ) return NULL;
 455              		.loc 1 188 0
 456 000a 0028     		cmp	r0, #0
 457 000c 09DB     		blt	.L35
 189:..\..\mruby_c2\Design01.cydsn/keyvalue.c **** 
 458              		.loc 1 189 0
 459 000e 6A68     		ldr	r2, [r5, #4]
 460 0010 00EB4000 		add	r0, r0, r0, lsl #1
ARM GAS  C:\Users\164\AppData\Local\Temp\ccv21Boz.s 			page 14


 461              	.LVL51:
 462 0014 C300     		lsls	r3, r0, #3
 463 0016 D018     		adds	r0, r2, r3
 464 0018 D35E     		ldrsh	r3, [r2, r3]
 465 001a 9C42     		cmp	r4, r3
 466 001c 03D1     		bne	.L36
 191:..\..\mruby_c2\Design01.cydsn/keyvalue.c **** }
 467              		.loc 1 191 0
 468 001e 0830     		adds	r0, r0, #8
 469 0020 38BD     		pop	{r3, r4, r5, pc}
 470              	.LVL52:
 471              	.L35:
 188:..\..\mruby_c2\Design01.cydsn/keyvalue.c ****   if( kvh->data[idx].sym_id != sym_id ) return NULL;
 472              		.loc 1 188 0
 473 0022 0020     		movs	r0, #0
 474              	.LVL53:
 475 0024 38BD     		pop	{r3, r4, r5, pc}
 476              	.LVL54:
 477              	.L36:
 189:..\..\mruby_c2\Design01.cydsn/keyvalue.c **** 
 478              		.loc 1 189 0
 479 0026 0020     		movs	r0, #0
 192:..\..\mruby_c2\Design01.cydsn/keyvalue.c **** 
 480              		.loc 1 192 0
 481 0028 38BD     		pop	{r3, r4, r5, pc}
 482              		.cfi_endproc
 483              	.LFE14:
 484              		.size	mrbc_kv_get, .-mrbc_kv_get
 485 002a 00BF     		.section	.text.mrbc_kv_append,"ax",%progbits
 486              		.align	2
 487              		.global	mrbc_kv_append
 488              		.thumb
 489              		.thumb_func
 490              		.type	mrbc_kv_append, %function
 491              	mrbc_kv_append:
 492              	.LFB15:
 205:..\..\mruby_c2\Design01.cydsn/keyvalue.c ****   // need resize?
 493              		.loc 1 205 0
 494              		.cfi_startproc
 495              		@ args = 0, pretend = 0, frame = 0
 496              		@ frame_needed = 0, uses_anonymous_args = 0
 497              	.LVL55:
 498 0000 70B5     		push	{r4, r5, r6, lr}
 499              		.cfi_def_cfa_offset 16
 500              		.cfi_offset 4, -16
 501              		.cfi_offset 5, -12
 502              		.cfi_offset 6, -8
 503              		.cfi_offset 14, -4
 504 0002 0546     		mov	r5, r0
 505 0004 0C46     		mov	r4, r1
 506 0006 1646     		mov	r6, r2
 207:..\..\mruby_c2\Design01.cydsn/keyvalue.c ****     if( mrbc_kv_resize(kvh, kvh->data_size + 5) != 0 )
 507              		.loc 1 207 0
 508 0008 4388     		ldrh	r3, [r0, #2]
 509 000a 0188     		ldrh	r1, [r0]
 510              	.LVL56:
 511 000c 8B42     		cmp	r3, r1
ARM GAS  C:\Users\164\AppData\Local\Temp\ccv21Boz.s 			page 15


 512 000e 03D3     		bcc	.L39
 208:..\..\mruby_c2\Design01.cydsn/keyvalue.c ****       return E_NOMEMORY_ERROR;		// ENOMEM
 513              		.loc 1 208 0
 514 0010 0531     		adds	r1, r1, #5
 515 0012 FFF7FEFF 		bl	mrbc_kv_resize
 516              	.LVL57:
 517 0016 A8B9     		cbnz	r0, .L41
 518              	.L39:
 212:..\..\mruby_c2\Design01.cydsn/keyvalue.c ****   kvh->data[kvh->n_stored].value = *set_val;
 519              		.loc 1 212 0
 520 0018 6968     		ldr	r1, [r5, #4]
 521 001a 6B88     		ldrh	r3, [r5, #2]
 522 001c 03EB4303 		add	r3, r3, r3, lsl #1
 523 0020 DA00     		lsls	r2, r3, #3
 524 0022 8C52     		strh	r4, [r1, r2]	@ movhi
 213:..\..\mruby_c2\Design01.cydsn/keyvalue.c ****   kvh->n_stored++;
 525              		.loc 1 213 0
 526 0024 6C68     		ldr	r4, [r5, #4]
 527 0026 6A88     		ldrh	r2, [r5, #2]
 528 0028 02EB4202 		add	r2, r2, r2, lsl #1
 529 002c D300     		lsls	r3, r2, #3
 530 002e 1C44     		add	r4, r4, r3
 531 0030 0834     		adds	r4, r4, #8
 532 0032 96E80F00 		ldmia	r6, {r0, r1, r2, r3}
 533 0036 84E80F00 		stmia	r4, {r0, r1, r2, r3}
 214:..\..\mruby_c2\Design01.cydsn/keyvalue.c **** 
 534              		.loc 1 214 0
 535 003a 6B88     		ldrh	r3, [r5, #2]
 536 003c 0133     		adds	r3, r3, #1
 537 003e 6B80     		strh	r3, [r5, #2]	@ movhi
 216:..\..\mruby_c2\Design01.cydsn/keyvalue.c **** }
 538              		.loc 1 216 0
 539 0040 0020     		movs	r0, #0
 540 0042 70BD     		pop	{r4, r5, r6, pc}
 541              	.LVL58:
 542              	.L41:
 209:..\..\mruby_c2\Design01.cydsn/keyvalue.c ****   }
 543              		.loc 1 209 0
 544 0044 0120     		movs	r0, #1
 217:..\..\mruby_c2\Design01.cydsn/keyvalue.c **** 
 545              		.loc 1 217 0
 546 0046 70BD     		pop	{r4, r5, r6, pc}
 547              		.cfi_endproc
 548              	.LFE15:
 549              		.size	mrbc_kv_append, .-mrbc_kv_append
 550              		.section	.text.mrbc_kv_reorder,"ax",%progbits
 551              		.align	2
 552              		.global	mrbc_kv_reorder
 553              		.thumb
 554              		.thumb_func
 555              		.type	mrbc_kv_reorder, %function
 556              	mrbc_kv_reorder:
 557              	.LFB17:
 225:..\..\mruby_c2\Design01.cydsn/keyvalue.c **** 
 226:..\..\mruby_c2\Design01.cydsn/keyvalue.c **** //================================================================
 227:..\..\mruby_c2\Design01.cydsn/keyvalue.c **** /*! reorder
 228:..\..\mruby_c2\Design01.cydsn/keyvalue.c **** 
ARM GAS  C:\Users\164\AppData\Local\Temp\ccv21Boz.s 			page 16


 229:..\..\mruby_c2\Design01.cydsn/keyvalue.c ****   @param  kvh		pointer to key-value handle.
 230:..\..\mruby_c2\Design01.cydsn/keyvalue.c ****   @return		mrb_error_code.
 231:..\..\mruby_c2\Design01.cydsn/keyvalue.c **** */
 232:..\..\mruby_c2\Design01.cydsn/keyvalue.c **** int mrbc_kv_reorder(mrb_kv_handle *kvh)
 233:..\..\mruby_c2\Design01.cydsn/keyvalue.c **** {
 558              		.loc 1 233 0
 559              		.cfi_startproc
 560              		@ args = 0, pretend = 0, frame = 0
 561              		@ frame_needed = 0, uses_anonymous_args = 0
 562              	.LVL59:
 563 0000 08B5     		push	{r3, lr}
 564              		.cfi_def_cfa_offset 8
 565              		.cfi_offset 3, -8
 566              		.cfi_offset 14, -4
 234:..\..\mruby_c2\Design01.cydsn/keyvalue.c ****   qsort( kvh->data, kvh->n_stored, sizeof(mrb_kv), compare_key );
 567              		.loc 1 234 0
 568 0002 044B     		ldr	r3, .L45
 569 0004 1822     		movs	r2, #24
 570 0006 4188     		ldrh	r1, [r0, #2]
 571 0008 4068     		ldr	r0, [r0, #4]
 572              	.LVL60:
 573 000a FFF7FEFF 		bl	qsort
 574              	.LVL61:
 235:..\..\mruby_c2\Design01.cydsn/keyvalue.c **** 
 236:..\..\mruby_c2\Design01.cydsn/keyvalue.c ****   return 0;
 237:..\..\mruby_c2\Design01.cydsn/keyvalue.c **** }
 575              		.loc 1 237 0
 576 000e 0020     		movs	r0, #0
 577 0010 08BD     		pop	{r3, pc}
 578              	.L46:
 579 0012 00BF     		.align	2
 580              	.L45:
 581 0014 00000000 		.word	compare_key
 582              		.cfi_endproc
 583              	.LFE17:
 584              		.size	mrbc_kv_reorder, .-mrbc_kv_reorder
 585              		.section	.text.mrbc_kv_remove,"ax",%progbits
 586              		.align	2
 587              		.global	mrbc_kv_remove
 588              		.thumb
 589              		.thumb_func
 590              		.type	mrbc_kv_remove, %function
 591              	mrbc_kv_remove:
 592              	.LFB18:
 238:..\..\mruby_c2\Design01.cydsn/keyvalue.c **** 
 239:..\..\mruby_c2\Design01.cydsn/keyvalue.c **** 
 240:..\..\mruby_c2\Design01.cydsn/keyvalue.c **** 
 241:..\..\mruby_c2\Design01.cydsn/keyvalue.c **** //================================================================
 242:..\..\mruby_c2\Design01.cydsn/keyvalue.c **** /*! remove a data
 243:..\..\mruby_c2\Design01.cydsn/keyvalue.c **** 
 244:..\..\mruby_c2\Design01.cydsn/keyvalue.c ****   @param  kvh		pointer to key-value handle.
 245:..\..\mruby_c2\Design01.cydsn/keyvalue.c ****   @param  sym_id	symbol ID.
 246:..\..\mruby_c2\Design01.cydsn/keyvalue.c ****   @return		mrb_error_code.
 247:..\..\mruby_c2\Design01.cydsn/keyvalue.c **** */
 248:..\..\mruby_c2\Design01.cydsn/keyvalue.c **** int mrbc_kv_remove(mrb_kv_handle *kvh, mrb_sym sym_id)
 249:..\..\mruby_c2\Design01.cydsn/keyvalue.c **** {
 593              		.loc 1 249 0
ARM GAS  C:\Users\164\AppData\Local\Temp\ccv21Boz.s 			page 17


 594              		.cfi_startproc
 595              		@ args = 0, pretend = 0, frame = 0
 596              		@ frame_needed = 0, uses_anonymous_args = 0
 597              	.LVL62:
 598 0000 F8B5     		push	{r3, r4, r5, r6, r7, lr}
 599              		.cfi_def_cfa_offset 24
 600              		.cfi_offset 3, -24
 601              		.cfi_offset 4, -20
 602              		.cfi_offset 5, -16
 603              		.cfi_offset 6, -12
 604              		.cfi_offset 7, -8
 605              		.cfi_offset 14, -4
 606 0002 0646     		mov	r6, r0
 607 0004 0F46     		mov	r7, r1
 250:..\..\mruby_c2\Design01.cydsn/keyvalue.c ****   int idx = binary_search(kvh, sym_id);
 608              		.loc 1 250 0
 609 0006 FFF7FEFF 		bl	binary_search
 610              	.LVL63:
 251:..\..\mruby_c2\Design01.cydsn/keyvalue.c ****   if( idx < 0 ) return 0;
 611              		.loc 1 251 0
 612 000a 051E     		subs	r5, r0, #0
 613 000c 1BDB     		blt	.L48
 252:..\..\mruby_c2\Design01.cydsn/keyvalue.c ****   if( kvh->data[idx].sym_id != sym_id ) return 0;
 614              		.loc 1 252 0
 615 000e 7368     		ldr	r3, [r6, #4]
 616 0010 05EB4502 		add	r2, r5, r5, lsl #1
 617 0014 D400     		lsls	r4, r2, #3
 618 0016 1819     		adds	r0, r3, r4
 619              	.LVL64:
 620 0018 1B5F     		ldrsh	r3, [r3, r4]
 621 001a 9F42     		cmp	r7, r3
 622 001c 13D1     		bne	.L48
 253:..\..\mruby_c2\Design01.cydsn/keyvalue.c **** 
 254:..\..\mruby_c2\Design01.cydsn/keyvalue.c ****   mrbc_dec_ref_counter( &kvh->data[idx].value );
 623              		.loc 1 254 0
 624 001e 0830     		adds	r0, r0, #8
 625 0020 FFF7FEFF 		bl	mrbc_dec_ref_counter
 626              	.LVL65:
 255:..\..\mruby_c2\Design01.cydsn/keyvalue.c ****   kvh->n_stored--;
 627              		.loc 1 255 0
 628 0024 7388     		ldrh	r3, [r6, #2]
 629 0026 013B     		subs	r3, r3, #1
 630 0028 9BB2     		uxth	r3, r3
 631 002a 7380     		strh	r3, [r6, #2]	@ movhi
 256:..\..\mruby_c2\Design01.cydsn/keyvalue.c ****   memmove( kvh->data + idx, kvh->data + idx + 1,
 632              		.loc 1 256 0
 633 002c 7068     		ldr	r0, [r6, #4]
 634 002e 6A1C     		adds	r2, r5, #1
 635 0030 02EB4202 		add	r2, r2, r2, lsl #1
 636 0034 D100     		lsls	r1, r2, #3
 257:..\..\mruby_c2\Design01.cydsn/keyvalue.c **** 	   sizeof(mrb_kv) * (kvh->n_stored - idx) );
 637              		.loc 1 257 0
 638 0036 5D1B     		subs	r5, r3, r5
 639              	.LVL66:
 256:..\..\mruby_c2\Design01.cydsn/keyvalue.c ****   memmove( kvh->data + idx, kvh->data + idx + 1,
 640              		.loc 1 256 0
 641 0038 05EB4505 		add	r5, r5, r5, lsl #1
ARM GAS  C:\Users\164\AppData\Local\Temp\ccv21Boz.s 			page 18


 642 003c EA00     		lsls	r2, r5, #3
 643 003e 0144     		add	r1, r1, r0
 644 0040 2044     		add	r0, r0, r4
 645 0042 FFF7FEFF 		bl	memmove
 646              	.LVL67:
 647              	.L48:
 258:..\..\mruby_c2\Design01.cydsn/keyvalue.c **** 
 259:..\..\mruby_c2\Design01.cydsn/keyvalue.c ****   return 0;
 260:..\..\mruby_c2\Design01.cydsn/keyvalue.c **** }
 648              		.loc 1 260 0
 649 0046 0020     		movs	r0, #0
 650 0048 F8BD     		pop	{r3, r4, r5, r6, r7, pc}
 651              		.cfi_endproc
 652              	.LFE18:
 653              		.size	mrbc_kv_remove, .-mrbc_kv_remove
 654 004a 00BF     		.section	.text.mrbc_kv_clear,"ax",%progbits
 655              		.align	2
 656              		.global	mrbc_kv_clear
 657              		.thumb
 658              		.thumb_func
 659              		.type	mrbc_kv_clear, %function
 660              	mrbc_kv_clear:
 661              	.LFB19:
 261:..\..\mruby_c2\Design01.cydsn/keyvalue.c **** 
 262:..\..\mruby_c2\Design01.cydsn/keyvalue.c **** 
 263:..\..\mruby_c2\Design01.cydsn/keyvalue.c **** 
 264:..\..\mruby_c2\Design01.cydsn/keyvalue.c **** //================================================================
 265:..\..\mruby_c2\Design01.cydsn/keyvalue.c **** /*! clear all
 266:..\..\mruby_c2\Design01.cydsn/keyvalue.c **** 
 267:..\..\mruby_c2\Design01.cydsn/keyvalue.c ****   @param  kvh		pointer to key-value handle.
 268:..\..\mruby_c2\Design01.cydsn/keyvalue.c **** */
 269:..\..\mruby_c2\Design01.cydsn/keyvalue.c **** void mrbc_kv_clear(mrb_kv_handle *kvh)
 270:..\..\mruby_c2\Design01.cydsn/keyvalue.c **** {
 662              		.loc 1 270 0
 663              		.cfi_startproc
 664              		@ args = 0, pretend = 0, frame = 0
 665              		@ frame_needed = 0, uses_anonymous_args = 0
 666              	.LVL68:
 667 0000 70B5     		push	{r4, r5, r6, lr}
 668              		.cfi_def_cfa_offset 16
 669              		.cfi_offset 4, -16
 670              		.cfi_offset 5, -12
 671              		.cfi_offset 6, -8
 672              		.cfi_offset 14, -4
 673 0002 0646     		mov	r6, r0
 271:..\..\mruby_c2\Design01.cydsn/keyvalue.c ****   mrb_kv *p1 = kvh->data;
 674              		.loc 1 271 0
 675 0004 4468     		ldr	r4, [r0, #4]
 676              	.LVL69:
 272:..\..\mruby_c2\Design01.cydsn/keyvalue.c ****   const mrb_kv *p2 = p1 + kvh->n_stored;
 677              		.loc 1 272 0
 678 0006 4388     		ldrh	r3, [r0, #2]
 679 0008 03EB4303 		add	r3, r3, r3, lsl #1
 680 000c DD00     		lsls	r5, r3, #3
 681 000e 2544     		add	r5, r5, r4
 682              	.LVL70:
 273:..\..\mruby_c2\Design01.cydsn/keyvalue.c ****   while( p1 < p2 ) {
ARM GAS  C:\Users\164\AppData\Local\Temp\ccv21Boz.s 			page 19


 683              		.loc 1 273 0
 684 0010 04E0     		b	.L51
 685              	.LVL71:
 686              	.L52:
 274:..\..\mruby_c2\Design01.cydsn/keyvalue.c ****     mrbc_dec_ref_counter(&p1->value);
 687              		.loc 1 274 0
 688 0012 04F10800 		add	r0, r4, #8
 689 0016 FFF7FEFF 		bl	mrbc_dec_ref_counter
 690              	.LVL72:
 275:..\..\mruby_c2\Design01.cydsn/keyvalue.c ****     p1++;
 691              		.loc 1 275 0
 692 001a 1834     		adds	r4, r4, #24
 693              	.LVL73:
 694              	.L51:
 273:..\..\mruby_c2\Design01.cydsn/keyvalue.c ****   while( p1 < p2 ) {
 695              		.loc 1 273 0
 696 001c AC42     		cmp	r4, r5
 697 001e F8D3     		bcc	.L52
 276:..\..\mruby_c2\Design01.cydsn/keyvalue.c ****   }
 277:..\..\mruby_c2\Design01.cydsn/keyvalue.c **** 
 278:..\..\mruby_c2\Design01.cydsn/keyvalue.c ****   kvh->n_stored = 0;
 698              		.loc 1 278 0
 699 0020 0023     		movs	r3, #0
 700 0022 7380     		strh	r3, [r6, #2]	@ movhi
 701 0024 70BD     		pop	{r4, r5, r6, pc}
 702              		.cfi_endproc
 703              	.LFE19:
 704              		.size	mrbc_kv_clear, .-mrbc_kv_clear
 705 0026 00BF     		.section	.text.mrbc_kv_delete,"ax",%progbits
 706              		.align	2
 707              		.global	mrbc_kv_delete
 708              		.thumb
 709              		.thumb_func
 710              		.type	mrbc_kv_delete, %function
 711              	mrbc_kv_delete:
 712              	.LFB10:
  83:..\..\mruby_c2\Design01.cydsn/keyvalue.c ****   mrbc_kv_clear(kvh);
 713              		.loc 1 83 0
 714              		.cfi_startproc
 715              		@ args = 0, pretend = 0, frame = 0
 716              		@ frame_needed = 0, uses_anonymous_args = 0
 717              	.LVL74:
 718 0000 10B5     		push	{r4, lr}
 719              		.cfi_def_cfa_offset 8
 720              		.cfi_offset 4, -8
 721              		.cfi_offset 14, -4
 722 0002 0446     		mov	r4, r0
  84:..\..\mruby_c2\Design01.cydsn/keyvalue.c **** 
 723              		.loc 1 84 0
 724 0004 FFF7FEFF 		bl	mrbc_kv_clear
 725              	.LVL75:
  86:..\..\mruby_c2\Design01.cydsn/keyvalue.c ****   mrbc_raw_free(kvh);
 726              		.loc 1 86 0
 727 0008 6068     		ldr	r0, [r4, #4]
 728 000a FFF7FEFF 		bl	mrbc_raw_free
 729              	.LVL76:
  87:..\..\mruby_c2\Design01.cydsn/keyvalue.c **** }
ARM GAS  C:\Users\164\AppData\Local\Temp\ccv21Boz.s 			page 20


 730              		.loc 1 87 0
 731 000e 2046     		mov	r0, r4
 732 0010 FFF7FEFF 		bl	mrbc_raw_free
 733              	.LVL77:
 734 0014 10BD     		pop	{r4, pc}
 735              		.cfi_endproc
 736              	.LFE10:
 737              		.size	mrbc_kv_delete, .-mrbc_kv_delete
 738 0016 00BF     		.text
 739              	.Letext0:
 740              		.file 2 "c:\\program files (x86)\\cypress\\psoc creator\\4.2\\psoc creator\\import\\gnu\\arm\\5.4.
 741              		.file 3 "c:\\program files (x86)\\cypress\\psoc creator\\4.2\\psoc creator\\import\\gnu\\arm\\5.4.
 742              		.file 4 "..\\..\\mruby_c2\\Design01.cydsn\\value.h"
 743              		.file 5 "..\\..\\mruby_c2\\Design01.cydsn\\vm.h"
 744              		.file 6 "..\\..\\mruby_c2\\Design01.cydsn\\keyvalue.h"
 745              		.file 7 "..\\..\\mruby_c2\\Design01.cydsn\\alloc.h"
 746              		.file 8 "c:\\program files (x86)\\cypress\\psoc creator\\4.2\\psoc creator\\import\\gnu\\arm\\5.4.
 747              		.file 9 "c:\\program files (x86)\\cypress\\psoc creator\\4.2\\psoc creator\\import\\gnu\\arm\\5.4.