ARM GAS  C:\Users\164\AppData\Local\Temp\ccBQAwea.s 			page 1


   1              		.syntax unified
   2              		.cpu cortex-m3
   3              		.fpu softvfp
   4              		.eabi_attribute 20, 1
   5              		.eabi_attribute 21, 1
   6              		.eabi_attribute 23, 3
   7              		.eabi_attribute 24, 1
   8              		.eabi_attribute 25, 1
   9              		.eabi_attribute 26, 1
  10              		.eabi_attribute 30, 1
  11              		.eabi_attribute 34, 1
  12              		.eabi_attribute 18, 4
  13              		.thumb
  14              		.syntax unified
  15              		.file	"load.c"
  16              		.text
  17              	.Ltext0:
  18              		.cfi_sections	.debug_frame
  19              		.section	.text.load_lvar,"ax",%progbits
  20              		.align	2
  21              		.thumb
  22              		.thumb_func
  23              		.type	load_lvar, %function
  24              	load_lvar:
  25              	.LFB14:
  26              		.file 1 "load.c"
   1:load.c        **** /*! @file
   2:load.c        ****   @brief
   3:load.c        ****   mruby bytecode loader.
   4:load.c        **** 
   5:load.c        ****   <pre>
   6:load.c        ****   Copyright (C) 2015-2017 Kyushu Institute of Technology.
   7:load.c        ****   Copyright (C) 2015-2017 Shimane IT Open-Innovation Center.
   8:load.c        **** 
   9:load.c        ****   This file is distributed under BSD 3-Clause License.
  10:load.c        **** 
  11:load.c        ****   </pre>
  12:load.c        **** */
  13:load.c        **** 
  14:load.c        **** #include "vm_config.h"
  15:load.c        **** #include <stdlib.h>
  16:load.c        **** #include <stdint.h>
  17:load.c        **** #include <string.h>
  18:load.c        **** #include "vm.h"
  19:load.c        **** #include "load.h"
  20:load.c        **** #include "errorcode.h"
  21:load.c        **** #include "value.h"
  22:load.c        **** #include "alloc.h"
  23:load.c        **** 
  24:load.c        **** 
  25:load.c        **** //================================================================
  26:load.c        **** /*!@brief
  27:load.c        ****   Parse header section.
  28:load.c        **** 
  29:load.c        ****   @param  vm    A pointer of VM.
  30:load.c        ****   @param  pos	A pointer of pointer of RITE header.
  31:load.c        ****   @return int	zero if no error.
ARM GAS  C:\Users\164\AppData\Local\Temp\ccBQAwea.s 			page 2


  32:load.c        **** 
  33:load.c        ****   <pre>
  34:load.c        ****   Structure
  35:load.c        ****    "RITE"	identifier
  36:load.c        ****    "0004"	version
  37:load.c        ****    0000		CRC
  38:load.c        ****    0000_0000	total size
  39:load.c        ****    "MATZ"	compiler name
  40:load.c        ****    "0000"	compiler version
  41:load.c        ****   </pre>
  42:load.c        **** */
  43:load.c        **** static int load_header(struct VM *vm, const uint8_t **pos)
  44:load.c        **** {
  45:load.c        ****   const uint8_t *p = *pos;
  46:load.c        **** 
  47:load.c        ****   if( memcmp(p, "RITE0004", 8) != 0 ) {
  48:load.c        ****     vm->error_code = LOAD_FILE_HEADER_ERROR_VERSION;
  49:load.c        ****     return -1;
  50:load.c        ****   }
  51:load.c        **** 
  52:load.c        ****   /* Ignore CRC */
  53:load.c        **** 
  54:load.c        ****   /* Ignore size */
  55:load.c        **** 
  56:load.c        ****   if( memcmp(p + 14, "MATZ", 4) != 0 ) {
  57:load.c        ****     vm->error_code = LOAD_FILE_HEADER_ERROR_MATZ;
  58:load.c        ****     return -1;
  59:load.c        ****   }
  60:load.c        ****   if( memcmp(p + 18, "0000", 4) != 0 ) {
  61:load.c        ****     vm->error_code = LOAD_FILE_HEADER_ERROR_VERSION;
  62:load.c        ****     return -1;
  63:load.c        ****   }
  64:load.c        **** 
  65:load.c        ****   *pos += 22;
  66:load.c        ****   return 0;
  67:load.c        **** }
  68:load.c        **** 
  69:load.c        **** 
  70:load.c        **** 
  71:load.c        **** //================================================================
  72:load.c        **** /*!@brief
  73:load.c        ****   read one irep section.
  74:load.c        **** 
  75:load.c        ****   @param  vm    A pointer of VM.
  76:load.c        ****   @param  pos	A pointer of pointer of IREP section.
  77:load.c        ****   @return       Pointer of allocated mrbc_irep or NULL
  78:load.c        **** 
  79:load.c        ****   <pre>
  80:load.c        ****    (loop n of child irep bellow)
  81:load.c        ****    0000_0000	record size
  82:load.c        ****    0000		n of local variable
  83:load.c        ****    0000		n of register
  84:load.c        ****    0000		n of child irep
  85:load.c        **** 
  86:load.c        ****    0000_0000	n of byte code  (ISEQ BLOCK)
  87:load.c        ****    ...		byte codes
  88:load.c        **** 
ARM GAS  C:\Users\164\AppData\Local\Temp\ccBQAwea.s 			page 3


  89:load.c        ****    0000_0000	n of pool	(POOL BLOCK)
  90:load.c        ****    (loop n of pool)
  91:load.c        ****      00		type
  92:load.c        ****      0000	length
  93:load.c        ****      ...	pool data
  94:load.c        **** 
  95:load.c        ****    0000_0000	n of symbol	(SYMS BLOCK)
  96:load.c        ****    (loop n of symbol)
  97:load.c        ****      0000	length
  98:load.c        ****      ...	symbol data
  99:load.c        ****   </pre>
 100:load.c        **** */
 101:load.c        **** static mrbc_irep * load_irep_1(struct VM *vm, const uint8_t **pos)
 102:load.c        **** {
 103:load.c        ****   const uint8_t *p = *pos + 4;			// skip record size
 104:load.c        **** 
 105:load.c        ****   // new irep
 106:load.c        ****   mrbc_irep *irep = mrbc_irep_alloc(0);
 107:load.c        ****   if( irep == NULL ) {
 108:load.c        ****     vm->error_code = LOAD_FILE_IREP_ERROR_ALLOCATION;
 109:load.c        ****     return NULL;
 110:load.c        ****   }
 111:load.c        **** 
 112:load.c        ****   // nlocals,nregs,rlen
 113:load.c        ****   irep->nlocals = bin_to_uint16(p);	p += 2;
 114:load.c        ****   irep->nregs = bin_to_uint16(p);	p += 2;
 115:load.c        ****   irep->rlen = bin_to_uint16(p);	p += 2;
 116:load.c        ****   irep->ilen = bin_to_uint32(p);	p += 4;
 117:load.c        **** 
 118:load.c        ****   // padding
 119:load.c        ****   p += (vm->mrb - p) & 0x03;
 120:load.c        **** 
 121:load.c        ****   // allocate memory for child irep's pointers
 122:load.c        ****   if( irep->rlen ) {
 123:load.c        ****     irep->reps = (mrbc_irep **)mrbc_alloc(0, sizeof(mrbc_irep *) * irep->rlen);
 124:load.c        ****     if( irep->reps == NULL ) {
 125:load.c        ****       vm->error_code = LOAD_FILE_IREP_ERROR_ALLOCATION;
 126:load.c        ****       return NULL;
 127:load.c        ****     }
 128:load.c        ****   }
 129:load.c        **** 
 130:load.c        ****   // ISEQ (code) BLOCK
 131:load.c        ****   irep->code = (uint8_t *)p;
 132:load.c        ****   p += irep->ilen * 4;
 133:load.c        **** 
 134:load.c        ****   // POOL BLOCK
 135:load.c        ****   irep->plen = bin_to_uint32(p);	p += 4;
 136:load.c        ****   if( irep->plen ) {
 137:load.c        ****     irep->pools = (mrbc_object**)mrbc_alloc(0, sizeof(void*) * irep->plen);
 138:load.c        ****     if(irep->pools == NULL ) {
 139:load.c        ****       vm->error_code = LOAD_FILE_IREP_ERROR_ALLOCATION;
 140:load.c        ****       return NULL;
 141:load.c        ****     }
 142:load.c        ****   }
 143:load.c        **** 
 144:load.c        ****   int i;
 145:load.c        ****   for( i = 0; i < irep->plen; i++ ) {
ARM GAS  C:\Users\164\AppData\Local\Temp\ccBQAwea.s 			page 4


 146:load.c        ****     int tt = *p++;
 147:load.c        ****     int obj_size = bin_to_uint16(p);	p += 2;
 148:load.c        ****     mrbc_object *obj = mrbc_obj_alloc(0, MRBC_TT_EMPTY);
 149:load.c        ****     if( obj == NULL ) {
 150:load.c        ****       vm->error_code = LOAD_FILE_IREP_ERROR_ALLOCATION;
 151:load.c        ****       return NULL;
 152:load.c        ****     }
 153:load.c        ****     switch( tt ) {
 154:load.c        **** #if MRBC_USE_STRING
 155:load.c        ****     case 0: { // IREP_TT_STRING
 156:load.c        ****       obj->tt = MRBC_TT_STRING;
 157:load.c        ****       obj->str = (char*)p;
 158:load.c        ****     } break;
 159:load.c        **** #endif
 160:load.c        ****     case 1: { // IREP_TT_FIXNUM
 161:load.c        ****       char buf[obj_size+1];
 162:load.c        ****       memcpy(buf, p, obj_size);
 163:load.c        ****       buf[obj_size] = '\0';
 164:load.c        ****       obj->tt = MRBC_TT_FIXNUM;
 165:load.c        ****       obj->i = atol(buf);
 166:load.c        ****     } break;
 167:load.c        **** #if MRBC_USE_FLOAT
 168:load.c        ****     case 2: { // IREP_TT_FLOAT
 169:load.c        ****       char buf[obj_size+1];
 170:load.c        ****       memcpy(buf, p, obj_size);
 171:load.c        ****       buf[obj_size] = '\0';
 172:load.c        ****       obj->tt = MRBC_TT_FLOAT;
 173:load.c        ****       obj->d = atof(buf);
 174:load.c        ****     } break;
 175:load.c        **** #endif
 176:load.c        ****     default:
 177:load.c        ****       break;
 178:load.c        ****     }
 179:load.c        **** 
 180:load.c        ****     irep->pools[i] = obj;
 181:load.c        ****     p += obj_size;
 182:load.c        ****   }
 183:load.c        **** 
 184:load.c        ****   // SYMS BLOCK
 185:load.c        ****   irep->ptr_to_sym = (uint8_t*)p;
 186:load.c        ****   int slen = bin_to_uint32(p);		p += 4;
 187:load.c        ****   while( --slen >= 0 ) {
 188:load.c        ****     int s = bin_to_uint16(p);		p += 2;
 189:load.c        ****     p += s+1;
 190:load.c        ****   }
 191:load.c        **** 
 192:load.c        ****   *pos = p;
 193:load.c        ****   return irep;
 194:load.c        **** }
 195:load.c        **** 
 196:load.c        **** 
 197:load.c        **** 
 198:load.c        **** //================================================================
 199:load.c        **** /*!@brief
 200:load.c        ****   read all irep section.
 201:load.c        **** 
 202:load.c        ****   @param  vm    A pointer of VM.
ARM GAS  C:\Users\164\AppData\Local\Temp\ccBQAwea.s 			page 5


 203:load.c        ****   @param  pos	A pointer of pointer of IREP section.
 204:load.c        ****   @return       Pointer of allocated mrbc_irep or NULL
 205:load.c        **** */
 206:load.c        **** static mrbc_irep * load_irep_0(struct VM *vm, const uint8_t **pos)
 207:load.c        **** {
 208:load.c        ****   mrbc_irep *irep = load_irep_1(vm, pos);
 209:load.c        ****   if( !irep ) return NULL;
 210:load.c        **** 
 211:load.c        ****   int i;
 212:load.c        ****   for( i = 0; i < irep->rlen; i++ ) {
 213:load.c        ****     irep->reps[i] = load_irep_0(vm, pos);
 214:load.c        ****   }
 215:load.c        **** 
 216:load.c        ****   return irep;
 217:load.c        **** }
 218:load.c        **** 
 219:load.c        **** 
 220:load.c        **** 
 221:load.c        **** //================================================================
 222:load.c        **** /*!@brief
 223:load.c        ****   Parse IREP section.
 224:load.c        **** 
 225:load.c        ****   @param  vm    A pointer of VM.
 226:load.c        ****   @param  pos	A pointer of pointer of IREP section.
 227:load.c        ****   @return int	zero if no error.
 228:load.c        **** 
 229:load.c        ****   <pre>
 230:load.c        ****   Structure
 231:load.c        ****    "IREP"	section identifier
 232:load.c        ****    0000_0000	section size
 233:load.c        ****    "0000"	rite version
 234:load.c        ****   </pre>
 235:load.c        **** */
 236:load.c        **** static int load_irep(struct VM *vm, const uint8_t **pos)
 237:load.c        **** {
 238:load.c        ****   const uint8_t *p = *pos + 4;			// 4 = skip "RITE"
 239:load.c        ****   int section_size = bin_to_uint32(p);
 240:load.c        ****   p += 4;
 241:load.c        ****   if( memcmp(p, "0000", 4) != 0 ) {		// rite version
 242:load.c        ****     vm->error_code = LOAD_FILE_IREP_ERROR_VERSION;
 243:load.c        ****     return -1;
 244:load.c        ****   }
 245:load.c        ****   p += 4;
 246:load.c        ****   vm->irep = load_irep_0(vm, &p);
 247:load.c        ****   if( vm->irep == NULL ) {
 248:load.c        ****     return -1;
 249:load.c        ****   }
 250:load.c        **** 
 251:load.c        ****   *pos += section_size;
 252:load.c        ****   return 0;
 253:load.c        **** }
 254:load.c        **** 
 255:load.c        **** 
 256:load.c        **** 
 257:load.c        **** //================================================================
 258:load.c        **** /*!@brief
 259:load.c        ****   Parse LVAR section.
ARM GAS  C:\Users\164\AppData\Local\Temp\ccBQAwea.s 			page 6


 260:load.c        **** 
 261:load.c        ****   @param  vm    A pointer of VM.
 262:load.c        ****   @param  pos	A pointer of pointer of LVAR section.
 263:load.c        ****   @return int	zero if no error.
 264:load.c        **** */
 265:load.c        **** static int load_lvar(struct VM *vm, const uint8_t **pos)
 266:load.c        **** {
  27              		.loc 1 266 0
  28              		.cfi_startproc
  29              		@ args = 0, pretend = 0, frame = 0
  30              		@ frame_needed = 0, uses_anonymous_args = 0
  31              		@ link register save eliminated.
  32              	.LVL0:
  33 0000 10B4     		push	{r4}
  34              		.cfi_def_cfa_offset 4
  35              		.cfi_offset 4, -4
 267:load.c        ****   const uint8_t *p = *pos;
  36              		.loc 1 267 0
  37 0002 0C68     		ldr	r4, [r1]
  38              	.LVL1:
  39              	.LBB26:
  40              	.LBB27:
  41              		.file 2 "vm.h"
   1:vm.h          **** /*! @file
   2:vm.h          ****   @brief
   3:vm.h          ****   mruby bytecode executor.
   4:vm.h          **** 
   5:vm.h          ****   <pre>
   6:vm.h          ****   Copyright (C) 2015-2017 Kyushu Institute of Technology.
   7:vm.h          ****   Copyright (C) 2015-2017 Shimane IT Open-Innovation Center.
   8:vm.h          **** 
   9:vm.h          ****   This file is distributed under BSD 3-Clause License.
  10:vm.h          **** 
  11:vm.h          ****   Fetch mruby VM bytecodes, decode and execute.
  12:vm.h          **** 
  13:vm.h          ****   </pre>
  14:vm.h          **** */
  15:vm.h          **** 
  16:vm.h          **** #ifndef MRBC_SRC_VM_H_
  17:vm.h          **** #define MRBC_SRC_VM_H_
  18:vm.h          **** 
  19:vm.h          **** #include <stdint.h>
  20:vm.h          **** #include "vm_config.h"
  21:vm.h          **** #include "value.h"
  22:vm.h          **** 
  23:vm.h          **** #ifdef __cplusplus
  24:vm.h          **** extern "C" {
  25:vm.h          **** #endif
  26:vm.h          **** 
  27:vm.h          **** 
  28:vm.h          **** //================================================================
  29:vm.h          **** /*!@brief
  30:vm.h          ****   IREP Internal REPresentation
  31:vm.h          **** */
  32:vm.h          **** typedef struct IREP {
  33:vm.h          ****   uint16_t nlocals;		//!< # of local variables
  34:vm.h          ****   uint16_t nregs;		//!< # of register variables
ARM GAS  C:\Users\164\AppData\Local\Temp\ccBQAwea.s 			page 7


  35:vm.h          ****   uint16_t rlen;		//!< # of child IREP blocks
  36:vm.h          ****   uint16_t ilen;		//!< # of irep
  37:vm.h          ****   uint16_t plen;		//!< # of pool
  38:vm.h          **** 
  39:vm.h          ****   uint8_t     *code;		//!< ISEQ (code) BLOCK
  40:vm.h          ****   mrbc_object  **pools;          //!< array of POOL objects pointer.
  41:vm.h          ****   uint8_t     *ptr_to_sym;
  42:vm.h          ****   struct IREP **reps;		//!< array of child IREP's pointer.
  43:vm.h          **** 
  44:vm.h          **** } mrbc_irep;
  45:vm.h          **** typedef struct IREP mrb_irep;
  46:vm.h          **** 
  47:vm.h          **** 
  48:vm.h          **** //================================================================
  49:vm.h          **** /*!@brief
  50:vm.h          ****   Call information
  51:vm.h          **** */
  52:vm.h          **** typedef struct CALLINFO {
  53:vm.h          ****   struct CALLINFO *prev;
  54:vm.h          ****   mrbc_irep *pc_irep;
  55:vm.h          ****   uint16_t  pc;
  56:vm.h          ****   mrbc_value *current_regs;
  57:vm.h          ****   mrbc_class *target_class;
  58:vm.h          ****   uint8_t   n_args;     // num of args
  59:vm.h          **** } mrbc_callinfo;
  60:vm.h          **** typedef struct CALLINFO mrb_callinfo;
  61:vm.h          **** 
  62:vm.h          **** 
  63:vm.h          **** //================================================================
  64:vm.h          **** /*!@brief
  65:vm.h          ****   Virtual Machine
  66:vm.h          **** */
  67:vm.h          **** typedef struct VM {
  68:vm.h          ****   mrbc_irep *irep;
  69:vm.h          **** 
  70:vm.h          ****   uint8_t        vm_id; // vm_id : 1..n
  71:vm.h          ****   const uint8_t *mrb;   // bytecode
  72:vm.h          **** 
  73:vm.h          ****   mrbc_irep *pc_irep;    // PC
  74:vm.h          ****   uint16_t  pc;         // PC
  75:vm.h          **** 
  76:vm.h          ****   //  uint16_t     reg_top;
  77:vm.h          ****   mrbc_value    regs[MAX_REGS_SIZE];
  78:vm.h          ****   mrbc_value   *current_regs;
  79:vm.h          ****   mrbc_callinfo *callinfo_tail;
  80:vm.h          **** 
  81:vm.h          ****   mrbc_class *target_class;
  82:vm.h          **** 
  83:vm.h          ****   int32_t error_code;
  84:vm.h          **** 
  85:vm.h          ****   volatile int8_t flag_preemption;
  86:vm.h          ****   int8_t flag_need_memfree;
  87:vm.h          **** } mrbc_vm;
  88:vm.h          **** typedef struct VM mrb_vm;
  89:vm.h          **** 
  90:vm.h          **** 
  91:vm.h          **** const char *mrbc_get_irep_symbol(const uint8_t *p, int n);
ARM GAS  C:\Users\164\AppData\Local\Temp\ccBQAwea.s 			page 8


  92:vm.h          **** const char *mrbc_get_callee_name(struct VM *vm);
  93:vm.h          **** void mrbc_push_callinfo(struct VM *vm, int n_args);
  94:vm.h          **** void mrbc_pop_callinfo(struct VM *vm);
  95:vm.h          **** mrbc_vm *mrbc_vm_open(struct VM *vm_arg);
  96:vm.h          **** void mrbc_vm_close(struct VM *vm);
  97:vm.h          **** void mrbc_vm_begin(struct VM *vm);
  98:vm.h          **** void mrbc_vm_end(struct VM *vm);
  99:vm.h          **** int mrbc_vm_run(struct VM *vm);
 100:vm.h          **** 
 101:vm.h          **** 
 102:vm.h          **** //================================================================
 103:vm.h          **** /*! Get 32bit value from memory.
 104:vm.h          **** 
 105:vm.h          ****   @param  s	Pointer to memory.
 106:vm.h          ****   @return	32bit unsigned value.
 107:vm.h          **** */
 108:vm.h          **** static inline uint32_t bin_to_uint32( const void *s )
 109:vm.h          **** {
 110:vm.h          ****   // Little endian, no alignment.
 111:vm.h          ****   //  e.g. ARM Coretex-M4, Intel x86
 112:vm.h          **** #if defined(MRBC_LITTLE_ENDIAN) && !defined(MRBC_REQUIRE_32BIT_ALIGNMENT)
 113:vm.h          ****   uint32_t x = *((uint32_t *)s);
  42              		.loc 2 113 0
  43 0004 6368     		ldr	r3, [r4, #4]
  44              	.LVL2:
 114:vm.h          ****   return (x << 24) | ((x & 0xff00) << 8) | ((x >> 8) & 0xff00) | (x >> 24);
  45              		.loc 2 114 0
  46 0006 1A02     		lsls	r2, r3, #8
  47 0008 02F47F02 		and	r2, r2, #16711680
  48 000c 42EA0360 		orr	r0, r2, r3, lsl #24
  49              	.LVL3:
  50 0010 1A0A     		lsrs	r2, r3, #8
  51 0012 02F47F42 		and	r2, r2, #65280
  52 0016 0243     		orrs	r2, r2, r0
  53 0018 42EA1363 		orr	r3, r2, r3, lsr #24
  54              	.LVL4:
  55              	.LBE27:
  56              	.LBE26:
 268:load.c        **** 
 269:load.c        ****   /* size */
 270:load.c        ****   *pos += bin_to_uint32(p+4);
  57              		.loc 1 270 0
  58 001c 2344     		add	r3, r3, r4
  59 001e 0B60     		str	r3, [r1]
 271:load.c        **** 
 272:load.c        ****   return 0;
 273:load.c        **** }
  60              		.loc 1 273 0
  61 0020 0020     		movs	r0, #0
  62 0022 10BC     		pop	{r4}
  63              		.cfi_restore 4
  64              		.cfi_def_cfa_offset 0
  65              	.LVL5:
  66 0024 7047     		bx	lr
  67              		.cfi_endproc
  68              	.LFE14:
  69              		.size	load_lvar, .-load_lvar
ARM GAS  C:\Users\164\AppData\Local\Temp\ccBQAwea.s 			page 9


  70 0026 00BF     		.section	.text.load_header,"ax",%progbits
  71              		.align	2
  72              		.thumb
  73              		.thumb_func
  74              		.type	load_header, %function
  75              	load_header:
  76              	.LFB10:
  44:load.c        ****   const uint8_t *p = *pos;
  77              		.loc 1 44 0
  78              		.cfi_startproc
  79              		@ args = 0, pretend = 0, frame = 0
  80              		@ frame_needed = 0, uses_anonymous_args = 0
  81              	.LVL6:
  82 0000 70B5     		push	{r4, r5, r6, lr}
  83              		.cfi_def_cfa_offset 16
  84              		.cfi_offset 4, -16
  85              		.cfi_offset 5, -12
  86              		.cfi_offset 6, -8
  87              		.cfi_offset 14, -4
  88 0002 0646     		mov	r6, r0
  89 0004 0D46     		mov	r5, r1
  45:load.c        **** 
  90              		.loc 1 45 0
  91 0006 0C68     		ldr	r4, [r1]
  92              	.LVL7:
  47:load.c        ****     vm->error_code = LOAD_FILE_HEADER_ERROR_VERSION;
  93              		.loc 1 47 0
  94 0008 0822     		movs	r2, #8
  95 000a 1549     		ldr	r1, .L9
  96              	.LVL8:
  97 000c 2046     		mov	r0, r4
  98              	.LVL9:
  99 000e FFF7FEFF 		bl	memcmp
 100              	.LVL10:
 101 0012 28B1     		cbz	r0, .L4
  48:load.c        ****     return -1;
 102              		.loc 1 48 0
 103 0014 134B     		ldr	r3, .L9+4
 104 0016 C6F86436 		str	r3, [r6, #1636]
  49:load.c        ****   }
 105              		.loc 1 49 0
 106 001a 4FF0FF33 		mov	r3, #-1
 107 001e 1CE0     		b	.L5
 108              	.L4:
  56:load.c        ****     vm->error_code = LOAD_FILE_HEADER_ERROR_MATZ;
 109              		.loc 1 56 0
 110 0020 0422     		movs	r2, #4
 111 0022 1149     		ldr	r1, .L9+8
 112 0024 04F10E00 		add	r0, r4, #14
 113 0028 FFF7FEFF 		bl	memcmp
 114              	.LVL11:
 115 002c 28B1     		cbz	r0, .L6
  57:load.c        ****     return -1;
 116              		.loc 1 57 0
 117 002e 0F4B     		ldr	r3, .L9+12
 118 0030 C6F86436 		str	r3, [r6, #1636]
  58:load.c        ****   }
ARM GAS  C:\Users\164\AppData\Local\Temp\ccBQAwea.s 			page 10


 119              		.loc 1 58 0
 120 0034 4FF0FF33 		mov	r3, #-1
 121 0038 0FE0     		b	.L5
 122              	.L6:
  60:load.c        ****     vm->error_code = LOAD_FILE_HEADER_ERROR_VERSION;
 123              		.loc 1 60 0
 124 003a 0422     		movs	r2, #4
 125 003c 0C49     		ldr	r1, .L9+16
 126 003e 04F11200 		add	r0, r4, #18
 127 0042 FFF7FEFF 		bl	memcmp
 128              	.LVL12:
 129 0046 0346     		mov	r3, r0
 130 0048 28B1     		cbz	r0, .L7
  61:load.c        ****     return -1;
 131              		.loc 1 61 0
 132 004a 064B     		ldr	r3, .L9+4
 133 004c C6F86436 		str	r3, [r6, #1636]
  62:load.c        ****   }
 134              		.loc 1 62 0
 135 0050 4FF0FF33 		mov	r3, #-1
 136 0054 01E0     		b	.L5
 137              	.L7:
  65:load.c        ****   return 0;
 138              		.loc 1 65 0
 139 0056 1634     		adds	r4, r4, #22
 140              	.LVL13:
 141 0058 2C60     		str	r4, [r5]
 142              	.LVL14:
 143              	.L5:
  67:load.c        **** 
 144              		.loc 1 67 0
 145 005a 1846     		mov	r0, r3
 146 005c 70BD     		pop	{r4, r5, r6, pc}
 147              	.LVL15:
 148              	.L10:
 149 005e 00BF     		.align	2
 150              	.L9:
 151 0060 00000000 		.word	.LC0
 152 0064 02000101 		.word	16842754
 153 0068 0C000000 		.word	.LC1
 154 006c 04000101 		.word	16842756
 155 0070 14000000 		.word	.LC2
 156              		.cfi_endproc
 157              	.LFE10:
 158              		.size	load_header, .-load_header
 159              		.section	.text.load_irep_1,"ax",%progbits
 160              		.align	2
 161              		.thumb
 162              		.thumb_func
 163              		.type	load_irep_1, %function
 164              	load_irep_1:
 165              	.LFB11:
 102:load.c        ****   const uint8_t *p = *pos + 4;			// skip record size
 166              		.loc 1 102 0
 167              		.cfi_startproc
 168              		@ args = 0, pretend = 0, frame = 8
 169              		@ frame_needed = 1, uses_anonymous_args = 0
ARM GAS  C:\Users\164\AppData\Local\Temp\ccBQAwea.s 			page 11


 170              	.LVL16:
 171 0000 2DE9F04F 		push	{r4, r5, r6, r7, r8, r9, r10, fp, lr}
 172              		.cfi_def_cfa_offset 36
 173              		.cfi_offset 4, -36
 174              		.cfi_offset 5, -32
 175              		.cfi_offset 6, -28
 176              		.cfi_offset 7, -24
 177              		.cfi_offset 8, -20
 178              		.cfi_offset 9, -16
 179              		.cfi_offset 10, -12
 180              		.cfi_offset 11, -8
 181              		.cfi_offset 14, -4
 182 0004 83B0     		sub	sp, sp, #12
 183              		.cfi_def_cfa_offset 48
 184 0006 00AF     		add	r7, sp, #0
 185              		.cfi_def_cfa_register 7
 186 0008 8346     		mov	fp, r0
 187 000a 7960     		str	r1, [r7, #4]
 103:load.c        **** 
 188              		.loc 1 103 0
 189 000c 0C68     		ldr	r4, [r1]
 190              	.LVL17:
 106:load.c        ****   if( irep == NULL ) {
 191              		.loc 1 106 0
 192 000e 0020     		movs	r0, #0
 193              	.LVL18:
 194 0010 FFF7FEFF 		bl	mrbc_irep_alloc
 195              	.LVL19:
 107:load.c        ****     vm->error_code = LOAD_FILE_IREP_ERROR_ALLOCATION;
 196              		.loc 1 107 0
 197 0014 18B9     		cbnz	r0, .L12
 108:load.c        ****     return NULL;
 198              		.loc 1 108 0
 199 0016 6C4B     		ldr	r3, .L27
 200 0018 CBF86436 		str	r3, [fp, #1636]
 109:load.c        ****   }
 201              		.loc 1 109 0
 202 001c D0E0     		b	.L13
 203              	.L12:
 204 001e 8246     		mov	r10, r0
 205              	.LVL20:
 206              	.LBB28:
 207              	.LBB29:
 115:vm.h          **** 
 116:vm.h          ****   // Big endian, no alignment.
 117:vm.h          ****   //  e.g. IBM PPC405
 118:vm.h          **** #elif defined(MRBC_BIG_ENDIAN) && !defined(MRBC_REQUIRE_32BIT_ALIGNMENT)
 119:vm.h          ****   uint32_t x = *((uint32_t *)s);
 120:vm.h          ****   return x;
 121:vm.h          **** 
 122:vm.h          ****   // 32bit alignment required.
 123:vm.h          ****   // Little endian
 124:vm.h          ****   //  e.g. ARM Coretex-M0
 125:vm.h          ****   // Big endian
 126:vm.h          ****   //  e.g. OpenRISC
 127:vm.h          **** #elif defined(MRBC_REQUIRE_32BIT_ALIGNMENT)
 128:vm.h          ****   uint8_t *p = (uint8_t *)s;
ARM GAS  C:\Users\164\AppData\Local\Temp\ccBQAwea.s 			page 12


 129:vm.h          ****   uint32_t x = *p++;
 130:vm.h          ****   x <<= 8;
 131:vm.h          ****   x |= *p++;
 132:vm.h          ****   x <<= 8;
 133:vm.h          ****   x |= *p++;
 134:vm.h          ****   x <<= 8;
 135:vm.h          ****   x |= *p;
 136:vm.h          ****   return x;
 137:vm.h          **** 
 138:vm.h          **** #else
 139:vm.h          ****   #error "Specify MRBC_BIG_ENDIAN or MRBC_LITTLE_ENDIAN"
 140:vm.h          **** #endif
 141:vm.h          **** }
 142:vm.h          **** 
 143:vm.h          **** 
 144:vm.h          **** //================================================================
 145:vm.h          **** /*! Get 16bit value from memory.
 146:vm.h          **** 
 147:vm.h          ****   @param  s	Pointer to memory.
 148:vm.h          ****   @return	16bit unsigned value.
 149:vm.h          **** */
 150:vm.h          **** static inline uint16_t bin_to_uint16( const void *s )
 151:vm.h          **** {
 152:vm.h          ****   // Little endian, no alignment.
 153:vm.h          **** #if defined(MRBC_LITTLE_ENDIAN) && !defined(MRBC_REQUIRE_32BIT_ALIGNMENT)
 154:vm.h          ****   uint16_t x = *((uint16_t *)s);
 208              		.loc 2 154 0
 209 0020 A288     		ldrh	r2, [r4, #4]
 210              	.LVL21:
 155:vm.h          ****   return (x << 8) | (x >> 8);
 211              		.loc 2 155 0
 212 0022 130A     		lsrs	r3, r2, #8
 213 0024 43EA0223 		orr	r3, r3, r2, lsl #8
 214              	.LVL22:
 215              	.LBE29:
 216              	.LBE28:
 113:load.c        ****   irep->nregs = bin_to_uint16(p);	p += 2;
 217              		.loc 1 113 0
 218 0028 0380     		strh	r3, [r0]	@ movhi
 219              	.LVL23:
 220              	.LBB30:
 221              	.LBB31:
 154:vm.h          ****   return (x << 8) | (x >> 8);
 222              		.loc 2 154 0
 223 002a E288     		ldrh	r2, [r4, #6]
 224              	.LVL24:
 225              		.loc 2 155 0
 226 002c 130A     		lsrs	r3, r2, #8
 227 002e 43EA0223 		orr	r3, r3, r2, lsl #8
 228              	.LVL25:
 229              	.LBE31:
 230              	.LBE30:
 114:load.c        ****   irep->rlen = bin_to_uint16(p);	p += 2;
 231              		.loc 1 114 0
 232 0032 4380     		strh	r3, [r0, #2]	@ movhi
 233              	.LVL26:
 234              	.LBB32:
ARM GAS  C:\Users\164\AppData\Local\Temp\ccBQAwea.s 			page 13


 235              	.LBB33:
 154:vm.h          ****   return (x << 8) | (x >> 8);
 236              		.loc 2 154 0
 237 0034 2189     		ldrh	r1, [r4, #8]
 238              	.LVL27:
 239              		.loc 2 155 0
 240 0036 0B0A     		lsrs	r3, r1, #8
 241 0038 43EA0121 		orr	r1, r3, r1, lsl #8
 242              	.LVL28:
 243 003c 89B2     		uxth	r1, r1
 244              	.LVL29:
 245              	.LBE33:
 246              	.LBE32:
 115:load.c        ****   irep->ilen = bin_to_uint32(p);	p += 4;
 247              		.loc 1 115 0
 248 003e 8180     		strh	r1, [r0, #4]	@ movhi
 249              	.LVL30:
 250              	.LBB34:
 251              	.LBB35:
 113:vm.h          ****   return (x << 24) | ((x & 0xff00) << 8) | ((x >> 8) & 0xff00) | (x >> 24);
 252              		.loc 2 113 0
 253 0040 D4F80A00 		ldr	r0, [r4, #10]
 254              	.LVL31:
 114:vm.h          **** 
 255              		.loc 2 114 0
 256 0044 0202     		lsls	r2, r0, #8
 257 0046 02F47F02 		and	r2, r2, #16711680
 258 004a 42EA0062 		orr	r2, r2, r0, lsl #24
 259 004e 030A     		lsrs	r3, r0, #8
 260 0050 03F47F43 		and	r3, r3, #65280
 261 0054 1343     		orrs	r3, r3, r2
 262 0056 43EA1063 		orr	r3, r3, r0, lsr #24
 263              	.LVL32:
 264              	.LBE35:
 265              	.LBE34:
 116:load.c        **** 
 266              		.loc 1 116 0
 267 005a AAF80630 		strh	r3, [r10, #6]	@ movhi
 268 005e 0E34     		adds	r4, r4, #14
 269              	.LVL33:
 119:load.c        **** 
 270              		.loc 1 119 0
 271 0060 DBF80850 		ldr	r5, [fp, #8]
 272 0064 2D1B     		subs	r5, r5, r4
 273 0066 05F00305 		and	r5, r5, #3
 274 006a 2544     		add	r5, r5, r4
 275              	.LVL34:
 122:load.c        ****     irep->reps = (mrbc_irep **)mrbc_alloc(0, sizeof(mrbc_irep *) * irep->rlen);
 276              		.loc 1 122 0
 277 006c 51B1     		cbz	r1, .L14
 123:load.c        ****     if( irep->reps == NULL ) {
 278              		.loc 1 123 0
 279 006e 8900     		lsls	r1, r1, #2
 280 0070 0020     		movs	r0, #0
 281 0072 FFF7FEFF 		bl	mrbc_alloc
 282              	.LVL35:
 283 0076 CAF81800 		str	r0, [r10, #24]
ARM GAS  C:\Users\164\AppData\Local\Temp\ccBQAwea.s 			page 14


 124:load.c        ****       vm->error_code = LOAD_FILE_IREP_ERROR_ALLOCATION;
 284              		.loc 1 124 0
 285 007a 18B9     		cbnz	r0, .L14
 125:load.c        ****       return NULL;
 286              		.loc 1 125 0
 287 007c 524B     		ldr	r3, .L27
 288 007e CBF86436 		str	r3, [fp, #1636]
 126:load.c        ****     }
 289              		.loc 1 126 0
 290 0082 9DE0     		b	.L13
 291              	.L14:
 131:load.c        ****   p += irep->ilen * 4;
 292              		.loc 1 131 0
 293 0084 CAF80C50 		str	r5, [r10, #12]
 132:load.c        **** 
 294              		.loc 1 132 0
 295 0088 BAF80630 		ldrh	r3, [r10, #6]
 296 008c 05EB8304 		add	r4, r5, r3, lsl #2
 297              	.LVL36:
 298              	.LBB36:
 299              	.LBB37:
 113:vm.h          ****   return (x << 24) | ((x & 0xff00) << 8) | ((x >> 8) & 0xff00) | (x >> 24);
 300              		.loc 2 113 0
 301 0090 55F82310 		ldr	r1, [r5, r3, lsl #2]
 302              	.LVL37:
 114:vm.h          **** 
 303              		.loc 2 114 0
 304 0094 0B02     		lsls	r3, r1, #8
 305 0096 03F47F03 		and	r3, r3, #16711680
 306 009a 43EA0162 		orr	r2, r3, r1, lsl #24
 307 009e 0B0A     		lsrs	r3, r1, #8
 308 00a0 03F47F43 		and	r3, r3, #65280
 309 00a4 1343     		orrs	r3, r3, r2
 310 00a6 43EA1161 		orr	r1, r3, r1, lsr #24
 311              	.LVL38:
 312              	.LBE37:
 313              	.LBE36:
 135:load.c        ****   if( irep->plen ) {
 314              		.loc 1 135 0
 315 00aa 89B2     		uxth	r1, r1
 316 00ac AAF80810 		strh	r1, [r10, #8]	@ movhi
 317 00b0 0434     		adds	r4, r4, #4
 318              	.LVL39:
 136:load.c        ****     irep->pools = (mrbc_object**)mrbc_alloc(0, sizeof(void*) * irep->plen);
 319              		.loc 1 136 0
 320 00b2 31B1     		cbz	r1, .L15
 137:load.c        ****     if(irep->pools == NULL ) {
 321              		.loc 1 137 0
 322 00b4 8900     		lsls	r1, r1, #2
 323 00b6 0020     		movs	r0, #0
 324 00b8 FFF7FEFF 		bl	mrbc_alloc
 325              	.LVL40:
 326 00bc CAF81000 		str	r0, [r10, #16]
 138:load.c        ****       vm->error_code = LOAD_FILE_IREP_ERROR_ALLOCATION;
 327              		.loc 1 138 0
 328 00c0 08B1     		cbz	r0, .L16
 329              	.L15:
ARM GAS  C:\Users\164\AppData\Local\Temp\ccBQAwea.s 			page 15


 102:load.c        ****   const uint8_t *p = *pos + 4;			// skip record size
 330              		.loc 1 102 0 discriminator 1
 331 00c2 0026     		movs	r6, #0
 332 00c4 5CE0     		b	.L17
 333              	.L16:
 139:load.c        ****       return NULL;
 334              		.loc 1 139 0
 335 00c6 404B     		ldr	r3, .L27
 336 00c8 CBF86436 		str	r3, [fp, #1636]
 140:load.c        ****     }
 337              		.loc 1 140 0
 338 00cc 0020     		movs	r0, #0
 339 00ce 77E0     		b	.L13
 340              	.LVL41:
 341              	.L23:
 342              	.LBB38:
 146:load.c        ****     int obj_size = bin_to_uint16(p);	p += 2;
 343              		.loc 1 146 0
 344 00d0 94F80090 		ldrb	r9, [r4]	@ zero_extendqisi2
 345              	.LVL42:
 346              	.LBB39:
 347              	.LBB40:
 154:vm.h          ****   return (x << 8) | (x >> 8);
 348              		.loc 2 154 0
 349 00d4 B4F80150 		ldrh	r5, [r4, #1]
 350              	.LVL43:
 351              		.loc 2 155 0
 352 00d8 2B0A     		lsrs	r3, r5, #8
 353 00da 43EA0525 		orr	r5, r3, r5, lsl #8
 354              	.LVL44:
 355 00de ADB2     		uxth	r5, r5
 356              	.LVL45:
 357              	.LBE40:
 358              	.LBE39:
 147:load.c        ****     mrbc_object *obj = mrbc_obj_alloc(0, MRBC_TT_EMPTY);
 359              		.loc 1 147 0
 360 00e0 0334     		adds	r4, r4, #3
 361              	.LVL46:
 148:load.c        ****     if( obj == NULL ) {
 362              		.loc 1 148 0
 363 00e2 0021     		movs	r1, #0
 364 00e4 0846     		mov	r0, r1
 365 00e6 FFF7FEFF 		bl	mrbc_obj_alloc
 366              	.LVL47:
 149:load.c        ****       vm->error_code = LOAD_FILE_IREP_ERROR_ALLOCATION;
 367              		.loc 1 149 0
 368 00ea 8046     		mov	r8, r0
 369 00ec 18B9     		cbnz	r0, .L18
 150:load.c        ****       return NULL;
 370              		.loc 1 150 0
 371 00ee 364B     		ldr	r3, .L27
 372 00f0 CBF86436 		str	r3, [fp, #1636]
 151:load.c        ****     }
 373              		.loc 1 151 0
 374 00f4 64E0     		b	.L13
 375              	.L18:
 153:load.c        **** #if MRBC_USE_STRING
ARM GAS  C:\Users\164\AppData\Local\Temp\ccBQAwea.s 			page 16


 376              		.loc 1 153 0
 377 00f6 B9F1010F 		cmp	r9, #1
 378 00fa 0AD0     		beq	.L20
 379 00fc B9F1000F 		cmp	r9, #0
 380 0100 03D0     		beq	.L21
 381 0102 B9F1020F 		cmp	r9, #2
 382 0106 1DD0     		beq	.L22
 383 0108 34E0     		b	.L19
 384              	.L21:
 156:load.c        ****       obj->str = (char*)p;
 385              		.loc 1 156 0
 386 010a 1723     		movs	r3, #23
 387 010c 0370     		strb	r3, [r0]
 157:load.c        ****     } break;
 388              		.loc 1 157 0
 389 010e 8460     		str	r4, [r0, #8]
 158:load.c        **** #endif
 390              		.loc 1 158 0
 391 0110 30E0     		b	.L19
 392              	.L20:
 393              	.LBB41:
 160:load.c        ****       char buf[obj_size+1];
 394              		.loc 1 160 0
 395 0112 E946     		mov	r9, sp
 396              	.LVL48:
 161:load.c        ****       memcpy(buf, p, obj_size);
 397              		.loc 1 161 0
 398 0114 05F10803 		add	r3, r5, #8
 399 0118 23F00703 		bic	r3, r3, #7
 400 011c ADEB030D 		sub	sp, sp, r3
 401              	.LVL49:
 162:load.c        ****       buf[obj_size] = '\0';
 402              		.loc 1 162 0
 403 0120 2A46     		mov	r2, r5
 404 0122 2146     		mov	r1, r4
 405 0124 6846     		mov	r0, sp
 406              	.LVL50:
 407 0126 FFF7FEFF 		bl	memcpy
 408              	.LVL51:
 163:load.c        ****       obj->tt = MRBC_TT_FIXNUM;
 409              		.loc 1 163 0
 410 012a 0023     		movs	r3, #0
 411 012c 0DF80530 		strb	r3, [sp, r5]
 164:load.c        ****       obj->i = atol(buf);
 412              		.loc 1 164 0
 413 0130 0423     		movs	r3, #4
 414 0132 88F80030 		strb	r3, [r8]
 165:load.c        ****     } break;
 415              		.loc 1 165 0
 416 0136 6846     		mov	r0, sp
 417 0138 FFF7FEFF 		bl	atol
 418              	.LVL52:
 419 013c C8F80800 		str	r0, [r8, #8]
 420 0140 CD46     		mov	sp, r9
 421              	.LVL53:
 422              	.LBE41:
 166:load.c        **** #if MRBC_USE_FLOAT
ARM GAS  C:\Users\164\AppData\Local\Temp\ccBQAwea.s 			page 17


 423              		.loc 1 166 0
 424 0142 17E0     		b	.L19
 425              	.LVL54:
 426              	.L22:
 427              	.LBB42:
 168:load.c        ****       char buf[obj_size+1];
 428              		.loc 1 168 0
 429 0144 E946     		mov	r9, sp
 430              	.LVL55:
 169:load.c        ****       memcpy(buf, p, obj_size);
 431              		.loc 1 169 0
 432 0146 05F10803 		add	r3, r5, #8
 433 014a 23F00703 		bic	r3, r3, #7
 434 014e ADEB030D 		sub	sp, sp, r3
 435              	.LVL56:
 170:load.c        ****       buf[obj_size] = '\0';
 436              		.loc 1 170 0
 437 0152 2A46     		mov	r2, r5
 438 0154 2146     		mov	r1, r4
 439 0156 6846     		mov	r0, sp
 440              	.LVL57:
 441 0158 FFF7FEFF 		bl	memcpy
 442              	.LVL58:
 171:load.c        ****       obj->tt = MRBC_TT_FLOAT;
 443              		.loc 1 171 0
 444 015c 0023     		movs	r3, #0
 445 015e 0DF80530 		strb	r3, [sp, r5]
 172:load.c        ****       obj->d = atof(buf);
 446              		.loc 1 172 0
 447 0162 0523     		movs	r3, #5
 448 0164 88F80030 		strb	r3, [r8]
 173:load.c        ****     } break;
 449              		.loc 1 173 0
 450 0168 6846     		mov	r0, sp
 451 016a FFF7FEFF 		bl	atof
 452              	.LVL59:
 453 016e C8E90201 		strd	r0, [r8, #8]
 454 0172 CD46     		mov	sp, r9
 455              	.LVL60:
 456              	.L19:
 457              	.LBE42:
 180:load.c        ****     p += obj_size;
 458              		.loc 1 180 0 discriminator 2
 459 0174 DAF81030 		ldr	r3, [r10, #16]
 460 0178 43F82680 		str	r8, [r3, r6, lsl #2]
 181:load.c        ****   }
 461              		.loc 1 181 0 discriminator 2
 462 017c 2C44     		add	r4, r4, r5
 463              	.LVL61:
 464              	.LBE38:
 145:load.c        ****     int tt = *p++;
 465              		.loc 1 145 0 discriminator 2
 466 017e 0136     		adds	r6, r6, #1
 467              	.LVL62:
 468              	.L17:
 145:load.c        ****     int tt = *p++;
 469              		.loc 1 145 0 is_stmt 0 discriminator 1
ARM GAS  C:\Users\164\AppData\Local\Temp\ccBQAwea.s 			page 18


 470 0180 BAF80830 		ldrh	r3, [r10, #8]
 471 0184 9E42     		cmp	r6, r3
 472 0186 A3DB     		blt	.L23
 185:load.c        ****   int slen = bin_to_uint32(p);		p += 4;
 473              		.loc 1 185 0 is_stmt 1
 474 0188 CAF81440 		str	r4, [r10, #20]
 475              	.LVL63:
 476              	.LBB43:
 477              	.LBB44:
 113:vm.h          ****   return (x << 24) | ((x & 0xff00) << 8) | ((x >> 8) & 0xff00) | (x >> 24);
 478              		.loc 2 113 0
 479 018c 54F8041B 		ldr	r1, [r4], #4
 480              	.LVL64:
 114:vm.h          **** 
 481              		.loc 2 114 0
 482 0190 0B02     		lsls	r3, r1, #8
 483 0192 03F47F03 		and	r3, r3, #16711680
 484 0196 43EA0162 		orr	r2, r3, r1, lsl #24
 485 019a 0B0A     		lsrs	r3, r1, #8
 486 019c 03F47F43 		and	r3, r3, #65280
 487 01a0 1343     		orrs	r3, r3, r2
 488 01a2 43EA1162 		orr	r2, r3, r1, lsr #24
 489              	.LVL65:
 490              	.LBE44:
 491              	.LBE43:
 187:load.c        ****     int s = bin_to_uint16(p);		p += 2;
 492              		.loc 1 187 0
 493 01a6 06E0     		b	.L24
 494              	.L25:
 495              	.LVL66:
 496              	.LBB45:
 497              	.LBB46:
 498              	.LBB47:
 154:vm.h          ****   return (x << 8) | (x >> 8);
 499              		.loc 2 154 0
 500 01a8 2188     		ldrh	r1, [r4]
 501              	.LVL67:
 502              		.loc 2 155 0
 503 01aa 0B0A     		lsrs	r3, r1, #8
 504 01ac 43EA0123 		orr	r3, r3, r1, lsl #8
 505 01b0 9BB2     		uxth	r3, r3
 506              	.LVL68:
 507              	.LBE47:
 508              	.LBE46:
 189:load.c        ****   }
 509              		.loc 1 189 0
 510 01b2 0333     		adds	r3, r3, #3
 511              	.LVL69:
 512 01b4 1C44     		add	r4, r4, r3
 513              	.LVL70:
 514              	.L24:
 515              	.LBE45:
 187:load.c        ****     int s = bin_to_uint16(p);		p += 2;
 516              		.loc 1 187 0
 517 01b6 013A     		subs	r2, r2, #1
 518              	.LVL71:
 519 01b8 F6D5     		bpl	.L25
ARM GAS  C:\Users\164\AppData\Local\Temp\ccBQAwea.s 			page 19


 192:load.c        ****   return irep;
 520              		.loc 1 192 0
 521 01ba 7B68     		ldr	r3, [r7, #4]
 522 01bc 1C60     		str	r4, [r3]
 193:load.c        **** }
 523              		.loc 1 193 0
 524 01be 5046     		mov	r0, r10
 525              	.LVL72:
 526              	.L13:
 194:load.c        **** 
 527              		.loc 1 194 0
 528 01c0 0C37     		adds	r7, r7, #12
 529              		.cfi_def_cfa_offset 36
 530 01c2 BD46     		mov	sp, r7
 531              		.cfi_def_cfa_register 13
 532              	.LVL73:
 533              		@ sp needed
 534 01c4 BDE8F08F 		pop	{r4, r5, r6, r7, r8, r9, r10, fp, pc}
 535              	.LVL74:
 536              	.L28:
 537              		.align	2
 538              	.L27:
 539 01c8 03000201 		.word	16908291
 540              		.cfi_endproc
 541              	.LFE11:
 542              		.size	load_irep_1, .-load_irep_1
 543              		.section	.text.load_irep_0,"ax",%progbits
 544              		.align	2
 545              		.thumb
 546              		.thumb_func
 547              		.type	load_irep_0, %function
 548              	load_irep_0:
 549              	.LFB12:
 207:load.c        ****   mrbc_irep *irep = load_irep_1(vm, pos);
 550              		.loc 1 207 0
 551              		.cfi_startproc
 552              		@ args = 0, pretend = 0, frame = 0
 553              		@ frame_needed = 0, uses_anonymous_args = 0
 554              	.LVL75:
 555 0000 2DE9F041 		push	{r4, r5, r6, r7, r8, lr}
 556              		.cfi_def_cfa_offset 24
 557              		.cfi_offset 4, -24
 558              		.cfi_offset 5, -20
 559              		.cfi_offset 6, -16
 560              		.cfi_offset 7, -12
 561              		.cfi_offset 8, -8
 562              		.cfi_offset 14, -4
 563 0004 0746     		mov	r7, r0
 564 0006 8846     		mov	r8, r1
 208:load.c        ****   if( !irep ) return NULL;
 565              		.loc 1 208 0
 566 0008 FFF7FEFF 		bl	load_irep_1
 567              	.LVL76:
 209:load.c        **** 
 568              		.loc 1 209 0
 569 000c 80B1     		cbz	r0, .L33
 570 000e 0546     		mov	r5, r0
ARM GAS  C:\Users\164\AppData\Local\Temp\ccBQAwea.s 			page 20


 571 0010 0024     		movs	r4, #0
 572 0012 07E0     		b	.L31
 573              	.LVL77:
 574              	.L32:
 213:load.c        ****   }
 575              		.loc 1 213 0 discriminator 3
 576 0014 AE69     		ldr	r6, [r5, #24]
 577 0016 4146     		mov	r1, r8
 578 0018 3846     		mov	r0, r7
 579 001a FFF7F1FF 		bl	load_irep_0
 580              	.LVL78:
 581 001e 46F82400 		str	r0, [r6, r4, lsl #2]
 212:load.c        ****     irep->reps[i] = load_irep_0(vm, pos);
 582              		.loc 1 212 0 discriminator 3
 583 0022 0134     		adds	r4, r4, #1
 584              	.LVL79:
 585              	.L31:
 212:load.c        ****     irep->reps[i] = load_irep_0(vm, pos);
 586              		.loc 1 212 0 is_stmt 0 discriminator 1
 587 0024 AB88     		ldrh	r3, [r5, #4]
 588 0026 9C42     		cmp	r4, r3
 589 0028 F4DB     		blt	.L32
 216:load.c        **** }
 590              		.loc 1 216 0 is_stmt 1
 591 002a 2846     		mov	r0, r5
 592 002c BDE8F081 		pop	{r4, r5, r6, r7, r8, pc}
 593              	.LVL80:
 594              	.L33:
 209:load.c        **** 
 595              		.loc 1 209 0
 596 0030 0020     		movs	r0, #0
 597              	.LVL81:
 217:load.c        **** 
 598              		.loc 1 217 0
 599 0032 BDE8F081 		pop	{r4, r5, r6, r7, r8, pc}
 600              		.cfi_endproc
 601              	.LFE12:
 602              		.size	load_irep_0, .-load_irep_0
 603 0036 00BF     		.section	.text.load_irep,"ax",%progbits
 604              		.align	2
 605              		.thumb
 606              		.thumb_func
 607              		.type	load_irep, %function
 608              	load_irep:
 609              	.LFB13:
 237:load.c        ****   const uint8_t *p = *pos + 4;			// 4 = skip "RITE"
 610              		.loc 1 237 0
 611              		.cfi_startproc
 612              		@ args = 0, pretend = 0, frame = 8
 613              		@ frame_needed = 0, uses_anonymous_args = 0
 614              	.LVL82:
 615 0000 2DE9F041 		push	{r4, r5, r6, r7, r8, lr}
 616              		.cfi_def_cfa_offset 24
 617              		.cfi_offset 4, -24
 618              		.cfi_offset 5, -20
 619              		.cfi_offset 6, -16
 620              		.cfi_offset 7, -12
ARM GAS  C:\Users\164\AppData\Local\Temp\ccBQAwea.s 			page 21


 621              		.cfi_offset 8, -8
 622              		.cfi_offset 14, -4
 623 0004 82B0     		sub	sp, sp, #8
 624              		.cfi_def_cfa_offset 32
 625 0006 0646     		mov	r6, r0
 626 0008 0D46     		mov	r5, r1
 238:load.c        ****   int section_size = bin_to_uint32(p);
 627              		.loc 1 238 0
 628 000a 0B68     		ldr	r3, [r1]
 629 000c 1C1D     		adds	r4, r3, #4
 630 000e 0194     		str	r4, [sp, #4]
 631              	.LVL83:
 632              	.LBB48:
 633              	.LBB49:
 113:vm.h          ****   return (x << 24) | ((x & 0xff00) << 8) | ((x >> 8) & 0xff00) | (x >> 24);
 634              		.loc 2 113 0
 635 0010 5F68     		ldr	r7, [r3, #4]
 636              	.LVL84:
 114:vm.h          **** 
 637              		.loc 2 114 0
 638 0012 3902     		lsls	r1, r7, #8
 639              	.LVL85:
 640 0014 01F47F01 		and	r1, r1, #16711680
 641 0018 41EA0761 		orr	r1, r1, r7, lsl #24
 642 001c 3A0A     		lsrs	r2, r7, #8
 643 001e 02F47F42 		and	r2, r2, #65280
 644 0022 41EA0203 		orr	r3, r1, r2
 645 0026 43EA1767 		orr	r7, r3, r7, lsr #24
 646              	.LVL86:
 647              	.LBE49:
 648              	.LBE48:
 240:load.c        ****   if( memcmp(p, "0000", 4) != 0 ) {		// rite version
 649              		.loc 1 240 0
 650 002a 0434     		adds	r4, r4, #4
 651 002c 0194     		str	r4, [sp, #4]
 241:load.c        ****     vm->error_code = LOAD_FILE_IREP_ERROR_VERSION;
 652              		.loc 1 241 0
 653 002e 0422     		movs	r2, #4
 654 0030 0F49     		ldr	r1, .L40
 655 0032 2046     		mov	r0, r4
 656              	.LVL87:
 657 0034 FFF7FEFF 		bl	memcmp
 658              	.LVL88:
 659 0038 28B1     		cbz	r0, .L36
 242:load.c        ****     return -1;
 660              		.loc 1 242 0
 661 003a 0E4B     		ldr	r3, .L40+4
 662 003c C6F86436 		str	r3, [r6, #1636]
 243:load.c        ****   }
 663              		.loc 1 243 0
 664 0040 4FF0FF38 		mov	r8, #-1
 665 0044 0FE0     		b	.L37
 666              	.L36:
 667 0046 8046     		mov	r8, r0
 245:load.c        ****   vm->irep = load_irep_0(vm, &p);
 668              		.loc 1 245 0
 669 0048 0434     		adds	r4, r4, #4
ARM GAS  C:\Users\164\AppData\Local\Temp\ccBQAwea.s 			page 22


 670 004a 02A9     		add	r1, sp, #8
 671 004c 41F8044D 		str	r4, [r1, #-4]!
 246:load.c        ****   if( vm->irep == NULL ) {
 672              		.loc 1 246 0
 673 0050 3046     		mov	r0, r6
 674 0052 FFF7FEFF 		bl	load_irep_0
 675              	.LVL89:
 676 0056 3060     		str	r0, [r6]
 247:load.c        ****     return -1;
 677              		.loc 1 247 0
 678 0058 18B1     		cbz	r0, .L38
 251:load.c        ****   return 0;
 679              		.loc 1 251 0
 680 005a 2B68     		ldr	r3, [r5]
 681 005c 3B44     		add	r3, r3, r7
 682 005e 2B60     		str	r3, [r5]
 252:load.c        **** }
 683              		.loc 1 252 0
 684 0060 01E0     		b	.L37
 685              	.L38:
 248:load.c        ****   }
 686              		.loc 1 248 0
 687 0062 4FF0FF38 		mov	r8, #-1
 688              	.L37:
 253:load.c        **** 
 689              		.loc 1 253 0
 690 0066 4046     		mov	r0, r8
 691 0068 02B0     		add	sp, sp, #8
 692              		.cfi_def_cfa_offset 24
 693              		@ sp needed
 694 006a BDE8F081 		pop	{r4, r5, r6, r7, r8, pc}
 695              	.LVL90:
 696              	.L41:
 697 006e 00BF     		.align	2
 698              	.L40:
 699 0070 14000000 		.word	.LC2
 700 0074 02000201 		.word	16908290
 701              		.cfi_endproc
 702              	.LFE13:
 703              		.size	load_irep, .-load_irep
 704              		.section	.text.mrbc_load_mrb,"ax",%progbits
 705              		.align	2
 706              		.global	mrbc_load_mrb
 707              		.thumb
 708              		.thumb_func
 709              		.type	mrbc_load_mrb, %function
 710              	mrbc_load_mrb:
 711              	.LFB15:
 274:load.c        **** 
 275:load.c        **** 
 276:load.c        **** //================================================================
 277:load.c        **** /*!@brief
 278:load.c        ****   Load the VM bytecode.
 279:load.c        **** 
 280:load.c        ****   @param  vm    Pointer to VM.
 281:load.c        ****   @param  ptr	Pointer to bytecode.
 282:load.c        **** 
ARM GAS  C:\Users\164\AppData\Local\Temp\ccBQAwea.s 			page 23


 283:load.c        **** */
 284:load.c        **** int mrbc_load_mrb(struct VM *vm, const uint8_t *ptr)
 285:load.c        **** {
 712              		.loc 1 285 0
 713              		.cfi_startproc
 714              		@ args = 0, pretend = 0, frame = 8
 715              		@ frame_needed = 0, uses_anonymous_args = 0
 716              	.LVL91:
 717 0000 70B5     		push	{r4, r5, r6, lr}
 718              		.cfi_def_cfa_offset 16
 719              		.cfi_offset 4, -16
 720              		.cfi_offset 5, -12
 721              		.cfi_offset 6, -8
 722              		.cfi_offset 14, -4
 723 0002 82B0     		sub	sp, sp, #8
 724              		.cfi_def_cfa_offset 24
 725 0004 0646     		mov	r6, r0
 726 0006 02AB     		add	r3, sp, #8
 727 0008 43F8041D 		str	r1, [r3, #-4]!
 728              	.LVL92:
 286:load.c        ****   int ret = -1;
 287:load.c        ****   vm->mrb = ptr;
 729              		.loc 1 287 0
 730 000c 8160     		str	r1, [r0, #8]
 288:load.c        **** 
 289:load.c        ****   ret = load_header(vm, &ptr);
 731              		.loc 1 289 0
 732 000e 1946     		mov	r1, r3
 733              	.LVL93:
 734 0010 FFF7FEFF 		bl	load_header
 735              	.LVL94:
 736 0014 0546     		mov	r5, r0
 737              	.LVL95:
 290:load.c        ****   while( ret == 0 ) {
 738              		.loc 1 290 0
 739 0016 1EE0     		b	.L43
 740              	.LVL96:
 741              	.L48:
 291:load.c        ****     if( memcmp(ptr, "IREP", 4) == 0 ) {
 742              		.loc 1 291 0
 743 0018 019C     		ldr	r4, [sp, #4]
 744 001a 0422     		movs	r2, #4
 745 001c 1049     		ldr	r1, .L50
 746 001e 2046     		mov	r0, r4
 747 0020 FFF7FEFF 		bl	memcmp
 748              	.LVL97:
 749 0024 28B9     		cbnz	r0, .L44
 292:load.c        ****       ret = load_irep(vm, &ptr);
 750              		.loc 1 292 0
 751 0026 01A9     		add	r1, sp, #4
 752 0028 3046     		mov	r0, r6
 753 002a FFF7FEFF 		bl	load_irep
 754              	.LVL98:
 755 002e 0546     		mov	r5, r0
 756              	.LVL99:
 757 0030 11E0     		b	.L43
 758              	.LVL100:
ARM GAS  C:\Users\164\AppData\Local\Temp\ccBQAwea.s 			page 24


 759              	.L44:
 293:load.c        ****     }
 294:load.c        ****     else if( memcmp(ptr, "LVAR", 4) == 0 ) {
 760              		.loc 1 294 0
 761 0032 0422     		movs	r2, #4
 762 0034 0B49     		ldr	r1, .L50+4
 763 0036 2046     		mov	r0, r4
 764 0038 FFF7FEFF 		bl	memcmp
 765              	.LVL101:
 766 003c 28B9     		cbnz	r0, .L46
 295:load.c        ****       ret = load_lvar(vm, &ptr);
 767              		.loc 1 295 0
 768 003e 01A9     		add	r1, sp, #4
 769 0040 3046     		mov	r0, r6
 770 0042 FFF7FEFF 		bl	load_lvar
 771              	.LVL102:
 772 0046 0546     		mov	r5, r0
 773              	.LVL103:
 774 0048 05E0     		b	.L43
 775              	.LVL104:
 776              	.L46:
 296:load.c        ****     }
 297:load.c        ****     else if( memcmp(ptr, "END\0", 4) == 0 ) {
 777              		.loc 1 297 0
 778 004a 0422     		movs	r2, #4
 779 004c 0649     		ldr	r1, .L50+8
 780 004e 2046     		mov	r0, r4
 781 0050 FFF7FEFF 		bl	memcmp
 782              	.LVL105:
 783 0054 08B1     		cbz	r0, .L47
 784              	.L43:
 290:load.c        ****     if( memcmp(ptr, "IREP", 4) == 0 ) {
 785              		.loc 1 290 0
 786 0056 002D     		cmp	r5, #0
 787 0058 DED0     		beq	.L48
 788              	.L47:
 298:load.c        ****       break;
 299:load.c        ****     }
 300:load.c        ****   }
 301:load.c        **** 
 302:load.c        ****   return ret;
 303:load.c        **** }
 789              		.loc 1 303 0
 790 005a 2846     		mov	r0, r5
 791 005c 02B0     		add	sp, sp, #8
 792              		.cfi_def_cfa_offset 16
 793              	.LVL106:
 794              		@ sp needed
 795 005e 70BD     		pop	{r4, r5, r6, pc}
 796              	.LVL107:
 797              	.L51:
 798              		.align	2
 799              	.L50:
 800 0060 1C000000 		.word	.LC3
 801 0064 24000000 		.word	.LC4
 802 0068 00000000 		.word	.LANCHOR0
 803              		.cfi_endproc
ARM GAS  C:\Users\164\AppData\Local\Temp\ccBQAwea.s 			page 25


 804              	.LFE15:
 805              		.size	mrbc_load_mrb, .-mrbc_load_mrb
 806              		.section	.rodata
 807              		.align	2
 808              		.set	.LANCHOR0,. + 0
 809              	.LC5:
 810 0000 454E4400 		.ascii	"END\000\000"
 810      00
 811              		.section	.rodata.str1.4,"aMS",%progbits,1
 812              		.align	2
 813              	.LC0:
 814 0000 52495445 		.ascii	"RITE0004\000"
 814      30303034 
 814      00
 815 0009 000000   		.space	3
 816              	.LC1:
 817 000c 4D41545A 		.ascii	"MATZ\000"
 817      00
 818 0011 000000   		.space	3
 819              	.LC2:
 820 0014 30303030 		.ascii	"0000\000"
 820      00
 821 0019 000000   		.space	3
 822              	.LC3:
 823 001c 49524550 		.ascii	"IREP\000"
 823      00
 824 0021 000000   		.space	3
 825              	.LC4:
 826 0024 4C564152 		.ascii	"LVAR\000"
 826      00
 827              		.text
 828              	.Letext0:
 829              		.file 3 "c:\\program files (x86)\\cypress\\psoc creator\\4.2\\psoc creator\\import\\gnu\\arm\\5.4.
 830              		.file 4 "c:\\program files (x86)\\cypress\\psoc creator\\4.2\\psoc creator\\import\\gnu\\arm\\5.4.
 831              		.file 5 "value.h"
 832              		.file 6 "c:\\program files (x86)\\cypress\\psoc creator\\4.2\\psoc creator\\import\\gnu\\arm\\5.4.
 833              		.file 7 "c:\\program files (x86)\\cypress\\psoc creator\\4.2\\psoc creator\\import\\gnu\\arm\\5.4.
 834              		.file 8 "alloc.h"