ARM GAS  C:\Users\164\AppData\Local\Temp\cc8Yccmn.s 			page 1


   1              		.syntax unified
   2              		.cpu cortex-m3
   3              		.fpu softvfp
   4              		.eabi_attribute 20, 1
   5              		.eabi_attribute 21, 1
   6              		.eabi_attribute 23, 3
   7              		.eabi_attribute 24, 1
   8              		.eabi_attribute 25, 1
   9              		.eabi_attribute 26, 1
  10              		.eabi_attribute 30, 1
  11              		.eabi_attribute 34, 1
  12              		.eabi_attribute 18, 4
  13              		.thumb
  14              		.syntax unified
  15              		.file	"main.c"
  16              		.text
  17              	.Ltext0:
  18              		.cfi_sections	.debug_frame
  19              		.section	.text.io_new,"ax",%progbits
  20              		.align	2
  21              		.thumb
  22              		.thumb_func
  23              		.type	io_new, %function
  24              	io_new:
  25              	.LFB99:
  26              		.file 1 "main.c"
   1:main.c        **** #include <project.h>
   2:main.c        **** #include "mrubyc.h"
   3:main.c        **** #include <math.h>
   4:main.c        **** 
   5:main.c        **** #include "c_uart.h"
   6:main.c        **** #include "c_i2c.h"
   7:main.c        **** #include "c_adc.h"
   8:main.c        **** #include "c_standard_io.h"
   9:main.c        **** #include <stdio.h>
  10:main.c        **** #include "mrbc_firm.h"
  11:main.c        **** #define MEMORY_SIZE (1025*30)
  12:main.c        **** static uint8_t memory_pool[MEMORY_SIZE];
  13:main.c        **** static volatile int sleep_int_counter_;
  14:main.c        **** static int sleep_wakeup_timing_;
  15:main.c        **** 
  16:main.c        **** 
  17:main.c        **** const uint8_t CYCODE mruby_bytecode[MRBC_SIZE_IREP_STRAGE] = {
  18:main.c        ****   0xff,0xff, 0,0, 0,0, 0,0,
  19:main.c        **** 0x52,0x49,0x54,0x45,0x30,0x30,0x30,0x34,0x1c,0x76,0x00,0x00,0x00,0xa2,0x4d,0x41,
  20:main.c        **** 0x54,0x5a,0x30,0x30,0x30,0x30,0x49,0x52,0x45,0x50,0x00,0x00,0x00,0x84,0x30,0x30,
  21:main.c        **** 0x30,0x30,0x00,0x00,0x00,0x7c,0x00,0x01,0x00,0x05,0x00,0x00,0x00,0x00,0x00,0x13,
  22:main.c        **** 0x00,0x40,0x07,0x17,0x00,0x80,0x00,0x11,0x01,0x40,0x00,0x03,0x01,0xbf,0xff,0x83,
  23:main.c        **** 0x00,0x80,0x41,0x20,0x00,0x80,0x00,0x06,0x01,0x40,0x00,0x03,0x00,0x80,0x80,0xa0,
  24:main.c        **** 0x00,0x80,0x00,0x11,0x01,0x40,0x00,0x03,0x01,0xc0,0x00,0x03,0x00,0x80,0x41,0x20,
  25:main.c        **** 0x00,0x80,0x00,0x06,0x01,0x40,0x00,0x03,0x00,0x80,0x80,0xa0,0x00,0x80,0x00,0x07,
  26:main.c        **** 0x00,0xbf,0xf8,0x18,0x00,0x80,0x00,0x05,0x00,0x00,0x00,0x4a,0x00,0x00,0x00,0x00,
  27:main.c        **** 0x00,0x00,0x00,0x03,0x00,0x03,0x4c,0x45,0x44,0x00,0x00,0x05,0x77,0x72,0x69,0x74,
  28:main.c        **** 0x65,0x00,0x00,0x05,0x73,0x6c,0x65,0x65,0x70,0x00,0x45,0x4e,0x44,0x00,0x00,0x00,
  29:main.c        **** 0x00,0x08,
  30:main.c        **** };
  31:main.c        **** 
ARM GAS  C:\Users\164\AppData\Local\Temp\cc8Yccmn.s 			page 2


  32:main.c        **** 
  33:main.c        **** CY_ISR(isr_Tick)
  34:main.c        **** {
  35:main.c        ****   mrbc_tick();
  36:main.c        **** }
  37:main.c        **** 
  38:main.c        **** CY_ISR( isr_D1 )
  39:main.c        **** {
  40:main.c        ****   D1_ClearInterrupt();
  41:main.c        **** }
  42:main.c        **** CY_ISR( isr_SleepTimer )
  43:main.c        **** {
  44:main.c        ****   SleepTimer_GetStatus();
  45:main.c        ****   sleep_int_counter_++;
  46:main.c        **** }
  47:main.c        **** 
  48:main.c        **** static void io_new(mrb_vm *vm, mrb_value v[], int argc)
  49:main.c        **** {
  27              		.loc 1 49 0
  28              		.cfi_startproc
  29              		@ args = 0, pretend = 0, frame = 0
  30              		@ frame_needed = 0, uses_anonymous_args = 0
  31              		@ link register save eliminated.
  32              	.LVL0:
  50:main.c        ****     uint8 staticBits = (D1_DR & (uint8)(~0x03u));
  33              		.loc 1 50 0
  34 0000 074B     		ldr	r3, .L4
  35 0002 1B78     		ldrb	r3, [r3]	@ zero_extendqisi2
  36 0004 03F0FC03 		and	r3, r3, #252
  37              	.LVL1:
  51:main.c        ****     if(GET_INT_ARG(1) == 1){
  38              		.loc 1 51 0
  39 0008 8A69     		ldr	r2, [r1, #24]
  40              	.LVL2:
  41 000a 012A     		cmp	r2, #1
  42 000c 04D1     		bne	.L2
  52:main.c        ****         D1_DR = staticBits | 0x03u;
  43              		.loc 1 52 0
  44 000e 43F00303 		orr	r3, r3, #3
  45              	.LVL3:
  46 0012 034A     		ldr	r2, .L4
  47 0014 1370     		strb	r3, [r2]
  48 0016 7047     		bx	lr
  49              	.LVL4:
  50              	.L2:
  53:main.c        ****     }else{
  54:main.c        ****         D1_DR = staticBits | 0x00u;
  51              		.loc 1 54 0
  52 0018 014A     		ldr	r2, .L4
  53 001a 1370     		strb	r3, [r2]
  54 001c 7047     		bx	lr
  55              	.L5:
  56 001e 00BF     		.align	2
  57              	.L4:
  58 0020 50510040 		.word	1073762640
  59              		.cfi_endproc
  60              	.LFE99:
ARM GAS  C:\Users\164\AppData\Local\Temp\cc8Yccmn.s 			page 3


  61              		.size	io_new, .-io_new
  62              		.section	.text.p2_new,"ax",%progbits
  63              		.align	2
  64              		.thumb
  65              		.thumb_func
  66              		.type	p2_new, %function
  67              	p2_new:
  68              	.LFB100:
  55:main.c        ****     }
  56:main.c        **** }
  57:main.c        **** static void p2_new(mrb_vm *vm, mrb_value v[], int argc)
  58:main.c        **** {
  69              		.loc 1 58 0
  70              		.cfi_startproc
  71              		@ args = 0, pretend = 0, frame = 0
  72              		@ frame_needed = 0, uses_anonymous_args = 0
  73              		@ link register save eliminated.
  74              	.LVL5:
  59:main.c        ****     if(GET_INT_ARG(1) == 1){
  75              		.loc 1 59 0
  76 0000 8B69     		ldr	r3, [r1, #24]
  77 0002 012B     		cmp	r3, #1
  78 0004 03D1     		bne	.L7
  60:main.c        ****         P2_DR = 0xffu;
  79              		.loc 1 60 0
  80 0006 FF22     		movs	r2, #255
  81              	.LVL6:
  82 0008 034B     		ldr	r3, .L9
  83 000a 1A70     		strb	r2, [r3]
  84 000c 7047     		bx	lr
  85              	.LVL7:
  86              	.L7:
  61:main.c        ****     }else{
  62:main.c        ****         P2_DR = 0x00u;
  87              		.loc 1 62 0
  88 000e 0022     		movs	r2, #0
  89              	.LVL8:
  90 0010 014B     		ldr	r3, .L9
  91 0012 1A70     		strb	r2, [r3]
  92 0014 7047     		bx	lr
  93              	.L10:
  94 0016 00BF     		.align	2
  95              	.L9:
  96 0018 20510040 		.word	1073762592
  97              		.cfi_endproc
  98              	.LFE100:
  99              		.size	p2_new, .-p2_new
 100              		.section	.text.P_byte_Write,"ax",%progbits
 101              		.align	2
 102              		.thumb
 103              		.thumb_func
 104              		.type	P_byte_Write, %function
 105              	P_byte_Write:
 106              	.LFB106:
  63:main.c        ****     }
  64:main.c        **** }
  65:main.c        **** 
ARM GAS  C:\Users\164\AppData\Local\Temp\cc8Yccmn.s 			page 4


  66:main.c        **** 
  67:main.c        **** //================================================================
  68:main.c        ****  /*! 数学関数
  69:main.c        **** */
  70:main.c        **** static void c_log(mrb_vm *vm, mrb_value *v, int argc)
  71:main.c        **** {
  72:main.c        ****   double val = v[1].d;
  73:main.c        ****   val = log(val);
  74:main.c        ****   SET_FLOAT_RETURN(val);
  75:main.c        **** }
  76:main.c        **** 
  77:main.c        **** //================================================================
  78:main.c        ****  /*! Digital IO
  79:main.c        **** */
  80:main.c        **** static void digital_in(mrb_vm *vm, mrb_value *v, int argc)
  81:main.c        **** {
  82:main.c        ****   uint8 out_mask = ((uint8)pow(2,(GET_INT_ARG(1)-1)) * 0x01u);
  83:main.c        ****   SET_INT_RETURN((D1_PS & out_mask) >> (GET_INT_ARG(1)-1));
  84:main.c        **** }
  85:main.c        **** 
  86:main.c        **** static void digital_out(mrb_vm *vm, mrb_value *v, int argc)
  87:main.c        **** {
  88:main.c        ****   uint8 out_mask = ((uint8)pow(2,(GET_INT_ARG(1)-1)) * 0x01u);
  89:main.c        ****   uint8 staticBits = (D1_DR & (uint8)(~out_mask));
  90:main.c        ****   D1_DR = staticBits | ((uint8)(GET_INT_ARG(2) << (GET_INT_ARG(1)-1)) & out_mask);
  91:main.c        **** }
  92:main.c        **** 
  93:main.c        **** static void digital_interrupt(mrb_vm *vm, mrb_value *v, int argc)
  94:main.c        **** {
  95:main.c        ****   if(GET_INT_ARG(1)==1){
  96:main.c        ****     isr_1_StartEx( isr_D1 );
  97:main.c        ****   }
  98:main.c        **** }
  99:main.c        **** 
 100:main.c        **** //================================================================
 101:main.c        ****  /*! P2 IO
 102:main.c        **** */
 103:main.c        **** static void P_Write(mrb_vm *vm, mrb_value *v, int argc)
 104:main.c        **** {
 105:main.c        ****     uint8 mask = ((uint8)pow(2,(uint8)GET_INT_ARG(1)));
 106:main.c        ****     uint8 staticBits = ((*(reg8 *) P2__DR) & (uint8)(~mask));
 107:main.c        ****     P2_DR = staticBits | ((uint8)(GET_INT_ARG(2) << GET_INT_ARG(1))& mask);
 108:main.c        **** }
 109:main.c        **** 
 110:main.c        **** static void P_byte_Write(mrb_vm *vm, mrb_value *v, int argc)
 111:main.c        **** {
 107              		.loc 1 111 0
 108              		.cfi_startproc
 109              		@ args = 0, pretend = 0, frame = 0
 110              		@ frame_needed = 0, uses_anonymous_args = 0
 111              		@ link register save eliminated.
 112              	.LVL9:
 112:main.c        ****     uint8 staticBits = (P2_DR & (uint8)(~P2_MASK));
 113              		.loc 1 112 0
 114 0000 024B     		ldr	r3, .L12
 115 0002 1A78     		ldrb	r2, [r3]	@ zero_extendqisi2
 116              	.LVL10:
ARM GAS  C:\Users\164\AppData\Local\Temp\cc8Yccmn.s 			page 5


 113:main.c        ****     P2_DR = staticBits | ((uint8)(GET_INT_ARG(1) << P2_SHIFT) & P2_MASK);
 117              		.loc 1 113 0
 118 0004 0A7E     		ldrb	r2, [r1, #24]	@ zero_extendqisi2
 119 0006 1A70     		strb	r2, [r3]
 120 0008 7047     		bx	lr
 121              	.L13:
 122 000a 00BF     		.align	2
 123              	.L12:
 124 000c 20510040 		.word	1073762592
 125              		.cfi_endproc
 126              	.LFE106:
 127              		.size	P_byte_Write, .-P_byte_Write
 128              		.section	.text.P_nibble_Write,"ax",%progbits
 129              		.align	2
 130              		.thumb
 131              		.thumb_func
 132              		.type	P_nibble_Write, %function
 133              	P_nibble_Write:
 134              	.LFB107:
 114:main.c        **** }
 115:main.c        **** 
 116:main.c        **** static void P_nibble_Write(mrb_vm *vm, mrb_value *v, int argc)
 117:main.c        **** {
 135              		.loc 1 117 0
 136              		.cfi_startproc
 137              		@ args = 0, pretend = 0, frame = 0
 138              		@ frame_needed = 0, uses_anonymous_args = 0
 139              		@ link register save eliminated.
 140              	.LVL11:
 118:main.c        ****     uint8 bit = (GET_INT_ARG(2) << (4u*GET_INT_ARG(1)));
 141              		.loc 1 118 0
 142 0000 8A6A     		ldr	r2, [r1, #40]
 143              	.LVL12:
 144 0002 8B69     		ldr	r3, [r1, #24]
 145 0004 9B00     		lsls	r3, r3, #2
 146 0006 9A40     		lsls	r2, r2, r3
 147 0008 D2B2     		uxtb	r2, r2
 148              	.LVL13:
 119:main.c        ****     uint8 mask = 15u << (4u*GET_INT_ARG(1));
 149              		.loc 1 119 0
 150 000a 0F21     		movs	r1, #15
 151              	.LVL14:
 152 000c 01FA03F3 		lsl	r3, r1, r3
 153              	.LVL15:
 120:main.c        ****     uint8 staticBits = (P2_DR & (uint8)(~mask));
 154              		.loc 1 120 0
 155 0010 0348     		ldr	r0, .L15
 156              	.LVL16:
 157 0012 0178     		ldrb	r1, [r0]	@ zero_extendqisi2
 158 0014 C9B2     		uxtb	r1, r1
 159              	.LVL17:
 121:main.c        ****     P2_DR = staticBits | ((uint8)(bit << P2_SHIFT) & mask);
 160              		.loc 1 121 0
 161 0016 4A40     		eors	r2, r2, r1
 162              	.LVL18:
 163 0018 1340     		ands	r3, r3, r2
 164              	.LVL19:
ARM GAS  C:\Users\164\AppData\Local\Temp\cc8Yccmn.s 			page 6


 165 001a 4B40     		eors	r3, r3, r1
 166 001c 0370     		strb	r3, [r0]
 167              	.LVL20:
 168 001e 7047     		bx	lr
 169              	.L16:
 170              		.align	2
 171              	.L15:
 172 0020 20510040 		.word	1073762592
 173              		.cfi_endproc
 174              	.LFE107:
 175              		.size	P_nibble_Write, .-P_nibble_Write
 176              		.section	.text.isr_Tick,"ax",%progbits
 177              		.align	2
 178              		.global	isr_Tick
 179              		.thumb
 180              		.thumb_func
 181              		.type	isr_Tick, %function
 182              	isr_Tick:
 183              	.LFB96:
  34:main.c        ****   mrbc_tick();
 184              		.loc 1 34 0
 185              		.cfi_startproc
 186              		@ args = 0, pretend = 0, frame = 0
 187              		@ frame_needed = 0, uses_anonymous_args = 0
 188 0000 08B5     		push	{r3, lr}
 189              		.cfi_def_cfa_offset 8
 190              		.cfi_offset 3, -8
 191              		.cfi_offset 14, -4
  35:main.c        **** }
 192              		.loc 1 35 0
 193 0002 FFF7FEFF 		bl	mrbc_tick
 194              	.LVL21:
 195 0006 08BD     		pop	{r3, pc}
 196              		.cfi_endproc
 197              	.LFE96:
 198              		.size	isr_Tick, .-isr_Tick
 199              		.section	.text.isr_D1,"ax",%progbits
 200              		.align	2
 201              		.global	isr_D1
 202              		.thumb
 203              		.thumb_func
 204              		.type	isr_D1, %function
 205              	isr_D1:
 206              	.LFB97:
  39:main.c        ****   D1_ClearInterrupt();
 207              		.loc 1 39 0
 208              		.cfi_startproc
 209              		@ args = 0, pretend = 0, frame = 0
 210              		@ frame_needed = 0, uses_anonymous_args = 0
 211 0000 08B5     		push	{r3, lr}
 212              		.cfi_def_cfa_offset 8
 213              		.cfi_offset 3, -8
 214              		.cfi_offset 14, -4
  40:main.c        **** }
 215              		.loc 1 40 0
 216 0002 FFF7FEFF 		bl	D1_ClearInterrupt
 217              	.LVL22:
ARM GAS  C:\Users\164\AppData\Local\Temp\cc8Yccmn.s 			page 7


 218 0006 08BD     		pop	{r3, pc}
 219              		.cfi_endproc
 220              	.LFE97:
 221              		.size	isr_D1, .-isr_D1
 222              		.section	.text.isr_SleepTimer,"ax",%progbits
 223              		.align	2
 224              		.global	isr_SleepTimer
 225              		.thumb
 226              		.thumb_func
 227              		.type	isr_SleepTimer, %function
 228              	isr_SleepTimer:
 229              	.LFB98:
  43:main.c        ****   SleepTimer_GetStatus();
 230              		.loc 1 43 0
 231              		.cfi_startproc
 232              		@ args = 0, pretend = 0, frame = 0
 233              		@ frame_needed = 0, uses_anonymous_args = 0
 234 0000 08B5     		push	{r3, lr}
 235              		.cfi_def_cfa_offset 8
 236              		.cfi_offset 3, -8
 237              		.cfi_offset 14, -4
  44:main.c        ****   sleep_int_counter_++;
 238              		.loc 1 44 0
 239 0002 FFF7FEFF 		bl	SleepTimer_GetStatus
 240              	.LVL23:
  45:main.c        **** }
 241              		.loc 1 45 0
 242 0006 024A     		ldr	r2, .L23
 243 0008 1368     		ldr	r3, [r2]
 244 000a 0133     		adds	r3, r3, #1
 245 000c 1360     		str	r3, [r2]
 246 000e 08BD     		pop	{r3, pc}
 247              	.L24:
 248              		.align	2
 249              	.L23:
 250 0010 00000000 		.word	.LANCHOR0
 251              		.cfi_endproc
 252              	.LFE98:
 253              		.size	isr_SleepTimer, .-isr_SleepTimer
 254              		.section	.text.c_sleep_until_nexttime,"ax",%progbits
 255              		.align	2
 256              		.thumb
 257              		.thumb_func
 258              		.type	c_sleep_until_nexttime, %function
 259              	c_sleep_until_nexttime:
 260              	.LFB111:
 122:main.c        **** }
 123:main.c        **** 
 124:main.c        **** static void P_read(mrb_vm *vm, mrb_value *v, int argc)
 125:main.c        **** {
 126:main.c        ****     uint8 mask = ((uint8)pow(2,(uint8)GET_INT_ARG(1)));
 127:main.c        ****     SET_INT_RETURN((P2_PS & mask) >> GET_INT_ARG(1));
 128:main.c        **** }
 129:main.c        **** 
 130:main.c        **** static void P_byte_read(mrb_vm *vm, mrb_value *v, int argc)
 131:main.c        **** {
 132:main.c        ****     SET_INT_RETURN(P2_PS);
ARM GAS  C:\Users\164\AppData\Local\Temp\cc8Yccmn.s 			page 8


 133:main.c        **** }
 134:main.c        **** 
 135:main.c        **** //=========================================================================
 136:main.c        **** /*! sleep Modes
 137:main.c        **** */
 138:main.c        **** static void c_hibernate(mrb_vm *vm, mrb_value *v, int argc)
 139:main.c        **** {
 140:main.c        ****   I2C_1_Sleep();
 141:main.c        ****   UART_1_Sleep();
 142:main.c        ****   USBUART_Stop();
 143:main.c        ****   isr_SleepTimer_Disable();
 144:main.c        ****   CyPmSaveClocks();
 145:main.c        ****   CyPmHibernate();
 146:main.c        ****   CyPmRestoreClocks();
 147:main.c        ****   UART_1_Wakeup();
 148:main.c        ****   I2C_1_Wakeup();
 149:main.c        ****   USBUART_Start(0, USBUART_3V_OPERATION);
 150:main.c        ****   isr_SleepTimer_Enable();
 151:main.c        **** }
 152:main.c        **** 
 153:main.c        **** static void c_sleep_until_nexttime(mrb_vm *vm, mrb_value v[], int argc)
 154:main.c        **** {
 261              		.loc 1 154 0
 262              		.cfi_startproc
 263              		@ args = 0, pretend = 0, frame = 0
 264              		@ frame_needed = 0, uses_anonymous_args = 0
 265              	.LVL24:
 266 0000 10B5     		push	{r4, lr}
 267              		.cfi_def_cfa_offset 8
 268              		.cfi_offset 4, -8
 269              		.cfi_offset 14, -4
 155:main.c        ****   hal_flush(1);
 156:main.c        **** 
 157:main.c        ****   UART_1_Sleep();
 270              		.loc 1 157 0
 271 0002 FFF7FEFF 		bl	UART_1_Sleep
 272              	.LVL25:
 158:main.c        ****   I2C_1_Sleep();
 273              		.loc 1 158 0
 274 0006 FFF7FEFF 		bl	I2C_1_Sleep
 275              	.LVL26:
 159:main.c        ****   USBUART_Stop();
 276              		.loc 1 159 0
 277 000a FFF7FEFF 		bl	USBUART_Stop
 278              	.LVL27:
 160:main.c        ****   ADC_1_Sleep();
 279              		.loc 1 160 0
 280 000e FFF7FEFF 		bl	ADC_1_Sleep
 281              	.LVL28:
 161:main.c        ****   ADC_2_Sleep();
 282              		.loc 1 161 0
 283 0012 FFF7FEFF 		bl	ADC_2_Sleep
 284              	.LVL29:
 162:main.c        ****   CyPmSaveClocks();
 285              		.loc 1 162 0
 286 0016 FFF7FEFF 		bl	CyPmSaveClocks
 287              	.LVL30:
ARM GAS  C:\Users\164\AppData\Local\Temp\cc8Yccmn.s 			page 9


 163:main.c        **** 
 164:main.c        ****   while( sleep_int_counter_ < sleep_wakeup_timing_ ) {
 288              		.loc 1 164 0
 289 001a 04E0     		b	.L26
 290              	.L27:
 165:main.c        ****     CyPmSleep( PM_SLEEP_TIME_NONE, PM_SLEEP_SRC_CTW|PM_SLEEP_SRC_PICU );
 291              		.loc 1 165 0
 292 001c 4FF40461 		mov	r1, #2112
 293 0020 0020     		movs	r0, #0
 294 0022 FFF7FEFF 		bl	CyPmSleep
 295              	.LVL31:
 296              	.L26:
 164:main.c        ****     CyPmSleep( PM_SLEEP_TIME_NONE, PM_SLEEP_SRC_CTW|PM_SLEEP_SRC_PICU );
 297              		.loc 1 164 0
 298 0026 0B4B     		ldr	r3, .L29
 299 0028 1A68     		ldr	r2, [r3]
 300 002a 5B68     		ldr	r3, [r3, #4]
 301 002c 9A42     		cmp	r2, r3
 302 002e F5DB     		blt	.L27
 166:main.c        ****     // CyPmHibernate();
 167:main.c        ****   }
 168:main.c        ****   sleep_int_counter_ = 0;
 303              		.loc 1 168 0
 304 0030 0024     		movs	r4, #0
 305 0032 084B     		ldr	r3, .L29
 306 0034 1C60     		str	r4, [r3]
 169:main.c        **** 
 170:main.c        ****   CyPmRestoreClocks();
 307              		.loc 1 170 0
 308 0036 FFF7FEFF 		bl	CyPmRestoreClocks
 309              	.LVL32:
 171:main.c        ****   USBUART_Start(0, USBUART_3V_OPERATION);
 310              		.loc 1 171 0
 311 003a 2146     		mov	r1, r4
 312 003c 2046     		mov	r0, r4
 313 003e FFF7FEFF 		bl	USBUART_Start
 314              	.LVL33:
 172:main.c        ****   UART_1_Wakeup();
 315              		.loc 1 172 0
 316 0042 FFF7FEFF 		bl	UART_1_Wakeup
 317              	.LVL34:
 173:main.c        ****   I2C_1_Wakeup();
 318              		.loc 1 173 0
 319 0046 FFF7FEFF 		bl	I2C_1_Wakeup
 320              	.LVL35:
 174:main.c        ****   ADC_1_Wakeup();
 321              		.loc 1 174 0
 322 004a FFF7FEFF 		bl	ADC_1_Wakeup
 323              	.LVL36:
 175:main.c        ****   ADC_2_Wakeup();
 324              		.loc 1 175 0
 325 004e FFF7FEFF 		bl	ADC_2_Wakeup
 326              	.LVL37:
 327 0052 10BD     		pop	{r4, pc}
 328              	.L30:
 329              		.align	2
 330              	.L29:
ARM GAS  C:\Users\164\AppData\Local\Temp\cc8Yccmn.s 			page 10


 331 0054 00000000 		.word	.LANCHOR0
 332              		.cfi_endproc
 333              	.LFE111:
 334              		.size	c_sleep_until_nexttime, .-c_sleep_until_nexttime
 335              		.section	.text.c_sleep_set_interval,"ax",%progbits
 336              		.align	2
 337              		.thumb
 338              		.thumb_func
 339              		.type	c_sleep_set_interval, %function
 340              	c_sleep_set_interval:
 341              	.LFB112:
 176:main.c        **** }
 177:main.c        **** static void c_sleep_set_interval(mrb_vm *vm, mrb_value v[], int argc)
 178:main.c        **** {
 342              		.loc 1 178 0
 343              		.cfi_startproc
 344              		@ args = 0, pretend = 0, frame = 0
 345              		@ frame_needed = 0, uses_anonymous_args = 0
 346              	.LVL38:
 347 0000 10B5     		push	{r4, lr}
 348              		.cfi_def_cfa_offset 8
 349              		.cfi_offset 4, -8
 350              		.cfi_offset 14, -4
 351 0002 0C46     		mov	r4, r1
 179:main.c        ****   static const int MAX_INTERVAL_INDEX = 10;
 180:main.c        **** 
 181:main.c        ****   SleepTimer_Stop();
 352              		.loc 1 181 0
 353 0004 FFF7FEFF 		bl	SleepTimer_Stop
 354              	.LVL39:
 182:main.c        ****   sleep_int_counter_ = 0;
 355              		.loc 1 182 0
 356 0008 0022     		movs	r2, #0
 357 000a 0A4B     		ldr	r3, .L35
 358 000c 1A60     		str	r2, [r3]
 183:main.c        **** 
 184:main.c        ****   int n = GET_INT_ARG(1)+9;
 359              		.loc 1 184 0
 360 000e A369     		ldr	r3, [r4, #24]
 361 0010 03F10900 		add	r0, r3, #9
 362              	.LVL40:
 185:main.c        **** 
 186:main.c        ****   if( n <= MAX_INTERVAL_INDEX ) {
 363              		.loc 1 186 0
 364 0014 0A28     		cmp	r0, #10
 365 0016 03DC     		bgt	.L32
 187:main.c        ****     sleep_wakeup_timing_ = 1;
 366              		.loc 1 187 0
 367 0018 0122     		movs	r2, #1
 368 001a 064B     		ldr	r3, .L35
 369 001c 5A60     		str	r2, [r3, #4]
 370 001e 02E0     		b	.L33
 371              	.L32:
 188:main.c        ****   } else {
 189:main.c        ****     sleep_wakeup_timing_ = n - MAX_INTERVAL_INDEX + 1;
 372              		.loc 1 189 0
 373 0020 044A     		ldr	r2, .L35
ARM GAS  C:\Users\164\AppData\Local\Temp\cc8Yccmn.s 			page 11


 374 0022 5360     		str	r3, [r2, #4]
 375              	.LVL41:
 190:main.c        ****     n = MAX_INTERVAL_INDEX;
 376              		.loc 1 190 0
 377 0024 0A20     		movs	r0, #10
 378              	.LVL42:
 379              	.L33:
 191:main.c        ****   }
 192:main.c        **** 
 193:main.c        ****   SleepTimer_SetInterval( n );
 380              		.loc 1 193 0
 381 0026 C0B2     		uxtb	r0, r0
 382              	.LVL43:
 383 0028 FFF7FEFF 		bl	SleepTimer_SetInterval
 384              	.LVL44:
 194:main.c        ****   SleepTimer_Start();
 385              		.loc 1 194 0
 386 002c FFF7FEFF 		bl	SleepTimer_Start
 387              	.LVL45:
 388 0030 10BD     		pop	{r4, pc}
 389              	.LVL46:
 390              	.L36:
 391 0032 00BF     		.align	2
 392              	.L35:
 393 0034 00000000 		.word	.LANCHOR0
 394              		.cfi_endproc
 395              	.LFE112:
 396              		.size	c_sleep_set_interval, .-c_sleep_set_interval
 397              		.section	.text.c_hibernate,"ax",%progbits
 398              		.align	2
 399              		.thumb
 400              		.thumb_func
 401              		.type	c_hibernate, %function
 402              	c_hibernate:
 403              	.LFB110:
 139:main.c        ****   I2C_1_Sleep();
 404              		.loc 1 139 0
 405              		.cfi_startproc
 406              		@ args = 0, pretend = 0, frame = 0
 407              		@ frame_needed = 0, uses_anonymous_args = 0
 408              	.LVL47:
 409 0000 08B5     		push	{r3, lr}
 410              		.cfi_def_cfa_offset 8
 411              		.cfi_offset 3, -8
 412              		.cfi_offset 14, -4
 140:main.c        ****   UART_1_Sleep();
 413              		.loc 1 140 0
 414 0002 FFF7FEFF 		bl	I2C_1_Sleep
 415              	.LVL48:
 141:main.c        ****   USBUART_Stop();
 416              		.loc 1 141 0
 417 0006 FFF7FEFF 		bl	UART_1_Sleep
 418              	.LVL49:
 142:main.c        ****   isr_SleepTimer_Disable();
 419              		.loc 1 142 0
 420 000a FFF7FEFF 		bl	USBUART_Stop
 421              	.LVL50:
ARM GAS  C:\Users\164\AppData\Local\Temp\cc8Yccmn.s 			page 12


 143:main.c        ****   CyPmSaveClocks();
 422              		.loc 1 143 0
 423 000e FFF7FEFF 		bl	isr_SleepTimer_Disable
 424              	.LVL51:
 144:main.c        ****   CyPmHibernate();
 425              		.loc 1 144 0
 426 0012 FFF7FEFF 		bl	CyPmSaveClocks
 427              	.LVL52:
 145:main.c        ****   CyPmRestoreClocks();
 428              		.loc 1 145 0
 429 0016 FFF7FEFF 		bl	CyPmHibernate
 430              	.LVL53:
 146:main.c        ****   UART_1_Wakeup();
 431              		.loc 1 146 0
 432 001a FFF7FEFF 		bl	CyPmRestoreClocks
 433              	.LVL54:
 147:main.c        ****   I2C_1_Wakeup();
 434              		.loc 1 147 0
 435 001e FFF7FEFF 		bl	UART_1_Wakeup
 436              	.LVL55:
 148:main.c        ****   USBUART_Start(0, USBUART_3V_OPERATION);
 437              		.loc 1 148 0
 438 0022 FFF7FEFF 		bl	I2C_1_Wakeup
 439              	.LVL56:
 149:main.c        ****   isr_SleepTimer_Enable();
 440              		.loc 1 149 0
 441 0026 0021     		movs	r1, #0
 442 0028 0846     		mov	r0, r1
 443 002a FFF7FEFF 		bl	USBUART_Start
 444              	.LVL57:
 150:main.c        **** }
 445              		.loc 1 150 0
 446 002e FFF7FEFF 		bl	isr_SleepTimer_Enable
 447              	.LVL58:
 448 0032 08BD     		pop	{r3, pc}
 449              		.cfi_endproc
 450              	.LFE110:
 451              		.size	c_hibernate, .-c_hibernate
 452              		.section	.text.c_log,"ax",%progbits
 453              		.align	2
 454              		.thumb
 455              		.thumb_func
 456              		.type	c_log, %function
 457              	c_log:
 458              	.LFB101:
  71:main.c        ****   double val = v[1].d;
 459              		.loc 1 71 0
 460              		.cfi_startproc
 461              		@ args = 0, pretend = 0, frame = 0
 462              		@ frame_needed = 0, uses_anonymous_args = 0
 463              	.LVL59:
 464 0000 D0B5     		push	{r4, r6, r7, lr}
 465              		.cfi_def_cfa_offset 16
 466              		.cfi_offset 4, -16
 467              		.cfi_offset 6, -12
 468              		.cfi_offset 7, -8
 469              		.cfi_offset 14, -4
ARM GAS  C:\Users\164\AppData\Local\Temp\cc8Yccmn.s 			page 13


 470 0002 0C46     		mov	r4, r1
 471              	.LVL60:
  73:main.c        ****   SET_FLOAT_RETURN(val);
 472              		.loc 1 73 0
 473 0004 D1E90601 		ldrd	r0, [r1, #24]
 474              	.LVL61:
 475 0008 FFF7FEFF 		bl	log
 476              	.LVL62:
 477 000c 0646     		mov	r6, r0
 478 000e 0F46     		mov	r7, r1
 479              	.LVL63:
 480              	.LBB2:
  74:main.c        **** }
 481              		.loc 1 74 0
 482 0010 2046     		mov	r0, r4
 483 0012 FFF7FEFF 		bl	mrbc_dec_ref_counter
 484              	.LVL64:
 485 0016 0523     		movs	r3, #5
 486 0018 2370     		strb	r3, [r4]
 487 001a C4E90267 		strd	r6, [r4, #8]
 488 001e D0BD     		pop	{r4, r6, r7, pc}
 489              	.LBE2:
 490              		.cfi_endproc
 491              	.LFE101:
 492              		.size	c_log, .-c_log
 493              		.section	.text.P_byte_read,"ax",%progbits
 494              		.align	2
 495              		.thumb
 496              		.thumb_func
 497              		.type	P_byte_read, %function
 498              	P_byte_read:
 499              	.LFB109:
 131:main.c        ****     SET_INT_RETURN(P2_PS);
 500              		.loc 1 131 0
 501              		.cfi_startproc
 502              		@ args = 0, pretend = 0, frame = 0
 503              		@ frame_needed = 0, uses_anonymous_args = 0
 504              	.LVL65:
 505 0000 38B5     		push	{r3, r4, r5, lr}
 506              		.cfi_def_cfa_offset 16
 507              		.cfi_offset 3, -16
 508              		.cfi_offset 4, -12
 509              		.cfi_offset 5, -8
 510              		.cfi_offset 14, -4
 511 0002 0C46     		mov	r4, r1
 512              	.LBB3:
 132:main.c        **** }
 513              		.loc 1 132 0
 514 0004 044B     		ldr	r3, .L43
 515 0006 1D78     		ldrb	r5, [r3]	@ zero_extendqisi2
 516 0008 EDB2     		uxtb	r5, r5
 517              	.LVL66:
 518 000a 0846     		mov	r0, r1
 519              	.LVL67:
 520 000c FFF7FEFF 		bl	mrbc_dec_ref_counter
 521              	.LVL68:
 522 0010 0423     		movs	r3, #4
ARM GAS  C:\Users\164\AppData\Local\Temp\cc8Yccmn.s 			page 14


 523 0012 2370     		strb	r3, [r4]
 524 0014 A560     		str	r5, [r4, #8]
 525 0016 38BD     		pop	{r3, r4, r5, pc}
 526              	.LVL69:
 527              	.L44:
 528              		.align	2
 529              	.L43:
 530 0018 21510040 		.word	1073762593
 531              	.LBE3:
 532              		.cfi_endproc
 533              	.LFE109:
 534              		.size	P_byte_read, .-P_byte_read
 535              		.global	__aeabi_ui2d
 536              		.global	__aeabi_d2uiz
 537              		.section	.text.P_read,"ax",%progbits
 538              		.align	2
 539              		.thumb
 540              		.thumb_func
 541              		.type	P_read, %function
 542              	P_read:
 543              	.LFB108:
 125:main.c        ****     uint8 mask = ((uint8)pow(2,(uint8)GET_INT_ARG(1)));
 544              		.loc 1 125 0
 545              		.cfi_startproc
 546              		@ args = 0, pretend = 0, frame = 0
 547              		@ frame_needed = 0, uses_anonymous_args = 0
 548              	.LVL70:
 549 0000 38B5     		push	{r3, r4, r5, lr}
 550              		.cfi_def_cfa_offset 16
 551              		.cfi_offset 3, -16
 552              		.cfi_offset 4, -12
 553              		.cfi_offset 5, -8
 554              		.cfi_offset 14, -4
 555 0002 0C46     		mov	r4, r1
 126:main.c        ****     SET_INT_RETURN((P2_PS & mask) >> GET_INT_ARG(1));
 556              		.loc 1 126 0
 557 0004 087E     		ldrb	r0, [r1, #24]	@ zero_extendqisi2
 558              	.LVL71:
 559 0006 FFF7FEFF 		bl	__aeabi_ui2d
 560              	.LVL72:
 561 000a 0246     		mov	r2, r0
 562 000c 0B46     		mov	r3, r1
 563 000e 0020     		movs	r0, #0
 564 0010 4FF08041 		mov	r1, #1073741824
 565 0014 FFF7FEFF 		bl	pow
 566              	.LVL73:
 567 0018 FFF7FEFF 		bl	__aeabi_d2uiz
 568              	.LVL74:
 569              	.LBB4:
 127:main.c        **** }
 570              		.loc 1 127 0
 571 001c 064B     		ldr	r3, .L47
 572 001e 1D78     		ldrb	r5, [r3]	@ zero_extendqisi2
 573 0020 2840     		ands	r0, r0, r5
 574              	.LVL75:
 575 0022 A369     		ldr	r3, [r4, #24]
 576 0024 40FA03F5 		asr	r5, r0, r3
ARM GAS  C:\Users\164\AppData\Local\Temp\cc8Yccmn.s 			page 15


 577              	.LVL76:
 578 0028 2046     		mov	r0, r4
 579 002a FFF7FEFF 		bl	mrbc_dec_ref_counter
 580              	.LVL77:
 581 002e 0423     		movs	r3, #4
 582 0030 2370     		strb	r3, [r4]
 583 0032 A560     		str	r5, [r4, #8]
 584 0034 38BD     		pop	{r3, r4, r5, pc}
 585              	.LVL78:
 586              	.L48:
 587 0036 00BF     		.align	2
 588              	.L47:
 589 0038 21510040 		.word	1073762593
 590              	.LBE4:
 591              		.cfi_endproc
 592              	.LFE108:
 593              		.size	P_read, .-P_read
 594              		.section	.text.P_Write,"ax",%progbits
 595              		.align	2
 596              		.thumb
 597              		.thumb_func
 598              		.type	P_Write, %function
 599              	P_Write:
 600              	.LFB105:
 104:main.c        ****     uint8 mask = ((uint8)pow(2,(uint8)GET_INT_ARG(1)));
 601              		.loc 1 104 0
 602              		.cfi_startproc
 603              		@ args = 0, pretend = 0, frame = 0
 604              		@ frame_needed = 0, uses_anonymous_args = 0
 605              	.LVL79:
 606 0000 10B5     		push	{r4, lr}
 607              		.cfi_def_cfa_offset 8
 608              		.cfi_offset 4, -8
 609              		.cfi_offset 14, -4
 610 0002 0C46     		mov	r4, r1
 105:main.c        ****     uint8 staticBits = ((*(reg8 *) P2__DR) & (uint8)(~mask));
 611              		.loc 1 105 0
 612 0004 087E     		ldrb	r0, [r1, #24]	@ zero_extendqisi2
 613              	.LVL80:
 614 0006 FFF7FEFF 		bl	__aeabi_ui2d
 615              	.LVL81:
 616 000a 0246     		mov	r2, r0
 617 000c 0B46     		mov	r3, r1
 618 000e 0020     		movs	r0, #0
 619 0010 4FF08041 		mov	r1, #1073741824
 620 0014 FFF7FEFF 		bl	pow
 621              	.LVL82:
 622 0018 FFF7FEFF 		bl	__aeabi_d2uiz
 623              	.LVL83:
 624 001c C0B2     		uxtb	r0, r0
 625              	.LVL84:
 106:main.c        ****     P2_DR = staticBits | ((uint8)(GET_INT_ARG(2) << GET_INT_ARG(1))& mask);
 626              		.loc 1 106 0
 627 001e 0549     		ldr	r1, .L51
 628 0020 0B78     		ldrb	r3, [r1]	@ zero_extendqisi2
 629 0022 23EA0003 		bic	r3, r3, r0
 630              	.LVL85:
ARM GAS  C:\Users\164\AppData\Local\Temp\cc8Yccmn.s 			page 16


 107:main.c        **** }
 631              		.loc 1 107 0
 632 0026 A26A     		ldr	r2, [r4, #40]
 633 0028 A469     		ldr	r4, [r4, #24]
 634              	.LVL86:
 635 002a A240     		lsls	r2, r2, r4
 636 002c 1040     		ands	r0, r0, r2
 637              	.LVL87:
 638 002e 1843     		orrs	r0, r0, r3
 639 0030 0870     		strb	r0, [r1]
 640 0032 10BD     		pop	{r4, pc}
 641              	.L52:
 642              		.align	2
 643              	.L51:
 644 0034 20510040 		.word	1073762592
 645              		.cfi_endproc
 646              	.LFE105:
 647              		.size	P_Write, .-P_Write
 648              		.global	__aeabi_i2d
 649              		.section	.text.digital_in,"ax",%progbits
 650              		.align	2
 651              		.thumb
 652              		.thumb_func
 653              		.type	digital_in, %function
 654              	digital_in:
 655              	.LFB102:
  81:main.c        ****   uint8 out_mask = ((uint8)pow(2,(GET_INT_ARG(1)-1)) * 0x01u);
 656              		.loc 1 81 0
 657              		.cfi_startproc
 658              		@ args = 0, pretend = 0, frame = 0
 659              		@ frame_needed = 0, uses_anonymous_args = 0
 660              	.LVL88:
 661 0000 38B5     		push	{r3, r4, r5, lr}
 662              		.cfi_def_cfa_offset 16
 663              		.cfi_offset 3, -16
 664              		.cfi_offset 4, -12
 665              		.cfi_offset 5, -8
 666              		.cfi_offset 14, -4
 667 0002 0C46     		mov	r4, r1
  82:main.c        ****   SET_INT_RETURN((D1_PS & out_mask) >> (GET_INT_ARG(1)-1));
 668              		.loc 1 82 0
 669 0004 8869     		ldr	r0, [r1, #24]
 670              	.LVL89:
 671 0006 0138     		subs	r0, r0, #1
 672 0008 FFF7FEFF 		bl	__aeabi_i2d
 673              	.LVL90:
 674 000c 0246     		mov	r2, r0
 675 000e 0B46     		mov	r3, r1
 676 0010 0020     		movs	r0, #0
 677 0012 4FF08041 		mov	r1, #1073741824
 678 0016 FFF7FEFF 		bl	pow
 679              	.LVL91:
 680 001a FFF7FEFF 		bl	__aeabi_d2uiz
 681              	.LVL92:
 682              	.LBB5:
  83:main.c        **** }
 683              		.loc 1 83 0
ARM GAS  C:\Users\164\AppData\Local\Temp\cc8Yccmn.s 			page 17


 684 001e 074B     		ldr	r3, .L55
 685 0020 1D78     		ldrb	r5, [r3]	@ zero_extendqisi2
 686 0022 2840     		ands	r0, r0, r5
 687              	.LVL93:
 688 0024 A569     		ldr	r5, [r4, #24]
 689 0026 013D     		subs	r5, r5, #1
 690 0028 40FA05F5 		asr	r5, r0, r5
 691              	.LVL94:
 692 002c 2046     		mov	r0, r4
 693 002e FFF7FEFF 		bl	mrbc_dec_ref_counter
 694              	.LVL95:
 695 0032 0423     		movs	r3, #4
 696 0034 2370     		strb	r3, [r4]
 697 0036 A560     		str	r5, [r4, #8]
 698 0038 38BD     		pop	{r3, r4, r5, pc}
 699              	.LVL96:
 700              	.L56:
 701 003a 00BF     		.align	2
 702              	.L55:
 703 003c 51510040 		.word	1073762641
 704              	.LBE5:
 705              		.cfi_endproc
 706              	.LFE102:
 707              		.size	digital_in, .-digital_in
 708              		.section	.text.digital_out,"ax",%progbits
 709              		.align	2
 710              		.thumb
 711              		.thumb_func
 712              		.type	digital_out, %function
 713              	digital_out:
 714              	.LFB103:
  87:main.c        ****   uint8 out_mask = ((uint8)pow(2,(GET_INT_ARG(1)-1)) * 0x01u);
 715              		.loc 1 87 0
 716              		.cfi_startproc
 717              		@ args = 0, pretend = 0, frame = 0
 718              		@ frame_needed = 0, uses_anonymous_args = 0
 719              	.LVL97:
 720 0000 38B5     		push	{r3, r4, r5, lr}
 721              		.cfi_def_cfa_offset 16
 722              		.cfi_offset 3, -16
 723              		.cfi_offset 4, -12
 724              		.cfi_offset 5, -8
 725              		.cfi_offset 14, -4
 726 0002 0C46     		mov	r4, r1
  88:main.c        ****   uint8 staticBits = (D1_DR & (uint8)(~out_mask));
 727              		.loc 1 88 0
 728 0004 8869     		ldr	r0, [r1, #24]
 729              	.LVL98:
 730 0006 0138     		subs	r0, r0, #1
 731 0008 FFF7FEFF 		bl	__aeabi_i2d
 732              	.LVL99:
 733 000c 0246     		mov	r2, r0
 734 000e 0B46     		mov	r3, r1
 735 0010 0020     		movs	r0, #0
 736 0012 4FF08041 		mov	r1, #1073741824
 737 0016 FFF7FEFF 		bl	pow
 738              	.LVL100:
ARM GAS  C:\Users\164\AppData\Local\Temp\cc8Yccmn.s 			page 18


 739 001a FFF7FEFF 		bl	__aeabi_d2uiz
 740              	.LVL101:
 741 001e C0B2     		uxtb	r0, r0
 742              	.LVL102:
  89:main.c        ****   D1_DR = staticBits | ((uint8)(GET_INT_ARG(2) << (GET_INT_ARG(1)-1)) & out_mask);
 743              		.loc 1 89 0
 744 0020 064D     		ldr	r5, .L59
 745 0022 2B78     		ldrb	r3, [r5]	@ zero_extendqisi2
 746 0024 23EA0003 		bic	r3, r3, r0
 747              	.LVL103:
  90:main.c        **** }
 748              		.loc 1 90 0
 749 0028 A16A     		ldr	r1, [r4, #40]
 750 002a A269     		ldr	r2, [r4, #24]
 751 002c 013A     		subs	r2, r2, #1
 752 002e 01FA02F2 		lsl	r2, r1, r2
 753 0032 1040     		ands	r0, r0, r2
 754              	.LVL104:
 755 0034 1843     		orrs	r0, r0, r3
 756 0036 2870     		strb	r0, [r5]
 757 0038 38BD     		pop	{r3, r4, r5, pc}
 758              	.LVL105:
 759              	.L60:
 760 003a 00BF     		.align	2
 761              	.L59:
 762 003c 50510040 		.word	1073762640
 763              		.cfi_endproc
 764              	.LFE103:
 765              		.size	digital_out, .-digital_out
 766              		.section	.text.digital_interrupt,"ax",%progbits
 767              		.align	2
 768              		.thumb
 769              		.thumb_func
 770              		.type	digital_interrupt, %function
 771              	digital_interrupt:
 772              	.LFB104:
  94:main.c        ****   if(GET_INT_ARG(1)==1){
 773              		.loc 1 94 0
 774              		.cfi_startproc
 775              		@ args = 0, pretend = 0, frame = 0
 776              		@ frame_needed = 0, uses_anonymous_args = 0
 777              	.LVL106:
 778 0000 08B5     		push	{r3, lr}
 779              		.cfi_def_cfa_offset 8
 780              		.cfi_offset 3, -8
 781              		.cfi_offset 14, -4
  95:main.c        ****     isr_1_StartEx( isr_D1 );
 782              		.loc 1 95 0
 783 0002 8B69     		ldr	r3, [r1, #24]
 784 0004 012B     		cmp	r3, #1
 785 0006 02D1     		bne	.L61
  96:main.c        ****   }
 786              		.loc 1 96 0
 787 0008 0148     		ldr	r0, .L64
 788              	.LVL107:
 789 000a FFF7FEFF 		bl	isr_1_StartEx
 790              	.LVL108:
ARM GAS  C:\Users\164\AppData\Local\Temp\cc8Yccmn.s 			page 19


 791              	.L61:
 792 000e 08BD     		pop	{r3, pc}
 793              	.L65:
 794              		.align	2
 795              	.L64:
 796 0010 00000000 		.word	isr_D1
 797              		.cfi_endproc
 798              	.LFE104:
 799              		.size	digital_interrupt, .-digital_interrupt
 800              		.section	.text.hal_write,"ax",%progbits
 801              		.align	2
 802              		.global	hal_write
 803              		.thumb
 804              		.thumb_func
 805              		.type	hal_write, %function
 806              	hal_write:
 807              	.LFB113:
 195:main.c        **** }
 196:main.c        **** 
 197:main.c        **** //================================================================
 198:main.c        **** /*! HAL （別途説明します）
 199:main.c        **** */
 200:main.c        **** int hal_write(int fd, const void *buf, int nbytes)
 201:main.c        **** {
 808              		.loc 1 201 0
 809              		.cfi_startproc
 810              		@ args = 0, pretend = 0, frame = 0
 811              		@ frame_needed = 0, uses_anonymous_args = 0
 812              	.LVL109:
 813 0000 38B5     		push	{r3, r4, r5, lr}
 814              		.cfi_def_cfa_offset 16
 815              		.cfi_offset 3, -16
 816              		.cfi_offset 4, -12
 817              		.cfi_offset 5, -8
 818              		.cfi_offset 14, -4
 819 0002 0D46     		mov	r5, r1
 820 0004 1446     		mov	r4, r2
 202:main.c        ****   if(USBUART_bGetConfiguration()){
 821              		.loc 1 202 0
 822 0006 FFF7FEFF 		bl	USBUART_GetConfiguration
 823              	.LVL110:
 824 000a 18B1     		cbz	r0, .L67
 203:main.c        ****     usbuart_write( buf, nbytes );
 825              		.loc 1 203 0
 826 000c 2146     		mov	r1, r4
 827 000e 2846     		mov	r0, r5
 828 0010 FFF7FEFF 		bl	usbuart_write
 829              	.LVL111:
 830              	.L67:
 204:main.c        ****   }
 205:main.c        ****   return nbytes;
 206:main.c        **** //#else
 207:main.c        **** //  CONS_PutArray( buf, nbytes );
 208:main.c        **** //  return nbytes;
 209:main.c        **** //#endif
 210:main.c        **** }
 831              		.loc 1 210 0
ARM GAS  C:\Users\164\AppData\Local\Temp\cc8Yccmn.s 			page 20


 832 0014 2046     		mov	r0, r4
 833 0016 38BD     		pop	{r3, r4, r5, pc}
 834              		.cfi_endproc
 835              	.LFE113:
 836              		.size	hal_write, .-hal_write
 837              		.section	.text.hal_flush,"ax",%progbits
 838              		.align	2
 839              		.global	hal_flush
 840              		.thumb
 841              		.thumb_func
 842              		.type	hal_flush, %function
 843              	hal_flush:
 844              	.LFB114:
 211:main.c        **** 
 212:main.c        **** int hal_flush(int fd)
 213:main.c        **** {
 845              		.loc 1 213 0
 846              		.cfi_startproc
 847              		@ args = 0, pretend = 0, frame = 0
 848              		@ frame_needed = 0, uses_anonymous_args = 0
 849              		@ link register save eliminated.
 850              	.LVL112:
 214:main.c        ****   return 0;
 215:main.c        **** }
 851              		.loc 1 215 0
 852 0000 0020     		movs	r0, #0
 853              	.LVL113:
 854 0002 7047     		bx	lr
 855              		.cfi_endproc
 856              	.LFE114:
 857              		.size	hal_flush, .-hal_flush
 858              		.section	.text._write,"ax",%progbits
 859              		.align	2
 860              		.global	_write
 861              		.thumb
 862              		.thumb_func
 863              		.type	_write, %function
 864              	_write:
 865              	.LFB115:
 216:main.c        **** 
 217:main.c        **** int _write(int fd, const void *buf, int nbytes)
 218:main.c        **** {
 866              		.loc 1 218 0
 867              		.cfi_startproc
 868              		@ args = 0, pretend = 0, frame = 0
 869              		@ frame_needed = 0, uses_anonymous_args = 0
 870              	.LVL114:
 871 0000 38B5     		push	{r3, r4, r5, lr}
 872              		.cfi_def_cfa_offset 16
 873              		.cfi_offset 3, -16
 874              		.cfi_offset 4, -12
 875              		.cfi_offset 5, -8
 876              		.cfi_offset 14, -4
 877 0002 0D46     		mov	r5, r1
 878 0004 1446     		mov	r4, r2
 219:main.c        ****   if(USBUART_bGetConfiguration()){
 879              		.loc 1 219 0
ARM GAS  C:\Users\164\AppData\Local\Temp\cc8Yccmn.s 			page 21


 880 0006 FFF7FEFF 		bl	USBUART_GetConfiguration
 881              	.LVL115:
 882 000a 18B1     		cbz	r0, .L71
 220:main.c        ****     usbuart_write( buf, nbytes );
 883              		.loc 1 220 0
 884 000c 2146     		mov	r1, r4
 885 000e 2846     		mov	r0, r5
 886 0010 FFF7FEFF 		bl	usbuart_write
 887              	.LVL116:
 888              	.L71:
 221:main.c        ****   }
 222:main.c        ****   return nbytes;
 223:main.c        **** //#else
 224:main.c        **** //  CONS_PutArray( buf, nbytes );
 225:main.c        **** //  return nbytes;
 226:main.c        **** //#endif
 227:main.c        **** }
 889              		.loc 1 227 0
 890 0014 2046     		mov	r0, r4
 891 0016 38BD     		pop	{r3, r4, r5, pc}
 892              		.cfi_endproc
 893              	.LFE115:
 894              		.size	_write, .-_write
 895              		.section	.text.check_timeout,"ax",%progbits
 896              		.align	2
 897              		.global	check_timeout
 898              		.thumb
 899              		.thumb_func
 900              		.type	check_timeout, %function
 901              	check_timeout:
 902              	.LFB116:
 228:main.c        **** 
 229:main.c        **** //================================================================
 230:main.c        **** /*! main
 231:main.c        **** */
 232:main.c        **** 
 233:main.c        **** int check_timeout(void)
 234:main.c        **** {
 903              		.loc 1 234 0
 904              		.cfi_startproc
 905              		@ args = 0, pretend = 0, frame = 0
 906              		@ frame_needed = 0, uses_anonymous_args = 0
 907 0000 10B5     		push	{r4, lr}
 908              		.cfi_def_cfa_offset 8
 909              		.cfi_offset 4, -8
 910              		.cfi_offset 14, -4
 911              	.LVL117:
 912              	.LBB6:
 235:main.c        ****   for( int i = 0; i < 256; i++ ) {
 913              		.loc 1 235 0
 914 0002 0024     		movs	r4, #0
 915 0004 0FE0     		b	.L74
 916              	.LVL118:
 917              	.L76:
 236:main.c        ****     LED1_Write(((i>>4) | (i>>1)) & 0x01 );	// Blink LED
 918              		.loc 1 236 0
 919 0006 6010     		asrs	r0, r4, #1
ARM GAS  C:\Users\164\AppData\Local\Temp\cc8Yccmn.s 			page 22


 920 0008 40EA2410 		orr	r0, r0, r4, asr #4
 921 000c 00F00100 		and	r0, r0, #1
 922 0010 FFF7FEFF 		bl	LED1_Write
 923              	.LVL119:
 237:main.c        ****     usbuart_event();
 924              		.loc 1 237 0
 925 0014 FFF7FEFF 		bl	usbuart_event
 926              	.LVL120:
 238:main.c        ****     if( usbuart_can_read_line() ) {
 927              		.loc 1 238 0
 928 0018 FFF7FEFF 		bl	usbuart_can_read_line
 929              	.LVL121:
 930 001c 38B9     		cbnz	r0, .L77
 239:main.c        ****       return 0;
 240:main.c        ****     }
 241:main.c        ****     CyDelay( 10 );
 931              		.loc 1 241 0 discriminator 2
 932 001e 0A20     		movs	r0, #10
 933 0020 FFF7FEFF 		bl	CyDelay
 934              	.LVL122:
 235:main.c        ****     LED1_Write(((i>>4) | (i>>1)) & 0x01 );	// Blink LED
 935              		.loc 1 235 0 discriminator 2
 936 0024 0134     		adds	r4, r4, #1
 937              	.LVL123:
 938              	.L74:
 235:main.c        ****     LED1_Write(((i>>4) | (i>>1)) & 0x01 );	// Blink LED
 939              		.loc 1 235 0 is_stmt 0 discriminator 1
 940 0026 FF2C     		cmp	r4, #255
 941 0028 EDDD     		ble	.L76
 942              	.LBE6:
 242:main.c        ****   }
 243:main.c        ****   return 1;
 943              		.loc 1 243 0 is_stmt 1
 944 002a 0120     		movs	r0, #1
 945              	.LBB7:
 946 002c 10BD     		pop	{r4, pc}
 947              	.LVL124:
 948              	.L77:
 239:main.c        ****     }
 949              		.loc 1 239 0
 950 002e 0020     		movs	r0, #0
 951              	.LBE7:
 244:main.c        **** }
 952              		.loc 1 244 0
 953 0030 10BD     		pop	{r4, pc}
 954              		.cfi_endproc
 955              	.LFE116:
 956              		.size	check_timeout, .-check_timeout
 957 0032 00BF     		.section	.text.mrubyc,"ax",%progbits
 958              		.align	2
 959              		.global	mrubyc
 960              		.thumb
 961              		.thumb_func
 962              		.type	mrubyc, %function
 963              	mrubyc:
 964              	.LFB117:
 245:main.c        **** 
ARM GAS  C:\Users\164\AppData\Local\Temp\cc8Yccmn.s 			page 23


 246:main.c        **** void mrubyc(void)
 247:main.c        **** {
 965              		.loc 1 247 0
 966              		.cfi_startproc
 967              		@ args = 0, pretend = 0, frame = 0
 968              		@ frame_needed = 0, uses_anonymous_args = 0
 969 0000 2DE9F041 		push	{r4, r5, r6, r7, r8, lr}
 970              		.cfi_def_cfa_offset 24
 971              		.cfi_offset 4, -24
 972              		.cfi_offset 5, -20
 973              		.cfi_offset 6, -16
 974              		.cfi_offset 7, -12
 975              		.cfi_offset 8, -8
 976              		.cfi_offset 14, -4
 248:main.c        ****   mrbc_init_class_uart(0);
 977              		.loc 1 248 0
 978 0004 0020     		movs	r0, #0
 979 0006 FFF7FEFF 		bl	mrbc_init_class_uart
 980              	.LVL125:
 249:main.c        ****   mrbc_init_class_i2c(0);
 981              		.loc 1 249 0
 982 000a 0020     		movs	r0, #0
 983 000c FFF7FEFF 		bl	mrbc_init_class_i2c
 984              	.LVL126:
 250:main.c        ****   mrbc_init_class_adc(0);
 985              		.loc 1 250 0
 986 0010 0020     		movs	r0, #0
 987 0012 FFF7FEFF 		bl	mrbc_init_class_adc
 988              	.LVL127:
 251:main.c        ****   mrbc_init_class_standard_io(0);
 989              		.loc 1 251 0
 990 0016 0020     		movs	r0, #0
 991 0018 FFF7FEFF 		bl	mrbc_init_class_standard_io
 992              	.LVL128:
 252:main.c        ****   mrb_class *io, *p2;
 253:main.c        ****   io = mrbc_define_class(0, "Digital",	mrbc_class_object);
 993              		.loc 1 253 0
 994 001c 3C4C     		ldr	r4, .L84
 995 001e 2268     		ldr	r2, [r4]
 996 0020 3C49     		ldr	r1, .L84+4
 997 0022 0020     		movs	r0, #0
 998 0024 FFF7FEFF 		bl	mrbc_define_class
 999              	.LVL129:
 1000 0028 0546     		mov	r5, r0
 1001              	.LVL130:
 254:main.c        ****   mrbc_define_method(0, io, "new",   io_new);
 1002              		.loc 1 254 0
 1003 002a DFF85881 		ldr	r8, .L84+116
 1004 002e 3A4B     		ldr	r3, .L84+8
 1005 0030 4246     		mov	r2, r8
 1006 0032 0146     		mov	r1, r0
 1007 0034 0020     		movs	r0, #0
 1008              	.LVL131:
 1009 0036 FFF7FEFF 		bl	mrbc_define_method
 1010              	.LVL132:
 255:main.c        ****   mrbc_define_method(0, io, "write",   digital_out);
 1011              		.loc 1 255 0
ARM GAS  C:\Users\164\AppData\Local\Temp\cc8Yccmn.s 			page 24


 1012 003a 384F     		ldr	r7, .L84+12
 1013 003c 384B     		ldr	r3, .L84+16
 1014 003e 3A46     		mov	r2, r7
 1015 0040 2946     		mov	r1, r5
 1016 0042 0020     		movs	r0, #0
 1017 0044 FFF7FEFF 		bl	mrbc_define_method
 1018              	.LVL133:
 256:main.c        ****   mrbc_define_method(0, io, "interrupt",  digital_interrupt);
 1019              		.loc 1 256 0
 1020 0048 364B     		ldr	r3, .L84+20
 1021 004a 374A     		ldr	r2, .L84+24
 1022 004c 2946     		mov	r1, r5
 1023 004e 0020     		movs	r0, #0
 1024 0050 FFF7FEFF 		bl	mrbc_define_method
 1025              	.LVL134:
 257:main.c        ****   mrbc_define_method(0, io, "read", digital_in);
 1026              		.loc 1 257 0
 1027 0054 354E     		ldr	r6, .L84+28
 1028 0056 364B     		ldr	r3, .L84+32
 1029 0058 3246     		mov	r2, r6
 1030 005a 2946     		mov	r1, r5
 1031 005c 0020     		movs	r0, #0
 1032 005e FFF7FEFF 		bl	mrbc_define_method
 1033              	.LVL135:
 258:main.c        ****   p2 = mrbc_define_class(0, "P2",	mrbc_class_object);
 1034              		.loc 1 258 0
 1035 0062 2268     		ldr	r2, [r4]
 1036 0064 3349     		ldr	r1, .L84+36
 1037 0066 0020     		movs	r0, #0
 1038 0068 FFF7FEFF 		bl	mrbc_define_class
 1039              	.LVL136:
 1040 006c 0546     		mov	r5, r0
 1041              	.LVL137:
 259:main.c        ****   mrbc_define_method(0, p2, "new",   p2_new);
 1042              		.loc 1 259 0
 1043 006e 324B     		ldr	r3, .L84+40
 1044 0070 4246     		mov	r2, r8
 1045 0072 0146     		mov	r1, r0
 1046 0074 0020     		movs	r0, #0
 1047              	.LVL138:
 1048 0076 FFF7FEFF 		bl	mrbc_define_method
 1049              	.LVL139:
 260:main.c        ****   mrbc_define_method(0, p2, "write", P_Write);
 1050              		.loc 1 260 0
 1051 007a 304B     		ldr	r3, .L84+44
 1052 007c 3A46     		mov	r2, r7
 1053 007e 2946     		mov	r1, r5
 1054 0080 0020     		movs	r0, #0
 1055 0082 FFF7FEFF 		bl	mrbc_define_method
 1056              	.LVL140:
 261:main.c        ****   mrbc_define_method(0, p2, "byte_write", P_byte_Write);
 1057              		.loc 1 261 0
 1058 0086 2E4B     		ldr	r3, .L84+48
 1059 0088 2E4A     		ldr	r2, .L84+52
 1060 008a 2946     		mov	r1, r5
 1061 008c 0020     		movs	r0, #0
 1062 008e FFF7FEFF 		bl	mrbc_define_method
ARM GAS  C:\Users\164\AppData\Local\Temp\cc8Yccmn.s 			page 25


 1063              	.LVL141:
 262:main.c        ****   mrbc_define_method(0, p2, "read", P_read);
 1064              		.loc 1 262 0
 1065 0092 2D4B     		ldr	r3, .L84+56
 1066 0094 3246     		mov	r2, r6
 1067 0096 2946     		mov	r1, r5
 1068 0098 0020     		movs	r0, #0
 1069 009a FFF7FEFF 		bl	mrbc_define_method
 1070              	.LVL142:
 263:main.c        ****   mrbc_define_method(0, p2, "byte_read", P_byte_read);
 1071              		.loc 1 263 0
 1072 009e 2B4B     		ldr	r3, .L84+60
 1073 00a0 2B4A     		ldr	r2, .L84+64
 1074 00a2 2946     		mov	r1, r5
 1075 00a4 0020     		movs	r0, #0
 1076 00a6 FFF7FEFF 		bl	mrbc_define_method
 1077              	.LVL143:
 264:main.c        ****   mrbc_define_method(0, p2, "nibble_write", P_nibble_Write);
 1078              		.loc 1 264 0
 1079 00aa 2A4B     		ldr	r3, .L84+68
 1080 00ac 2A4A     		ldr	r2, .L84+72
 1081 00ae 2946     		mov	r1, r5
 1082 00b0 0020     		movs	r0, #0
 1083 00b2 FFF7FEFF 		bl	mrbc_define_method
 1084              	.LVL144:
 265:main.c        ****   mrbc_define_method(0, mrbc_class_object, "log", c_log);
 1085              		.loc 1 265 0
 1086 00b6 294B     		ldr	r3, .L84+76
 1087 00b8 294A     		ldr	r2, .L84+80
 1088 00ba 2168     		ldr	r1, [r4]
 1089 00bc 0020     		movs	r0, #0
 1090 00be FFF7FEFF 		bl	mrbc_define_method
 1091              	.LVL145:
 266:main.c        ****   mrbc_define_method(0, mrbc_class_object, "hibernate",   c_hibernate);
 1092              		.loc 1 266 0
 1093 00c2 284B     		ldr	r3, .L84+84
 1094 00c4 284A     		ldr	r2, .L84+88
 1095 00c6 2168     		ldr	r1, [r4]
 1096 00c8 0020     		movs	r0, #0
 1097 00ca FFF7FEFF 		bl	mrbc_define_method
 1098              	.LVL146:
 267:main.c        ****   mrbc_define_method(0, mrbc_class_object, "sleep_set_interval", c_sleep_set_interval);
 1099              		.loc 1 267 0
 1100 00ce 274B     		ldr	r3, .L84+92
 1101 00d0 274A     		ldr	r2, .L84+96
 1102 00d2 2168     		ldr	r1, [r4]
 1103 00d4 0020     		movs	r0, #0
 1104 00d6 FFF7FEFF 		bl	mrbc_define_method
 1105              	.LVL147:
 268:main.c        ****   mrbc_define_method(0, mrbc_class_object, "sleep_until_nexttime", c_sleep_until_nexttime);
 1106              		.loc 1 268 0
 1107 00da 264B     		ldr	r3, .L84+100
 1108 00dc 264A     		ldr	r2, .L84+104
 1109 00de 2168     		ldr	r1, [r4]
 1110 00e0 0020     		movs	r0, #0
 1111 00e2 FFF7FEFF 		bl	mrbc_define_method
 1112              	.LVL148:
ARM GAS  C:\Users\164\AppData\Local\Temp\cc8Yccmn.s 			page 26


 269:main.c        **** 
 270:main.c        ****   uint16_t *tbl_bytecode_size = (uint16_t *)mruby_bytecode;
 271:main.c        ****   const uint8_t *bytecode = mruby_bytecode + sizeof(uint16_t) * MRBC_MAX_BYTECODES;
 272:main.c        **** 
 273:main.c        ****   int i;
 274:main.c        ****   for( i = 0 ; i < MRBC_MAX_BYTECODES ; i++ ) {
 1113              		.loc 1 274 0
 1114 00e6 0024     		movs	r4, #0
 271:main.c        **** 
 1115              		.loc 1 271 0
 1116 00e8 244D     		ldr	r5, .L84+108
 1117              	.LVL149:
 1118              		.loc 1 274 0
 1119 00ea 0BE0     		b	.L80
 1120              	.LVL150:
 1121              	.L82:
 275:main.c        ****     if( tbl_bytecode_size[i] == 0 ) break;
 1122              		.loc 1 275 0
 1123 00ec 244E     		ldr	r6, .L84+112
 1124 00ee 36F81430 		ldrh	r3, [r6, r4, lsl #1]
 1125 00f2 4BB1     		cbz	r3, .L81
 276:main.c        ****     mrbc_create_task( bytecode, 0 );
 1126              		.loc 1 276 0 discriminator 2
 1127 00f4 0021     		movs	r1, #0
 1128 00f6 2846     		mov	r0, r5
 1129 00f8 FFF7FEFF 		bl	mrbc_create_task
 1130              	.LVL151:
 277:main.c        ****     bytecode += tbl_bytecode_size[i];
 1131              		.loc 1 277 0 discriminator 2
 1132 00fc 36F81430 		ldrh	r3, [r6, r4, lsl #1]
 1133 0100 1D44     		add	r5, r5, r3
 1134              	.LVL152:
 274:main.c        ****     if( tbl_bytecode_size[i] == 0 ) break;
 1135              		.loc 1 274 0 discriminator 2
 1136 0102 0134     		adds	r4, r4, #1
 1137              	.LVL153:
 1138              	.L80:
 274:main.c        ****     if( tbl_bytecode_size[i] == 0 ) break;
 1139              		.loc 1 274 0 is_stmt 0 discriminator 1
 1140 0104 032C     		cmp	r4, #3
 1141 0106 F1DD     		ble	.L82
 1142              	.L81:
 278:main.c        ****   }
 279:main.c        **** 
 280:main.c        ****   mrbc_run();
 1143              		.loc 1 280 0 is_stmt 1
 1144 0108 FFF7FEFF 		bl	mrbc_run
 1145              	.LVL154:
 1146 010c BDE8F081 		pop	{r4, r5, r6, r7, r8, pc}
 1147              	.LVL155:
 1148              	.L85:
 1149              		.align	2
 1150              	.L84:
 1151 0110 00000000 		.word	mrbc_class_object
 1152 0114 00000000 		.word	.LC0
 1153 0118 00000000 		.word	io_new
 1154 011c 0C000000 		.word	.LC2
ARM GAS  C:\Users\164\AppData\Local\Temp\cc8Yccmn.s 			page 27


 1155 0120 00000000 		.word	digital_out
 1156 0124 00000000 		.word	digital_interrupt
 1157 0128 14000000 		.word	.LC3
 1158 012c 20000000 		.word	.LC4
 1159 0130 00000000 		.word	digital_in
 1160 0134 28000000 		.word	.LC5
 1161 0138 00000000 		.word	p2_new
 1162 013c 00000000 		.word	P_Write
 1163 0140 00000000 		.word	P_byte_Write
 1164 0144 2C000000 		.word	.LC6
 1165 0148 00000000 		.word	P_read
 1166 014c 00000000 		.word	P_byte_read
 1167 0150 38000000 		.word	.LC7
 1168 0154 00000000 		.word	P_nibble_Write
 1169 0158 44000000 		.word	.LC8
 1170 015c 00000000 		.word	c_log
 1171 0160 54000000 		.word	.LC9
 1172 0164 00000000 		.word	c_hibernate
 1173 0168 58000000 		.word	.LC10
 1174 016c 00000000 		.word	c_sleep_set_interval
 1175 0170 64000000 		.word	.LC11
 1176 0174 00000000 		.word	c_sleep_until_nexttime
 1177 0178 78000000 		.word	.LC12
 1178 017c 08000000 		.word	.LANCHOR1+8
 1179 0180 00000000 		.word	.LANCHOR1
 1180 0184 08000000 		.word	.LC1
 1181              		.cfi_endproc
 1182              	.LFE117:
 1183              		.size	mrubyc, .-mrubyc
 1184              		.section	.text.main,"ax",%progbits
 1185              		.align	2
 1186              		.global	main
 1187              		.thumb
 1188              		.thumb_func
 1189              		.type	main, %function
 1190              	main:
 1191              	.LFB118:
 281:main.c        **** }
 282:main.c        **** 
 283:main.c        **** int main()
 284:main.c        **** {
 1192              		.loc 1 284 0
 1193              		.cfi_startproc
 1194              		@ args = 0, pretend = 0, frame = 0
 1195              		@ frame_needed = 0, uses_anonymous_args = 0
 1196 0000 08B5     		push	{r3, lr}
 1197              		.cfi_def_cfa_offset 8
 1198              		.cfi_offset 3, -8
 1199              		.cfi_offset 14, -4
 285:main.c        ****   CyGlobalIntEnable; /* Enable global interrupts. */
 1200              		.loc 1 285 0
 1201              		.syntax unified
 1202              	@ 285 "main.c" 1
 1203 0002 62B6     		CPSIE   i
 1204              	@ 0 "" 2
 286:main.c        ****   isr_Tick_StartEx(isr_Tick);
 1205              		.loc 1 286 0
ARM GAS  C:\Users\164\AppData\Local\Temp\cc8Yccmn.s 			page 28


 1206              		.thumb
 1207              		.syntax unified
 1208 0004 1448     		ldr	r0, .L89
 1209 0006 FFF7FEFF 		bl	isr_Tick_StartEx
 1210              	.LVL156:
 287:main.c        ****   USBUART_Start(0, USBUART_3V_OPERATION);
 1211              		.loc 1 287 0
 1212 000a 0021     		movs	r1, #0
 1213 000c 0846     		mov	r0, r1
 1214 000e FFF7FEFF 		bl	USBUART_Start
 1215              	.LVL157:
 288:main.c        ****   Em_EEPROM_Start();
 1216              		.loc 1 288 0
 1217 0012 FFF7FEFF 		bl	Em_EEPROM_Start
 1218              	.LVL158:
 289:main.c        ****   UART_1_Start();
 1219              		.loc 1 289 0
 1220 0016 FFF7FEFF 		bl	UART_1_Start
 1221              	.LVL159:
 290:main.c        ****   isr_SleepTimer_StartEx( isr_SleepTimer );
 1222              		.loc 1 290 0
 1223 001a 1048     		ldr	r0, .L89+4
 1224 001c FFF7FEFF 		bl	isr_SleepTimer_StartEx
 1225              	.LVL160:
 291:main.c        ****   SleepTimer_Start();
 1226              		.loc 1 291 0
 1227 0020 FFF7FEFF 		bl	SleepTimer_Start
 1228              	.LVL161:
 292:main.c        ****   //CONS_Start();
 293:main.c        ****   I2C_1_Start();
 1229              		.loc 1 293 0
 1230 0024 FFF7FEFF 		bl	I2C_1_Start
 1231              	.LVL162:
 294:main.c        ****   usbuart_clear();
 1232              		.loc 1 294 0
 1233 0028 FFF7FEFF 		bl	usbuart_clear
 1234              	.LVL163:
 295:main.c        ****   mrbc_init(memory_pool, MEMORY_SIZE);
 1235              		.loc 1 295 0
 1236 002c 47F61E01 		movw	r1, #30750
 1237 0030 0B48     		ldr	r0, .L89+8
 1238 0032 FFF7FEFF 		bl	mrbc_init
 1239              	.LVL164:
 296:main.c        **** 
 297:main.c        ****   //console_print("\r\n\x1b(B\x1b)B\x1b[2JStart Program.\n");
 298:main.c        **** 
 299:main.c        ****   if( check_timeout() == 0 ) {
 1240              		.loc 1 299 0
 1241 0036 FFF7FEFF 		bl	check_timeout
 1242              	.LVL165:
 1243 003a 20B9     		cbnz	r0, .L87
 300:main.c        ****     LED1_Write( 1 );
 1244              		.loc 1 300 0
 1245 003c 0120     		movs	r0, #1
 1246 003e FFF7FEFF 		bl	LED1_Write
 1247              	.LVL166:
 301:main.c        ****     mode_monitor();
ARM GAS  C:\Users\164\AppData\Local\Temp\cc8Yccmn.s 			page 29


 1248              		.loc 1 301 0
 1249 0042 FFF7FEFF 		bl	mode_monitor
 1250              	.LVL167:
 1251              	.L87:
 302:main.c        ****   }
 303:main.c        ****   LED1_Write(0);
 1252              		.loc 1 303 0
 1253 0046 0020     		movs	r0, #0
 1254 0048 FFF7FEFF 		bl	LED1_Write
 1255              	.LVL168:
 304:main.c        ****   Em_EEPROM_Stop();
 1256              		.loc 1 304 0
 1257 004c FFF7FEFF 		bl	Em_EEPROM_Stop
 1258              	.LVL169:
 305:main.c        ****   mrubyc();
 1259              		.loc 1 305 0
 1260 0050 FFF7FEFF 		bl	mrubyc
 1261              	.LVL170:
 306:main.c        **** }
 1262              		.loc 1 306 0
 1263 0054 0020     		movs	r0, #0
 1264 0056 08BD     		pop	{r3, pc}
 1265              	.L90:
 1266              		.align	2
 1267              	.L89:
 1268 0058 00000000 		.word	isr_Tick
 1269 005c 00000000 		.word	isr_SleepTimer
 1270 0060 08000000 		.word	.LANCHOR0+8
 1271              		.cfi_endproc
 1272              	.LFE118:
 1273              		.size	main, .-main
 1274              		.global	mruby_bytecode
 1275              		.section	.rodata
 1276              		.align	2
 1277              		.set	.LANCHOR1,. + 0
 1278              		.type	mruby_bytecode, %object
 1279              		.size	mruby_bytecode, 65536
 1280              	mruby_bytecode:
 1281 0000 FF       		.byte	-1
 1282 0001 FF       		.byte	-1
 1283 0002 00       		.byte	0
 1284 0003 00       		.byte	0
 1285 0004 00       		.byte	0
 1286 0005 00       		.byte	0
 1287 0006 00       		.byte	0
 1288 0007 00       		.byte	0
 1289 0008 52       		.byte	82
 1290 0009 49       		.byte	73
 1291 000a 54       		.byte	84
 1292 000b 45       		.byte	69
 1293 000c 30       		.byte	48
 1294 000d 30       		.byte	48
 1295 000e 30       		.byte	48
 1296 000f 34       		.byte	52
 1297 0010 1C       		.byte	28
 1298 0011 76       		.byte	118
 1299 0012 00       		.byte	0
ARM GAS  C:\Users\164\AppData\Local\Temp\cc8Yccmn.s 			page 30


 1300 0013 00       		.byte	0
 1301 0014 00       		.byte	0
 1302 0015 A2       		.byte	-94
 1303 0016 4D       		.byte	77
 1304 0017 41       		.byte	65
 1305 0018 54       		.byte	84
 1306 0019 5A       		.byte	90
 1307 001a 30       		.byte	48
 1308 001b 30       		.byte	48
 1309 001c 30       		.byte	48
 1310 001d 30       		.byte	48
 1311 001e 49       		.byte	73
 1312 001f 52       		.byte	82
 1313 0020 45       		.byte	69
 1314 0021 50       		.byte	80
 1315 0022 00       		.byte	0
 1316 0023 00       		.byte	0
 1317 0024 00       		.byte	0
 1318 0025 84       		.byte	-124
 1319 0026 30       		.byte	48
 1320 0027 30       		.byte	48
 1321 0028 30       		.byte	48
 1322 0029 30       		.byte	48
 1323 002a 00       		.byte	0
 1324 002b 00       		.byte	0
 1325 002c 00       		.byte	0
 1326 002d 7C       		.byte	124
 1327 002e 00       		.byte	0
 1328 002f 01       		.byte	1
 1329 0030 00       		.byte	0
 1330 0031 05       		.byte	5
 1331 0032 00       		.byte	0
 1332 0033 00       		.byte	0
 1333 0034 00       		.byte	0
 1334 0035 00       		.byte	0
 1335 0036 00       		.byte	0
 1336 0037 13       		.byte	19
 1337 0038 00       		.byte	0
 1338 0039 40       		.byte	64
 1339 003a 07       		.byte	7
 1340 003b 17       		.byte	23
 1341 003c 00       		.byte	0
 1342 003d 80       		.byte	-128
 1343 003e 00       		.byte	0
 1344 003f 11       		.byte	17
 1345 0040 01       		.byte	1
 1346 0041 40       		.byte	64
 1347 0042 00       		.byte	0
 1348 0043 03       		.byte	3
 1349 0044 01       		.byte	1
 1350 0045 BF       		.byte	-65
 1351 0046 FF       		.byte	-1
 1352 0047 83       		.byte	-125
 1353 0048 00       		.byte	0
 1354 0049 80       		.byte	-128
 1355 004a 41       		.byte	65
 1356 004b 20       		.byte	32
ARM GAS  C:\Users\164\AppData\Local\Temp\cc8Yccmn.s 			page 31


 1357 004c 00       		.byte	0
 1358 004d 80       		.byte	-128
 1359 004e 00       		.byte	0
 1360 004f 06       		.byte	6
 1361 0050 01       		.byte	1
 1362 0051 40       		.byte	64
 1363 0052 00       		.byte	0
 1364 0053 03       		.byte	3
 1365 0054 00       		.byte	0
 1366 0055 80       		.byte	-128
 1367 0056 80       		.byte	-128
 1368 0057 A0       		.byte	-96
 1369 0058 00       		.byte	0
 1370 0059 80       		.byte	-128
 1371 005a 00       		.byte	0
 1372 005b 11       		.byte	17
 1373 005c 01       		.byte	1
 1374 005d 40       		.byte	64
 1375 005e 00       		.byte	0
 1376 005f 03       		.byte	3
 1377 0060 01       		.byte	1
 1378 0061 C0       		.byte	-64
 1379 0062 00       		.byte	0
 1380 0063 03       		.byte	3
 1381 0064 00       		.byte	0
 1382 0065 80       		.byte	-128
 1383 0066 41       		.byte	65
 1384 0067 20       		.byte	32
 1385 0068 00       		.byte	0
 1386 0069 80       		.byte	-128
 1387 006a 00       		.byte	0
 1388 006b 06       		.byte	6
 1389 006c 01       		.byte	1
 1390 006d 40       		.byte	64
 1391 006e 00       		.byte	0
 1392 006f 03       		.byte	3
 1393 0070 00       		.byte	0
 1394 0071 80       		.byte	-128
 1395 0072 80       		.byte	-128
 1396 0073 A0       		.byte	-96
 1397 0074 00       		.byte	0
 1398 0075 80       		.byte	-128
 1399 0076 00       		.byte	0
 1400 0077 07       		.byte	7
 1401 0078 00       		.byte	0
 1402 0079 BF       		.byte	-65
 1403 007a F8       		.byte	-8
 1404 007b 18       		.byte	24
 1405 007c 00       		.byte	0
 1406 007d 80       		.byte	-128
 1407 007e 00       		.byte	0
 1408 007f 05       		.byte	5
 1409 0080 00       		.byte	0
 1410 0081 00       		.byte	0
 1411 0082 00       		.byte	0
 1412 0083 4A       		.byte	74
 1413 0084 00       		.byte	0
ARM GAS  C:\Users\164\AppData\Local\Temp\cc8Yccmn.s 			page 32


 1414 0085 00       		.byte	0
 1415 0086 00       		.byte	0
 1416 0087 00       		.byte	0
 1417 0088 00       		.byte	0
 1418 0089 00       		.byte	0
 1419 008a 00       		.byte	0
 1420 008b 03       		.byte	3
 1421 008c 00       		.byte	0
 1422 008d 03       		.byte	3
 1423 008e 4C       		.byte	76
 1424 008f 45       		.byte	69
 1425 0090 44       		.byte	68
 1426 0091 00       		.byte	0
 1427 0092 00       		.byte	0
 1428 0093 05       		.byte	5
 1429 0094 77       		.byte	119
 1430 0095 72       		.byte	114
 1431 0096 69       		.byte	105
 1432 0097 74       		.byte	116
 1433 0098 65       		.byte	101
 1434 0099 00       		.byte	0
 1435 009a 00       		.byte	0
 1436 009b 05       		.byte	5
 1437 009c 73       		.byte	115
 1438 009d 6C       		.byte	108
 1439 009e 65       		.byte	101
 1440 009f 65       		.byte	101
 1441 00a0 70       		.byte	112
 1442 00a1 00       		.byte	0
 1443 00a2 45       		.byte	69
 1444 00a3 4E       		.byte	78
 1445 00a4 44       		.byte	68
 1446 00a5 00       		.byte	0
 1447 00a6 00       		.byte	0
 1448 00a7 00       		.byte	0
 1449 00a8 00       		.byte	0
 1450 00a9 08       		.byte	8
 1451 00aa 00000000 		.space	65366
 1451      00000000 
 1451      00000000 
 1451      00000000 
 1451      00000000 
 1452              		.section	.rodata.str1.4,"aMS",%progbits,1
 1453              		.align	2
 1454              	.LC0:
 1455 0000 44696769 		.ascii	"Digital\000"
 1455      74616C00 
 1456              	.LC1:
 1457 0008 6E657700 		.ascii	"new\000"
 1458              	.LC2:
 1459 000c 77726974 		.ascii	"write\000"
 1459      6500
 1460 0012 0000     		.space	2
 1461              	.LC3:
 1462 0014 696E7465 		.ascii	"interrupt\000"
 1462      72727570 
 1462      7400
ARM GAS  C:\Users\164\AppData\Local\Temp\cc8Yccmn.s 			page 33


 1463 001e 0000     		.space	2
 1464              	.LC4:
 1465 0020 72656164 		.ascii	"read\000"
 1465      00
 1466 0025 000000   		.space	3
 1467              	.LC5:
 1468 0028 503200   		.ascii	"P2\000"
 1469 002b 00       		.space	1
 1470              	.LC6:
 1471 002c 62797465 		.ascii	"byte_write\000"
 1471      5F777269 
 1471      746500
 1472 0037 00       		.space	1
 1473              	.LC7:
 1474 0038 62797465 		.ascii	"byte_read\000"
 1474      5F726561 
 1474      6400
 1475 0042 0000     		.space	2
 1476              	.LC8:
 1477 0044 6E696262 		.ascii	"nibble_write\000"
 1477      6C655F77 
 1477      72697465 
 1477      00
 1478 0051 000000   		.space	3
 1479              	.LC9:
 1480 0054 6C6F6700 		.ascii	"log\000"
 1481              	.LC10:
 1482 0058 68696265 		.ascii	"hibernate\000"
 1482      726E6174 
 1482      6500
 1483 0062 0000     		.space	2
 1484              	.LC11:
 1485 0064 736C6565 		.ascii	"sleep_set_interval\000"
 1485      705F7365 
 1485      745F696E 
 1485      74657276 
 1485      616C00
 1486 0077 00       		.space	1
 1487              	.LC12:
 1488 0078 736C6565 		.ascii	"sleep_until_nexttime\000"
 1488      705F756E 
 1488      74696C5F 
 1488      6E657874 
 1488      74696D65 
 1489              		.bss
 1490              		.align	2
 1491              		.set	.LANCHOR0,. + 0
 1492              		.type	sleep_int_counter_, %object
 1493              		.size	sleep_int_counter_, 4
 1494              	sleep_int_counter_:
 1495 0000 00000000 		.space	4
 1496              		.type	sleep_wakeup_timing_, %object
 1497              		.size	sleep_wakeup_timing_, 4
 1498              	sleep_wakeup_timing_:
 1499 0004 00000000 		.space	4
 1500              		.type	memory_pool, %object
 1501              		.size	memory_pool, 30750
ARM GAS  C:\Users\164\AppData\Local\Temp\cc8Yccmn.s 			page 34


 1502              	memory_pool:
 1503 0008 00000000 		.space	30750
 1503      00000000 
 1503      00000000 
 1503      00000000 
 1503      00000000 
 1504              		.text
 1505              	.Letext0:
 1506              		.file 2 "c:\\program files (x86)\\cypress\\psoc creator\\4.2\\psoc creator\\import\\gnu\\arm\\5.4.
 1507              		.file 3 "c:\\program files (x86)\\cypress\\psoc creator\\4.2\\psoc creator\\import\\gnu\\arm\\5.4.
 1508              		.file 4 "Generated_Source\\PSoC5/cytypes.h"
 1509              		.file 5 "value.h"
 1510              		.file 6 "vm.h"
 1511              		.file 7 "c_array.h"
 1512              		.file 8 "c_string.h"
 1513              		.file 9 "c_range.h"
 1514              		.file 10 "c_hash.h"
 1515              		.file 11 "Generated_Source\\PSoC5/core_cm3.h"
 1516              		.file 12 "static.h"
 1517              		.file 13 "rrt0.h"
 1518              		.file 14 "Generated_Source\\PSoC5/D1.h"
 1519              		.file 15 "Generated_Source\\PSoC5/SleepTimer.h"
 1520              		.file 16 "Generated_Source\\PSoC5/UART_1.h"
 1521              		.file 17 "Generated_Source\\PSoC5/I2C_1.h"
 1522              		.file 18 "Generated_Source\\PSoC5/USBUART.h"
 1523              		.file 19 "Generated_Source\\PSoC5/ADC_1.h"
 1524              		.file 20 "Generated_Source\\PSoC5/ADC_2.h"
 1525              		.file 21 "Generated_Source\\PSoC5/cyPm.h"
 1526              		.file 22 "Generated_Source\\PSoC5/isr_SleepTimer.h"
 1527              		.file 23 "c:\\program files (x86)\\cypress\\psoc creator\\4.2\\psoc creator\\import\\gnu\\arm\\5.4
 1528              		.file 24 "Generated_Source\\PSoC5/isr_1.h"
 1529              		.file 25 "mrbc_firm.h"
 1530              		.file 26 "Generated_Source\\PSoC5/LED1.h"
 1531              		.file 27 "Generated_Source\\PSoC5/CyLib.h"
 1532              		.file 28 "c_uart.h"
 1533              		.file 29 "c_i2c.h"
 1534              		.file 30 "class.h"
 1535              		.file 31 "Generated_Source\\PSoC5/isr_Tick.h"
 1536              		.file 32 "Generated_Source\\PSoC5/Em_EEPROM.h"