ARM GAS  C:\Users\164\AppData\Local\Temp\cc4hRMoo.s 			page 1


   1              		.syntax unified
   2              		.cpu cortex-m3
   3              		.fpu softvfp
   4              		.eabi_attribute 20, 1
   5              		.eabi_attribute 21, 1
   6              		.eabi_attribute 23, 3
   7              		.eabi_attribute 24, 1
   8              		.eabi_attribute 25, 1
   9              		.eabi_attribute 26, 1
  10              		.eabi_attribute 30, 1
  11              		.eabi_attribute 34, 1
  12              		.eabi_attribute 18, 4
  13              		.thumb
  14              		.syntax unified
  15              		.file	"mrbc_firm.c"
  16              		.text
  17              	.Ltext0:
  18              		.cfi_sections	.debug_frame
  19              		.section	.text.usbuart_clear,"ax",%progbits
  20              		.align	2
  21              		.global	usbuart_clear
  22              		.thumb
  23              		.thumb_func
  24              		.type	usbuart_clear, %function
  25              	usbuart_clear:
  26              	.LFB63:
  27              		.file 1 "mrbc_firm.c"
   1:mrbc_firm.c   **** /*! @file
   2:mrbc_firm.c   ****   @brief
   3:mrbc_firm.c   ****   mruby/c firmware for mruby/c devkit 01
   4:mrbc_firm.c   **** 
   5:mrbc_firm.c   ****   <pre>
   6:mrbc_firm.c   ****   Copyright (C) 2018 Kyushu Institute of Technology.
   7:mrbc_firm.c   ****   Copyright (C) 2018 Shimane IT Open-Innovation Center.
   8:mrbc_firm.c   **** 
   9:mrbc_firm.c   ****   This file is distributed under BSD 3-Clause License.
  10:mrbc_firm.c   **** 
  11:mrbc_firm.c   ****   </pre>
  12:mrbc_firm.c   **** */
  13:mrbc_firm.c   **** 
  14:mrbc_firm.c   **** 
  15:mrbc_firm.c   **** #include <project.h>
  16:mrbc_firm.c   **** #include <stdlib.h>
  17:mrbc_firm.c   **** 
  18:mrbc_firm.c   **** #include "mrbc_firm.h"
  19:mrbc_firm.c   **** 
  20:mrbc_firm.c   **** 
  21:mrbc_firm.c   **** #define MRUBYC_ROM_STRING       "mruby/c PSoC_5LP"
  22:mrbc_firm.c   **** #define MRUBYC_VERSION_STRING   "v1.00 (2018/09/04)"
  23:mrbc_firm.c   **** 
  24:mrbc_firm.c   **** #define USBUART_BUFFER_SIZE 64	// max 64bytes. see USBFS manual.
  25:mrbc_firm.c   **** 
  26:mrbc_firm.c   **** 
  27:mrbc_firm.c   **** 
  28:mrbc_firm.c   **** //================================================================
  29:mrbc_firm.c   **** /*! USBUART read buffer.
  30:mrbc_firm.c   **** */
ARM GAS  C:\Users\164\AppData\Local\Temp\cc4hRMoo.s 			page 2


  31:mrbc_firm.c   **** static struct {
  32:mrbc_firm.c   ****   uint8_t buf[USBUART_BUFFER_SIZE * 2 + 1];
  33:mrbc_firm.c   ****   char flag_can_read_line;
  34:mrbc_firm.c   ****   uint8_t *p_buf_w;
  35:mrbc_firm.c   **** } usbuart_;
  36:mrbc_firm.c   **** 
  37:mrbc_firm.c   **** 
  38:mrbc_firm.c   **** 
  39:mrbc_firm.c   **** //================================================================
  40:mrbc_firm.c   **** /*! USBUART buffer clear.
  41:mrbc_firm.c   **** */
  42:mrbc_firm.c   **** void usbuart_clear(void)
  43:mrbc_firm.c   **** {
  28              		.loc 1 43 0
  29              		.cfi_startproc
  30              		@ args = 0, pretend = 0, frame = 0
  31              		@ frame_needed = 0, uses_anonymous_args = 0
  32              		@ link register save eliminated.
  44:mrbc_firm.c   ****   usbuart_.p_buf_w = usbuart_.buf;
  33              		.loc 1 44 0
  34 0000 034B     		ldr	r3, .L2
  35 0002 C3F88430 		str	r3, [r3, #132]
  45:mrbc_firm.c   ****   usbuart_.flag_can_read_line = 0;
  36              		.loc 1 45 0
  37 0006 0022     		movs	r2, #0
  38 0008 83F88120 		strb	r2, [r3, #129]
  39 000c 7047     		bx	lr
  40              	.L3:
  41 000e 00BF     		.align	2
  42              	.L2:
  43 0010 00000000 		.word	.LANCHOR0
  44              		.cfi_endproc
  45              	.LFE63:
  46              		.size	usbuart_clear, .-usbuart_clear
  47              		.section	.text.usbuart_can_read_line,"ax",%progbits
  48              		.align	2
  49              		.global	usbuart_can_read_line
  50              		.thumb
  51              		.thumb_func
  52              		.type	usbuart_can_read_line, %function
  53              	usbuart_can_read_line:
  54              	.LFB64:
  46:mrbc_firm.c   **** }
  47:mrbc_firm.c   **** 
  48:mrbc_firm.c   **** 
  49:mrbc_firm.c   **** //================================================================
  50:mrbc_firm.c   **** /*! USBUART Can read line ?
  51:mrbc_firm.c   **** 
  52:mrbc_firm.c   ****   @retval	true if a line of data can be read.
  53:mrbc_firm.c   **** */
  54:mrbc_firm.c   **** int usbuart_can_read_line(void)
  55:mrbc_firm.c   **** {
  55              		.loc 1 55 0
  56              		.cfi_startproc
  57              		@ args = 0, pretend = 0, frame = 0
  58              		@ frame_needed = 0, uses_anonymous_args = 0
  59              		@ link register save eliminated.
ARM GAS  C:\Users\164\AppData\Local\Temp\cc4hRMoo.s 			page 3


  56:mrbc_firm.c   ****   return usbuart_.flag_can_read_line;
  57:mrbc_firm.c   **** }
  60              		.loc 1 57 0
  61 0000 014B     		ldr	r3, .L5
  62 0002 93F88100 		ldrb	r0, [r3, #129]	@ zero_extendqisi2
  63 0006 7047     		bx	lr
  64              	.L6:
  65              		.align	2
  66              	.L5:
  67 0008 00000000 		.word	.LANCHOR0
  68              		.cfi_endproc
  69              	.LFE64:
  70              		.size	usbuart_can_read_line, .-usbuart_can_read_line
  71              		.section	.text.usbuart_size,"ax",%progbits
  72              		.align	2
  73              		.global	usbuart_size
  74              		.thumb
  75              		.thumb_func
  76              		.type	usbuart_size, %function
  77              	usbuart_size:
  78              	.LFB65:
  58:mrbc_firm.c   **** 
  59:mrbc_firm.c   **** 
  60:mrbc_firm.c   **** //================================================================
  61:mrbc_firm.c   **** /*! USBUART return the byte size of buffer data.
  62:mrbc_firm.c   **** 
  63:mrbc_firm.c   ****   @retval	size
  64:mrbc_firm.c   **** */
  65:mrbc_firm.c   **** int usbuart_size(void)
  66:mrbc_firm.c   **** {
  79              		.loc 1 66 0
  80              		.cfi_startproc
  81              		@ args = 0, pretend = 0, frame = 0
  82              		@ frame_needed = 0, uses_anonymous_args = 0
  83              		@ link register save eliminated.
  67:mrbc_firm.c   ****   return usbuart_.p_buf_w - usbuart_.buf;
  84              		.loc 1 67 0
  85 0000 024B     		ldr	r3, .L8
  86 0002 D3F88400 		ldr	r0, [r3, #132]
  68:mrbc_firm.c   **** }
  87              		.loc 1 68 0
  88 0006 C01A     		subs	r0, r0, r3
  89 0008 7047     		bx	lr
  90              	.L9:
  91 000a 00BF     		.align	2
  92              	.L8:
  93 000c 00000000 		.word	.LANCHOR0
  94              		.cfi_endproc
  95              	.LFE65:
  96              		.size	usbuart_size, .-usbuart_size
  97              		.section	.text.usbuart_cstr,"ax",%progbits
  98              		.align	2
  99              		.global	usbuart_cstr
 100              		.thumb
 101              		.thumb_func
 102              		.type	usbuart_cstr, %function
 103              	usbuart_cstr:
ARM GAS  C:\Users\164\AppData\Local\Temp\cc4hRMoo.s 			page 4


 104              	.LFB66:
  69:mrbc_firm.c   **** 
  70:mrbc_firm.c   **** 
  71:mrbc_firm.c   **** //================================================================
  72:mrbc_firm.c   **** /*! USBUART return the pointer to read buffer.
  73:mrbc_firm.c   **** 
  74:mrbc_firm.c   ****   @retval	pointer to read buffer.
  75:mrbc_firm.c   **** */
  76:mrbc_firm.c   **** char * usbuart_cstr(void)
  77:mrbc_firm.c   **** {
 105              		.loc 1 77 0
 106              		.cfi_startproc
 107              		@ args = 0, pretend = 0, frame = 0
 108              		@ frame_needed = 0, uses_anonymous_args = 0
 109              		@ link register save eliminated.
  78:mrbc_firm.c   ****   return (char*)usbuart_.buf;
  79:mrbc_firm.c   **** }
 110              		.loc 1 79 0
 111 0000 0048     		ldr	r0, .L11
 112 0002 7047     		bx	lr
 113              	.L12:
 114              		.align	2
 115              	.L11:
 116 0004 00000000 		.word	.LANCHOR0
 117              		.cfi_endproc
 118              	.LFE66:
 119              		.size	usbuart_cstr, .-usbuart_cstr
 120              		.section	.text.usbuart_put_string,"ax",%progbits
 121              		.align	2
 122              		.global	usbuart_put_string
 123              		.thumb
 124              		.thumb_func
 125              		.type	usbuart_put_string, %function
 126              	usbuart_put_string:
 127              	.LFB67:
  80:mrbc_firm.c   **** 
  81:mrbc_firm.c   **** 
  82:mrbc_firm.c   **** //================================================================
  83:mrbc_firm.c   **** /*! USBUART put string
  84:mrbc_firm.c   **** 
  85:mrbc_firm.c   ****   @param
  86:mrbc_firm.c   **** */
  87:mrbc_firm.c   **** void usbuart_put_string( const char *s )
  88:mrbc_firm.c   **** {
 128              		.loc 1 88 0
 129              		.cfi_startproc
 130              		@ args = 0, pretend = 0, frame = 0
 131              		@ frame_needed = 0, uses_anonymous_args = 0
 132              	.LVL0:
 133 0000 10B5     		push	{r4, lr}
 134              		.cfi_def_cfa_offset 8
 135              		.cfi_offset 4, -8
 136              		.cfi_offset 14, -4
 137 0002 0446     		mov	r4, r0
 138              	.LVL1:
 139              	.L14:
  89:mrbc_firm.c   ****   //  To be sure that the previous data has finished sending.
ARM GAS  C:\Users\164\AppData\Local\Temp\cc4hRMoo.s 			page 5


  90:mrbc_firm.c   ****   while( !USBUART_CDCIsReady() ) { /* busy loop. */ }
 140              		.loc 1 90 0 discriminator 1
 141 0004 FFF7FEFF 		bl	USBUART_CDCIsReady
 142              	.LVL2:
 143 0008 0028     		cmp	r0, #0
 144 000a FBD0     		beq	.L14
  91:mrbc_firm.c   **** 
  92:mrbc_firm.c   ****   USBUART_PutString(s);
 145              		.loc 1 92 0
 146 000c 2046     		mov	r0, r4
 147 000e FFF7FEFF 		bl	USBUART_PutString
 148              	.LVL3:
 149 0012 10BD     		pop	{r4, pc}
 150              		.cfi_endproc
 151              	.LFE67:
 152              		.size	usbuart_put_string, .-usbuart_put_string
 153              		.section	.text.usbuart_write,"ax",%progbits
 154              		.align	2
 155              		.global	usbuart_write
 156              		.thumb
 157              		.thumb_func
 158              		.type	usbuart_write, %function
 159              	usbuart_write:
 160              	.LFB69:
  93:mrbc_firm.c   **** }
  94:mrbc_firm.c   **** 
  95:mrbc_firm.c   **** 
  96:mrbc_firm.c   **** //================================================================
  97:mrbc_firm.c   **** /*! USBUART binary read.
  98:mrbc_firm.c   **** 
  99:mrbc_firm.c   ****   @param  buf	pointer to read buffer.
 100:mrbc_firm.c   ****   @param  nbyte	maximum reading byte length.
 101:mrbc_firm.c   ****   @retval	read length.
 102:mrbc_firm.c   **** */
 103:mrbc_firm.c   **** int usbuart_read( void *buf, int nbyte )
 104:mrbc_firm.c   **** {
 105:mrbc_firm.c   ****   int len = nbyte;
 106:mrbc_firm.c   **** 
 107:mrbc_firm.c   ****   while( len > 0 ) {
 108:mrbc_firm.c   ****     if( usbuart_size() == 0 ) {
 109:mrbc_firm.c   ****       if( usbuart_event() < 0 ) {
 110:mrbc_firm.c   **** 	return 0;
 111:mrbc_firm.c   ****       }
 112:mrbc_firm.c   ****       continue;
 113:mrbc_firm.c   ****     }
 114:mrbc_firm.c   **** 
 115:mrbc_firm.c   ****     int copy_size = usbuart_size() < len ? usbuart_size() : len;
 116:mrbc_firm.c   ****     int remain = usbuart_size() - copy_size;
 117:mrbc_firm.c   **** 
 118:mrbc_firm.c   ****     memcpy( buf, usbuart_.buf, copy_size );
 119:mrbc_firm.c   ****     if( remain > 0 ) {
 120:mrbc_firm.c   ****       memmove( usbuart_.buf, usbuart_.buf + copy_size, remain );
 121:mrbc_firm.c   ****       usbuart_.p_buf_w = usbuart_.buf + remain;
 122:mrbc_firm.c   ****     } else {
 123:mrbc_firm.c   ****       usbuart_clear();
 124:mrbc_firm.c   ****     }
 125:mrbc_firm.c   **** 
ARM GAS  C:\Users\164\AppData\Local\Temp\cc4hRMoo.s 			page 6


 126:mrbc_firm.c   ****     buf += copy_size;
 127:mrbc_firm.c   ****     len -= copy_size;
 128:mrbc_firm.c   ****   }
 129:mrbc_firm.c   **** 
 130:mrbc_firm.c   ****   return nbyte;
 131:mrbc_firm.c   **** }
 132:mrbc_firm.c   **** 
 133:mrbc_firm.c   **** 
 134:mrbc_firm.c   **** //================================================================
 135:mrbc_firm.c   **** /*! USBUART binary write.
 136:mrbc_firm.c   **** 
 137:mrbc_firm.c   ****   @param  buf	pointer to write data.
 138:mrbc_firm.c   ****   @param  nbyte	write byte size.
 139:mrbc_firm.c   **** */
 140:mrbc_firm.c   **** void usbuart_write( const char *buf, int nbyte )
 141:mrbc_firm.c   **** {
 161              		.loc 1 141 0
 162              		.cfi_startproc
 163              		@ args = 0, pretend = 0, frame = 0
 164              		@ frame_needed = 0, uses_anonymous_args = 0
 165              	.LVL4:
 166 0000 38B5     		push	{r3, r4, r5, lr}
 167              		.cfi_def_cfa_offset 16
 168              		.cfi_offset 3, -16
 169              		.cfi_offset 4, -12
 170              		.cfi_offset 5, -8
 171              		.cfi_offset 14, -4
 172 0002 0546     		mov	r5, r0
 173 0004 0C46     		mov	r4, r1
 142:mrbc_firm.c   ****   while( nbyte > 0 ) {
 174              		.loc 1 142 0
 175 0006 0DE0     		b	.L17
 176              	.LVL5:
 177              	.L18:
 178              	.LBB2:
 143:mrbc_firm.c   ****     //  To be sure that the previous data has finished sending.
 144:mrbc_firm.c   ****     while( !USBUART_CDCIsReady() ) { /* busy loop. */ }
 179              		.loc 1 144 0 discriminator 1
 180 0008 FFF7FEFF 		bl	USBUART_CDCIsReady
 181              	.LVL6:
 182 000c 0028     		cmp	r0, #0
 183 000e FBD0     		beq	.L18
 145:mrbc_firm.c   **** 
 146:mrbc_firm.c   ****     int size = (nbyte < USBUART_BUFFER_SIZE) ? nbyte : USBUART_BUFFER_SIZE;
 184              		.loc 1 146 0
 185 0010 2146     		mov	r1, r4
 186 0012 402C     		cmp	r4, #64
 187 0014 A8BF     		it	ge
 188 0016 4021     		movge	r1, #64
 189              	.LVL7:
 147:mrbc_firm.c   ****     USBUART_PutData( (uint8_t*)buf, size );
 190              		.loc 1 147 0
 191 0018 89B2     		uxth	r1, r1
 192              	.LVL8:
 193 001a 2846     		mov	r0, r5
 194 001c FFF7FEFF 		bl	USBUART_PutData
 195              	.LVL9:
ARM GAS  C:\Users\164\AppData\Local\Temp\cc4hRMoo.s 			page 7


 148:mrbc_firm.c   ****     buf += USBUART_BUFFER_SIZE;
 196              		.loc 1 148 0
 197 0020 4035     		adds	r5, r5, #64
 198              	.LVL10:
 149:mrbc_firm.c   ****     nbyte -= USBUART_BUFFER_SIZE;
 199              		.loc 1 149 0
 200 0022 403C     		subs	r4, r4, #64
 201              	.LVL11:
 202              	.L17:
 203              	.LBE2:
 142:mrbc_firm.c   ****     //  To be sure that the previous data has finished sending.
 204              		.loc 1 142 0
 205 0024 002C     		cmp	r4, #0
 206 0026 EFDC     		bgt	.L18
 150:mrbc_firm.c   ****   }
 151:mrbc_firm.c   **** 
 152:mrbc_firm.c   ****   if( nbyte == 0 ) {
 207              		.loc 1 152 0
 208 0028 3CB9     		cbnz	r4, .L16
 209              	.L20:
 153:mrbc_firm.c   ****     /* Send zero-length packet to PC. */
 154:mrbc_firm.c   ****     while( !USBUART_CDCIsReady() ) { /* busy loop. */ }
 210              		.loc 1 154 0 discriminator 1
 211 002a FFF7FEFF 		bl	USBUART_CDCIsReady
 212              	.LVL12:
 213 002e 0028     		cmp	r0, #0
 214 0030 FBD0     		beq	.L20
 155:mrbc_firm.c   ****     USBUART_PutData(NULL, 0);
 215              		.loc 1 155 0
 216 0032 0021     		movs	r1, #0
 217 0034 0846     		mov	r0, r1
 218 0036 FFF7FEFF 		bl	USBUART_PutData
 219              	.LVL13:
 220              	.L16:
 221 003a 38BD     		pop	{r3, r4, r5, pc}
 222              		.cfi_endproc
 223              	.LFE69:
 224              		.size	usbuart_write, .-usbuart_write
 225              		.section	.text.usbuart_event,"ax",%progbits
 226              		.align	2
 227              		.global	usbuart_event
 228              		.thumb
 229              		.thumb_func
 230              		.type	usbuart_event, %function
 231              	usbuart_event:
 232              	.LFB70:
 156:mrbc_firm.c   ****   }
 157:mrbc_firm.c   **** }
 158:mrbc_firm.c   **** 
 159:mrbc_firm.c   **** 
 160:mrbc_firm.c   **** //================================================================
 161:mrbc_firm.c   **** /*! USBUART event handler.
 162:mrbc_firm.c   **** 
 163:mrbc_firm.c   ****   @retval
 164:mrbc_firm.c   **** */
 165:mrbc_firm.c   **** int usbuart_event(void)
 166:mrbc_firm.c   **** {
ARM GAS  C:\Users\164\AppData\Local\Temp\cc4hRMoo.s 			page 8


 233              		.loc 1 166 0
 234              		.cfi_startproc
 235              		@ args = 0, pretend = 0, frame = 0
 236              		@ frame_needed = 0, uses_anonymous_args = 0
 237 0000 38B5     		push	{r3, r4, r5, lr}
 238              		.cfi_def_cfa_offset 16
 239              		.cfi_offset 3, -16
 240              		.cfi_offset 4, -12
 241              		.cfi_offset 5, -8
 242              		.cfi_offset 14, -4
 167:mrbc_firm.c   ****   if( USBUART_IsConfigurationChanged() ) {
 243              		.loc 1 167 0
 244 0002 FFF7FEFF 		bl	USBUART_IsConfigurationChanged
 245              	.LVL14:
 246 0006 30B1     		cbz	r0, .L23
 168:mrbc_firm.c   ****     /* Initialize IN endpoints when device is configured. */
 169:mrbc_firm.c   ****     if( USBUART_GetConfiguration() ) {
 247              		.loc 1 169 0
 248 0008 FFF7FEFF 		bl	USBUART_GetConfiguration
 249              	.LVL15:
 250 000c 88B3     		cbz	r0, .L29
 170:mrbc_firm.c   ****       /* Enumeration is done, enable OUT endpoint to receive data from host. */
 171:mrbc_firm.c   ****       USBUART_CDC_Init();
 251              		.loc 1 171 0
 252 000e FFF7FEFF 		bl	USBUART_CDC_Init
 253              	.LVL16:
 172:mrbc_firm.c   ****     }
 173:mrbc_firm.c   **** 
 174:mrbc_firm.c   ****     return 1;
 254              		.loc 1 174 0
 255 0012 0120     		movs	r0, #1
 256 0014 38BD     		pop	{r3, r4, r5, pc}
 257              	.L23:
 175:mrbc_firm.c   ****   }
 176:mrbc_firm.c   **** 
 177:mrbc_firm.c   ****   if( !USBUART_GetConfiguration() ) {
 258              		.loc 1 177 0
 259 0016 FFF7FEFF 		bl	USBUART_GetConfiguration
 260              	.LVL17:
 261 001a 60B3     		cbz	r0, .L30
 178:mrbc_firm.c   ****     return -1;
 179:mrbc_firm.c   ****   }
 180:mrbc_firm.c   **** 
 181:mrbc_firm.c   ****   if( USBUART_DataIsReady() ) {
 262              		.loc 1 181 0
 263 001c FFF7FEFF 		bl	USBUART_DataIsReady
 264              	.LVL18:
 265 0020 60B3     		cbz	r0, .L31
 266              	.LBB3:
 182:mrbc_firm.c   ****     int count = USBUART_GetCount();
 267              		.loc 1 182 0
 268 0022 FFF7FEFF 		bl	USBUART_GetCount
 269              	.LVL19:
 270 0026 0546     		mov	r5, r0
 271              	.LVL20:
 183:mrbc_firm.c   ****     int remain = sizeof(usbuart_.buf) - usbuart_size() - 1;
 272              		.loc 1 183 0
ARM GAS  C:\Users\164\AppData\Local\Temp\cc4hRMoo.s 			page 9


 273 0028 FFF7FEFF 		bl	usbuart_size
 274              	.LVL21:
 275 002c C0F18004 		rsb	r4, r0, #128
 276              	.LVL22:
 184:mrbc_firm.c   **** 
 185:mrbc_firm.c   ****     if( count > remain ) count = remain;
 277              		.loc 1 185 0
 278 0030 A542     		cmp	r5, r4
 279 0032 00DC     		bgt	.L25
 182:mrbc_firm.c   ****     int remain = sizeof(usbuart_.buf) - usbuart_size() - 1;
 280              		.loc 1 182 0
 281 0034 2C46     		mov	r4, r5
 282              	.LVL23:
 283              	.L25:
 186:mrbc_firm.c   ****     USBUART_GetData( usbuart_.p_buf_w, count );
 284              		.loc 1 186 0
 285 0036 A1B2     		uxth	r1, r4
 286 0038 114B     		ldr	r3, .L33
 287 003a D3F88400 		ldr	r0, [r3, #132]
 288              	.LVL24:
 289 003e FFF7FEFF 		bl	USBUART_GetData
 290              	.LVL25:
 187:mrbc_firm.c   **** 
 188:mrbc_firm.c   ****     for( ; count != 0; count-- ) {
 291              		.loc 1 188 0
 292 0042 0DE0     		b	.L26
 293              	.L28:
 189:mrbc_firm.c   ****       if( *usbuart_.p_buf_w++ == '\n' ) {
 294              		.loc 1 189 0
 295 0044 0E4A     		ldr	r2, .L33
 296 0046 D2F88430 		ldr	r3, [r2, #132]
 297 004a 591C     		adds	r1, r3, #1
 298 004c C2F88410 		str	r1, [r2, #132]
 299 0050 1B78     		ldrb	r3, [r3]	@ zero_extendqisi2
 300 0052 0A2B     		cmp	r3, #10
 301 0054 03D1     		bne	.L27
 190:mrbc_firm.c   **** 	usbuart_.flag_can_read_line = 1;
 302              		.loc 1 190 0
 303 0056 0122     		movs	r2, #1
 304 0058 094B     		ldr	r3, .L33
 305 005a 83F88120 		strb	r2, [r3, #129]
 306              	.L27:
 188:mrbc_firm.c   ****       if( *usbuart_.p_buf_w++ == '\n' ) {
 307              		.loc 1 188 0
 308 005e 013C     		subs	r4, r4, #1
 309              	.LVL26:
 310              	.L26:
 188:mrbc_firm.c   ****       if( *usbuart_.p_buf_w++ == '\n' ) {
 311              		.loc 1 188 0 is_stmt 0 discriminator 1
 312 0060 002C     		cmp	r4, #0
 313 0062 EFD1     		bne	.L28
 191:mrbc_firm.c   ****       }
 192:mrbc_firm.c   ****     }
 193:mrbc_firm.c   ****     *usbuart_.p_buf_w = '\0';
 314              		.loc 1 193 0 is_stmt 1
 315 0064 064B     		ldr	r3, .L33
 316 0066 D3F88430 		ldr	r3, [r3, #132]
ARM GAS  C:\Users\164\AppData\Local\Temp\cc4hRMoo.s 			page 10


 317 006a 0022     		movs	r2, #0
 318 006c 1A70     		strb	r2, [r3]
 194:mrbc_firm.c   **** 
 195:mrbc_firm.c   ****     // TODO check buffer full
 196:mrbc_firm.c   ****     return 2;
 319              		.loc 1 196 0
 320 006e 0220     		movs	r0, #2
 321 0070 38BD     		pop	{r3, r4, r5, pc}
 322              	.LVL27:
 323              	.L29:
 324              	.LBE3:
 174:mrbc_firm.c   ****   }
 325              		.loc 1 174 0
 326 0072 0120     		movs	r0, #1
 327 0074 38BD     		pop	{r3, r4, r5, pc}
 328              	.L30:
 178:mrbc_firm.c   ****   }
 329              		.loc 1 178 0
 330 0076 4FF0FF30 		mov	r0, #-1
 331 007a 38BD     		pop	{r3, r4, r5, pc}
 332              	.L31:
 197:mrbc_firm.c   ****   }
 198:mrbc_firm.c   **** 
 199:mrbc_firm.c   ****   return 0;
 333              		.loc 1 199 0
 334 007c 0020     		movs	r0, #0
 200:mrbc_firm.c   **** }
 335              		.loc 1 200 0
 336 007e 38BD     		pop	{r3, r4, r5, pc}
 337              	.L34:
 338              		.align	2
 339              	.L33:
 340 0080 00000000 		.word	.LANCHOR0
 341              		.cfi_endproc
 342              	.LFE70:
 343              		.size	usbuart_event, .-usbuart_event
 344              		.section	.text.usbuart_read,"ax",%progbits
 345              		.align	2
 346              		.global	usbuart_read
 347              		.thumb
 348              		.thumb_func
 349              		.type	usbuart_read, %function
 350              	usbuart_read:
 351              	.LFB68:
 104:mrbc_firm.c   ****   int len = nbyte;
 352              		.loc 1 104 0
 353              		.cfi_startproc
 354              		@ args = 0, pretend = 0, frame = 0
 355              		@ frame_needed = 0, uses_anonymous_args = 0
 356              	.LVL28:
 357 0000 2DE9F047 		push	{r4, r5, r6, r7, r8, r9, r10, lr}
 358              		.cfi_def_cfa_offset 32
 359              		.cfi_offset 4, -32
 360              		.cfi_offset 5, -28
 361              		.cfi_offset 6, -24
 362              		.cfi_offset 7, -20
 363              		.cfi_offset 8, -16
ARM GAS  C:\Users\164\AppData\Local\Temp\cc4hRMoo.s 			page 11


 364              		.cfi_offset 9, -12
 365              		.cfi_offset 10, -8
 366              		.cfi_offset 14, -4
 367 0004 8046     		mov	r8, r0
 368 0006 8946     		mov	r9, r1
 369              	.LVL29:
 105:mrbc_firm.c   **** 
 370              		.loc 1 105 0
 371 0008 0E46     		mov	r6, r1
 107:mrbc_firm.c   ****     if( usbuart_size() == 0 ) {
 372              		.loc 1 107 0
 373 000a 24E0     		b	.L36
 374              	.LVL30:
 375              	.L43:
 376              	.LBB4:
 108:mrbc_firm.c   ****       if( usbuart_event() < 0 ) {
 377              		.loc 1 108 0
 378 000c FFF7FEFF 		bl	usbuart_size
 379              	.LVL31:
 380 0010 0246     		mov	r2, r0
 381 0012 20B9     		cbnz	r0, .L37
 109:mrbc_firm.c   **** 	return 0;
 382              		.loc 1 109 0
 383 0014 FFF7FEFF 		bl	usbuart_event
 384              	.LVL32:
 385 0018 0028     		cmp	r0, #0
 386 001a 1CDA     		bge	.L36
 387 001c 20E0     		b	.L44
 388              	.L37:
 115:mrbc_firm.c   ****     int remain = usbuart_size() - copy_size;
 389              		.loc 1 115 0
 390 001e 8642     		cmp	r6, r0
 391 0020 01DD     		ble	.L45
 392 0022 0546     		mov	r5, r0
 393 0024 00E0     		b	.L40
 394              	.L45:
 395 0026 3546     		mov	r5, r6
 396              	.L40:
 397              	.LVL33:
 116:mrbc_firm.c   **** 
 398              		.loc 1 116 0 discriminator 4
 399 0028 541B     		subs	r4, r2, r5
 400              	.LVL34:
 118:mrbc_firm.c   ****     if( remain > 0 ) {
 401              		.loc 1 118 0 discriminator 4
 402 002a AA46     		mov	r10, r5
 403 002c 2A46     		mov	r2, r5
 404 002e 0E49     		ldr	r1, .L47
 405 0030 4046     		mov	r0, r8
 406 0032 FFF7FEFF 		bl	memcpy
 407              	.LVL35:
 119:mrbc_firm.c   ****       memmove( usbuart_.buf, usbuart_.buf + copy_size, remain );
 408              		.loc 1 119 0 discriminator 4
 409 0036 002C     		cmp	r4, #0
 410 0038 09DD     		ble	.L41
 120:mrbc_firm.c   ****       usbuart_.p_buf_w = usbuart_.buf + remain;
 411              		.loc 1 120 0
ARM GAS  C:\Users\164\AppData\Local\Temp\cc4hRMoo.s 			page 12


 412 003a 0B4F     		ldr	r7, .L47
 413 003c 2246     		mov	r2, r4
 414 003e 7919     		adds	r1, r7, r5
 415 0040 3846     		mov	r0, r7
 416 0042 FFF7FEFF 		bl	memmove
 417              	.LVL36:
 121:mrbc_firm.c   ****     } else {
 418              		.loc 1 121 0
 419 0046 3A19     		adds	r2, r7, r4
 420 0048 C7F88420 		str	r2, [r7, #132]
 421 004c 01E0     		b	.L42
 422              	.L41:
 123:mrbc_firm.c   ****     }
 423              		.loc 1 123 0
 424 004e FFF7FEFF 		bl	usbuart_clear
 425              	.LVL37:
 426              	.L42:
 126:mrbc_firm.c   ****     len -= copy_size;
 427              		.loc 1 126 0
 428 0052 D044     		add	r8, r8, r10
 429              	.LVL38:
 127:mrbc_firm.c   ****   }
 430              		.loc 1 127 0
 431 0054 761B     		subs	r6, r6, r5
 432              	.LVL39:
 433              	.L36:
 434              	.LBE4:
 107:mrbc_firm.c   ****     if( usbuart_size() == 0 ) {
 435              		.loc 1 107 0
 436 0056 002E     		cmp	r6, #0
 437 0058 D8DC     		bgt	.L43
 130:mrbc_firm.c   **** }
 438              		.loc 1 130 0
 439 005a 4846     		mov	r0, r9
 440 005c BDE8F087 		pop	{r4, r5, r6, r7, r8, r9, r10, pc}
 441              	.LVL40:
 442              	.L44:
 443              	.LBB5:
 110:mrbc_firm.c   ****       }
 444              		.loc 1 110 0
 445 0060 0020     		movs	r0, #0
 446              	.LBE5:
 131:mrbc_firm.c   **** 
 447              		.loc 1 131 0
 448 0062 BDE8F087 		pop	{r4, r5, r6, r7, r8, r9, r10, pc}
 449              	.LVL41:
 450              	.L48:
 451 0066 00BF     		.align	2
 452              	.L47:
 453 0068 00000000 		.word	.LANCHOR0
 454              		.cfi_endproc
 455              	.LFE68:
 456              		.size	usbuart_read, .-usbuart_read
 457              		.section	.text.write_bytecode,"ax",%progbits
 458              		.align	2
 459              		.thumb
 460              		.thumb_func
ARM GAS  C:\Users\164\AppData\Local\Temp\cc4hRMoo.s 			page 13


 461              		.type	write_bytecode, %function
 462              	write_bytecode:
 463              	.LFB71:
 201:mrbc_firm.c   **** 
 202:mrbc_firm.c   **** 
 203:mrbc_firm.c   **** 
 204:mrbc_firm.c   **** //================================================================
 205:mrbc_firm.c   **** /*! write bytecode
 206:mrbc_firm.c   **** 
 207:mrbc_firm.c   ****   @param  size	size of bytecode
 208:mrbc_firm.c   **** */
 209:mrbc_firm.c   **** static int write_bytecode( uint16_t size )
 210:mrbc_firm.c   **** {
 464              		.loc 1 210 0
 465              		.cfi_startproc
 466              		@ args = 0, pretend = 0, frame = 264
 467              		@ frame_needed = 0, uses_anonymous_args = 0
 468              	.LVL42:
 211:mrbc_firm.c   ****   static const uint8_t *flash_addr = mruby_bytecode + sizeof(uint16_t) * MRBC_MAX_BYTECODES;
 212:mrbc_firm.c   ****   static const uint8_t * flash_addr_end = mruby_bytecode + MRBC_SIZE_IREP_STRAGE;
 213:mrbc_firm.c   ****   static int bytecode_index = 0;
 214:mrbc_firm.c   **** 
 215:mrbc_firm.c   ****   cystatus status;
 216:mrbc_firm.c   ****   uint8_t buf[CY_FLASH_SIZEOF_ROW];
 217:mrbc_firm.c   ****   uint16_t tbl_bytecode_size[MRBC_MAX_BYTECODES];
 218:mrbc_firm.c   **** 
 219:mrbc_firm.c   ****   if( bytecode_index >= MRBC_MAX_BYTECODES ) return 1;
 469              		.loc 1 219 0
 470 0000 244B     		ldr	r3, .L63
 471 0002 D3F88820 		ldr	r2, [r3, #136]
 472 0006 032A     		cmp	r2, #3
 473 0008 3FDC     		bgt	.L59
 210:mrbc_firm.c   ****   static const uint8_t *flash_addr = mruby_bytecode + sizeof(uint16_t) * MRBC_MAX_BYTECODES;
 474              		.loc 1 210 0
 475 000a 30B5     		push	{r4, r5, lr}
 476              		.cfi_def_cfa_offset 12
 477              		.cfi_offset 4, -12
 478              		.cfi_offset 5, -8
 479              		.cfi_offset 14, -4
 480 000c C3B0     		sub	sp, sp, #268
 481              		.cfi_def_cfa_offset 280
 482 000e 0446     		mov	r4, r0
 220:mrbc_firm.c   ****   if( flash_addr + size > flash_addr_end ) return 2;
 483              		.loc 1 220 0
 484 0010 214B     		ldr	r3, .L63+4
 485 0012 1B68     		ldr	r3, [r3]
 486 0014 0344     		add	r3, r3, r0
 487 0016 2149     		ldr	r1, .L63+8
 488 0018 8B42     		cmp	r3, r1
 489 001a 38D8     		bhi	.L60
 221:mrbc_firm.c   ****   if( bytecode_index == 0 ) {
 490              		.loc 1 221 0
 491 001c 1AB9     		cbnz	r2, .L51
 222:mrbc_firm.c   ****     memset( tbl_bytecode_size, 0, sizeof(tbl_bytecode_size) );
 492              		.loc 1 222 0
 493 001e 0023     		movs	r3, #0
 494 0020 0093     		str	r3, [sp]
ARM GAS  C:\Users\164\AppData\Local\Temp\cc4hRMoo.s 			page 14


 495 0022 0193     		str	r3, [sp, #4]
 496 0024 04E0     		b	.L52
 497              	.L51:
 223:mrbc_firm.c   ****   } else {
 224:mrbc_firm.c   ****     memcpy( tbl_bytecode_size, mruby_bytecode, sizeof(tbl_bytecode_size) );
 498              		.loc 1 224 0
 499 0026 1E49     		ldr	r1, .L63+12
 500 0028 6B46     		mov	r3, sp
 501 002a 0868     		ldr	r0, [r1]	@ unaligned
 502              	.LVL43:
 503 002c 4968     		ldr	r1, [r1, #4]	@ unaligned
 504 002e 03C3     		stmia	r3!, {r0, r1}
 505              	.L52:
 225:mrbc_firm.c   ****   }
 226:mrbc_firm.c   ****   tbl_bytecode_size[bytecode_index] = size;
 506              		.loc 1 226 0
 507 0030 2DF81240 		strh	r4, [sp, r2, lsl #1]	@ movhi
 227:mrbc_firm.c   **** 
 228:mrbc_firm.c   ****   status = Em_EEPROM_Write((const uint8_t *)tbl_bytecode_size,
 508              		.loc 1 228 0
 509 0034 0822     		movs	r2, #8
 510 0036 1A49     		ldr	r1, .L63+12
 511 0038 6846     		mov	r0, sp
 512 003a FFF7FEFF 		bl	Em_EEPROM_Write
 513              	.LVL44:
 229:mrbc_firm.c   **** 			   mruby_bytecode, sizeof(tbl_bytecode_size));
 230:mrbc_firm.c   ****   if (CYRET_SUCCESS != status) {
 514              		.loc 1 230 0
 515 003e C0B1     		cbz	r0, .L53
 516              	.L54:
 517 0040 FEE7     		b	.L54
 518              	.LVL45:
 519              	.L58:
 520              	.LBB6:
 231:mrbc_firm.c   ****     //ogura
 232:mrbc_firm.c   ****     //CONS_PutString("Em EEPROM size write error.\r\n");
 233:mrbc_firm.c   ****     //usbuart_put_string("Em EEPROM size write error.\r\n");
 234:mrbc_firm.c   ****     while (1) { /* Will stay here */ }
 235:mrbc_firm.c   ****   }
 236:mrbc_firm.c   **** 
 237:mrbc_firm.c   ****   while( size > 0 ) {
 238:mrbc_firm.c   ****     int read_size = size < sizeof(buf) ? size : sizeof(buf);
 521              		.loc 1 238 0
 522 0042 FF2C     		cmp	r4, #255
 523 0044 01D8     		bhi	.L61
 524              		.loc 1 238 0 is_stmt 0 discriminator 1
 525 0046 2146     		mov	r1, r4
 526 0048 01E0     		b	.L55
 527              	.L61:
 528              		.loc 1 238 0
 529 004a 4FF48071 		mov	r1, #256
 530              	.L55:
 531              	.LVL46:
 239:mrbc_firm.c   ****     read_size = usbuart_read( buf, read_size );
 532              		.loc 1 239 0 is_stmt 1 discriminator 4
 533 004e 02A8     		add	r0, sp, #8
 534              	.LVL47:
ARM GAS  C:\Users\164\AppData\Local\Temp\cc4hRMoo.s 			page 15


 535 0050 FFF7FEFF 		bl	usbuart_read
 536              	.LVL48:
 537 0054 0546     		mov	r5, r0
 538              	.LVL49:
 240:mrbc_firm.c   **** 
 241:mrbc_firm.c   ****     status = Em_EEPROM_Write(buf, flash_addr, read_size);
 539              		.loc 1 241 0 discriminator 4
 540 0056 0246     		mov	r2, r0
 541 0058 0F4B     		ldr	r3, .L63+4
 542 005a 1968     		ldr	r1, [r3]
 543 005c 02A8     		add	r0, sp, #8
 544              	.LVL50:
 545 005e FFF7FEFF 		bl	Em_EEPROM_Write
 546              	.LVL51:
 242:mrbc_firm.c   **** 
 243:mrbc_firm.c   ****     if (CYRET_SUCCESS != status) {
 547              		.loc 1 243 0 discriminator 4
 548 0062 00B1     		cbz	r0, .L56
 549              	.L57:
 550 0064 FEE7     		b	.L57
 551              	.L56:
 244:mrbc_firm.c   ****       //ogura
 245:mrbc_firm.c   ****       //CONS_PutString("Em EEPROM error3\r\n");
 246:mrbc_firm.c   ****       //usbuart_put_string("Em EEPROM error3\r\n");
 247:mrbc_firm.c   ****       while (1) { /* Will stay here */ }
 248:mrbc_firm.c   ****     }
 249:mrbc_firm.c   **** 
 250:mrbc_firm.c   ****     size -= read_size;
 552              		.loc 1 250 0
 553 0066 641B     		subs	r4, r4, r5
 554              	.LVL52:
 555 0068 A4B2     		uxth	r4, r4
 556              	.LVL53:
 251:mrbc_firm.c   ****     flash_addr += read_size;
 557              		.loc 1 251 0
 558 006a 0B4B     		ldr	r3, .L63+4
 559 006c 1A68     		ldr	r2, [r3]
 560 006e 1544     		add	r5, r5, r2
 561              	.LVL54:
 562 0070 1D60     		str	r5, [r3]
 563              	.LVL55:
 564              	.L53:
 565              	.LBE6:
 237:mrbc_firm.c   ****     int read_size = size < sizeof(buf) ? size : sizeof(buf);
 566              		.loc 1 237 0
 567 0072 002C     		cmp	r4, #0
 568 0074 E5D1     		bne	.L58
 252:mrbc_firm.c   ****   }
 253:mrbc_firm.c   **** 
 254:mrbc_firm.c   ****   usbuart_clear();
 569              		.loc 1 254 0
 570 0076 FFF7FEFF 		bl	usbuart_clear
 571              	.LVL56:
 255:mrbc_firm.c   ****   bytecode_index++;
 572              		.loc 1 255 0
 573 007a 064A     		ldr	r2, .L63
 574 007c D2F88830 		ldr	r3, [r2, #136]
ARM GAS  C:\Users\164\AppData\Local\Temp\cc4hRMoo.s 			page 16


 575 0080 0133     		adds	r3, r3, #1
 576 0082 C2F88830 		str	r3, [r2, #136]
 256:mrbc_firm.c   **** 
 257:mrbc_firm.c   ****   return 0;
 577              		.loc 1 257 0
 578 0086 0020     		movs	r0, #0
 579 0088 02E0     		b	.L50
 580              	.LVL57:
 581              	.L59:
 582              		.cfi_def_cfa_offset 0
 583              		.cfi_restore 4
 584              		.cfi_restore 5
 585              		.cfi_restore 14
 219:mrbc_firm.c   ****   if( flash_addr + size > flash_addr_end ) return 2;
 586              		.loc 1 219 0
 587 008a 0120     		movs	r0, #1
 588              	.LVL58:
 258:mrbc_firm.c   **** }
 589              		.loc 1 258 0
 590 008c 7047     		bx	lr
 591              	.LVL59:
 592              	.L60:
 593              		.cfi_def_cfa_offset 280
 594              		.cfi_offset 4, -12
 595              		.cfi_offset 5, -8
 596              		.cfi_offset 14, -4
 220:mrbc_firm.c   ****   if( bytecode_index == 0 ) {
 597              		.loc 1 220 0
 598 008e 0220     		movs	r0, #2
 599              	.LVL60:
 600              	.L50:
 601              		.loc 1 258 0
 602 0090 43B0     		add	sp, sp, #268
 603              		.cfi_def_cfa_offset 12
 604              		@ sp needed
 605 0092 30BD     		pop	{r4, r5, pc}
 606              	.L64:
 607              		.align	2
 608              	.L63:
 609 0094 00000000 		.word	.LANCHOR0
 610 0098 00000000 		.word	.LANCHOR1
 611 009c 00000100 		.word	mruby_bytecode+65536
 612 00a0 00000000 		.word	mruby_bytecode
 613              		.cfi_endproc
 614              	.LFE71:
 615              		.size	write_bytecode, .-write_bytecode
 616              		.section	.text.mode_monitor,"ax",%progbits
 617              		.align	2
 618              		.global	mode_monitor
 619              		.thumb
 620              		.thumb_func
 621              		.type	mode_monitor, %function
 622              	mode_monitor:
 623              	.LFB72:
 259:mrbc_firm.c   **** 
 260:mrbc_firm.c   **** 
 261:mrbc_firm.c   **** //================================================================
ARM GAS  C:\Users\164\AppData\Local\Temp\cc4hRMoo.s 			page 17


 262:mrbc_firm.c   **** /*! monitor mode
 263:mrbc_firm.c   **** 
 264:mrbc_firm.c   **** */
 265:mrbc_firm.c   **** void mode_monitor(void)
 266:mrbc_firm.c   **** {
 624              		.loc 1 266 0
 625              		.cfi_startproc
 626              		@ args = 0, pretend = 0, frame = 0
 627              		@ frame_needed = 0, uses_anonymous_args = 0
 628 0000 10B5     		push	{r4, lr}
 629              		.cfi_def_cfa_offset 8
 630              		.cfi_offset 4, -8
 631              		.cfi_offset 14, -4
 632              	.L66:
 633              	.LBB7:
 267:mrbc_firm.c   ****   static const char ws[] = " \t\r\n\f\v";
 268:mrbc_firm.c   ****   static const char *help_msg =
 269:mrbc_firm.c   ****     "Commands:\r\n"
 270:mrbc_firm.c   ****     "  version\r\n"
 271:mrbc_firm.c   ****     "  reset\r\n"
 272:mrbc_firm.c   ****     "  execute\r\n"
 273:mrbc_firm.c   ****     "  write [size]\r\n";
 274:mrbc_firm.c   **** 
 275:mrbc_firm.c   ****   while( 1 ) {
 276:mrbc_firm.c   ****     usbuart_event();
 634              		.loc 1 276 0
 635 0002 FFF7FEFF 		bl	usbuart_event
 636              	.LVL61:
 277:mrbc_firm.c   ****     if( !usbuart_can_read_line() ) continue;
 637              		.loc 1 277 0
 638 0006 FFF7FEFF 		bl	usbuart_can_read_line
 639              	.LVL62:
 640 000a 0028     		cmp	r0, #0
 641 000c F9D0     		beq	.L66
 278:mrbc_firm.c   **** 
 279:mrbc_firm.c   ****     // TODO check buffer full
 280:mrbc_firm.c   **** 
 281:mrbc_firm.c   ****     char *token = strtok( usbuart_cstr(), ws );
 642              		.loc 1 281 0
 643 000e FFF7FEFF 		bl	usbuart_cstr
 644              	.LVL63:
 645 0012 3649     		ldr	r1, .L82
 646 0014 FFF7FEFF 		bl	strtok
 647              	.LVL64:
 282:mrbc_firm.c   ****     if( token == NULL ) {
 648              		.loc 1 282 0
 649 0018 0446     		mov	r4, r0
 650 001a 18B9     		cbnz	r0, .L68
 283:mrbc_firm.c   ****       usbuart_put_string( "+OK mruby/c\r\n" );
 651              		.loc 1 283 0
 652 001c 3448     		ldr	r0, .L82+4
 653              	.LVL65:
 654 001e FFF7FEFF 		bl	usbuart_put_string
 655              	.LVL66:
 284:mrbc_firm.c   ****       goto DONE;
 656              		.loc 1 284 0
 657 0022 5FE0     		b	.L69
ARM GAS  C:\Users\164\AppData\Local\Temp\cc4hRMoo.s 			page 18


 658              	.LVL67:
 659              	.L68:
 285:mrbc_firm.c   ****     }
 286:mrbc_firm.c   **** 
 287:mrbc_firm.c   ****     if( strcmp(token, "help") == 0 ) {
 660              		.loc 1 287 0
 661 0024 3349     		ldr	r1, .L82+8
 662 0026 FFF7FEFF 		bl	strcmp
 663              	.LVL68:
 664 002a 48B9     		cbnz	r0, .L70
 288:mrbc_firm.c   ****       usbuart_put_string( "+OK\r\n" );
 665              		.loc 1 288 0
 666 002c 3248     		ldr	r0, .L82+12
 667 002e FFF7FEFF 		bl	usbuart_put_string
 668              	.LVL69:
 289:mrbc_firm.c   ****       usbuart_put_string(help_msg);
 669              		.loc 1 289 0
 670 0032 3248     		ldr	r0, .L82+16
 671 0034 FFF7FEFF 		bl	usbuart_put_string
 672              	.LVL70:
 290:mrbc_firm.c   ****       usbuart_put_string( "+DONE\r\n" );
 673              		.loc 1 290 0
 674 0038 3148     		ldr	r0, .L82+20
 675 003a FFF7FEFF 		bl	usbuart_put_string
 676              	.LVL71:
 291:mrbc_firm.c   ****       goto DONE;
 677              		.loc 1 291 0
 678 003e 51E0     		b	.L69
 679              	.L70:
 292:mrbc_firm.c   ****     }
 293:mrbc_firm.c   **** 
 294:mrbc_firm.c   ****     if( strcmp(token, "version") == 0 ) {
 680              		.loc 1 294 0
 681 0040 3049     		ldr	r1, .L82+24
 682 0042 2046     		mov	r0, r4
 683 0044 FFF7FEFF 		bl	strcmp
 684              	.LVL72:
 685 0048 18B9     		cbnz	r0, .L71
 295:mrbc_firm.c   ****       usbuart_put_string("+OK " MRUBYC_ROM_STRING " " MRUBYC_VERSION_STRING "\r\n");
 686              		.loc 1 295 0
 687 004a 2F48     		ldr	r0, .L82+28
 688 004c FFF7FEFF 		bl	usbuart_put_string
 689              	.LVL73:
 296:mrbc_firm.c   ****       goto DONE;
 690              		.loc 1 296 0
 691 0050 48E0     		b	.L69
 692              	.L71:
 297:mrbc_firm.c   ****     }
 298:mrbc_firm.c   **** 
 299:mrbc_firm.c   ****     if( strcmp(token, "reset") == 0 ) {
 693              		.loc 1 299 0
 694 0052 2E49     		ldr	r1, .L82+32
 695 0054 2046     		mov	r0, r4
 696 0056 FFF7FEFF 		bl	strcmp
 697              	.LVL74:
 698 005a 38B9     		cbnz	r0, .L72
 300:mrbc_firm.c   ****       usbuart_put_string("+OK\r\n");
ARM GAS  C:\Users\164\AppData\Local\Temp\cc4hRMoo.s 			page 19


 699              		.loc 1 300 0
 700 005c 2648     		ldr	r0, .L82+12
 701 005e FFF7FEFF 		bl	usbuart_put_string
 702              	.LVL75:
 301:mrbc_firm.c   ****       CyDelay(100);
 703              		.loc 1 301 0
 704 0062 6420     		movs	r0, #100
 705 0064 FFF7FEFF 		bl	CyDelay
 706              	.LVL76:
 302:mrbc_firm.c   ****       CySoftwareReset();
 707              		.loc 1 302 0
 708 0068 FFF7FEFF 		bl	CySoftwareReset
 709              	.LVL77:
 710              	.L72:
 303:mrbc_firm.c   ****     }
 304:mrbc_firm.c   **** 
 305:mrbc_firm.c   ****     if( strcmp(token, "execute") == 0 ) {
 711              		.loc 1 305 0
 712 006c 2849     		ldr	r1, .L82+36
 713 006e 2046     		mov	r0, r4
 714 0070 FFF7FEFF 		bl	strcmp
 715              	.LVL78:
 716 0074 18B9     		cbnz	r0, .L73
 306:mrbc_firm.c   ****       usbuart_put_string("+OK Execute mruby/c.\r\n");
 717              		.loc 1 306 0
 718 0076 2748     		ldr	r0, .L82+40
 719 0078 FFF7FEFF 		bl	usbuart_put_string
 720              	.LVL79:
 307:mrbc_firm.c   ****       return;	// to execute mrubyc();
 721              		.loc 1 307 0
 722 007c 10BD     		pop	{r4, pc}
 723              	.LVL80:
 724              	.L73:
 308:mrbc_firm.c   ****     }
 309:mrbc_firm.c   **** 
 310:mrbc_firm.c   ****     if( strcmp(token, "write") == 0 ) {
 725              		.loc 1 310 0
 726 007e 2649     		ldr	r1, .L82+44
 727 0080 2046     		mov	r0, r4
 728 0082 FFF7FEFF 		bl	strcmp
 729              	.LVL81:
 730 0086 50BB     		cbnz	r0, .L74
 311:mrbc_firm.c   ****       token = strtok( NULL, ws );
 731              		.loc 1 311 0
 732 0088 1849     		ldr	r1, .L82
 733 008a FFF7FEFF 		bl	strtok
 734              	.LVL82:
 312:mrbc_firm.c   ****       if( token != NULL ) {
 735              		.loc 1 312 0
 736 008e 10B3     		cbz	r0, .L75
 737              	.LBB8:
 313:mrbc_firm.c   **** 	int size = atoi(token);
 738              		.loc 1 313 0
 739 0090 FFF7FEFF 		bl	atoi
 740              	.LVL83:
 741 0094 0446     		mov	r4, r0
 742              	.LVL84:
ARM GAS  C:\Users\164\AppData\Local\Temp\cc4hRMoo.s 			page 20


 314:mrbc_firm.c   **** 	if( size < 0 || size > MRBC_SIZE_IREP_STRAGE ) {
 743              		.loc 1 314 0
 744 0096 B0F5803F 		cmp	r0, #65536
 745 009a 03D9     		bls	.L76
 315:mrbc_firm.c   **** 	  usbuart_put_string( "-ERR size overflow.\r\n" );
 746              		.loc 1 315 0
 747 009c 1F48     		ldr	r0, .L82+48
 748              	.LVL85:
 749 009e FFF7FEFF 		bl	usbuart_put_string
 750              	.LVL86:
 316:mrbc_firm.c   **** 	  goto DONE;
 751              		.loc 1 316 0
 752 00a2 1FE0     		b	.L69
 753              	.LVL87:
 754              	.L76:
 317:mrbc_firm.c   **** 	}
 318:mrbc_firm.c   **** 
 319:mrbc_firm.c   **** 	usbuart_clear();
 755              		.loc 1 319 0
 756 00a4 FFF7FEFF 		bl	usbuart_clear
 757              	.LVL88:
 320:mrbc_firm.c   **** 	usbuart_put_string( "+OK Write bytecode.\r\n" );
 758              		.loc 1 320 0
 759 00a8 1D48     		ldr	r0, .L82+52
 760 00aa FFF7FEFF 		bl	usbuart_put_string
 761              	.LVL89:
 321:mrbc_firm.c   **** 	switch( write_bytecode( size ) ) {
 762              		.loc 1 321 0
 763 00ae A0B2     		uxth	r0, r4
 764 00b0 FFF7FEFF 		bl	write_bytecode
 765              	.LVL90:
 766 00b4 0128     		cmp	r0, #1
 767 00b6 06D0     		beq	.L77
 768 00b8 0228     		cmp	r0, #2
 769 00ba 08D0     		beq	.L78
 770 00bc 58B9     		cbnz	r0, .L75
 322:mrbc_firm.c   **** 	case 0:
 323:mrbc_firm.c   **** 	  usbuart_put_string( "+DONE\r\n" );
 771              		.loc 1 323 0
 772 00be 1048     		ldr	r0, .L82+20
 773 00c0 FFF7FEFF 		bl	usbuart_put_string
 774              	.LVL91:
 324:mrbc_firm.c   **** 	  goto DONE;
 775              		.loc 1 324 0
 776 00c4 0EE0     		b	.L69
 777              	.L77:
 325:mrbc_firm.c   **** 	case 1:
 326:mrbc_firm.c   **** 	  usbuart_put_string( "-ERR number of programs overflow.\r\n" );
 778              		.loc 1 326 0
 779 00c6 1748     		ldr	r0, .L82+56
 780 00c8 FFF7FEFF 		bl	usbuart_put_string
 781              	.LVL92:
 327:mrbc_firm.c   **** 	  goto DONE;
 782              		.loc 1 327 0
 783 00cc 0AE0     		b	.L69
 784              	.L78:
 328:mrbc_firm.c   **** 	case 2:
ARM GAS  C:\Users\164\AppData\Local\Temp\cc4hRMoo.s 			page 21


 329:mrbc_firm.c   **** 	  usbuart_put_string( "-ERR total bytecode size overflow.\r\n" );
 785              		.loc 1 329 0
 786 00ce 1648     		ldr	r0, .L82+60
 787 00d0 FFF7FEFF 		bl	usbuart_put_string
 788              	.LVL93:
 330:mrbc_firm.c   **** 	  goto DONE;
 789              		.loc 1 330 0
 790 00d4 06E0     		b	.L69
 791              	.LVL94:
 792              	.L75:
 793              	.LBE8:
 331:mrbc_firm.c   **** 	}
 332:mrbc_firm.c   ****       }
 333:mrbc_firm.c   **** 
 334:mrbc_firm.c   ****       usbuart_put_string( "-ERR\r\n" );
 794              		.loc 1 334 0
 795 00d6 1548     		ldr	r0, .L82+64
 796 00d8 FFF7FEFF 		bl	usbuart_put_string
 797              	.LVL95:
 335:mrbc_firm.c   ****       goto DONE;
 798              		.loc 1 335 0
 799 00dc 02E0     		b	.L69
 800              	.LVL96:
 801              	.L74:
 336:mrbc_firm.c   ****     }
 337:mrbc_firm.c   **** 
 338:mrbc_firm.c   ****     usbuart_put_string( "-ERR Illegal command.\r\n" );
 802              		.loc 1 338 0
 803 00de 1448     		ldr	r0, .L82+68
 804 00e0 FFF7FEFF 		bl	usbuart_put_string
 805              	.LVL97:
 806              	.L69:
 339:mrbc_firm.c   **** 
 340:mrbc_firm.c   **** 
 341:mrbc_firm.c   ****   DONE:
 342:mrbc_firm.c   ****     usbuart_clear();
 807              		.loc 1 342 0
 808 00e4 FFF7FEFF 		bl	usbuart_clear
 809              	.LVL98:
 810 00e8 8BE7     		b	.L66
 811              	.L83:
 812 00ea 00BF     		.align	2
 813              	.L82:
 814 00ec 00000000 		.word	.LANCHOR2
 815 00f0 00000000 		.word	.LC0
 816 00f4 10000000 		.word	.LC1
 817 00f8 18000000 		.word	.LC2
 818 00fc 20000000 		.word	.LC3
 819 0100 5C000000 		.word	.LC4
 820 0104 64000000 		.word	.LC5
 821 0108 6C000000 		.word	.LC6
 822 010c 98000000 		.word	.LC7
 823 0110 A0000000 		.word	.LC8
 824 0114 A8000000 		.word	.LC9
 825 0118 C0000000 		.word	.LC10
 826 011c C8000000 		.word	.LC11
 827 0120 E0000000 		.word	.LC12
ARM GAS  C:\Users\164\AppData\Local\Temp\cc4hRMoo.s 			page 22


 828 0124 F8000000 		.word	.LC13
 829 0128 1C010000 		.word	.LC14
 830 012c 44010000 		.word	.LC15
 831 0130 4C010000 		.word	.LC16
 832              	.LBE7:
 833              		.cfi_endproc
 834              	.LFE72:
 835              		.size	mode_monitor, .-mode_monitor
 836              		.section	.rodata
 837              		.align	2
 838              		.set	.LANCHOR2,. + 0
 839              		.type	ws.7083, %object
 840              		.size	ws.7083, 7
 841              	ws.7083:
 842 0000 20090D0A 		.ascii	" \011\015\012\014\013\000"
 842      0C0B00
 843              		.data
 844              		.align	2
 845              		.set	.LANCHOR1,. + 0
 846              		.type	flash_addr.7068, %object
 847              		.size	flash_addr.7068, 4
 848              	flash_addr.7068:
 849 0000 08000000 		.word	mruby_bytecode+8
 850              		.section	.rodata.str1.4,"aMS",%progbits,1
 851              		.align	2
 852              	.LC0:
 853 0000 2B4F4B20 		.ascii	"+OK mruby/c\015\012\000"
 853      6D727562 
 853      792F630D 
 853      0A00
 854 000e 0000     		.space	2
 855              	.LC1:
 856 0010 68656C70 		.ascii	"help\000"
 856      00
 857 0015 000000   		.space	3
 858              	.LC2:
 859 0018 2B4F4B0D 		.ascii	"+OK\015\012\000"
 859      0A00
 860 001e 0000     		.space	2
 861              	.LC3:
 862 0020 436F6D6D 		.ascii	"Commands:\015\012  version\015\012  reset\015\012  "
 862      616E6473 
 862      3A0D0A20 
 862      20766572 
 862      73696F6E 
 863 0041 65786563 		.ascii	"execute\015\012  write [size]\015\012\000"
 863      7574650D 
 863      0A202077 
 863      72697465 
 863      205B7369 
 864 005b 00       		.space	1
 865              	.LC4:
 866 005c 2B444F4E 		.ascii	"+DONE\015\012\000"
 866      450D0A00 
 867              	.LC5:
 868 0064 76657273 		.ascii	"version\000"
 868      696F6E00 
ARM GAS  C:\Users\164\AppData\Local\Temp\cc4hRMoo.s 			page 23


 869              	.LC6:
 870 006c 2B4F4B20 		.ascii	"+OK mruby/c PSoC_5LP v1.00 (2018/09/04)\015\012\000"
 870      6D727562 
 870      792F6320 
 870      50536F43 
 870      5F354C50 
 871 0096 0000     		.space	2
 872              	.LC7:
 873 0098 72657365 		.ascii	"reset\000"
 873      7400
 874 009e 0000     		.space	2
 875              	.LC8:
 876 00a0 65786563 		.ascii	"execute\000"
 876      75746500 
 877              	.LC9:
 878 00a8 2B4F4B20 		.ascii	"+OK Execute mruby/c.\015\012\000"
 878      45786563 
 878      75746520 
 878      6D727562 
 878      792F632E 
 879 00bf 00       		.space	1
 880              	.LC10:
 881 00c0 77726974 		.ascii	"write\000"
 881      6500
 882 00c6 0000     		.space	2
 883              	.LC11:
 884 00c8 2D455252 		.ascii	"-ERR size overflow.\015\012\000"
 884      2073697A 
 884      65206F76 
 884      6572666C 
 884      6F772E0D 
 885 00de 0000     		.space	2
 886              	.LC12:
 887 00e0 2B4F4B20 		.ascii	"+OK Write bytecode.\015\012\000"
 887      57726974 
 887      65206279 
 887      7465636F 
 887      64652E0D 
 888 00f6 0000     		.space	2
 889              	.LC13:
 890 00f8 2D455252 		.ascii	"-ERR number of programs overflow.\015\012\000"
 890      206E756D 
 890      62657220 
 890      6F662070 
 890      726F6772 
 891              	.LC14:
 892 011c 2D455252 		.ascii	"-ERR total bytecode size overflow.\015\012\000"
 892      20746F74 
 892      616C2062 
 892      79746563 
 892      6F646520 
 893 0141 000000   		.space	3
 894              	.LC15:
 895 0144 2D455252 		.ascii	"-ERR\015\012\000"
 895      0D0A00
 896 014b 00       		.space	1
 897              	.LC16:
ARM GAS  C:\Users\164\AppData\Local\Temp\cc4hRMoo.s 			page 24


 898 014c 2D455252 		.ascii	"-ERR Illegal command.\015\012\000"
 898      20496C6C 
 898      6567616C 
 898      20636F6D 
 898      6D616E64 
 899              		.bss
 900              		.align	2
 901              		.set	.LANCHOR0,. + 0
 902              		.type	usbuart_, %object
 903              		.size	usbuart_, 136
 904              	usbuart_:
 905 0000 00000000 		.space	136
 905      00000000 
 905      00000000 
 905      00000000 
 905      00000000 
 906              		.type	bytecode_index.7070, %object
 907              		.size	bytecode_index.7070, 4
 908              	bytecode_index.7070:
 909 0088 00000000 		.space	4
 910              		.text
 911              	.Letext0:
 912              		.file 2 "c:\\program files (x86)\\cypress\\psoc creator\\4.2\\psoc creator\\import\\gnu\\arm\\5.4.
 913              		.file 3 "c:\\program files (x86)\\cypress\\psoc creator\\4.2\\psoc creator\\import\\gnu\\arm\\5.4.
 914              		.file 4 "Generated_Source\\PSoC5/cytypes.h"
 915              		.file 5 "Generated_Source\\PSoC5/core_cm3.h"
 916              		.file 6 "mrbc_firm.h"
 917              		.file 7 "Generated_Source\\PSoC5/USBUART_cdc.h"
 918              		.file 8 "Generated_Source\\PSoC5/USBUART.h"
 919              		.file 9 "c:\\program files (x86)\\cypress\\psoc creator\\4.2\\psoc creator\\import\\gnu\\arm\\5.4.
 920              		.file 10 "Generated_Source\\PSoC5/Em_EEPROM.h"
 921              		.file 11 "c:\\program files (x86)\\cypress\\psoc creator\\4.2\\psoc creator\\import\\gnu\\arm\\5.4
 922              		.file 12 "Generated_Source\\PSoC5/CyLib.h"