ARM GAS  C:\Users\164\AppData\Local\Temp\ccs996fP.s 			page 1


   1              		.syntax unified
   2              		.cpu cortex-m3
   3              		.fpu softvfp
   4              		.eabi_attribute 20, 1
   5              		.eabi_attribute 21, 1
   6              		.eabi_attribute 23, 3
   7              		.eabi_attribute 24, 1
   8              		.eabi_attribute 25, 1
   9              		.eabi_attribute 26, 1
  10              		.eabi_attribute 30, 1
  11              		.eabi_attribute 34, 1
  12              		.eabi_attribute 18, 4
  13              		.thumb
  14              		.syntax unified
  15              		.file	"rrt0.c"
  16              		.text
  17              	.Ltext0:
  18              		.cfi_sections	.debug_frame
  19              		.section	.text.q_delete_task,"ax",%progbits
  20              		.align	2
  21              		.thumb
  22              		.thumb_func
  23              		.type	q_delete_task, %function
  24              	q_delete_task:
  25              	.LFB82:
  26              		.file 1 "rrt0.c"
   1:rrt0.c        **** /*! @file
   2:rrt0.c        ****   @brief
   3:rrt0.c        ****   Realtime multitask monitor for mruby/c
   4:rrt0.c        **** 
   5:rrt0.c        ****   <pre>
   6:rrt0.c        ****   Copyright (C) 2015-2018 Kyushu Institute of Technology.
   7:rrt0.c        ****   Copyright (C) 2015-2018 Shimane IT Open-Innovation Center.
   8:rrt0.c        **** 
   9:rrt0.c        ****   This file is distributed under BSD 3-Clause License.
  10:rrt0.c        ****   </pre>
  11:rrt0.c        **** */
  12:rrt0.c        **** 
  13:rrt0.c        **** /***** Feature test switches ************************************************/
  14:rrt0.c        **** /***** System headers *******************************************************/
  15:rrt0.c        **** #include "vm_config.h"
  16:rrt0.c        **** #include <stddef.h>
  17:rrt0.c        **** #include <stdint.h>
  18:rrt0.c        **** #include <string.h>
  19:rrt0.c        **** #include <assert.h>
  20:rrt0.c        **** 
  21:rrt0.c        **** 
  22:rrt0.c        **** /***** Local headers ********************************************************/
  23:rrt0.c        **** #include "alloc.h"
  24:rrt0.c        **** #include "static.h"
  25:rrt0.c        **** #include "load.h"
  26:rrt0.c        **** #include "class.h"
  27:rrt0.c        **** #include "vm.h"
  28:rrt0.c        **** #include "console.h"
  29:rrt0.c        **** #include "rrt0.h"
  30:rrt0.c        **** #include "hal/hal.h"
  31:rrt0.c        **** 
ARM GAS  C:\Users\164\AppData\Local\Temp\ccs996fP.s 			page 2


  32:rrt0.c        **** 
  33:rrt0.c        **** /***** Constat values *******************************************************/
  34:rrt0.c        **** const int TIMESLICE_TICK = 10; // 10 * 1ms(HardwareTimer)  255 max
  35:rrt0.c        **** 
  36:rrt0.c        **** 
  37:rrt0.c        **** /***** Macros ***************************************************************/
  38:rrt0.c        **** #ifndef MRBC_SCHEDULER_EXIT
  39:rrt0.c        **** #define MRBC_SCHEDULER_EXIT 0
  40:rrt0.c        **** #endif
  41:rrt0.c        **** 
  42:rrt0.c        **** #define VM2TCB(p) ((mrbc_tcb *)((uint8_t *)p - offsetof(mrbc_tcb, vm)))
  43:rrt0.c        **** #define MRBC_MUTEX_TRACE(...) ((void)0)
  44:rrt0.c        **** 
  45:rrt0.c        **** 
  46:rrt0.c        **** /***** Typedefs *************************************************************/
  47:rrt0.c        **** /***** Function prototypes **************************************************/
  48:rrt0.c        **** /***** Local variables ******************************************************/
  49:rrt0.c        **** static mrbc_tcb *q_dormant_;
  50:rrt0.c        **** static mrbc_tcb *q_ready_;
  51:rrt0.c        **** static mrbc_tcb *q_waiting_;
  52:rrt0.c        **** static mrbc_tcb *q_suspended_;
  53:rrt0.c        **** static volatile uint32_t tick_;
  54:rrt0.c        **** 
  55:rrt0.c        **** 
  56:rrt0.c        **** /***** Global variables *****************************************************/
  57:rrt0.c        **** /***** Signal catching functions ********************************************/
  58:rrt0.c        **** /***** Local functions ******************************************************/
  59:rrt0.c        **** 
  60:rrt0.c        **** //================================================================
  61:rrt0.c        **** /*! Insert to task queue
  62:rrt0.c        **** 
  63:rrt0.c        ****   @param        Pointer of target TCB
  64:rrt0.c        **** 
  65:rrt0.c        ****   å¼•æ•°ã§æŒ‡å®šã•ã‚ŒãŸã‚¿ã‚¹ã‚¯(TCB)ã‚’ã€çŠ¶æ…‹åˆ¥Queueã«å…¥ã‚Œã‚‹ã€‚
  66:rrt0.c        ****   TCBã¯ãƒ•ãƒªãƒ¼ã®çŠ¶æ…‹ã§ãªã‘ã‚Œã°ãªã‚‰ãªã„ã€‚ï¼ˆåˆ¥ãªQueueã«å…¥ã£ã¦ã„ã¦ã¯ãªã‚‰ã
  67:rrt0.c        ****   Queueã¯priority_preemptioné †ã«ã‚½ãƒ¼ãƒˆæ¸ˆã¿ã¨ãªã‚‹ã€‚
  68:rrt0.c        ****   æŒ¿å…¥ã™ã‚‹TCBã¨Queueã«åŒã˜priority_preemptionå€¤ãŒã‚ã‚‹å ´åˆã¯ã€åŒå€¤ã®æœ€å¾Œã«æŒ¿å
  69:rrt0.c        **** 
  70:rrt0.c        ****  */
  71:rrt0.c        **** static void q_insert_task(mrbc_tcb *p_tcb)
  72:rrt0.c        **** {
  73:rrt0.c        ****   mrbc_tcb **pp_q;
  74:rrt0.c        **** 
  75:rrt0.c        ****   switch( p_tcb->state ) {
  76:rrt0.c        ****   case TASKSTATE_DORMANT: pp_q   = &q_dormant_; break;
  77:rrt0.c        ****   case TASKSTATE_READY:
  78:rrt0.c        ****   case TASKSTATE_RUNNING: pp_q   = &q_ready_; break;
  79:rrt0.c        ****   case TASKSTATE_WAITING: pp_q   = &q_waiting_; break;
  80:rrt0.c        ****   case TASKSTATE_SUSPENDED: pp_q = &q_suspended_; break;
  81:rrt0.c        ****   default:
  82:rrt0.c        ****     assert(!"Wrong task state.");
  83:rrt0.c        ****     return;
  84:rrt0.c        ****   }
  85:rrt0.c        **** 
  86:rrt0.c        ****   // case insert on top.
  87:rrt0.c        ****   if((*pp_q == NULL) ||
  88:rrt0.c        ****      (p_tcb->priority_preemption < (*pp_q)->priority_preemption)) {
ARM GAS  C:\Users\164\AppData\Local\Temp\ccs996fP.s 			page 3


  89:rrt0.c        ****     p_tcb->next = *pp_q;
  90:rrt0.c        ****     *pp_q       = p_tcb;
  91:rrt0.c        ****     assert(p_tcb->next != p_tcb);
  92:rrt0.c        ****     return;
  93:rrt0.c        ****   }
  94:rrt0.c        **** 
  95:rrt0.c        ****   // find insert point in sorted linked list.
  96:rrt0.c        ****   mrbc_tcb *p = *pp_q;
  97:rrt0.c        ****   while( 1 ) {
  98:rrt0.c        ****     if((p->next == NULL) ||
  99:rrt0.c        ****        (p_tcb->priority_preemption < p->next->priority_preemption)) {
 100:rrt0.c        ****       p_tcb->next = p->next;
 101:rrt0.c        ****       p->next     = p_tcb;
 102:rrt0.c        ****       assert(p->next != p);
 103:rrt0.c        ****       return;
 104:rrt0.c        ****     }
 105:rrt0.c        **** 
 106:rrt0.c        ****     p = p->next;
 107:rrt0.c        ****   }
 108:rrt0.c        **** }
 109:rrt0.c        **** 
 110:rrt0.c        **** 
 111:rrt0.c        **** //================================================================
 112:rrt0.c        **** /*! Delete from task queue
 113:rrt0.c        **** 
 114:rrt0.c        ****   @param        Pointer of target TCB
 115:rrt0.c        **** 
 116:rrt0.c        ****   Queueã‹ã‚‰ã‚¿ã‚¹ã‚¯(TCB)ã‚’å–ã‚Šé™¤ãã€‚
 117:rrt0.c        **** 
 118:rrt0.c        ****  */
 119:rrt0.c        **** static void q_delete_task(mrbc_tcb *p_tcb)
 120:rrt0.c        **** {
  27              		.loc 1 120 0
  28              		.cfi_startproc
  29              		@ args = 0, pretend = 0, frame = 0
  30              		@ frame_needed = 0, uses_anonymous_args = 0
  31              	.LVL0:
  32 0000 08B5     		push	{r3, lr}
  33              		.cfi_def_cfa_offset 8
  34              		.cfi_offset 3, -8
  35              		.cfi_offset 14, -4
 121:rrt0.c        ****   mrbc_tcb **pp_q;
 122:rrt0.c        **** 
 123:rrt0.c        ****   switch( p_tcb->state ) {
  36              		.loc 1 123 0
  37 0002 C379     		ldrb	r3, [r0, #7]	@ zero_extendqisi2
  38 0004 082B     		cmp	r3, #8
  39 0006 0AD8     		bhi	.L2
  40 0008 DFE803F0 		tbb	[pc, r3]
  41              	.L4:
  42 000c 0F       		.byte	(.L3-.L4)/2
  43 000d 11       		.byte	(.L11-.L4)/2
  44 000e 09       		.byte	(.L2-.L4)/2
  45 000f 11       		.byte	(.L11-.L4)/2
  46 0010 05       		.byte	(.L6-.L4)/2
  47 0011 09       		.byte	(.L2-.L4)/2
  48 0012 09       		.byte	(.L2-.L4)/2
ARM GAS  C:\Users\164\AppData\Local\Temp\ccs996fP.s 			page 4


  49 0013 09       		.byte	(.L2-.L4)/2
  50 0014 07       		.byte	(.L7-.L4)/2
  51 0015 00       		.p2align 1
  52              	.L6:
  53              	.LVL1:
 124:rrt0.c        ****   case TASKSTATE_DORMANT: pp_q   = &q_dormant_; break;
 125:rrt0.c        ****   case TASKSTATE_READY:
 126:rrt0.c        ****   case TASKSTATE_RUNNING: pp_q   = &q_ready_; break;
 127:rrt0.c        ****   case TASKSTATE_WAITING: pp_q   = &q_waiting_; break;
  54              		.loc 1 127 0
  55 0016 114A     		ldr	r2, .L14
  56 0018 0AE0     		b	.L5
  57              	.LVL2:
  58              	.L7:
 128:rrt0.c        ****   case TASKSTATE_SUSPENDED: pp_q = &q_suspended_; break;
  59              		.loc 1 128 0
  60 001a 114A     		ldr	r2, .L14+4
  61 001c 08E0     		b	.L5
  62              	.LVL3:
  63              	.L2:
 129:rrt0.c        ****   default:
 130:rrt0.c        ****     assert(!"Wrong task state.");
  64              		.loc 1 130 0
  65 001e 114B     		ldr	r3, .L14+8
  66 0020 114A     		ldr	r2, .L14+12
  67 0022 8221     		movs	r1, #130
  68 0024 1148     		ldr	r0, .L14+16
  69              	.LVL4:
  70 0026 FFF7FEFF 		bl	__assert_func
  71              	.LVL5:
  72              	.L3:
 124:rrt0.c        ****   case TASKSTATE_READY:
  73              		.loc 1 124 0
  74 002a 114A     		ldr	r2, .L14+20
  75 002c 00E0     		b	.L5
  76              	.L11:
 126:rrt0.c        ****   case TASKSTATE_WAITING: pp_q   = &q_waiting_; break;
  77              		.loc 1 126 0
  78 002e 114A     		ldr	r2, .L14+24
  79              	.L5:
  80              	.LVL6:
 131:rrt0.c        ****     return;
 132:rrt0.c        ****   }
 133:rrt0.c        **** 
 134:rrt0.c        ****   if( *pp_q == NULL ) return;
  81              		.loc 1 134 0
  82 0030 1368     		ldr	r3, [r2]
  83 0032 8BB1     		cbz	r3, .L1
 135:rrt0.c        ****   if( *pp_q == p_tcb ) {
  84              		.loc 1 135 0
  85 0034 9842     		cmp	r0, r3
  86 0036 0DD1     		bne	.L9
 136:rrt0.c        ****     *pp_q       = p_tcb->next;
  87              		.loc 1 136 0
  88 0038 0368     		ldr	r3, [r0]
  89 003a 1360     		str	r3, [r2]
 137:rrt0.c        ****     p_tcb->next = NULL;
ARM GAS  C:\Users\164\AppData\Local\Temp\ccs996fP.s 			page 5


  90              		.loc 1 137 0
  91 003c 0023     		movs	r3, #0
  92 003e 0360     		str	r3, [r0]
 138:rrt0.c        ****     return;
  93              		.loc 1 138 0
  94 0040 08BD     		pop	{r3, pc}
  95              	.LVL7:
  96              	.L10:
 139:rrt0.c        ****   }
 140:rrt0.c        **** 
 141:rrt0.c        ****   mrbc_tcb *p = *pp_q;
 142:rrt0.c        ****   while( p ) {
 143:rrt0.c        ****     if( p->next == p_tcb ) {
  97              		.loc 1 143 0
  98 0042 1A68     		ldr	r2, [r3]
  99 0044 9042     		cmp	r0, r2
 100 0046 04D1     		bne	.L12
 144:rrt0.c        ****       p->next     = p_tcb->next;
 101              		.loc 1 144 0
 102 0048 0268     		ldr	r2, [r0]
 103 004a 1A60     		str	r2, [r3]
 145:rrt0.c        ****       p_tcb->next = NULL;
 104              		.loc 1 145 0
 105 004c 0023     		movs	r3, #0
 106              	.LVL8:
 107 004e 0360     		str	r3, [r0]
 146:rrt0.c        ****       return;
 108              		.loc 1 146 0
 109 0050 08BD     		pop	{r3, pc}
 110              	.LVL9:
 111              	.L12:
 147:rrt0.c        ****     }
 148:rrt0.c        **** 
 149:rrt0.c        ****     p = p->next;
 112              		.loc 1 149 0
 113 0052 1346     		mov	r3, r2
 114              	.LVL10:
 115              	.L9:
 142:rrt0.c        ****     if( p->next == p_tcb ) {
 116              		.loc 1 142 0
 117 0054 002B     		cmp	r3, #0
 118 0056 F4D1     		bne	.L10
 119              	.LVL11:
 120              	.L1:
 121 0058 08BD     		pop	{r3, pc}
 122              	.L15:
 123 005a 00BF     		.align	2
 124              	.L14:
 125 005c 08000000 		.word	.LANCHOR0+8
 126 0060 0C000000 		.word	.LANCHOR0+12
 127 0064 00000000 		.word	.LC0
 128 0068 00000000 		.word	.LANCHOR1
 129 006c 18000000 		.word	.LC1
 130 0070 00000000 		.word	.LANCHOR0
 131 0074 04000000 		.word	.LANCHOR0+4
 132              		.cfi_endproc
 133              	.LFE82:
ARM GAS  C:\Users\164\AppData\Local\Temp\ccs996fP.s 			page 6


 134              		.size	q_delete_task, .-q_delete_task
 135              		.section	.text.q_insert_task,"ax",%progbits
 136              		.align	2
 137              		.thumb
 138              		.thumb_func
 139              		.type	q_insert_task, %function
 140              	q_insert_task:
 141              	.LFB81:
  72:rrt0.c        ****   mrbc_tcb **pp_q;
 142              		.loc 1 72 0
 143              		.cfi_startproc
 144              		@ args = 0, pretend = 0, frame = 0
 145              		@ frame_needed = 0, uses_anonymous_args = 0
 146              	.LVL12:
 147 0000 10B5     		push	{r4, lr}
 148              		.cfi_def_cfa_offset 8
 149              		.cfi_offset 4, -8
 150              		.cfi_offset 14, -4
  75:rrt0.c        ****   case TASKSTATE_DORMANT: pp_q   = &q_dormant_; break;
 151              		.loc 1 75 0
 152 0002 C379     		ldrb	r3, [r0, #7]	@ zero_extendqisi2
 153 0004 082B     		cmp	r3, #8
 154 0006 0AD8     		bhi	.L17
 155 0008 DFE803F0 		tbb	[pc, r3]
 156              	.L19:
 157 000c 0F       		.byte	(.L18-.L19)/2
 158 000d 11       		.byte	(.L27-.L19)/2
 159 000e 09       		.byte	(.L17-.L19)/2
 160 000f 11       		.byte	(.L27-.L19)/2
 161 0010 05       		.byte	(.L21-.L19)/2
 162 0011 09       		.byte	(.L17-.L19)/2
 163 0012 09       		.byte	(.L17-.L19)/2
 164 0013 09       		.byte	(.L17-.L19)/2
 165 0014 07       		.byte	(.L22-.L19)/2
 166 0015 00       		.p2align 1
 167              	.L21:
 168              	.LVL13:
  79:rrt0.c        ****   case TASKSTATE_SUSPENDED: pp_q = &q_suspended_; break;
 169              		.loc 1 79 0
 170 0016 174B     		ldr	r3, .L30
 171 0018 0AE0     		b	.L20
 172              	.LVL14:
 173              	.L22:
  80:rrt0.c        ****   default:
 174              		.loc 1 80 0
 175 001a 174B     		ldr	r3, .L30+4
 176 001c 08E0     		b	.L20
 177              	.LVL15:
 178              	.L17:
  82:rrt0.c        ****     return;
 179              		.loc 1 82 0
 180 001e 174B     		ldr	r3, .L30+8
 181 0020 174A     		ldr	r2, .L30+12
 182 0022 5221     		movs	r1, #82
 183 0024 1748     		ldr	r0, .L30+16
 184              	.LVL16:
 185 0026 FFF7FEFF 		bl	__assert_func
ARM GAS  C:\Users\164\AppData\Local\Temp\ccs996fP.s 			page 7


 186              	.LVL17:
 187              	.L18:
  76:rrt0.c        ****   case TASKSTATE_READY:
 188              		.loc 1 76 0
 189 002a 174B     		ldr	r3, .L30+20
 190 002c 00E0     		b	.L20
 191              	.L27:
  78:rrt0.c        ****   case TASKSTATE_WAITING: pp_q   = &q_waiting_; break;
 192              		.loc 1 78 0
 193 002e 174B     		ldr	r3, .L30+24
 194              	.L20:
 195              	.LVL18:
  87:rrt0.c        ****      (p_tcb->priority_preemption < (*pp_q)->priority_preemption)) {
 196              		.loc 1 87 0
 197 0030 1A68     		ldr	r2, [r3]
 198 0032 1AB1     		cbz	r2, .L23
  88:rrt0.c        ****     p_tcb->next = *pp_q;
 199              		.loc 1 88 0 discriminator 1
 200 0034 4479     		ldrb	r4, [r0, #5]	@ zero_extendqisi2
 201 0036 5179     		ldrb	r1, [r2, #5]	@ zero_extendqisi2
  87:rrt0.c        ****      (p_tcb->priority_preemption < (*pp_q)->priority_preemption)) {
 202              		.loc 1 87 0 discriminator 1
 203 0038 8C42     		cmp	r4, r1
 204 003a 0BD2     		bcs	.L24
 205              	.L23:
  89:rrt0.c        ****     *pp_q       = p_tcb;
 206              		.loc 1 89 0
 207 003c 0260     		str	r2, [r0]
  90:rrt0.c        ****     assert(p_tcb->next != p_tcb);
 208              		.loc 1 90 0
 209 003e 1860     		str	r0, [r3]
  91:rrt0.c        ****     return;
 210              		.loc 1 91 0
 211 0040 0368     		ldr	r3, [r0]
 212              	.LVL19:
 213 0042 9842     		cmp	r0, r3
 214 0044 15D1     		bne	.L16
  91:rrt0.c        ****     return;
 215              		.loc 1 91 0 is_stmt 0 discriminator 1
 216 0046 124B     		ldr	r3, .L30+28
 217 0048 0D4A     		ldr	r2, .L30+12
 218 004a 5B21     		movs	r1, #91
 219 004c 0D48     		ldr	r0, .L30+16
 220              	.LVL20:
 221 004e FFF7FEFF 		bl	__assert_func
 222              	.LVL21:
 223              	.L28:
 106:rrt0.c        ****   }
 224              		.loc 1 106 0 is_stmt 1
 225 0052 1A46     		mov	r2, r3
 226              	.LVL22:
 227              	.L24:
  98:rrt0.c        ****        (p_tcb->priority_preemption < p->next->priority_preemption)) {
 228              		.loc 1 98 0
 229 0054 1368     		ldr	r3, [r2]
 230 0056 13B1     		cbz	r3, .L26
  99:rrt0.c        ****       p_tcb->next = p->next;
ARM GAS  C:\Users\164\AppData\Local\Temp\ccs996fP.s 			page 8


 231              		.loc 1 99 0 discriminator 1
 232 0058 5979     		ldrb	r1, [r3, #5]	@ zero_extendqisi2
  98:rrt0.c        ****        (p_tcb->priority_preemption < p->next->priority_preemption)) {
 233              		.loc 1 98 0 discriminator 1
 234 005a 8C42     		cmp	r4, r1
 235 005c F9D2     		bcs	.L28
 236              	.L26:
 100:rrt0.c        ****       p->next     = p_tcb;
 237              		.loc 1 100 0
 238 005e 0360     		str	r3, [r0]
 101:rrt0.c        ****       assert(p->next != p);
 239              		.loc 1 101 0
 240 0060 1060     		str	r0, [r2]
 102:rrt0.c        ****       return;
 241              		.loc 1 102 0
 242 0062 8242     		cmp	r2, r0
 243 0064 05D1     		bne	.L16
 102:rrt0.c        ****       return;
 244              		.loc 1 102 0 is_stmt 0 discriminator 1
 245 0066 0B4B     		ldr	r3, .L30+32
 246 0068 054A     		ldr	r2, .L30+12
 247              	.LVL23:
 248 006a 6621     		movs	r1, #102
 249 006c 0548     		ldr	r0, .L30+16
 250              	.LVL24:
 251 006e FFF7FEFF 		bl	__assert_func
 252              	.LVL25:
 253              	.L16:
 254 0072 10BD     		pop	{r4, pc}
 255              	.L31:
 256              		.align	2
 257              	.L30:
 258 0074 08000000 		.word	.LANCHOR0+8
 259 0078 0C000000 		.word	.LANCHOR0+12
 260 007c 00000000 		.word	.LC0
 261 0080 10000000 		.word	.LANCHOR1+16
 262 0084 18000000 		.word	.LC1
 263 0088 00000000 		.word	.LANCHOR0
 264 008c 04000000 		.word	.LANCHOR0+4
 265 0090 20000000 		.word	.LC2
 266 0094 38000000 		.word	.LC3
 267              		.cfi_endproc
 268              	.LFE81:
 269              		.size	q_insert_task, .-q_insert_task
 270              		.section	.text.c_vm_tick,"ax",%progbits
 271              		.align	2
 272              		.thumb
 273              		.thumb_func
 274              		.type	c_vm_tick, %function
 275              	c_vm_tick:
 276              	.LFB94:
 150:rrt0.c        ****   }
 151:rrt0.c        **** }
 152:rrt0.c        **** 
 153:rrt0.c        **** 
 154:rrt0.c        **** //================================================================
 155:rrt0.c        **** /*! ä¸€å®šæ™‚é–“åœæ­¢ï¼ˆcrubyäº’æ›ï¼‰
ARM GAS  C:\Users\164\AppData\Local\Temp\ccs996fP.s 			page 9


 156:rrt0.c        **** 
 157:rrt0.c        **** */
 158:rrt0.c        **** static void c_sleep(mrbc_vm *vm, mrbc_value v[], int argc)
 159:rrt0.c        **** {
 160:rrt0.c        ****   mrbc_tcb *tcb = VM2TCB(vm);
 161:rrt0.c        **** 
 162:rrt0.c        ****   if( argc == 0 ) {
 163:rrt0.c        ****     mrbc_suspend_task(tcb);
 164:rrt0.c        ****     return;
 165:rrt0.c        ****   }
 166:rrt0.c        **** 
 167:rrt0.c        ****   switch( v[1].tt ) {
 168:rrt0.c        ****   case MRBC_TT_FIXNUM:
 169:rrt0.c        ****     mrbc_sleep_ms(tcb, GET_INT_ARG(1) * 1000);
 170:rrt0.c        ****     break;
 171:rrt0.c        **** 
 172:rrt0.c        **** #if MRBC_USE_FLOAT
 173:rrt0.c        ****   case MRBC_TT_FLOAT:
 174:rrt0.c        ****     mrbc_sleep_ms(tcb, (mrbc_int)(GET_FLOAT_ARG(1) * 1000));
 175:rrt0.c        ****     break;
 176:rrt0.c        **** #endif
 177:rrt0.c        **** 
 178:rrt0.c        ****   default:
 179:rrt0.c        ****     break;
 180:rrt0.c        ****   }
 181:rrt0.c        **** }
 182:rrt0.c        **** 
 183:rrt0.c        **** 
 184:rrt0.c        **** //================================================================
 185:rrt0.c        **** /*! ä¸€å®šæ™‚é–“åœæ­¢ï¼ˆmså˜ä½ï¼‰
 186:rrt0.c        **** 
 187:rrt0.c        **** */
 188:rrt0.c        **** static void c_sleep_ms(mrbc_vm *vm, mrbc_value v[], int argc)
 189:rrt0.c        **** {
 190:rrt0.c        ****   mrbc_tcb *tcb = VM2TCB(vm);
 191:rrt0.c        **** 
 192:rrt0.c        ****   mrbc_sleep_ms(tcb, GET_INT_ARG(1));
 193:rrt0.c        **** }
 194:rrt0.c        **** 
 195:rrt0.c        **** 
 196:rrt0.c        **** //================================================================
 197:rrt0.c        **** /*! å®Ÿè¡Œæ¨©ã‚’æ‰‹æ”¾ã™ (BETA)
 198:rrt0.c        **** 
 199:rrt0.c        **** */
 200:rrt0.c        **** static void c_relinquish(mrbc_vm *vm, mrbc_value v[], int argc)
 201:rrt0.c        **** {
 202:rrt0.c        ****   mrbc_tcb *tcb = VM2TCB(vm);
 203:rrt0.c        **** 
 204:rrt0.c        ****   mrbc_relinquish(tcb);
 205:rrt0.c        **** }
 206:rrt0.c        **** 
 207:rrt0.c        **** 
 208:rrt0.c        **** //================================================================
 209:rrt0.c        **** /*! ãƒ—ãƒ©ã‚¤ã‚ªãƒªãƒ†ã‚£ãƒ¼å¤‰æ›´
 210:rrt0.c        **** 
 211:rrt0.c        **** */
 212:rrt0.c        **** static void c_change_priority(mrbc_vm *vm, mrbc_value v[], int argc)
ARM GAS  C:\Users\164\AppData\Local\Temp\ccs996fP.s 			page 10


 213:rrt0.c        **** {
 214:rrt0.c        ****   mrbc_tcb *tcb = VM2TCB(vm);
 215:rrt0.c        **** 
 216:rrt0.c        ****   mrbc_change_priority(tcb, GET_INT_ARG(1));
 217:rrt0.c        **** }
 218:rrt0.c        **** 
 219:rrt0.c        **** 
 220:rrt0.c        **** //================================================================
 221:rrt0.c        **** /*! å®Ÿè¡Œåœæ­¢ (BETA)
 222:rrt0.c        **** 
 223:rrt0.c        **** */
 224:rrt0.c        **** static void c_suspend_task(mrbc_vm *vm, mrbc_value v[], int argc)
 225:rrt0.c        **** {
 226:rrt0.c        ****   if( argc == 0 ) {
 227:rrt0.c        ****     mrbc_tcb *tcb = VM2TCB(vm);
 228:rrt0.c        ****     mrbc_suspend_task(tcb);	// suspend self.
 229:rrt0.c        ****     return;
 230:rrt0.c        ****   }
 231:rrt0.c        **** 
 232:rrt0.c        ****   if( v[1].tt != MRBC_TT_HANDLE ) return;	// error.
 233:rrt0.c        ****   mrbc_suspend_task( (mrbc_tcb *)(v[1].handle) );
 234:rrt0.c        **** }
 235:rrt0.c        **** 
 236:rrt0.c        **** 
 237:rrt0.c        **** //================================================================
 238:rrt0.c        **** /*! å®Ÿè¡Œå†é–‹ (BETA)
 239:rrt0.c        **** 
 240:rrt0.c        **** */
 241:rrt0.c        **** static void c_resume_task(mrbc_vm *vm, mrbc_value v[], int argc)
 242:rrt0.c        **** {
 243:rrt0.c        ****   if( v[1].tt != MRBC_TT_HANDLE ) return;	// error.
 244:rrt0.c        ****   mrbc_resume_task( (mrbc_tcb *)(v[1].handle) );
 245:rrt0.c        **** }
 246:rrt0.c        **** 
 247:rrt0.c        **** 
 248:rrt0.c        **** //================================================================
 249:rrt0.c        **** /*! TCBã‚’å¾—ã‚‹ (BETA)
 250:rrt0.c        **** 
 251:rrt0.c        **** */
 252:rrt0.c        **** static void c_get_tcb(mrbc_vm *vm, mrbc_value v[], int argc)
 253:rrt0.c        **** {
 254:rrt0.c        ****   mrbc_tcb *tcb = VM2TCB(vm);
 255:rrt0.c        **** 
 256:rrt0.c        ****   mrbc_value value = {.tt = MRBC_TT_HANDLE};
 257:rrt0.c        ****   value.handle = (void*)tcb;
 258:rrt0.c        **** 
 259:rrt0.c        ****   SET_RETURN( value );
 260:rrt0.c        **** }
 261:rrt0.c        **** 
 262:rrt0.c        **** 
 263:rrt0.c        **** //================================================================
 264:rrt0.c        **** /*! mutex constructor method
 265:rrt0.c        **** 
 266:rrt0.c        **** */
 267:rrt0.c        **** static void c_mutex_new(mrbc_vm *vm, mrbc_value v[], int argc)
 268:rrt0.c        **** {
 269:rrt0.c        ****   *v = mrbc_instance_new(vm, v->cls, sizeof(mrbc_mutex));
ARM GAS  C:\Users\164\AppData\Local\Temp\ccs996fP.s 			page 11


 270:rrt0.c        ****   if( !v->instance ) return;
 271:rrt0.c        **** 
 272:rrt0.c        ****   mrbc_mutex_init( (mrbc_mutex *)(v->instance->data) );
 273:rrt0.c        **** }
 274:rrt0.c        **** 
 275:rrt0.c        **** 
 276:rrt0.c        **** //================================================================
 277:rrt0.c        **** /*! mutex lock method
 278:rrt0.c        **** 
 279:rrt0.c        **** */
 280:rrt0.c        **** static void c_mutex_lock(mrbc_vm *vm, mrbc_value v[], int argc)
 281:rrt0.c        **** {
 282:rrt0.c        ****   int r = mrbc_mutex_lock( (mrbc_mutex *)v->instance->data, VM2TCB(vm) );
 283:rrt0.c        ****   if( r == 0 ) return;  // return self
 284:rrt0.c        **** 
 285:rrt0.c        ****   // raise ThreadError
 286:rrt0.c        ****   assert(!"Mutex recursive lock.");
 287:rrt0.c        **** }
 288:rrt0.c        **** 
 289:rrt0.c        **** 
 290:rrt0.c        **** //================================================================
 291:rrt0.c        **** /*! mutex unlock method
 292:rrt0.c        **** 
 293:rrt0.c        **** */
 294:rrt0.c        **** static void c_mutex_unlock(mrbc_vm *vm, mrbc_value v[], int argc)
 295:rrt0.c        **** {
 296:rrt0.c        ****   int r = mrbc_mutex_unlock( (mrbc_mutex *)v->instance->data, VM2TCB(vm) );
 297:rrt0.c        ****   if( r == 0 ) return;  // return self
 298:rrt0.c        **** 
 299:rrt0.c        ****   // raise ThreadError
 300:rrt0.c        ****   assert(!"Mutex unlock error. not owner or not locked.");
 301:rrt0.c        **** }
 302:rrt0.c        **** 
 303:rrt0.c        **** 
 304:rrt0.c        **** //================================================================
 305:rrt0.c        **** /*! mutex trylock method
 306:rrt0.c        **** 
 307:rrt0.c        **** */
 308:rrt0.c        **** static void c_mutex_trylock(mrbc_vm *vm, mrbc_value v[], int argc)
 309:rrt0.c        **** {
 310:rrt0.c        ****   int r = mrbc_mutex_trylock( (mrbc_mutex *)v->instance->data, VM2TCB(vm) );
 311:rrt0.c        ****   if( r == 0 ) {
 312:rrt0.c        ****     SET_TRUE_RETURN();
 313:rrt0.c        ****   } else {
 314:rrt0.c        ****     SET_FALSE_RETURN();
 315:rrt0.c        ****   }
 316:rrt0.c        **** }
 317:rrt0.c        **** 
 318:rrt0.c        **** 
 319:rrt0.c        **** //================================================================
 320:rrt0.c        **** /*! vm tick
 321:rrt0.c        **** */
 322:rrt0.c        **** static void c_vm_tick(mrbc_vm *vm, mrbc_value v[], int argc)
 323:rrt0.c        **** {
 277              		.loc 1 323 0 is_stmt 1
 278              		.cfi_startproc
 279              		@ args = 0, pretend = 0, frame = 0
ARM GAS  C:\Users\164\AppData\Local\Temp\ccs996fP.s 			page 12


 280              		@ frame_needed = 0, uses_anonymous_args = 0
 281              	.LVL26:
 282 0000 38B5     		push	{r3, r4, r5, lr}
 283              		.cfi_def_cfa_offset 16
 284              		.cfi_offset 3, -16
 285              		.cfi_offset 4, -12
 286              		.cfi_offset 5, -8
 287              		.cfi_offset 14, -4
 288 0002 0C46     		mov	r4, r1
 289              	.LBB2:
 324:rrt0.c        ****   SET_INT_RETURN(tick_);
 290              		.loc 1 324 0
 291 0004 044B     		ldr	r3, .L34
 292 0006 1D69     		ldr	r5, [r3, #16]
 293              	.LVL27:
 294 0008 0846     		mov	r0, r1
 295              	.LVL28:
 296 000a FFF7FEFF 		bl	mrbc_dec_ref_counter
 297              	.LVL29:
 298 000e 0423     		movs	r3, #4
 299 0010 2370     		strb	r3, [r4]
 300 0012 A560     		str	r5, [r4, #8]
 301 0014 38BD     		pop	{r3, r4, r5, pc}
 302              	.LVL30:
 303              	.L35:
 304 0016 00BF     		.align	2
 305              	.L34:
 306 0018 00000000 		.word	.LANCHOR0
 307              	.LBE2:
 308              		.cfi_endproc
 309              	.LFE94:
 310              		.size	c_vm_tick, .-c_vm_tick
 311              		.section	.text.c_get_tcb,"ax",%progbits
 312              		.align	2
 313              		.thumb
 314              		.thumb_func
 315              		.type	c_get_tcb, %function
 316              	c_get_tcb:
 317              	.LFB89:
 253:rrt0.c        ****   mrbc_tcb *tcb = VM2TCB(vm);
 318              		.loc 1 253 0
 319              		.cfi_startproc
 320              		@ args = 0, pretend = 0, frame = 32
 321              		@ frame_needed = 0, uses_anonymous_args = 0
 322              	.LVL31:
 323 0000 30B5     		push	{r4, r5, lr}
 324              		.cfi_def_cfa_offset 12
 325              		.cfi_offset 4, -12
 326              		.cfi_offset 5, -8
 327              		.cfi_offset 14, -4
 328 0002 89B0     		sub	sp, sp, #36
 329              		.cfi_def_cfa_offset 48
 330 0004 0D46     		mov	r5, r1
 254:rrt0.c        **** 
 331              		.loc 1 254 0
 332 0006 1038     		subs	r0, r0, #16
 333              	.LVL32:
ARM GAS  C:\Users\164\AppData\Local\Temp\ccs996fP.s 			page 13


 256:rrt0.c        ****   value.handle = (void*)tcb;
 334              		.loc 1 256 0
 335 0008 04AB     		add	r3, sp, #16
 336 000a 0022     		movs	r2, #0
 337              	.LVL33:
 338 000c 0492     		str	r2, [sp, #16]
 339 000e 0592     		str	r2, [sp, #20]
 340 0010 0792     		str	r2, [sp, #28]
 341 0012 FF22     		movs	r2, #255
 342 0014 8DF81020 		strb	r2, [sp, #16]
 257:rrt0.c        **** 
 343              		.loc 1 257 0
 344 0018 0690     		str	r0, [sp, #24]
 345              	.LBB3:
 259:rrt0.c        **** }
 346              		.loc 1 259 0
 347 001a 0FCB     		ldmia	r3, {r0, r1, r2, r3}
 348              	.LVL34:
 349 001c 8DE80F00 		stmia	sp, {r0, r1, r2, r3}
 350 0020 2846     		mov	r0, r5
 351 0022 FFF7FEFF 		bl	mrbc_dec_ref_counter
 352              	.LVL35:
 353 0026 9DE80F00 		ldmia	sp, {r0, r1, r2, r3}
 354 002a 85E80F00 		stmia	r5, {r0, r1, r2, r3}
 355              	.LBE3:
 260:rrt0.c        **** 
 356              		.loc 1 260 0
 357 002e 09B0     		add	sp, sp, #36
 358              		.cfi_def_cfa_offset 12
 359              		@ sp needed
 360 0030 30BD     		pop	{r4, r5, pc}
 361              		.cfi_endproc
 362              	.LFE89:
 363              		.size	c_get_tcb, .-c_get_tcb
 364 0032 00BF     		.section	.text.mrbc_tick,"ax",%progbits
 365              		.align	2
 366              		.global	mrbc_tick
 367              		.thumb
 368              		.thumb_func
 369              		.type	mrbc_tick, %function
 370              	mrbc_tick:
 371              	.LFB95:
 325:rrt0.c        **** }
 326:rrt0.c        **** 
 327:rrt0.c        **** 
 328:rrt0.c        **** 
 329:rrt0.c        **** /***** Global functions *****************************************************/
 330:rrt0.c        **** 
 331:rrt0.c        **** //================================================================
 332:rrt0.c        **** /*! Tick timer interrupt handler.
 333:rrt0.c        **** 
 334:rrt0.c        **** */
 335:rrt0.c        **** void mrbc_tick(void)
 336:rrt0.c        **** {
 372              		.loc 1 336 0
 373              		.cfi_startproc
 374              		@ args = 0, pretend = 0, frame = 0
ARM GAS  C:\Users\164\AppData\Local\Temp\ccs996fP.s 			page 14


 375              		@ frame_needed = 0, uses_anonymous_args = 0
 376 0000 70B5     		push	{r4, r5, r6, lr}
 377              		.cfi_def_cfa_offset 16
 378              		.cfi_offset 4, -16
 379              		.cfi_offset 5, -12
 380              		.cfi_offset 6, -8
 381              		.cfi_offset 14, -4
 382              	.LVL36:
 337:rrt0.c        ****   mrbc_tcb *tcb;
 338:rrt0.c        ****   int flag_preemption = 0;
 339:rrt0.c        **** 
 340:rrt0.c        ****   tick_++;
 383              		.loc 1 340 0
 384 0002 1D4B     		ldr	r3, .L48
 385 0004 1A69     		ldr	r2, [r3, #16]
 386 0006 0132     		adds	r2, r2, #1
 387 0008 1A61     		str	r2, [r3, #16]
 341:rrt0.c        **** 
 342:rrt0.c        ****   // å®Ÿè¡Œä¸­ã‚¿ã‚¹ã‚¯ã®ã‚¿ã‚¤ãƒ ã‚¹ãƒ©ã‚¤ã‚¹å€¤ã‚’æ¸›ã‚‰ã™
 343:rrt0.c        ****   tcb = q_ready_;
 388              		.loc 1 343 0
 389 000a 5B68     		ldr	r3, [r3, #4]
 390              	.LVL37:
 344:rrt0.c        ****   if((tcb != NULL) &&
 391              		.loc 1 344 0
 392 000c 5BB1     		cbz	r3, .L39
 345:rrt0.c        ****      (tcb->state == TASKSTATE_RUNNING) &&
 393              		.loc 1 345 0 discriminator 1
 394 000e DA79     		ldrb	r2, [r3, #7]	@ zero_extendqisi2
 344:rrt0.c        ****   if((tcb != NULL) &&
 395              		.loc 1 344 0 discriminator 1
 396 0010 032A     		cmp	r2, #3
 397 0012 08D1     		bne	.L39
 346:rrt0.c        ****      (tcb->timeslice > 0)) {
 398              		.loc 1 346 0
 399 0014 9A79     		ldrb	r2, [r3, #6]	@ zero_extendqisi2
 345:rrt0.c        ****      (tcb->state == TASKSTATE_RUNNING) &&
 400              		.loc 1 345 0
 401 0016 32B1     		cbz	r2, .L39
 347:rrt0.c        ****     tcb->timeslice--;
 402              		.loc 1 347 0
 403 0018 013A     		subs	r2, r2, #1
 404 001a D2B2     		uxtb	r2, r2
 405 001c 9A71     		strb	r2, [r3, #6]
 348:rrt0.c        ****     if( tcb->timeslice == 0 ) tcb->vm.flag_preemption = 1;
 406              		.loc 1 348 0
 407 001e 12B9     		cbnz	r2, .L39
 408              		.loc 1 348 0 is_stmt 0 discriminator 1
 409 0020 0122     		movs	r2, #1
 410 0022 83F87826 		strb	r2, [r3, #1656]
 411              	.L39:
 349:rrt0.c        ****   }
 350:rrt0.c        **** 
 351:rrt0.c        ****   // å¾…ã¡ã‚¿ã‚¹ã‚¯ã‚­ãƒ¥ãƒ¼ã‹ã‚‰ã€ã‚¦ã‚§ã‚¤ã‚¯ã‚¢ãƒƒãƒ—ã™ã¹ãã‚¿ã‚¹ã‚¯ã‚’æŽ¢ã™
 352:rrt0.c        ****   tcb = q_waiting_;
 412              		.loc 1 352 0 is_stmt 1
 413 0026 144B     		ldr	r3, .L48
ARM GAS  C:\Users\164\AppData\Local\Temp\ccs996fP.s 			page 15


 414              	.LVL38:
 415 0028 9C68     		ldr	r4, [r3, #8]
 416              	.LVL39:
 338:rrt0.c        **** 
 417              		.loc 1 338 0
 418 002a 0021     		movs	r1, #0
 353:rrt0.c        ****   while( tcb != NULL ) {
 419              		.loc 1 353 0
 420 002c 13E0     		b	.L40
 421              	.LVL40:
 422              	.L42:
 423              	.LBB4:
 354:rrt0.c        ****     mrbc_tcb *t = tcb;
 355:rrt0.c        ****     tcb = tcb->next;
 424              		.loc 1 355 0
 425 002e 2568     		ldr	r5, [r4]
 426              	.LVL41:
 356:rrt0.c        **** 
 357:rrt0.c        ****     if( t->reason == TASKREASON_SLEEP && t->wakeup_tick == tick_ ) {
 427              		.loc 1 357 0
 428 0030 237A     		ldrb	r3, [r4, #8]	@ zero_extendqisi2
 429 0032 7BB9     		cbnz	r3, .L41
 430              		.loc 1 357 0 is_stmt 0 discriminator 1
 431 0034 E268     		ldr	r2, [r4, #12]
 432 0036 104B     		ldr	r3, .L48
 433 0038 1B69     		ldr	r3, [r3, #16]
 434 003a 9A42     		cmp	r2, r3
 435 003c 0AD1     		bne	.L41
 358:rrt0.c        ****       q_delete_task(t);
 436              		.loc 1 358 0 is_stmt 1
 437 003e 2046     		mov	r0, r4
 438 0040 FFF7FEFF 		bl	q_delete_task
 439              	.LVL42:
 359:rrt0.c        ****       t->state     = TASKSTATE_READY;
 440              		.loc 1 359 0
 441 0044 0126     		movs	r6, #1
 442 0046 E671     		strb	r6, [r4, #7]
 360:rrt0.c        ****       t->timeslice = TIMESLICE_TICK;
 443              		.loc 1 360 0
 444 0048 0A23     		movs	r3, #10
 445 004a A371     		strb	r3, [r4, #6]
 361:rrt0.c        ****       q_insert_task(t);
 446              		.loc 1 361 0
 447 004c 2046     		mov	r0, r4
 448 004e FFF7FEFF 		bl	q_insert_task
 449              	.LVL43:
 362:rrt0.c        ****       flag_preemption = 1;
 450              		.loc 1 362 0
 451 0052 3146     		mov	r1, r6
 452              	.LVL44:
 453              	.L41:
 454 0054 2C46     		mov	r4, r5
 455              	.LVL45:
 456              	.L40:
 457              	.LBE4:
 353:rrt0.c        ****     mrbc_tcb *t = tcb;
 458              		.loc 1 353 0
ARM GAS  C:\Users\164\AppData\Local\Temp\ccs996fP.s 			page 16


 459 0056 002C     		cmp	r4, #0
 460 0058 E9D1     		bne	.L42
 363:rrt0.c        ****     }
 364:rrt0.c        ****   }
 365:rrt0.c        **** 
 366:rrt0.c        ****   if( flag_preemption ) {
 461              		.loc 1 366 0
 462 005a 59B1     		cbz	r1, .L38
 367:rrt0.c        ****     tcb = q_ready_;
 463              		.loc 1 367 0
 464 005c 064B     		ldr	r3, .L48
 465 005e 5B68     		ldr	r3, [r3, #4]
 466              	.LVL46:
 368:rrt0.c        ****     while( tcb != NULL ) {
 467              		.loc 1 368 0
 468 0060 06E0     		b	.L44
 469              	.L46:
 369:rrt0.c        ****       if( tcb->state == TASKSTATE_RUNNING ) tcb->vm.flag_preemption = 1;
 470              		.loc 1 369 0
 471 0062 DA79     		ldrb	r2, [r3, #7]	@ zero_extendqisi2
 472 0064 032A     		cmp	r2, #3
 473 0066 02D1     		bne	.L45
 474              		.loc 1 369 0 is_stmt 0 discriminator 1
 475 0068 0122     		movs	r2, #1
 476 006a 83F87826 		strb	r2, [r3, #1656]
 477              	.L45:
 370:rrt0.c        ****       tcb = tcb->next;
 478              		.loc 1 370 0 is_stmt 1
 479 006e 1B68     		ldr	r3, [r3]
 480              	.LVL47:
 481              	.L44:
 368:rrt0.c        ****     while( tcb != NULL ) {
 482              		.loc 1 368 0
 483 0070 002B     		cmp	r3, #0
 484 0072 F6D1     		bne	.L46
 485              	.LVL48:
 486              	.L38:
 487 0074 70BD     		pop	{r4, r5, r6, pc}
 488              	.L49:
 489 0076 00BF     		.align	2
 490              	.L48:
 491 0078 00000000 		.word	.LANCHOR0
 492              		.cfi_endproc
 493              	.LFE95:
 494              		.size	mrbc_tick, .-mrbc_tick
 495              		.section	.text.mrbc_init,"ax",%progbits
 496              		.align	2
 497              		.global	mrbc_init
 498              		.thumb
 499              		.thumb_func
 500              		.type	mrbc_init, %function
 501              	mrbc_init:
 502              	.LFB96:
 371:rrt0.c        ****     }
 372:rrt0.c        ****   }
 373:rrt0.c        **** }
 374:rrt0.c        **** 
ARM GAS  C:\Users\164\AppData\Local\Temp\ccs996fP.s 			page 17


 375:rrt0.c        **** 
 376:rrt0.c        **** 
 377:rrt0.c        **** //================================================================
 378:rrt0.c        **** /*! initialize
 379:rrt0.c        **** 
 380:rrt0.c        **** */
 381:rrt0.c        **** void mrbc_init(uint8_t *ptr, unsigned int size )
 382:rrt0.c        **** {
 503              		.loc 1 382 0
 504              		.cfi_startproc
 505              		@ args = 0, pretend = 0, frame = 0
 506              		@ frame_needed = 0, uses_anonymous_args = 0
 507              	.LVL49:
 508 0000 38B5     		push	{r3, r4, r5, lr}
 509              		.cfi_def_cfa_offset 16
 510              		.cfi_offset 3, -16
 511              		.cfi_offset 4, -12
 512              		.cfi_offset 5, -8
 513              		.cfi_offset 14, -4
 383:rrt0.c        ****   mrbc_init_alloc(ptr, size);
 514              		.loc 1 383 0
 515 0002 FFF7FEFF 		bl	mrbc_init_alloc
 516              	.LVL50:
 384:rrt0.c        ****   init_static();
 517              		.loc 1 384 0
 518 0006 FFF7FEFF 		bl	init_static
 519              	.LVL51:
 385:rrt0.c        ****   hal_init();
 386:rrt0.c        **** 
 387:rrt0.c        **** 
 388:rrt0.c        ****   // TODO é–¢æ•°å‘¼ã³å‡ºã—ãŒã€c_XXX => mrbc_XXX ã® daisy chain ã«ãªã£ã¦ã„ã‚‹ã€‚
 389:rrt0.c        ****   //      ä¸è¦ãªè¤‡é›‘ã•ã‹ã‚‚ã—ã‚Œãªã„ã€‚è¦ãƒªãƒ•ã‚¡ã‚¯ã‚¿ãƒªãƒ³ã‚°ã€‚
 390:rrt0.c        ****   mrbc_define_method(0, mrbc_class_object, "sleep",           c_sleep);
 520              		.loc 1 390 0
 521 000a 2A4C     		ldr	r4, .L52
 522 000c 2A4B     		ldr	r3, .L52+4
 523 000e 2B4A     		ldr	r2, .L52+8
 524 0010 2168     		ldr	r1, [r4]
 525 0012 0020     		movs	r0, #0
 526 0014 FFF7FEFF 		bl	mrbc_define_method
 527              	.LVL52:
 391:rrt0.c        ****   mrbc_define_method(0, mrbc_class_object, "sleep_ms",        c_sleep_ms);
 528              		.loc 1 391 0
 529 0018 294B     		ldr	r3, .L52+12
 530 001a 2A4A     		ldr	r2, .L52+16
 531 001c 2168     		ldr	r1, [r4]
 532 001e 0020     		movs	r0, #0
 533 0020 FFF7FEFF 		bl	mrbc_define_method
 534              	.LVL53:
 392:rrt0.c        ****   mrbc_define_method(0, mrbc_class_object, "relinquish",      c_relinquish);
 535              		.loc 1 392 0
 536 0024 284B     		ldr	r3, .L52+20
 537 0026 294A     		ldr	r2, .L52+24
 538 0028 2168     		ldr	r1, [r4]
 539 002a 0020     		movs	r0, #0
 540 002c FFF7FEFF 		bl	mrbc_define_method
 541              	.LVL54:
ARM GAS  C:\Users\164\AppData\Local\Temp\ccs996fP.s 			page 18


 393:rrt0.c        ****   mrbc_define_method(0, mrbc_class_object, "change_priority", c_change_priority);
 542              		.loc 1 393 0
 543 0030 274B     		ldr	r3, .L52+28
 544 0032 284A     		ldr	r2, .L52+32
 545 0034 2168     		ldr	r1, [r4]
 546 0036 0020     		movs	r0, #0
 547 0038 FFF7FEFF 		bl	mrbc_define_method
 548              	.LVL55:
 394:rrt0.c        ****   mrbc_define_method(0, mrbc_class_object, "suspend_task",    c_suspend_task);
 549              		.loc 1 394 0
 550 003c 264B     		ldr	r3, .L52+36
 551 003e 274A     		ldr	r2, .L52+40
 552 0040 2168     		ldr	r1, [r4]
 553 0042 0020     		movs	r0, #0
 554 0044 FFF7FEFF 		bl	mrbc_define_method
 555              	.LVL56:
 395:rrt0.c        ****   mrbc_define_method(0, mrbc_class_object, "resume_task",     c_resume_task);
 556              		.loc 1 395 0
 557 0048 254B     		ldr	r3, .L52+44
 558 004a 264A     		ldr	r2, .L52+48
 559 004c 2168     		ldr	r1, [r4]
 560 004e 0020     		movs	r0, #0
 561 0050 FFF7FEFF 		bl	mrbc_define_method
 562              	.LVL57:
 396:rrt0.c        ****   mrbc_define_method(0, mrbc_class_object, "get_tcb",	      c_get_tcb);
 563              		.loc 1 396 0
 564 0054 244B     		ldr	r3, .L52+52
 565 0056 254A     		ldr	r2, .L52+56
 566 0058 2168     		ldr	r1, [r4]
 567 005a 0020     		movs	r0, #0
 568 005c FFF7FEFF 		bl	mrbc_define_method
 569              	.LVL58:
 397:rrt0.c        **** 
 398:rrt0.c        **** 
 399:rrt0.c        ****   mrbc_class *c_mutex;
 400:rrt0.c        ****   c_mutex = mrbc_define_class(0, "Mutex", mrbc_class_object);
 570              		.loc 1 400 0
 571 0060 2268     		ldr	r2, [r4]
 572 0062 2349     		ldr	r1, .L52+60
 573 0064 0020     		movs	r0, #0
 574 0066 FFF7FEFF 		bl	mrbc_define_class
 575              	.LVL59:
 576 006a 0546     		mov	r5, r0
 577              	.LVL60:
 401:rrt0.c        ****   mrbc_define_method(0, c_mutex, "new", c_mutex_new);
 578              		.loc 1 401 0
 579 006c 214B     		ldr	r3, .L52+64
 580 006e 224A     		ldr	r2, .L52+68
 581 0070 0146     		mov	r1, r0
 582 0072 0020     		movs	r0, #0
 583              	.LVL61:
 584 0074 FFF7FEFF 		bl	mrbc_define_method
 585              	.LVL62:
 402:rrt0.c        ****   mrbc_define_method(0, c_mutex, "lock", c_mutex_lock);
 586              		.loc 1 402 0
 587 0078 204B     		ldr	r3, .L52+72
 588 007a 214A     		ldr	r2, .L52+76
ARM GAS  C:\Users\164\AppData\Local\Temp\ccs996fP.s 			page 19


 589 007c 2946     		mov	r1, r5
 590 007e 0020     		movs	r0, #0
 591 0080 FFF7FEFF 		bl	mrbc_define_method
 592              	.LVL63:
 403:rrt0.c        ****   mrbc_define_method(0, c_mutex, "unlock", c_mutex_unlock);
 593              		.loc 1 403 0
 594 0084 1F4B     		ldr	r3, .L52+80
 595 0086 204A     		ldr	r2, .L52+84
 596 0088 2946     		mov	r1, r5
 597 008a 0020     		movs	r0, #0
 598 008c FFF7FEFF 		bl	mrbc_define_method
 599              	.LVL64:
 404:rrt0.c        ****   mrbc_define_method(0, c_mutex, "try_lock", c_mutex_trylock);
 600              		.loc 1 404 0
 601 0090 1E4B     		ldr	r3, .L52+88
 602 0092 1F4A     		ldr	r2, .L52+92
 603 0094 2946     		mov	r1, r5
 604 0096 0020     		movs	r0, #0
 605 0098 FFF7FEFF 		bl	mrbc_define_method
 606              	.LVL65:
 405:rrt0.c        **** 
 406:rrt0.c        ****   mrbc_class *c_vm;
 407:rrt0.c        ****   c_vm = mrbc_define_class(0, "VM", mrbc_class_object);
 607              		.loc 1 407 0
 608 009c 2268     		ldr	r2, [r4]
 609 009e 1D49     		ldr	r1, .L52+96
 610 00a0 0020     		movs	r0, #0
 611 00a2 FFF7FEFF 		bl	mrbc_define_class
 612              	.LVL66:
 408:rrt0.c        ****   mrbc_define_method(0, c_vm, "tick", c_vm_tick);
 613              		.loc 1 408 0
 614 00a6 1C4B     		ldr	r3, .L52+100
 615 00a8 1C4A     		ldr	r2, .L52+104
 616 00aa 0146     		mov	r1, r0
 617 00ac 0020     		movs	r0, #0
 618              	.LVL67:
 619 00ae FFF7FEFF 		bl	mrbc_define_method
 620              	.LVL68:
 621 00b2 38BD     		pop	{r3, r4, r5, pc}
 622              	.LVL69:
 623              	.L53:
 624              		.align	2
 625              	.L52:
 626 00b4 00000000 		.word	mrbc_class_object
 627 00b8 00000000 		.word	c_sleep
 628 00bc 48000000 		.word	.LC4
 629 00c0 00000000 		.word	c_sleep_ms
 630 00c4 50000000 		.word	.LC5
 631 00c8 00000000 		.word	c_relinquish
 632 00cc 5C000000 		.word	.LC6
 633 00d0 00000000 		.word	c_change_priority
 634 00d4 68000000 		.word	.LC7
 635 00d8 00000000 		.word	c_suspend_task
 636 00dc 78000000 		.word	.LC8
 637 00e0 00000000 		.word	c_resume_task
 638 00e4 88000000 		.word	.LC9
 639 00e8 00000000 		.word	c_get_tcb
ARM GAS  C:\Users\164\AppData\Local\Temp\ccs996fP.s 			page 20


 640 00ec 94000000 		.word	.LC10
 641 00f0 9C000000 		.word	.LC11
 642 00f4 00000000 		.word	c_mutex_new
 643 00f8 A4000000 		.word	.LC12
 644 00fc 00000000 		.word	c_mutex_lock
 645 0100 A8000000 		.word	.LC13
 646 0104 00000000 		.word	c_mutex_unlock
 647 0108 B0000000 		.word	.LC14
 648 010c 00000000 		.word	c_mutex_trylock
 649 0110 B8000000 		.word	.LC15
 650 0114 C4000000 		.word	.LC16
 651 0118 00000000 		.word	c_vm_tick
 652 011c C8000000 		.word	.LC17
 653              		.cfi_endproc
 654              	.LFE96:
 655              		.size	mrbc_init, .-mrbc_init
 656              		.section	.text.mrbc_init_tcb,"ax",%progbits
 657              		.align	2
 658              		.global	mrbc_init_tcb
 659              		.thumb
 660              		.thumb_func
 661              		.type	mrbc_init_tcb, %function
 662              	mrbc_init_tcb:
 663              	.LFB97:
 409:rrt0.c        **** }
 410:rrt0.c        **** 
 411:rrt0.c        **** 
 412:rrt0.c        **** //================================================================
 413:rrt0.c        **** /*! dinamic initializer of mrbc_tcb
 414:rrt0.c        **** 
 415:rrt0.c        **** */
 416:rrt0.c        **** void mrbc_init_tcb(mrbc_tcb *tcb)
 417:rrt0.c        **** {
 664              		.loc 1 417 0
 665              		.cfi_startproc
 666              		@ args = 0, pretend = 0, frame = 0
 667              		@ frame_needed = 0, uses_anonymous_args = 0
 668              	.LVL70:
 669 0000 10B5     		push	{r4, lr}
 670              		.cfi_def_cfa_offset 8
 671              		.cfi_offset 4, -8
 672              		.cfi_offset 14, -4
 673 0002 0446     		mov	r4, r0
 418:rrt0.c        ****   memset(tcb, 0, sizeof(mrbc_tcb));
 674              		.loc 1 418 0
 675 0004 4FF4D062 		mov	r2, #1664
 676 0008 0021     		movs	r1, #0
 677 000a FFF7FEFF 		bl	memset
 678              	.LVL71:
 419:rrt0.c        ****   tcb->priority = 128;
 679              		.loc 1 419 0
 680 000e 8023     		movs	r3, #128
 681 0010 2371     		strb	r3, [r4, #4]
 420:rrt0.c        ****   tcb->priority_preemption = 128;
 682              		.loc 1 420 0
 683 0012 6371     		strb	r3, [r4, #5]
 421:rrt0.c        ****   tcb->state = TASKSTATE_READY;
ARM GAS  C:\Users\164\AppData\Local\Temp\ccs996fP.s 			page 21


 684              		.loc 1 421 0
 685 0014 0123     		movs	r3, #1
 686 0016 E371     		strb	r3, [r4, #7]
 687 0018 10BD     		pop	{r4, pc}
 688              		.cfi_endproc
 689              	.LFE97:
 690              		.size	mrbc_init_tcb, .-mrbc_init_tcb
 691 001a 00BF     		.section	.text.mrbc_create_task,"ax",%progbits
 692              		.align	2
 693              		.global	mrbc_create_task
 694              		.thumb
 695              		.thumb_func
 696              		.type	mrbc_create_task, %function
 697              	mrbc_create_task:
 698              	.LFB98:
 422:rrt0.c        **** }
 423:rrt0.c        **** 
 424:rrt0.c        **** 
 425:rrt0.c        **** //================================================================
 426:rrt0.c        **** /*! specify running VM code.
 427:rrt0.c        **** 
 428:rrt0.c        ****   @param        vm_code pointer of VM byte code.
 429:rrt0.c        ****   @param        tcb	Task control block with parameter, or NULL.
 430:rrt0.c        ****   @retval       Pointer of mrbc_tcb.
 431:rrt0.c        ****   @retval       NULL is error.
 432:rrt0.c        **** 
 433:rrt0.c        **** */
 434:rrt0.c        **** mrbc_tcb* mrbc_create_task(const uint8_t *vm_code, mrbc_tcb *tcb)
 435:rrt0.c        **** {
 699              		.loc 1 435 0
 700              		.cfi_startproc
 701              		@ args = 0, pretend = 0, frame = 0
 702              		@ frame_needed = 0, uses_anonymous_args = 0
 703              	.LVL72:
 704 0000 70B5     		push	{r4, r5, r6, lr}
 705              		.cfi_def_cfa_offset 16
 706              		.cfi_offset 4, -16
 707              		.cfi_offset 5, -12
 708              		.cfi_offset 6, -8
 709              		.cfi_offset 14, -4
 710 0002 0646     		mov	r6, r0
 436:rrt0.c        ****   // allocate Task Control Block
 437:rrt0.c        ****   if( tcb == NULL ) {
 711              		.loc 1 437 0
 712 0004 0C46     		mov	r4, r1
 713 0006 39B9     		cbnz	r1, .L57
 438:rrt0.c        ****     tcb = (mrbc_tcb*)mrbc_raw_alloc( sizeof(mrbc_tcb) );
 714              		.loc 1 438 0
 715 0008 4FF4D060 		mov	r0, #1664
 716              	.LVL73:
 717 000c FFF7FEFF 		bl	mrbc_raw_alloc
 718              	.LVL74:
 439:rrt0.c        ****     if( tcb == NULL ) return NULL;	// ENOMEM
 719              		.loc 1 439 0
 720 0010 0446     		mov	r4, r0
 721 0012 48B3     		cbz	r0, .L62
 440:rrt0.c        **** 
ARM GAS  C:\Users\164\AppData\Local\Temp\ccs996fP.s 			page 22


 441:rrt0.c        ****     mrbc_init_tcb( tcb );
 722              		.loc 1 441 0
 723 0014 FFF7FEFF 		bl	mrbc_init_tcb
 724              	.LVL75:
 725              	.L57:
 442:rrt0.c        ****   }
 443:rrt0.c        ****   tcb->timeslice           = TIMESLICE_TICK;
 726              		.loc 1 443 0
 727 0018 0A23     		movs	r3, #10
 728 001a A371     		strb	r3, [r4, #6]
 444:rrt0.c        ****   tcb->priority_preemption = tcb->priority;
 729              		.loc 1 444 0
 730 001c 2379     		ldrb	r3, [r4, #4]	@ zero_extendqisi2
 731 001e 6371     		strb	r3, [r4, #5]
 445:rrt0.c        **** 
 446:rrt0.c        ****   // assign VM ID
 447:rrt0.c        ****   if( mrbc_vm_open( &tcb->vm ) == NULL ) {
 732              		.loc 1 447 0
 733 0020 04F11005 		add	r5, r4, #16
 734 0024 2846     		mov	r0, r5
 735 0026 FFF7FEFF 		bl	mrbc_vm_open
 736              	.LVL76:
 737 002a 20B9     		cbnz	r0, .L59
 448:rrt0.c        ****     console_printf("Error: Can't assign VM-ID.\n");
 738              		.loc 1 448 0
 739 002c 0F48     		ldr	r0, .L64
 740 002e FFF7FEFF 		bl	console_printf
 741              	.LVL77:
 449:rrt0.c        ****     return NULL;
 742              		.loc 1 449 0
 743 0032 0020     		movs	r0, #0
 744 0034 70BD     		pop	{r4, r5, r6, pc}
 745              	.LVL78:
 746              	.L59:
 450:rrt0.c        ****   }
 451:rrt0.c        **** 
 452:rrt0.c        ****   if( mrbc_load_mrb(&tcb->vm, vm_code) != 0 ) {
 747              		.loc 1 452 0
 748 0036 3146     		mov	r1, r6
 749 0038 2846     		mov	r0, r5
 750 003a FFF7FEFF 		bl	mrbc_load_mrb
 751              	.LVL79:
 752 003e 38B1     		cbz	r0, .L60
 453:rrt0.c        ****     console_printf("Error: Illegal bytecode.\n");
 753              		.loc 1 453 0
 754 0040 0B48     		ldr	r0, .L64+4
 755 0042 FFF7FEFF 		bl	console_printf
 756              	.LVL80:
 454:rrt0.c        ****     mrbc_vm_close( &tcb->vm );
 757              		.loc 1 454 0
 758 0046 2846     		mov	r0, r5
 759 0048 FFF7FEFF 		bl	mrbc_vm_close
 760              	.LVL81:
 455:rrt0.c        ****     return NULL;
 761              		.loc 1 455 0
 762 004c 0020     		movs	r0, #0
 763 004e 70BD     		pop	{r4, r5, r6, pc}
ARM GAS  C:\Users\164\AppData\Local\Temp\ccs996fP.s 			page 23


 764              	.LVL82:
 765              	.L60:
 456:rrt0.c        ****   }
 457:rrt0.c        ****   if( tcb->state != TASKSTATE_DORMANT ) {
 766              		.loc 1 457 0
 767 0050 E379     		ldrb	r3, [r4, #7]	@ zero_extendqisi2
 768 0052 13B1     		cbz	r3, .L61
 458:rrt0.c        ****     mrbc_vm_begin( &tcb->vm );
 769              		.loc 1 458 0
 770 0054 2846     		mov	r0, r5
 771 0056 FFF7FEFF 		bl	mrbc_vm_begin
 772              	.LVL83:
 773              	.L61:
 459:rrt0.c        ****   }
 460:rrt0.c        **** 
 461:rrt0.c        ****   hal_disable_irq();
 774              		.loc 1 461 0
 775              		.syntax unified
 776              	@ 461 "rrt0.c" 1
 777 005a 72B6     		CPSID   i
 778              	@ 0 "" 2
 462:rrt0.c        ****   q_insert_task(tcb);
 779              		.loc 1 462 0
 780              		.thumb
 781              		.syntax unified
 782 005c 2046     		mov	r0, r4
 783 005e FFF7FEFF 		bl	q_insert_task
 784              	.LVL84:
 463:rrt0.c        ****   hal_enable_irq();
 785              		.loc 1 463 0
 786              		.syntax unified
 787              	@ 463 "rrt0.c" 1
 788 0062 62B6     		CPSIE   i
 789              	@ 0 "" 2
 464:rrt0.c        **** 
 465:rrt0.c        ****   return tcb;
 790              		.loc 1 465 0
 791              		.thumb
 792              		.syntax unified
 793 0064 2046     		mov	r0, r4
 794 0066 70BD     		pop	{r4, r5, r6, pc}
 795              	.LVL85:
 796              	.L62:
 439:rrt0.c        **** 
 797              		.loc 1 439 0
 798 0068 0020     		movs	r0, #0
 799              	.LVL86:
 466:rrt0.c        **** }
 800              		.loc 1 466 0
 801 006a 70BD     		pop	{r4, r5, r6, pc}
 802              	.LVL87:
 803              	.L65:
 804              		.align	2
 805              	.L64:
 806 006c D0000000 		.word	.LC18
 807 0070 EC000000 		.word	.LC19
 808              		.cfi_endproc
ARM GAS  C:\Users\164\AppData\Local\Temp\ccs996fP.s 			page 24


 809              	.LFE98:
 810              		.size	mrbc_create_task, .-mrbc_create_task
 811              		.section	.text.mrbc_start_task,"ax",%progbits
 812              		.align	2
 813              		.global	mrbc_start_task
 814              		.thumb
 815              		.thumb_func
 816              		.type	mrbc_start_task, %function
 817              	mrbc_start_task:
 818              	.LFB99:
 467:rrt0.c        **** 
 468:rrt0.c        **** 
 469:rrt0.c        **** //================================================================
 470:rrt0.c        **** /*! Start execution of dormant task.
 471:rrt0.c        **** 
 472:rrt0.c        ****   @param	tcb	Task control block with parameter, or NULL.
 473:rrt0.c        ****   @retval	int	zero / no error.
 474:rrt0.c        **** */
 475:rrt0.c        **** int mrbc_start_task(mrbc_tcb *tcb)
 476:rrt0.c        **** {
 819              		.loc 1 476 0
 820              		.cfi_startproc
 821              		@ args = 0, pretend = 0, frame = 0
 822              		@ frame_needed = 0, uses_anonymous_args = 0
 823              	.LVL88:
 477:rrt0.c        ****   if( tcb->state != TASKSTATE_DORMANT ) return -1;
 824              		.loc 1 477 0
 825 0000 C379     		ldrb	r3, [r0, #7]	@ zero_extendqisi2
 826 0002 03BB     		cbnz	r3, .L71
 476:rrt0.c        ****   if( tcb->state != TASKSTATE_DORMANT ) return -1;
 827              		.loc 1 476 0
 828 0004 10B5     		push	{r4, lr}
 829              		.cfi_def_cfa_offset 8
 830              		.cfi_offset 4, -8
 831              		.cfi_offset 14, -4
 832 0006 0446     		mov	r4, r0
 478:rrt0.c        ****   tcb->timeslice           = TIMESLICE_TICK;
 833              		.loc 1 478 0
 834 0008 0A23     		movs	r3, #10
 835 000a 8371     		strb	r3, [r0, #6]
 479:rrt0.c        ****   tcb->priority_preemption = tcb->priority;
 836              		.loc 1 479 0
 837 000c 0379     		ldrb	r3, [r0, #4]	@ zero_extendqisi2
 838 000e 4371     		strb	r3, [r0, #5]
 480:rrt0.c        ****   mrbc_vm_begin(&tcb->vm);
 839              		.loc 1 480 0
 840 0010 1030     		adds	r0, r0, #16
 841              	.LVL89:
 842 0012 FFF7FEFF 		bl	mrbc_vm_begin
 843              	.LVL90:
 481:rrt0.c        **** 
 482:rrt0.c        ****   hal_disable_irq();
 844              		.loc 1 482 0
 845              		.syntax unified
 846              	@ 482 "rrt0.c" 1
 847 0016 72B6     		CPSID   i
 848              	@ 0 "" 2
ARM GAS  C:\Users\164\AppData\Local\Temp\ccs996fP.s 			page 25


 483:rrt0.c        **** 
 484:rrt0.c        ****   mrbc_tcb *t = q_ready_;
 849              		.loc 1 484 0
 850              		.thumb
 851              		.syntax unified
 852 0018 0C4B     		ldr	r3, .L74
 853 001a 5B68     		ldr	r3, [r3, #4]
 854              	.LVL91:
 485:rrt0.c        ****   while( t != NULL ) {
 855              		.loc 1 485 0
 856 001c 06E0     		b	.L68
 857              	.L70:
 486:rrt0.c        ****     if( t->state == TASKSTATE_RUNNING ) t->vm.flag_preemption = 1;
 858              		.loc 1 486 0
 859 001e DA79     		ldrb	r2, [r3, #7]	@ zero_extendqisi2
 860 0020 032A     		cmp	r2, #3
 861 0022 02D1     		bne	.L69
 862              		.loc 1 486 0 is_stmt 0 discriminator 1
 863 0024 0122     		movs	r2, #1
 864 0026 83F87826 		strb	r2, [r3, #1656]
 865              	.L69:
 487:rrt0.c        ****     t = t->next;
 866              		.loc 1 487 0 is_stmt 1
 867 002a 1B68     		ldr	r3, [r3]
 868              	.LVL92:
 869              	.L68:
 485:rrt0.c        ****   while( t != NULL ) {
 870              		.loc 1 485 0
 871 002c 002B     		cmp	r3, #0
 872 002e F6D1     		bne	.L70
 488:rrt0.c        ****   }
 489:rrt0.c        **** 
 490:rrt0.c        ****   q_delete_task(tcb);
 873              		.loc 1 490 0
 874 0030 2046     		mov	r0, r4
 875 0032 FFF7FEFF 		bl	q_delete_task
 876              	.LVL93:
 491:rrt0.c        ****   tcb->state = TASKSTATE_READY;
 877              		.loc 1 491 0
 878 0036 0123     		movs	r3, #1
 879 0038 E371     		strb	r3, [r4, #7]
 492:rrt0.c        ****   q_insert_task(tcb);
 880              		.loc 1 492 0
 881 003a 2046     		mov	r0, r4
 882 003c FFF7FEFF 		bl	q_insert_task
 883              	.LVL94:
 493:rrt0.c        ****   hal_enable_irq();
 884              		.loc 1 493 0
 885              		.syntax unified
 886              	@ 493 "rrt0.c" 1
 887 0040 62B6     		CPSIE   i
 888              	@ 0 "" 2
 494:rrt0.c        **** 
 495:rrt0.c        ****   return 0;
 889              		.loc 1 495 0
 890              		.thumb
 891              		.syntax unified
ARM GAS  C:\Users\164\AppData\Local\Temp\ccs996fP.s 			page 26


 892 0042 0020     		movs	r0, #0
 893 0044 10BD     		pop	{r4, pc}
 894              	.LVL95:
 895              	.L71:
 896              		.cfi_def_cfa_offset 0
 897              		.cfi_restore 4
 898              		.cfi_restore 14
 477:rrt0.c        ****   tcb->timeslice           = TIMESLICE_TICK;
 899              		.loc 1 477 0
 900 0046 4FF0FF30 		mov	r0, #-1
 901              	.LVL96:
 902 004a 7047     		bx	lr
 903              	.L75:
 904              		.align	2
 905              	.L74:
 906 004c 00000000 		.word	.LANCHOR0
 907              		.cfi_endproc
 908              	.LFE99:
 909              		.size	mrbc_start_task, .-mrbc_start_task
 910              		.section	.text.mrbc_run,"ax",%progbits
 911              		.align	2
 912              		.global	mrbc_run
 913              		.thumb
 914              		.thumb_func
 915              		.type	mrbc_run, %function
 916              	mrbc_run:
 917              	.LFB100:
 496:rrt0.c        **** }
 497:rrt0.c        **** 
 498:rrt0.c        **** 
 499:rrt0.c        **** //================================================================
 500:rrt0.c        **** /*! execute
 501:rrt0.c        **** 
 502:rrt0.c        **** */
 503:rrt0.c        **** int mrbc_run(void)
 504:rrt0.c        **** {
 918              		.loc 1 504 0
 919              		.cfi_startproc
 920              		@ args = 0, pretend = 0, frame = 0
 921              		@ frame_needed = 0, uses_anonymous_args = 0
 922 0000 38B5     		push	{r3, r4, r5, lr}
 923              		.cfi_def_cfa_offset 16
 924              		.cfi_offset 3, -16
 925              		.cfi_offset 4, -12
 926              		.cfi_offset 5, -8
 927              		.cfi_offset 14, -4
 928              	.L77:
 929              	.LBB5:
 505:rrt0.c        ****   while( 1 ) {
 506:rrt0.c        ****     mrbc_tcb *tcb = q_ready_;
 930              		.loc 1 506 0
 931 0002 1A4B     		ldr	r3, .L83
 932 0004 5C68     		ldr	r4, [r3, #4]
 933              	.LVL97:
 507:rrt0.c        ****     if( tcb == NULL ) {
 934              		.loc 1 507 0
 935 0006 2CB9     		cbnz	r4, .L78
ARM GAS  C:\Users\164\AppData\Local\Temp\ccs996fP.s 			page 27


 508:rrt0.c        ****       // å®Ÿè¡Œã™ã¹ãã‚¿ã‚¹ã‚¯ãªã—
 509:rrt0.c        ****       hal_idle_cpu();
 936              		.loc 1 509 0
 937 0008 4FF40461 		mov	r1, #2112
 938 000c 0020     		movs	r0, #0
 939 000e FFF7FEFF 		bl	CyPmAltAct
 940              	.LVL98:
 510:rrt0.c        ****       continue;
 941              		.loc 1 510 0
 942 0012 F6E7     		b	.L77
 943              	.L78:
 511:rrt0.c        ****     }
 512:rrt0.c        **** 
 513:rrt0.c        ****     // å®Ÿè¡Œé–‹å§‹
 514:rrt0.c        ****     tcb->state = TASKSTATE_RUNNING;
 944              		.loc 1 514 0
 945 0014 0323     		movs	r3, #3
 946 0016 E371     		strb	r3, [r4, #7]
 947              	.LVL99:
 515:rrt0.c        ****     int res = 0;
 516:rrt0.c        **** 
 517:rrt0.c        **** #ifndef MRBC_NO_TIMER
 518:rrt0.c        ****     tcb->vm.flag_preemption = 0;
 948              		.loc 1 518 0
 949 0018 0023     		movs	r3, #0
 950 001a 84F87836 		strb	r3, [r4, #1656]
 519:rrt0.c        ****     res = mrbc_vm_run(&tcb->vm);
 951              		.loc 1 519 0
 952 001e 04F11005 		add	r5, r4, #16
 953 0022 2846     		mov	r0, r5
 954 0024 FFF7FEFF 		bl	mrbc_vm_run
 955              	.LVL100:
 520:rrt0.c        **** 
 521:rrt0.c        **** #else
 522:rrt0.c        ****     while( tcb->timeslice > 0 ) {
 523:rrt0.c        ****       tcb->vm.flag_preemption = 1;
 524:rrt0.c        ****       res = mrbc_vm_run(&tcb->vm);
 525:rrt0.c        ****       tcb->timeslice--;
 526:rrt0.c        ****       if( res < 0 ) break;
 527:rrt0.c        ****       if( tcb->state != TASKSTATE_RUNNING ) break;
 528:rrt0.c        ****     }
 529:rrt0.c        ****     mrbc_tick();
 530:rrt0.c        **** #endif /* ifndef MRBC_NO_TIMER */
 531:rrt0.c        **** 
 532:rrt0.c        ****     // ã‚¿ã‚¹ã‚¯çµ‚äº†ï¼Ÿ
 533:rrt0.c        ****     if( res < 0 ) {
 956              		.loc 1 533 0
 957 0028 0028     		cmp	r0, #0
 958 002a 0DDA     		bge	.L80
 534:rrt0.c        ****       hal_disable_irq();
 959              		.loc 1 534 0
 960              		.syntax unified
 961              	@ 534 "rrt0.c" 1
 962 002c 72B6     		CPSID   i
 963              	@ 0 "" 2
 535:rrt0.c        ****       q_delete_task(tcb);
 964              		.loc 1 535 0
ARM GAS  C:\Users\164\AppData\Local\Temp\ccs996fP.s 			page 28


 965              		.thumb
 966              		.syntax unified
 967 002e 2046     		mov	r0, r4
 968              	.LVL101:
 969 0030 FFF7FEFF 		bl	q_delete_task
 970              	.LVL102:
 536:rrt0.c        ****       tcb->state = TASKSTATE_DORMANT;
 971              		.loc 1 536 0
 972 0034 0023     		movs	r3, #0
 973 0036 E371     		strb	r3, [r4, #7]
 537:rrt0.c        ****       q_insert_task(tcb);
 974              		.loc 1 537 0
 975 0038 2046     		mov	r0, r4
 976 003a FFF7FEFF 		bl	q_insert_task
 977              	.LVL103:
 538:rrt0.c        ****       hal_enable_irq();
 978              		.loc 1 538 0
 979              		.syntax unified
 980              	@ 538 "rrt0.c" 1
 981 003e 62B6     		CPSIE   i
 982              	@ 0 "" 2
 539:rrt0.c        ****       mrbc_vm_end(&tcb->vm);
 983              		.loc 1 539 0
 984              		.thumb
 985              		.syntax unified
 986 0040 2846     		mov	r0, r5
 987 0042 FFF7FEFF 		bl	mrbc_vm_end
 988              	.LVL104:
 540:rrt0.c        **** 
 541:rrt0.c        **** #if MRBC_SCHEDULER_EXIT
 542:rrt0.c        ****       if( q_ready_ == NULL && q_waiting_ == NULL &&
 543:rrt0.c        ****           q_suspended_ == NULL ) return 0;
 544:rrt0.c        **** #endif
 545:rrt0.c        ****       continue;
 989              		.loc 1 545 0
 990 0046 DCE7     		b	.L77
 991              	.LVL105:
 992              	.L80:
 546:rrt0.c        ****     }
 547:rrt0.c        **** 
 548:rrt0.c        ****     // ã‚¿ã‚¹ã‚¯åˆ‡ã‚Šæ›¿ãˆ
 549:rrt0.c        ****     hal_disable_irq();
 993              		.loc 1 549 0
 994              		.syntax unified
 995              	@ 549 "rrt0.c" 1
 996 0048 72B6     		CPSID   i
 997              	@ 0 "" 2
 550:rrt0.c        ****     if( tcb->state == TASKSTATE_RUNNING ) {
 998              		.loc 1 550 0
 999              		.thumb
 1000              		.syntax unified
 1001 004a E379     		ldrb	r3, [r4, #7]	@ zero_extendqisi2
 1002 004c 032B     		cmp	r3, #3
 1003 004e 0BD1     		bne	.L81
 551:rrt0.c        ****       tcb->state = TASKSTATE_READY;
 1004              		.loc 1 551 0
 1005 0050 0123     		movs	r3, #1
ARM GAS  C:\Users\164\AppData\Local\Temp\ccs996fP.s 			page 29


 1006 0052 E371     		strb	r3, [r4, #7]
 552:rrt0.c        **** 
 553:rrt0.c        ****       // ã‚¿ã‚¤ãƒ ã‚¹ãƒ©ã‚¤ã‚¹çµ‚äº†ï¼Ÿ
 554:rrt0.c        ****       if( tcb->timeslice == 0 ) {
 1007              		.loc 1 554 0
 1008 0054 A379     		ldrb	r3, [r4, #6]	@ zero_extendqisi2
 1009 0056 3BB9     		cbnz	r3, .L81
 555:rrt0.c        ****         q_delete_task(tcb);
 1010              		.loc 1 555 0
 1011 0058 2046     		mov	r0, r4
 1012              	.LVL106:
 1013 005a FFF7FEFF 		bl	q_delete_task
 1014              	.LVL107:
 556:rrt0.c        ****         tcb->timeslice = TIMESLICE_TICK;
 1015              		.loc 1 556 0
 1016 005e 0A23     		movs	r3, #10
 1017 0060 A371     		strb	r3, [r4, #6]
 557:rrt0.c        ****         q_insert_task(tcb); // insert task on queue last.
 1018              		.loc 1 557 0
 1019 0062 2046     		mov	r0, r4
 1020 0064 FFF7FEFF 		bl	q_insert_task
 1021              	.LVL108:
 1022              	.L81:
 558:rrt0.c        ****       }
 559:rrt0.c        ****     }
 560:rrt0.c        ****     hal_enable_irq();
 1023              		.loc 1 560 0
 1024              		.syntax unified
 1025              	@ 560 "rrt0.c" 1
 1026 0068 62B6     		CPSIE   i
 1027              	@ 0 "" 2
 1028              		.thumb
 1029              		.syntax unified
 1030 006a CAE7     		b	.L77
 1031              	.L84:
 1032              		.align	2
 1033              	.L83:
 1034 006c 00000000 		.word	.LANCHOR0
 1035              	.LBE5:
 1036              		.cfi_endproc
 1037              	.LFE100:
 1038              		.size	mrbc_run, .-mrbc_run
 1039              		.section	.text.mrbc_sleep_ms,"ax",%progbits
 1040              		.align	2
 1041              		.global	mrbc_sleep_ms
 1042              		.thumb
 1043              		.thumb_func
 1044              		.type	mrbc_sleep_ms, %function
 1045              	mrbc_sleep_ms:
 1046              	.LFB101:
 561:rrt0.c        **** 
 562:rrt0.c        ****   } // eternal loop
 563:rrt0.c        **** }
 564:rrt0.c        **** 
 565:rrt0.c        **** 
 566:rrt0.c        **** //================================================================
 567:rrt0.c        **** /*! å®Ÿè¡Œä¸€æ™‚åœæ­¢
ARM GAS  C:\Users\164\AppData\Local\Temp\ccs996fP.s 			page 30


 568:rrt0.c        **** 
 569:rrt0.c        **** */
 570:rrt0.c        **** void mrbc_sleep_ms(mrbc_tcb *tcb, uint32_t ms)
 571:rrt0.c        **** {
 1047              		.loc 1 571 0
 1048              		.cfi_startproc
 1049              		@ args = 0, pretend = 0, frame = 0
 1050              		@ frame_needed = 0, uses_anonymous_args = 0
 1051              	.LVL109:
 1052 0000 38B5     		push	{r3, r4, r5, lr}
 1053              		.cfi_def_cfa_offset 16
 1054              		.cfi_offset 3, -16
 1055              		.cfi_offset 4, -12
 1056              		.cfi_offset 5, -8
 1057              		.cfi_offset 14, -4
 1058 0002 0446     		mov	r4, r0
 1059 0004 0D46     		mov	r5, r1
 572:rrt0.c        ****   hal_disable_irq();
 1060              		.loc 1 572 0
 1061              		.syntax unified
 1062              	@ 572 "rrt0.c" 1
 1063 0006 72B6     		CPSID   i
 1064              	@ 0 "" 2
 573:rrt0.c        ****   q_delete_task(tcb);
 1065              		.loc 1 573 0
 1066              		.thumb
 1067              		.syntax unified
 1068 0008 FFF7FEFF 		bl	q_delete_task
 1069              	.LVL110:
 574:rrt0.c        ****   tcb->timeslice   = 0;
 1070              		.loc 1 574 0
 1071 000c 0023     		movs	r3, #0
 1072 000e A371     		strb	r3, [r4, #6]
 575:rrt0.c        ****   tcb->state       = TASKSTATE_WAITING;
 1073              		.loc 1 575 0
 1074 0010 0422     		movs	r2, #4
 1075 0012 E271     		strb	r2, [r4, #7]
 576:rrt0.c        ****   tcb->reason      = TASKREASON_SLEEP;
 1076              		.loc 1 576 0
 1077 0014 2372     		strb	r3, [r4, #8]
 577:rrt0.c        ****   tcb->wakeup_tick = tick_ + ms;
 1078              		.loc 1 577 0
 1079 0016 064B     		ldr	r3, .L87
 1080 0018 1B69     		ldr	r3, [r3, #16]
 1081 001a 1D44     		add	r5, r5, r3
 1082              	.LVL111:
 1083 001c E560     		str	r5, [r4, #12]
 578:rrt0.c        ****   q_insert_task(tcb);
 1084              		.loc 1 578 0
 1085 001e 2046     		mov	r0, r4
 1086 0020 FFF7FEFF 		bl	q_insert_task
 1087              	.LVL112:
 579:rrt0.c        ****   hal_enable_irq();
 1088              		.loc 1 579 0
 1089              		.syntax unified
 1090              	@ 579 "rrt0.c" 1
 1091 0024 62B6     		CPSIE   i
ARM GAS  C:\Users\164\AppData\Local\Temp\ccs996fP.s 			page 31


 1092              	@ 0 "" 2
 580:rrt0.c        **** 
 581:rrt0.c        ****   tcb->vm.flag_preemption = 1;
 1093              		.loc 1 581 0
 1094              		.thumb
 1095              		.syntax unified
 1096 0026 0123     		movs	r3, #1
 1097 0028 84F87836 		strb	r3, [r4, #1656]
 1098 002c 38BD     		pop	{r3, r4, r5, pc}
 1099              	.LVL113:
 1100              	.L88:
 1101 002e 00BF     		.align	2
 1102              	.L87:
 1103 0030 00000000 		.word	.LANCHOR0
 1104              		.cfi_endproc
 1105              	.LFE101:
 1106              		.size	mrbc_sleep_ms, .-mrbc_sleep_ms
 1107              		.section	.text.c_sleep_ms,"ax",%progbits
 1108              		.align	2
 1109              		.thumb
 1110              		.thumb_func
 1111              		.type	c_sleep_ms, %function
 1112              	c_sleep_ms:
 1113              	.LFB84:
 189:rrt0.c        ****   mrbc_tcb *tcb = VM2TCB(vm);
 1114              		.loc 1 189 0
 1115              		.cfi_startproc
 1116              		@ args = 0, pretend = 0, frame = 0
 1117              		@ frame_needed = 0, uses_anonymous_args = 0
 1118              	.LVL114:
 1119 0000 08B5     		push	{r3, lr}
 1120              		.cfi_def_cfa_offset 8
 1121              		.cfi_offset 3, -8
 1122              		.cfi_offset 14, -4
 1123              	.LVL115:
 192:rrt0.c        **** }
 1124              		.loc 1 192 0
 1125 0002 8969     		ldr	r1, [r1, #24]
 1126              	.LVL116:
 1127 0004 1038     		subs	r0, r0, #16
 1128              	.LVL117:
 1129 0006 FFF7FEFF 		bl	mrbc_sleep_ms
 1130              	.LVL118:
 1131 000a 08BD     		pop	{r3, pc}
 1132              		.cfi_endproc
 1133              	.LFE84:
 1134              		.size	c_sleep_ms, .-c_sleep_ms
 1135              		.section	.text.mrbc_relinquish,"ax",%progbits
 1136              		.align	2
 1137              		.global	mrbc_relinquish
 1138              		.thumb
 1139              		.thumb_func
 1140              		.type	mrbc_relinquish, %function
 1141              	mrbc_relinquish:
 1142              	.LFB102:
 582:rrt0.c        **** }
 583:rrt0.c        **** 
ARM GAS  C:\Users\164\AppData\Local\Temp\ccs996fP.s 			page 32


 584:rrt0.c        **** 
 585:rrt0.c        **** //================================================================
 586:rrt0.c        **** /*! å®Ÿè¡Œæ¨©ã‚’æ‰‹æ”¾ã™
 587:rrt0.c        **** 
 588:rrt0.c        **** */
 589:rrt0.c        **** void mrbc_relinquish(mrbc_tcb *tcb)
 590:rrt0.c        **** {
 1143              		.loc 1 590 0
 1144              		.cfi_startproc
 1145              		@ args = 0, pretend = 0, frame = 0
 1146              		@ frame_needed = 0, uses_anonymous_args = 0
 1147              		@ link register save eliminated.
 1148              	.LVL119:
 591:rrt0.c        ****   tcb->timeslice           = 0;
 1149              		.loc 1 591 0
 1150 0000 0023     		movs	r3, #0
 1151 0002 8371     		strb	r3, [r0, #6]
 592:rrt0.c        ****   tcb->vm.flag_preemption = 1;
 1152              		.loc 1 592 0
 1153 0004 0123     		movs	r3, #1
 1154 0006 80F87836 		strb	r3, [r0, #1656]
 1155 000a 7047     		bx	lr
 1156              		.cfi_endproc
 1157              	.LFE102:
 1158              		.size	mrbc_relinquish, .-mrbc_relinquish
 1159              		.section	.text.c_relinquish,"ax",%progbits
 1160              		.align	2
 1161              		.thumb
 1162              		.thumb_func
 1163              		.type	c_relinquish, %function
 1164              	c_relinquish:
 1165              	.LFB85:
 201:rrt0.c        ****   mrbc_tcb *tcb = VM2TCB(vm);
 1166              		.loc 1 201 0
 1167              		.cfi_startproc
 1168              		@ args = 0, pretend = 0, frame = 0
 1169              		@ frame_needed = 0, uses_anonymous_args = 0
 1170              	.LVL120:
 1171 0000 08B5     		push	{r3, lr}
 1172              		.cfi_def_cfa_offset 8
 1173              		.cfi_offset 3, -8
 1174              		.cfi_offset 14, -4
 1175              	.LVL121:
 204:rrt0.c        **** }
 1176              		.loc 1 204 0
 1177 0002 1038     		subs	r0, r0, #16
 1178              	.LVL122:
 1179 0004 FFF7FEFF 		bl	mrbc_relinquish
 1180              	.LVL123:
 1181 0008 08BD     		pop	{r3, pc}
 1182              		.cfi_endproc
 1183              	.LFE85:
 1184              		.size	c_relinquish, .-c_relinquish
 1185 000a 00BF     		.section	.text.mrbc_change_priority,"ax",%progbits
 1186              		.align	2
 1187              		.global	mrbc_change_priority
 1188              		.thumb
ARM GAS  C:\Users\164\AppData\Local\Temp\ccs996fP.s 			page 33


 1189              		.thumb_func
 1190              		.type	mrbc_change_priority, %function
 1191              	mrbc_change_priority:
 1192              	.LFB103:
 593:rrt0.c        **** }
 594:rrt0.c        **** 
 595:rrt0.c        **** 
 596:rrt0.c        **** //================================================================
 597:rrt0.c        **** /*! ãƒ—ãƒ©ã‚¤ã‚ªãƒªãƒ†ã‚£ãƒ¼ã®å¤‰æ›´
 598:rrt0.c        ****   TODO: No check, yet.
 599:rrt0.c        **** */
 600:rrt0.c        **** void mrbc_change_priority(mrbc_tcb *tcb, int priority)
 601:rrt0.c        **** {
 1193              		.loc 1 601 0
 1194              		.cfi_startproc
 1195              		@ args = 0, pretend = 0, frame = 0
 1196              		@ frame_needed = 0, uses_anonymous_args = 0
 1197              		@ link register save eliminated.
 1198              	.LVL124:
 602:rrt0.c        ****   tcb->priority            = (uint8_t)priority;
 1199              		.loc 1 602 0
 1200 0000 C9B2     		uxtb	r1, r1
 1201              	.LVL125:
 1202 0002 0171     		strb	r1, [r0, #4]
 603:rrt0.c        ****   tcb->priority_preemption = (uint8_t)priority;
 1203              		.loc 1 603 0
 1204 0004 4171     		strb	r1, [r0, #5]
 604:rrt0.c        ****   tcb->timeslice           = 0;
 1205              		.loc 1 604 0
 1206 0006 0023     		movs	r3, #0
 1207 0008 8371     		strb	r3, [r0, #6]
 605:rrt0.c        ****   tcb->vm.flag_preemption = 1;
 1208              		.loc 1 605 0
 1209 000a 0123     		movs	r3, #1
 1210 000c 80F87836 		strb	r3, [r0, #1656]
 1211 0010 7047     		bx	lr
 1212              		.cfi_endproc
 1213              	.LFE103:
 1214              		.size	mrbc_change_priority, .-mrbc_change_priority
 1215 0012 00BF     		.section	.text.c_change_priority,"ax",%progbits
 1216              		.align	2
 1217              		.thumb
 1218              		.thumb_func
 1219              		.type	c_change_priority, %function
 1220              	c_change_priority:
 1221              	.LFB86:
 213:rrt0.c        ****   mrbc_tcb *tcb = VM2TCB(vm);
 1222              		.loc 1 213 0
 1223              		.cfi_startproc
 1224              		@ args = 0, pretend = 0, frame = 0
 1225              		@ frame_needed = 0, uses_anonymous_args = 0
 1226              	.LVL126:
 1227 0000 08B5     		push	{r3, lr}
 1228              		.cfi_def_cfa_offset 8
 1229              		.cfi_offset 3, -8
 1230              		.cfi_offset 14, -4
 1231              	.LVL127:
ARM GAS  C:\Users\164\AppData\Local\Temp\ccs996fP.s 			page 34


 216:rrt0.c        **** }
 1232              		.loc 1 216 0
 1233 0002 8969     		ldr	r1, [r1, #24]
 1234              	.LVL128:
 1235 0004 1038     		subs	r0, r0, #16
 1236              	.LVL129:
 1237 0006 FFF7FEFF 		bl	mrbc_change_priority
 1238              	.LVL130:
 1239 000a 08BD     		pop	{r3, pc}
 1240              		.cfi_endproc
 1241              	.LFE86:
 1242              		.size	c_change_priority, .-c_change_priority
 1243              		.section	.text.mrbc_suspend_task,"ax",%progbits
 1244              		.align	2
 1245              		.global	mrbc_suspend_task
 1246              		.thumb
 1247              		.thumb_func
 1248              		.type	mrbc_suspend_task, %function
 1249              	mrbc_suspend_task:
 1250              	.LFB104:
 606:rrt0.c        **** }
 607:rrt0.c        **** 
 608:rrt0.c        **** 
 609:rrt0.c        **** //================================================================
 610:rrt0.c        **** /*! å®Ÿè¡Œåœæ­¢
 611:rrt0.c        **** 
 612:rrt0.c        **** */
 613:rrt0.c        **** void mrbc_suspend_task(mrbc_tcb *tcb)
 614:rrt0.c        **** {
 1251              		.loc 1 614 0
 1252              		.cfi_startproc
 1253              		@ args = 0, pretend = 0, frame = 0
 1254              		@ frame_needed = 0, uses_anonymous_args = 0
 1255              	.LVL131:
 1256 0000 10B5     		push	{r4, lr}
 1257              		.cfi_def_cfa_offset 8
 1258              		.cfi_offset 4, -8
 1259              		.cfi_offset 14, -4
 1260 0002 0446     		mov	r4, r0
 615:rrt0.c        ****   hal_disable_irq();
 1261              		.loc 1 615 0
 1262              		.syntax unified
 1263              	@ 615 "rrt0.c" 1
 1264 0004 72B6     		CPSID   i
 1265              	@ 0 "" 2
 616:rrt0.c        ****   q_delete_task(tcb);
 1266              		.loc 1 616 0
 1267              		.thumb
 1268              		.syntax unified
 1269 0006 FFF7FEFF 		bl	q_delete_task
 1270              	.LVL132:
 617:rrt0.c        ****   tcb->state = TASKSTATE_SUSPENDED;
 1271              		.loc 1 617 0
 1272 000a 0823     		movs	r3, #8
 1273 000c E371     		strb	r3, [r4, #7]
 618:rrt0.c        ****   q_insert_task(tcb);
 1274              		.loc 1 618 0
ARM GAS  C:\Users\164\AppData\Local\Temp\ccs996fP.s 			page 35


 1275 000e 2046     		mov	r0, r4
 1276 0010 FFF7FEFF 		bl	q_insert_task
 1277              	.LVL133:
 619:rrt0.c        ****   hal_enable_irq();
 1278              		.loc 1 619 0
 1279              		.syntax unified
 1280              	@ 619 "rrt0.c" 1
 1281 0014 62B6     		CPSIE   i
 1282              	@ 0 "" 2
 620:rrt0.c        **** 
 621:rrt0.c        ****   tcb->vm.flag_preemption = 1;
 1283              		.loc 1 621 0
 1284              		.thumb
 1285              		.syntax unified
 1286 0016 0123     		movs	r3, #1
 1287 0018 84F87836 		strb	r3, [r4, #1656]
 1288 001c 10BD     		pop	{r4, pc}
 1289              		.cfi_endproc
 1290              	.LFE104:
 1291              		.size	mrbc_suspend_task, .-mrbc_suspend_task
 1292 001e 00BF     		.section	.text.c_suspend_task,"ax",%progbits
 1293              		.align	2
 1294              		.thumb
 1295              		.thumb_func
 1296              		.type	c_suspend_task, %function
 1297              	c_suspend_task:
 1298              	.LFB87:
 225:rrt0.c        ****   if( argc == 0 ) {
 1299              		.loc 1 225 0
 1300              		.cfi_startproc
 1301              		@ args = 0, pretend = 0, frame = 0
 1302              		@ frame_needed = 0, uses_anonymous_args = 0
 1303              	.LVL134:
 1304 0000 08B5     		push	{r3, lr}
 1305              		.cfi_def_cfa_offset 8
 1306              		.cfi_offset 3, -8
 1307              		.cfi_offset 14, -4
 226:rrt0.c        ****     mrbc_tcb *tcb = VM2TCB(vm);
 1308              		.loc 1 226 0
 1309 0002 1AB9     		cbnz	r2, .L100
 1310              	.LVL135:
 1311              	.LBB6:
 228:rrt0.c        ****     return;
 1312              		.loc 1 228 0
 1313 0004 1038     		subs	r0, r0, #16
 1314              	.LVL136:
 1315 0006 FFF7FEFF 		bl	mrbc_suspend_task
 1316              	.LVL137:
 229:rrt0.c        ****   }
 1317              		.loc 1 229 0
 1318 000a 08BD     		pop	{r3, pc}
 1319              	.LVL138:
 1320              	.L100:
 1321              	.LBE6:
 232:rrt0.c        ****   mrbc_suspend_task( (mrbc_tcb *)(v[1].handle) );
 1322              		.loc 1 232 0
 1323 000c 91F91030 		ldrsb	r3, [r1, #16]
ARM GAS  C:\Users\164\AppData\Local\Temp\ccs996fP.s 			page 36


 1324 0010 B3F1FF3F 		cmp	r3, #-1
 1325 0014 02D1     		bne	.L99
 233:rrt0.c        **** }
 1326              		.loc 1 233 0
 1327 0016 8869     		ldr	r0, [r1, #24]
 1328              	.LVL139:
 1329 0018 FFF7FEFF 		bl	mrbc_suspend_task
 1330              	.LVL140:
 1331              	.L99:
 1332 001c 08BD     		pop	{r3, pc}
 1333              		.cfi_endproc
 1334              	.LFE87:
 1335              		.size	c_suspend_task, .-c_suspend_task
 1336              		.global	__aeabi_dmul
 1337              		.global	__aeabi_d2iz
 1338 001e 00BF     		.section	.text.c_sleep,"ax",%progbits
 1339              		.align	2
 1340              		.thumb
 1341              		.thumb_func
 1342              		.type	c_sleep, %function
 1343              	c_sleep:
 1344              	.LFB83:
 159:rrt0.c        ****   mrbc_tcb *tcb = VM2TCB(vm);
 1345              		.loc 1 159 0
 1346              		.cfi_startproc
 1347              		@ args = 0, pretend = 0, frame = 0
 1348              		@ frame_needed = 0, uses_anonymous_args = 0
 1349              	.LVL141:
 1350 0000 10B5     		push	{r4, lr}
 1351              		.cfi_def_cfa_offset 8
 1352              		.cfi_offset 4, -8
 1353              		.cfi_offset 14, -4
 160:rrt0.c        **** 
 1354              		.loc 1 160 0
 1355 0002 A0F11004 		sub	r4, r0, #16
 1356              	.LVL142:
 162:rrt0.c        ****     mrbc_suspend_task(tcb);
 1357              		.loc 1 162 0
 1358 0006 1AB9     		cbnz	r2, .L104
 163:rrt0.c        ****     return;
 1359              		.loc 1 163 0
 1360 0008 2046     		mov	r0, r4
 1361              	.LVL143:
 1362 000a FFF7FEFF 		bl	mrbc_suspend_task
 1363              	.LVL144:
 164:rrt0.c        ****   }
 1364              		.loc 1 164 0
 1365 000e 10BD     		pop	{r4, pc}
 1366              	.LVL145:
 1367              	.L104:
 167:rrt0.c        ****   case MRBC_TT_FIXNUM:
 1368              		.loc 1 167 0
 1369 0010 91F91030 		ldrsb	r3, [r1, #16]
 1370 0014 042B     		cmp	r3, #4
 1371 0016 02D0     		beq	.L106
 1372 0018 052B     		cmp	r3, #5
 1373 001a 09D0     		beq	.L107
ARM GAS  C:\Users\164\AppData\Local\Temp\ccs996fP.s 			page 37


 1374 001c 10BD     		pop	{r4, pc}
 1375              	.LVL146:
 1376              	.L106:
 169:rrt0.c        ****     break;
 1377              		.loc 1 169 0
 1378 001e 8B69     		ldr	r3, [r1, #24]
 1379 0020 4FF47A71 		mov	r1, #1000
 1380              	.LVL147:
 1381 0024 01FB03F1 		mul	r1, r1, r3
 1382 0028 2046     		mov	r0, r4
 1383              	.LVL148:
 1384 002a FFF7FEFF 		bl	mrbc_sleep_ms
 1385              	.LVL149:
 170:rrt0.c        **** 
 1386              		.loc 1 170 0
 1387 002e 10BD     		pop	{r4, pc}
 1388              	.LVL150:
 1389              	.L107:
 174:rrt0.c        ****     break;
 1390              		.loc 1 174 0
 1391 0030 0022     		movs	r2, #0
 1392              	.LVL151:
 1393 0032 064B     		ldr	r3, .L109
 1394 0034 D1E90601 		ldrd	r0, [r1, #24]
 1395              	.LVL152:
 1396 0038 FFF7FEFF 		bl	__aeabi_dmul
 1397              	.LVL153:
 1398 003c FFF7FEFF 		bl	__aeabi_d2iz
 1399              	.LVL154:
 1400 0040 0146     		mov	r1, r0
 1401 0042 2046     		mov	r0, r4
 1402 0044 FFF7FEFF 		bl	mrbc_sleep_ms
 1403              	.LVL155:
 1404 0048 10BD     		pop	{r4, pc}
 1405              	.LVL156:
 1406              	.L110:
 1407 004a 00BF     		.align	2
 1408              	.L109:
 1409 004c 00408F40 		.word	1083129856
 1410              		.cfi_endproc
 1411              	.LFE83:
 1412              		.size	c_sleep, .-c_sleep
 1413              		.section	.text.mrbc_resume_task,"ax",%progbits
 1414              		.align	2
 1415              		.global	mrbc_resume_task
 1416              		.thumb
 1417              		.thumb_func
 1418              		.type	mrbc_resume_task, %function
 1419              	mrbc_resume_task:
 1420              	.LFB105:
 622:rrt0.c        **** }
 623:rrt0.c        **** 
 624:rrt0.c        **** 
 625:rrt0.c        **** //================================================================
 626:rrt0.c        **** /*! å®Ÿè¡Œå†é–‹
 627:rrt0.c        **** 
 628:rrt0.c        **** */
ARM GAS  C:\Users\164\AppData\Local\Temp\ccs996fP.s 			page 38


 629:rrt0.c        **** void mrbc_resume_task(mrbc_tcb *tcb)
 630:rrt0.c        **** {
 1421              		.loc 1 630 0
 1422              		.cfi_startproc
 1423              		@ args = 0, pretend = 0, frame = 0
 1424              		@ frame_needed = 0, uses_anonymous_args = 0
 1425              	.LVL157:
 1426 0000 10B5     		push	{r4, lr}
 1427              		.cfi_def_cfa_offset 8
 1428              		.cfi_offset 4, -8
 1429              		.cfi_offset 14, -4
 1430 0002 0446     		mov	r4, r0
 631:rrt0.c        ****   hal_disable_irq();
 1431              		.loc 1 631 0
 1432              		.syntax unified
 1433              	@ 631 "rrt0.c" 1
 1434 0004 72B6     		CPSID   i
 1435              	@ 0 "" 2
 632:rrt0.c        **** 
 633:rrt0.c        ****   mrbc_tcb *t = q_ready_;
 1436              		.loc 1 633 0
 1437              		.thumb
 1438              		.syntax unified
 1439 0006 0B4B     		ldr	r3, .L116
 1440 0008 5B68     		ldr	r3, [r3, #4]
 1441              	.LVL158:
 634:rrt0.c        ****   while( t != NULL ) {
 1442              		.loc 1 634 0
 1443 000a 06E0     		b	.L112
 1444              	.L114:
 635:rrt0.c        ****     if( t->state == TASKSTATE_RUNNING ) t->vm.flag_preemption = 1;
 1445              		.loc 1 635 0
 1446 000c DA79     		ldrb	r2, [r3, #7]	@ zero_extendqisi2
 1447 000e 032A     		cmp	r2, #3
 1448 0010 02D1     		bne	.L113
 1449              		.loc 1 635 0 is_stmt 0 discriminator 1
 1450 0012 0122     		movs	r2, #1
 1451 0014 83F87826 		strb	r2, [r3, #1656]
 1452              	.L113:
 636:rrt0.c        ****     t = t->next;
 1453              		.loc 1 636 0 is_stmt 1
 1454 0018 1B68     		ldr	r3, [r3]
 1455              	.LVL159:
 1456              	.L112:
 634:rrt0.c        ****   while( t != NULL ) {
 1457              		.loc 1 634 0
 1458 001a 002B     		cmp	r3, #0
 1459 001c F6D1     		bne	.L114
 637:rrt0.c        ****   }
 638:rrt0.c        **** 
 639:rrt0.c        ****   q_delete_task(tcb);
 1460              		.loc 1 639 0
 1461 001e 2046     		mov	r0, r4
 1462              	.LVL160:
 1463 0020 FFF7FEFF 		bl	q_delete_task
 1464              	.LVL161:
 640:rrt0.c        ****   tcb->state = TASKSTATE_READY;
ARM GAS  C:\Users\164\AppData\Local\Temp\ccs996fP.s 			page 39


 1465              		.loc 1 640 0
 1466 0024 0123     		movs	r3, #1
 1467 0026 E371     		strb	r3, [r4, #7]
 641:rrt0.c        ****   q_insert_task(tcb);
 1468              		.loc 1 641 0
 1469 0028 2046     		mov	r0, r4
 1470 002a FFF7FEFF 		bl	q_insert_task
 1471              	.LVL162:
 642:rrt0.c        ****   hal_enable_irq();
 1472              		.loc 1 642 0
 1473              		.syntax unified
 1474              	@ 642 "rrt0.c" 1
 1475 002e 62B6     		CPSIE   i
 1476              	@ 0 "" 2
 1477              		.thumb
 1478              		.syntax unified
 1479 0030 10BD     		pop	{r4, pc}
 1480              	.LVL163:
 1481              	.L117:
 1482 0032 00BF     		.align	2
 1483              	.L116:
 1484 0034 00000000 		.word	.LANCHOR0
 1485              		.cfi_endproc
 1486              	.LFE105:
 1487              		.size	mrbc_resume_task, .-mrbc_resume_task
 1488              		.section	.text.c_resume_task,"ax",%progbits
 1489              		.align	2
 1490              		.thumb
 1491              		.thumb_func
 1492              		.type	c_resume_task, %function
 1493              	c_resume_task:
 1494              	.LFB88:
 242:rrt0.c        ****   if( v[1].tt != MRBC_TT_HANDLE ) return;	// error.
 1495              		.loc 1 242 0
 1496              		.cfi_startproc
 1497              		@ args = 0, pretend = 0, frame = 0
 1498              		@ frame_needed = 0, uses_anonymous_args = 0
 1499              	.LVL164:
 1500 0000 08B5     		push	{r3, lr}
 1501              		.cfi_def_cfa_offset 8
 1502              		.cfi_offset 3, -8
 1503              		.cfi_offset 14, -4
 243:rrt0.c        ****   mrbc_resume_task( (mrbc_tcb *)(v[1].handle) );
 1504              		.loc 1 243 0
 1505 0002 91F91030 		ldrsb	r3, [r1, #16]
 1506 0006 B3F1FF3F 		cmp	r3, #-1
 1507 000a 02D1     		bne	.L118
 244:rrt0.c        **** }
 1508              		.loc 1 244 0
 1509 000c 8869     		ldr	r0, [r1, #24]
 1510              	.LVL165:
 1511 000e FFF7FEFF 		bl	mrbc_resume_task
 1512              	.LVL166:
 1513              	.L118:
 1514 0012 08BD     		pop	{r3, pc}
 1515              		.cfi_endproc
 1516              	.LFE88:
ARM GAS  C:\Users\164\AppData\Local\Temp\ccs996fP.s 			page 40


 1517              		.size	c_resume_task, .-c_resume_task
 1518              		.section	.text.mrbc_mutex_init,"ax",%progbits
 1519              		.align	2
 1520              		.global	mrbc_mutex_init
 1521              		.thumb
 1522              		.thumb_func
 1523              		.type	mrbc_mutex_init, %function
 1524              	mrbc_mutex_init:
 1525              	.LFB106:
 643:rrt0.c        **** }
 644:rrt0.c        **** 
 645:rrt0.c        **** 
 646:rrt0.c        **** //================================================================
 647:rrt0.c        **** /*! mutex initialize
 648:rrt0.c        **** 
 649:rrt0.c        **** */
 650:rrt0.c        **** mrbc_mutex * mrbc_mutex_init( mrbc_mutex *mutex )
 651:rrt0.c        **** {
 1526              		.loc 1 651 0
 1527              		.cfi_startproc
 1528              		@ args = 0, pretend = 0, frame = 0
 1529              		@ frame_needed = 0, uses_anonymous_args = 0
 1530              	.LVL167:
 1531 0000 08B5     		push	{r3, lr}
 1532              		.cfi_def_cfa_offset 8
 1533              		.cfi_offset 3, -8
 1534              		.cfi_offset 14, -4
 652:rrt0.c        ****   if( mutex == NULL ) {
 1535              		.loc 1 652 0
 1536 0002 0346     		mov	r3, r0
 1537 0004 20B9     		cbnz	r0, .L122
 653:rrt0.c        ****     mutex = (mrbc_mutex*)mrbc_raw_alloc( sizeof(mrbc_mutex) );
 1538              		.loc 1 653 0
 1539 0006 0820     		movs	r0, #8
 1540              	.LVL168:
 1541 0008 FFF7FEFF 		bl	mrbc_raw_alloc
 1542              	.LVL169:
 654:rrt0.c        ****     if( mutex == NULL ) return NULL;	// ENOMEM
 1543              		.loc 1 654 0
 1544 000c 0346     		mov	r3, r0
 1545 000e 20B1     		cbz	r0, .L124
 1546              	.L122:
 655:rrt0.c        ****   }
 656:rrt0.c        **** 
 657:rrt0.c        ****   static const mrbc_mutex init_val = MRBC_MUTEX_INITIALIZER;
 658:rrt0.c        ****   *mutex = init_val;
 1547              		.loc 1 658 0
 1548 0010 0022     		movs	r2, #0
 1549 0012 1A60     		str	r2, [r3]
 1550 0014 5A60     		str	r2, [r3, #4]
 659:rrt0.c        **** 
 660:rrt0.c        ****   return mutex;
 1551              		.loc 1 660 0
 1552 0016 1846     		mov	r0, r3
 1553 0018 08BD     		pop	{r3, pc}
 1554              	.L124:
 654:rrt0.c        ****   }
ARM GAS  C:\Users\164\AppData\Local\Temp\ccs996fP.s 			page 41


 1555              		.loc 1 654 0
 1556 001a 0020     		movs	r0, #0
 1557              	.LVL170:
 661:rrt0.c        **** }
 1558              		.loc 1 661 0
 1559 001c 08BD     		pop	{r3, pc}
 1560              		.cfi_endproc
 1561              	.LFE106:
 1562              		.size	mrbc_mutex_init, .-mrbc_mutex_init
 1563 001e 00BF     		.section	.text.c_mutex_new,"ax",%progbits
 1564              		.align	2
 1565              		.thumb
 1566              		.thumb_func
 1567              		.type	c_mutex_new, %function
 1568              	c_mutex_new:
 1569              	.LFB90:
 268:rrt0.c        ****   *v = mrbc_instance_new(vm, v->cls, sizeof(mrbc_mutex));
 1570              		.loc 1 268 0
 1571              		.cfi_startproc
 1572              		@ args = 0, pretend = 0, frame = 16
 1573              		@ frame_needed = 0, uses_anonymous_args = 0
 1574              	.LVL171:
 1575 0000 30B5     		push	{r4, r5, lr}
 1576              		.cfi_def_cfa_offset 12
 1577              		.cfi_offset 4, -12
 1578              		.cfi_offset 5, -8
 1579              		.cfi_offset 14, -4
 1580 0002 85B0     		sub	sp, sp, #20
 1581              		.cfi_def_cfa_offset 32
 1582 0004 0C46     		mov	r4, r1
 269:rrt0.c        ****   if( !v->instance ) return;
 1583              		.loc 1 269 0
 1584 0006 0823     		movs	r3, #8
 1585 0008 8A68     		ldr	r2, [r1, #8]
 1586              	.LVL172:
 1587 000a 0146     		mov	r1, r0
 1588              	.LVL173:
 1589 000c 6846     		mov	r0, sp
 1590              	.LVL174:
 1591 000e FFF7FEFF 		bl	mrbc_instance_new
 1592              	.LVL175:
 1593 0012 9DE80F00 		ldmia	sp, {r0, r1, r2, r3}
 1594 0016 84E80F00 		stmia	r4, {r0, r1, r2, r3}
 270:rrt0.c        **** 
 1595              		.loc 1 270 0
 1596 001a 1AB1     		cbz	r2, .L126
 1597 001c 1046     		mov	r0, r2
 272:rrt0.c        **** }
 1598              		.loc 1 272 0
 1599 001e 0C30     		adds	r0, r0, #12
 1600 0020 FFF7FEFF 		bl	mrbc_mutex_init
 1601              	.LVL176:
 1602              	.L126:
 273:rrt0.c        **** 
 1603              		.loc 1 273 0
 1604 0024 05B0     		add	sp, sp, #20
 1605              		.cfi_def_cfa_offset 12
ARM GAS  C:\Users\164\AppData\Local\Temp\ccs996fP.s 			page 42


 1606              		@ sp needed
 1607 0026 30BD     		pop	{r4, r5, pc}
 1608              		.cfi_endproc
 1609              	.LFE90:
 1610              		.size	c_mutex_new, .-c_mutex_new
 1611              		.section	.text.mrbc_mutex_lock,"ax",%progbits
 1612              		.align	2
 1613              		.global	mrbc_mutex_lock
 1614              		.thumb
 1615              		.thumb_func
 1616              		.type	mrbc_mutex_lock, %function
 1617              	mrbc_mutex_lock:
 1618              	.LFB107:
 662:rrt0.c        **** 
 663:rrt0.c        **** 
 664:rrt0.c        **** //================================================================
 665:rrt0.c        **** /*! mutex lock
 666:rrt0.c        **** 
 667:rrt0.c        **** */
 668:rrt0.c        **** int mrbc_mutex_lock( mrbc_mutex *mutex, mrbc_tcb *tcb )
 669:rrt0.c        **** {
 1619              		.loc 1 669 0
 1620              		.cfi_startproc
 1621              		@ args = 0, pretend = 0, frame = 0
 1622              		@ frame_needed = 0, uses_anonymous_args = 0
 1623              	.LVL177:
 670:rrt0.c        ****   MRBC_MUTEX_TRACE("mutex lock / MUTEX: %p TCB: %p",  mutex, tcb );
 671:rrt0.c        **** 
 672:rrt0.c        ****   int ret = 0;
 673:rrt0.c        ****   hal_disable_irq();
 1624              		.loc 1 673 0
 1625              		.syntax unified
 1626              	@ 673 "rrt0.c" 1
 1627 0000 72B6     		CPSID   i
 1628              	@ 0 "" 2
 674:rrt0.c        **** 
 675:rrt0.c        ****   // Try lock mutex;
 676:rrt0.c        ****   if( mutex->lock == 0 ) {      // a future does use TAS?
 1629              		.loc 1 676 0
 1630              		.thumb
 1631              		.syntax unified
 1632 0002 0368     		ldr	r3, [r0]
 1633 0004 2BB9     		cbnz	r3, .L130
 677:rrt0.c        ****     mutex->lock = 1;
 1634              		.loc 1 677 0
 1635 0006 0123     		movs	r3, #1
 1636 0008 0360     		str	r3, [r0]
 678:rrt0.c        ****     mutex->tcb = tcb;
 1637              		.loc 1 678 0
 1638 000a 4160     		str	r1, [r0, #4]
 672:rrt0.c        ****   hal_disable_irq();
 1639              		.loc 1 672 0
 1640 000c 0020     		movs	r0, #0
 1641              	.LVL178:
 1642              	.L134:
 679:rrt0.c        ****     MRBC_MUTEX_TRACE("  lock OK\n" );
 680:rrt0.c        ****     goto DONE;
ARM GAS  C:\Users\164\AppData\Local\Temp\ccs996fP.s 			page 43


 681:rrt0.c        ****   }
 682:rrt0.c        ****   MRBC_MUTEX_TRACE("  lock FAIL\n" );
 683:rrt0.c        **** 
 684:rrt0.c        ****   // Can't lock mutex
 685:rrt0.c        ****   // check recursive lock.
 686:rrt0.c        ****   if( mutex->tcb == tcb ) {
 687:rrt0.c        ****     ret = 1;
 688:rrt0.c        ****     goto DONE;
 689:rrt0.c        ****   }
 690:rrt0.c        **** 
 691:rrt0.c        ****   // To WAITING state.
 692:rrt0.c        ****   q_delete_task(tcb);
 693:rrt0.c        ****   tcb->state  = TASKSTATE_WAITING;
 694:rrt0.c        ****   tcb->reason = TASKREASON_MUTEX;
 695:rrt0.c        ****   tcb->mutex = mutex;
 696:rrt0.c        ****   q_insert_task(tcb);
 697:rrt0.c        ****   tcb->vm.flag_preemption = 1;
 698:rrt0.c        **** 
 699:rrt0.c        ****  DONE:
 700:rrt0.c        ****   hal_enable_irq();
 1643              		.loc 1 700 0
 1644              		.syntax unified
 1645              	@ 700 "rrt0.c" 1
 1646 000e 62B6     		CPSIE   i
 1647              	@ 0 "" 2
 701:rrt0.c        **** 
 702:rrt0.c        ****   return ret;
 703:rrt0.c        **** }
 1648              		.loc 1 703 0
 1649              		.thumb
 1650              		.syntax unified
 1651 0010 7047     		bx	lr
 1652              	.LVL179:
 1653              	.L130:
 686:rrt0.c        ****     ret = 1;
 1654              		.loc 1 686 0
 1655 0012 4368     		ldr	r3, [r0, #4]
 1656 0014 9942     		cmp	r1, r3
 1657 0016 11D0     		beq	.L132
 669:rrt0.c        ****   MRBC_MUTEX_TRACE("mutex lock / MUTEX: %p TCB: %p",  mutex, tcb );
 1658              		.loc 1 669 0
 1659 0018 70B5     		push	{r4, r5, r6, lr}
 1660              		.cfi_def_cfa_offset 16
 1661              		.cfi_offset 4, -16
 1662              		.cfi_offset 5, -12
 1663              		.cfi_offset 6, -8
 1664              		.cfi_offset 14, -4
 1665 001a 0C46     		mov	r4, r1
 1666 001c 0546     		mov	r5, r0
 692:rrt0.c        ****   tcb->state  = TASKSTATE_WAITING;
 1667              		.loc 1 692 0
 1668 001e 0846     		mov	r0, r1
 1669              	.LVL180:
 1670 0020 FFF7FEFF 		bl	q_delete_task
 1671              	.LVL181:
 693:rrt0.c        ****   tcb->reason = TASKREASON_MUTEX;
 1672              		.loc 1 693 0
ARM GAS  C:\Users\164\AppData\Local\Temp\ccs996fP.s 			page 44


 1673 0024 0423     		movs	r3, #4
 1674 0026 E371     		strb	r3, [r4, #7]
 694:rrt0.c        ****   tcb->mutex = mutex;
 1675              		.loc 1 694 0
 1676 0028 0126     		movs	r6, #1
 1677 002a 2672     		strb	r6, [r4, #8]
 695:rrt0.c        ****   q_insert_task(tcb);
 1678              		.loc 1 695 0
 1679 002c E560     		str	r5, [r4, #12]
 696:rrt0.c        ****   tcb->vm.flag_preemption = 1;
 1680              		.loc 1 696 0
 1681 002e 2046     		mov	r0, r4
 1682 0030 FFF7FEFF 		bl	q_insert_task
 1683              	.LVL182:
 697:rrt0.c        **** 
 1684              		.loc 1 697 0
 1685 0034 84F87866 		strb	r6, [r4, #1656]
 672:rrt0.c        ****   hal_disable_irq();
 1686              		.loc 1 672 0
 1687 0038 0020     		movs	r0, #0
 1688 003a 01E0     		b	.L131
 1689              	.LVL183:
 1690              	.L132:
 1691              		.cfi_def_cfa_offset 0
 1692              		.cfi_restore 4
 1693              		.cfi_restore 5
 1694              		.cfi_restore 6
 1695              		.cfi_restore 14
 687:rrt0.c        ****     goto DONE;
 1696              		.loc 1 687 0
 1697 003c 0120     		movs	r0, #1
 1698              	.LVL184:
 1699 003e E6E7     		b	.L134
 1700              	.LVL185:
 1701              	.L131:
 1702              		.cfi_def_cfa_offset 16
 1703              		.cfi_offset 4, -16
 1704              		.cfi_offset 5, -12
 1705              		.cfi_offset 6, -8
 1706              		.cfi_offset 14, -4
 700:rrt0.c        **** 
 1707              		.loc 1 700 0
 1708              		.syntax unified
 1709              	@ 700 "rrt0.c" 1
 1710 0040 62B6     		CPSIE   i
 1711              	@ 0 "" 2
 1712              		.loc 1 703 0
 1713              		.thumb
 1714              		.syntax unified
 1715 0042 70BD     		pop	{r4, r5, r6, pc}
 1716              		.cfi_endproc
 1717              	.LFE107:
 1718              		.size	mrbc_mutex_lock, .-mrbc_mutex_lock
 1719              		.section	.text.c_mutex_lock,"ax",%progbits
 1720              		.align	2
 1721              		.thumb
 1722              		.thumb_func
ARM GAS  C:\Users\164\AppData\Local\Temp\ccs996fP.s 			page 45


 1723              		.type	c_mutex_lock, %function
 1724              	c_mutex_lock:
 1725              	.LFB91:
 281:rrt0.c        ****   int r = mrbc_mutex_lock( (mrbc_mutex *)v->instance->data, VM2TCB(vm) );
 1726              		.loc 1 281 0
 1727              		.cfi_startproc
 1728              		@ args = 0, pretend = 0, frame = 0
 1729              		@ frame_needed = 0, uses_anonymous_args = 0
 1730              	.LVL186:
 1731 0000 08B5     		push	{r3, lr}
 1732              		.cfi_def_cfa_offset 8
 1733              		.cfi_offset 3, -8
 1734              		.cfi_offset 14, -4
 282:rrt0.c        ****   if( r == 0 ) return;  // return self
 1735              		.loc 1 282 0
 1736 0002 8B68     		ldr	r3, [r1, #8]
 1737 0004 A0F11001 		sub	r1, r0, #16
 1738              	.LVL187:
 1739 0008 03F10C00 		add	r0, r3, #12
 1740              	.LVL188:
 1741 000c FFF7FEFF 		bl	mrbc_mutex_lock
 1742              	.LVL189:
 283:rrt0.c        **** 
 1743              		.loc 1 283 0
 1744 0010 30B1     		cbz	r0, .L135
 286:rrt0.c        **** }
 1745              		.loc 1 286 0
 1746 0012 044B     		ldr	r3, .L138
 1747 0014 044A     		ldr	r2, .L138+4
 1748 0016 4FF48F71 		mov	r1, #286
 1749 001a 0448     		ldr	r0, .L138+8
 1750              	.LVL190:
 1751 001c FFF7FEFF 		bl	__assert_func
 1752              	.LVL191:
 1753              	.L135:
 1754 0020 08BD     		pop	{r3, pc}
 1755              	.L139:
 1756 0022 00BF     		.align	2
 1757              	.L138:
 1758 0024 08010000 		.word	.LC20
 1759 0028 20000000 		.word	.LANCHOR1+32
 1760 002c 18000000 		.word	.LC1
 1761              		.cfi_endproc
 1762              	.LFE91:
 1763              		.size	c_mutex_lock, .-c_mutex_lock
 1764              		.section	.text.mrbc_mutex_unlock,"ax",%progbits
 1765              		.align	2
 1766              		.global	mrbc_mutex_unlock
 1767              		.thumb
 1768              		.thumb_func
 1769              		.type	mrbc_mutex_unlock, %function
 1770              	mrbc_mutex_unlock:
 1771              	.LFB108:
 704:rrt0.c        **** 
 705:rrt0.c        **** 
 706:rrt0.c        **** //================================================================
 707:rrt0.c        **** /*! mutex unlock
ARM GAS  C:\Users\164\AppData\Local\Temp\ccs996fP.s 			page 46


 708:rrt0.c        **** 
 709:rrt0.c        **** */
 710:rrt0.c        **** int mrbc_mutex_unlock( mrbc_mutex *mutex, mrbc_tcb *tcb )
 711:rrt0.c        **** {
 1772              		.loc 1 711 0
 1773              		.cfi_startproc
 1774              		@ args = 0, pretend = 0, frame = 0
 1775              		@ frame_needed = 0, uses_anonymous_args = 0
 1776              	.LVL192:
 712:rrt0.c        ****   MRBC_MUTEX_TRACE("mutex unlock / MUTEX: %p TCB: %p\n",  mutex, tcb );
 713:rrt0.c        **** 
 714:rrt0.c        ****   // check some parameters.
 715:rrt0.c        ****   if( !mutex->lock ) return 1;
 1777              		.loc 1 715 0
 1778 0000 0368     		ldr	r3, [r0]
 1779 0002 002B     		cmp	r3, #0
 1780 0004 30D0     		beq	.L151
 716:rrt0.c        ****   if( mutex->tcb != tcb ) return 2;
 1781              		.loc 1 716 0
 1782 0006 4368     		ldr	r3, [r0, #4]
 1783 0008 8B42     		cmp	r3, r1
 1784 000a 2FD1     		bne	.L152
 711:rrt0.c        ****   MRBC_MUTEX_TRACE("mutex unlock / MUTEX: %p TCB: %p\n",  mutex, tcb );
 1785              		.loc 1 711 0
 1786 000c 70B5     		push	{r4, r5, r6, lr}
 1787              		.cfi_def_cfa_offset 16
 1788              		.cfi_offset 4, -16
 1789              		.cfi_offset 5, -12
 1790              		.cfi_offset 6, -8
 1791              		.cfi_offset 14, -4
 1792 000e 0546     		mov	r5, r0
 1793              	.LVL193:
 717:rrt0.c        **** 
 718:rrt0.c        ****   // wakeup ONE waiting task.
 719:rrt0.c        ****   int flag_preemption = 0;
 720:rrt0.c        ****   hal_disable_irq();
 1794              		.loc 1 720 0
 1795              		.syntax unified
 1796              	@ 720 "rrt0.c" 1
 1797 0010 72B6     		CPSID   i
 1798              	@ 0 "" 2
 721:rrt0.c        ****   tcb = q_waiting_;
 1799              		.loc 1 721 0
 1800              		.thumb
 1801              		.syntax unified
 1802 0012 174B     		ldr	r3, .L155
 1803 0014 9C68     		ldr	r4, [r3, #8]
 1804              	.LVL194:
 722:rrt0.c        ****   while( tcb != NULL ) {
 1805              		.loc 1 722 0
 1806 0016 11E0     		b	.L142
 1807              	.L145:
 723:rrt0.c        ****     if( tcb->reason == TASKREASON_MUTEX && tcb->mutex == mutex ) {
 1808              		.loc 1 723 0
 1809 0018 237A     		ldrb	r3, [r4, #8]	@ zero_extendqisi2
 1810 001a 012B     		cmp	r3, #1
 1811 001c 0DD1     		bne	.L143
ARM GAS  C:\Users\164\AppData\Local\Temp\ccs996fP.s 			page 47


 1812              		.loc 1 723 0 is_stmt 0 discriminator 1
 1813 001e E368     		ldr	r3, [r4, #12]
 1814 0020 9D42     		cmp	r5, r3
 1815 0022 0AD1     		bne	.L143
 724:rrt0.c        ****       MRBC_MUTEX_TRACE("SW: TCB: %p\n", tcb );
 725:rrt0.c        ****       mutex->tcb = tcb;
 1816              		.loc 1 725 0 is_stmt 1
 1817 0024 6C60     		str	r4, [r5, #4]
 726:rrt0.c        ****       q_delete_task(tcb);
 1818              		.loc 1 726 0
 1819 0026 2046     		mov	r0, r4
 1820              	.LVL195:
 1821 0028 FFF7FEFF 		bl	q_delete_task
 1822              	.LVL196:
 727:rrt0.c        ****       tcb->state = TASKSTATE_READY;
 1823              		.loc 1 727 0
 1824 002c 0126     		movs	r6, #1
 1825 002e E671     		strb	r6, [r4, #7]
 728:rrt0.c        ****       q_insert_task(tcb);
 1826              		.loc 1 728 0
 1827 0030 2046     		mov	r0, r4
 1828 0032 FFF7FEFF 		bl	q_insert_task
 1829              	.LVL197:
 729:rrt0.c        ****       flag_preemption = 1;
 1830              		.loc 1 729 0
 1831 0036 3346     		mov	r3, r6
 730:rrt0.c        ****       break;
 1832              		.loc 1 730 0
 1833 0038 03E0     		b	.L144
 1834              	.LVL198:
 1835              	.L143:
 731:rrt0.c        ****     }
 732:rrt0.c        ****     tcb = tcb->next;
 1836              		.loc 1 732 0
 1837 003a 2468     		ldr	r4, [r4]
 1838              	.LVL199:
 1839              	.L142:
 722:rrt0.c        ****     if( tcb->reason == TASKREASON_MUTEX && tcb->mutex == mutex ) {
 1840              		.loc 1 722 0
 1841 003c 002C     		cmp	r4, #0
 1842 003e EBD1     		bne	.L145
 719:rrt0.c        ****   hal_disable_irq();
 1843              		.loc 1 719 0
 1844 0040 0023     		movs	r3, #0
 1845              	.LVL200:
 1846              	.L144:
 733:rrt0.c        ****   }
 734:rrt0.c        **** 
 735:rrt0.c        ****   if( flag_preemption ) {
 1847              		.loc 1 735 0
 1848 0042 63B1     		cbz	r3, .L146
 736:rrt0.c        ****     tcb = q_ready_;
 1849              		.loc 1 736 0
 1850 0044 0A4B     		ldr	r3, .L155
 1851              	.LVL201:
 1852 0046 5B68     		ldr	r3, [r3, #4]
 1853              	.LVL202:
ARM GAS  C:\Users\164\AppData\Local\Temp\ccs996fP.s 			page 48


 737:rrt0.c        ****     while( tcb != NULL ) {
 1854              		.loc 1 737 0
 1855 0048 06E0     		b	.L147
 1856              	.L149:
 738:rrt0.c        ****       if( tcb->state == TASKSTATE_RUNNING ) tcb->vm.flag_preemption = 1;
 1857              		.loc 1 738 0
 1858 004a DA79     		ldrb	r2, [r3, #7]	@ zero_extendqisi2
 1859 004c 032A     		cmp	r2, #3
 1860 004e 02D1     		bne	.L148
 1861              		.loc 1 738 0 is_stmt 0 discriminator 1
 1862 0050 0122     		movs	r2, #1
 1863 0052 83F87826 		strb	r2, [r3, #1656]
 1864              	.L148:
 739:rrt0.c        ****       tcb = tcb->next;
 1865              		.loc 1 739 0 is_stmt 1
 1866 0056 1B68     		ldr	r3, [r3]
 1867              	.LVL203:
 1868              	.L147:
 737:rrt0.c        ****     while( tcb != NULL ) {
 1869              		.loc 1 737 0
 1870 0058 002B     		cmp	r3, #0
 1871 005a F6D1     		bne	.L149
 1872 005c 01E0     		b	.L150
 1873              	.LVL204:
 1874              	.L146:
 740:rrt0.c        ****     }
 741:rrt0.c        ****   }
 742:rrt0.c        ****   else {
 743:rrt0.c        ****     // unlock mutex
 744:rrt0.c        ****     MRBC_MUTEX_TRACE("mutex unlock all.\n" );
 745:rrt0.c        ****     mutex->lock = 0;
 1875              		.loc 1 745 0
 1876 005e 0023     		movs	r3, #0
 1877              	.LVL205:
 1878 0060 2B60     		str	r3, [r5]
 1879              	.LVL206:
 1880              	.L150:
 746:rrt0.c        ****   }
 747:rrt0.c        **** 
 748:rrt0.c        ****   hal_enable_irq();
 1881              		.loc 1 748 0
 1882              		.syntax unified
 1883              	@ 748 "rrt0.c" 1
 1884 0062 62B6     		CPSIE   i
 1885              	@ 0 "" 2
 749:rrt0.c        **** 
 750:rrt0.c        ****   return 0;
 1886              		.loc 1 750 0
 1887              		.thumb
 1888              		.syntax unified
 1889 0064 0020     		movs	r0, #0
 1890 0066 70BD     		pop	{r4, r5, r6, pc}
 1891              	.LVL207:
 1892              	.L151:
 1893              		.cfi_def_cfa_offset 0
 1894              		.cfi_restore 4
 1895              		.cfi_restore 5
ARM GAS  C:\Users\164\AppData\Local\Temp\ccs996fP.s 			page 49


 1896              		.cfi_restore 6
 1897              		.cfi_restore 14
 715:rrt0.c        ****   if( mutex->tcb != tcb ) return 2;
 1898              		.loc 1 715 0
 1899 0068 0120     		movs	r0, #1
 1900              	.LVL208:
 1901 006a 7047     		bx	lr
 1902              	.LVL209:
 1903              	.L152:
 716:rrt0.c        **** 
 1904              		.loc 1 716 0
 1905 006c 0220     		movs	r0, #2
 1906              	.LVL210:
 1907 006e 7047     		bx	lr
 1908              	.L156:
 1909              		.align	2
 1910              	.L155:
 1911 0070 00000000 		.word	.LANCHOR0
 1912              		.cfi_endproc
 1913              	.LFE108:
 1914              		.size	mrbc_mutex_unlock, .-mrbc_mutex_unlock
 1915              		.section	.text.c_mutex_unlock,"ax",%progbits
 1916              		.align	2
 1917              		.thumb
 1918              		.thumb_func
 1919              		.type	c_mutex_unlock, %function
 1920              	c_mutex_unlock:
 1921              	.LFB92:
 295:rrt0.c        ****   int r = mrbc_mutex_unlock( (mrbc_mutex *)v->instance->data, VM2TCB(vm) );
 1922              		.loc 1 295 0
 1923              		.cfi_startproc
 1924              		@ args = 0, pretend = 0, frame = 0
 1925              		@ frame_needed = 0, uses_anonymous_args = 0
 1926              	.LVL211:
 1927 0000 08B5     		push	{r3, lr}
 1928              		.cfi_def_cfa_offset 8
 1929              		.cfi_offset 3, -8
 1930              		.cfi_offset 14, -4
 296:rrt0.c        ****   if( r == 0 ) return;  // return self
 1931              		.loc 1 296 0
 1932 0002 8B68     		ldr	r3, [r1, #8]
 1933 0004 A0F11001 		sub	r1, r0, #16
 1934              	.LVL212:
 1935 0008 03F10C00 		add	r0, r3, #12
 1936              	.LVL213:
 1937 000c FFF7FEFF 		bl	mrbc_mutex_unlock
 1938              	.LVL214:
 297:rrt0.c        **** 
 1939              		.loc 1 297 0
 1940 0010 30B1     		cbz	r0, .L157
 300:rrt0.c        **** }
 1941              		.loc 1 300 0
 1942 0012 044B     		ldr	r3, .L160
 1943 0014 044A     		ldr	r2, .L160+4
 1944 0016 4FF49671 		mov	r1, #300
 1945 001a 0448     		ldr	r0, .L160+8
 1946              	.LVL215:
ARM GAS  C:\Users\164\AppData\Local\Temp\ccs996fP.s 			page 50


 1947 001c FFF7FEFF 		bl	__assert_func
 1948              	.LVL216:
 1949              	.L157:
 1950 0020 08BD     		pop	{r3, pc}
 1951              	.L161:
 1952 0022 00BF     		.align	2
 1953              	.L160:
 1954 0024 24010000 		.word	.LC21
 1955 0028 30000000 		.word	.LANCHOR1+48
 1956 002c 18000000 		.word	.LC1
 1957              		.cfi_endproc
 1958              	.LFE92:
 1959              		.size	c_mutex_unlock, .-c_mutex_unlock
 1960              		.section	.text.mrbc_mutex_trylock,"ax",%progbits
 1961              		.align	2
 1962              		.global	mrbc_mutex_trylock
 1963              		.thumb
 1964              		.thumb_func
 1965              		.type	mrbc_mutex_trylock, %function
 1966              	mrbc_mutex_trylock:
 1967              	.LFB109:
 751:rrt0.c        **** }
 752:rrt0.c        **** 
 753:rrt0.c        **** 
 754:rrt0.c        **** //================================================================
 755:rrt0.c        **** /*! mutex trylock
 756:rrt0.c        **** 
 757:rrt0.c        **** */
 758:rrt0.c        **** int mrbc_mutex_trylock( mrbc_mutex *mutex, mrbc_tcb *tcb )
 759:rrt0.c        **** {
 1968              		.loc 1 759 0
 1969              		.cfi_startproc
 1970              		@ args = 0, pretend = 0, frame = 0
 1971              		@ frame_needed = 0, uses_anonymous_args = 0
 1972              		@ link register save eliminated.
 1973              	.LVL217:
 760:rrt0.c        ****   MRBC_MUTEX_TRACE("mutex try lock / MUTEX: %p TCB: %p",  mutex, tcb );
 761:rrt0.c        **** 
 762:rrt0.c        ****   int ret;
 763:rrt0.c        ****   hal_disable_irq();
 1974              		.loc 1 763 0
 1975              		.syntax unified
 1976              	@ 763 "rrt0.c" 1
 1977 0000 72B6     		CPSID   i
 1978              	@ 0 "" 2
 764:rrt0.c        **** 
 765:rrt0.c        ****   if( mutex->lock == 0 ) {
 1979              		.loc 1 765 0
 1980              		.thumb
 1981              		.syntax unified
 1982 0002 0368     		ldr	r3, [r0]
 1983 0004 23B9     		cbnz	r3, .L164
 766:rrt0.c        ****     mutex->lock = 1;
 1984              		.loc 1 766 0
 1985 0006 0123     		movs	r3, #1
 1986 0008 0360     		str	r3, [r0]
 767:rrt0.c        ****     mutex->tcb = tcb;
ARM GAS  C:\Users\164\AppData\Local\Temp\ccs996fP.s 			page 51


 1987              		.loc 1 767 0
 1988 000a 4160     		str	r1, [r0, #4]
 1989              	.LVL218:
 768:rrt0.c        ****     ret = 0;
 1990              		.loc 1 768 0
 1991 000c 0020     		movs	r0, #0
 1992              	.LVL219:
 1993 000e 00E0     		b	.L163
 1994              	.LVL220:
 1995              	.L164:
 769:rrt0.c        ****     MRBC_MUTEX_TRACE("  trylock OK\n" );
 770:rrt0.c        ****   }
 771:rrt0.c        ****   else {
 772:rrt0.c        ****     MRBC_MUTEX_TRACE("  trylock FAIL\n" );
 773:rrt0.c        ****     ret = 1;
 1996              		.loc 1 773 0
 1997 0010 0120     		movs	r0, #1
 1998              	.LVL221:
 1999              	.L163:
 774:rrt0.c        ****   }
 775:rrt0.c        **** 
 776:rrt0.c        ****   hal_enable_irq();
 2000              		.loc 1 776 0
 2001              		.syntax unified
 2002              	@ 776 "rrt0.c" 1
 2003 0012 62B6     		CPSIE   i
 2004              	@ 0 "" 2
 777:rrt0.c        ****   return ret;
 778:rrt0.c        **** }
 2005              		.loc 1 778 0
 2006              		.thumb
 2007              		.syntax unified
 2008 0014 7047     		bx	lr
 2009              		.cfi_endproc
 2010              	.LFE109:
 2011              		.size	mrbc_mutex_trylock, .-mrbc_mutex_trylock
 2012 0016 00BF     		.section	.text.c_mutex_trylock,"ax",%progbits
 2013              		.align	2
 2014              		.thumb
 2015              		.thumb_func
 2016              		.type	c_mutex_trylock, %function
 2017              	c_mutex_trylock:
 2018              	.LFB93:
 309:rrt0.c        ****   int r = mrbc_mutex_trylock( (mrbc_mutex *)v->instance->data, VM2TCB(vm) );
 2019              		.loc 1 309 0
 2020              		.cfi_startproc
 2021              		@ args = 0, pretend = 0, frame = 0
 2022              		@ frame_needed = 0, uses_anonymous_args = 0
 2023              	.LVL222:
 2024 0000 10B5     		push	{r4, lr}
 2025              		.cfi_def_cfa_offset 8
 2026              		.cfi_offset 4, -8
 2027              		.cfi_offset 14, -4
 2028 0002 0C46     		mov	r4, r1
 310:rrt0.c        ****   if( r == 0 ) {
 2029              		.loc 1 310 0
 2030 0004 8B68     		ldr	r3, [r1, #8]
ARM GAS  C:\Users\164\AppData\Local\Temp\ccs996fP.s 			page 52


 2031 0006 A0F11001 		sub	r1, r0, #16
 2032              	.LVL223:
 2033 000a 03F10C00 		add	r0, r3, #12
 2034              	.LVL224:
 2035 000e FFF7FEFF 		bl	mrbc_mutex_trylock
 2036              	.LVL225:
 311:rrt0.c        ****     SET_TRUE_RETURN();
 2037              		.loc 1 311 0
 2038 0012 28B9     		cbnz	r0, .L166
 312:rrt0.c        ****   } else {
 2039              		.loc 1 312 0
 2040 0014 2046     		mov	r0, r4
 2041              	.LVL226:
 2042 0016 FFF7FEFF 		bl	mrbc_dec_ref_counter
 2043              	.LVL227:
 2044 001a 0323     		movs	r3, #3
 2045 001c 2370     		strb	r3, [r4]
 2046 001e 10BD     		pop	{r4, pc}
 2047              	.LVL228:
 2048              	.L166:
 314:rrt0.c        ****   }
 2049              		.loc 1 314 0
 2050 0020 2046     		mov	r0, r4
 2051              	.LVL229:
 2052 0022 FFF7FEFF 		bl	mrbc_dec_ref_counter
 2053              	.LVL230:
 2054 0026 0223     		movs	r3, #2
 2055 0028 2370     		strb	r3, [r4]
 2056 002a 10BD     		pop	{r4, pc}
 2057              		.cfi_endproc
 2058              	.LFE93:
 2059              		.size	c_mutex_trylock, .-c_mutex_trylock
 2060              		.global	TIMESLICE_TICK
 2061              		.section	.rodata
 2062              		.align	2
 2063              		.set	.LANCHOR1,. + 0
 2064              		.type	__func__.7098, %object
 2065              		.size	__func__.7098, 14
 2066              	__func__.7098:
 2067 0000 715F6465 		.ascii	"q_delete_task\000"
 2067      6C657465 
 2067      5F746173 
 2067      6B00
 2068 000e 0000     		.space	2
 2069              		.type	__func__.7084, %object
 2070              		.size	__func__.7084, 14
 2071              	__func__.7084:
 2072 0010 715F696E 		.ascii	"q_insert_task\000"
 2072      73657274 
 2072      5F746173 
 2072      6B00
 2073 001e 0000     		.space	2
 2074              		.type	__func__.7161, %object
 2075              		.size	__func__.7161, 13
 2076              	__func__.7161:
 2077 0020 635F6D75 		.ascii	"c_mutex_lock\000"
 2077      7465785F 
ARM GAS  C:\Users\164\AppData\Local\Temp\ccs996fP.s 			page 53


 2077      6C6F636B 
 2077      00
 2078 002d 000000   		.space	3
 2079              		.type	__func__.7168, %object
 2080              		.size	__func__.7168, 15
 2081              	__func__.7168:
 2082 0030 635F6D75 		.ascii	"c_mutex_unlock\000"
 2082      7465785F 
 2082      756E6C6F 
 2082      636B00
 2083 003f 00       		.space	1
 2084              		.type	TIMESLICE_TICK, %object
 2085              		.size	TIMESLICE_TICK, 4
 2086              	TIMESLICE_TICK:
 2087 0040 0A000000 		.word	10
 2088              		.section	.rodata.str1.4,"aMS",%progbits,1
 2089              		.align	2
 2090              	.LC0:
 2091 0000 21225772 		.ascii	"!\"Wrong task state.\"\000"
 2091      6F6E6720 
 2091      7461736B 
 2091      20737461 
 2091      74652E22 
 2092 0015 000000   		.space	3
 2093              	.LC1:
 2094 0018 72727430 		.ascii	"rrt0.c\000"
 2094      2E6300
 2095 001f 00       		.space	1
 2096              	.LC2:
 2097 0020 705F7463 		.ascii	"p_tcb->next != p_tcb\000"
 2097      622D3E6E 
 2097      65787420 
 2097      213D2070 
 2097      5F746362 
 2098 0035 000000   		.space	3
 2099              	.LC3:
 2100 0038 702D3E6E 		.ascii	"p->next != p\000"
 2100      65787420 
 2100      213D2070 
 2100      00
 2101 0045 000000   		.space	3
 2102              	.LC4:
 2103 0048 736C6565 		.ascii	"sleep\000"
 2103      7000
 2104 004e 0000     		.space	2
 2105              	.LC5:
 2106 0050 736C6565 		.ascii	"sleep_ms\000"
 2106      705F6D73 
 2106      00
 2107 0059 000000   		.space	3
 2108              	.LC6:
 2109 005c 72656C69 		.ascii	"relinquish\000"
 2109      6E717569 
 2109      736800
 2110 0067 00       		.space	1
 2111              	.LC7:
 2112 0068 6368616E 		.ascii	"change_priority\000"
ARM GAS  C:\Users\164\AppData\Local\Temp\ccs996fP.s 			page 54


 2112      67655F70 
 2112      72696F72 
 2112      69747900 
 2113              	.LC8:
 2114 0078 73757370 		.ascii	"suspend_task\000"
 2114      656E645F 
 2114      7461736B 
 2114      00
 2115 0085 000000   		.space	3
 2116              	.LC9:
 2117 0088 72657375 		.ascii	"resume_task\000"
 2117      6D655F74 
 2117      61736B00 
 2118              	.LC10:
 2119 0094 6765745F 		.ascii	"get_tcb\000"
 2119      74636200 
 2120              	.LC11:
 2121 009c 4D757465 		.ascii	"Mutex\000"
 2121      7800
 2122 00a2 0000     		.space	2
 2123              	.LC12:
 2124 00a4 6E657700 		.ascii	"new\000"
 2125              	.LC13:
 2126 00a8 6C6F636B 		.ascii	"lock\000"
 2126      00
 2127 00ad 000000   		.space	3
 2128              	.LC14:
 2129 00b0 756E6C6F 		.ascii	"unlock\000"
 2129      636B00
 2130 00b7 00       		.space	1
 2131              	.LC15:
 2132 00b8 7472795F 		.ascii	"try_lock\000"
 2132      6C6F636B 
 2132      00
 2133 00c1 000000   		.space	3
 2134              	.LC16:
 2135 00c4 564D00   		.ascii	"VM\000"
 2136 00c7 00       		.space	1
 2137              	.LC17:
 2138 00c8 7469636B 		.ascii	"tick\000"
 2138      00
 2139 00cd 000000   		.space	3
 2140              	.LC18:
 2141 00d0 4572726F 		.ascii	"Error: Can't assign VM-ID.\012\000"
 2141      723A2043 
 2141      616E2774 
 2141      20617373 
 2141      69676E20 
 2142              	.LC19:
 2143 00ec 4572726F 		.ascii	"Error: Illegal bytecode.\012\000"
 2143      723A2049 
 2143      6C6C6567 
 2143      616C2062 
 2143      79746563 
 2144 0106 0000     		.space	2
 2145              	.LC20:
 2146 0108 21224D75 		.ascii	"!\"Mutex recursive lock.\"\000"
ARM GAS  C:\Users\164\AppData\Local\Temp\ccs996fP.s 			page 55


 2146      74657820 
 2146      72656375 
 2146      72736976 
 2146      65206C6F 
 2147 0121 000000   		.space	3
 2148              	.LC21:
 2149 0124 21224D75 		.ascii	"!\"Mutex unlock error. not owner or not locked.\"\000"
 2149      74657820 
 2149      756E6C6F 
 2149      636B2065 
 2149      72726F72 
 2150              		.bss
 2151              		.align	2
 2152              		.set	.LANCHOR0,. + 0
 2153              		.type	q_dormant_, %object
 2154              		.size	q_dormant_, 4
 2155              	q_dormant_:
 2156 0000 00000000 		.space	4
 2157              		.type	q_ready_, %object
 2158              		.size	q_ready_, 4
 2159              	q_ready_:
 2160 0004 00000000 		.space	4
 2161              		.type	q_waiting_, %object
 2162              		.size	q_waiting_, 4
 2163              	q_waiting_:
 2164 0008 00000000 		.space	4
 2165              		.type	q_suspended_, %object
 2166              		.size	q_suspended_, 4
 2167              	q_suspended_:
 2168 000c 00000000 		.space	4
 2169              		.type	tick_, %object
 2170              		.size	tick_, 4
 2171              	tick_:
 2172 0010 00000000 		.space	4
 2173              		.text
 2174              	.Letext0:
 2175              		.file 2 "c:\\program files (x86)\\cypress\\psoc creator\\4.2\\psoc creator\\import\\gnu\\arm\\5.4.
 2176              		.file 3 "c:\\program files (x86)\\cypress\\psoc creator\\4.2\\psoc creator\\import\\gnu\\arm\\5.4.
 2177              		.file 4 "value.h"
 2178              		.file 5 "vm.h"
 2179              		.file 6 "rrt0.h"
 2180              		.file 7 "static.h"
 2181              		.file 8 "Generated_Source\\PSoC5/core_cm3.h"
 2182              		.file 9 "c:\\program files (x86)\\cypress\\psoc creator\\4.2\\psoc creator\\import\\gnu\\arm\\5.4.
 2183              		.file 10 "alloc.h"
 2184              		.file 11 "class.h"
 2185              		.file 12 "console.h"
 2186              		.file 13 "load.h"
 2187              		.file 14 "Generated_Source\\PSoC5/cyPm.h"