ARM GAS  C:\Users\164\AppData\Local\Temp\ccuHDKDv.s 			page 1


   1              		.syntax unified
   2              		.cpu cortex-m3
   3              		.fpu softvfp
   4              		.eabi_attribute 20, 1
   5              		.eabi_attribute 21, 1
   6              		.eabi_attribute 23, 3
   7              		.eabi_attribute 24, 1
   8              		.eabi_attribute 25, 1
   9              		.eabi_attribute 26, 1
  10              		.eabi_attribute 30, 1
  11              		.eabi_attribute 34, 1
  12              		.eabi_attribute 18, 4
  13              		.thumb
  14              		.syntax unified
  15              		.file	"symbol.c"
  16              		.text
  17              	.Ltext0:
  18              		.cfi_sections	.debug_frame
  19              		.section	.text.search_index,"ax",%progbits
  20              		.align	2
  21              		.thumb
  22              		.thumb_func
  23              		.type	search_index, %function
  24              	search_index:
  25              	.LFB81:
  26              		.file 1 "..\\..\\mruby_c2\\Design01.cydsn\\symbol.c"
   1:..\..\mruby_c2\Design01.cydsn/symbol.c **** /*! @file
   2:..\..\mruby_c2\Design01.cydsn/symbol.c ****   @brief
   3:..\..\mruby_c2\Design01.cydsn/symbol.c ****   mruby/c Symbol class
   4:..\..\mruby_c2\Design01.cydsn/symbol.c **** 
   5:..\..\mruby_c2\Design01.cydsn/symbol.c ****   <pre>
   6:..\..\mruby_c2\Design01.cydsn/symbol.c ****   Copyright (C) 2015-2018 Kyushu Institute of Technology.
   7:..\..\mruby_c2\Design01.cydsn/symbol.c ****   Copyright (C) 2015-2018 Shimane IT Open-Innovation Center.
   8:..\..\mruby_c2\Design01.cydsn/symbol.c **** 
   9:..\..\mruby_c2\Design01.cydsn/symbol.c ****   This file is distributed under BSD 3-Clause License.
  10:..\..\mruby_c2\Design01.cydsn/symbol.c **** 
  11:..\..\mruby_c2\Design01.cydsn/symbol.c ****   </pre>
  12:..\..\mruby_c2\Design01.cydsn/symbol.c **** */
  13:..\..\mruby_c2\Design01.cydsn/symbol.c **** 
  14:..\..\mruby_c2\Design01.cydsn/symbol.c **** #include "vm_config.h"
  15:..\..\mruby_c2\Design01.cydsn/symbol.c **** #include <stdint.h>
  16:..\..\mruby_c2\Design01.cydsn/symbol.c **** #include <string.h>
  17:..\..\mruby_c2\Design01.cydsn/symbol.c **** #include <assert.h>
  18:..\..\mruby_c2\Design01.cydsn/symbol.c **** 
  19:..\..\mruby_c2\Design01.cydsn/symbol.c **** #include "value.h"
  20:..\..\mruby_c2\Design01.cydsn/symbol.c **** #include "vm.h"
  21:..\..\mruby_c2\Design01.cydsn/symbol.c **** #include "alloc.h"
  22:..\..\mruby_c2\Design01.cydsn/symbol.c **** #include "static.h"
  23:..\..\mruby_c2\Design01.cydsn/symbol.c **** #include "class.h"
  24:..\..\mruby_c2\Design01.cydsn/symbol.c **** #include "symbol.h"
  25:..\..\mruby_c2\Design01.cydsn/symbol.c **** #include "c_string.h"
  26:..\..\mruby_c2\Design01.cydsn/symbol.c **** #include "c_array.h"
  27:..\..\mruby_c2\Design01.cydsn/symbol.c **** #include "console.h"
  28:..\..\mruby_c2\Design01.cydsn/symbol.c **** 
  29:..\..\mruby_c2\Design01.cydsn/symbol.c **** 
  30:..\..\mruby_c2\Design01.cydsn/symbol.c **** #if !defined(MRBC_SYMBOL_SEARCH_LINER) && !defined(MRBC_SYMBOL_SEARCH_BTREE)
  31:..\..\mruby_c2\Design01.cydsn/symbol.c **** #define MRBC_SYMBOL_SEARCH_BTREE
ARM GAS  C:\Users\164\AppData\Local\Temp\ccuHDKDv.s 			page 2


  32:..\..\mruby_c2\Design01.cydsn/symbol.c **** #endif
  33:..\..\mruby_c2\Design01.cydsn/symbol.c **** 
  34:..\..\mruby_c2\Design01.cydsn/symbol.c **** #ifndef MRBC_SYMBOL_TABLE_INDEX_TYPE
  35:..\..\mruby_c2\Design01.cydsn/symbol.c **** #define MRBC_SYMBOL_TABLE_INDEX_TYPE	uint16_t
  36:..\..\mruby_c2\Design01.cydsn/symbol.c **** #endif
  37:..\..\mruby_c2\Design01.cydsn/symbol.c **** 
  38:..\..\mruby_c2\Design01.cydsn/symbol.c **** struct SYM_INDEX {
  39:..\..\mruby_c2\Design01.cydsn/symbol.c ****   uint16_t hash;	//!< hash value, returned by calc_hash().
  40:..\..\mruby_c2\Design01.cydsn/symbol.c **** #ifdef MRBC_SYMBOL_SEARCH_BTREE
  41:..\..\mruby_c2\Design01.cydsn/symbol.c ****   MRBC_SYMBOL_TABLE_INDEX_TYPE left;
  42:..\..\mruby_c2\Design01.cydsn/symbol.c ****   MRBC_SYMBOL_TABLE_INDEX_TYPE right;
  43:..\..\mruby_c2\Design01.cydsn/symbol.c **** #endif
  44:..\..\mruby_c2\Design01.cydsn/symbol.c ****   const char *cstr;	//!< point to the symbol string.
  45:..\..\mruby_c2\Design01.cydsn/symbol.c **** };
  46:..\..\mruby_c2\Design01.cydsn/symbol.c **** 
  47:..\..\mruby_c2\Design01.cydsn/symbol.c **** 
  48:..\..\mruby_c2\Design01.cydsn/symbol.c **** static struct SYM_INDEX sym_index[MAX_SYMBOLS_COUNT];
  49:..\..\mruby_c2\Design01.cydsn/symbol.c **** static int sym_index_pos;	// point to the last(free) sym_index array.
  50:..\..\mruby_c2\Design01.cydsn/symbol.c **** 
  51:..\..\mruby_c2\Design01.cydsn/symbol.c **** 
  52:..\..\mruby_c2\Design01.cydsn/symbol.c **** //================================================================
  53:..\..\mruby_c2\Design01.cydsn/symbol.c **** /*! search index table
  54:..\..\mruby_c2\Design01.cydsn/symbol.c ****  */
  55:..\..\mruby_c2\Design01.cydsn/symbol.c **** static int search_index( uint16_t hash, const char *str )
  56:..\..\mruby_c2\Design01.cydsn/symbol.c **** {
  27              		.loc 1 56 0
  28              		.cfi_startproc
  29              		@ args = 0, pretend = 0, frame = 0
  30              		@ frame_needed = 0, uses_anonymous_args = 0
  31              	.LVL0:
  32 0000 F8B5     		push	{r3, r4, r5, r6, r7, lr}
  33              		.cfi_def_cfa_offset 24
  34              		.cfi_offset 3, -24
  35              		.cfi_offset 4, -20
  36              		.cfi_offset 5, -16
  37              		.cfi_offset 6, -12
  38              		.cfi_offset 7, -8
  39              		.cfi_offset 14, -4
  40 0002 0646     		mov	r6, r0
  41 0004 0F46     		mov	r7, r1
  42              	.LVL1:
  57:..\..\mruby_c2\Design01.cydsn/symbol.c **** #ifdef MRBC_SYMBOL_SEARCH_LINER
  58:..\..\mruby_c2\Design01.cydsn/symbol.c ****   int i;
  59:..\..\mruby_c2\Design01.cydsn/symbol.c ****   for( i = 0; i < sym_index_pos; i++ ) {
  60:..\..\mruby_c2\Design01.cydsn/symbol.c ****     if( sym_index[i].hash == hash && strcmp(str, sym_index[i].cstr) == 0 ) {
  61:..\..\mruby_c2\Design01.cydsn/symbol.c ****       return i;
  62:..\..\mruby_c2\Design01.cydsn/symbol.c ****     }
  63:..\..\mruby_c2\Design01.cydsn/symbol.c ****   }
  64:..\..\mruby_c2\Design01.cydsn/symbol.c ****   return -1;
  65:..\..\mruby_c2\Design01.cydsn/symbol.c **** #endif
  66:..\..\mruby_c2\Design01.cydsn/symbol.c **** 
  67:..\..\mruby_c2\Design01.cydsn/symbol.c **** #ifdef MRBC_SYMBOL_SEARCH_BTREE
  68:..\..\mruby_c2\Design01.cydsn/symbol.c ****   int i = 0;
  43              		.loc 1 68 0
  44 0006 0024     		movs	r4, #0
  45              	.LVL2:
  46              	.L6:
ARM GAS  C:\Users\164\AppData\Local\Temp\ccuHDKDv.s 			page 3


  69:..\..\mruby_c2\Design01.cydsn/symbol.c ****   do {
  70:..\..\mruby_c2\Design01.cydsn/symbol.c ****     if( sym_index[i].hash == hash && strcmp(str, sym_index[i].cstr) == 0 ) {
  47              		.loc 1 70 0
  48 0008 04EB4402 		add	r2, r4, r4, lsl #1
  49 000c 9300     		lsls	r3, r2, #2
  50 000e 104A     		ldr	r2, .L9
  51 0010 D55A     		ldrh	r5, [r2, r3]
  52 0012 B542     		cmp	r5, r6
  53 0014 06D1     		bne	.L2
  54              		.loc 1 70 0 is_stmt 0 discriminator 1
  55 0016 0E4A     		ldr	r2, .L9
  56 0018 1344     		add	r3, r3, r2
  57 001a 9968     		ldr	r1, [r3, #8]
  58 001c 3846     		mov	r0, r7
  59 001e FFF7FEFF 		bl	strcmp
  60              	.LVL3:
  61 0022 98B1     		cbz	r0, .L7
  62              	.L2:
  71:..\..\mruby_c2\Design01.cydsn/symbol.c ****       return i;
  72:..\..\mruby_c2\Design01.cydsn/symbol.c ****     }
  73:..\..\mruby_c2\Design01.cydsn/symbol.c ****     if( hash < sym_index[i].hash ) {
  63              		.loc 1 73 0 is_stmt 1
  64 0024 B542     		cmp	r5, r6
  65 0026 06D9     		bls	.L4
  74:..\..\mruby_c2\Design01.cydsn/symbol.c ****       i = sym_index[i].left;
  66              		.loc 1 74 0
  67 0028 04EB4404 		add	r4, r4, r4, lsl #1
  68              	.LVL4:
  69 002c A300     		lsls	r3, r4, #2
  70 002e 084A     		ldr	r2, .L9
  71 0030 1344     		add	r3, r3, r2
  72 0032 5C88     		ldrh	r4, [r3, #2]
  73              	.LVL5:
  74 0034 05E0     		b	.L5
  75              	.L4:
  75:..\..\mruby_c2\Design01.cydsn/symbol.c ****     } else {
  76:..\..\mruby_c2\Design01.cydsn/symbol.c ****       i = sym_index[i].right;
  76              		.loc 1 76 0
  77 0036 04EB4404 		add	r4, r4, r4, lsl #1
  78              	.LVL6:
  79 003a A300     		lsls	r3, r4, #2
  80 003c 044A     		ldr	r2, .L9
  81 003e 1344     		add	r3, r3, r2
  82 0040 9C88     		ldrh	r4, [r3, #4]
  83              	.LVL7:
  84              	.L5:
  77:..\..\mruby_c2\Design01.cydsn/symbol.c ****     }
  78:..\..\mruby_c2\Design01.cydsn/symbol.c ****   } while( i != 0 );
  85              		.loc 1 78 0
  86 0042 002C     		cmp	r4, #0
  87 0044 E0D1     		bne	.L6
  79:..\..\mruby_c2\Design01.cydsn/symbol.c ****   return -1;
  88              		.loc 1 79 0
  89 0046 4FF0FF30 		mov	r0, #-1
  90 004a F8BD     		pop	{r3, r4, r5, r6, r7, pc}
  91              	.LVL8:
  92              	.L7:
ARM GAS  C:\Users\164\AppData\Local\Temp\ccuHDKDv.s 			page 4


  71:..\..\mruby_c2\Design01.cydsn/symbol.c ****     }
  93              		.loc 1 71 0
  94 004c 2046     		mov	r0, r4
  80:..\..\mruby_c2\Design01.cydsn/symbol.c **** #endif
  81:..\..\mruby_c2\Design01.cydsn/symbol.c **** }
  95              		.loc 1 81 0
  96 004e F8BD     		pop	{r3, r4, r5, r6, r7, pc}
  97              	.LVL9:
  98              	.L10:
  99              		.align	2
 100              	.L9:
 101 0050 00000000 		.word	.LANCHOR0
 102              		.cfi_endproc
 103              	.LFE81:
 104              		.size	search_index, .-search_index
 105              		.section	.text.add_index,"ax",%progbits
 106              		.align	2
 107              		.thumb
 108              		.thumb_func
 109              		.type	add_index, %function
 110              	add_index:
 111              	.LFB82:
  82:..\..\mruby_c2\Design01.cydsn/symbol.c **** 
  83:..\..\mruby_c2\Design01.cydsn/symbol.c **** 
  84:..\..\mruby_c2\Design01.cydsn/symbol.c **** //================================================================
  85:..\..\mruby_c2\Design01.cydsn/symbol.c **** /*! add to index table
  86:..\..\mruby_c2\Design01.cydsn/symbol.c ****  */
  87:..\..\mruby_c2\Design01.cydsn/symbol.c **** static int add_index( uint16_t hash, const char *str )
  88:..\..\mruby_c2\Design01.cydsn/symbol.c **** {
 112              		.loc 1 88 0
 113              		.cfi_startproc
 114              		@ args = 0, pretend = 0, frame = 0
 115              		@ frame_needed = 0, uses_anonymous_args = 0
 116              	.LVL10:
 117 0000 38B5     		push	{r3, r4, r5, lr}
 118              		.cfi_def_cfa_offset 16
 119              		.cfi_offset 3, -16
 120              		.cfi_offset 4, -12
 121              		.cfi_offset 5, -8
 122              		.cfi_offset 14, -4
  89:..\..\mruby_c2\Design01.cydsn/symbol.c ****   // check overflow.
  90:..\..\mruby_c2\Design01.cydsn/symbol.c ****   if( sym_index_pos >= MAX_SYMBOLS_COUNT ) {
 123              		.loc 1 90 0
 124 0002 204B     		ldr	r3, .L20
 125 0004 D3F8104E 		ldr	r4, [r3, #3600]
 126 0008 B4F5967F 		cmp	r4, #300
 127 000c 07DB     		blt	.L12
 128 000e 0A46     		mov	r2, r1
  91:..\..\mruby_c2\Design01.cydsn/symbol.c ****     console_printf( "Overflow %s for '%s'\n", "MAX_SYMBOLS_COUNT", str );
 129              		.loc 1 91 0
 130 0010 1D49     		ldr	r1, .L20+4
 131              	.LVL11:
 132 0012 1E48     		ldr	r0, .L20+8
 133              	.LVL12:
 134 0014 FFF7FEFF 		bl	console_printf
 135              	.LVL13:
  92:..\..\mruby_c2\Design01.cydsn/symbol.c ****     return -1;
ARM GAS  C:\Users\164\AppData\Local\Temp\ccuHDKDv.s 			page 5


 136              		.loc 1 92 0
 137 0018 4FF0FF34 		mov	r4, #-1
 138 001c 2FE0     		b	.L13
 139              	.LVL14:
 140              	.L12:
  93:..\..\mruby_c2\Design01.cydsn/symbol.c ****   }
  94:..\..\mruby_c2\Design01.cydsn/symbol.c **** 
  95:..\..\mruby_c2\Design01.cydsn/symbol.c ****   int sym_id = sym_index_pos++;
 141              		.loc 1 95 0
 142 001e 194D     		ldr	r5, .L20
 143 0020 631C     		adds	r3, r4, #1
 144 0022 C5F8103E 		str	r3, [r5, #3600]
 145              	.LVL15:
  96:..\..\mruby_c2\Design01.cydsn/symbol.c **** 
  97:..\..\mruby_c2\Design01.cydsn/symbol.c ****   // append table.
  98:..\..\mruby_c2\Design01.cydsn/symbol.c ****   sym_index[sym_id].hash = hash;
 146              		.loc 1 98 0
 147 0026 6300     		lsls	r3, r4, #1
 148 0028 2344     		add	r3, r3, r4
 149 002a 9A00     		lsls	r2, r3, #2
 150 002c AB18     		adds	r3, r5, r2
 151 002e A852     		strh	r0, [r5, r2]	@ movhi
  99:..\..\mruby_c2\Design01.cydsn/symbol.c ****   sym_index[sym_id].cstr = str;
 152              		.loc 1 99 0
 153 0030 9960     		str	r1, [r3, #8]
 154              	.LVL16:
 100:..\..\mruby_c2\Design01.cydsn/symbol.c **** 
 101:..\..\mruby_c2\Design01.cydsn/symbol.c **** #ifdef MRBC_SYMBOL_SEARCH_BTREE
 102:..\..\mruby_c2\Design01.cydsn/symbol.c ****   int i = 0;
 155              		.loc 1 102 0
 156 0032 0023     		movs	r3, #0
 157              	.LVL17:
 158              	.L14:
 103:..\..\mruby_c2\Design01.cydsn/symbol.c **** 
 104:..\..\mruby_c2\Design01.cydsn/symbol.c ****   while( 1 ) {
 105:..\..\mruby_c2\Design01.cydsn/symbol.c ****     if( hash < sym_index[i].hash ) {
 159              		.loc 1 105 0
 160 0034 03EB4301 		add	r1, r3, r3, lsl #1
 161 0038 8A00     		lsls	r2, r1, #2
 162 003a 1249     		ldr	r1, .L20
 163 003c 8A5A     		ldrh	r2, [r1, r2]
 164 003e 9042     		cmp	r0, r2
 165 0040 0ED2     		bcs	.L15
 106:..\..\mruby_c2\Design01.cydsn/symbol.c ****       // left side
 107:..\..\mruby_c2\Design01.cydsn/symbol.c ****       if( sym_index[i].left == 0 ) {	// left is empty?
 166              		.loc 1 107 0
 167 0042 03EB4301 		add	r1, r3, r3, lsl #1
 168 0046 8A00     		lsls	r2, r1, #2
 169 0048 0E49     		ldr	r1, .L20
 170 004a 0A44     		add	r2, r2, r1
 171 004c 5288     		ldrh	r2, [r2, #2]
 172 004e 2AB9     		cbnz	r2, .L16
 108:..\..\mruby_c2\Design01.cydsn/symbol.c ****         sym_index[i].left = sym_id;
 173              		.loc 1 108 0
 174 0050 03EB4303 		add	r3, r3, r3, lsl #1
 175              	.LVL18:
 176 0054 9A00     		lsls	r2, r3, #2
ARM GAS  C:\Users\164\AppData\Local\Temp\ccuHDKDv.s 			page 6


 177 0056 0A44     		add	r2, r2, r1
 178 0058 5480     		strh	r4, [r2, #2]	@ movhi
 109:..\..\mruby_c2\Design01.cydsn/symbol.c ****         break;
 179              		.loc 1 109 0
 180 005a 10E0     		b	.L13
 181              	.LVL19:
 182              	.L16:
 110:..\..\mruby_c2\Design01.cydsn/symbol.c ****       }
 111:..\..\mruby_c2\Design01.cydsn/symbol.c ****       i = sym_index[i].left;
 183              		.loc 1 111 0
 184 005c 1346     		mov	r3, r2
 185              	.LVL20:
 186 005e E9E7     		b	.L14
 187              	.L15:
 112:..\..\mruby_c2\Design01.cydsn/symbol.c ****     } else {
 113:..\..\mruby_c2\Design01.cydsn/symbol.c ****       // right side
 114:..\..\mruby_c2\Design01.cydsn/symbol.c ****       if( sym_index[i].right == 0 ) {	// right is empty?
 188              		.loc 1 114 0
 189 0060 03EB4301 		add	r1, r3, r3, lsl #1
 190 0064 8A00     		lsls	r2, r1, #2
 191 0066 0749     		ldr	r1, .L20
 192 0068 0A44     		add	r2, r2, r1
 193 006a 9288     		ldrh	r2, [r2, #4]
 194 006c 2AB9     		cbnz	r2, .L18
 115:..\..\mruby_c2\Design01.cydsn/symbol.c ****         sym_index[i].right = sym_id;
 195              		.loc 1 115 0
 196 006e 03EB4303 		add	r3, r3, r3, lsl #1
 197              	.LVL21:
 198 0072 9A00     		lsls	r2, r3, #2
 199 0074 0A44     		add	r2, r2, r1
 200 0076 9480     		strh	r4, [r2, #4]	@ movhi
 116:..\..\mruby_c2\Design01.cydsn/symbol.c ****         break;
 201              		.loc 1 116 0
 202 0078 01E0     		b	.L13
 203              	.LVL22:
 204              	.L18:
 117:..\..\mruby_c2\Design01.cydsn/symbol.c ****       }
 118:..\..\mruby_c2\Design01.cydsn/symbol.c ****       i = sym_index[i].right;
 205              		.loc 1 118 0
 206 007a 1346     		mov	r3, r2
 207              	.LVL23:
 208 007c DAE7     		b	.L14
 209              	.LVL24:
 210              	.L13:
 119:..\..\mruby_c2\Design01.cydsn/symbol.c ****     }
 120:..\..\mruby_c2\Design01.cydsn/symbol.c ****   }
 121:..\..\mruby_c2\Design01.cydsn/symbol.c **** #endif
 122:..\..\mruby_c2\Design01.cydsn/symbol.c ****   return sym_id;
 123:..\..\mruby_c2\Design01.cydsn/symbol.c **** }
 211              		.loc 1 123 0
 212 007e 2046     		mov	r0, r4
 213 0080 38BD     		pop	{r3, r4, r5, pc}
 214              	.L21:
 215 0082 00BF     		.align	2
 216              	.L20:
 217 0084 00000000 		.word	.LANCHOR0
 218 0088 00000000 		.word	.LC0
ARM GAS  C:\Users\164\AppData\Local\Temp\ccuHDKDv.s 			page 7


 219 008c 14000000 		.word	.LC1
 220              		.cfi_endproc
 221              	.LFE82:
 222              		.size	add_index, .-add_index
 223              		.section	.text.c_equal3,"ax",%progbits
 224              		.align	2
 225              		.thumb
 226              		.thumb_func
 227              		.type	c_equal3, %function
 228              	c_equal3:
 229              	.LFB89:
 124:..\..\mruby_c2\Design01.cydsn/symbol.c **** 
 125:..\..\mruby_c2\Design01.cydsn/symbol.c **** 
 126:..\..\mruby_c2\Design01.cydsn/symbol.c **** //================================================================
 127:..\..\mruby_c2\Design01.cydsn/symbol.c **** /*! constructor
 128:..\..\mruby_c2\Design01.cydsn/symbol.c **** 
 129:..\..\mruby_c2\Design01.cydsn/symbol.c ****   @param  vm	pointer to VM.
 130:..\..\mruby_c2\Design01.cydsn/symbol.c ****   @param  str	String
 131:..\..\mruby_c2\Design01.cydsn/symbol.c ****   @return 	symbol object
 132:..\..\mruby_c2\Design01.cydsn/symbol.c **** */
 133:..\..\mruby_c2\Design01.cydsn/symbol.c **** mrb_value mrbc_symbol_new(struct VM *vm, const char *str)
 134:..\..\mruby_c2\Design01.cydsn/symbol.c **** {
 135:..\..\mruby_c2\Design01.cydsn/symbol.c ****   mrb_value ret = {.tt = MRB_TT_SYMBOL};
 136:..\..\mruby_c2\Design01.cydsn/symbol.c ****   uint16_t h = calc_hash(str);
 137:..\..\mruby_c2\Design01.cydsn/symbol.c ****   mrb_sym sym_id = search_index(h, str);
 138:..\..\mruby_c2\Design01.cydsn/symbol.c **** 
 139:..\..\mruby_c2\Design01.cydsn/symbol.c ****   if( sym_id >= 0 ) {
 140:..\..\mruby_c2\Design01.cydsn/symbol.c ****     ret.i = sym_id;
 141:..\..\mruby_c2\Design01.cydsn/symbol.c ****     return ret;		// already exist.
 142:..\..\mruby_c2\Design01.cydsn/symbol.c ****   }
 143:..\..\mruby_c2\Design01.cydsn/symbol.c **** 
 144:..\..\mruby_c2\Design01.cydsn/symbol.c ****   // create symbol object dynamically.
 145:..\..\mruby_c2\Design01.cydsn/symbol.c ****   int size = strlen(str) + 1;
 146:..\..\mruby_c2\Design01.cydsn/symbol.c ****   char *buf = mrbc_raw_alloc(size);
 147:..\..\mruby_c2\Design01.cydsn/symbol.c ****   if( buf == NULL ) return ret;		// ENOMEM raise?
 148:..\..\mruby_c2\Design01.cydsn/symbol.c **** 
 149:..\..\mruby_c2\Design01.cydsn/symbol.c ****   memcpy(buf, str, size);
 150:..\..\mruby_c2\Design01.cydsn/symbol.c ****   ret.i = add_index( h, buf );
 151:..\..\mruby_c2\Design01.cydsn/symbol.c **** 
 152:..\..\mruby_c2\Design01.cydsn/symbol.c ****   return ret;
 153:..\..\mruby_c2\Design01.cydsn/symbol.c **** }
 154:..\..\mruby_c2\Design01.cydsn/symbol.c **** 
 155:..\..\mruby_c2\Design01.cydsn/symbol.c **** 
 156:..\..\mruby_c2\Design01.cydsn/symbol.c **** //================================================================
 157:..\..\mruby_c2\Design01.cydsn/symbol.c **** /*! Calculate hash value.
 158:..\..\mruby_c2\Design01.cydsn/symbol.c **** 
 159:..\..\mruby_c2\Design01.cydsn/symbol.c ****   @param  str		Target string.
 160:..\..\mruby_c2\Design01.cydsn/symbol.c ****   @return uint16_t	Hash value.
 161:..\..\mruby_c2\Design01.cydsn/symbol.c **** */
 162:..\..\mruby_c2\Design01.cydsn/symbol.c **** uint16_t calc_hash(const char *str)
 163:..\..\mruby_c2\Design01.cydsn/symbol.c **** {
 164:..\..\mruby_c2\Design01.cydsn/symbol.c ****   uint16_t h = 0;
 165:..\..\mruby_c2\Design01.cydsn/symbol.c **** 
 166:..\..\mruby_c2\Design01.cydsn/symbol.c ****   while( *str != '\0' ) {
 167:..\..\mruby_c2\Design01.cydsn/symbol.c ****     h = h * 37 + *str;
 168:..\..\mruby_c2\Design01.cydsn/symbol.c ****     str++;
 169:..\..\mruby_c2\Design01.cydsn/symbol.c ****   }
ARM GAS  C:\Users\164\AppData\Local\Temp\ccuHDKDv.s 			page 8


 170:..\..\mruby_c2\Design01.cydsn/symbol.c ****   return h;
 171:..\..\mruby_c2\Design01.cydsn/symbol.c **** }
 172:..\..\mruby_c2\Design01.cydsn/symbol.c **** 
 173:..\..\mruby_c2\Design01.cydsn/symbol.c **** 
 174:..\..\mruby_c2\Design01.cydsn/symbol.c **** //================================================================
 175:..\..\mruby_c2\Design01.cydsn/symbol.c **** /*! Convert string to symbol value.
 176:..\..\mruby_c2\Design01.cydsn/symbol.c **** 
 177:..\..\mruby_c2\Design01.cydsn/symbol.c ****   @param  str		Target string.
 178:..\..\mruby_c2\Design01.cydsn/symbol.c ****   @return mrb_sym	Symbol value.
 179:..\..\mruby_c2\Design01.cydsn/symbol.c **** */
 180:..\..\mruby_c2\Design01.cydsn/symbol.c **** mrb_sym str_to_symid(const char *str)
 181:..\..\mruby_c2\Design01.cydsn/symbol.c **** {
 182:..\..\mruby_c2\Design01.cydsn/symbol.c ****   uint16_t h = calc_hash(str);
 183:..\..\mruby_c2\Design01.cydsn/symbol.c ****   mrb_sym sym_id = search_index(h, str);
 184:..\..\mruby_c2\Design01.cydsn/symbol.c ****   if( sym_id >= 0 ) return sym_id;
 185:..\..\mruby_c2\Design01.cydsn/symbol.c **** 
 186:..\..\mruby_c2\Design01.cydsn/symbol.c ****   return add_index( h, str );
 187:..\..\mruby_c2\Design01.cydsn/symbol.c **** }
 188:..\..\mruby_c2\Design01.cydsn/symbol.c **** 
 189:..\..\mruby_c2\Design01.cydsn/symbol.c **** 
 190:..\..\mruby_c2\Design01.cydsn/symbol.c **** //================================================================
 191:..\..\mruby_c2\Design01.cydsn/symbol.c **** /*! Convert symbol value to string.
 192:..\..\mruby_c2\Design01.cydsn/symbol.c **** 
 193:..\..\mruby_c2\Design01.cydsn/symbol.c ****   @param  mrb_sym	Symbol value.
 194:..\..\mruby_c2\Design01.cydsn/symbol.c ****   @return const char*	String.
 195:..\..\mruby_c2\Design01.cydsn/symbol.c ****   @retval NULL		Invalid sym_id was given.
 196:..\..\mruby_c2\Design01.cydsn/symbol.c **** */
 197:..\..\mruby_c2\Design01.cydsn/symbol.c **** const char * symid_to_str(mrb_sym sym_id)
 198:..\..\mruby_c2\Design01.cydsn/symbol.c **** {
 199:..\..\mruby_c2\Design01.cydsn/symbol.c ****   if( sym_id < 0 ) return NULL;
 200:..\..\mruby_c2\Design01.cydsn/symbol.c ****   if( sym_id >= sym_index_pos ) return NULL;
 201:..\..\mruby_c2\Design01.cydsn/symbol.c **** 
 202:..\..\mruby_c2\Design01.cydsn/symbol.c ****   return sym_index[sym_id].cstr;
 203:..\..\mruby_c2\Design01.cydsn/symbol.c **** }
 204:..\..\mruby_c2\Design01.cydsn/symbol.c **** 
 205:..\..\mruby_c2\Design01.cydsn/symbol.c **** 
 206:..\..\mruby_c2\Design01.cydsn/symbol.c **** 
 207:..\..\mruby_c2\Design01.cydsn/symbol.c **** //================================================================
 208:..\..\mruby_c2\Design01.cydsn/symbol.c **** /*! (method) all_symbols
 209:..\..\mruby_c2\Design01.cydsn/symbol.c **** */
 210:..\..\mruby_c2\Design01.cydsn/symbol.c **** static void c_all_symbols(mrb_vm *vm, mrb_value v[], int argc)
 211:..\..\mruby_c2\Design01.cydsn/symbol.c **** {
 212:..\..\mruby_c2\Design01.cydsn/symbol.c ****   mrb_value ret = mrbc_array_new(vm, sym_index_pos);
 213:..\..\mruby_c2\Design01.cydsn/symbol.c **** 
 214:..\..\mruby_c2\Design01.cydsn/symbol.c ****   int i;
 215:..\..\mruby_c2\Design01.cydsn/symbol.c ****   for( i = 0; i < sym_index_pos; i++ ) {
 216:..\..\mruby_c2\Design01.cydsn/symbol.c ****     mrb_value sym1 = {.tt = MRB_TT_SYMBOL};
 217:..\..\mruby_c2\Design01.cydsn/symbol.c ****     sym1.i = i;
 218:..\..\mruby_c2\Design01.cydsn/symbol.c ****     mrbc_array_push(&ret, &sym1);
 219:..\..\mruby_c2\Design01.cydsn/symbol.c ****   }
 220:..\..\mruby_c2\Design01.cydsn/symbol.c ****   SET_RETURN(ret);
 221:..\..\mruby_c2\Design01.cydsn/symbol.c **** }
 222:..\..\mruby_c2\Design01.cydsn/symbol.c **** 
 223:..\..\mruby_c2\Design01.cydsn/symbol.c **** 
 224:..\..\mruby_c2\Design01.cydsn/symbol.c **** #if MRBC_USE_STRING
 225:..\..\mruby_c2\Design01.cydsn/symbol.c **** //================================================================
 226:..\..\mruby_c2\Design01.cydsn/symbol.c **** /*! (method) to_s
ARM GAS  C:\Users\164\AppData\Local\Temp\ccuHDKDv.s 			page 9


 227:..\..\mruby_c2\Design01.cydsn/symbol.c **** */
 228:..\..\mruby_c2\Design01.cydsn/symbol.c **** static void c_to_s(mrb_vm *vm, mrb_value v[], int argc)
 229:..\..\mruby_c2\Design01.cydsn/symbol.c **** {
 230:..\..\mruby_c2\Design01.cydsn/symbol.c ****   v[0] = mrbc_string_new_cstr(vm, symid_to_str(v[0].i));
 231:..\..\mruby_c2\Design01.cydsn/symbol.c **** }
 232:..\..\mruby_c2\Design01.cydsn/symbol.c **** #endif
 233:..\..\mruby_c2\Design01.cydsn/symbol.c **** 
 234:..\..\mruby_c2\Design01.cydsn/symbol.c **** 
 235:..\..\mruby_c2\Design01.cydsn/symbol.c **** 
 236:..\..\mruby_c2\Design01.cydsn/symbol.c **** //================================================================
 237:..\..\mruby_c2\Design01.cydsn/symbol.c **** /*! (method) ===
 238:..\..\mruby_c2\Design01.cydsn/symbol.c **** */
 239:..\..\mruby_c2\Design01.cydsn/symbol.c **** static void c_equal3(mrb_vm *vm, mrb_value v[], int argc)
 240:..\..\mruby_c2\Design01.cydsn/symbol.c **** {
 230              		.loc 1 240 0
 231              		.cfi_startproc
 232              		@ args = 0, pretend = 0, frame = 0
 233              		@ frame_needed = 0, uses_anonymous_args = 0
 234              	.LVL25:
 235 0000 10B5     		push	{r4, lr}
 236              		.cfi_def_cfa_offset 8
 237              		.cfi_offset 4, -8
 238              		.cfi_offset 14, -4
 239 0002 0C46     		mov	r4, r1
 241:..\..\mruby_c2\Design01.cydsn/symbol.c ****   if( mrbc_compare(&v[0], &v[1]) == 0 ) {
 240              		.loc 1 241 0
 241 0004 1031     		adds	r1, r1, #16
 242              	.LVL26:
 243 0006 2046     		mov	r0, r4
 244              	.LVL27:
 245 0008 FFF7FEFF 		bl	mrbc_compare
 246              	.LVL28:
 247 000c 28B9     		cbnz	r0, .L23
 242:..\..\mruby_c2\Design01.cydsn/symbol.c ****     SET_TRUE_RETURN();
 248              		.loc 1 242 0
 249 000e 2046     		mov	r0, r4
 250 0010 FFF7FEFF 		bl	mrbc_release
 251              	.LVL29:
 252 0014 0323     		movs	r3, #3
 253 0016 2370     		strb	r3, [r4]
 254 0018 10BD     		pop	{r4, pc}
 255              	.LVL30:
 256              	.L23:
 243:..\..\mruby_c2\Design01.cydsn/symbol.c ****   } else {
 244:..\..\mruby_c2\Design01.cydsn/symbol.c ****     SET_FALSE_RETURN();
 257              		.loc 1 244 0
 258 001a 2046     		mov	r0, r4
 259 001c FFF7FEFF 		bl	mrbc_release
 260              	.LVL31:
 261 0020 0223     		movs	r3, #2
 262 0022 2370     		strb	r3, [r4]
 263 0024 10BD     		pop	{r4, pc}
 264              		.cfi_endproc
 265              	.LFE89:
 266              		.size	c_equal3, .-c_equal3
 267 0026 00BF     		.section	.text.c_all_symbols,"ax",%progbits
 268              		.align	2
ARM GAS  C:\Users\164\AppData\Local\Temp\ccuHDKDv.s 			page 10


 269              		.thumb
 270              		.thumb_func
 271              		.type	c_all_symbols, %function
 272              	c_all_symbols:
 273              	.LFB87:
 211:..\..\mruby_c2\Design01.cydsn/symbol.c ****   mrb_value ret = mrbc_array_new(vm, sym_index_pos);
 274              		.loc 1 211 0
 275              		.cfi_startproc
 276              		@ args = 0, pretend = 0, frame = 32
 277              		@ frame_needed = 0, uses_anonymous_args = 0
 278              	.LVL32:
 279 0000 30B5     		push	{r4, r5, lr}
 280              		.cfi_def_cfa_offset 12
 281              		.cfi_offset 4, -12
 282              		.cfi_offset 5, -8
 283              		.cfi_offset 14, -4
 284 0002 89B0     		sub	sp, sp, #36
 285              		.cfi_def_cfa_offset 48
 286 0004 0D46     		mov	r5, r1
 212:..\..\mruby_c2\Design01.cydsn/symbol.c **** 
 287              		.loc 1 212 0
 288 0006 124B     		ldr	r3, .L30
 289 0008 D3F8102E 		ldr	r2, [r3, #3600]
 290              	.LVL33:
 291 000c 0146     		mov	r1, r0
 292              	.LVL34:
 293 000e 04A8     		add	r0, sp, #16
 294              	.LVL35:
 295 0010 FFF7FEFF 		bl	mrbc_array_new
 296              	.LVL36:
 215:..\..\mruby_c2\Design01.cydsn/symbol.c ****     mrb_value sym1 = {.tt = MRB_TT_SYMBOL};
 297              		.loc 1 215 0
 298 0014 0024     		movs	r4, #0
 299 0016 0CE0     		b	.L27
 300              	.LVL37:
 301              	.L28:
 302              	.LBB2:
 216:..\..\mruby_c2\Design01.cydsn/symbol.c ****     sym1.i = i;
 303              		.loc 1 216 0 discriminator 3
 304 0018 0023     		movs	r3, #0
 305 001a 0093     		str	r3, [sp]
 306 001c 0193     		str	r3, [sp, #4]
 307 001e 0393     		str	r3, [sp, #12]
 308 0020 0623     		movs	r3, #6
 309 0022 8DF80030 		strb	r3, [sp]
 217:..\..\mruby_c2\Design01.cydsn/symbol.c ****     mrbc_array_push(&ret, &sym1);
 310              		.loc 1 217 0 discriminator 3
 311 0026 0294     		str	r4, [sp, #8]
 218:..\..\mruby_c2\Design01.cydsn/symbol.c ****   }
 312              		.loc 1 218 0 discriminator 3
 313 0028 6946     		mov	r1, sp
 314 002a 04A8     		add	r0, sp, #16
 315 002c FFF7FEFF 		bl	mrbc_array_push
 316              	.LVL38:
 317              	.LBE2:
 215:..\..\mruby_c2\Design01.cydsn/symbol.c ****     mrb_value sym1 = {.tt = MRB_TT_SYMBOL};
 318              		.loc 1 215 0 discriminator 3
ARM GAS  C:\Users\164\AppData\Local\Temp\ccuHDKDv.s 			page 11


 319 0030 0134     		adds	r4, r4, #1
 320              	.LVL39:
 321              	.L27:
 215:..\..\mruby_c2\Design01.cydsn/symbol.c ****     mrb_value sym1 = {.tt = MRB_TT_SYMBOL};
 322              		.loc 1 215 0 is_stmt 0 discriminator 1
 323 0032 074B     		ldr	r3, .L30
 324 0034 D3F8103E 		ldr	r3, [r3, #3600]
 325 0038 9C42     		cmp	r4, r3
 326 003a EDDB     		blt	.L28
 220:..\..\mruby_c2\Design01.cydsn/symbol.c **** }
 327              		.loc 1 220 0 is_stmt 1
 328 003c 2846     		mov	r0, r5
 329 003e FFF7FEFF 		bl	mrbc_release
 330              	.LVL40:
 331 0042 08AB     		add	r3, sp, #32
 332 0044 13E90F00 		ldmdb	r3, {r0, r1, r2, r3}
 333 0048 85E80F00 		stmia	r5, {r0, r1, r2, r3}
 221:..\..\mruby_c2\Design01.cydsn/symbol.c **** 
 334              		.loc 1 221 0
 335 004c 09B0     		add	sp, sp, #36
 336              		.cfi_def_cfa_offset 12
 337              		@ sp needed
 338 004e 30BD     		pop	{r4, r5, pc}
 339              	.LVL41:
 340              	.L31:
 341              		.align	2
 342              	.L30:
 343 0050 00000000 		.word	.LANCHOR0
 344              		.cfi_endproc
 345              	.LFE87:
 346              		.size	c_all_symbols, .-c_all_symbols
 347              		.section	.text.calc_hash,"ax",%progbits
 348              		.align	2
 349              		.global	calc_hash
 350              		.thumb
 351              		.thumb_func
 352              		.type	calc_hash, %function
 353              	calc_hash:
 354              	.LFB84:
 163:..\..\mruby_c2\Design01.cydsn/symbol.c ****   uint16_t h = 0;
 355              		.loc 1 163 0
 356              		.cfi_startproc
 357              		@ args = 0, pretend = 0, frame = 0
 358              		@ frame_needed = 0, uses_anonymous_args = 0
 359              		@ link register save eliminated.
 360              	.LVL42:
 164:..\..\mruby_c2\Design01.cydsn/symbol.c **** 
 361              		.loc 1 164 0
 362 0000 0023     		movs	r3, #0
 166:..\..\mruby_c2\Design01.cydsn/symbol.c ****     h = h * 37 + *str;
 363              		.loc 1 166 0
 364 0002 07E0     		b	.L33
 365              	.LVL43:
 366              	.L34:
 167:..\..\mruby_c2\Design01.cydsn/symbol.c ****     str++;
 367              		.loc 1 167 0
 368 0004 03EBC301 		add	r1, r3, r3, lsl #3
ARM GAS  C:\Users\164\AppData\Local\Temp\ccuHDKDv.s 			page 12


 369 0008 03EB8103 		add	r3, r3, r1, lsl #2
 370              	.LVL44:
 371 000c 9BB2     		uxth	r3, r3
 372 000e 1344     		add	r3, r3, r2
 373 0010 9BB2     		uxth	r3, r3
 374              	.LVL45:
 168:..\..\mruby_c2\Design01.cydsn/symbol.c ****   }
 375              		.loc 1 168 0
 376 0012 0130     		adds	r0, r0, #1
 377              	.LVL46:
 378              	.L33:
 166:..\..\mruby_c2\Design01.cydsn/symbol.c ****     h = h * 37 + *str;
 379              		.loc 1 166 0
 380 0014 0278     		ldrb	r2, [r0]	@ zero_extendqisi2
 381 0016 002A     		cmp	r2, #0
 382 0018 F4D1     		bne	.L34
 171:..\..\mruby_c2\Design01.cydsn/symbol.c **** 
 383              		.loc 1 171 0
 384 001a 1846     		mov	r0, r3
 385              	.LVL47:
 386 001c 7047     		bx	lr
 387              		.cfi_endproc
 388              	.LFE84:
 389              		.size	calc_hash, .-calc_hash
 390 001e 00BF     		.section	.text.mrbc_symbol_new,"ax",%progbits
 391              		.align	2
 392              		.global	mrbc_symbol_new
 393              		.thumb
 394              		.thumb_func
 395              		.type	mrbc_symbol_new, %function
 396              	mrbc_symbol_new:
 397              	.LFB83:
 134:..\..\mruby_c2\Design01.cydsn/symbol.c ****   mrb_value ret = {.tt = MRB_TT_SYMBOL};
 398              		.loc 1 134 0
 399              		.cfi_startproc
 400              		@ args = 0, pretend = 0, frame = 0
 401              		@ frame_needed = 0, uses_anonymous_args = 0
 402              	.LVL48:
 403 0000 2DE9F041 		push	{r4, r5, r6, r7, r8, lr}
 404              		.cfi_def_cfa_offset 24
 405              		.cfi_offset 4, -24
 406              		.cfi_offset 5, -20
 407              		.cfi_offset 6, -16
 408              		.cfi_offset 7, -12
 409              		.cfi_offset 8, -8
 410              		.cfi_offset 14, -4
 411 0004 0446     		mov	r4, r0
 412 0006 1546     		mov	r5, r2
 135:..\..\mruby_c2\Design01.cydsn/symbol.c ****   uint16_t h = calc_hash(str);
 413              		.loc 1 135 0
 414 0008 0023     		movs	r3, #0
 415 000a 0360     		str	r3, [r0]
 416 000c 4360     		str	r3, [r0, #4]
 417 000e 8360     		str	r3, [r0, #8]
 418 0010 C360     		str	r3, [r0, #12]
 419 0012 0623     		movs	r3, #6
 420 0014 0370     		strb	r3, [r0]
ARM GAS  C:\Users\164\AppData\Local\Temp\ccuHDKDv.s 			page 13


 136:..\..\mruby_c2\Design01.cydsn/symbol.c ****   mrb_sym sym_id = search_index(h, str);
 421              		.loc 1 136 0
 422 0016 1046     		mov	r0, r2
 423              	.LVL49:
 424 0018 FFF7FEFF 		bl	calc_hash
 425              	.LVL50:
 426 001c 0646     		mov	r6, r0
 427              	.LVL51:
 137:..\..\mruby_c2\Design01.cydsn/symbol.c **** 
 428              		.loc 1 137 0
 429 001e 2946     		mov	r1, r5
 430 0020 FFF7FEFF 		bl	search_index
 431              	.LVL52:
 432 0024 00B2     		sxth	r0, r0
 433              	.LVL53:
 139:..\..\mruby_c2\Design01.cydsn/symbol.c ****     ret.i = sym_id;
 434              		.loc 1 139 0
 435 0026 0028     		cmp	r0, #0
 436 0028 01DB     		blt	.L36
 140:..\..\mruby_c2\Design01.cydsn/symbol.c ****     return ret;		// already exist.
 437              		.loc 1 140 0
 438 002a A060     		str	r0, [r4, #8]
 141:..\..\mruby_c2\Design01.cydsn/symbol.c ****   }
 439              		.loc 1 141 0
 440 002c 11E0     		b	.L35
 441              	.L36:
 145:..\..\mruby_c2\Design01.cydsn/symbol.c ****   char *buf = mrbc_raw_alloc(size);
 442              		.loc 1 145 0
 443 002e 2846     		mov	r0, r5
 444              	.LVL54:
 445 0030 FFF7FEFF 		bl	strlen
 446              	.LVL55:
 447 0034 471C     		adds	r7, r0, #1
 448              	.LVL56:
 146:..\..\mruby_c2\Design01.cydsn/symbol.c ****   if( buf == NULL ) return ret;		// ENOMEM raise?
 449              		.loc 1 146 0
 450 0036 3846     		mov	r0, r7
 451 0038 FFF7FEFF 		bl	mrbc_raw_alloc
 452              	.LVL57:
 147:..\..\mruby_c2\Design01.cydsn/symbol.c **** 
 453              		.loc 1 147 0
 454 003c 8046     		mov	r8, r0
 455 003e 40B1     		cbz	r0, .L35
 149:..\..\mruby_c2\Design01.cydsn/symbol.c ****   ret.i = add_index( h, buf );
 456              		.loc 1 149 0
 457 0040 3A46     		mov	r2, r7
 458 0042 2946     		mov	r1, r5
 459 0044 FFF7FEFF 		bl	memcpy
 460              	.LVL58:
 150:..\..\mruby_c2\Design01.cydsn/symbol.c **** 
 461              		.loc 1 150 0
 462 0048 4146     		mov	r1, r8
 463 004a 3046     		mov	r0, r6
 464 004c FFF7FEFF 		bl	add_index
 465              	.LVL59:
 466 0050 A060     		str	r0, [r4, #8]
 467              	.LVL60:
ARM GAS  C:\Users\164\AppData\Local\Temp\ccuHDKDv.s 			page 14


 468              	.L35:
 153:..\..\mruby_c2\Design01.cydsn/symbol.c **** 
 469              		.loc 1 153 0
 470 0052 2046     		mov	r0, r4
 471 0054 BDE8F081 		pop	{r4, r5, r6, r7, r8, pc}
 472              		.cfi_endproc
 473              	.LFE83:
 474              		.size	mrbc_symbol_new, .-mrbc_symbol_new
 475              		.section	.text.str_to_symid,"ax",%progbits
 476              		.align	2
 477              		.global	str_to_symid
 478              		.thumb
 479              		.thumb_func
 480              		.type	str_to_symid, %function
 481              	str_to_symid:
 482              	.LFB85:
 181:..\..\mruby_c2\Design01.cydsn/symbol.c ****   uint16_t h = calc_hash(str);
 483              		.loc 1 181 0
 484              		.cfi_startproc
 485              		@ args = 0, pretend = 0, frame = 0
 486              		@ frame_needed = 0, uses_anonymous_args = 0
 487              	.LVL61:
 488 0000 38B5     		push	{r3, r4, r5, lr}
 489              		.cfi_def_cfa_offset 16
 490              		.cfi_offset 3, -16
 491              		.cfi_offset 4, -12
 492              		.cfi_offset 5, -8
 493              		.cfi_offset 14, -4
 494 0002 0446     		mov	r4, r0
 182:..\..\mruby_c2\Design01.cydsn/symbol.c ****   mrb_sym sym_id = search_index(h, str);
 495              		.loc 1 182 0
 496 0004 FFF7FEFF 		bl	calc_hash
 497              	.LVL62:
 498 0008 0546     		mov	r5, r0
 499              	.LVL63:
 183:..\..\mruby_c2\Design01.cydsn/symbol.c ****   if( sym_id >= 0 ) return sym_id;
 500              		.loc 1 183 0
 501 000a 2146     		mov	r1, r4
 502 000c FFF7FEFF 		bl	search_index
 503              	.LVL64:
 504 0010 00B2     		sxth	r0, r0
 505              	.LVL65:
 184:..\..\mruby_c2\Design01.cydsn/symbol.c **** 
 506              		.loc 1 184 0
 507 0012 0028     		cmp	r0, #0
 508 0014 04DA     		bge	.L40
 186:..\..\mruby_c2\Design01.cydsn/symbol.c **** }
 509              		.loc 1 186 0
 510 0016 2146     		mov	r1, r4
 511 0018 2846     		mov	r0, r5
 512              	.LVL66:
 513 001a FFF7FEFF 		bl	add_index
 514              	.LVL67:
 515 001e 00B2     		sxth	r0, r0
 516              	.L40:
 187:..\..\mruby_c2\Design01.cydsn/symbol.c **** 
 517              		.loc 1 187 0
ARM GAS  C:\Users\164\AppData\Local\Temp\ccuHDKDv.s 			page 15


 518 0020 38BD     		pop	{r3, r4, r5, pc}
 519              		.cfi_endproc
 520              	.LFE85:
 521              		.size	str_to_symid, .-str_to_symid
 522 0022 00BF     		.section	.text.symid_to_str,"ax",%progbits
 523              		.align	2
 524              		.global	symid_to_str
 525              		.thumb
 526              		.thumb_func
 527              		.type	symid_to_str, %function
 528              	symid_to_str:
 529              	.LFB86:
 198:..\..\mruby_c2\Design01.cydsn/symbol.c ****   if( sym_id < 0 ) return NULL;
 530              		.loc 1 198 0
 531              		.cfi_startproc
 532              		@ args = 0, pretend = 0, frame = 0
 533              		@ frame_needed = 0, uses_anonymous_args = 0
 534              		@ link register save eliminated.
 535              	.LVL68:
 199:..\..\mruby_c2\Design01.cydsn/symbol.c ****   if( sym_id >= sym_index_pos ) return NULL;
 536              		.loc 1 199 0
 537 0000 0028     		cmp	r0, #0
 538              	.LVL69:
 539 0002 0BDB     		blt	.L45
 200:..\..\mruby_c2\Design01.cydsn/symbol.c **** 
 540              		.loc 1 200 0
 541 0004 074B     		ldr	r3, .L47
 542 0006 D3F8103E 		ldr	r3, [r3, #3600]
 543 000a 9842     		cmp	r0, r3
 544 000c 08DA     		bge	.L46
 202:..\..\mruby_c2\Design01.cydsn/symbol.c **** }
 545              		.loc 1 202 0
 546 000e 00EB4000 		add	r0, r0, r0, lsl #1
 547 0012 8300     		lsls	r3, r0, #2
 548 0014 034A     		ldr	r2, .L47
 549 0016 1344     		add	r3, r3, r2
 550 0018 9868     		ldr	r0, [r3, #8]
 551 001a 7047     		bx	lr
 552              	.L45:
 199:..\..\mruby_c2\Design01.cydsn/symbol.c ****   if( sym_id >= sym_index_pos ) return NULL;
 553              		.loc 1 199 0
 554 001c 0020     		movs	r0, #0
 555 001e 7047     		bx	lr
 556              	.L46:
 200:..\..\mruby_c2\Design01.cydsn/symbol.c **** 
 557              		.loc 1 200 0
 558 0020 0020     		movs	r0, #0
 203:..\..\mruby_c2\Design01.cydsn/symbol.c **** 
 559              		.loc 1 203 0
 560 0022 7047     		bx	lr
 561              	.L48:
 562              		.align	2
 563              	.L47:
 564 0024 00000000 		.word	.LANCHOR0
 565              		.cfi_endproc
 566              	.LFE86:
 567              		.size	symid_to_str, .-symid_to_str
ARM GAS  C:\Users\164\AppData\Local\Temp\ccuHDKDv.s 			page 16


 568              		.section	.text.c_to_s,"ax",%progbits
 569              		.align	2
 570              		.thumb
 571              		.thumb_func
 572              		.type	c_to_s, %function
 573              	c_to_s:
 574              	.LFB88:
 229:..\..\mruby_c2\Design01.cydsn/symbol.c ****   v[0] = mrbc_string_new_cstr(vm, symid_to_str(v[0].i));
 575              		.loc 1 229 0
 576              		.cfi_startproc
 577              		@ args = 0, pretend = 0, frame = 16
 578              		@ frame_needed = 0, uses_anonymous_args = 0
 579              	.LVL70:
 580 0000 70B5     		push	{r4, r5, r6, lr}
 581              		.cfi_def_cfa_offset 16
 582              		.cfi_offset 4, -16
 583              		.cfi_offset 5, -12
 584              		.cfi_offset 6, -8
 585              		.cfi_offset 14, -4
 586 0002 84B0     		sub	sp, sp, #16
 587              		.cfi_def_cfa_offset 32
 588 0004 0646     		mov	r6, r0
 589 0006 0C46     		mov	r4, r1
 230:..\..\mruby_c2\Design01.cydsn/symbol.c **** }
 590              		.loc 1 230 0
 591 0008 B1F90800 		ldrsh	r0, [r1, #8]
 592              	.LVL71:
 593 000c FFF7FEFF 		bl	symid_to_str
 594              	.LVL72:
 595 0010 0246     		mov	r2, r0
 596 0012 3146     		mov	r1, r6
 597 0014 6846     		mov	r0, sp
 598 0016 FFF7FEFF 		bl	mrbc_string_new_cstr
 599              	.LVL73:
 600 001a 9DE80F00 		ldmia	sp, {r0, r1, r2, r3}
 601 001e 84E80F00 		stmia	r4, {r0, r1, r2, r3}
 231:..\..\mruby_c2\Design01.cydsn/symbol.c **** #endif
 602              		.loc 1 231 0
 603 0022 04B0     		add	sp, sp, #16
 604              		.cfi_def_cfa_offset 16
 605              		@ sp needed
 606 0024 70BD     		pop	{r4, r5, r6, pc}
 607              		.cfi_endproc
 608              	.LFE88:
 609              		.size	c_to_s, .-c_to_s
 610 0026 00BF     		.section	.text.mrbc_init_class_symbol,"ax",%progbits
 611              		.align	2
 612              		.global	mrbc_init_class_symbol
 613              		.thumb
 614              		.thumb_func
 615              		.type	mrbc_init_class_symbol, %function
 616              	mrbc_init_class_symbol:
 617              	.LFB90:
 245:..\..\mruby_c2\Design01.cydsn/symbol.c ****   }
 246:..\..\mruby_c2\Design01.cydsn/symbol.c **** }
 247:..\..\mruby_c2\Design01.cydsn/symbol.c **** 
 248:..\..\mruby_c2\Design01.cydsn/symbol.c **** 
ARM GAS  C:\Users\164\AppData\Local\Temp\ccuHDKDv.s 			page 17


 249:..\..\mruby_c2\Design01.cydsn/symbol.c **** //================================================================
 250:..\..\mruby_c2\Design01.cydsn/symbol.c **** /*! initialize
 251:..\..\mruby_c2\Design01.cydsn/symbol.c **** */
 252:..\..\mruby_c2\Design01.cydsn/symbol.c **** void mrbc_init_class_symbol(struct VM *vm)
 253:..\..\mruby_c2\Design01.cydsn/symbol.c **** {
 618              		.loc 1 253 0
 619              		.cfi_startproc
 620              		@ args = 0, pretend = 0, frame = 0
 621              		@ frame_needed = 0, uses_anonymous_args = 0
 622              	.LVL74:
 623 0000 70B5     		push	{r4, r5, r6, lr}
 624              		.cfi_def_cfa_offset 16
 625              		.cfi_offset 4, -16
 626              		.cfi_offset 5, -12
 627              		.cfi_offset 6, -8
 628              		.cfi_offset 14, -4
 629 0002 0446     		mov	r4, r0
 254:..\..\mruby_c2\Design01.cydsn/symbol.c ****   mrbc_class_symbol = mrbc_define_class(vm, "Symbol", mrbc_class_object);
 630              		.loc 1 254 0
 631 0004 134B     		ldr	r3, .L53
 632 0006 1A68     		ldr	r2, [r3]
 633 0008 1349     		ldr	r1, .L53+4
 634 000a FFF7FEFF 		bl	mrbc_define_class
 635              	.LVL75:
 636 000e 0146     		mov	r1, r0
 637 0010 124D     		ldr	r5, .L53+8
 638 0012 2860     		str	r0, [r5]
 255:..\..\mruby_c2\Design01.cydsn/symbol.c **** 
 256:..\..\mruby_c2\Design01.cydsn/symbol.c ****   mrbc_define_method(vm, mrbc_class_symbol, "all_symbols", c_all_symbols);
 639              		.loc 1 256 0
 640 0014 124B     		ldr	r3, .L53+12
 641 0016 134A     		ldr	r2, .L53+16
 642 0018 2046     		mov	r0, r4
 643 001a FFF7FEFF 		bl	mrbc_define_method
 644              	.LVL76:
 257:..\..\mruby_c2\Design01.cydsn/symbol.c **** #if MRBC_USE_STRING
 258:..\..\mruby_c2\Design01.cydsn/symbol.c ****   mrbc_define_method(vm, mrbc_class_symbol, "to_s", c_to_s);
 645              		.loc 1 258 0
 646 001e 124E     		ldr	r6, .L53+20
 647 0020 3346     		mov	r3, r6
 648 0022 124A     		ldr	r2, .L53+24
 649 0024 2968     		ldr	r1, [r5]
 650 0026 2046     		mov	r0, r4
 651 0028 FFF7FEFF 		bl	mrbc_define_method
 652              	.LVL77:
 259:..\..\mruby_c2\Design01.cydsn/symbol.c ****   mrbc_define_method(vm, mrbc_class_symbol, "id2name", c_to_s);
 653              		.loc 1 259 0
 654 002c 3346     		mov	r3, r6
 655 002e 104A     		ldr	r2, .L53+28
 656 0030 2968     		ldr	r1, [r5]
 657 0032 2046     		mov	r0, r4
 658 0034 FFF7FEFF 		bl	mrbc_define_method
 659              	.LVL78:
 260:..\..\mruby_c2\Design01.cydsn/symbol.c **** #endif
 261:..\..\mruby_c2\Design01.cydsn/symbol.c ****   mrbc_define_method(vm, mrbc_class_symbol, "to_sym", c_ineffect);
 660              		.loc 1 261 0
 661 0038 0E4B     		ldr	r3, .L53+32
ARM GAS  C:\Users\164\AppData\Local\Temp\ccuHDKDv.s 			page 18


 662 003a 0F4A     		ldr	r2, .L53+36
 663 003c 2968     		ldr	r1, [r5]
 664 003e 2046     		mov	r0, r4
 665 0040 FFF7FEFF 		bl	mrbc_define_method
 666              	.LVL79:
 262:..\..\mruby_c2\Design01.cydsn/symbol.c ****   mrbc_define_method(vm, mrbc_class_symbol, "===", c_equal3);
 667              		.loc 1 262 0
 668 0044 0D4B     		ldr	r3, .L53+40
 669 0046 0E4A     		ldr	r2, .L53+44
 670 0048 2968     		ldr	r1, [r5]
 671 004a 2046     		mov	r0, r4
 672 004c FFF7FEFF 		bl	mrbc_define_method
 673              	.LVL80:
 674 0050 70BD     		pop	{r4, r5, r6, pc}
 675              	.LVL81:
 676              	.L54:
 677 0052 00BF     		.align	2
 678              	.L53:
 679 0054 00000000 		.word	mrbc_class_object
 680 0058 2C000000 		.word	.LC2
 681 005c 00000000 		.word	mrbc_class_symbol
 682 0060 00000000 		.word	c_all_symbols
 683 0064 34000000 		.word	.LC3
 684 0068 00000000 		.word	c_to_s
 685 006c 40000000 		.word	.LC4
 686 0070 48000000 		.word	.LC5
 687 0074 00000000 		.word	c_ineffect
 688 0078 50000000 		.word	.LC6
 689 007c 00000000 		.word	c_equal3
 690 0080 58000000 		.word	.LC7
 691              		.cfi_endproc
 692              	.LFE90:
 693              		.size	mrbc_init_class_symbol, .-mrbc_init_class_symbol
 694              		.section	.rodata.str1.4,"aMS",%progbits,1
 695              		.align	2
 696              	.LC0:
 697 0000 4D41585F 		.ascii	"MAX_SYMBOLS_COUNT\000"
 697      53594D42 
 697      4F4C535F 
 697      434F554E 
 697      5400
 698 0012 0000     		.space	2
 699              	.LC1:
 700 0014 4F766572 		.ascii	"Overflow %s for '%s'\012\000"
 700      666C6F77 
 700      20257320 
 700      666F7220 
 700      27257327 
 701 002a 0000     		.space	2
 702              	.LC2:
 703 002c 53796D62 		.ascii	"Symbol\000"
 703      6F6C00
 704 0033 00       		.space	1
 705              	.LC3:
 706 0034 616C6C5F 		.ascii	"all_symbols\000"
 706      73796D62 
 706      6F6C7300 
ARM GAS  C:\Users\164\AppData\Local\Temp\ccuHDKDv.s 			page 19


 707              	.LC4:
 708 0040 746F5F73 		.ascii	"to_s\000"
 708      00
 709 0045 000000   		.space	3
 710              	.LC5:
 711 0048 6964326E 		.ascii	"id2name\000"
 711      616D6500 
 712              	.LC6:
 713 0050 746F5F73 		.ascii	"to_sym\000"
 713      796D00
 714 0057 00       		.space	1
 715              	.LC7:
 716 0058 3D3D3D00 		.ascii	"===\000"
 717              		.bss
 718              		.align	2
 719              		.set	.LANCHOR0,. + 0
 720              		.type	sym_index, %object
 721              		.size	sym_index, 3600
 722              	sym_index:
 723 0000 00000000 		.space	3600
 723      00000000 
 723      00000000 
 723      00000000 
 723      00000000 
 724              		.type	sym_index_pos, %object
 725              		.size	sym_index_pos, 4
 726              	sym_index_pos:
 727 0e10 00000000 		.space	4
 728              		.text
 729              	.Letext0:
 730              		.file 2 "c:\\program files (x86)\\cypress\\psoc creator\\4.2\\psoc creator\\import\\gnu\\arm\\5.4.
 731              		.file 3 "c:\\program files (x86)\\cypress\\psoc creator\\4.2\\psoc creator\\import\\gnu\\arm\\5.4.
 732              		.file 4 "..\\..\\mruby_c2\\Design01.cydsn\\value.h"
 733              		.file 5 "..\\..\\mruby_c2\\Design01.cydsn\\vm.h"
 734              		.file 6 "..\\..\\mruby_c2\\Design01.cydsn\\c_array.h"
 735              		.file 7 "..\\..\\mruby_c2\\Design01.cydsn\\c_string.h"
 736              		.file 8 "..\\..\\mruby_c2\\Design01.cydsn\\static.h"
 737              		.file 9 "Generated_Source\\PSoC5/core_cm3.h"
 738              		.file 10 "c:\\program files (x86)\\cypress\\psoc creator\\4.2\\psoc creator\\import\\gnu\\arm\\5.4
 739              		.file 11 "..\\..\\mruby_c2\\Design01.cydsn\\console.h"
 740              		.file 12 "..\\..\\mruby_c2\\Design01.cydsn\\alloc.h"
 741              		.file 13 "..\\..\\mruby_c2\\Design01.cydsn\\class.h"