ARM GAS  C:\Users\164\AppData\Local\Temp\ccxmKrTp.s 			page 1


   1              		.syntax unified
   2              		.cpu cortex-m3
   3              		.fpu softvfp
   4              		.eabi_attribute 20, 1
   5              		.eabi_attribute 21, 1
   6              		.eabi_attribute 23, 3
   7              		.eabi_attribute 24, 1
   8              		.eabi_attribute 25, 1
   9              		.eabi_attribute 26, 1
  10              		.eabi_attribute 30, 1
  11              		.eabi_attribute 34, 1
  12              		.eabi_attribute 18, 4
  13              		.thumb
  14              		.syntax unified
  15              		.file	"symbol.c"
  16              		.text
  17              	.Ltext0:
  18              		.cfi_sections	.debug_frame
  19              		.section	.text.search_index,"ax",%progbits
  20              		.align	2
  21              		.thumb
  22              		.thumb_func
  23              		.type	search_index, %function
  24              	search_index:
  25              	.LFB86:
  26              		.file 1 "symbol.c"
   1:symbol.c      **** /*! @file
   2:symbol.c      ****   @brief
   3:symbol.c      ****   mruby/c Symbol class
   4:symbol.c      **** 
   5:symbol.c      ****   <pre>
   6:symbol.c      ****   Copyright (C) 2015-2018 Kyushu Institute of Technology.
   7:symbol.c      ****   Copyright (C) 2015-2018 Shimane IT Open-Innovation Center.
   8:symbol.c      **** 
   9:symbol.c      ****   This file is distributed under BSD 3-Clause License.
  10:symbol.c      **** 
  11:symbol.c      ****   </pre>
  12:symbol.c      **** */
  13:symbol.c      **** 
  14:symbol.c      **** #include "vm_config.h"
  15:symbol.c      **** #include <stdint.h>
  16:symbol.c      **** #include <string.h>
  17:symbol.c      **** #include <assert.h>
  18:symbol.c      **** 
  19:symbol.c      **** #include "value.h"
  20:symbol.c      **** #include "vm.h"
  21:symbol.c      **** #include "alloc.h"
  22:symbol.c      **** #include "static.h"
  23:symbol.c      **** #include "class.h"
  24:symbol.c      **** #include "symbol.h"
  25:symbol.c      **** #include "c_string.h"
  26:symbol.c      **** #include "c_array.h"
  27:symbol.c      **** #include "console.h"
  28:symbol.c      **** 
  29:symbol.c      **** 
  30:symbol.c      **** #if !defined(MRBC_SYMBOL_SEARCH_LINER) && !defined(MRBC_SYMBOL_SEARCH_BTREE)
  31:symbol.c      **** #define MRBC_SYMBOL_SEARCH_BTREE
ARM GAS  C:\Users\164\AppData\Local\Temp\ccxmKrTp.s 			page 2


  32:symbol.c      **** #endif
  33:symbol.c      **** 
  34:symbol.c      **** #ifndef MRBC_SYMBOL_TABLE_INDEX_TYPE
  35:symbol.c      **** #define MRBC_SYMBOL_TABLE_INDEX_TYPE	uint16_t
  36:symbol.c      **** #endif
  37:symbol.c      **** 
  38:symbol.c      **** struct SYM_INDEX {
  39:symbol.c      ****   uint16_t hash;	//!< hash value, returned by calc_hash().
  40:symbol.c      **** #ifdef MRBC_SYMBOL_SEARCH_BTREE
  41:symbol.c      ****   MRBC_SYMBOL_TABLE_INDEX_TYPE left;
  42:symbol.c      ****   MRBC_SYMBOL_TABLE_INDEX_TYPE right;
  43:symbol.c      **** #endif
  44:symbol.c      ****   const char *cstr;	//!< point to the symbol string.
  45:symbol.c      **** };
  46:symbol.c      **** 
  47:symbol.c      **** 
  48:symbol.c      **** static struct SYM_INDEX sym_index[MAX_SYMBOLS_COUNT];
  49:symbol.c      **** static int sym_index_pos;	// point to the last(free) sym_index array.
  50:symbol.c      **** 
  51:symbol.c      **** 
  52:symbol.c      **** //================================================================
  53:symbol.c      **** /*! search index table
  54:symbol.c      ****  */
  55:symbol.c      **** static int search_index( uint16_t hash, const char *str )
  56:symbol.c      **** {
  27              		.loc 1 56 0
  28              		.cfi_startproc
  29              		@ args = 0, pretend = 0, frame = 0
  30              		@ frame_needed = 0, uses_anonymous_args = 0
  31              	.LVL0:
  32 0000 F8B5     		push	{r3, r4, r5, r6, r7, lr}
  33              		.cfi_def_cfa_offset 24
  34              		.cfi_offset 3, -24
  35              		.cfi_offset 4, -20
  36              		.cfi_offset 5, -16
  37              		.cfi_offset 6, -12
  38              		.cfi_offset 7, -8
  39              		.cfi_offset 14, -4
  40 0002 0646     		mov	r6, r0
  41 0004 0F46     		mov	r7, r1
  42              	.LVL1:
  57:symbol.c      **** #ifdef MRBC_SYMBOL_SEARCH_LINER
  58:symbol.c      ****   int i;
  59:symbol.c      ****   for( i = 0; i < sym_index_pos; i++ ) {
  60:symbol.c      ****     if( sym_index[i].hash == hash && strcmp(str, sym_index[i].cstr) == 0 ) {
  61:symbol.c      ****       return i;
  62:symbol.c      ****     }
  63:symbol.c      ****   }
  64:symbol.c      ****   return -1;
  65:symbol.c      **** #endif
  66:symbol.c      **** 
  67:symbol.c      **** #ifdef MRBC_SYMBOL_SEARCH_BTREE
  68:symbol.c      ****   int i = 0;
  43              		.loc 1 68 0
  44 0006 0024     		movs	r4, #0
  45              	.LVL2:
  46              	.L6:
ARM GAS  C:\Users\164\AppData\Local\Temp\ccxmKrTp.s 			page 3


  69:symbol.c      ****   do {
  70:symbol.c      ****     if( sym_index[i].hash == hash && strcmp(str, sym_index[i].cstr) == 0 ) {
  47              		.loc 1 70 0
  48 0008 04EB4402 		add	r2, r4, r4, lsl #1
  49 000c 9300     		lsls	r3, r2, #2
  50 000e 104A     		ldr	r2, .L9
  51 0010 D55A     		ldrh	r5, [r2, r3]
  52 0012 B542     		cmp	r5, r6
  53 0014 06D1     		bne	.L2
  54              		.loc 1 70 0 is_stmt 0 discriminator 1
  55 0016 0E4A     		ldr	r2, .L9
  56 0018 1344     		add	r3, r3, r2
  57 001a 9968     		ldr	r1, [r3, #8]
  58 001c 3846     		mov	r0, r7
  59 001e FFF7FEFF 		bl	strcmp
  60              	.LVL3:
  61 0022 98B1     		cbz	r0, .L7
  62              	.L2:
  71:symbol.c      ****       return i;
  72:symbol.c      ****     }
  73:symbol.c      ****     if( hash < sym_index[i].hash ) {
  63              		.loc 1 73 0 is_stmt 1
  64 0024 B542     		cmp	r5, r6
  65 0026 06D9     		bls	.L4
  74:symbol.c      ****       i = sym_index[i].left;
  66              		.loc 1 74 0
  67 0028 04EB4404 		add	r4, r4, r4, lsl #1
  68              	.LVL4:
  69 002c A300     		lsls	r3, r4, #2
  70 002e 084A     		ldr	r2, .L9
  71 0030 1344     		add	r3, r3, r2
  72 0032 5C88     		ldrh	r4, [r3, #2]
  73              	.LVL5:
  74 0034 05E0     		b	.L5
  75              	.L4:
  75:symbol.c      ****     } else {
  76:symbol.c      ****       i = sym_index[i].right;
  76              		.loc 1 76 0
  77 0036 04EB4404 		add	r4, r4, r4, lsl #1
  78              	.LVL6:
  79 003a A300     		lsls	r3, r4, #2
  80 003c 044A     		ldr	r2, .L9
  81 003e 1344     		add	r3, r3, r2
  82 0040 9C88     		ldrh	r4, [r3, #4]
  83              	.LVL7:
  84              	.L5:
  77:symbol.c      ****     }
  78:symbol.c      ****   } while( i != 0 );
  85              		.loc 1 78 0
  86 0042 002C     		cmp	r4, #0
  87 0044 E0D1     		bne	.L6
  79:symbol.c      ****   return -1;
  88              		.loc 1 79 0
  89 0046 4FF0FF30 		mov	r0, #-1
  90 004a F8BD     		pop	{r3, r4, r5, r6, r7, pc}
  91              	.LVL8:
  92              	.L7:
ARM GAS  C:\Users\164\AppData\Local\Temp\ccxmKrTp.s 			page 4


  71:symbol.c      ****     }
  93              		.loc 1 71 0
  94 004c 2046     		mov	r0, r4
  80:symbol.c      **** #endif
  81:symbol.c      **** }
  95              		.loc 1 81 0
  96 004e F8BD     		pop	{r3, r4, r5, r6, r7, pc}
  97              	.LVL9:
  98              	.L10:
  99              		.align	2
 100              	.L9:
 101 0050 00000000 		.word	.LANCHOR0
 102              		.cfi_endproc
 103              	.LFE86:
 104              		.size	search_index, .-search_index
 105              		.section	.text.add_index,"ax",%progbits
 106              		.align	2
 107              		.thumb
 108              		.thumb_func
 109              		.type	add_index, %function
 110              	add_index:
 111              	.LFB87:
  82:symbol.c      **** 
  83:symbol.c      **** 
  84:symbol.c      **** //================================================================
  85:symbol.c      **** /*! add to index table
  86:symbol.c      ****  */
  87:symbol.c      **** static int add_index( uint16_t hash, const char *str )
  88:symbol.c      **** {
 112              		.loc 1 88 0
 113              		.cfi_startproc
 114              		@ args = 0, pretend = 0, frame = 0
 115              		@ frame_needed = 0, uses_anonymous_args = 0
 116              	.LVL10:
 117 0000 38B5     		push	{r3, r4, r5, lr}
 118              		.cfi_def_cfa_offset 16
 119              		.cfi_offset 3, -16
 120              		.cfi_offset 4, -12
 121              		.cfi_offset 5, -8
 122              		.cfi_offset 14, -4
  89:symbol.c      ****   // check overflow.
  90:symbol.c      ****   if( sym_index_pos >= MAX_SYMBOLS_COUNT ) {
 123              		.loc 1 90 0
 124 0002 204B     		ldr	r3, .L20
 125 0004 D3F8104E 		ldr	r4, [r3, #3600]
 126 0008 B4F5967F 		cmp	r4, #300
 127 000c 07DB     		blt	.L12
 128 000e 0A46     		mov	r2, r1
  91:symbol.c      ****     console_printf( "Overflow %s for '%s'\n", "MAX_SYMBOLS_COUNT", str );
 129              		.loc 1 91 0
 130 0010 1D49     		ldr	r1, .L20+4
 131              	.LVL11:
 132 0012 1E48     		ldr	r0, .L20+8
 133              	.LVL12:
 134 0014 FFF7FEFF 		bl	console_printf
 135              	.LVL13:
  92:symbol.c      ****     return -1;
ARM GAS  C:\Users\164\AppData\Local\Temp\ccxmKrTp.s 			page 5


 136              		.loc 1 92 0
 137 0018 4FF0FF34 		mov	r4, #-1
 138 001c 2FE0     		b	.L13
 139              	.LVL14:
 140              	.L12:
  93:symbol.c      ****   }
  94:symbol.c      **** 
  95:symbol.c      ****   int sym_id = sym_index_pos++;
 141              		.loc 1 95 0
 142 001e 194D     		ldr	r5, .L20
 143 0020 631C     		adds	r3, r4, #1
 144 0022 C5F8103E 		str	r3, [r5, #3600]
 145              	.LVL15:
  96:symbol.c      **** 
  97:symbol.c      ****   // append table.
  98:symbol.c      ****   sym_index[sym_id].hash = hash;
 146              		.loc 1 98 0
 147 0026 6300     		lsls	r3, r4, #1
 148 0028 2344     		add	r3, r3, r4
 149 002a 9A00     		lsls	r2, r3, #2
 150 002c AB18     		adds	r3, r5, r2
 151 002e A852     		strh	r0, [r5, r2]	@ movhi
  99:symbol.c      ****   sym_index[sym_id].cstr = str;
 152              		.loc 1 99 0
 153 0030 9960     		str	r1, [r3, #8]
 154              	.LVL16:
 100:symbol.c      **** 
 101:symbol.c      **** #ifdef MRBC_SYMBOL_SEARCH_BTREE
 102:symbol.c      ****   int i = 0;
 155              		.loc 1 102 0
 156 0032 0023     		movs	r3, #0
 157              	.LVL17:
 158              	.L14:
 103:symbol.c      **** 
 104:symbol.c      ****   while( 1 ) {
 105:symbol.c      ****     if( hash < sym_index[i].hash ) {
 159              		.loc 1 105 0
 160 0034 03EB4301 		add	r1, r3, r3, lsl #1
 161 0038 8A00     		lsls	r2, r1, #2
 162 003a 1249     		ldr	r1, .L20
 163 003c 8A5A     		ldrh	r2, [r1, r2]
 164 003e 9042     		cmp	r0, r2
 165 0040 0ED2     		bcs	.L15
 106:symbol.c      ****       // left side
 107:symbol.c      ****       if( sym_index[i].left == 0 ) {	// left is empty?
 166              		.loc 1 107 0
 167 0042 03EB4301 		add	r1, r3, r3, lsl #1
 168 0046 8A00     		lsls	r2, r1, #2
 169 0048 0E49     		ldr	r1, .L20
 170 004a 0A44     		add	r2, r2, r1
 171 004c 5288     		ldrh	r2, [r2, #2]
 172 004e 2AB9     		cbnz	r2, .L16
 108:symbol.c      ****         sym_index[i].left = sym_id;
 173              		.loc 1 108 0
 174 0050 03EB4303 		add	r3, r3, r3, lsl #1
 175              	.LVL18:
 176 0054 9A00     		lsls	r2, r3, #2
ARM GAS  C:\Users\164\AppData\Local\Temp\ccxmKrTp.s 			page 6


 177 0056 0A44     		add	r2, r2, r1
 178 0058 5480     		strh	r4, [r2, #2]	@ movhi
 109:symbol.c      ****         break;
 179              		.loc 1 109 0
 180 005a 10E0     		b	.L13
 181              	.LVL19:
 182              	.L16:
 110:symbol.c      ****       }
 111:symbol.c      ****       i = sym_index[i].left;
 183              		.loc 1 111 0
 184 005c 1346     		mov	r3, r2
 185              	.LVL20:
 186 005e E9E7     		b	.L14
 187              	.L15:
 112:symbol.c      ****     } else {
 113:symbol.c      ****       // right side
 114:symbol.c      ****       if( sym_index[i].right == 0 ) {	// right is empty?
 188              		.loc 1 114 0
 189 0060 03EB4301 		add	r1, r3, r3, lsl #1
 190 0064 8A00     		lsls	r2, r1, #2
 191 0066 0749     		ldr	r1, .L20
 192 0068 0A44     		add	r2, r2, r1
 193 006a 9288     		ldrh	r2, [r2, #4]
 194 006c 2AB9     		cbnz	r2, .L18
 115:symbol.c      ****         sym_index[i].right = sym_id;
 195              		.loc 1 115 0
 196 006e 03EB4303 		add	r3, r3, r3, lsl #1
 197              	.LVL21:
 198 0072 9A00     		lsls	r2, r3, #2
 199 0074 0A44     		add	r2, r2, r1
 200 0076 9480     		strh	r4, [r2, #4]	@ movhi
 116:symbol.c      ****         break;
 201              		.loc 1 116 0
 202 0078 01E0     		b	.L13
 203              	.LVL22:
 204              	.L18:
 117:symbol.c      ****       }
 118:symbol.c      ****       i = sym_index[i].right;
 205              		.loc 1 118 0
 206 007a 1346     		mov	r3, r2
 207              	.LVL23:
 208 007c DAE7     		b	.L14
 209              	.LVL24:
 210              	.L13:
 119:symbol.c      ****     }
 120:symbol.c      ****   }
 121:symbol.c      **** #endif
 122:symbol.c      ****   return sym_id;
 123:symbol.c      **** }
 211              		.loc 1 123 0
 212 007e 2046     		mov	r0, r4
 213 0080 38BD     		pop	{r3, r4, r5, pc}
 214              	.L21:
 215 0082 00BF     		.align	2
 216              	.L20:
 217 0084 00000000 		.word	.LANCHOR0
 218 0088 00000000 		.word	.LC0
ARM GAS  C:\Users\164\AppData\Local\Temp\ccxmKrTp.s 			page 7


 219 008c 14000000 		.word	.LC1
 220              		.cfi_endproc
 221              	.LFE87:
 222              		.size	add_index, .-add_index
 223              		.section	.text.c_all_symbols,"ax",%progbits
 224              		.align	2
 225              		.thumb
 226              		.thumb_func
 227              		.type	c_all_symbols, %function
 228              	c_all_symbols:
 229              	.LFB92:
 124:symbol.c      **** 
 125:symbol.c      **** 
 126:symbol.c      **** //================================================================
 127:symbol.c      **** /*! constructor
 128:symbol.c      **** 
 129:symbol.c      ****   @param  vm	pointer to VM.
 130:symbol.c      ****   @param  str	String
 131:symbol.c      ****   @return 	symbol object
 132:symbol.c      **** */
 133:symbol.c      **** mrbc_value mrbc_symbol_new(struct VM *vm, const char *str)
 134:symbol.c      **** {
 135:symbol.c      ****   mrbc_value ret = {.tt = MRBC_TT_SYMBOL};
 136:symbol.c      ****   uint16_t h = calc_hash(str);
 137:symbol.c      ****   mrbc_sym sym_id = search_index(h, str);
 138:symbol.c      **** 
 139:symbol.c      ****   if( sym_id >= 0 ) {
 140:symbol.c      ****     ret.i = sym_id;
 141:symbol.c      ****     return ret;		// already exist.
 142:symbol.c      ****   }
 143:symbol.c      **** 
 144:symbol.c      ****   // create symbol object dynamically.
 145:symbol.c      ****   int size = strlen(str) + 1;
 146:symbol.c      ****   char *buf = mrbc_raw_alloc(size);
 147:symbol.c      ****   if( buf == NULL ) return ret;		// ENOMEM raise?
 148:symbol.c      **** 
 149:symbol.c      ****   memcpy(buf, str, size);
 150:symbol.c      ****   ret.i = add_index( h, buf );
 151:symbol.c      **** 
 152:symbol.c      ****   return ret;
 153:symbol.c      **** }
 154:symbol.c      **** 
 155:symbol.c      **** 
 156:symbol.c      **** //================================================================
 157:symbol.c      **** /*! Calculate hash value.
 158:symbol.c      **** 
 159:symbol.c      ****   @param  str		Target string.
 160:symbol.c      ****   @return uint16_t	Hash value.
 161:symbol.c      **** */
 162:symbol.c      **** uint16_t calc_hash(const char *str)
 163:symbol.c      **** {
 164:symbol.c      ****   uint16_t h = 0;
 165:symbol.c      **** 
 166:symbol.c      ****   while( *str != '\0' ) {
 167:symbol.c      ****     h = h * 37 + *str;
 168:symbol.c      ****     str++;
 169:symbol.c      ****   }
ARM GAS  C:\Users\164\AppData\Local\Temp\ccxmKrTp.s 			page 8


 170:symbol.c      ****   return h;
 171:symbol.c      **** }
 172:symbol.c      **** 
 173:symbol.c      **** 
 174:symbol.c      **** //================================================================
 175:symbol.c      **** /*! Convert string to symbol value.
 176:symbol.c      **** 
 177:symbol.c      ****   @param  str		Target string.
 178:symbol.c      ****   @return mrbc_sym	Symbol value.
 179:symbol.c      **** */
 180:symbol.c      **** mrbc_sym str_to_symid(const char *str)
 181:symbol.c      **** {
 182:symbol.c      ****   uint16_t h = calc_hash(str);
 183:symbol.c      ****   mrbc_sym sym_id = search_index(h, str);
 184:symbol.c      ****   if( sym_id >= 0 ) return sym_id;
 185:symbol.c      **** 
 186:symbol.c      ****   return add_index( h, str );
 187:symbol.c      **** }
 188:symbol.c      **** 
 189:symbol.c      **** 
 190:symbol.c      **** //================================================================
 191:symbol.c      **** /*! Convert symbol value to string.
 192:symbol.c      **** 
 193:symbol.c      ****   @param  mrbc_sym	Symbol value.
 194:symbol.c      ****   @return const char*	String.
 195:symbol.c      ****   @retval NULL		Invalid sym_id was given.
 196:symbol.c      **** */
 197:symbol.c      **** const char * symid_to_str(mrbc_sym sym_id)
 198:symbol.c      **** {
 199:symbol.c      ****   if( sym_id < 0 ) return NULL;
 200:symbol.c      ****   if( sym_id >= sym_index_pos ) return NULL;
 201:symbol.c      **** 
 202:symbol.c      ****   return sym_index[sym_id].cstr;
 203:symbol.c      **** }
 204:symbol.c      **** 
 205:symbol.c      **** 
 206:symbol.c      **** 
 207:symbol.c      **** //================================================================
 208:symbol.c      **** /*! (method) all_symbols
 209:symbol.c      **** */
 210:symbol.c      **** static void c_all_symbols(struct VM *vm, mrbc_value v[], int argc)
 211:symbol.c      **** {
 230              		.loc 1 211 0
 231              		.cfi_startproc
 232              		@ args = 0, pretend = 0, frame = 32
 233              		@ frame_needed = 0, uses_anonymous_args = 0
 234              	.LVL25:
 235 0000 30B5     		push	{r4, r5, lr}
 236              		.cfi_def_cfa_offset 12
 237              		.cfi_offset 4, -12
 238              		.cfi_offset 5, -8
 239              		.cfi_offset 14, -4
 240 0002 89B0     		sub	sp, sp, #36
 241              		.cfi_def_cfa_offset 48
 242 0004 0D46     		mov	r5, r1
 212:symbol.c      ****   mrbc_value ret = mrbc_array_new(vm, sym_index_pos);
 243              		.loc 1 212 0
ARM GAS  C:\Users\164\AppData\Local\Temp\ccxmKrTp.s 			page 9


 244 0006 144B     		ldr	r3, .L26
 245 0008 D3F8102E 		ldr	r2, [r3, #3600]
 246              	.LVL26:
 247 000c 0146     		mov	r1, r0
 248              	.LVL27:
 249 000e 04A8     		add	r0, sp, #16
 250              	.LVL28:
 251 0010 FFF7FEFF 		bl	mrbc_array_new
 252              	.LVL29:
 213:symbol.c      **** 
 214:symbol.c      ****   int i;
 215:symbol.c      ****   for( i = 0; i < sym_index_pos; i++ ) {
 253              		.loc 1 215 0
 254 0014 0024     		movs	r4, #0
 255 0016 0CE0     		b	.L23
 256              	.LVL30:
 257              	.L24:
 258              	.LBB2:
 216:symbol.c      ****     mrbc_value sym1 = {.tt = MRBC_TT_SYMBOL};
 259              		.loc 1 216 0 discriminator 3
 260 0018 0023     		movs	r3, #0
 261 001a 0093     		str	r3, [sp]
 262 001c 0193     		str	r3, [sp, #4]
 263 001e 0393     		str	r3, [sp, #12]
 264 0020 0623     		movs	r3, #6
 265 0022 8DF80030 		strb	r3, [sp]
 217:symbol.c      ****     sym1.i = i;
 266              		.loc 1 217 0 discriminator 3
 267 0026 0294     		str	r4, [sp, #8]
 218:symbol.c      ****     mrbc_array_push(&ret, &sym1);
 268              		.loc 1 218 0 discriminator 3
 269 0028 6946     		mov	r1, sp
 270 002a 04A8     		add	r0, sp, #16
 271 002c FFF7FEFF 		bl	mrbc_array_push
 272              	.LVL31:
 273              	.LBE2:
 215:symbol.c      ****     mrbc_value sym1 = {.tt = MRBC_TT_SYMBOL};
 274              		.loc 1 215 0 discriminator 3
 275 0030 0134     		adds	r4, r4, #1
 276              	.LVL32:
 277              	.L23:
 215:symbol.c      ****     mrbc_value sym1 = {.tt = MRBC_TT_SYMBOL};
 278              		.loc 1 215 0 is_stmt 0 discriminator 1
 279 0032 094B     		ldr	r3, .L26
 280 0034 D3F8103E 		ldr	r3, [r3, #3600]
 281 0038 9C42     		cmp	r4, r3
 282 003a EDDB     		blt	.L24
 283              	.LBB3:
 219:symbol.c      ****   }
 220:symbol.c      ****   SET_RETURN(ret);
 284              		.loc 1 220 0 is_stmt 1
 285 003c 08AB     		add	r3, sp, #32
 286 003e 13E90F00 		ldmdb	r3, {r0, r1, r2, r3}
 287 0042 8DE80F00 		stmia	sp, {r0, r1, r2, r3}
 288 0046 2846     		mov	r0, r5
 289 0048 FFF7FEFF 		bl	mrbc_dec_ref_counter
 290              	.LVL33:
ARM GAS  C:\Users\164\AppData\Local\Temp\ccxmKrTp.s 			page 10


 291 004c 9DE80F00 		ldmia	sp, {r0, r1, r2, r3}
 292 0050 85E80F00 		stmia	r5, {r0, r1, r2, r3}
 293              	.LBE3:
 221:symbol.c      **** }
 294              		.loc 1 221 0
 295 0054 09B0     		add	sp, sp, #36
 296              		.cfi_def_cfa_offset 12
 297              		@ sp needed
 298 0056 30BD     		pop	{r4, r5, pc}
 299              	.LVL34:
 300              	.L27:
 301              		.align	2
 302              	.L26:
 303 0058 00000000 		.word	.LANCHOR0
 304              		.cfi_endproc
 305              	.LFE92:
 306              		.size	c_all_symbols, .-c_all_symbols
 307              		.section	.text.calc_hash,"ax",%progbits
 308              		.align	2
 309              		.global	calc_hash
 310              		.thumb
 311              		.thumb_func
 312              		.type	calc_hash, %function
 313              	calc_hash:
 314              	.LFB89:
 163:symbol.c      ****   uint16_t h = 0;
 315              		.loc 1 163 0
 316              		.cfi_startproc
 317              		@ args = 0, pretend = 0, frame = 0
 318              		@ frame_needed = 0, uses_anonymous_args = 0
 319              		@ link register save eliminated.
 320              	.LVL35:
 164:symbol.c      **** 
 321              		.loc 1 164 0
 322 0000 0023     		movs	r3, #0
 166:symbol.c      ****     h = h * 37 + *str;
 323              		.loc 1 166 0
 324 0002 07E0     		b	.L29
 325              	.LVL36:
 326              	.L30:
 167:symbol.c      ****     str++;
 327              		.loc 1 167 0
 328 0004 03EBC301 		add	r1, r3, r3, lsl #3
 329 0008 03EB8103 		add	r3, r3, r1, lsl #2
 330              	.LVL37:
 331 000c 9BB2     		uxth	r3, r3
 332 000e 1344     		add	r3, r3, r2
 333 0010 9BB2     		uxth	r3, r3
 334              	.LVL38:
 168:symbol.c      ****   }
 335              		.loc 1 168 0
 336 0012 0130     		adds	r0, r0, #1
 337              	.LVL39:
 338              	.L29:
 166:symbol.c      ****     h = h * 37 + *str;
 339              		.loc 1 166 0
 340 0014 0278     		ldrb	r2, [r0]	@ zero_extendqisi2
ARM GAS  C:\Users\164\AppData\Local\Temp\ccxmKrTp.s 			page 11


 341 0016 002A     		cmp	r2, #0
 342 0018 F4D1     		bne	.L30
 171:symbol.c      **** 
 343              		.loc 1 171 0
 344 001a 1846     		mov	r0, r3
 345              	.LVL40:
 346 001c 7047     		bx	lr
 347              		.cfi_endproc
 348              	.LFE89:
 349              		.size	calc_hash, .-calc_hash
 350 001e 00BF     		.section	.text.mrbc_symbol_new,"ax",%progbits
 351              		.align	2
 352              		.global	mrbc_symbol_new
 353              		.thumb
 354              		.thumb_func
 355              		.type	mrbc_symbol_new, %function
 356              	mrbc_symbol_new:
 357              	.LFB88:
 134:symbol.c      ****   mrbc_value ret = {.tt = MRBC_TT_SYMBOL};
 358              		.loc 1 134 0
 359              		.cfi_startproc
 360              		@ args = 0, pretend = 0, frame = 0
 361              		@ frame_needed = 0, uses_anonymous_args = 0
 362              	.LVL41:
 363 0000 2DE9F041 		push	{r4, r5, r6, r7, r8, lr}
 364              		.cfi_def_cfa_offset 24
 365              		.cfi_offset 4, -24
 366              		.cfi_offset 5, -20
 367              		.cfi_offset 6, -16
 368              		.cfi_offset 7, -12
 369              		.cfi_offset 8, -8
 370              		.cfi_offset 14, -4
 371 0004 0446     		mov	r4, r0
 372 0006 1546     		mov	r5, r2
 135:symbol.c      ****   uint16_t h = calc_hash(str);
 373              		.loc 1 135 0
 374 0008 0023     		movs	r3, #0
 375 000a 0360     		str	r3, [r0]
 376 000c 4360     		str	r3, [r0, #4]
 377 000e 8360     		str	r3, [r0, #8]
 378 0010 C360     		str	r3, [r0, #12]
 379 0012 0623     		movs	r3, #6
 380 0014 0370     		strb	r3, [r0]
 136:symbol.c      ****   mrbc_sym sym_id = search_index(h, str);
 381              		.loc 1 136 0
 382 0016 1046     		mov	r0, r2
 383              	.LVL42:
 384 0018 FFF7FEFF 		bl	calc_hash
 385              	.LVL43:
 386 001c 0646     		mov	r6, r0
 387              	.LVL44:
 137:symbol.c      **** 
 388              		.loc 1 137 0
 389 001e 2946     		mov	r1, r5
 390 0020 FFF7FEFF 		bl	search_index
 391              	.LVL45:
 392 0024 00B2     		sxth	r0, r0
ARM GAS  C:\Users\164\AppData\Local\Temp\ccxmKrTp.s 			page 12


 393              	.LVL46:
 139:symbol.c      ****     ret.i = sym_id;
 394              		.loc 1 139 0
 395 0026 0028     		cmp	r0, #0
 396 0028 01DB     		blt	.L32
 140:symbol.c      ****     return ret;		// already exist.
 397              		.loc 1 140 0
 398 002a A060     		str	r0, [r4, #8]
 141:symbol.c      ****   }
 399              		.loc 1 141 0
 400 002c 11E0     		b	.L31
 401              	.L32:
 145:symbol.c      ****   char *buf = mrbc_raw_alloc(size);
 402              		.loc 1 145 0
 403 002e 2846     		mov	r0, r5
 404              	.LVL47:
 405 0030 FFF7FEFF 		bl	strlen
 406              	.LVL48:
 407 0034 471C     		adds	r7, r0, #1
 408              	.LVL49:
 146:symbol.c      ****   if( buf == NULL ) return ret;		// ENOMEM raise?
 409              		.loc 1 146 0
 410 0036 3846     		mov	r0, r7
 411 0038 FFF7FEFF 		bl	mrbc_raw_alloc
 412              	.LVL50:
 147:symbol.c      **** 
 413              		.loc 1 147 0
 414 003c 8046     		mov	r8, r0
 415 003e 40B1     		cbz	r0, .L31
 149:symbol.c      ****   ret.i = add_index( h, buf );
 416              		.loc 1 149 0
 417 0040 3A46     		mov	r2, r7
 418 0042 2946     		mov	r1, r5
 419 0044 FFF7FEFF 		bl	memcpy
 420              	.LVL51:
 150:symbol.c      **** 
 421              		.loc 1 150 0
 422 0048 4146     		mov	r1, r8
 423 004a 3046     		mov	r0, r6
 424 004c FFF7FEFF 		bl	add_index
 425              	.LVL52:
 426 0050 A060     		str	r0, [r4, #8]
 427              	.LVL53:
 428              	.L31:
 153:symbol.c      **** 
 429              		.loc 1 153 0
 430 0052 2046     		mov	r0, r4
 431 0054 BDE8F081 		pop	{r4, r5, r6, r7, r8, pc}
 432              		.cfi_endproc
 433              	.LFE88:
 434              		.size	mrbc_symbol_new, .-mrbc_symbol_new
 435              		.section	.text.str_to_symid,"ax",%progbits
 436              		.align	2
 437              		.global	str_to_symid
 438              		.thumb
 439              		.thumb_func
 440              		.type	str_to_symid, %function
ARM GAS  C:\Users\164\AppData\Local\Temp\ccxmKrTp.s 			page 13


 441              	str_to_symid:
 442              	.LFB90:
 181:symbol.c      ****   uint16_t h = calc_hash(str);
 443              		.loc 1 181 0
 444              		.cfi_startproc
 445              		@ args = 0, pretend = 0, frame = 0
 446              		@ frame_needed = 0, uses_anonymous_args = 0
 447              	.LVL54:
 448 0000 38B5     		push	{r3, r4, r5, lr}
 449              		.cfi_def_cfa_offset 16
 450              		.cfi_offset 3, -16
 451              		.cfi_offset 4, -12
 452              		.cfi_offset 5, -8
 453              		.cfi_offset 14, -4
 454 0002 0446     		mov	r4, r0
 182:symbol.c      ****   mrbc_sym sym_id = search_index(h, str);
 455              		.loc 1 182 0
 456 0004 FFF7FEFF 		bl	calc_hash
 457              	.LVL55:
 458 0008 0546     		mov	r5, r0
 459              	.LVL56:
 183:symbol.c      ****   if( sym_id >= 0 ) return sym_id;
 460              		.loc 1 183 0
 461 000a 2146     		mov	r1, r4
 462 000c FFF7FEFF 		bl	search_index
 463              	.LVL57:
 464 0010 00B2     		sxth	r0, r0
 465              	.LVL58:
 184:symbol.c      **** 
 466              		.loc 1 184 0
 467 0012 0028     		cmp	r0, #0
 468 0014 04DA     		bge	.L36
 186:symbol.c      **** }
 469              		.loc 1 186 0
 470 0016 2146     		mov	r1, r4
 471 0018 2846     		mov	r0, r5
 472              	.LVL59:
 473 001a FFF7FEFF 		bl	add_index
 474              	.LVL60:
 475 001e 00B2     		sxth	r0, r0
 476              	.L36:
 187:symbol.c      **** 
 477              		.loc 1 187 0
 478 0020 38BD     		pop	{r3, r4, r5, pc}
 479              		.cfi_endproc
 480              	.LFE90:
 481              		.size	str_to_symid, .-str_to_symid
 482 0022 00BF     		.section	.text.symid_to_str,"ax",%progbits
 483              		.align	2
 484              		.global	symid_to_str
 485              		.thumb
 486              		.thumb_func
 487              		.type	symid_to_str, %function
 488              	symid_to_str:
 489              	.LFB91:
 198:symbol.c      ****   if( sym_id < 0 ) return NULL;
 490              		.loc 1 198 0
ARM GAS  C:\Users\164\AppData\Local\Temp\ccxmKrTp.s 			page 14


 491              		.cfi_startproc
 492              		@ args = 0, pretend = 0, frame = 0
 493              		@ frame_needed = 0, uses_anonymous_args = 0
 494              		@ link register save eliminated.
 495              	.LVL61:
 199:symbol.c      ****   if( sym_id >= sym_index_pos ) return NULL;
 496              		.loc 1 199 0
 497 0000 0028     		cmp	r0, #0
 498              	.LVL62:
 499 0002 0BDB     		blt	.L41
 200:symbol.c      **** 
 500              		.loc 1 200 0
 501 0004 074B     		ldr	r3, .L43
 502 0006 D3F8103E 		ldr	r3, [r3, #3600]
 503 000a 9842     		cmp	r0, r3
 504 000c 08DA     		bge	.L42
 202:symbol.c      **** }
 505              		.loc 1 202 0
 506 000e 00EB4000 		add	r0, r0, r0, lsl #1
 507 0012 8300     		lsls	r3, r0, #2
 508 0014 034A     		ldr	r2, .L43
 509 0016 1344     		add	r3, r3, r2
 510 0018 9868     		ldr	r0, [r3, #8]
 511 001a 7047     		bx	lr
 512              	.L41:
 199:symbol.c      ****   if( sym_id >= sym_index_pos ) return NULL;
 513              		.loc 1 199 0
 514 001c 0020     		movs	r0, #0
 515 001e 7047     		bx	lr
 516              	.L42:
 200:symbol.c      **** 
 517              		.loc 1 200 0
 518 0020 0020     		movs	r0, #0
 203:symbol.c      **** 
 519              		.loc 1 203 0
 520 0022 7047     		bx	lr
 521              	.L44:
 522              		.align	2
 523              	.L43:
 524 0024 00000000 		.word	.LANCHOR0
 525              		.cfi_endproc
 526              	.LFE91:
 527              		.size	symid_to_str, .-symid_to_str
 528              		.section	.text.c_to_s,"ax",%progbits
 529              		.align	2
 530              		.thumb
 531              		.thumb_func
 532              		.type	c_to_s, %function
 533              	c_to_s:
 534              	.LFB94:
 222:symbol.c      **** 
 223:symbol.c      **** 
 224:symbol.c      **** #if MRBC_USE_STRING
 225:symbol.c      **** //================================================================
 226:symbol.c      **** /*! (method) inspect
 227:symbol.c      **** */
 228:symbol.c      **** static void c_inspect(struct VM *vm, mrbc_value v[], int argc)
ARM GAS  C:\Users\164\AppData\Local\Temp\ccxmKrTp.s 			page 15


 229:symbol.c      **** {
 230:symbol.c      ****   const char *s = symid_to_str(v[0].i);
 231:symbol.c      ****   v[0] = mrbc_string_new_cstr(vm, ":");
 232:symbol.c      ****   mrbc_string_append_cstr(&v[0], s);
 233:symbol.c      **** }
 234:symbol.c      **** 
 235:symbol.c      **** 
 236:symbol.c      **** //================================================================
 237:symbol.c      **** /*! (method) to_s
 238:symbol.c      **** */
 239:symbol.c      **** static void c_to_s(struct VM *vm, mrbc_value v[], int argc)
 240:symbol.c      **** {
 535              		.loc 1 240 0
 536              		.cfi_startproc
 537              		@ args = 0, pretend = 0, frame = 16
 538              		@ frame_needed = 0, uses_anonymous_args = 0
 539              	.LVL63:
 540 0000 70B5     		push	{r4, r5, r6, lr}
 541              		.cfi_def_cfa_offset 16
 542              		.cfi_offset 4, -16
 543              		.cfi_offset 5, -12
 544              		.cfi_offset 6, -8
 545              		.cfi_offset 14, -4
 546 0002 84B0     		sub	sp, sp, #16
 547              		.cfi_def_cfa_offset 32
 548 0004 0646     		mov	r6, r0
 549 0006 0C46     		mov	r4, r1
 241:symbol.c      ****   v[0] = mrbc_string_new_cstr(vm, symid_to_str(v[0].i));
 550              		.loc 1 241 0
 551 0008 B1F90800 		ldrsh	r0, [r1, #8]
 552              	.LVL64:
 553 000c FFF7FEFF 		bl	symid_to_str
 554              	.LVL65:
 555 0010 0246     		mov	r2, r0
 556 0012 3146     		mov	r1, r6
 557 0014 6846     		mov	r0, sp
 558 0016 FFF7FEFF 		bl	mrbc_string_new_cstr
 559              	.LVL66:
 560 001a 9DE80F00 		ldmia	sp, {r0, r1, r2, r3}
 561 001e 84E80F00 		stmia	r4, {r0, r1, r2, r3}
 242:symbol.c      **** }
 562              		.loc 1 242 0
 563 0022 04B0     		add	sp, sp, #16
 564              		.cfi_def_cfa_offset 16
 565              		@ sp needed
 566 0024 70BD     		pop	{r4, r5, r6, pc}
 567              		.cfi_endproc
 568              	.LFE94:
 569              		.size	c_to_s, .-c_to_s
 570 0026 00BF     		.section	.text.c_inspect,"ax",%progbits
 571              		.align	2
 572              		.thumb
 573              		.thumb_func
 574              		.type	c_inspect, %function
 575              	c_inspect:
 576              	.LFB93:
 229:symbol.c      ****   const char *s = symid_to_str(v[0].i);
ARM GAS  C:\Users\164\AppData\Local\Temp\ccxmKrTp.s 			page 16


 577              		.loc 1 229 0
 578              		.cfi_startproc
 579              		@ args = 0, pretend = 0, frame = 16
 580              		@ frame_needed = 0, uses_anonymous_args = 0
 581              	.LVL67:
 582 0000 F0B5     		push	{r4, r5, r6, r7, lr}
 583              		.cfi_def_cfa_offset 20
 584              		.cfi_offset 4, -20
 585              		.cfi_offset 5, -16
 586              		.cfi_offset 6, -12
 587              		.cfi_offset 7, -8
 588              		.cfi_offset 14, -4
 589 0002 85B0     		sub	sp, sp, #20
 590              		.cfi_def_cfa_offset 40
 591 0004 0746     		mov	r7, r0
 592 0006 0C46     		mov	r4, r1
 230:symbol.c      ****   v[0] = mrbc_string_new_cstr(vm, ":");
 593              		.loc 1 230 0
 594 0008 B1F90800 		ldrsh	r0, [r1, #8]
 595              	.LVL68:
 596 000c FFF7FEFF 		bl	symid_to_str
 597              	.LVL69:
 598 0010 0646     		mov	r6, r0
 599              	.LVL70:
 231:symbol.c      ****   mrbc_string_append_cstr(&v[0], s);
 600              		.loc 1 231 0
 601 0012 074A     		ldr	r2, .L49
 602 0014 3946     		mov	r1, r7
 603 0016 6846     		mov	r0, sp
 604              	.LVL71:
 605 0018 FFF7FEFF 		bl	mrbc_string_new_cstr
 606              	.LVL72:
 607 001c 9DE80F00 		ldmia	sp, {r0, r1, r2, r3}
 608 0020 84E80F00 		stmia	r4, {r0, r1, r2, r3}
 232:symbol.c      **** }
 609              		.loc 1 232 0
 610 0024 3146     		mov	r1, r6
 611 0026 2046     		mov	r0, r4
 612 0028 FFF7FEFF 		bl	mrbc_string_append_cstr
 613              	.LVL73:
 233:symbol.c      **** 
 614              		.loc 1 233 0
 615 002c 05B0     		add	sp, sp, #20
 616              		.cfi_def_cfa_offset 20
 617              		@ sp needed
 618 002e F0BD     		pop	{r4, r5, r6, r7, pc}
 619              	.LVL74:
 620              	.L50:
 621              		.align	2
 622              	.L49:
 623 0030 2C000000 		.word	.LC2
 624              		.cfi_endproc
 625              	.LFE93:
 626              		.size	c_inspect, .-c_inspect
 627              		.section	.text.mrbc_init_class_symbol,"ax",%progbits
 628              		.align	2
 629              		.global	mrbc_init_class_symbol
ARM GAS  C:\Users\164\AppData\Local\Temp\ccxmKrTp.s 			page 17


 630              		.thumb
 631              		.thumb_func
 632              		.type	mrbc_init_class_symbol, %function
 633              	mrbc_init_class_symbol:
 634              	.LFB95:
 243:symbol.c      **** #endif
 244:symbol.c      **** 
 245:symbol.c      **** 
 246:symbol.c      **** 
 247:symbol.c      **** //================================================================
 248:symbol.c      **** /*! initialize
 249:symbol.c      **** */
 250:symbol.c      **** void mrbc_init_class_symbol(struct VM *vm)
 251:symbol.c      **** {
 635              		.loc 1 251 0
 636              		.cfi_startproc
 637              		@ args = 0, pretend = 0, frame = 0
 638              		@ frame_needed = 0, uses_anonymous_args = 0
 639              	.LVL75:
 640 0000 70B5     		push	{r4, r5, r6, lr}
 641              		.cfi_def_cfa_offset 16
 642              		.cfi_offset 4, -16
 643              		.cfi_offset 5, -12
 644              		.cfi_offset 6, -8
 645              		.cfi_offset 14, -4
 646 0002 0446     		mov	r4, r0
 252:symbol.c      ****   mrbc_class_symbol = mrbc_define_class(vm, "Symbol", mrbc_class_object);
 647              		.loc 1 252 0
 648 0004 134B     		ldr	r3, .L53
 649 0006 1A68     		ldr	r2, [r3]
 650 0008 1349     		ldr	r1, .L53+4
 651 000a FFF7FEFF 		bl	mrbc_define_class
 652              	.LVL76:
 653 000e 0146     		mov	r1, r0
 654 0010 124D     		ldr	r5, .L53+8
 655 0012 2860     		str	r0, [r5]
 253:symbol.c      **** 
 254:symbol.c      ****   mrbc_define_method(vm, mrbc_class_symbol, "all_symbols", c_all_symbols);
 656              		.loc 1 254 0
 657 0014 124B     		ldr	r3, .L53+12
 658 0016 134A     		ldr	r2, .L53+16
 659 0018 2046     		mov	r0, r4
 660 001a FFF7FEFF 		bl	mrbc_define_method
 661              	.LVL77:
 255:symbol.c      **** #if MRBC_USE_STRING
 256:symbol.c      ****   mrbc_define_method(vm, mrbc_class_symbol, "inspect", c_inspect);
 662              		.loc 1 256 0
 663 001e 124B     		ldr	r3, .L53+20
 664 0020 124A     		ldr	r2, .L53+24
 665 0022 2968     		ldr	r1, [r5]
 666 0024 2046     		mov	r0, r4
 667 0026 FFF7FEFF 		bl	mrbc_define_method
 668              	.LVL78:
 257:symbol.c      ****   mrbc_define_method(vm, mrbc_class_symbol, "to_s", c_to_s);
 669              		.loc 1 257 0
 670 002a 114E     		ldr	r6, .L53+28
 671 002c 3346     		mov	r3, r6
ARM GAS  C:\Users\164\AppData\Local\Temp\ccxmKrTp.s 			page 18


 672 002e 114A     		ldr	r2, .L53+32
 673 0030 2968     		ldr	r1, [r5]
 674 0032 2046     		mov	r0, r4
 675 0034 FFF7FEFF 		bl	mrbc_define_method
 676              	.LVL79:
 258:symbol.c      ****   mrbc_define_method(vm, mrbc_class_symbol, "id2name", c_to_s);
 677              		.loc 1 258 0
 678 0038 3346     		mov	r3, r6
 679 003a 0F4A     		ldr	r2, .L53+36
 680 003c 2968     		ldr	r1, [r5]
 681 003e 2046     		mov	r0, r4
 682 0040 FFF7FEFF 		bl	mrbc_define_method
 683              	.LVL80:
 259:symbol.c      **** #endif
 260:symbol.c      ****   mrbc_define_method(vm, mrbc_class_symbol, "to_sym", c_ineffect);
 684              		.loc 1 260 0
 685 0044 0D4B     		ldr	r3, .L53+40
 686 0046 0E4A     		ldr	r2, .L53+44
 687 0048 2968     		ldr	r1, [r5]
 688 004a 2046     		mov	r0, r4
 689 004c FFF7FEFF 		bl	mrbc_define_method
 690              	.LVL81:
 691 0050 70BD     		pop	{r4, r5, r6, pc}
 692              	.LVL82:
 693              	.L54:
 694 0052 00BF     		.align	2
 695              	.L53:
 696 0054 00000000 		.word	mrbc_class_object
 697 0058 30000000 		.word	.LC3
 698 005c 00000000 		.word	mrbc_class_symbol
 699 0060 00000000 		.word	c_all_symbols
 700 0064 38000000 		.word	.LC4
 701 0068 00000000 		.word	c_inspect
 702 006c 44000000 		.word	.LC5
 703 0070 00000000 		.word	c_to_s
 704 0074 4C000000 		.word	.LC6
 705 0078 54000000 		.word	.LC7
 706 007c 00000000 		.word	c_ineffect
 707 0080 5C000000 		.word	.LC8
 708              		.cfi_endproc
 709              	.LFE95:
 710              		.size	mrbc_init_class_symbol, .-mrbc_init_class_symbol
 711              		.section	.rodata.str1.4,"aMS",%progbits,1
 712              		.align	2
 713              	.LC0:
 714 0000 4D41585F 		.ascii	"MAX_SYMBOLS_COUNT\000"
 714      53594D42 
 714      4F4C535F 
 714      434F554E 
 714      5400
 715 0012 0000     		.space	2
 716              	.LC1:
 717 0014 4F766572 		.ascii	"Overflow %s for '%s'\012\000"
 717      666C6F77 
 717      20257320 
 717      666F7220 
 717      27257327 
ARM GAS  C:\Users\164\AppData\Local\Temp\ccxmKrTp.s 			page 19


 718 002a 0000     		.space	2
 719              	.LC2:
 720 002c 3A00     		.ascii	":\000"
 721 002e 0000     		.space	2
 722              	.LC3:
 723 0030 53796D62 		.ascii	"Symbol\000"
 723      6F6C00
 724 0037 00       		.space	1
 725              	.LC4:
 726 0038 616C6C5F 		.ascii	"all_symbols\000"
 726      73796D62 
 726      6F6C7300 
 727              	.LC5:
 728 0044 696E7370 		.ascii	"inspect\000"
 728      65637400 
 729              	.LC6:
 730 004c 746F5F73 		.ascii	"to_s\000"
 730      00
 731 0051 000000   		.space	3
 732              	.LC7:
 733 0054 6964326E 		.ascii	"id2name\000"
 733      616D6500 
 734              	.LC8:
 735 005c 746F5F73 		.ascii	"to_sym\000"
 735      796D00
 736              		.bss
 737              		.align	2
 738              		.set	.LANCHOR0,. + 0
 739              		.type	sym_index, %object
 740              		.size	sym_index, 3600
 741              	sym_index:
 742 0000 00000000 		.space	3600
 742      00000000 
 742      00000000 
 742      00000000 
 742      00000000 
 743              		.type	sym_index_pos, %object
 744              		.size	sym_index_pos, 4
 745              	sym_index_pos:
 746 0e10 00000000 		.space	4
 747              		.text
 748              	.Letext0:
 749              		.file 2 "c:\\program files (x86)\\cypress\\psoc creator\\4.2\\psoc creator\\import\\gnu\\arm\\5.4.
 750              		.file 3 "c:\\program files (x86)\\cypress\\psoc creator\\4.2\\psoc creator\\import\\gnu\\arm\\5.4.
 751              		.file 4 "value.h"
 752              		.file 5 "vm.h"
 753              		.file 6 "c_array.h"
 754              		.file 7 "c_string.h"
 755              		.file 8 "static.h"
 756              		.file 9 "Generated_Source\\PSoC5/core_cm3.h"
 757              		.file 10 "c:\\program files (x86)\\cypress\\psoc creator\\4.2\\psoc creator\\import\\gnu\\arm\\5.4
 758              		.file 11 "console.h"
 759              		.file 12 "alloc.h"
 760              		.file 13 "class.h"
 761              		.section	.debug_info,"",%progbits
 762              	.Ldebug_info0:
 763 0000 B60C0000 		.4byte	0xcb6
ARM GAS  C:\Users\164\AppData\Local\Temp\ccxmKrTp.s 			page 20


 764 0004 0400     		.2byte	0x4
 765 0006 00000000 		.4byte	.Ldebug_abbrev0
 766 000a 04       		.byte	0x4
 767 000b 01       		.uleb128 0x1
 768 000c 09020000 		.4byte	.LASF131
 769 0010 0C       		.byte	0xc
 770 0011 B5030000 		.4byte	.LASF132
 771 0015 67030000 		.4byte	.LASF133
 772 0019 00000000 		.4byte	.Ldebug_ranges0+0
 773 001d 00000000 		.4byte	0
 774 0021 00000000 		.4byte	.Ldebug_line0
 775 0025 02       		.uleb128 0x2
 776 0026 4E040000 		.4byte	.LASF0
 777 002a 02       		.byte	0x2
 778 002b 1B       		.byte	0x1b
 779 002c 30000000 		.4byte	0x30
 780 0030 03       		.uleb128 0x3
 781 0031 01       		.byte	0x1
 782 0032 06       		.byte	0x6
 783 0033 D0050000 		.4byte	.LASF2
 784 0037 02       		.uleb128 0x2
 785 0038 EE040000 		.4byte	.LASF1
 786 003c 02       		.byte	0x2
 787 003d 1D       		.byte	0x1d
 788 003e 42000000 		.4byte	0x42
 789 0042 03       		.uleb128 0x3
 790 0043 01       		.byte	0x1
 791 0044 08       		.byte	0x8
 792 0045 68050000 		.4byte	.LASF3
 793 0049 02       		.uleb128 0x2
 794 004a 07040000 		.4byte	.LASF4
 795 004e 02       		.byte	0x2
 796 004f 29       		.byte	0x29
 797 0050 54000000 		.4byte	0x54
 798 0054 03       		.uleb128 0x3
 799 0055 02       		.byte	0x2
 800 0056 05       		.byte	0x5
 801 0057 94040000 		.4byte	.LASF5
 802 005b 02       		.uleb128 0x2
 803 005c C4010000 		.4byte	.LASF6
 804 0060 02       		.byte	0x2
 805 0061 2B       		.byte	0x2b
 806 0062 66000000 		.4byte	0x66
 807 0066 03       		.uleb128 0x3
 808 0067 02       		.byte	0x2
 809 0068 07       		.byte	0x7
 810 0069 DC050000 		.4byte	.LASF7
 811 006d 02       		.uleb128 0x2
 812 006e DF000000 		.4byte	.LASF8
 813 0072 02       		.byte	0x2
 814 0073 3F       		.byte	0x3f
 815 0074 78000000 		.4byte	0x78
 816 0078 03       		.uleb128 0x3
 817 0079 04       		.byte	0x4
 818 007a 05       		.byte	0x5
 819 007b AC040000 		.4byte	.LASF9
 820 007f 03       		.uleb128 0x3
ARM GAS  C:\Users\164\AppData\Local\Temp\ccxmKrTp.s 			page 21


 821 0080 04       		.byte	0x4
 822 0081 07       		.byte	0x7
 823 0082 30050000 		.4byte	.LASF10
 824 0086 03       		.uleb128 0x3
 825 0087 08       		.byte	0x8
 826 0088 05       		.byte	0x5
 827 0089 A7030000 		.4byte	.LASF11
 828 008d 03       		.uleb128 0x3
 829 008e 08       		.byte	0x8
 830 008f 07       		.byte	0x7
 831 0090 94010000 		.4byte	.LASF12
 832 0094 04       		.uleb128 0x4
 833 0095 04       		.byte	0x4
 834 0096 05       		.byte	0x5
 835 0097 696E7400 		.ascii	"int\000"
 836 009b 03       		.uleb128 0x3
 837 009c 04       		.byte	0x4
 838 009d 07       		.byte	0x7
 839 009e 9F000000 		.4byte	.LASF13
 840 00a2 02       		.uleb128 0x2
 841 00a3 57010000 		.4byte	.LASF14
 842 00a7 03       		.byte	0x3
 843 00a8 14       		.byte	0x14
 844 00a9 25000000 		.4byte	0x25
 845 00ad 02       		.uleb128 0x2
 846 00ae 45030000 		.4byte	.LASF15
 847 00b2 03       		.byte	0x3
 848 00b3 18       		.byte	0x18
 849 00b4 37000000 		.4byte	0x37
 850 00b8 02       		.uleb128 0x2
 851 00b9 7D010000 		.4byte	.LASF16
 852 00bd 03       		.byte	0x3
 853 00be 20       		.byte	0x20
 854 00bf 49000000 		.4byte	0x49
 855 00c3 02       		.uleb128 0x2
 856 00c4 70040000 		.4byte	.LASF17
 857 00c8 03       		.byte	0x3
 858 00c9 24       		.byte	0x24
 859 00ca 5B000000 		.4byte	0x5b
 860 00ce 02       		.uleb128 0x2
 861 00cf 42050000 		.4byte	.LASF18
 862 00d3 03       		.byte	0x3
 863 00d4 2C       		.byte	0x2c
 864 00d5 6D000000 		.4byte	0x6d
 865 00d9 03       		.uleb128 0x3
 866 00da 08       		.byte	0x8
 867 00db 04       		.byte	0x4
 868 00dc 64040000 		.4byte	.LASF19
 869 00e0 03       		.uleb128 0x3
 870 00e1 04       		.byte	0x4
 871 00e2 07       		.byte	0x7
 872 00e3 27050000 		.4byte	.LASF20
 873 00e7 05       		.uleb128 0x5
 874 00e8 04       		.byte	0x4
 875 00e9 ED000000 		.4byte	0xed
 876 00ed 03       		.uleb128 0x3
 877 00ee 01       		.byte	0x1
ARM GAS  C:\Users\164\AppData\Local\Temp\ccxmKrTp.s 			page 22


 878 00ef 08       		.byte	0x8
 879 00f0 FD020000 		.4byte	.LASF21
 880 00f4 05       		.uleb128 0x5
 881 00f5 04       		.byte	0x4
 882 00f6 FA000000 		.4byte	0xfa
 883 00fa 06       		.uleb128 0x6
 884 00fb ED000000 		.4byte	0xed
 885 00ff 02       		.uleb128 0x2
 886 0100 AB010000 		.4byte	.LASF22
 887 0104 04       		.byte	0x4
 888 0105 1A       		.byte	0x1a
 889 0106 CE000000 		.4byte	0xce
 890 010a 02       		.uleb128 0x2
 891 010b 02030000 		.4byte	.LASF23
 892 010f 04       		.byte	0x4
 893 0110 1B       		.byte	0x1b
 894 0111 15010000 		.4byte	0x115
 895 0115 03       		.uleb128 0x3
 896 0116 08       		.byte	0x8
 897 0117 04       		.byte	0x4
 898 0118 0D060000 		.4byte	.LASF24
 899 011c 02       		.uleb128 0x2
 900 011d 04060000 		.4byte	.LASF25
 901 0121 04       		.byte	0x4
 902 0122 1C       		.byte	0x1c
 903 0123 B8000000 		.4byte	0xb8
 904 0127 02       		.uleb128 0x2
 905 0128 69000000 		.4byte	.LASF26
 906 012c 04       		.byte	0x4
 907 012d 2C       		.byte	0x2c
 908 012e 32010000 		.4byte	0x132
 909 0132 05       		.uleb128 0x5
 910 0133 04       		.byte	0x4
 911 0134 38010000 		.4byte	0x138
 912 0138 07       		.uleb128 0x7
 913 0139 4D010000 		.4byte	0x14d
 914 013d 08       		.uleb128 0x8
 915 013e 4D010000 		.4byte	0x14d
 916 0142 08       		.uleb128 0x8
 917 0143 F5010000 		.4byte	0x1f5
 918 0147 08       		.uleb128 0x8
 919 0148 94000000 		.4byte	0x94
 920 014c 00       		.byte	0
 921 014d 05       		.uleb128 0x5
 922 014e 04       		.byte	0x4
 923 014f 53010000 		.4byte	0x153
 924 0153 09       		.uleb128 0x9
 925 0154 564D00   		.ascii	"VM\000"
 926 0157 7006     		.2byte	0x670
 927 0159 05       		.byte	0x5
 928 015a 43       		.byte	0x43
 929 015b F5010000 		.4byte	0x1f5
 930 015f 0A       		.uleb128 0xa
 931 0160 E9000000 		.4byte	.LASF27
 932 0164 05       		.byte	0x5
 933 0165 44       		.byte	0x44
 934 0166 F0050000 		.4byte	0x5f0
ARM GAS  C:\Users\164\AppData\Local\Temp\ccxmKrTp.s 			page 23


 935 016a 00       		.byte	0
 936 016b 0A       		.uleb128 0xa
 937 016c DF010000 		.4byte	.LASF28
 938 0170 05       		.byte	0x5
 939 0171 46       		.byte	0x46
 940 0172 AD000000 		.4byte	0xad
 941 0176 04       		.byte	0x4
 942 0177 0B       		.uleb128 0xb
 943 0178 6D726200 		.ascii	"mrb\000"
 944 017c 05       		.byte	0x5
 945 017d 47       		.byte	0x47
 946 017e 0D060000 		.4byte	0x60d
 947 0182 08       		.byte	0x8
 948 0183 0A       		.uleb128 0xa
 949 0184 01020000 		.4byte	.LASF29
 950 0188 05       		.byte	0x5
 951 0189 49       		.byte	0x49
 952 018a F0050000 		.4byte	0x5f0
 953 018e 0C       		.byte	0xc
 954 018f 0B       		.uleb128 0xb
 955 0190 706300   		.ascii	"pc\000"
 956 0193 05       		.byte	0x5
 957 0194 4A       		.byte	0x4a
 958 0195 C3000000 		.4byte	0xc3
 959 0199 10       		.byte	0x10
 960 019a 0A       		.uleb128 0xa
 961 019b 1B010000 		.4byte	.LASF30
 962 019f 05       		.byte	0x5
 963 01a0 4D       		.byte	0x4d
 964 01a1 18060000 		.4byte	0x618
 965 01a5 18       		.byte	0x18
 966 01a6 0C       		.uleb128 0xc
 967 01a7 4A010000 		.4byte	.LASF31
 968 01ab 05       		.byte	0x5
 969 01ac 4E       		.byte	0x4e
 970 01ad F6050000 		.4byte	0x5f6
 971 01b1 5806     		.2byte	0x658
 972 01b3 0C       		.uleb128 0xc
 973 01b4 79040000 		.4byte	.LASF32
 974 01b8 05       		.byte	0x5
 975 01b9 4F       		.byte	0x4f
 976 01ba 28060000 		.4byte	0x628
 977 01be 5C06     		.2byte	0x65c
 978 01c0 0C       		.uleb128 0xc
 979 01c1 4D030000 		.4byte	.LASF33
 980 01c5 05       		.byte	0x5
 981 01c6 51       		.byte	0x51
 982 01c7 FC050000 		.4byte	0x5fc
 983 01cb 6006     		.2byte	0x660
 984 01cd 0C       		.uleb128 0xc
 985 01ce A4050000 		.4byte	.LASF34
 986 01d2 05       		.byte	0x5
 987 01d3 53       		.byte	0x53
 988 01d4 CE000000 		.4byte	0xce
 989 01d8 6406     		.2byte	0x664
 990 01da 0C       		.uleb128 0xc
 991 01db C0050000 		.4byte	.LASF35
ARM GAS  C:\Users\164\AppData\Local\Temp\ccxmKrTp.s 			page 24


 992 01df 05       		.byte	0x5
 993 01e0 55       		.byte	0x55
 994 01e1 2E060000 		.4byte	0x62e
 995 01e5 6806     		.2byte	0x668
 996 01e7 0C       		.uleb128 0xc
 997 01e8 E0020000 		.4byte	.LASF36
 998 01ec 05       		.byte	0x5
 999 01ed 56       		.byte	0x56
 1000 01ee A2000000 		.4byte	0xa2
 1001 01f2 6906     		.2byte	0x669
 1002 01f4 00       		.byte	0
 1003 01f5 05       		.uleb128 0x5
 1004 01f6 04       		.byte	0x4
 1005 01f7 FB010000 		.4byte	0x1fb
 1006 01fb 0D       		.uleb128 0xd
 1007 01fc BA040000 		.4byte	.LASF37
 1008 0200 10       		.byte	0x10
 1009 0201 04       		.byte	0x4
 1010 0202 68       		.byte	0x68
 1011 0203 1C020000 		.4byte	0x21c
 1012 0207 0E       		.uleb128 0xe
 1013 0208 747400   		.ascii	"tt\000"
 1014 020b 04       		.byte	0x4
 1015 020c 69       		.byte	0x69
 1016 020d 83020000 		.4byte	0x283
 1017 0211 01       		.byte	0x1
 1018 0212 08       		.byte	0x8
 1019 0213 00       		.byte	0
 1020 0214 00       		.byte	0
 1021 0215 0F       		.uleb128 0xf
 1022 0216 8E020000 		.4byte	0x28e
 1023 021a 08       		.byte	0x8
 1024 021b 00       		.byte	0
 1025 021c 10       		.uleb128 0x10
 1026 021d 01       		.byte	0x1
 1027 021e 30000000 		.4byte	0x30
 1028 0222 04       		.byte	0x4
 1029 0223 33       		.byte	0x33
 1030 0224 83020000 		.4byte	0x283
 1031 0228 11       		.uleb128 0x11
 1032 0229 35010000 		.4byte	.LASF38
 1033 022d 7F       		.sleb128 -1
 1034 022e 12       		.uleb128 0x12
 1035 022f B1000000 		.4byte	.LASF39
 1036 0233 00       		.byte	0
 1037 0234 12       		.uleb128 0x12
 1038 0235 24030000 		.4byte	.LASF40
 1039 0239 01       		.byte	0x1
 1040 023a 12       		.uleb128 0x12
 1041 023b 9E040000 		.4byte	.LASF41
 1042 023f 02       		.byte	0x2
 1043 0240 12       		.uleb128 0x12
 1044 0241 87040000 		.4byte	.LASF42
 1045 0245 03       		.byte	0x3
 1046 0246 12       		.uleb128 0x12
 1047 0247 11040000 		.4byte	.LASF43
 1048 024b 04       		.byte	0x4
ARM GAS  C:\Users\164\AppData\Local\Temp\ccxmKrTp.s 			page 25


 1049 024c 12       		.uleb128 0x12
 1050 024d 75000000 		.4byte	.LASF44
 1051 0251 05       		.byte	0x5
 1052 0252 12       		.uleb128 0x12
 1053 0253 85010000 		.4byte	.LASF45
 1054 0257 06       		.byte	0x6
 1055 0258 12       		.uleb128 0x12
 1056 0259 C7040000 		.4byte	.LASF46
 1057 025d 07       		.byte	0x7
 1058 025e 12       		.uleb128 0x12
 1059 025f 3A040000 		.4byte	.LASF47
 1060 0263 14       		.byte	0x14
 1061 0264 12       		.uleb128 0x12
 1062 0265 14060000 		.4byte	.LASF48
 1063 0269 15       		.byte	0x15
 1064 026a 12       		.uleb128 0x12
 1065 026b 37030000 		.4byte	.LASF49
 1066 026f 16       		.byte	0x16
 1067 0270 12       		.uleb128 0x12
 1068 0271 2B040000 		.4byte	.LASF50
 1069 0275 17       		.byte	0x17
 1070 0276 12       		.uleb128 0x12
 1071 0277 D9030000 		.4byte	.LASF51
 1072 027b 18       		.byte	0x18
 1073 027c 12       		.uleb128 0x12
 1074 027d 97050000 		.4byte	.LASF52
 1075 0281 19       		.byte	0x19
 1076 0282 00       		.byte	0
 1077 0283 02       		.uleb128 0x2
 1078 0284 ED010000 		.4byte	.LASF53
 1079 0288 04       		.byte	0x4
 1080 0289 49       		.byte	0x49
 1081 028a 1C020000 		.4byte	0x21c
 1082 028e 13       		.uleb128 0x13
 1083 028f 08       		.byte	0x8
 1084 0290 04       		.byte	0x4
 1085 0291 6A       		.byte	0x6a
 1086 0292 0C030000 		.4byte	0x30c
 1087 0296 14       		.uleb128 0x14
 1088 0297 6900     		.ascii	"i\000"
 1089 0299 04       		.byte	0x4
 1090 029a 6B       		.byte	0x6b
 1091 029b FF000000 		.4byte	0xff
 1092 029f 14       		.uleb128 0x14
 1093 02a0 6400     		.ascii	"d\000"
 1094 02a2 04       		.byte	0x4
 1095 02a3 6D       		.byte	0x6d
 1096 02a4 0A010000 		.4byte	0x10a
 1097 02a8 14       		.uleb128 0x14
 1098 02a9 636C7300 		.ascii	"cls\000"
 1099 02ad 04       		.byte	0x4
 1100 02ae 6F       		.byte	0x6f
 1101 02af 3D030000 		.4byte	0x33d
 1102 02b3 15       		.uleb128 0x15
 1103 02b4 EF050000 		.4byte	.LASF54
 1104 02b8 04       		.byte	0x4
 1105 02b9 70       		.byte	0x70
ARM GAS  C:\Users\164\AppData\Local\Temp\ccxmKrTp.s 			page 26


 1106 02ba F5010000 		.4byte	0x1f5
 1107 02be 15       		.uleb128 0x15
 1108 02bf F8010000 		.4byte	.LASF55
 1109 02c3 04       		.byte	0x4
 1110 02c4 71       		.byte	0x71
 1111 02c5 8E030000 		.4byte	0x38e
 1112 02c9 15       		.uleb128 0x15
 1113 02ca 22050000 		.4byte	.LASF56
 1114 02ce 04       		.byte	0x4
 1115 02cf 72       		.byte	0x72
 1116 02d0 E8030000 		.4byte	0x3e8
 1117 02d4 15       		.uleb128 0x15
 1118 02d5 57040000 		.4byte	.LASF57
 1119 02d9 04       		.byte	0x4
 1120 02da 73       		.byte	0x73
 1121 02db 39040000 		.4byte	0x439
 1122 02df 15       		.uleb128 0x15
 1123 02e0 18030000 		.4byte	.LASF58
 1124 02e4 04       		.byte	0x4
 1125 02e5 74       		.byte	0x74
 1126 02e6 7E040000 		.4byte	0x47e
 1127 02ea 14       		.uleb128 0x14
 1128 02eb 73747200 		.ascii	"str\000"
 1129 02ef 04       		.byte	0x4
 1130 02f0 75       		.byte	0x75
 1131 02f1 F4000000 		.4byte	0xf4
 1132 02f5 15       		.uleb128 0x15
 1133 02f6 25040000 		.4byte	.LASF59
 1134 02fa 04       		.byte	0x4
 1135 02fb 76       		.byte	0x76
 1136 02fc 89040000 		.4byte	0x489
 1137 0300 15       		.uleb128 0x15
 1138 0301 B5040000 		.4byte	.LASF60
 1139 0305 04       		.byte	0x4
 1140 0306 77       		.byte	0x77
 1141 0307 94040000 		.4byte	0x494
 1142 030b 00       		.byte	0
 1143 030c 0D       		.uleb128 0xd
 1144 030d 5E010000 		.4byte	.LASF61
 1145 0311 0C       		.byte	0xc
 1146 0312 04       		.byte	0x4
 1147 0313 84       		.byte	0x84
 1148 0314 3D030000 		.4byte	0x33d
 1149 0318 0A       		.uleb128 0xa
 1150 0319 D2030000 		.4byte	.LASF62
 1151 031d 04       		.byte	0x4
 1152 031e 85       		.byte	0x85
 1153 031f 1C010000 		.4byte	0x11c
 1154 0323 00       		.byte	0
 1155 0324 0A       		.uleb128 0xa
 1156 0325 12030000 		.4byte	.LASF63
 1157 0329 04       		.byte	0x4
 1158 032a 89       		.byte	0x89
 1159 032b 3D030000 		.4byte	0x33d
 1160 032f 04       		.byte	0x4
 1161 0330 0A       		.uleb128 0xa
 1162 0331 A7020000 		.4byte	.LASF64
ARM GAS  C:\Users\164\AppData\Local\Temp\ccxmKrTp.s 			page 27


 1163 0335 04       		.byte	0x4
 1164 0336 8A       		.byte	0x8a
 1165 0337 E8030000 		.4byte	0x3e8
 1166 033b 08       		.byte	0x8
 1167 033c 00       		.byte	0
 1168 033d 05       		.uleb128 0x5
 1169 033e 04       		.byte	0x4
 1170 033f 0C030000 		.4byte	0x30c
 1171 0343 0D       		.uleb128 0xd
 1172 0344 54050000 		.4byte	.LASF65
 1173 0348 0C       		.byte	0xc
 1174 0349 04       		.byte	0x4
 1175 034a 93       		.byte	0x93
 1176 034b 8E030000 		.4byte	0x38e
 1177 034f 0A       		.uleb128 0xa
 1178 0350 83000000 		.4byte	.LASF66
 1179 0354 04       		.byte	0x4
 1180 0355 94       		.byte	0x94
 1181 0356 C3000000 		.4byte	0xc3
 1182 035a 00       		.byte	0
 1183 035b 0E       		.uleb128 0xe
 1184 035c 747400   		.ascii	"tt\000"
 1185 035f 04       		.byte	0x4
 1186 0360 94       		.byte	0x94
 1187 0361 83020000 		.4byte	0x283
 1188 0365 01       		.byte	0x1
 1189 0366 08       		.byte	0x8
 1190 0367 00       		.byte	0
 1191 0368 02       		.byte	0x2
 1192 0369 0B       		.uleb128 0xb
 1193 036a 636C7300 		.ascii	"cls\000"
 1194 036e 04       		.byte	0x4
 1195 036f 96       		.byte	0x96
 1196 0370 3D030000 		.4byte	0x33d
 1197 0374 04       		.byte	0x4
 1198 0375 0A       		.uleb128 0xa
 1199 0376 0D030000 		.4byte	.LASF67
 1200 037a 04       		.byte	0x4
 1201 037b 97       		.byte	0x97
 1202 037c C0040000 		.4byte	0x4c0
 1203 0380 08       		.byte	0x8
 1204 0381 0A       		.uleb128 0xa
 1205 0382 1F030000 		.4byte	.LASF68
 1206 0386 04       		.byte	0x4
 1207 0387 98       		.byte	0x98
 1208 0388 C6040000 		.4byte	0x4c6
 1209 038c 0C       		.byte	0xc
 1210 038d 00       		.byte	0
 1211 038e 05       		.uleb128 0x5
 1212 038f 04       		.byte	0x4
 1213 0390 43030000 		.4byte	0x343
 1214 0394 0D       		.uleb128 0xd
 1215 0395 0B010000 		.4byte	.LASF69
 1216 0399 10       		.byte	0x10
 1217 039a 04       		.byte	0x4
 1218 039b A1       		.byte	0xa1
 1219 039c E8030000 		.4byte	0x3e8
ARM GAS  C:\Users\164\AppData\Local\Temp\ccxmKrTp.s 			page 28


 1220 03a0 0A       		.uleb128 0xa
 1221 03a1 83000000 		.4byte	.LASF66
 1222 03a5 04       		.byte	0x4
 1223 03a6 A2       		.byte	0xa2
 1224 03a7 C3000000 		.4byte	0xc3
 1225 03ab 00       		.byte	0
 1226 03ac 0E       		.uleb128 0xe
 1227 03ad 747400   		.ascii	"tt\000"
 1228 03b0 04       		.byte	0x4
 1229 03b1 A2       		.byte	0xa2
 1230 03b2 83020000 		.4byte	0x283
 1231 03b6 01       		.byte	0x1
 1232 03b7 08       		.byte	0x8
 1233 03b8 00       		.byte	0
 1234 03b9 02       		.byte	0x2
 1235 03ba 16       		.uleb128 0x16
 1236 03bb B9050000 		.4byte	.LASF70
 1237 03bf 04       		.byte	0x4
 1238 03c0 A4       		.byte	0xa4
 1239 03c1 9B000000 		.4byte	0x9b
 1240 03c5 04       		.byte	0x4
 1241 03c6 01       		.byte	0x1
 1242 03c7 07       		.byte	0x7
 1243 03c8 00       		.byte	0
 1244 03c9 0A       		.uleb128 0xa
 1245 03ca D2030000 		.4byte	.LASF62
 1246 03ce 04       		.byte	0x4
 1247 03cf A5       		.byte	0xa5
 1248 03d0 1C010000 		.4byte	0x11c
 1249 03d4 04       		.byte	0x4
 1250 03d5 0A       		.uleb128 0xa
 1251 03d6 AC000000 		.4byte	.LASF71
 1252 03da 04       		.byte	0x4
 1253 03db A9       		.byte	0xa9
 1254 03dc E8030000 		.4byte	0x3e8
 1255 03e0 08       		.byte	0x8
 1256 03e1 0F       		.uleb128 0xf
 1257 03e2 D5040000 		.4byte	0x4d5
 1258 03e6 0C       		.byte	0xc
 1259 03e7 00       		.byte	0
 1260 03e8 05       		.uleb128 0x5
 1261 03e9 04       		.byte	0x4
 1262 03ea 94030000 		.4byte	0x394
 1263 03ee 0D       		.uleb128 0xd
 1264 03ef FD050000 		.4byte	.LASF72
 1265 03f3 0C       		.byte	0xc
 1266 03f4 06       		.byte	0x6
 1267 03f5 1B       		.byte	0x1b
 1268 03f6 39040000 		.4byte	0x439
 1269 03fa 0A       		.uleb128 0xa
 1270 03fb 83000000 		.4byte	.LASF66
 1271 03ff 06       		.byte	0x6
 1272 0400 1C       		.byte	0x1c
 1273 0401 C3000000 		.4byte	0xc3
 1274 0405 00       		.byte	0
 1275 0406 0E       		.uleb128 0xe
 1276 0407 747400   		.ascii	"tt\000"
ARM GAS  C:\Users\164\AppData\Local\Temp\ccxmKrTp.s 			page 29


 1277 040a 06       		.byte	0x6
 1278 040b 1C       		.byte	0x1c
 1279 040c 83020000 		.4byte	0x283
 1280 0410 01       		.byte	0x1
 1281 0411 08       		.byte	0x8
 1282 0412 00       		.byte	0
 1283 0413 02       		.byte	0x2
 1284 0414 0A       		.uleb128 0xa
 1285 0415 9D020000 		.4byte	.LASF73
 1286 0419 06       		.byte	0x6
 1287 041a 1E       		.byte	0x1e
 1288 041b C3000000 		.4byte	0xc3
 1289 041f 04       		.byte	0x4
 1290 0420 0A       		.uleb128 0xa
 1291 0421 C9030000 		.4byte	.LASF74
 1292 0425 06       		.byte	0x6
 1293 0426 1F       		.byte	0x1f
 1294 0427 C3000000 		.4byte	0xc3
 1295 042b 06       		.byte	0x6
 1296 042c 0A       		.uleb128 0xa
 1297 042d 1F030000 		.4byte	.LASF68
 1298 0431 06       		.byte	0x6
 1299 0432 20       		.byte	0x20
 1300 0433 F6050000 		.4byte	0x5f6
 1301 0437 08       		.byte	0x8
 1302 0438 00       		.byte	0
 1303 0439 05       		.uleb128 0x5
 1304 043a 04       		.byte	0x4
 1305 043b EE030000 		.4byte	0x3ee
 1306 043f 0D       		.uleb128 0xd
 1307 0440 02050000 		.4byte	.LASF75
 1308 0444 0C       		.byte	0xc
 1309 0445 07       		.byte	0x7
 1310 0446 1D       		.byte	0x1d
 1311 0447 7E040000 		.4byte	0x47e
 1312 044b 0A       		.uleb128 0xa
 1313 044c 83000000 		.4byte	.LASF66
 1314 0450 07       		.byte	0x7
 1315 0451 1E       		.byte	0x1e
 1316 0452 C3000000 		.4byte	0xc3
 1317 0456 00       		.byte	0
 1318 0457 0E       		.uleb128 0xe
 1319 0458 747400   		.ascii	"tt\000"
 1320 045b 07       		.byte	0x7
 1321 045c 1E       		.byte	0x1e
 1322 045d 83020000 		.4byte	0x283
 1323 0461 01       		.byte	0x1
 1324 0462 08       		.byte	0x8
 1325 0463 00       		.byte	0
 1326 0464 02       		.byte	0x2
 1327 0465 0A       		.uleb128 0xa
 1328 0466 20040000 		.4byte	.LASF76
 1329 046a 07       		.byte	0x7
 1330 046b 20       		.byte	0x20
 1331 046c C3000000 		.4byte	0xc3
 1332 0470 04       		.byte	0x4
 1333 0471 0A       		.uleb128 0xa
ARM GAS  C:\Users\164\AppData\Local\Temp\ccxmKrTp.s 			page 30


 1334 0472 1F030000 		.4byte	.LASF68
 1335 0476 07       		.byte	0x7
 1336 0477 21       		.byte	0x21
 1337 0478 73050000 		.4byte	0x573
 1338 047c 08       		.byte	0x8
 1339 047d 00       		.byte	0
 1340 047e 05       		.uleb128 0x5
 1341 047f 04       		.byte	0x4
 1342 0480 3F040000 		.4byte	0x43f
 1343 0484 17       		.uleb128 0x17
 1344 0485 21060000 		.4byte	.LASF77
 1345 0489 05       		.uleb128 0x5
 1346 048a 04       		.byte	0x4
 1347 048b 84040000 		.4byte	0x484
 1348 048f 17       		.uleb128 0x17
 1349 0490 54000000 		.4byte	.LASF78
 1350 0494 05       		.uleb128 0x5
 1351 0495 04       		.byte	0x4
 1352 0496 8F040000 		.4byte	0x48f
 1353 049a 02       		.uleb128 0x2
 1354 049b 76050000 		.4byte	.LASF79
 1355 049f 04       		.byte	0x4
 1356 04a0 7C       		.byte	0x7c
 1357 04a1 FB010000 		.4byte	0x1fb
 1358 04a5 02       		.uleb128 0x2
 1359 04a6 BE030000 		.4byte	.LASF80
 1360 04aa 04       		.byte	0x4
 1361 04ab 7D       		.byte	0x7d
 1362 04ac FB010000 		.4byte	0x1fb
 1363 04b0 02       		.uleb128 0x2
 1364 04b1 D4000000 		.4byte	.LASF81
 1365 04b5 04       		.byte	0x4
 1366 04b6 8B       		.byte	0x8b
 1367 04b7 0C030000 		.4byte	0x30c
 1368 04bb 17       		.uleb128 0x17
 1369 04bc EE000000 		.4byte	.LASF82
 1370 04c0 05       		.uleb128 0x5
 1371 04c1 04       		.byte	0x4
 1372 04c2 BB040000 		.4byte	0x4bb
 1373 04c6 18       		.uleb128 0x18
 1374 04c7 AD000000 		.4byte	0xad
 1375 04cb D5040000 		.4byte	0x4d5
 1376 04cf 19       		.uleb128 0x19
 1377 04d0 E0000000 		.4byte	0xe0
 1378 04d4 00       		.byte	0
 1379 04d5 13       		.uleb128 0x13
 1380 04d6 04       		.byte	0x4
 1381 04d7 04       		.byte	0x4
 1382 04d8 AA       		.byte	0xaa
 1383 04d9 F4040000 		.4byte	0x4f4
 1384 04dd 15       		.uleb128 0x15
 1385 04de E9000000 		.4byte	.LASF27
 1386 04e2 04       		.byte	0x4
 1387 04e3 AB       		.byte	0xab
 1388 04e4 6D050000 		.4byte	0x56d
 1389 04e8 15       		.uleb128 0x15
 1390 04e9 11010000 		.4byte	.LASF83
ARM GAS  C:\Users\164\AppData\Local\Temp\ccxmKrTp.s 			page 31


 1391 04ed 04       		.byte	0x4
 1392 04ee AC       		.byte	0xac
 1393 04ef 27010000 		.4byte	0x127
 1394 04f3 00       		.byte	0
 1395 04f4 0D       		.uleb128 0xd
 1396 04f5 4F050000 		.4byte	.LASF84
 1397 04f9 1C       		.byte	0x1c
 1398 04fa 05       		.byte	0x5
 1399 04fb 20       		.byte	0x20
 1400 04fc 6D050000 		.4byte	0x56d
 1401 0500 0A       		.uleb128 0xa
 1402 0501 E5010000 		.4byte	.LASF85
 1403 0505 05       		.byte	0x5
 1404 0506 21       		.byte	0x21
 1405 0507 C3000000 		.4byte	0xc3
 1406 050b 00       		.byte	0
 1407 050c 0A       		.uleb128 0xa
 1408 050d 97020000 		.4byte	.LASF86
 1409 0511 05       		.byte	0x5
 1410 0512 22       		.byte	0x22
 1411 0513 C3000000 		.4byte	0xc3
 1412 0517 02       		.byte	0x2
 1413 0518 0A       		.uleb128 0xa
 1414 0519 4A050000 		.4byte	.LASF87
 1415 051d 05       		.byte	0x5
 1416 051e 23       		.byte	0x23
 1417 051f C3000000 		.4byte	0xc3
 1418 0523 04       		.byte	0x4
 1419 0524 0A       		.uleb128 0xa
 1420 0525 C2040000 		.4byte	.LASF88
 1421 0529 05       		.byte	0x5
 1422 052a 24       		.byte	0x24
 1423 052b C3000000 		.4byte	0xc3
 1424 052f 06       		.byte	0x6
 1425 0530 0A       		.uleb128 0xa
 1426 0531 FD040000 		.4byte	.LASF89
 1427 0535 05       		.byte	0x5
 1428 0536 25       		.byte	0x25
 1429 0537 C3000000 		.4byte	0xc3
 1430 053b 08       		.byte	0x8
 1431 053c 0A       		.uleb128 0xa
 1432 053d C3020000 		.4byte	.LASF90
 1433 0541 05       		.byte	0x5
 1434 0542 27       		.byte	0x27
 1435 0543 73050000 		.4byte	0x573
 1436 0547 0C       		.byte	0xc
 1437 0548 0A       		.uleb128 0xa
 1438 0549 44010000 		.4byte	.LASF91
 1439 054d 05       		.byte	0x5
 1440 054e 28       		.byte	0x28
 1441 054f 79050000 		.4byte	0x579
 1442 0553 10       		.byte	0x10
 1443 0554 0A       		.uleb128 0xa
 1444 0555 F2020000 		.4byte	.LASF92
 1445 0559 05       		.byte	0x5
 1446 055a 29       		.byte	0x29
 1447 055b 73050000 		.4byte	0x573
ARM GAS  C:\Users\164\AppData\Local\Temp\ccxmKrTp.s 			page 32


 1448 055f 14       		.byte	0x14
 1449 0560 0A       		.uleb128 0xa
 1450 0561 F8040000 		.4byte	.LASF93
 1451 0565 05       		.byte	0x5
 1452 0566 2A       		.byte	0x2a
 1453 0567 85050000 		.4byte	0x585
 1454 056b 18       		.byte	0x18
 1455 056c 00       		.byte	0
 1456 056d 05       		.uleb128 0x5
 1457 056e 04       		.byte	0x4
 1458 056f F4040000 		.4byte	0x4f4
 1459 0573 05       		.uleb128 0x5
 1460 0574 04       		.byte	0x4
 1461 0575 AD000000 		.4byte	0xad
 1462 0579 05       		.uleb128 0x5
 1463 057a 04       		.byte	0x4
 1464 057b 7F050000 		.4byte	0x57f
 1465 057f 05       		.uleb128 0x5
 1466 0580 04       		.byte	0x4
 1467 0581 9A040000 		.4byte	0x49a
 1468 0585 05       		.uleb128 0x5
 1469 0586 04       		.byte	0x4
 1470 0587 6D050000 		.4byte	0x56d
 1471 058b 02       		.uleb128 0x2
 1472 058c D5040000 		.4byte	.LASF94
 1473 0590 05       		.byte	0x5
 1474 0591 2C       		.byte	0x2c
 1475 0592 F4040000 		.4byte	0x4f4
 1476 0596 0D       		.uleb128 0xd
 1477 0597 AD020000 		.4byte	.LASF95
 1478 059b 18       		.byte	0x18
 1479 059c 05       		.byte	0x5
 1480 059d 34       		.byte	0x34
 1481 059e EA050000 		.4byte	0x5ea
 1482 05a2 0A       		.uleb128 0xa
 1483 05a3 16010000 		.4byte	.LASF96
 1484 05a7 05       		.byte	0x5
 1485 05a8 35       		.byte	0x35
 1486 05a9 EA050000 		.4byte	0x5ea
 1487 05ad 00       		.byte	0
 1488 05ae 0A       		.uleb128 0xa
 1489 05af 01020000 		.4byte	.LASF29
 1490 05b3 05       		.byte	0x5
 1491 05b4 36       		.byte	0x36
 1492 05b5 F0050000 		.4byte	0x5f0
 1493 05b9 04       		.byte	0x4
 1494 05ba 0B       		.uleb128 0xb
 1495 05bb 706300   		.ascii	"pc\000"
 1496 05be 05       		.byte	0x5
 1497 05bf 37       		.byte	0x37
 1498 05c0 C3000000 		.4byte	0xc3
 1499 05c4 08       		.byte	0x8
 1500 05c5 0A       		.uleb128 0xa
 1501 05c6 4A010000 		.4byte	.LASF31
 1502 05ca 05       		.byte	0x5
 1503 05cb 38       		.byte	0x38
 1504 05cc F6050000 		.4byte	0x5f6
ARM GAS  C:\Users\164\AppData\Local\Temp\ccxmKrTp.s 			page 33


 1505 05d0 0C       		.byte	0xc
 1506 05d1 0A       		.uleb128 0xa
 1507 05d2 4D030000 		.4byte	.LASF33
 1508 05d6 05       		.byte	0x5
 1509 05d7 39       		.byte	0x39
 1510 05d8 FC050000 		.4byte	0x5fc
 1511 05dc 10       		.byte	0x10
 1512 05dd 0A       		.uleb128 0xa
 1513 05de BF000000 		.4byte	.LASF97
 1514 05e2 05       		.byte	0x5
 1515 05e3 3A       		.byte	0x3a
 1516 05e4 AD000000 		.4byte	0xad
 1517 05e8 14       		.byte	0x14
 1518 05e9 00       		.byte	0
 1519 05ea 05       		.uleb128 0x5
 1520 05eb 04       		.byte	0x4
 1521 05ec 96050000 		.4byte	0x596
 1522 05f0 05       		.uleb128 0x5
 1523 05f1 04       		.byte	0x4
 1524 05f2 8B050000 		.4byte	0x58b
 1525 05f6 05       		.uleb128 0x5
 1526 05f7 04       		.byte	0x4
 1527 05f8 A5040000 		.4byte	0x4a5
 1528 05fc 05       		.uleb128 0x5
 1529 05fd 04       		.byte	0x4
 1530 05fe B0040000 		.4byte	0x4b0
 1531 0602 02       		.uleb128 0x2
 1532 0603 14050000 		.4byte	.LASF98
 1533 0607 05       		.byte	0x5
 1534 0608 3B       		.byte	0x3b
 1535 0609 96050000 		.4byte	0x596
 1536 060d 05       		.uleb128 0x5
 1537 060e 04       		.byte	0x4
 1538 060f 13060000 		.4byte	0x613
 1539 0613 06       		.uleb128 0x6
 1540 0614 AD000000 		.4byte	0xad
 1541 0618 18       		.uleb128 0x18
 1542 0619 A5040000 		.4byte	0x4a5
 1543 061d 28060000 		.4byte	0x628
 1544 0621 1A       		.uleb128 0x1a
 1545 0622 E0000000 		.4byte	0xe0
 1546 0626 63       		.byte	0x63
 1547 0627 00       		.byte	0
 1548 0628 05       		.uleb128 0x5
 1549 0629 04       		.byte	0x4
 1550 062a 02060000 		.4byte	0x602
 1551 062e 1B       		.uleb128 0x1b
 1552 062f A2000000 		.4byte	0xa2
 1553 0633 03       		.uleb128 0x3
 1554 0634 04       		.byte	0x4
 1555 0635 04       		.byte	0x4
 1556 0636 65010000 		.4byte	.LASF99
 1557 063a 0D       		.uleb128 0xd
 1558 063b DF040000 		.4byte	.LASF100
 1559 063f 0C       		.byte	0xc
 1560 0640 01       		.byte	0x1
 1561 0641 26       		.byte	0x26
ARM GAS  C:\Users\164\AppData\Local\Temp\ccxmKrTp.s 			page 34


 1562 0642 77060000 		.4byte	0x677
 1563 0646 0A       		.uleb128 0xa
 1564 0647 B5040000 		.4byte	.LASF60
 1565 064b 01       		.byte	0x1
 1566 064c 27       		.byte	0x27
 1567 064d C3000000 		.4byte	0xc3
 1568 0651 00       		.byte	0
 1569 0652 0A       		.uleb128 0xa
 1570 0653 E9040000 		.4byte	.LASF101
 1571 0657 01       		.byte	0x1
 1572 0658 29       		.byte	0x29
 1573 0659 C3000000 		.4byte	0xc3
 1574 065d 02       		.byte	0x2
 1575 065e 0A       		.uleb128 0xa
 1576 065f A1030000 		.4byte	.LASF102
 1577 0663 01       		.byte	0x1
 1578 0664 2A       		.byte	0x2a
 1579 0665 C3000000 		.4byte	0xc3
 1580 0669 04       		.byte	0x4
 1581 066a 0A       		.uleb128 0xa
 1582 066b 2B000000 		.4byte	.LASF103
 1583 066f 01       		.byte	0x1
 1584 0670 2C       		.byte	0x2c
 1585 0671 F4000000 		.4byte	0xf4
 1586 0675 08       		.byte	0x8
 1587 0676 00       		.byte	0
 1588 0677 1C       		.uleb128 0x1c
 1589 0678 5A030000 		.4byte	.LASF104
 1590 067c 01       		.byte	0x1
 1591 067d 37       		.byte	0x37
 1592 067e 94000000 		.4byte	0x94
 1593 0682 00000000 		.4byte	.LFB86
 1594 0686 54000000 		.4byte	.LFE86-.LFB86
 1595 068a 01       		.uleb128 0x1
 1596 068b 9C       		.byte	0x9c
 1597 068c CC060000 		.4byte	0x6cc
 1598 0690 1D       		.uleb128 0x1d
 1599 0691 B5040000 		.4byte	.LASF60
 1600 0695 01       		.byte	0x1
 1601 0696 37       		.byte	0x37
 1602 0697 C3000000 		.4byte	0xc3
 1603 069b 00000000 		.4byte	.LLST0
 1604 069f 1E       		.uleb128 0x1e
 1605 06a0 73747200 		.ascii	"str\000"
 1606 06a4 01       		.byte	0x1
 1607 06a5 37       		.byte	0x37
 1608 06a6 F4000000 		.4byte	0xf4
 1609 06aa 21000000 		.4byte	.LLST1
 1610 06ae 1F       		.uleb128 0x1f
 1611 06af 6900     		.ascii	"i\000"
 1612 06b1 01       		.byte	0x1
 1613 06b2 44       		.byte	0x44
 1614 06b3 94000000 		.4byte	0x94
 1615 06b7 4D000000 		.4byte	.LLST2
 1616 06bb 20       		.uleb128 0x20
 1617 06bc 22000000 		.4byte	.LVL3
 1618 06c0 370C0000 		.4byte	0xc37
ARM GAS  C:\Users\164\AppData\Local\Temp\ccxmKrTp.s 			page 35


 1619 06c4 21       		.uleb128 0x21
 1620 06c5 01       		.uleb128 0x1
 1621 06c6 50       		.byte	0x50
 1622 06c7 02       		.uleb128 0x2
 1623 06c8 77       		.byte	0x77
 1624 06c9 00       		.sleb128 0
 1625 06ca 00       		.byte	0
 1626 06cb 00       		.byte	0
 1627 06cc 1C       		.uleb128 0x1c
 1628 06cd 0A050000 		.4byte	.LASF105
 1629 06d1 01       		.byte	0x1
 1630 06d2 57       		.byte	0x57
 1631 06d3 94000000 		.4byte	0x94
 1632 06d7 00000000 		.4byte	.LFB87
 1633 06db 90000000 		.4byte	.LFE87-.LFB87
 1634 06df 01       		.uleb128 0x1
 1635 06e0 9C       		.byte	0x9c
 1636 06e1 43070000 		.4byte	0x743
 1637 06e5 1D       		.uleb128 0x1d
 1638 06e6 B5040000 		.4byte	.LASF60
 1639 06ea 01       		.byte	0x1
 1640 06eb 57       		.byte	0x57
 1641 06ec C3000000 		.4byte	0xc3
 1642 06f0 8D000000 		.4byte	.LLST3
 1643 06f4 1E       		.uleb128 0x1e
 1644 06f5 73747200 		.ascii	"str\000"
 1645 06f9 01       		.byte	0x1
 1646 06fa 57       		.byte	0x57
 1647 06fb F4000000 		.4byte	0xf4
 1648 06ff C7000000 		.4byte	.LLST4
 1649 0703 22       		.uleb128 0x22
 1650 0704 D2030000 		.4byte	.LASF62
 1651 0708 01       		.byte	0x1
 1652 0709 5F       		.byte	0x5f
 1653 070a 94000000 		.4byte	0x94
 1654 070e 24010000 		.4byte	.LLST5
 1655 0712 1F       		.uleb128 0x1f
 1656 0713 6900     		.ascii	"i\000"
 1657 0715 01       		.byte	0x1
 1658 0716 66       		.byte	0x66
 1659 0717 94000000 		.4byte	0x94
 1660 071b 37010000 		.4byte	.LLST6
 1661 071f 20       		.uleb128 0x20
 1662 0720 18000000 		.4byte	.LVL13
 1663 0724 420C0000 		.4byte	0xc42
 1664 0728 21       		.uleb128 0x21
 1665 0729 01       		.uleb128 0x1
 1666 072a 50       		.byte	0x50
 1667 072b 05       		.uleb128 0x5
 1668 072c 03       		.byte	0x3
 1669 072d 14000000 		.4byte	.LC1
 1670 0731 21       		.uleb128 0x21
 1671 0732 01       		.uleb128 0x1
 1672 0733 51       		.byte	0x51
 1673 0734 05       		.uleb128 0x5
 1674 0735 03       		.byte	0x3
 1675 0736 00000000 		.4byte	.LC0
ARM GAS  C:\Users\164\AppData\Local\Temp\ccxmKrTp.s 			page 36


 1676 073a 21       		.uleb128 0x21
 1677 073b 01       		.uleb128 0x1
 1678 073c 52       		.byte	0x52
 1679 073d 03       		.uleb128 0x3
 1680 073e F3       		.byte	0xf3
 1681 073f 01       		.uleb128 0x1
 1682 0740 51       		.byte	0x51
 1683 0741 00       		.byte	0
 1684 0742 00       		.byte	0
 1685 0743 23       		.uleb128 0x23
 1686 0744 C6000000 		.4byte	.LASF112
 1687 0748 01       		.byte	0x1
 1688 0749 D2       		.byte	0xd2
 1689 074a 00000000 		.4byte	.LFB92
 1690 074e 5C000000 		.4byte	.LFE92-.LFB92
 1691 0752 01       		.uleb128 0x1
 1692 0753 9C       		.byte	0x9c
 1693 0754 13080000 		.4byte	0x813
 1694 0758 1E       		.uleb128 0x1e
 1695 0759 766D00   		.ascii	"vm\000"
 1696 075c 01       		.byte	0x1
 1697 075d D2       		.byte	0xd2
 1698 075e 4D010000 		.4byte	0x14d
 1699 0762 6C010000 		.4byte	.LLST7
 1700 0766 1E       		.uleb128 0x1e
 1701 0767 7600     		.ascii	"v\000"
 1702 0769 01       		.byte	0x1
 1703 076a D2       		.byte	0xd2
 1704 076b F6050000 		.4byte	0x5f6
 1705 076f 98010000 		.4byte	.LLST8
 1706 0773 1D       		.uleb128 0x1d
 1707 0774 49040000 		.4byte	.LASF106
 1708 0778 01       		.byte	0x1
 1709 0779 D2       		.byte	0xd2
 1710 077a 94000000 		.4byte	0x94
 1711 077e C4010000 		.4byte	.LLST9
 1712 0782 24       		.uleb128 0x24
 1713 0783 72657400 		.ascii	"ret\000"
 1714 0787 01       		.byte	0x1
 1715 0788 D4       		.byte	0xd4
 1716 0789 A5040000 		.4byte	0x4a5
 1717 078d 02       		.uleb128 0x2
 1718 078e 91       		.byte	0x91
 1719 078f 60       		.sleb128 -32
 1720 0790 1F       		.uleb128 0x1f
 1721 0791 6900     		.ascii	"i\000"
 1722 0793 01       		.byte	0x1
 1723 0794 D6       		.byte	0xd6
 1724 0795 94000000 		.4byte	0x94
 1725 0799 E5010000 		.4byte	.LLST10
 1726 079d 25       		.uleb128 0x25
 1727 079e 18000000 		.4byte	.LBB2
 1728 07a2 18000000 		.4byte	.LBE2-.LBB2
 1729 07a6 CF070000 		.4byte	0x7cf
 1730 07aa 26       		.uleb128 0x26
 1731 07ab 00000000 		.4byte	.LASF107
 1732 07af 01       		.byte	0x1
ARM GAS  C:\Users\164\AppData\Local\Temp\ccxmKrTp.s 			page 37


 1733 07b0 D8       		.byte	0xd8
 1734 07b1 A5040000 		.4byte	0x4a5
 1735 07b5 02       		.uleb128 0x2
 1736 07b6 91       		.byte	0x91
 1737 07b7 50       		.sleb128 -48
 1738 07b8 20       		.uleb128 0x20
 1739 07b9 30000000 		.4byte	.LVL31
 1740 07bd 4D0C0000 		.4byte	0xc4d
 1741 07c1 21       		.uleb128 0x21
 1742 07c2 01       		.uleb128 0x1
 1743 07c3 50       		.byte	0x50
 1744 07c4 02       		.uleb128 0x2
 1745 07c5 91       		.byte	0x91
 1746 07c6 60       		.sleb128 -32
 1747 07c7 21       		.uleb128 0x21
 1748 07c8 01       		.uleb128 0x1
 1749 07c9 51       		.byte	0x51
 1750 07ca 02       		.uleb128 0x2
 1751 07cb 7D       		.byte	0x7d
 1752 07cc 00       		.sleb128 0
 1753 07cd 00       		.byte	0
 1754 07ce 00       		.byte	0
 1755 07cf 25       		.uleb128 0x25
 1756 07d0 3C000000 		.4byte	.LBB3
 1757 07d4 18000000 		.4byte	.LBE3-.LBB3
 1758 07d8 FB070000 		.4byte	0x7fb
 1759 07dc 24       		.uleb128 0x24
 1760 07dd 6E6E6E00 		.ascii	"nnn\000"
 1761 07e1 01       		.byte	0x1
 1762 07e2 DC       		.byte	0xdc
 1763 07e3 A5040000 		.4byte	0x4a5
 1764 07e7 02       		.uleb128 0x2
 1765 07e8 91       		.byte	0x91
 1766 07e9 50       		.sleb128 -48
 1767 07ea 20       		.uleb128 0x20
 1768 07eb 4C000000 		.4byte	.LVL33
 1769 07ef 580C0000 		.4byte	0xc58
 1770 07f3 21       		.uleb128 0x21
 1771 07f4 01       		.uleb128 0x1
 1772 07f5 50       		.byte	0x50
 1773 07f6 02       		.uleb128 0x2
 1774 07f7 75       		.byte	0x75
 1775 07f8 00       		.sleb128 0
 1776 07f9 00       		.byte	0
 1777 07fa 00       		.byte	0
 1778 07fb 20       		.uleb128 0x20
 1779 07fc 14000000 		.4byte	.LVL29
 1780 0800 630C0000 		.4byte	0xc63
 1781 0804 21       		.uleb128 0x21
 1782 0805 01       		.uleb128 0x1
 1783 0806 50       		.byte	0x50
 1784 0807 02       		.uleb128 0x2
 1785 0808 91       		.byte	0x91
 1786 0809 60       		.sleb128 -32
 1787 080a 21       		.uleb128 0x21
 1788 080b 01       		.uleb128 0x1
 1789 080c 51       		.byte	0x51
ARM GAS  C:\Users\164\AppData\Local\Temp\ccxmKrTp.s 			page 38


 1790 080d 03       		.uleb128 0x3
 1791 080e F3       		.byte	0xf3
 1792 080f 01       		.uleb128 0x1
 1793 0810 50       		.byte	0x50
 1794 0811 00       		.byte	0
 1795 0812 00       		.byte	0
 1796 0813 27       		.uleb128 0x27
 1797 0814 5E050000 		.4byte	.LASF108
 1798 0818 01       		.byte	0x1
 1799 0819 A2       		.byte	0xa2
 1800 081a C3000000 		.4byte	0xc3
 1801 081e 00000000 		.4byte	.LFB89
 1802 0822 1E000000 		.4byte	.LFE89-.LFB89
 1803 0826 01       		.uleb128 0x1
 1804 0827 9C       		.byte	0x9c
 1805 0828 49080000 		.4byte	0x849
 1806 082c 1E       		.uleb128 0x1e
 1807 082d 73747200 		.ascii	"str\000"
 1808 0831 01       		.byte	0x1
 1809 0832 A2       		.byte	0xa2
 1810 0833 F4000000 		.4byte	0xf4
 1811 0837 04020000 		.4byte	.LLST11
 1812 083b 1F       		.uleb128 0x1f
 1813 083c 6800     		.ascii	"h\000"
 1814 083e 01       		.byte	0x1
 1815 083f A4       		.byte	0xa4
 1816 0840 C3000000 		.4byte	0xc3
 1817 0844 22020000 		.4byte	.LLST12
 1818 0848 00       		.byte	0
 1819 0849 27       		.uleb128 0x27
 1820 084a CF010000 		.4byte	.LASF109
 1821 084e 01       		.byte	0x1
 1822 084f 85       		.byte	0x85
 1823 0850 A5040000 		.4byte	0x4a5
 1824 0854 00000000 		.4byte	.LFB88
 1825 0858 58000000 		.4byte	.LFE88-.LFB88
 1826 085c 01       		.uleb128 0x1
 1827 085d 9C       		.byte	0x9c
 1828 085e 53090000 		.4byte	0x953
 1829 0862 1E       		.uleb128 0x1e
 1830 0863 766D00   		.ascii	"vm\000"
 1831 0866 01       		.byte	0x1
 1832 0867 85       		.byte	0x85
 1833 0868 4D010000 		.4byte	0x14d
 1834 086c 4C020000 		.4byte	.LLST13
 1835 0870 1E       		.uleb128 0x1e
 1836 0871 73747200 		.ascii	"str\000"
 1837 0875 01       		.byte	0x1
 1838 0876 85       		.byte	0x85
 1839 0877 F4000000 		.4byte	0xf4
 1840 087b 6D020000 		.4byte	.LLST14
 1841 087f 1F       		.uleb128 0x1f
 1842 0880 72657400 		.ascii	"ret\000"
 1843 0884 01       		.byte	0x1
 1844 0885 87       		.byte	0x87
 1845 0886 A5040000 		.4byte	0x4a5
 1846 088a 8B020000 		.4byte	.LLST15
ARM GAS  C:\Users\164\AppData\Local\Temp\ccxmKrTp.s 			page 39


 1847 088e 24       		.uleb128 0x24
 1848 088f 6800     		.ascii	"h\000"
 1849 0891 01       		.byte	0x1
 1850 0892 88       		.byte	0x88
 1851 0893 C3000000 		.4byte	0xc3
 1852 0897 01       		.uleb128 0x1
 1853 0898 56       		.byte	0x56
 1854 0899 22       		.uleb128 0x22
 1855 089a D2030000 		.4byte	.LASF62
 1856 089e 01       		.byte	0x1
 1857 089f 89       		.byte	0x89
 1858 08a0 1C010000 		.4byte	0x11c
 1859 08a4 AB020000 		.4byte	.LLST16
 1860 08a8 22       		.uleb128 0x22
 1861 08a9 20040000 		.4byte	.LASF76
 1862 08ad 01       		.byte	0x1
 1863 08ae 91       		.byte	0x91
 1864 08af 94000000 		.4byte	0x94
 1865 08b3 BE020000 		.4byte	.LLST17
 1866 08b7 1F       		.uleb128 0x1f
 1867 08b8 62756600 		.ascii	"buf\000"
 1868 08bc 01       		.byte	0x1
 1869 08bd 92       		.byte	0x92
 1870 08be E7000000 		.4byte	0xe7
 1871 08c2 D1020000 		.4byte	.LLST18
 1872 08c6 28       		.uleb128 0x28
 1873 08c7 1C000000 		.4byte	.LVL43
 1874 08cb 13080000 		.4byte	0x813
 1875 08cf DA080000 		.4byte	0x8da
 1876 08d3 21       		.uleb128 0x21
 1877 08d4 01       		.uleb128 0x1
 1878 08d5 50       		.byte	0x50
 1879 08d6 02       		.uleb128 0x2
 1880 08d7 75       		.byte	0x75
 1881 08d8 00       		.sleb128 0
 1882 08d9 00       		.byte	0
 1883 08da 28       		.uleb128 0x28
 1884 08db 24000000 		.4byte	.LVL45
 1885 08df 77060000 		.4byte	0x677
 1886 08e3 F4080000 		.4byte	0x8f4
 1887 08e7 21       		.uleb128 0x21
 1888 08e8 01       		.uleb128 0x1
 1889 08e9 50       		.byte	0x50
 1890 08ea 02       		.uleb128 0x2
 1891 08eb 76       		.byte	0x76
 1892 08ec 00       		.sleb128 0
 1893 08ed 21       		.uleb128 0x21
 1894 08ee 01       		.uleb128 0x1
 1895 08ef 51       		.byte	0x51
 1896 08f0 02       		.uleb128 0x2
 1897 08f1 75       		.byte	0x75
 1898 08f2 00       		.sleb128 0
 1899 08f3 00       		.byte	0
 1900 08f4 28       		.uleb128 0x28
 1901 08f5 34000000 		.4byte	.LVL48
 1902 08f9 6E0C0000 		.4byte	0xc6e
 1903 08fd 08090000 		.4byte	0x908
ARM GAS  C:\Users\164\AppData\Local\Temp\ccxmKrTp.s 			page 40


 1904 0901 21       		.uleb128 0x21
 1905 0902 01       		.uleb128 0x1
 1906 0903 50       		.byte	0x50
 1907 0904 02       		.uleb128 0x2
 1908 0905 75       		.byte	0x75
 1909 0906 00       		.sleb128 0
 1910 0907 00       		.byte	0
 1911 0908 28       		.uleb128 0x28
 1912 0909 3C000000 		.4byte	.LVL50
 1913 090d 790C0000 		.4byte	0xc79
 1914 0911 1C090000 		.4byte	0x91c
 1915 0915 21       		.uleb128 0x21
 1916 0916 01       		.uleb128 0x1
 1917 0917 50       		.byte	0x50
 1918 0918 02       		.uleb128 0x2
 1919 0919 77       		.byte	0x77
 1920 091a 00       		.sleb128 0
 1921 091b 00       		.byte	0
 1922 091c 28       		.uleb128 0x28
 1923 091d 48000000 		.4byte	.LVL51
 1924 0921 840C0000 		.4byte	0xc84
 1925 0925 3C090000 		.4byte	0x93c
 1926 0929 21       		.uleb128 0x21
 1927 092a 01       		.uleb128 0x1
 1928 092b 50       		.byte	0x50
 1929 092c 02       		.uleb128 0x2
 1930 092d 78       		.byte	0x78
 1931 092e 00       		.sleb128 0
 1932 092f 21       		.uleb128 0x21
 1933 0930 01       		.uleb128 0x1
 1934 0931 51       		.byte	0x51
 1935 0932 02       		.uleb128 0x2
 1936 0933 75       		.byte	0x75
 1937 0934 00       		.sleb128 0
 1938 0935 21       		.uleb128 0x21
 1939 0936 01       		.uleb128 0x1
 1940 0937 52       		.byte	0x52
 1941 0938 02       		.uleb128 0x2
 1942 0939 77       		.byte	0x77
 1943 093a 00       		.sleb128 0
 1944 093b 00       		.byte	0
 1945 093c 20       		.uleb128 0x20
 1946 093d 50000000 		.4byte	.LVL52
 1947 0941 CC060000 		.4byte	0x6cc
 1948 0945 21       		.uleb128 0x21
 1949 0946 01       		.uleb128 0x1
 1950 0947 50       		.byte	0x50
 1951 0948 02       		.uleb128 0x2
 1952 0949 76       		.byte	0x76
 1953 094a 00       		.sleb128 0
 1954 094b 21       		.uleb128 0x21
 1955 094c 01       		.uleb128 0x1
 1956 094d 51       		.byte	0x51
 1957 094e 02       		.uleb128 0x2
 1958 094f 78       		.byte	0x78
 1959 0950 00       		.sleb128 0
 1960 0951 00       		.byte	0
ARM GAS  C:\Users\164\AppData\Local\Temp\ccxmKrTp.s 			page 41


 1961 0952 00       		.byte	0
 1962 0953 27       		.uleb128 0x27
 1963 0954 FE000000 		.4byte	.LASF110
 1964 0958 01       		.byte	0x1
 1965 0959 B4       		.byte	0xb4
 1966 095a 1C010000 		.4byte	0x11c
 1967 095e 00000000 		.4byte	.LFB90
 1968 0962 22000000 		.4byte	.LFE90-.LFB90
 1969 0966 01       		.uleb128 0x1
 1970 0967 9C       		.byte	0x9c
 1971 0968 DA090000 		.4byte	0x9da
 1972 096c 1E       		.uleb128 0x1e
 1973 096d 73747200 		.ascii	"str\000"
 1974 0971 01       		.byte	0x1
 1975 0972 B4       		.byte	0xb4
 1976 0973 F4000000 		.4byte	0xf4
 1977 0977 EF020000 		.4byte	.LLST19
 1978 097b 24       		.uleb128 0x24
 1979 097c 6800     		.ascii	"h\000"
 1980 097e 01       		.byte	0x1
 1981 097f B6       		.byte	0xb6
 1982 0980 C3000000 		.4byte	0xc3
 1983 0984 01       		.uleb128 0x1
 1984 0985 55       		.byte	0x55
 1985 0986 22       		.uleb128 0x22
 1986 0987 D2030000 		.4byte	.LASF62
 1987 098b 01       		.byte	0x1
 1988 098c B7       		.byte	0xb7
 1989 098d 1C010000 		.4byte	0x11c
 1990 0991 0D030000 		.4byte	.LLST20
 1991 0995 28       		.uleb128 0x28
 1992 0996 08000000 		.4byte	.LVL55
 1993 099a 13080000 		.4byte	0x813
 1994 099e A9090000 		.4byte	0x9a9
 1995 09a2 21       		.uleb128 0x21
 1996 09a3 01       		.uleb128 0x1
 1997 09a4 50       		.byte	0x50
 1998 09a5 02       		.uleb128 0x2
 1999 09a6 74       		.byte	0x74
 2000 09a7 00       		.sleb128 0
 2001 09a8 00       		.byte	0
 2002 09a9 28       		.uleb128 0x28
 2003 09aa 10000000 		.4byte	.LVL57
 2004 09ae 77060000 		.4byte	0x677
 2005 09b2 C3090000 		.4byte	0x9c3
 2006 09b6 21       		.uleb128 0x21
 2007 09b7 01       		.uleb128 0x1
 2008 09b8 50       		.byte	0x50
 2009 09b9 02       		.uleb128 0x2
 2010 09ba 75       		.byte	0x75
 2011 09bb 00       		.sleb128 0
 2012 09bc 21       		.uleb128 0x21
 2013 09bd 01       		.uleb128 0x1
 2014 09be 51       		.byte	0x51
 2015 09bf 02       		.uleb128 0x2
 2016 09c0 74       		.byte	0x74
 2017 09c1 00       		.sleb128 0
ARM GAS  C:\Users\164\AppData\Local\Temp\ccxmKrTp.s 			page 42


 2018 09c2 00       		.byte	0
 2019 09c3 20       		.uleb128 0x20
 2020 09c4 1E000000 		.4byte	.LVL60
 2021 09c8 CC060000 		.4byte	0x6cc
 2022 09cc 21       		.uleb128 0x21
 2023 09cd 01       		.uleb128 0x1
 2024 09ce 50       		.byte	0x50
 2025 09cf 02       		.uleb128 0x2
 2026 09d0 75       		.byte	0x75
 2027 09d1 00       		.sleb128 0
 2028 09d2 21       		.uleb128 0x21
 2029 09d3 01       		.uleb128 0x1
 2030 09d4 51       		.byte	0x51
 2031 09d5 02       		.uleb128 0x2
 2032 09d6 74       		.byte	0x74
 2033 09d7 00       		.sleb128 0
 2034 09d8 00       		.byte	0
 2035 09d9 00       		.byte	0
 2036 09da 27       		.uleb128 0x27
 2037 09db FA030000 		.4byte	.LASF111
 2038 09df 01       		.byte	0x1
 2039 09e0 C5       		.byte	0xc5
 2040 09e1 F4000000 		.4byte	0xf4
 2041 09e5 00000000 		.4byte	.LFB91
 2042 09e9 28000000 		.4byte	.LFE91-.LFB91
 2043 09ed 01       		.uleb128 0x1
 2044 09ee 9C       		.byte	0x9c
 2045 09ef 030A0000 		.4byte	0xa03
 2046 09f3 1D       		.uleb128 0x1d
 2047 09f4 D2030000 		.4byte	.LASF62
 2048 09f8 01       		.byte	0x1
 2049 09f9 C5       		.byte	0xc5
 2050 09fa 1C010000 		.4byte	0x11c
 2051 09fe 20030000 		.4byte	.LLST21
 2052 0a02 00       		.byte	0
 2053 0a03 23       		.uleb128 0x23
 2054 0a04 5D040000 		.4byte	.LASF113
 2055 0a08 01       		.byte	0x1
 2056 0a09 EF       		.byte	0xef
 2057 0a0a 00000000 		.4byte	.LFB94
 2058 0a0e 26000000 		.4byte	.LFE94-.LFB94
 2059 0a12 01       		.uleb128 0x1
 2060 0a13 9C       		.byte	0x9c
 2061 0a14 620A0000 		.4byte	0xa62
 2062 0a18 1E       		.uleb128 0x1e
 2063 0a19 766D00   		.ascii	"vm\000"
 2064 0a1c 01       		.byte	0x1
 2065 0a1d EF       		.byte	0xef
 2066 0a1e 4D010000 		.4byte	0x14d
 2067 0a22 41030000 		.4byte	.LLST22
 2068 0a26 1E       		.uleb128 0x1e
 2069 0a27 7600     		.ascii	"v\000"
 2070 0a29 01       		.byte	0x1
 2071 0a2a EF       		.byte	0xef
 2072 0a2b F6050000 		.4byte	0x5f6
 2073 0a2f 5F030000 		.4byte	.LLST23
 2074 0a33 1D       		.uleb128 0x1d
ARM GAS  C:\Users\164\AppData\Local\Temp\ccxmKrTp.s 			page 43


 2075 0a34 49040000 		.4byte	.LASF106
 2076 0a38 01       		.byte	0x1
 2077 0a39 EF       		.byte	0xef
 2078 0a3a 94000000 		.4byte	0x94
 2079 0a3e 7D030000 		.4byte	.LLST24
 2080 0a42 29       		.uleb128 0x29
 2081 0a43 10000000 		.4byte	.LVL65
 2082 0a47 DA090000 		.4byte	0x9da
 2083 0a4b 20       		.uleb128 0x20
 2084 0a4c 1A000000 		.4byte	.LVL66
 2085 0a50 8D0C0000 		.4byte	0xc8d
 2086 0a54 21       		.uleb128 0x21
 2087 0a55 01       		.uleb128 0x1
 2088 0a56 50       		.byte	0x50
 2089 0a57 02       		.uleb128 0x2
 2090 0a58 7D       		.byte	0x7d
 2091 0a59 00       		.sleb128 0
 2092 0a5a 21       		.uleb128 0x21
 2093 0a5b 01       		.uleb128 0x1
 2094 0a5c 51       		.byte	0x51
 2095 0a5d 02       		.uleb128 0x2
 2096 0a5e 76       		.byte	0x76
 2097 0a5f 00       		.sleb128 0
 2098 0a60 00       		.byte	0
 2099 0a61 00       		.byte	0
 2100 0a62 23       		.uleb128 0x23
 2101 0a63 AF050000 		.4byte	.LASF114
 2102 0a67 01       		.byte	0x1
 2103 0a68 E4       		.byte	0xe4
 2104 0a69 00000000 		.4byte	.LFB93
 2105 0a6d 34000000 		.4byte	.LFE93-.LFB93
 2106 0a71 01       		.uleb128 0x1
 2107 0a72 9C       		.byte	0x9c
 2108 0a73 F10A0000 		.4byte	0xaf1
 2109 0a77 1E       		.uleb128 0x1e
 2110 0a78 766D00   		.ascii	"vm\000"
 2111 0a7b 01       		.byte	0x1
 2112 0a7c E4       		.byte	0xe4
 2113 0a7d 4D010000 		.4byte	0x14d
 2114 0a81 9E030000 		.4byte	.LLST25
 2115 0a85 1E       		.uleb128 0x1e
 2116 0a86 7600     		.ascii	"v\000"
 2117 0a88 01       		.byte	0x1
 2118 0a89 E4       		.byte	0xe4
 2119 0a8a F6050000 		.4byte	0x5f6
 2120 0a8e CA030000 		.4byte	.LLST26
 2121 0a92 1D       		.uleb128 0x1d
 2122 0a93 49040000 		.4byte	.LASF106
 2123 0a97 01       		.byte	0x1
 2124 0a98 E4       		.byte	0xe4
 2125 0a99 94000000 		.4byte	0x94
 2126 0a9d F6030000 		.4byte	.LLST27
 2127 0aa1 1F       		.uleb128 0x1f
 2128 0aa2 7300     		.ascii	"s\000"
 2129 0aa4 01       		.byte	0x1
 2130 0aa5 E6       		.byte	0xe6
 2131 0aa6 F4000000 		.4byte	0xf4
ARM GAS  C:\Users\164\AppData\Local\Temp\ccxmKrTp.s 			page 44


 2132 0aaa 17040000 		.4byte	.LLST28
 2133 0aae 29       		.uleb128 0x29
 2134 0aaf 10000000 		.4byte	.LVL69
 2135 0ab3 DA090000 		.4byte	0x9da
 2136 0ab7 28       		.uleb128 0x28
 2137 0ab8 1C000000 		.4byte	.LVL72
 2138 0abc 8D0C0000 		.4byte	0xc8d
 2139 0ac0 DA0A0000 		.4byte	0xada
 2140 0ac4 21       		.uleb128 0x21
 2141 0ac5 01       		.uleb128 0x1
 2142 0ac6 50       		.byte	0x50
 2143 0ac7 02       		.uleb128 0x2
 2144 0ac8 7D       		.byte	0x7d
 2145 0ac9 00       		.sleb128 0
 2146 0aca 21       		.uleb128 0x21
 2147 0acb 01       		.uleb128 0x1
 2148 0acc 51       		.byte	0x51
 2149 0acd 02       		.uleb128 0x2
 2150 0ace 77       		.byte	0x77
 2151 0acf 00       		.sleb128 0
 2152 0ad0 21       		.uleb128 0x21
 2153 0ad1 01       		.uleb128 0x1
 2154 0ad2 52       		.byte	0x52
 2155 0ad3 05       		.uleb128 0x5
 2156 0ad4 03       		.byte	0x3
 2157 0ad5 2C000000 		.4byte	.LC2
 2158 0ad9 00       		.byte	0
 2159 0ada 20       		.uleb128 0x20
 2160 0adb 2C000000 		.4byte	.LVL73
 2161 0adf 980C0000 		.4byte	0xc98
 2162 0ae3 21       		.uleb128 0x21
 2163 0ae4 01       		.uleb128 0x1
 2164 0ae5 50       		.byte	0x50
 2165 0ae6 02       		.uleb128 0x2
 2166 0ae7 74       		.byte	0x74
 2167 0ae8 00       		.sleb128 0
 2168 0ae9 21       		.uleb128 0x21
 2169 0aea 01       		.uleb128 0x1
 2170 0aeb 51       		.byte	0x51
 2171 0aec 02       		.uleb128 0x2
 2172 0aed 76       		.byte	0x76
 2173 0aee 00       		.sleb128 0
 2174 0aef 00       		.byte	0
 2175 0af0 00       		.byte	0
 2176 0af1 2A       		.uleb128 0x2a
 2177 0af2 14000000 		.4byte	.LASF134
 2178 0af6 01       		.byte	0x1
 2179 0af7 FA       		.byte	0xfa
 2180 0af8 00000000 		.4byte	.LFB95
 2181 0afc 84000000 		.4byte	.LFE95-.LFB95
 2182 0b00 01       		.uleb128 0x1
 2183 0b01 9C       		.byte	0x9c
 2184 0b02 DD0B0000 		.4byte	0xbdd
 2185 0b06 1E       		.uleb128 0x1e
 2186 0b07 766D00   		.ascii	"vm\000"
 2187 0b0a 01       		.byte	0x1
 2188 0b0b FA       		.byte	0xfa
ARM GAS  C:\Users\164\AppData\Local\Temp\ccxmKrTp.s 			page 45


 2189 0b0c 4D010000 		.4byte	0x14d
 2190 0b10 35040000 		.4byte	.LLST29
 2191 0b14 28       		.uleb128 0x28
 2192 0b15 0E000000 		.4byte	.LVL76
 2193 0b19 A30C0000 		.4byte	0xca3
 2194 0b1d 310B0000 		.4byte	0xb31
 2195 0b21 21       		.uleb128 0x21
 2196 0b22 01       		.uleb128 0x1
 2197 0b23 50       		.byte	0x50
 2198 0b24 02       		.uleb128 0x2
 2199 0b25 74       		.byte	0x74
 2200 0b26 00       		.sleb128 0
 2201 0b27 21       		.uleb128 0x21
 2202 0b28 01       		.uleb128 0x1
 2203 0b29 51       		.byte	0x51
 2204 0b2a 05       		.uleb128 0x5
 2205 0b2b 03       		.byte	0x3
 2206 0b2c 30000000 		.4byte	.LC3
 2207 0b30 00       		.byte	0
 2208 0b31 28       		.uleb128 0x28
 2209 0b32 1E000000 		.4byte	.LVL77
 2210 0b36 AE0C0000 		.4byte	0xcae
 2211 0b3a 570B0000 		.4byte	0xb57
 2212 0b3e 21       		.uleb128 0x21
 2213 0b3f 01       		.uleb128 0x1
 2214 0b40 50       		.byte	0x50
 2215 0b41 02       		.uleb128 0x2
 2216 0b42 74       		.byte	0x74
 2217 0b43 00       		.sleb128 0
 2218 0b44 21       		.uleb128 0x21
 2219 0b45 01       		.uleb128 0x1
 2220 0b46 52       		.byte	0x52
 2221 0b47 05       		.uleb128 0x5
 2222 0b48 03       		.byte	0x3
 2223 0b49 38000000 		.4byte	.LC4
 2224 0b4d 21       		.uleb128 0x21
 2225 0b4e 01       		.uleb128 0x1
 2226 0b4f 53       		.byte	0x53
 2227 0b50 05       		.uleb128 0x5
 2228 0b51 03       		.byte	0x3
 2229 0b52 00000000 		.4byte	c_all_symbols
 2230 0b56 00       		.byte	0
 2231 0b57 28       		.uleb128 0x28
 2232 0b58 2A000000 		.4byte	.LVL78
 2233 0b5c AE0C0000 		.4byte	0xcae
 2234 0b60 7D0B0000 		.4byte	0xb7d
 2235 0b64 21       		.uleb128 0x21
 2236 0b65 01       		.uleb128 0x1
 2237 0b66 50       		.byte	0x50
 2238 0b67 02       		.uleb128 0x2
 2239 0b68 74       		.byte	0x74
 2240 0b69 00       		.sleb128 0
 2241 0b6a 21       		.uleb128 0x21
 2242 0b6b 01       		.uleb128 0x1
 2243 0b6c 52       		.byte	0x52
 2244 0b6d 05       		.uleb128 0x5
 2245 0b6e 03       		.byte	0x3
ARM GAS  C:\Users\164\AppData\Local\Temp\ccxmKrTp.s 			page 46


 2246 0b6f 44000000 		.4byte	.LC5
 2247 0b73 21       		.uleb128 0x21
 2248 0b74 01       		.uleb128 0x1
 2249 0b75 53       		.byte	0x53
 2250 0b76 05       		.uleb128 0x5
 2251 0b77 03       		.byte	0x3
 2252 0b78 00000000 		.4byte	c_inspect
 2253 0b7c 00       		.byte	0
 2254 0b7d 28       		.uleb128 0x28
 2255 0b7e 38000000 		.4byte	.LVL79
 2256 0b82 AE0C0000 		.4byte	0xcae
 2257 0b86 A00B0000 		.4byte	0xba0
 2258 0b8a 21       		.uleb128 0x21
 2259 0b8b 01       		.uleb128 0x1
 2260 0b8c 50       		.byte	0x50
 2261 0b8d 02       		.uleb128 0x2
 2262 0b8e 74       		.byte	0x74
 2263 0b8f 00       		.sleb128 0
 2264 0b90 21       		.uleb128 0x21
 2265 0b91 01       		.uleb128 0x1
 2266 0b92 52       		.byte	0x52
 2267 0b93 05       		.uleb128 0x5
 2268 0b94 03       		.byte	0x3
 2269 0b95 4C000000 		.4byte	.LC6
 2270 0b99 21       		.uleb128 0x21
 2271 0b9a 01       		.uleb128 0x1
 2272 0b9b 53       		.byte	0x53
 2273 0b9c 02       		.uleb128 0x2
 2274 0b9d 76       		.byte	0x76
 2275 0b9e 00       		.sleb128 0
 2276 0b9f 00       		.byte	0
 2277 0ba0 28       		.uleb128 0x28
 2278 0ba1 44000000 		.4byte	.LVL80
 2279 0ba5 AE0C0000 		.4byte	0xcae
 2280 0ba9 C30B0000 		.4byte	0xbc3
 2281 0bad 21       		.uleb128 0x21
 2282 0bae 01       		.uleb128 0x1
 2283 0baf 50       		.byte	0x50
 2284 0bb0 02       		.uleb128 0x2
 2285 0bb1 74       		.byte	0x74
 2286 0bb2 00       		.sleb128 0
 2287 0bb3 21       		.uleb128 0x21
 2288 0bb4 01       		.uleb128 0x1
 2289 0bb5 52       		.byte	0x52
 2290 0bb6 05       		.uleb128 0x5
 2291 0bb7 03       		.byte	0x3
 2292 0bb8 54000000 		.4byte	.LC7
 2293 0bbc 21       		.uleb128 0x21
 2294 0bbd 01       		.uleb128 0x1
 2295 0bbe 53       		.byte	0x53
 2296 0bbf 02       		.uleb128 0x2
 2297 0bc0 76       		.byte	0x76
 2298 0bc1 00       		.sleb128 0
 2299 0bc2 00       		.byte	0
 2300 0bc3 20       		.uleb128 0x20
 2301 0bc4 50000000 		.4byte	.LVL81
 2302 0bc8 AE0C0000 		.4byte	0xcae
ARM GAS  C:\Users\164\AppData\Local\Temp\ccxmKrTp.s 			page 47


 2303 0bcc 21       		.uleb128 0x21
 2304 0bcd 01       		.uleb128 0x1
 2305 0bce 50       		.byte	0x50
 2306 0bcf 02       		.uleb128 0x2
 2307 0bd0 74       		.byte	0x74
 2308 0bd1 00       		.sleb128 0
 2309 0bd2 21       		.uleb128 0x21
 2310 0bd3 01       		.uleb128 0x1
 2311 0bd4 52       		.byte	0x52
 2312 0bd5 05       		.uleb128 0x5
 2313 0bd6 03       		.byte	0x3
 2314 0bd7 5C000000 		.4byte	.LC8
 2315 0bdb 00       		.byte	0
 2316 0bdc 00       		.byte	0
 2317 0bdd 18       		.uleb128 0x18
 2318 0bde 3A060000 		.4byte	0x63a
 2319 0be2 EE0B0000 		.4byte	0xbee
 2320 0be6 2B       		.uleb128 0x2b
 2321 0be7 E0000000 		.4byte	0xe0
 2322 0beb 2B01     		.2byte	0x12b
 2323 0bed 00       		.byte	0
 2324 0bee 26       		.uleb128 0x26
 2325 0bef 97030000 		.4byte	.LASF115
 2326 0bf3 01       		.byte	0x1
 2327 0bf4 30       		.byte	0x30
 2328 0bf5 DD0B0000 		.4byte	0xbdd
 2329 0bf9 05       		.uleb128 0x5
 2330 0bfa 03       		.byte	0x3
 2331 0bfb 00000000 		.4byte	sym_index
 2332 0bff 26       		.uleb128 0x26
 2333 0c00 30000000 		.4byte	.LASF116
 2334 0c04 01       		.byte	0x1
 2335 0c05 31       		.byte	0x31
 2336 0c06 94000000 		.4byte	0x94
 2337 0c0a 05       		.uleb128 0x5
 2338 0c0b 03       		.byte	0x3
 2339 0c0c 100E0000 		.4byte	sym_index_pos
 2340 0c10 2C       		.uleb128 0x2c
 2341 0c11 8D000000 		.4byte	.LASF117
 2342 0c15 08       		.byte	0x8
 2343 0c16 1A       		.byte	0x1a
 2344 0c17 FC050000 		.4byte	0x5fc
 2345 0c1b 2C       		.uleb128 0x2c
 2346 0c1c 28060000 		.4byte	.LASF118
 2347 0c20 08       		.byte	0x8
 2348 0c21 25       		.byte	0x25
 2349 0c22 FC050000 		.4byte	0x5fc
 2350 0c26 2D       		.uleb128 0x2d
 2351 0c27 B6020000 		.4byte	.LASF119
 2352 0c2b 09       		.byte	0x9
 2353 0c2c 1207     		.2byte	0x712
 2354 0c2e 320C0000 		.4byte	0xc32
 2355 0c32 1B       		.uleb128 0x1b
 2356 0c33 CE000000 		.4byte	0xce
 2357 0c37 2E       		.uleb128 0x2e
 2358 0c38 30030000 		.4byte	.LASF120
 2359 0c3c 30030000 		.4byte	.LASF120
ARM GAS  C:\Users\164\AppData\Local\Temp\ccxmKrTp.s 			page 48


 2360 0c40 0A       		.byte	0xa
 2361 0c41 1C       		.byte	0x1c
 2362 0c42 2E       		.uleb128 0x2e
 2363 0c43 5A000000 		.4byte	.LASF121
 2364 0c47 5A000000 		.4byte	.LASF121
 2365 0c4b 0B       		.byte	0xb
 2366 0c4c 30       		.byte	0x30
 2367 0c4d 2E       		.uleb128 0x2e
 2368 0c4e B4010000 		.4byte	.LASF122
 2369 0c52 B4010000 		.4byte	.LASF122
 2370 0c56 06       		.byte	0x6
 2371 0c57 2B       		.byte	0x2b
 2372 0c58 2E       		.uleb128 0x2e
 2373 0c59 82050000 		.4byte	.LASF123
 2374 0c5d 82050000 		.4byte	.LASF123
 2375 0c61 04       		.byte	0x4
 2376 0c62 D7       		.byte	0xd7
 2377 0c63 2E       		.uleb128 0x2e
 2378 0c64 45000000 		.4byte	.LASF124
 2379 0c68 45000000 		.4byte	.LASF124
 2380 0c6c 06       		.byte	0x6
 2381 0c6d 25       		.byte	0x25
 2382 0c6e 2E       		.uleb128 0x2e
 2383 0c6f 3E000000 		.4byte	.LASF125
 2384 0c73 3E000000 		.4byte	.LASF125
 2385 0c77 0A       		.byte	0xa
 2386 0c78 21       		.byte	0x21
 2387 0c79 2E       		.uleb128 0x2e
 2388 0c7a 05000000 		.4byte	.LASF126
 2389 0c7e 05000000 		.4byte	.LASF126
 2390 0c82 0C       		.byte	0xc
 2391 0c83 1A       		.byte	0x1a
 2392 0c84 2F       		.uleb128 0x2f
 2393 0c85 F6050000 		.4byte	.LASF135
 2394 0c89 F6050000 		.4byte	.LASF135
 2395 0c8d 2E       		.uleb128 0x2e
 2396 0c8e 20010000 		.4byte	.LASF127
 2397 0c92 20010000 		.4byte	.LASF127
 2398 0c96 07       		.byte	0x7
 2399 0c97 27       		.byte	0x27
 2400 0c98 2E       		.uleb128 0x2e
 2401 0c99 C8020000 		.4byte	.LASF128
 2402 0c9d C8020000 		.4byte	.LASF128
 2403 0ca1 07       		.byte	0x7
 2404 0ca2 2E       		.byte	0x2e
 2405 0ca3 2E       		.uleb128 0x2e
 2406 0ca4 6B010000 		.4byte	.LASF129
 2407 0ca8 6B010000 		.4byte	.LASF129
 2408 0cac 0D       		.byte	0xd
 2409 0cad 1C       		.byte	0x1c
 2410 0cae 2E       		.uleb128 0x2e
 2411 0caf E7030000 		.4byte	.LASF130
 2412 0cb3 E7030000 		.4byte	.LASF130
 2413 0cb7 0D       		.byte	0xd
 2414 0cb8 1E       		.byte	0x1e
 2415 0cb9 00       		.byte	0
 2416              		.section	.debug_abbrev,"",%progbits
ARM GAS  C:\Users\164\AppData\Local\Temp\ccxmKrTp.s 			page 49


 2417              	.Ldebug_abbrev0:
 2418 0000 01       		.uleb128 0x1
 2419 0001 11       		.uleb128 0x11
 2420 0002 01       		.byte	0x1
 2421 0003 25       		.uleb128 0x25
 2422 0004 0E       		.uleb128 0xe
 2423 0005 13       		.uleb128 0x13
 2424 0006 0B       		.uleb128 0xb
 2425 0007 03       		.uleb128 0x3
 2426 0008 0E       		.uleb128 0xe
 2427 0009 1B       		.uleb128 0x1b
 2428 000a 0E       		.uleb128 0xe
 2429 000b 55       		.uleb128 0x55
 2430 000c 17       		.uleb128 0x17
 2431 000d 11       		.uleb128 0x11
 2432 000e 01       		.uleb128 0x1
 2433 000f 10       		.uleb128 0x10
 2434 0010 17       		.uleb128 0x17
 2435 0011 00       		.byte	0
 2436 0012 00       		.byte	0
 2437 0013 02       		.uleb128 0x2
 2438 0014 16       		.uleb128 0x16
 2439 0015 00       		.byte	0
 2440 0016 03       		.uleb128 0x3
 2441 0017 0E       		.uleb128 0xe
 2442 0018 3A       		.uleb128 0x3a
 2443 0019 0B       		.uleb128 0xb
 2444 001a 3B       		.uleb128 0x3b
 2445 001b 0B       		.uleb128 0xb
 2446 001c 49       		.uleb128 0x49
 2447 001d 13       		.uleb128 0x13
 2448 001e 00       		.byte	0
 2449 001f 00       		.byte	0
 2450 0020 03       		.uleb128 0x3
 2451 0021 24       		.uleb128 0x24
 2452 0022 00       		.byte	0
 2453 0023 0B       		.uleb128 0xb
 2454 0024 0B       		.uleb128 0xb
 2455 0025 3E       		.uleb128 0x3e
 2456 0026 0B       		.uleb128 0xb
 2457 0027 03       		.uleb128 0x3
 2458 0028 0E       		.uleb128 0xe
 2459 0029 00       		.byte	0
 2460 002a 00       		.byte	0
 2461 002b 04       		.uleb128 0x4
 2462 002c 24       		.uleb128 0x24
 2463 002d 00       		.byte	0
 2464 002e 0B       		.uleb128 0xb
 2465 002f 0B       		.uleb128 0xb
 2466 0030 3E       		.uleb128 0x3e
 2467 0031 0B       		.uleb128 0xb
 2468 0032 03       		.uleb128 0x3
 2469 0033 08       		.uleb128 0x8
 2470 0034 00       		.byte	0
 2471 0035 00       		.byte	0
 2472 0036 05       		.uleb128 0x5
 2473 0037 0F       		.uleb128 0xf
ARM GAS  C:\Users\164\AppData\Local\Temp\ccxmKrTp.s 			page 50


 2474 0038 00       		.byte	0
 2475 0039 0B       		.uleb128 0xb
 2476 003a 0B       		.uleb128 0xb
 2477 003b 49       		.uleb128 0x49
 2478 003c 13       		.uleb128 0x13
 2479 003d 00       		.byte	0
 2480 003e 00       		.byte	0
 2481 003f 06       		.uleb128 0x6
 2482 0040 26       		.uleb128 0x26
 2483 0041 00       		.byte	0
 2484 0042 49       		.uleb128 0x49
 2485 0043 13       		.uleb128 0x13
 2486 0044 00       		.byte	0
 2487 0045 00       		.byte	0
 2488 0046 07       		.uleb128 0x7
 2489 0047 15       		.uleb128 0x15
 2490 0048 01       		.byte	0x1
 2491 0049 27       		.uleb128 0x27
 2492 004a 19       		.uleb128 0x19
 2493 004b 01       		.uleb128 0x1
 2494 004c 13       		.uleb128 0x13
 2495 004d 00       		.byte	0
 2496 004e 00       		.byte	0
 2497 004f 08       		.uleb128 0x8
 2498 0050 05       		.uleb128 0x5
 2499 0051 00       		.byte	0
 2500 0052 49       		.uleb128 0x49
 2501 0053 13       		.uleb128 0x13
 2502 0054 00       		.byte	0
 2503 0055 00       		.byte	0
 2504 0056 09       		.uleb128 0x9
 2505 0057 13       		.uleb128 0x13
 2506 0058 01       		.byte	0x1
 2507 0059 03       		.uleb128 0x3
 2508 005a 08       		.uleb128 0x8
 2509 005b 0B       		.uleb128 0xb
 2510 005c 05       		.uleb128 0x5
 2511 005d 3A       		.uleb128 0x3a
 2512 005e 0B       		.uleb128 0xb
 2513 005f 3B       		.uleb128 0x3b
 2514 0060 0B       		.uleb128 0xb
 2515 0061 01       		.uleb128 0x1
 2516 0062 13       		.uleb128 0x13
 2517 0063 00       		.byte	0
 2518 0064 00       		.byte	0
 2519 0065 0A       		.uleb128 0xa
 2520 0066 0D       		.uleb128 0xd
 2521 0067 00       		.byte	0
 2522 0068 03       		.uleb128 0x3
 2523 0069 0E       		.uleb128 0xe
 2524 006a 3A       		.uleb128 0x3a
 2525 006b 0B       		.uleb128 0xb
 2526 006c 3B       		.uleb128 0x3b
 2527 006d 0B       		.uleb128 0xb
 2528 006e 49       		.uleb128 0x49
 2529 006f 13       		.uleb128 0x13
 2530 0070 38       		.uleb128 0x38
ARM GAS  C:\Users\164\AppData\Local\Temp\ccxmKrTp.s 			page 51


 2531 0071 0B       		.uleb128 0xb
 2532 0072 00       		.byte	0
 2533 0073 00       		.byte	0
 2534 0074 0B       		.uleb128 0xb
 2535 0075 0D       		.uleb128 0xd
 2536 0076 00       		.byte	0
 2537 0077 03       		.uleb128 0x3
 2538 0078 08       		.uleb128 0x8
 2539 0079 3A       		.uleb128 0x3a
 2540 007a 0B       		.uleb128 0xb
 2541 007b 3B       		.uleb128 0x3b
 2542 007c 0B       		.uleb128 0xb
 2543 007d 49       		.uleb128 0x49
 2544 007e 13       		.uleb128 0x13
 2545 007f 38       		.uleb128 0x38
 2546 0080 0B       		.uleb128 0xb
 2547 0081 00       		.byte	0
 2548 0082 00       		.byte	0
 2549 0083 0C       		.uleb128 0xc
 2550 0084 0D       		.uleb128 0xd
 2551 0085 00       		.byte	0
 2552 0086 03       		.uleb128 0x3
 2553 0087 0E       		.uleb128 0xe
 2554 0088 3A       		.uleb128 0x3a
 2555 0089 0B       		.uleb128 0xb
 2556 008a 3B       		.uleb128 0x3b
 2557 008b 0B       		.uleb128 0xb
 2558 008c 49       		.uleb128 0x49
 2559 008d 13       		.uleb128 0x13
 2560 008e 38       		.uleb128 0x38
 2561 008f 05       		.uleb128 0x5
 2562 0090 00       		.byte	0
 2563 0091 00       		.byte	0
 2564 0092 0D       		.uleb128 0xd
 2565 0093 13       		.uleb128 0x13
 2566 0094 01       		.byte	0x1
 2567 0095 03       		.uleb128 0x3
 2568 0096 0E       		.uleb128 0xe
 2569 0097 0B       		.uleb128 0xb
 2570 0098 0B       		.uleb128 0xb
 2571 0099 3A       		.uleb128 0x3a
 2572 009a 0B       		.uleb128 0xb
 2573 009b 3B       		.uleb128 0x3b
 2574 009c 0B       		.uleb128 0xb
 2575 009d 01       		.uleb128 0x1
 2576 009e 13       		.uleb128 0x13
 2577 009f 00       		.byte	0
 2578 00a0 00       		.byte	0
 2579 00a1 0E       		.uleb128 0xe
 2580 00a2 0D       		.uleb128 0xd
 2581 00a3 00       		.byte	0
 2582 00a4 03       		.uleb128 0x3
 2583 00a5 08       		.uleb128 0x8
 2584 00a6 3A       		.uleb128 0x3a
 2585 00a7 0B       		.uleb128 0xb
 2586 00a8 3B       		.uleb128 0x3b
 2587 00a9 0B       		.uleb128 0xb
ARM GAS  C:\Users\164\AppData\Local\Temp\ccxmKrTp.s 			page 52


 2588 00aa 49       		.uleb128 0x49
 2589 00ab 13       		.uleb128 0x13
 2590 00ac 0B       		.uleb128 0xb
 2591 00ad 0B       		.uleb128 0xb
 2592 00ae 0D       		.uleb128 0xd
 2593 00af 0B       		.uleb128 0xb
 2594 00b0 0C       		.uleb128 0xc
 2595 00b1 0B       		.uleb128 0xb
 2596 00b2 38       		.uleb128 0x38
 2597 00b3 0B       		.uleb128 0xb
 2598 00b4 00       		.byte	0
 2599 00b5 00       		.byte	0
 2600 00b6 0F       		.uleb128 0xf
 2601 00b7 0D       		.uleb128 0xd
 2602 00b8 00       		.byte	0
 2603 00b9 49       		.uleb128 0x49
 2604 00ba 13       		.uleb128 0x13
 2605 00bb 38       		.uleb128 0x38
 2606 00bc 0B       		.uleb128 0xb
 2607 00bd 00       		.byte	0
 2608 00be 00       		.byte	0
 2609 00bf 10       		.uleb128 0x10
 2610 00c0 04       		.uleb128 0x4
 2611 00c1 01       		.byte	0x1
 2612 00c2 0B       		.uleb128 0xb
 2613 00c3 0B       		.uleb128 0xb
 2614 00c4 49       		.uleb128 0x49
 2615 00c5 13       		.uleb128 0x13
 2616 00c6 3A       		.uleb128 0x3a
 2617 00c7 0B       		.uleb128 0xb
 2618 00c8 3B       		.uleb128 0x3b
 2619 00c9 0B       		.uleb128 0xb
 2620 00ca 01       		.uleb128 0x1
 2621 00cb 13       		.uleb128 0x13
 2622 00cc 00       		.byte	0
 2623 00cd 00       		.byte	0
 2624 00ce 11       		.uleb128 0x11
 2625 00cf 28       		.uleb128 0x28
 2626 00d0 00       		.byte	0
 2627 00d1 03       		.uleb128 0x3
 2628 00d2 0E       		.uleb128 0xe
 2629 00d3 1C       		.uleb128 0x1c
 2630 00d4 0D       		.uleb128 0xd
 2631 00d5 00       		.byte	0
 2632 00d6 00       		.byte	0
 2633 00d7 12       		.uleb128 0x12
 2634 00d8 28       		.uleb128 0x28
 2635 00d9 00       		.byte	0
 2636 00da 03       		.uleb128 0x3
 2637 00db 0E       		.uleb128 0xe
 2638 00dc 1C       		.uleb128 0x1c
 2639 00dd 0B       		.uleb128 0xb
 2640 00de 00       		.byte	0
 2641 00df 00       		.byte	0
 2642 00e0 13       		.uleb128 0x13
 2643 00e1 17       		.uleb128 0x17
 2644 00e2 01       		.byte	0x1
ARM GAS  C:\Users\164\AppData\Local\Temp\ccxmKrTp.s 			page 53


 2645 00e3 0B       		.uleb128 0xb
 2646 00e4 0B       		.uleb128 0xb
 2647 00e5 3A       		.uleb128 0x3a
 2648 00e6 0B       		.uleb128 0xb
 2649 00e7 3B       		.uleb128 0x3b
 2650 00e8 0B       		.uleb128 0xb
 2651 00e9 01       		.uleb128 0x1
 2652 00ea 13       		.uleb128 0x13
 2653 00eb 00       		.byte	0
 2654 00ec 00       		.byte	0
 2655 00ed 14       		.uleb128 0x14
 2656 00ee 0D       		.uleb128 0xd
 2657 00ef 00       		.byte	0
 2658 00f0 03       		.uleb128 0x3
 2659 00f1 08       		.uleb128 0x8
 2660 00f2 3A       		.uleb128 0x3a
 2661 00f3 0B       		.uleb128 0xb
 2662 00f4 3B       		.uleb128 0x3b
 2663 00f5 0B       		.uleb128 0xb
 2664 00f6 49       		.uleb128 0x49
 2665 00f7 13       		.uleb128 0x13
 2666 00f8 00       		.byte	0
 2667 00f9 00       		.byte	0
 2668 00fa 15       		.uleb128 0x15
 2669 00fb 0D       		.uleb128 0xd
 2670 00fc 00       		.byte	0
 2671 00fd 03       		.uleb128 0x3
 2672 00fe 0E       		.uleb128 0xe
 2673 00ff 3A       		.uleb128 0x3a
 2674 0100 0B       		.uleb128 0xb
 2675 0101 3B       		.uleb128 0x3b
 2676 0102 0B       		.uleb128 0xb
 2677 0103 49       		.uleb128 0x49
 2678 0104 13       		.uleb128 0x13
 2679 0105 00       		.byte	0
 2680 0106 00       		.byte	0
 2681 0107 16       		.uleb128 0x16
 2682 0108 0D       		.uleb128 0xd
 2683 0109 00       		.byte	0
 2684 010a 03       		.uleb128 0x3
 2685 010b 0E       		.uleb128 0xe
 2686 010c 3A       		.uleb128 0x3a
 2687 010d 0B       		.uleb128 0xb
 2688 010e 3B       		.uleb128 0x3b
 2689 010f 0B       		.uleb128 0xb
 2690 0110 49       		.uleb128 0x49
 2691 0111 13       		.uleb128 0x13
 2692 0112 0B       		.uleb128 0xb
 2693 0113 0B       		.uleb128 0xb
 2694 0114 0D       		.uleb128 0xd
 2695 0115 0B       		.uleb128 0xb
 2696 0116 0C       		.uleb128 0xc
 2697 0117 0B       		.uleb128 0xb
 2698 0118 38       		.uleb128 0x38
 2699 0119 0B       		.uleb128 0xb
 2700 011a 00       		.byte	0
 2701 011b 00       		.byte	0
ARM GAS  C:\Users\164\AppData\Local\Temp\ccxmKrTp.s 			page 54


 2702 011c 17       		.uleb128 0x17
 2703 011d 13       		.uleb128 0x13
 2704 011e 00       		.byte	0
 2705 011f 03       		.uleb128 0x3
 2706 0120 0E       		.uleb128 0xe
 2707 0121 3C       		.uleb128 0x3c
 2708 0122 19       		.uleb128 0x19
 2709 0123 00       		.byte	0
 2710 0124 00       		.byte	0
 2711 0125 18       		.uleb128 0x18
 2712 0126 01       		.uleb128 0x1
 2713 0127 01       		.byte	0x1
 2714 0128 49       		.uleb128 0x49
 2715 0129 13       		.uleb128 0x13
 2716 012a 01       		.uleb128 0x1
 2717 012b 13       		.uleb128 0x13
 2718 012c 00       		.byte	0
 2719 012d 00       		.byte	0
 2720 012e 19       		.uleb128 0x19
 2721 012f 21       		.uleb128 0x21
 2722 0130 00       		.byte	0
 2723 0131 49       		.uleb128 0x49
 2724 0132 13       		.uleb128 0x13
 2725 0133 00       		.byte	0
 2726 0134 00       		.byte	0
 2727 0135 1A       		.uleb128 0x1a
 2728 0136 21       		.uleb128 0x21
 2729 0137 00       		.byte	0
 2730 0138 49       		.uleb128 0x49
 2731 0139 13       		.uleb128 0x13
 2732 013a 2F       		.uleb128 0x2f
 2733 013b 0B       		.uleb128 0xb
 2734 013c 00       		.byte	0
 2735 013d 00       		.byte	0
 2736 013e 1B       		.uleb128 0x1b
 2737 013f 35       		.uleb128 0x35
 2738 0140 00       		.byte	0
 2739 0141 49       		.uleb128 0x49
 2740 0142 13       		.uleb128 0x13
 2741 0143 00       		.byte	0
 2742 0144 00       		.byte	0
 2743 0145 1C       		.uleb128 0x1c
 2744 0146 2E       		.uleb128 0x2e
 2745 0147 01       		.byte	0x1
 2746 0148 03       		.uleb128 0x3
 2747 0149 0E       		.uleb128 0xe
 2748 014a 3A       		.uleb128 0x3a
 2749 014b 0B       		.uleb128 0xb
 2750 014c 3B       		.uleb128 0x3b
 2751 014d 0B       		.uleb128 0xb
 2752 014e 27       		.uleb128 0x27
 2753 014f 19       		.uleb128 0x19
 2754 0150 49       		.uleb128 0x49
 2755 0151 13       		.uleb128 0x13
 2756 0152 11       		.uleb128 0x11
 2757 0153 01       		.uleb128 0x1
 2758 0154 12       		.uleb128 0x12
ARM GAS  C:\Users\164\AppData\Local\Temp\ccxmKrTp.s 			page 55


 2759 0155 06       		.uleb128 0x6
 2760 0156 40       		.uleb128 0x40
 2761 0157 18       		.uleb128 0x18
 2762 0158 9742     		.uleb128 0x2117
 2763 015a 19       		.uleb128 0x19
 2764 015b 01       		.uleb128 0x1
 2765 015c 13       		.uleb128 0x13
 2766 015d 00       		.byte	0
 2767 015e 00       		.byte	0
 2768 015f 1D       		.uleb128 0x1d
 2769 0160 05       		.uleb128 0x5
 2770 0161 00       		.byte	0
 2771 0162 03       		.uleb128 0x3
 2772 0163 0E       		.uleb128 0xe
 2773 0164 3A       		.uleb128 0x3a
 2774 0165 0B       		.uleb128 0xb
 2775 0166 3B       		.uleb128 0x3b
 2776 0167 0B       		.uleb128 0xb
 2777 0168 49       		.uleb128 0x49
 2778 0169 13       		.uleb128 0x13
 2779 016a 02       		.uleb128 0x2
 2780 016b 17       		.uleb128 0x17
 2781 016c 00       		.byte	0
 2782 016d 00       		.byte	0
 2783 016e 1E       		.uleb128 0x1e
 2784 016f 05       		.uleb128 0x5
 2785 0170 00       		.byte	0
 2786 0171 03       		.uleb128 0x3
 2787 0172 08       		.uleb128 0x8
 2788 0173 3A       		.uleb128 0x3a
 2789 0174 0B       		.uleb128 0xb
 2790 0175 3B       		.uleb128 0x3b
 2791 0176 0B       		.uleb128 0xb
 2792 0177 49       		.uleb128 0x49
 2793 0178 13       		.uleb128 0x13
 2794 0179 02       		.uleb128 0x2
 2795 017a 17       		.uleb128 0x17
 2796 017b 00       		.byte	0
 2797 017c 00       		.byte	0
 2798 017d 1F       		.uleb128 0x1f
 2799 017e 34       		.uleb128 0x34
 2800 017f 00       		.byte	0
 2801 0180 03       		.uleb128 0x3
 2802 0181 08       		.uleb128 0x8
 2803 0182 3A       		.uleb128 0x3a
 2804 0183 0B       		.uleb128 0xb
 2805 0184 3B       		.uleb128 0x3b
 2806 0185 0B       		.uleb128 0xb
 2807 0186 49       		.uleb128 0x49
 2808 0187 13       		.uleb128 0x13
 2809 0188 02       		.uleb128 0x2
 2810 0189 17       		.uleb128 0x17
 2811 018a 00       		.byte	0
 2812 018b 00       		.byte	0
 2813 018c 20       		.uleb128 0x20
 2814 018d 898201   		.uleb128 0x4109
 2815 0190 01       		.byte	0x1
ARM GAS  C:\Users\164\AppData\Local\Temp\ccxmKrTp.s 			page 56


 2816 0191 11       		.uleb128 0x11
 2817 0192 01       		.uleb128 0x1
 2818 0193 31       		.uleb128 0x31
 2819 0194 13       		.uleb128 0x13
 2820 0195 00       		.byte	0
 2821 0196 00       		.byte	0
 2822 0197 21       		.uleb128 0x21
 2823 0198 8A8201   		.uleb128 0x410a
 2824 019b 00       		.byte	0
 2825 019c 02       		.uleb128 0x2
 2826 019d 18       		.uleb128 0x18
 2827 019e 9142     		.uleb128 0x2111
 2828 01a0 18       		.uleb128 0x18
 2829 01a1 00       		.byte	0
 2830 01a2 00       		.byte	0
 2831 01a3 22       		.uleb128 0x22
 2832 01a4 34       		.uleb128 0x34
 2833 01a5 00       		.byte	0
 2834 01a6 03       		.uleb128 0x3
 2835 01a7 0E       		.uleb128 0xe
 2836 01a8 3A       		.uleb128 0x3a
 2837 01a9 0B       		.uleb128 0xb
 2838 01aa 3B       		.uleb128 0x3b
 2839 01ab 0B       		.uleb128 0xb
 2840 01ac 49       		.uleb128 0x49
 2841 01ad 13       		.uleb128 0x13
 2842 01ae 02       		.uleb128 0x2
 2843 01af 17       		.uleb128 0x17
 2844 01b0 00       		.byte	0
 2845 01b1 00       		.byte	0
 2846 01b2 23       		.uleb128 0x23
 2847 01b3 2E       		.uleb128 0x2e
 2848 01b4 01       		.byte	0x1
 2849 01b5 03       		.uleb128 0x3
 2850 01b6 0E       		.uleb128 0xe
 2851 01b7 3A       		.uleb128 0x3a
 2852 01b8 0B       		.uleb128 0xb
 2853 01b9 3B       		.uleb128 0x3b
 2854 01ba 0B       		.uleb128 0xb
 2855 01bb 27       		.uleb128 0x27
 2856 01bc 19       		.uleb128 0x19
 2857 01bd 11       		.uleb128 0x11
 2858 01be 01       		.uleb128 0x1
 2859 01bf 12       		.uleb128 0x12
 2860 01c0 06       		.uleb128 0x6
 2861 01c1 40       		.uleb128 0x40
 2862 01c2 18       		.uleb128 0x18
 2863 01c3 9742     		.uleb128 0x2117
 2864 01c5 19       		.uleb128 0x19
 2865 01c6 01       		.uleb128 0x1
 2866 01c7 13       		.uleb128 0x13
 2867 01c8 00       		.byte	0
 2868 01c9 00       		.byte	0
 2869 01ca 24       		.uleb128 0x24
 2870 01cb 34       		.uleb128 0x34
 2871 01cc 00       		.byte	0
 2872 01cd 03       		.uleb128 0x3
ARM GAS  C:\Users\164\AppData\Local\Temp\ccxmKrTp.s 			page 57


 2873 01ce 08       		.uleb128 0x8
 2874 01cf 3A       		.uleb128 0x3a
 2875 01d0 0B       		.uleb128 0xb
 2876 01d1 3B       		.uleb128 0x3b
 2877 01d2 0B       		.uleb128 0xb
 2878 01d3 49       		.uleb128 0x49
 2879 01d4 13       		.uleb128 0x13
 2880 01d5 02       		.uleb128 0x2
 2881 01d6 18       		.uleb128 0x18
 2882 01d7 00       		.byte	0
 2883 01d8 00       		.byte	0
 2884 01d9 25       		.uleb128 0x25
 2885 01da 0B       		.uleb128 0xb
 2886 01db 01       		.byte	0x1
 2887 01dc 11       		.uleb128 0x11
 2888 01dd 01       		.uleb128 0x1
 2889 01de 12       		.uleb128 0x12
 2890 01df 06       		.uleb128 0x6
 2891 01e0 01       		.uleb128 0x1
 2892 01e1 13       		.uleb128 0x13
 2893 01e2 00       		.byte	0
 2894 01e3 00       		.byte	0
 2895 01e4 26       		.uleb128 0x26
 2896 01e5 34       		.uleb128 0x34
 2897 01e6 00       		.byte	0
 2898 01e7 03       		.uleb128 0x3
 2899 01e8 0E       		.uleb128 0xe
 2900 01e9 3A       		.uleb128 0x3a
 2901 01ea 0B       		.uleb128 0xb
 2902 01eb 3B       		.uleb128 0x3b
 2903 01ec 0B       		.uleb128 0xb
 2904 01ed 49       		.uleb128 0x49
 2905 01ee 13       		.uleb128 0x13
 2906 01ef 02       		.uleb128 0x2
 2907 01f0 18       		.uleb128 0x18
 2908 01f1 00       		.byte	0
 2909 01f2 00       		.byte	0
 2910 01f3 27       		.uleb128 0x27
 2911 01f4 2E       		.uleb128 0x2e
 2912 01f5 01       		.byte	0x1
 2913 01f6 3F       		.uleb128 0x3f
 2914 01f7 19       		.uleb128 0x19
 2915 01f8 03       		.uleb128 0x3
 2916 01f9 0E       		.uleb128 0xe
 2917 01fa 3A       		.uleb128 0x3a
 2918 01fb 0B       		.uleb128 0xb
 2919 01fc 3B       		.uleb128 0x3b
 2920 01fd 0B       		.uleb128 0xb
 2921 01fe 27       		.uleb128 0x27
 2922 01ff 19       		.uleb128 0x19
 2923 0200 49       		.uleb128 0x49
 2924 0201 13       		.uleb128 0x13
 2925 0202 11       		.uleb128 0x11
 2926 0203 01       		.uleb128 0x1
 2927 0204 12       		.uleb128 0x12
 2928 0205 06       		.uleb128 0x6
 2929 0206 40       		.uleb128 0x40
ARM GAS  C:\Users\164\AppData\Local\Temp\ccxmKrTp.s 			page 58


 2930 0207 18       		.uleb128 0x18
 2931 0208 9742     		.uleb128 0x2117
 2932 020a 19       		.uleb128 0x19
 2933 020b 01       		.uleb128 0x1
 2934 020c 13       		.uleb128 0x13
 2935 020d 00       		.byte	0
 2936 020e 00       		.byte	0
 2937 020f 28       		.uleb128 0x28
 2938 0210 898201   		.uleb128 0x4109
 2939 0213 01       		.byte	0x1
 2940 0214 11       		.uleb128 0x11
 2941 0215 01       		.uleb128 0x1
 2942 0216 31       		.uleb128 0x31
 2943 0217 13       		.uleb128 0x13
 2944 0218 01       		.uleb128 0x1
 2945 0219 13       		.uleb128 0x13
 2946 021a 00       		.byte	0
 2947 021b 00       		.byte	0
 2948 021c 29       		.uleb128 0x29
 2949 021d 898201   		.uleb128 0x4109
 2950 0220 00       		.byte	0
 2951 0221 11       		.uleb128 0x11
 2952 0222 01       		.uleb128 0x1
 2953 0223 31       		.uleb128 0x31
 2954 0224 13       		.uleb128 0x13
 2955 0225 00       		.byte	0
 2956 0226 00       		.byte	0
 2957 0227 2A       		.uleb128 0x2a
 2958 0228 2E       		.uleb128 0x2e
 2959 0229 01       		.byte	0x1
 2960 022a 3F       		.uleb128 0x3f
 2961 022b 19       		.uleb128 0x19
 2962 022c 03       		.uleb128 0x3
 2963 022d 0E       		.uleb128 0xe
 2964 022e 3A       		.uleb128 0x3a
 2965 022f 0B       		.uleb128 0xb
 2966 0230 3B       		.uleb128 0x3b
 2967 0231 0B       		.uleb128 0xb
 2968 0232 27       		.uleb128 0x27
 2969 0233 19       		.uleb128 0x19
 2970 0234 11       		.uleb128 0x11
 2971 0235 01       		.uleb128 0x1
 2972 0236 12       		.uleb128 0x12
 2973 0237 06       		.uleb128 0x6
 2974 0238 40       		.uleb128 0x40
 2975 0239 18       		.uleb128 0x18
 2976 023a 9742     		.uleb128 0x2117
 2977 023c 19       		.uleb128 0x19
 2978 023d 01       		.uleb128 0x1
 2979 023e 13       		.uleb128 0x13
 2980 023f 00       		.byte	0
 2981 0240 00       		.byte	0
 2982 0241 2B       		.uleb128 0x2b
 2983 0242 21       		.uleb128 0x21
 2984 0243 00       		.byte	0
 2985 0244 49       		.uleb128 0x49
 2986 0245 13       		.uleb128 0x13
ARM GAS  C:\Users\164\AppData\Local\Temp\ccxmKrTp.s 			page 59


 2987 0246 2F       		.uleb128 0x2f
 2988 0247 05       		.uleb128 0x5
 2989 0248 00       		.byte	0
 2990 0249 00       		.byte	0
 2991 024a 2C       		.uleb128 0x2c
 2992 024b 34       		.uleb128 0x34
 2993 024c 00       		.byte	0
 2994 024d 03       		.uleb128 0x3
 2995 024e 0E       		.uleb128 0xe
 2996 024f 3A       		.uleb128 0x3a
 2997 0250 0B       		.uleb128 0xb
 2998 0251 3B       		.uleb128 0x3b
 2999 0252 0B       		.uleb128 0xb
 3000 0253 49       		.uleb128 0x49
 3001 0254 13       		.uleb128 0x13
 3002 0255 3F       		.uleb128 0x3f
 3003 0256 19       		.uleb128 0x19
 3004 0257 3C       		.uleb128 0x3c
 3005 0258 19       		.uleb128 0x19
 3006 0259 00       		.byte	0
 3007 025a 00       		.byte	0
 3008 025b 2D       		.uleb128 0x2d
 3009 025c 34       		.uleb128 0x34
 3010 025d 00       		.byte	0
 3011 025e 03       		.uleb128 0x3
 3012 025f 0E       		.uleb128 0xe
 3013 0260 3A       		.uleb128 0x3a
 3014 0261 0B       		.uleb128 0xb
 3015 0262 3B       		.uleb128 0x3b
 3016 0263 05       		.uleb128 0x5
 3017 0264 49       		.uleb128 0x49
 3018 0265 13       		.uleb128 0x13
 3019 0266 3F       		.uleb128 0x3f
 3020 0267 19       		.uleb128 0x19
 3021 0268 3C       		.uleb128 0x3c
 3022 0269 19       		.uleb128 0x19
 3023 026a 00       		.byte	0
 3024 026b 00       		.byte	0
 3025 026c 2E       		.uleb128 0x2e
 3026 026d 2E       		.uleb128 0x2e
 3027 026e 00       		.byte	0
 3028 026f 3F       		.uleb128 0x3f
 3029 0270 19       		.uleb128 0x19
 3030 0271 3C       		.uleb128 0x3c
 3031 0272 19       		.uleb128 0x19
 3032 0273 6E       		.uleb128 0x6e
 3033 0274 0E       		.uleb128 0xe
 3034 0275 03       		.uleb128 0x3
 3035 0276 0E       		.uleb128 0xe
 3036 0277 3A       		.uleb128 0x3a
 3037 0278 0B       		.uleb128 0xb
 3038 0279 3B       		.uleb128 0x3b
 3039 027a 0B       		.uleb128 0xb
 3040 027b 00       		.byte	0
 3041 027c 00       		.byte	0
 3042 027d 2F       		.uleb128 0x2f
 3043 027e 2E       		.uleb128 0x2e
ARM GAS  C:\Users\164\AppData\Local\Temp\ccxmKrTp.s 			page 60


 3044 027f 00       		.byte	0
 3045 0280 3F       		.uleb128 0x3f
 3046 0281 19       		.uleb128 0x19
 3047 0282 3C       		.uleb128 0x3c
 3048 0283 19       		.uleb128 0x19
 3049 0284 6E       		.uleb128 0x6e
 3050 0285 0E       		.uleb128 0xe
 3051 0286 03       		.uleb128 0x3
 3052 0287 0E       		.uleb128 0xe
 3053 0288 00       		.byte	0
 3054 0289 00       		.byte	0
 3055 028a 00       		.byte	0
 3056              		.section	.debug_loc,"",%progbits
 3057              	.Ldebug_loc0:
 3058              	.LLST0:
 3059 0000 00000000 		.4byte	.LVL0
 3060 0004 08000000 		.4byte	.LVL2
 3061 0008 0100     		.2byte	0x1
 3062 000a 50       		.byte	0x50
 3063 000b 08000000 		.4byte	.LVL2
 3064 000f 54000000 		.4byte	.LFE86
 3065 0013 0400     		.2byte	0x4
 3066 0015 F3       		.byte	0xf3
 3067 0016 01       		.uleb128 0x1
 3068 0017 50       		.byte	0x50
 3069 0018 9F       		.byte	0x9f
 3070 0019 00000000 		.4byte	0
 3071 001d 00000000 		.4byte	0
 3072              	.LLST1:
 3073 0021 00000000 		.4byte	.LVL0
 3074 0025 08000000 		.4byte	.LVL2
 3075 0029 0100     		.2byte	0x1
 3076 002b 51       		.byte	0x51
 3077 002c 08000000 		.4byte	.LVL2
 3078 0030 50000000 		.4byte	.LVL9
 3079 0034 0100     		.2byte	0x1
 3080 0036 57       		.byte	0x57
 3081 0037 50000000 		.4byte	.LVL9
 3082 003b 54000000 		.4byte	.LFE86
 3083 003f 0400     		.2byte	0x4
 3084 0041 F3       		.byte	0xf3
 3085 0042 01       		.uleb128 0x1
 3086 0043 51       		.byte	0x51
 3087 0044 9F       		.byte	0x9f
 3088 0045 00000000 		.4byte	0
 3089 0049 00000000 		.4byte	0
 3090              	.LLST2:
 3091 004d 06000000 		.4byte	.LVL1
 3092 0051 08000000 		.4byte	.LVL2
 3093 0055 0200     		.2byte	0x2
 3094 0057 30       		.byte	0x30
 3095 0058 9F       		.byte	0x9f
 3096 0059 08000000 		.4byte	.LVL2
 3097 005d 2C000000 		.4byte	.LVL4
 3098 0061 0100     		.2byte	0x1
 3099 0063 54       		.byte	0x54
 3100 0064 34000000 		.4byte	.LVL5
ARM GAS  C:\Users\164\AppData\Local\Temp\ccxmKrTp.s 			page 61


 3101 0068 3A000000 		.4byte	.LVL6
 3102 006c 0100     		.2byte	0x1
 3103 006e 54       		.byte	0x54
 3104 006f 42000000 		.4byte	.LVL7
 3105 0073 50000000 		.4byte	.LVL9
 3106 0077 0100     		.2byte	0x1
 3107 0079 54       		.byte	0x54
 3108 007a 50000000 		.4byte	.LVL9
 3109 007e 54000000 		.4byte	.LFE86
 3110 0082 0100     		.2byte	0x1
 3111 0084 50       		.byte	0x50
 3112 0085 00000000 		.4byte	0
 3113 0089 00000000 		.4byte	0
 3114              	.LLST3:
 3115 008d 00000000 		.4byte	.LVL10
 3116 0091 14000000 		.4byte	.LVL12
 3117 0095 0100     		.2byte	0x1
 3118 0097 50       		.byte	0x50
 3119 0098 14000000 		.4byte	.LVL12
 3120 009c 1E000000 		.4byte	.LVL14
 3121 00a0 0400     		.2byte	0x4
 3122 00a2 F3       		.byte	0xf3
 3123 00a3 01       		.uleb128 0x1
 3124 00a4 50       		.byte	0x50
 3125 00a5 9F       		.byte	0x9f
 3126 00a6 1E000000 		.4byte	.LVL14
 3127 00aa 7E000000 		.4byte	.LVL24
 3128 00ae 0100     		.2byte	0x1
 3129 00b0 50       		.byte	0x50
 3130 00b1 7E000000 		.4byte	.LVL24
 3131 00b5 90000000 		.4byte	.LFE87
 3132 00b9 0400     		.2byte	0x4
 3133 00bb F3       		.byte	0xf3
 3134 00bc 01       		.uleb128 0x1
 3135 00bd 50       		.byte	0x50
 3136 00be 9F       		.byte	0x9f
 3137 00bf 00000000 		.4byte	0
 3138 00c3 00000000 		.4byte	0
 3139              	.LLST4:
 3140 00c7 00000000 		.4byte	.LVL10
 3141 00cb 12000000 		.4byte	.LVL11
 3142 00cf 0100     		.2byte	0x1
 3143 00d1 51       		.byte	0x51
 3144 00d2 12000000 		.4byte	.LVL11
 3145 00d6 17000000 		.4byte	.LVL13-1
 3146 00da 0100     		.2byte	0x1
 3147 00dc 52       		.byte	0x52
 3148 00dd 17000000 		.4byte	.LVL13-1
 3149 00e1 1E000000 		.4byte	.LVL14
 3150 00e5 0400     		.2byte	0x4
 3151 00e7 F3       		.byte	0xf3
 3152 00e8 01       		.uleb128 0x1
 3153 00e9 51       		.byte	0x51
 3154 00ea 9F       		.byte	0x9f
 3155 00eb 1E000000 		.4byte	.LVL14
 3156 00ef 34000000 		.4byte	.LVL17
 3157 00f3 0100     		.2byte	0x1
ARM GAS  C:\Users\164\AppData\Local\Temp\ccxmKrTp.s 			page 62


 3158 00f5 51       		.byte	0x51
 3159 00f6 34000000 		.4byte	.LVL17
 3160 00fa 7E000000 		.4byte	.LVL24
 3161 00fe 0E00     		.2byte	0xe
 3162 0100 74       		.byte	0x74
 3163 0101 00       		.sleb128 0
 3164 0102 31       		.byte	0x31
 3165 0103 24       		.byte	0x24
 3166 0104 74       		.byte	0x74
 3167 0105 00       		.sleb128 0
 3168 0106 22       		.byte	0x22
 3169 0107 32       		.byte	0x32
 3170 0108 24       		.byte	0x24
 3171 0109 75       		.byte	0x75
 3172 010a 00       		.sleb128 0
 3173 010b 22       		.byte	0x22
 3174 010c 23       		.byte	0x23
 3175 010d 08       		.uleb128 0x8
 3176 010e 7E000000 		.4byte	.LVL24
 3177 0112 90000000 		.4byte	.LFE87
 3178 0116 0400     		.2byte	0x4
 3179 0118 F3       		.byte	0xf3
 3180 0119 01       		.uleb128 0x1
 3181 011a 51       		.byte	0x51
 3182 011b 9F       		.byte	0x9f
 3183 011c 00000000 		.4byte	0
 3184 0120 00000000 		.4byte	0
 3185              	.LLST5:
 3186 0124 26000000 		.4byte	.LVL15
 3187 0128 7E000000 		.4byte	.LVL24
 3188 012c 0100     		.2byte	0x1
 3189 012e 54       		.byte	0x54
 3190 012f 00000000 		.4byte	0
 3191 0133 00000000 		.4byte	0
 3192              	.LLST6:
 3193 0137 32000000 		.4byte	.LVL16
 3194 013b 34000000 		.4byte	.LVL17
 3195 013f 0200     		.2byte	0x2
 3196 0141 30       		.byte	0x30
 3197 0142 9F       		.byte	0x9f
 3198 0143 34000000 		.4byte	.LVL17
 3199 0147 54000000 		.4byte	.LVL18
 3200 014b 0100     		.2byte	0x1
 3201 014d 53       		.byte	0x53
 3202 014e 5C000000 		.4byte	.LVL19
 3203 0152 72000000 		.4byte	.LVL21
 3204 0156 0100     		.2byte	0x1
 3205 0158 53       		.byte	0x53
 3206 0159 7A000000 		.4byte	.LVL22
 3207 015d 7E000000 		.4byte	.LVL24
 3208 0161 0100     		.2byte	0x1
 3209 0163 53       		.byte	0x53
 3210 0164 00000000 		.4byte	0
 3211 0168 00000000 		.4byte	0
 3212              	.LLST7:
 3213 016c 00000000 		.4byte	.LVL25
 3214 0170 10000000 		.4byte	.LVL28
ARM GAS  C:\Users\164\AppData\Local\Temp\ccxmKrTp.s 			page 63


 3215 0174 0100     		.2byte	0x1
 3216 0176 50       		.byte	0x50
 3217 0177 10000000 		.4byte	.LVL28
 3218 017b 13000000 		.4byte	.LVL29-1
 3219 017f 0100     		.2byte	0x1
 3220 0181 51       		.byte	0x51
 3221 0182 13000000 		.4byte	.LVL29-1
 3222 0186 5C000000 		.4byte	.LFE92
 3223 018a 0400     		.2byte	0x4
 3224 018c F3       		.byte	0xf3
 3225 018d 01       		.uleb128 0x1
 3226 018e 50       		.byte	0x50
 3227 018f 9F       		.byte	0x9f
 3228 0190 00000000 		.4byte	0
 3229 0194 00000000 		.4byte	0
 3230              	.LLST8:
 3231 0198 00000000 		.4byte	.LVL25
 3232 019c 0E000000 		.4byte	.LVL27
 3233 01a0 0100     		.2byte	0x1
 3234 01a2 51       		.byte	0x51
 3235 01a3 0E000000 		.4byte	.LVL27
 3236 01a7 58000000 		.4byte	.LVL34
 3237 01ab 0100     		.2byte	0x1
 3238 01ad 55       		.byte	0x55
 3239 01ae 58000000 		.4byte	.LVL34
 3240 01b2 5C000000 		.4byte	.LFE92
 3241 01b6 0400     		.2byte	0x4
 3242 01b8 F3       		.byte	0xf3
 3243 01b9 01       		.uleb128 0x1
 3244 01ba 51       		.byte	0x51
 3245 01bb 9F       		.byte	0x9f
 3246 01bc 00000000 		.4byte	0
 3247 01c0 00000000 		.4byte	0
 3248              	.LLST9:
 3249 01c4 00000000 		.4byte	.LVL25
 3250 01c8 0C000000 		.4byte	.LVL26
 3251 01cc 0100     		.2byte	0x1
 3252 01ce 52       		.byte	0x52
 3253 01cf 0C000000 		.4byte	.LVL26
 3254 01d3 5C000000 		.4byte	.LFE92
 3255 01d7 0400     		.2byte	0x4
 3256 01d9 F3       		.byte	0xf3
 3257 01da 01       		.uleb128 0x1
 3258 01db 52       		.byte	0x52
 3259 01dc 9F       		.byte	0x9f
 3260 01dd 00000000 		.4byte	0
 3261 01e1 00000000 		.4byte	0
 3262              	.LLST10:
 3263 01e5 14000000 		.4byte	.LVL29
 3264 01e9 18000000 		.4byte	.LVL30
 3265 01ed 0200     		.2byte	0x2
 3266 01ef 30       		.byte	0x30
 3267 01f0 9F       		.byte	0x9f
 3268 01f1 18000000 		.4byte	.LVL30
 3269 01f5 58000000 		.4byte	.LVL34
 3270 01f9 0100     		.2byte	0x1
 3271 01fb 54       		.byte	0x54
ARM GAS  C:\Users\164\AppData\Local\Temp\ccxmKrTp.s 			page 64


 3272 01fc 00000000 		.4byte	0
 3273 0200 00000000 		.4byte	0
 3274              	.LLST11:
 3275 0204 00000000 		.4byte	.LVL35
 3276 0208 14000000 		.4byte	.LVL39
 3277 020c 0100     		.2byte	0x1
 3278 020e 50       		.byte	0x50
 3279 020f 14000000 		.4byte	.LVL39
 3280 0213 1C000000 		.4byte	.LVL40
 3281 0217 0100     		.2byte	0x1
 3282 0219 50       		.byte	0x50
 3283 021a 00000000 		.4byte	0
 3284 021e 00000000 		.4byte	0
 3285              	.LLST12:
 3286 0222 00000000 		.4byte	.LVL35
 3287 0226 04000000 		.4byte	.LVL36
 3288 022a 0200     		.2byte	0x2
 3289 022c 30       		.byte	0x30
 3290 022d 9F       		.byte	0x9f
 3291 022e 04000000 		.4byte	.LVL36
 3292 0232 0C000000 		.4byte	.LVL37
 3293 0236 0100     		.2byte	0x1
 3294 0238 53       		.byte	0x53
 3295 0239 12000000 		.4byte	.LVL38
 3296 023d 1E000000 		.4byte	.LFE89
 3297 0241 0100     		.2byte	0x1
 3298 0243 53       		.byte	0x53
 3299 0244 00000000 		.4byte	0
 3300 0248 00000000 		.4byte	0
 3301              	.LLST13:
 3302 024c 00000000 		.4byte	.LVL41
 3303 0250 1B000000 		.4byte	.LVL43-1
 3304 0254 0100     		.2byte	0x1
 3305 0256 51       		.byte	0x51
 3306 0257 1B000000 		.4byte	.LVL43-1
 3307 025b 58000000 		.4byte	.LFE88
 3308 025f 0400     		.2byte	0x4
 3309 0261 F3       		.byte	0xf3
 3310 0262 01       		.uleb128 0x1
 3311 0263 51       		.byte	0x51
 3312 0264 9F       		.byte	0x9f
 3313 0265 00000000 		.4byte	0
 3314 0269 00000000 		.4byte	0
 3315              	.LLST14:
 3316 026d 00000000 		.4byte	.LVL41
 3317 0271 1B000000 		.4byte	.LVL43-1
 3318 0275 0100     		.2byte	0x1
 3319 0277 52       		.byte	0x52
 3320 0278 1B000000 		.4byte	.LVL43-1
 3321 027c 58000000 		.4byte	.LFE88
 3322 0280 0100     		.2byte	0x1
 3323 0282 55       		.byte	0x55
 3324 0283 00000000 		.4byte	0
 3325 0287 00000000 		.4byte	0
 3326              	.LLST15:
 3327 028b 00000000 		.4byte	.LVL41
 3328 028f 18000000 		.4byte	.LVL42
ARM GAS  C:\Users\164\AppData\Local\Temp\ccxmKrTp.s 			page 65


 3329 0293 0200     		.2byte	0x2
 3330 0295 70       		.byte	0x70
 3331 0296 00       		.sleb128 0
 3332 0297 18000000 		.4byte	.LVL42
 3333 029b 58000000 		.4byte	.LFE88
 3334 029f 0200     		.2byte	0x2
 3335 02a1 74       		.byte	0x74
 3336 02a2 00       		.sleb128 0
 3337 02a3 00000000 		.4byte	0
 3338 02a7 00000000 		.4byte	0
 3339              	.LLST16:
 3340 02ab 26000000 		.4byte	.LVL46
 3341 02af 30000000 		.4byte	.LVL47
 3342 02b3 0100     		.2byte	0x1
 3343 02b5 50       		.byte	0x50
 3344 02b6 00000000 		.4byte	0
 3345 02ba 00000000 		.4byte	0
 3346              	.LLST17:
 3347 02be 36000000 		.4byte	.LVL49
 3348 02c2 52000000 		.4byte	.LVL53
 3349 02c6 0100     		.2byte	0x1
 3350 02c8 57       		.byte	0x57
 3351 02c9 00000000 		.4byte	0
 3352 02cd 00000000 		.4byte	0
 3353              	.LLST18:
 3354 02d1 3C000000 		.4byte	.LVL50
 3355 02d5 47000000 		.4byte	.LVL51-1
 3356 02d9 0100     		.2byte	0x1
 3357 02db 50       		.byte	0x50
 3358 02dc 47000000 		.4byte	.LVL51-1
 3359 02e0 52000000 		.4byte	.LVL53
 3360 02e4 0100     		.2byte	0x1
 3361 02e6 58       		.byte	0x58
 3362 02e7 00000000 		.4byte	0
 3363 02eb 00000000 		.4byte	0
 3364              	.LLST19:
 3365 02ef 00000000 		.4byte	.LVL54
 3366 02f3 07000000 		.4byte	.LVL55-1
 3367 02f7 0100     		.2byte	0x1
 3368 02f9 50       		.byte	0x50
 3369 02fa 07000000 		.4byte	.LVL55-1
 3370 02fe 22000000 		.4byte	.LFE90
 3371 0302 0100     		.2byte	0x1
 3372 0304 54       		.byte	0x54
 3373 0305 00000000 		.4byte	0
 3374 0309 00000000 		.4byte	0
 3375              	.LLST20:
 3376 030d 12000000 		.4byte	.LVL58
 3377 0311 1A000000 		.4byte	.LVL59
 3378 0315 0100     		.2byte	0x1
 3379 0317 50       		.byte	0x50
 3380 0318 00000000 		.4byte	0
 3381 031c 00000000 		.4byte	0
 3382              	.LLST21:
 3383 0320 00000000 		.4byte	.LVL61
 3384 0324 02000000 		.4byte	.LVL62
 3385 0328 0100     		.2byte	0x1
ARM GAS  C:\Users\164\AppData\Local\Temp\ccxmKrTp.s 			page 66


 3386 032a 50       		.byte	0x50
 3387 032b 02000000 		.4byte	.LVL62
 3388 032f 28000000 		.4byte	.LFE91
 3389 0333 0400     		.2byte	0x4
 3390 0335 F3       		.byte	0xf3
 3391 0336 01       		.uleb128 0x1
 3392 0337 50       		.byte	0x50
 3393 0338 9F       		.byte	0x9f
 3394 0339 00000000 		.4byte	0
 3395 033d 00000000 		.4byte	0
 3396              	.LLST22:
 3397 0341 00000000 		.4byte	.LVL63
 3398 0345 0C000000 		.4byte	.LVL64
 3399 0349 0100     		.2byte	0x1
 3400 034b 50       		.byte	0x50
 3401 034c 0C000000 		.4byte	.LVL64
 3402 0350 26000000 		.4byte	.LFE94
 3403 0354 0100     		.2byte	0x1
 3404 0356 56       		.byte	0x56
 3405 0357 00000000 		.4byte	0
 3406 035b 00000000 		.4byte	0
 3407              	.LLST23:
 3408 035f 00000000 		.4byte	.LVL63
 3409 0363 0F000000 		.4byte	.LVL65-1
 3410 0367 0100     		.2byte	0x1
 3411 0369 51       		.byte	0x51
 3412 036a 0F000000 		.4byte	.LVL65-1
 3413 036e 26000000 		.4byte	.LFE94
 3414 0372 0100     		.2byte	0x1
 3415 0374 54       		.byte	0x54
 3416 0375 00000000 		.4byte	0
 3417 0379 00000000 		.4byte	0
 3418              	.LLST24:
 3419 037d 00000000 		.4byte	.LVL63
 3420 0381 0F000000 		.4byte	.LVL65-1
 3421 0385 0100     		.2byte	0x1
 3422 0387 52       		.byte	0x52
 3423 0388 0F000000 		.4byte	.LVL65-1
 3424 038c 26000000 		.4byte	.LFE94
 3425 0390 0400     		.2byte	0x4
 3426 0392 F3       		.byte	0xf3
 3427 0393 01       		.uleb128 0x1
 3428 0394 52       		.byte	0x52
 3429 0395 9F       		.byte	0x9f
 3430 0396 00000000 		.4byte	0
 3431 039a 00000000 		.4byte	0
 3432              	.LLST25:
 3433 039e 00000000 		.4byte	.LVL67
 3434 03a2 0C000000 		.4byte	.LVL68
 3435 03a6 0100     		.2byte	0x1
 3436 03a8 50       		.byte	0x50
 3437 03a9 0C000000 		.4byte	.LVL68
 3438 03ad 30000000 		.4byte	.LVL74
 3439 03b1 0100     		.2byte	0x1
 3440 03b3 57       		.byte	0x57
 3441 03b4 30000000 		.4byte	.LVL74
 3442 03b8 34000000 		.4byte	.LFE93
ARM GAS  C:\Users\164\AppData\Local\Temp\ccxmKrTp.s 			page 67


 3443 03bc 0400     		.2byte	0x4
 3444 03be F3       		.byte	0xf3
 3445 03bf 01       		.uleb128 0x1
 3446 03c0 50       		.byte	0x50
 3447 03c1 9F       		.byte	0x9f
 3448 03c2 00000000 		.4byte	0
 3449 03c6 00000000 		.4byte	0
 3450              	.LLST26:
 3451 03ca 00000000 		.4byte	.LVL67
 3452 03ce 0F000000 		.4byte	.LVL69-1
 3453 03d2 0100     		.2byte	0x1
 3454 03d4 51       		.byte	0x51
 3455 03d5 0F000000 		.4byte	.LVL69-1
 3456 03d9 30000000 		.4byte	.LVL74
 3457 03dd 0100     		.2byte	0x1
 3458 03df 54       		.byte	0x54
 3459 03e0 30000000 		.4byte	.LVL74
 3460 03e4 34000000 		.4byte	.LFE93
 3461 03e8 0400     		.2byte	0x4
 3462 03ea F3       		.byte	0xf3
 3463 03eb 01       		.uleb128 0x1
 3464 03ec 51       		.byte	0x51
 3465 03ed 9F       		.byte	0x9f
 3466 03ee 00000000 		.4byte	0
 3467 03f2 00000000 		.4byte	0
 3468              	.LLST27:
 3469 03f6 00000000 		.4byte	.LVL67
 3470 03fa 0F000000 		.4byte	.LVL69-1
 3471 03fe 0100     		.2byte	0x1
 3472 0400 52       		.byte	0x52
 3473 0401 0F000000 		.4byte	.LVL69-1
 3474 0405 34000000 		.4byte	.LFE93
 3475 0409 0400     		.2byte	0x4
 3476 040b F3       		.byte	0xf3
 3477 040c 01       		.uleb128 0x1
 3478 040d 52       		.byte	0x52
 3479 040e 9F       		.byte	0x9f
 3480 040f 00000000 		.4byte	0
 3481 0413 00000000 		.4byte	0
 3482              	.LLST28:
 3483 0417 12000000 		.4byte	.LVL70
 3484 041b 18000000 		.4byte	.LVL71
 3485 041f 0100     		.2byte	0x1
 3486 0421 50       		.byte	0x50
 3487 0422 18000000 		.4byte	.LVL71
 3488 0426 30000000 		.4byte	.LVL74
 3489 042a 0100     		.2byte	0x1
 3490 042c 56       		.byte	0x56
 3491 042d 00000000 		.4byte	0
 3492 0431 00000000 		.4byte	0
 3493              	.LLST29:
 3494 0435 00000000 		.4byte	.LVL75
 3495 0439 0D000000 		.4byte	.LVL76-1
 3496 043d 0100     		.2byte	0x1
 3497 043f 50       		.byte	0x50
 3498 0440 0D000000 		.4byte	.LVL76-1
 3499 0444 52000000 		.4byte	.LVL82
ARM GAS  C:\Users\164\AppData\Local\Temp\ccxmKrTp.s 			page 68


 3500 0448 0100     		.2byte	0x1
 3501 044a 54       		.byte	0x54
 3502 044b 52000000 		.4byte	.LVL82
 3503 044f 84000000 		.4byte	.LFE95
 3504 0453 0400     		.2byte	0x4
 3505 0455 F3       		.byte	0xf3
 3506 0456 01       		.uleb128 0x1
 3507 0457 50       		.byte	0x50
 3508 0458 9F       		.byte	0x9f
 3509 0459 00000000 		.4byte	0
 3510 045d 00000000 		.4byte	0
 3511              		.section	.debug_aranges,"",%progbits
 3512 0000 64000000 		.4byte	0x64
 3513 0004 0200     		.2byte	0x2
 3514 0006 00000000 		.4byte	.Ldebug_info0
 3515 000a 04       		.byte	0x4
 3516 000b 00       		.byte	0
 3517 000c 0000     		.2byte	0
 3518 000e 0000     		.2byte	0
 3519 0010 00000000 		.4byte	.LFB86
 3520 0014 54000000 		.4byte	.LFE86-.LFB86
 3521 0018 00000000 		.4byte	.LFB87
 3522 001c 90000000 		.4byte	.LFE87-.LFB87
 3523 0020 00000000 		.4byte	.LFB92
 3524 0024 5C000000 		.4byte	.LFE92-.LFB92
 3525 0028 00000000 		.4byte	.LFB89
 3526 002c 1E000000 		.4byte	.LFE89-.LFB89
 3527 0030 00000000 		.4byte	.LFB88
 3528 0034 58000000 		.4byte	.LFE88-.LFB88
 3529 0038 00000000 		.4byte	.LFB90
 3530 003c 22000000 		.4byte	.LFE90-.LFB90
 3531 0040 00000000 		.4byte	.LFB91
 3532 0044 28000000 		.4byte	.LFE91-.LFB91
 3533 0048 00000000 		.4byte	.LFB94
 3534 004c 26000000 		.4byte	.LFE94-.LFB94
 3535 0050 00000000 		.4byte	.LFB93
 3536 0054 34000000 		.4byte	.LFE93-.LFB93
 3537 0058 00000000 		.4byte	.LFB95
 3538 005c 84000000 		.4byte	.LFE95-.LFB95
 3539 0060 00000000 		.4byte	0
 3540 0064 00000000 		.4byte	0
 3541              		.section	.debug_ranges,"",%progbits
 3542              	.Ldebug_ranges0:
 3543 0000 00000000 		.4byte	.LFB86
 3544 0004 54000000 		.4byte	.LFE86
 3545 0008 00000000 		.4byte	.LFB87
 3546 000c 90000000 		.4byte	.LFE87
 3547 0010 00000000 		.4byte	.LFB92
 3548 0014 5C000000 		.4byte	.LFE92
 3549 0018 00000000 		.4byte	.LFB89
 3550 001c 1E000000 		.4byte	.LFE89
 3551 0020 00000000 		.4byte	.LFB88
 3552 0024 58000000 		.4byte	.LFE88
 3553 0028 00000000 		.4byte	.LFB90
 3554 002c 22000000 		.4byte	.LFE90
 3555 0030 00000000 		.4byte	.LFB91
 3556 0034 28000000 		.4byte	.LFE91
ARM GAS  C:\Users\164\AppData\Local\Temp\ccxmKrTp.s 			page 69


 3557 0038 00000000 		.4byte	.LFB94
 3558 003c 26000000 		.4byte	.LFE94
 3559 0040 00000000 		.4byte	.LFB93
 3560 0044 34000000 		.4byte	.LFE93
 3561 0048 00000000 		.4byte	.LFB95
 3562 004c 84000000 		.4byte	.LFE95
 3563 0050 00000000 		.4byte	0
 3564 0054 00000000 		.4byte	0
 3565              		.section	.debug_line,"",%progbits
 3566              	.Ldebug_line0:
 3567 0000 26030000 		.section	.debug_str,"MS",%progbits,1
 3567      02001202 
 3567      00000201 
 3567      FB0E0D00 
 3567      01010101 
 3568              	.LASF107:
 3569 0000 73796D31 		.ascii	"sym1\000"
 3569      00
 3570              	.LASF126:
 3571 0005 6D726263 		.ascii	"mrbc_raw_alloc\000"
 3571      5F726177 
 3571      5F616C6C 
 3571      6F6300
 3572              	.LASF134:
 3573 0014 6D726263 		.ascii	"mrbc_init_class_symbol\000"
 3573      5F696E69 
 3573      745F636C 
 3573      6173735F 
 3573      73796D62 
 3574              	.LASF103:
 3575 002b 63737472 		.ascii	"cstr\000"
 3575      00
 3576              	.LASF116:
 3577 0030 73796D5F 		.ascii	"sym_index_pos\000"
 3577      696E6465 
 3577      785F706F 
 3577      7300
 3578              	.LASF125:
 3579 003e 7374726C 		.ascii	"strlen\000"
 3579      656E00
 3580              	.LASF124:
 3581 0045 6D726263 		.ascii	"mrbc_array_new\000"
 3581      5F617272 
 3581      61795F6E 
 3581      657700
 3582              	.LASF78:
 3583 0054 52486173 		.ascii	"RHash\000"
 3583      6800
 3584              	.LASF121:
 3585 005a 636F6E73 		.ascii	"console_printf\000"
 3585      6F6C655F 
 3585      7072696E 
 3585      746600
 3586              	.LASF26:
 3587 0069 6D726263 		.ascii	"mrbc_func_t\000"
 3587      5F66756E 
 3587      635F7400 
ARM GAS  C:\Users\164\AppData\Local\Temp\ccxmKrTp.s 			page 70


 3588              	.LASF44:
 3589 0075 4D524243 		.ascii	"MRBC_TT_FLOAT\000"
 3589      5F54545F 
 3589      464C4F41 
 3589      5400
 3590              	.LASF66:
 3591 0083 7265665F 		.ascii	"ref_count\000"
 3591      636F756E 
 3591      7400
 3592              	.LASF117:
 3593 008d 6D726263 		.ascii	"mrbc_class_object\000"
 3593      5F636C61 
 3593      73735F6F 
 3593      626A6563 
 3593      7400
 3594              	.LASF13:
 3595 009f 756E7369 		.ascii	"unsigned int\000"
 3595      676E6564 
 3595      20696E74 
 3595      00
 3596              	.LASF71:
 3597 00ac 6E657874 		.ascii	"next\000"
 3597      00
 3598              	.LASF39:
 3599 00b1 4D524243 		.ascii	"MRBC_TT_EMPTY\000"
 3599      5F54545F 
 3599      454D5054 
 3599      5900
 3600              	.LASF97:
 3601 00bf 6E5F6172 		.ascii	"n_args\000"
 3601      677300
 3602              	.LASF112:
 3603 00c6 635F616C 		.ascii	"c_all_symbols\000"
 3603      6C5F7379 
 3603      6D626F6C 
 3603      7300
 3604              	.LASF81:
 3605 00d4 6D726263 		.ascii	"mrbc_class\000"
 3605      5F636C61 
 3605      737300
 3606              	.LASF8:
 3607 00df 5F5F696E 		.ascii	"__int32_t\000"
 3607      7433325F 
 3607      7400
 3608              	.LASF27:
 3609 00e9 69726570 		.ascii	"irep\000"
 3609      00
 3610              	.LASF82:
 3611 00ee 524B6579 		.ascii	"RKeyValueHandle\000"
 3611      56616C75 
 3611      6548616E 
 3611      646C6500 
 3612              	.LASF110:
 3613 00fe 7374725F 		.ascii	"str_to_symid\000"
 3613      746F5F73 
 3613      796D6964 
 3613      00
ARM GAS  C:\Users\164\AppData\Local\Temp\ccxmKrTp.s 			page 71


 3614              	.LASF69:
 3615 010b 5250726F 		.ascii	"RProc\000"
 3615      6300
 3616              	.LASF83:
 3617 0111 66756E63 		.ascii	"func\000"
 3617      00
 3618              	.LASF96:
 3619 0116 70726576 		.ascii	"prev\000"
 3619      00
 3620              	.LASF30:
 3621 011b 72656773 		.ascii	"regs\000"
 3621      00
 3622              	.LASF127:
 3623 0120 6D726263 		.ascii	"mrbc_string_new_cstr\000"
 3623      5F737472 
 3623      696E675F 
 3623      6E65775F 
 3623      63737472 
 3624              	.LASF38:
 3625 0135 4D524243 		.ascii	"MRBC_TT_HANDLE\000"
 3625      5F54545F 
 3625      48414E44 
 3625      4C4500
 3626              	.LASF91:
 3627 0144 706F6F6C 		.ascii	"pools\000"
 3627      7300
 3628              	.LASF31:
 3629 014a 63757272 		.ascii	"current_regs\000"
 3629      656E745F 
 3629      72656773 
 3629      00
 3630              	.LASF14:
 3631 0157 696E7438 		.ascii	"int8_t\000"
 3631      5F7400
 3632              	.LASF61:
 3633 015e 52436C61 		.ascii	"RClass\000"
 3633      737300
 3634              	.LASF99:
 3635 0165 666C6F61 		.ascii	"float\000"
 3635      7400
 3636              	.LASF129:
 3637 016b 6D726263 		.ascii	"mrbc_define_class\000"
 3637      5F646566 
 3637      696E655F 
 3637      636C6173 
 3637      7300
 3638              	.LASF16:
 3639 017d 696E7431 		.ascii	"int16_t\000"
 3639      365F7400 
 3640              	.LASF45:
 3641 0185 4D524243 		.ascii	"MRBC_TT_SYMBOL\000"
 3641      5F54545F 
 3641      53594D42 
 3641      4F4C00
 3642              	.LASF12:
 3643 0194 6C6F6E67 		.ascii	"long long unsigned int\000"
 3643      206C6F6E 
ARM GAS  C:\Users\164\AppData\Local\Temp\ccxmKrTp.s 			page 72


 3643      6720756E 
 3643      7369676E 
 3643      65642069 
 3644              	.LASF22:
 3645 01ab 6D726263 		.ascii	"mrbc_int\000"
 3645      5F696E74 
 3645      00
 3646              	.LASF122:
 3647 01b4 6D726263 		.ascii	"mrbc_array_push\000"
 3647      5F617272 
 3647      61795F70 
 3647      75736800 
 3648              	.LASF6:
 3649 01c4 5F5F7569 		.ascii	"__uint16_t\000"
 3649      6E743136 
 3649      5F7400
 3650              	.LASF109:
 3651 01cf 6D726263 		.ascii	"mrbc_symbol_new\000"
 3651      5F73796D 
 3651      626F6C5F 
 3651      6E657700 
 3652              	.LASF28:
 3653 01df 766D5F69 		.ascii	"vm_id\000"
 3653      6400
 3654              	.LASF85:
 3655 01e5 6E6C6F63 		.ascii	"nlocals\000"
 3655      616C7300 
 3656              	.LASF53:
 3657 01ed 6D726263 		.ascii	"mrbc_vtype\000"
 3657      5F767479 
 3657      706500
 3658              	.LASF55:
 3659 01f8 696E7374 		.ascii	"instance\000"
 3659      616E6365 
 3659      00
 3660              	.LASF29:
 3661 0201 70635F69 		.ascii	"pc_irep\000"
 3661      72657000 
 3662              	.LASF131:
 3663 0209 474E5520 		.ascii	"GNU C11 5.4.1 20160609 (release) [ARM/embedded-5-br"
 3663      43313120 
 3663      352E342E 
 3663      31203230 
 3663      31363036 
 3664 023c 616E6368 		.ascii	"anch revision 237715] -mcpu=cortex-m3 -mthumb -g -O"
 3664      20726576 
 3664      6973696F 
 3664      6E203233 
 3664      37373135 
 3665 026f 67202D66 		.ascii	"g -ffunction-sections -ffat-lto-objects\000"
 3665      66756E63 
 3665      74696F6E 
 3665      2D736563 
 3665      74696F6E 
 3666              	.LASF86:
 3667 0297 6E726567 		.ascii	"nregs\000"
 3667      7300
ARM GAS  C:\Users\164\AppData\Local\Temp\ccxmKrTp.s 			page 73


 3668              	.LASF73:
 3669 029d 64617461 		.ascii	"data_size\000"
 3669      5F73697A 
 3669      6500
 3670              	.LASF64:
 3671 02a7 70726F63 		.ascii	"procs\000"
 3671      7300
 3672              	.LASF95:
 3673 02ad 43414C4C 		.ascii	"CALLINFO\000"
 3673      494E464F 
 3673      00
 3674              	.LASF119:
 3675 02b6 49544D5F 		.ascii	"ITM_RxBuffer\000"
 3675      52784275 
 3675      66666572 
 3675      00
 3676              	.LASF90:
 3677 02c3 636F6465 		.ascii	"code\000"
 3677      00
 3678              	.LASF128:
 3679 02c8 6D726263 		.ascii	"mrbc_string_append_cstr\000"
 3679      5F737472 
 3679      696E675F 
 3679      61707065 
 3679      6E645F63 
 3680              	.LASF36:
 3681 02e0 666C6167 		.ascii	"flag_need_memfree\000"
 3681      5F6E6565 
 3681      645F6D65 
 3681      6D667265 
 3681      6500
 3682              	.LASF92:
 3683 02f2 7074725F 		.ascii	"ptr_to_sym\000"
 3683      746F5F73 
 3683      796D00
 3684              	.LASF21:
 3685 02fd 63686172 		.ascii	"char\000"
 3685      00
 3686              	.LASF23:
 3687 0302 6D726263 		.ascii	"mrbc_float\000"
 3687      5F666C6F 
 3687      617400
 3688              	.LASF67:
 3689 030d 69766172 		.ascii	"ivar\000"
 3689      00
 3690              	.LASF63:
 3691 0312 73757065 		.ascii	"super\000"
 3691      7200
 3692              	.LASF58:
 3693 0318 73747269 		.ascii	"string\000"
 3693      6E6700
 3694              	.LASF68:
 3695 031f 64617461 		.ascii	"data\000"
 3695      00
 3696              	.LASF40:
 3697 0324 4D524243 		.ascii	"MRBC_TT_NIL\000"
 3697      5F54545F 
ARM GAS  C:\Users\164\AppData\Local\Temp\ccxmKrTp.s 			page 74


 3697      4E494C00 
 3698              	.LASF120:
 3699 0330 73747263 		.ascii	"strcmp\000"
 3699      6D7000
 3700              	.LASF49:
 3701 0337 4D524243 		.ascii	"MRBC_TT_ARRAY\000"
 3701      5F54545F 
 3701      41525241 
 3701      5900
 3702              	.LASF15:
 3703 0345 75696E74 		.ascii	"uint8_t\000"
 3703      385F7400 
 3704              	.LASF33:
 3705 034d 74617267 		.ascii	"target_class\000"
 3705      65745F63 
 3705      6C617373 
 3705      00
 3706              	.LASF104:
 3707 035a 73656172 		.ascii	"search_index\000"
 3707      63685F69 
 3707      6E646578 
 3707      00
 3708              	.LASF133:
 3709 0367 433A5C55 		.ascii	"C:\\Users\\164\\Desktop\\github\\mcmc\\Design01.cyd"
 3709      73657273 
 3709      5C313634 
 3709      5C446573 
 3709      6B746F70 
 3710 0394 736E00   		.ascii	"sn\000"
 3711              	.LASF115:
 3712 0397 73796D5F 		.ascii	"sym_index\000"
 3712      696E6465 
 3712      7800
 3713              	.LASF102:
 3714 03a1 72696768 		.ascii	"right\000"
 3714      7400
 3715              	.LASF11:
 3716 03a7 6C6F6E67 		.ascii	"long long int\000"
 3716      206C6F6E 
 3716      6720696E 
 3716      7400
 3717              	.LASF132:
 3718 03b5 73796D62 		.ascii	"symbol.c\000"
 3718      6F6C2E63 
 3718      00
 3719              	.LASF80:
 3720 03be 6D726263 		.ascii	"mrbc_value\000"
 3720      5F76616C 
 3720      756500
 3721              	.LASF74:
 3722 03c9 6E5F7374 		.ascii	"n_stored\000"
 3722      6F726564 
 3722      00
 3723              	.LASF62:
 3724 03d2 73796D5F 		.ascii	"sym_id\000"
 3724      696400
 3725              	.LASF51:
ARM GAS  C:\Users\164\AppData\Local\Temp\ccxmKrTp.s 			page 75


 3726 03d9 4D524243 		.ascii	"MRBC_TT_RANGE\000"
 3726      5F54545F 
 3726      52414E47 
 3726      4500
 3727              	.LASF130:
 3728 03e7 6D726263 		.ascii	"mrbc_define_method\000"
 3728      5F646566 
 3728      696E655F 
 3728      6D657468 
 3728      6F6400
 3729              	.LASF111:
 3730 03fa 73796D69 		.ascii	"symid_to_str\000"
 3730      645F746F 
 3730      5F737472 
 3730      00
 3731              	.LASF4:
 3732 0407 5F5F696E 		.ascii	"__int16_t\000"
 3732      7431365F 
 3732      7400
 3733              	.LASF43:
 3734 0411 4D524243 		.ascii	"MRBC_TT_FIXNUM\000"
 3734      5F54545F 
 3734      4649584E 
 3734      554D00
 3735              	.LASF76:
 3736 0420 73697A65 		.ascii	"size\000"
 3736      00
 3737              	.LASF59:
 3738 0425 72616E67 		.ascii	"range\000"
 3738      6500
 3739              	.LASF50:
 3740 042b 4D524243 		.ascii	"MRBC_TT_STRING\000"
 3740      5F54545F 
 3740      53545249 
 3740      4E4700
 3741              	.LASF47:
 3742 043a 4D524243 		.ascii	"MRBC_TT_OBJECT\000"
 3742      5F54545F 
 3742      4F424A45 
 3742      435400
 3743              	.LASF106:
 3744 0449 61726763 		.ascii	"argc\000"
 3744      00
 3745              	.LASF0:
 3746 044e 5F5F696E 		.ascii	"__int8_t\000"
 3746      74385F74 
 3746      00
 3747              	.LASF57:
 3748 0457 61727261 		.ascii	"array\000"
 3748      7900
 3749              	.LASF113:
 3750 045d 635F746F 		.ascii	"c_to_s\000"
 3750      5F7300
 3751              	.LASF19:
 3752 0464 6C6F6E67 		.ascii	"long double\000"
 3752      20646F75 
 3752      626C6500 
ARM GAS  C:\Users\164\AppData\Local\Temp\ccxmKrTp.s 			page 76


 3753              	.LASF17:
 3754 0470 75696E74 		.ascii	"uint16_t\000"
 3754      31365F74 
 3754      00
 3755              	.LASF32:
 3756 0479 63616C6C 		.ascii	"callinfo_tail\000"
 3756      696E666F 
 3756      5F746169 
 3756      6C00
 3757              	.LASF42:
 3758 0487 4D524243 		.ascii	"MRBC_TT_TRUE\000"
 3758      5F54545F 
 3758      54525545 
 3758      00
 3759              	.LASF5:
 3760 0494 73686F72 		.ascii	"short int\000"
 3760      7420696E 
 3760      7400
 3761              	.LASF41:
 3762 049e 4D524243 		.ascii	"MRBC_TT_FALSE\000"
 3762      5F54545F 
 3762      46414C53 
 3762      4500
 3763              	.LASF9:
 3764 04ac 6C6F6E67 		.ascii	"long int\000"
 3764      20696E74 
 3764      00
 3765              	.LASF60:
 3766 04b5 68617368 		.ascii	"hash\000"
 3766      00
 3767              	.LASF37:
 3768 04ba 524F626A 		.ascii	"RObject\000"
 3768      65637400 
 3769              	.LASF88:
 3770 04c2 696C656E 		.ascii	"ilen\000"
 3770      00
 3771              	.LASF46:
 3772 04c7 4D524243 		.ascii	"MRBC_TT_CLASS\000"
 3772      5F54545F 
 3772      434C4153 
 3772      5300
 3773              	.LASF94:
 3774 04d5 6D726263 		.ascii	"mrbc_irep\000"
 3774      5F697265 
 3774      7000
 3775              	.LASF100:
 3776 04df 53594D5F 		.ascii	"SYM_INDEX\000"
 3776      494E4445 
 3776      5800
 3777              	.LASF101:
 3778 04e9 6C656674 		.ascii	"left\000"
 3778      00
 3779              	.LASF1:
 3780 04ee 5F5F7569 		.ascii	"__uint8_t\000"
 3780      6E74385F 
 3780      7400
 3781              	.LASF93:
ARM GAS  C:\Users\164\AppData\Local\Temp\ccxmKrTp.s 			page 77


 3782 04f8 72657073 		.ascii	"reps\000"
 3782      00
 3783              	.LASF89:
 3784 04fd 706C656E 		.ascii	"plen\000"
 3784      00
 3785              	.LASF75:
 3786 0502 52537472 		.ascii	"RString\000"
 3786      696E6700 
 3787              	.LASF105:
 3788 050a 6164645F 		.ascii	"add_index\000"
 3788      696E6465 
 3788      7800
 3789              	.LASF98:
 3790 0514 6D726263 		.ascii	"mrbc_callinfo\000"
 3790      5F63616C 
 3790      6C696E66 
 3790      6F00
 3791              	.LASF56:
 3792 0522 70726F63 		.ascii	"proc\000"
 3792      00
 3793              	.LASF20:
 3794 0527 73697A65 		.ascii	"sizetype\000"
 3794      74797065 
 3794      00
 3795              	.LASF10:
 3796 0530 6C6F6E67 		.ascii	"long unsigned int\000"
 3796      20756E73 
 3796      69676E65 
 3796      6420696E 
 3796      7400
 3797              	.LASF18:
 3798 0542 696E7433 		.ascii	"int32_t\000"
 3798      325F7400 
 3799              	.LASF87:
 3800 054a 726C656E 		.ascii	"rlen\000"
 3800      00
 3801              	.LASF84:
 3802 054f 49524550 		.ascii	"IREP\000"
 3802      00
 3803              	.LASF65:
 3804 0554 52496E73 		.ascii	"RInstance\000"
 3804      74616E63 
 3804      6500
 3805              	.LASF108:
 3806 055e 63616C63 		.ascii	"calc_hash\000"
 3806      5F686173 
 3806      6800
 3807              	.LASF3:
 3808 0568 756E7369 		.ascii	"unsigned char\000"
 3808      676E6564 
 3808      20636861 
 3808      7200
 3809              	.LASF79:
 3810 0576 6D726263 		.ascii	"mrbc_object\000"
 3810      5F6F626A 
 3810      65637400 
 3811              	.LASF123:
ARM GAS  C:\Users\164\AppData\Local\Temp\ccxmKrTp.s 			page 78


 3812 0582 6D726263 		.ascii	"mrbc_dec_ref_counter\000"
 3812      5F646563 
 3812      5F726566 
 3812      5F636F75 
 3812      6E746572 
 3813              	.LASF52:
 3814 0597 4D524243 		.ascii	"MRBC_TT_HASH\000"
 3814      5F54545F 
 3814      48415348 
 3814      00
 3815              	.LASF34:
 3816 05a4 6572726F 		.ascii	"error_code\000"
 3816      725F636F 
 3816      646500
 3817              	.LASF114:
 3818 05af 635F696E 		.ascii	"c_inspect\000"
 3818      73706563 
 3818      7400
 3819              	.LASF70:
 3820 05b9 635F6675 		.ascii	"c_func\000"
 3820      6E6300
 3821              	.LASF35:
 3822 05c0 666C6167 		.ascii	"flag_preemption\000"
 3822      5F707265 
 3822      656D7074 
 3822      696F6E00 
 3823              	.LASF2:
 3824 05d0 7369676E 		.ascii	"signed char\000"
 3824      65642063 
 3824      68617200 
 3825              	.LASF7:
 3826 05dc 73686F72 		.ascii	"short unsigned int\000"
 3826      7420756E 
 3826      7369676E 
 3826      65642069 
 3826      6E7400
 3827              	.LASF54:
 3828 05ef 68616E64 		.ascii	"handle\000"
 3828      6C6500
 3829              	.LASF135:
 3830 05f6 6D656D63 		.ascii	"memcpy\000"
 3830      707900
 3831              	.LASF72:
 3832 05fd 52417272 		.ascii	"RArray\000"
 3832      617900
 3833              	.LASF25:
 3834 0604 6D726263 		.ascii	"mrbc_sym\000"
 3834      5F73796D 
 3834      00
 3835              	.LASF24:
 3836 060d 646F7562 		.ascii	"double\000"
 3836      6C6500
 3837              	.LASF48:
 3838 0614 4D524243 		.ascii	"MRBC_TT_PROC\000"
 3838      5F54545F 
 3838      50524F43 
 3838      00
ARM GAS  C:\Users\164\AppData\Local\Temp\ccxmKrTp.s 			page 79


 3839              	.LASF77:
 3840 0621 5252616E 		.ascii	"RRange\000"
 3840      676500
 3841              	.LASF118:
 3842 0628 6D726263 		.ascii	"mrbc_class_symbol\000"
 3842      5F636C61 
 3842      73735F73 
 3842      796D626F 
 3842      6C00
 3843              		.ident	"GCC: (GNU Tools for ARM Embedded Processors) 5.4.1 20160609 (release) [ARM/embedded-5-bran
