ARM GAS  C:\Users\164\AppData\Local\Temp\ccgtpLsh.s 			page 1


   1              		.syntax unified
   2              		.cpu cortex-m3
   3              		.fpu softvfp
   4              		.eabi_attribute 20, 1
   5              		.eabi_attribute 21, 1
   6              		.eabi_attribute 23, 3
   7              		.eabi_attribute 24, 1
   8              		.eabi_attribute 25, 1
   9              		.eabi_attribute 26, 1
  10              		.eabi_attribute 30, 1
  11              		.eabi_attribute 34, 1
  12              		.eabi_attribute 18, 4
  13              		.thumb
  14              		.syntax unified
  15              		.file	"uart2.c"
  16              		.text
  17              	.Ltext0:
  18              		.cfi_sections	.debug_frame
  19              		.section	.text.uart_isr_tx,"ax",%progbits
  20              		.align	2
  21              		.global	uart_isr_tx
  22              		.thumb
  23              		.thumb_func
  24              		.type	uart_isr_tx, %function
  25              	uart_isr_tx:
  26              	.LFB63:
  27              		.file 1 "uart2.c"
   1:uart2.c       **** /*! @file
   2:uart2.c       ****   @brief
   3:uart2.c       ****   UART wrapper for PSoC5LP. Multi component version.
   4:uart2.c       **** 
   5:uart2.c       ****   @version 1.1
   6:uart2.c       ****   @date Sun Jun  3 19:55:51 2018
   7:uart2.c       **** 
   8:uart2.c       ****   <pre>
   9:uart2.c       ****   Copyright (C) 2016-2018 Shimane IT Open-Innovation Center.
  10:uart2.c       ****   All Rights Reserved.
  11:uart2.c       **** 
  12:uart2.c       ****   This file is distributed under BSD 3-Clause License.
  13:uart2.c       ****   </pre>
  14:uart2.c       **** */
  15:uart2.c       **** 
  16:uart2.c       **** 
  17:uart2.c       **** /***** System headers *******************************************************/
  18:uart2.c       **** #include <project.h>
  19:uart2.c       **** #include <string.h>
  20:uart2.c       **** 
  21:uart2.c       **** /***** Local headers ********************************************************/
  22:uart2.c       **** #include "uart2.h"
  23:uart2.c       **** 
  24:uart2.c       **** /***** Constant values ******************************************************/
  25:uart2.c       **** /***** Macros ***************************************************************/
  26:uart2.c       **** /***** Typedefs *************************************************************/
  27:uart2.c       **** /***** Function prototypes **************************************************/
  28:uart2.c       **** int uart_check_timeout(void);
  29:uart2.c       **** void uart_stop_timeout(void);
  30:uart2.c       **** 
ARM GAS  C:\Users\164\AppData\Local\Temp\ccgtpLsh.s 			page 2


  31:uart2.c       **** 
  32:uart2.c       **** /***** Global variables *****************************************************/
  33:uart2.c       **** /***** Local variables ******************************************************/
  34:uart2.c       **** 
  35:uart2.c       **** /***** Interrupt functions **************************************************/
  36:uart2.c       **** 
  37:uart2.c       **** //================================================================
  38:uart2.c       **** /*! interrupt handler for TxD
  39:uart2.c       **** 
  40:uart2.c       ****   @internal
  41:uart2.c       ****   @param  uh            Pointer of UART_HANDLE.
  42:uart2.c       ****   @note
  43:uart2.c       ****     Don't use this directry. Use UART_ISR macro.
  44:uart2.c       **** */
  45:uart2.c       **** void uart_isr_tx(UART_HANDLE *uh)
  46:uart2.c       **** {
  28              		.loc 1 46 0
  29              		.cfi_startproc
  30              		@ args = 0, pretend = 0, frame = 0
  31              		@ frame_needed = 0, uses_anonymous_args = 0
  32              	.LVL0:
  33 0000 10B5     		push	{r4, lr}
  34              		.cfi_def_cfa_offset 8
  35              		.cfi_offset 4, -8
  36              		.cfi_offset 14, -4
  37 0002 0446     		mov	r4, r0
  47:uart2.c       ****   int sts = uh->ReadTxStatus();
  38              		.loc 1 47 0
  39 0004 D0F8A830 		ldr	r3, [r0, #168]
  40 0008 9847     		blx	r3
  41              	.LVL1:
  48:uart2.c       **** 
  49:uart2.c       ****   while( sts & uh->TX_STS_COMPLETE ) { // not loop, insted of "if"
  42              		.loc 1 49 0
  43 000a 94F89030 		ldrb	r3, [r4, #144]	@ zero_extendqisi2
  44 000e 1842     		tst	r0, r3
  45 0010 14D0     		beq	.L1
  50:uart2.c       ****     if( uh->tx_rd >= uh->size_txbuf ) uh->flag_tx_finished = 1;
  46              		.loc 1 50 0
  47 0012 E388     		ldrh	r3, [r4, #6]
  48 0014 9BB2     		uxth	r3, r3
  49 0016 A288     		ldrh	r2, [r4, #4]
  50 0018 9342     		cmp	r3, r2
  51 001a 01D3     		bcc	.L3
  52              		.loc 1 50 0 is_stmt 0 discriminator 1
  53 001c 0123     		movs	r3, #1
  54 001e 2372     		strb	r3, [r4, #8]
  55              	.L3:
  51:uart2.c       ****     if( uh->flag_tx_finished ) break;
  56              		.loc 1 51 0 is_stmt 1
  57 0020 237A     		ldrb	r3, [r4, #8]	@ zero_extendqisi2
  58 0022 13F0FF0F 		tst	r3, #255
  59 0026 09D1     		bne	.L1
  52:uart2.c       **** 
  53:uart2.c       ****     uh->WriteTxData(uh->p_txbuf[uh->tx_rd++]);
  60              		.loc 1 53 0
  61 0028 D4F8AC10 		ldr	r1, [r4, #172]
ARM GAS  C:\Users\164\AppData\Local\Temp\ccgtpLsh.s 			page 3


  62 002c 2068     		ldr	r0, [r4]
  63              	.LVL2:
  64 002e E388     		ldrh	r3, [r4, #6]
  65 0030 9BB2     		uxth	r3, r3
  66 0032 5A1C     		adds	r2, r3, #1
  67 0034 92B2     		uxth	r2, r2
  68 0036 E280     		strh	r2, [r4, #6]	@ movhi
  69 0038 C05C     		ldrb	r0, [r0, r3]	@ zero_extendqisi2
  70 003a 8847     		blx	r1
  71              	.LVL3:
  72              	.L1:
  73 003c 10BD     		pop	{r4, pc}
  74              		.cfi_endproc
  75              	.LFE63:
  76              		.size	uart_isr_tx, .-uart_isr_tx
  77 003e 00BF     		.section	.text.uart_isr_rx,"ax",%progbits
  78              		.align	2
  79              		.global	uart_isr_rx
  80              		.thumb
  81              		.thumb_func
  82              		.type	uart_isr_rx, %function
  83              	uart_isr_rx:
  84              	.LFB64:
  54:uart2.c       ****     break;
  55:uart2.c       ****   }
  56:uart2.c       **** }
  57:uart2.c       **** 
  58:uart2.c       **** 
  59:uart2.c       **** //================================================================
  60:uart2.c       **** /*! interrupt handler for RxD
  61:uart2.c       **** 
  62:uart2.c       ****   @internal
  63:uart2.c       ****   @param  uh            Pointer of UART_HANDLE.
  64:uart2.c       ****   @note
  65:uart2.c       ****     Don't use this directry. Use UART_ISR macro.
  66:uart2.c       **** */
  67:uart2.c       **** void uart_isr_rx(UART_HANDLE *uh)
  68:uart2.c       **** {
  85              		.loc 1 68 0
  86              		.cfi_startproc
  87              		@ args = 0, pretend = 0, frame = 0
  88              		@ frame_needed = 0, uses_anonymous_args = 0
  89              	.LVL4:
  90 0000 38B5     		push	{r3, r4, r5, lr}
  91              		.cfi_def_cfa_offset 16
  92              		.cfi_offset 3, -16
  93              		.cfi_offset 4, -12
  94              		.cfi_offset 5, -8
  95              		.cfi_offset 14, -4
  96 0002 0446     		mov	r4, r0
  69:uart2.c       ****   int sts = uh->ReadRxStatus();
  97              		.loc 1 69 0
  98 0004 D0F8A430 		ldr	r3, [r0, #164]
  99 0008 9847     		blx	r3
 100              	.LVL5:
  70:uart2.c       **** 
  71:uart2.c       ****   for(; sts != 0; sts = uh->ReadRxStatus()) {
ARM GAS  C:\Users\164\AppData\Local\Temp\ccgtpLsh.s 			page 4


 101              		.loc 1 71 0
 102 000a 2BE0     		b	.L6
 103              	.L10:
  72:uart2.c       ****     if( sts & uh->RX_STS_FIFO_NOTEMPTY ) {
 104              		.loc 1 72 0
 105 000c 94F89130 		ldrb	r3, [r4, #145]	@ zero_extendqisi2
 106 0010 0342     		tst	r3, r0
 107 0012 24D0     		beq	.L7
  73:uart2.c       ****       uh->rxfifo[uh->rx_wr++] = uh->ReadRxData();
 108              		.loc 1 73 0
 109 0014 E589     		ldrh	r5, [r4, #14]
 110 0016 ADB2     		uxth	r5, r5
 111 0018 6B1C     		adds	r3, r5, #1
 112 001a 9BB2     		uxth	r3, r3
 113 001c E381     		strh	r3, [r4, #14]	@ movhi
 114 001e D4F8B030 		ldr	r3, [r4, #176]
 115 0022 9847     		blx	r3
 116              	.LVL6:
 117 0024 2544     		add	r5, r5, r4
 118 0026 2874     		strb	r0, [r5, #16]
  74:uart2.c       **** 
  75:uart2.c       ****       // check rollover write index.
  76:uart2.c       ****       if( uh->rx_wr < sizeof(uh->rxfifo)) {
 119              		.loc 1 76 0
 120 0028 E389     		ldrh	r3, [r4, #14]
 121 002a 9BB2     		uxth	r3, r3
 122 002c 7F2B     		cmp	r3, #127
 123 002e 0BD8     		bhi	.L8
  77:uart2.c       ****         if( uh->rx_wr == uh->rx_rd ) {
 124              		.loc 1 77 0
 125 0030 E289     		ldrh	r2, [r4, #14]
 126 0032 92B2     		uxth	r2, r2
 127 0034 A389     		ldrh	r3, [r4, #12]
 128 0036 9BB2     		uxth	r3, r3
 129 0038 9A42     		cmp	r2, r3
 130 003a 10D1     		bne	.L7
  78:uart2.c       ****           uh->rx_wr--;   // buffer full
 131              		.loc 1 78 0
 132 003c E389     		ldrh	r3, [r4, #14]
 133 003e 9BB2     		uxth	r3, r3
 134 0040 013B     		subs	r3, r3, #1
 135 0042 9BB2     		uxth	r3, r3
 136 0044 E381     		strh	r3, [r4, #14]	@ movhi
 137 0046 0AE0     		b	.L7
 138              	.L8:
  79:uart2.c       ****         }
  80:uart2.c       ****       }
  81:uart2.c       ****       else {
  82:uart2.c       ****         if( uh->rx_rd == 0 ) {
 139              		.loc 1 82 0
 140 0048 A389     		ldrh	r3, [r4, #12]
 141 004a 9BB2     		uxth	r3, r3
 142 004c 2BB9     		cbnz	r3, .L9
  83:uart2.c       ****           uh->rx_wr--;   // buffer full
 143              		.loc 1 83 0
 144 004e E389     		ldrh	r3, [r4, #14]
 145 0050 9BB2     		uxth	r3, r3
ARM GAS  C:\Users\164\AppData\Local\Temp\ccgtpLsh.s 			page 5


 146 0052 013B     		subs	r3, r3, #1
 147 0054 9BB2     		uxth	r3, r3
 148 0056 E381     		strh	r3, [r4, #14]	@ movhi
 149 0058 01E0     		b	.L7
 150              	.L9:
  84:uart2.c       ****         }
  85:uart2.c       ****         else {
  86:uart2.c       ****           uh->rx_wr = 0; // roll over.
 151              		.loc 1 86 0
 152 005a 0023     		movs	r3, #0
 153 005c E381     		strh	r3, [r4, #14]	@ movhi
 154              	.L7:
  71:uart2.c       ****     if( sts & uh->RX_STS_FIFO_NOTEMPTY ) {
 155              		.loc 1 71 0
 156 005e D4F8A430 		ldr	r3, [r4, #164]
 157 0062 9847     		blx	r3
 158              	.LVL7:
 159              	.L6:
  71:uart2.c       ****     if( sts & uh->RX_STS_FIFO_NOTEMPTY ) {
 160              		.loc 1 71 0 is_stmt 0 discriminator 1
 161 0064 0028     		cmp	r0, #0
 162 0066 D1D1     		bne	.L10
  87:uart2.c       ****         }
  88:uart2.c       ****       }
  89:uart2.c       ****     } // /RX_STS_FIFO_NOTEMPTY
  90:uart2.c       **** 
  91:uart2.c       ****     // and any more check other status?
  92:uart2.c       ****   }
  93:uart2.c       **** }
 163              		.loc 1 93 0 is_stmt 1
 164 0068 38BD     		pop	{r3, r4, r5, pc}
 165              		.cfi_endproc
 166              	.LFE64:
 167              		.size	uart_isr_rx, .-uart_isr_rx
 168 006a 00BF     		.section	.text.uart_init_m,"ax",%progbits
 169              		.align	2
 170              		.global	uart_init_m
 171              		.thumb
 172              		.thumb_func
 173              		.type	uart_init_m, %function
 174              	uart_init_m:
 175              	.LFB65:
  94:uart2.c       **** 
  95:uart2.c       **** 
  96:uart2.c       **** /***** Local functions ******************************************************/
  97:uart2.c       **** /***** Global functions *****************************************************/
  98:uart2.c       **** 
  99:uart2.c       **** //================================================================
 100:uart2.c       **** /*! initialize
 101:uart2.c       **** 
 102:uart2.c       ****   @internal
 103:uart2.c       ****   @param  uh            Pointer of UART_HANDLE.
 104:uart2.c       ****   @note
 105:uart2.c       ****     Don't use this directry. Use uart_init macro.
 106:uart2.c       **** */
 107:uart2.c       **** void uart_init_m(UART_HANDLE *uh,
 108:uart2.c       ****                  uint8_t       tx_sts_complete,
ARM GAS  C:\Users\164\AppData\Local\Temp\ccgtpLsh.s 			page 6


 109:uart2.c       ****                  uint8_t       rx_sts_fifo_notempty,
 110:uart2.c       ****                  void         *Start,
 111:uart2.c       ****                  void         *Stop,
 112:uart2.c       ****                  void         *ClearTxBuffer,
 113:uart2.c       ****                  void         *ClearRxBuffer,
 114:uart2.c       ****                  void         *ReadTxStatus,
 115:uart2.c       ****                  void         *ReadRxStatus,
 116:uart2.c       ****                  void         *WriteTxData,
 117:uart2.c       ****                  void         *ReadRxData)
 118:uart2.c       **** {
 176              		.loc 1 118 0
 177              		.cfi_startproc
 178              		@ args = 28, pretend = 0, frame = 0
 179              		@ frame_needed = 0, uses_anonymous_args = 0
 180              	.LVL8:
 181 0000 38B5     		push	{r3, r4, r5, lr}
 182              		.cfi_def_cfa_offset 16
 183              		.cfi_offset 3, -16
 184              		.cfi_offset 4, -12
 185              		.cfi_offset 5, -8
 186              		.cfi_offset 14, -4
 187 0002 0446     		mov	r4, r0
 119:uart2.c       ****   uh->p_txbuf          = NULL;
 188              		.loc 1 119 0
 189 0004 0020     		movs	r0, #0
 190              	.LVL9:
 191 0006 2060     		str	r0, [r4]
 120:uart2.c       ****   uh->delimiter        = '\n';
 192              		.loc 1 120 0
 193 0008 0A25     		movs	r5, #10
 194 000a 6581     		strh	r5, [r4, #10]	@ movhi
 121:uart2.c       ****   uh->flag_tx_finished = 1;
 195              		.loc 1 121 0
 196 000c 0125     		movs	r5, #1
 197 000e 2572     		strb	r5, [r4, #8]
 122:uart2.c       ****   uh->mode             = 0;
 198              		.loc 1 122 0
 199 0010 6072     		strb	r0, [r4, #9]
 123:uart2.c       ****   uh->rx_rd            = 0;
 200              		.loc 1 123 0
 201 0012 A081     		strh	r0, [r4, #12]	@ movhi
 124:uart2.c       ****   uh->rx_wr            = 0;
 202              		.loc 1 124 0
 203 0014 E081     		strh	r0, [r4, #14]	@ movhi
 125:uart2.c       **** 
 126:uart2.c       ****   uh->TX_STS_COMPLETE      = tx_sts_complete;
 204              		.loc 1 126 0
 205 0016 84F89010 		strb	r1, [r4, #144]
 127:uart2.c       ****   uh->RX_STS_FIFO_NOTEMPTY = rx_sts_fifo_notempty;
 206              		.loc 1 127 0
 207 001a 84F89120 		strb	r2, [r4, #145]
 128:uart2.c       **** 
 129:uart2.c       ****   uh->Start         = Start;
 208              		.loc 1 129 0
 209 001e C4F89430 		str	r3, [r4, #148]
 130:uart2.c       ****   uh->Stop          = Stop;
 210              		.loc 1 130 0
ARM GAS  C:\Users\164\AppData\Local\Temp\ccgtpLsh.s 			page 7


 211 0022 049A     		ldr	r2, [sp, #16]
 212              	.LVL10:
 213 0024 C4F89820 		str	r2, [r4, #152]
 131:uart2.c       ****   uh->ClearTxBuffer = ClearTxBuffer;
 214              		.loc 1 131 0
 215 0028 059A     		ldr	r2, [sp, #20]
 216 002a C4F89C20 		str	r2, [r4, #156]
 132:uart2.c       ****   uh->ClearRxBuffer = ClearRxBuffer;
 217              		.loc 1 132 0
 218 002e 069A     		ldr	r2, [sp, #24]
 219 0030 C4F8A020 		str	r2, [r4, #160]
 133:uart2.c       ****   uh->ReadTxStatus  = ReadTxStatus;
 220              		.loc 1 133 0
 221 0034 079A     		ldr	r2, [sp, #28]
 222 0036 C4F8A820 		str	r2, [r4, #168]
 134:uart2.c       ****   uh->ReadRxStatus  = ReadRxStatus;
 223              		.loc 1 134 0
 224 003a 089A     		ldr	r2, [sp, #32]
 225 003c C4F8A420 		str	r2, [r4, #164]
 135:uart2.c       ****   uh->WriteTxData   = WriteTxData;
 226              		.loc 1 135 0
 227 0040 099A     		ldr	r2, [sp, #36]
 228 0042 C4F8AC20 		str	r2, [r4, #172]
 136:uart2.c       ****   uh->ReadRxData    = ReadRxData;
 229              		.loc 1 136 0
 230 0046 0A9A     		ldr	r2, [sp, #40]
 231 0048 C4F8B020 		str	r2, [r4, #176]
 137:uart2.c       **** 
 138:uart2.c       ****   uh->Start();
 232              		.loc 1 138 0
 233 004c 9847     		blx	r3
 234              	.LVL11:
 139:uart2.c       ****   if( uh->ClearTxBuffer ) uh->ClearTxBuffer();
 235              		.loc 1 139 0
 236 004e D4F89C30 		ldr	r3, [r4, #156]
 237 0052 03B1     		cbz	r3, .L13
 238              		.loc 1 139 0 is_stmt 0 discriminator 1
 239 0054 9847     		blx	r3
 240              	.LVL12:
 241              	.L13:
 140:uart2.c       ****   if( uh->ClearRxBuffer ) uh->ClearRxBuffer();
 242              		.loc 1 140 0 is_stmt 1
 243 0056 D4F8A030 		ldr	r3, [r4, #160]
 244 005a 03B1     		cbz	r3, .L12
 245              		.loc 1 140 0 is_stmt 0 discriminator 1
 246 005c 9847     		blx	r3
 247              	.LVL13:
 248              	.L12:
 249 005e 38BD     		pop	{r3, r4, r5, pc}
 250              		.cfi_endproc
 251              	.LFE65:
 252              		.size	uart_init_m, .-uart_init_m
 253              		.section	.text.uart_set_mode,"ax",%progbits
 254              		.align	2
 255              		.global	uart_set_mode
 256              		.thumb
 257              		.thumb_func
ARM GAS  C:\Users\164\AppData\Local\Temp\ccgtpLsh.s 			page 8


 258              		.type	uart_set_mode, %function
 259              	uart_set_mode:
 260              	.LFB66:
 141:uart2.c       **** }
 142:uart2.c       **** 
 143:uart2.c       **** 
 144:uart2.c       **** //================================================================
 145:uart2.c       **** /*! set work mode
 146:uart2.c       **** 
 147:uart2.c       ****   @memberof UART_HANDLE
 148:uart2.c       ****   @param  uh            Pointer of UART_HANDLE.
 149:uart2.c       ****   @param  mode          mode.
 150:uart2.c       **** */
 151:uart2.c       **** void uart_set_mode(UART_HANDLE *uh, int mode)
 152:uart2.c       **** {
 261              		.loc 1 152 0 is_stmt 1
 262              		.cfi_startproc
 263              		@ args = 0, pretend = 0, frame = 0
 264              		@ frame_needed = 0, uses_anonymous_args = 0
 265              		@ link register save eliminated.
 266              	.LVL14:
 153:uart2.c       ****   uh->mode = mode;
 267              		.loc 1 153 0
 268 0000 4172     		strb	r1, [r0, #9]
 269 0002 7047     		bx	lr
 270              		.cfi_endproc
 271              	.LFE66:
 272              		.size	uart_set_mode, .-uart_set_mode
 273              		.section	.text.uart_clear_tx_buffer,"ax",%progbits
 274              		.align	2
 275              		.global	uart_clear_tx_buffer
 276              		.thumb
 277              		.thumb_func
 278              		.type	uart_clear_tx_buffer, %function
 279              	uart_clear_tx_buffer:
 280              	.LFB67:
 154:uart2.c       **** }
 155:uart2.c       **** 
 156:uart2.c       **** 
 157:uart2.c       **** //================================================================
 158:uart2.c       **** /*! Clear transmit buffer.
 159:uart2.c       **** 
 160:uart2.c       ****   @memberof UART_HANDLE
 161:uart2.c       ****   @param  uh            Pointer of UART_HANDLE.
 162:uart2.c       **** */
 163:uart2.c       **** void uart_clear_tx_buffer(UART_HANDLE *uh)
 164:uart2.c       **** {
 281              		.loc 1 164 0
 282              		.cfi_startproc
 283              		@ args = 0, pretend = 0, frame = 0
 284              		@ frame_needed = 0, uses_anonymous_args = 0
 285              	.LVL15:
 286 0000 08B5     		push	{r3, lr}
 287              		.cfi_def_cfa_offset 8
 288              		.cfi_offset 3, -8
 289              		.cfi_offset 14, -4
 165:uart2.c       ****   uh->ClearTxBuffer();
ARM GAS  C:\Users\164\AppData\Local\Temp\ccgtpLsh.s 			page 9


 290              		.loc 1 165 0
 291 0002 D0F89C30 		ldr	r3, [r0, #156]
 292 0006 9847     		blx	r3
 293              	.LVL16:
 294 0008 08BD     		pop	{r3, pc}
 295              		.cfi_endproc
 296              	.LFE67:
 297              		.size	uart_clear_tx_buffer, .-uart_clear_tx_buffer
 298 000a 00BF     		.section	.text.uart_clear_rx_buffer,"ax",%progbits
 299              		.align	2
 300              		.global	uart_clear_rx_buffer
 301              		.thumb
 302              		.thumb_func
 303              		.type	uart_clear_rx_buffer, %function
 304              	uart_clear_rx_buffer:
 305              	.LFB68:
 166:uart2.c       **** }
 167:uart2.c       **** 
 168:uart2.c       **** 
 169:uart2.c       **** //================================================================
 170:uart2.c       **** /*! Clear receive buffer.
 171:uart2.c       **** 
 172:uart2.c       ****   @memberof UART_HANDLE
 173:uart2.c       ****   @param  uh            Pointer of UART_HANDLE.
 174:uart2.c       **** */
 175:uart2.c       **** void uart_clear_rx_buffer(UART_HANDLE *uh)
 176:uart2.c       **** {
 306              		.loc 1 176 0
 307              		.cfi_startproc
 308              		@ args = 0, pretend = 0, frame = 0
 309              		@ frame_needed = 0, uses_anonymous_args = 0
 310              	.LVL17:
 311 0000 10B5     		push	{r4, lr}
 312              		.cfi_def_cfa_offset 8
 313              		.cfi_offset 4, -8
 314              		.cfi_offset 14, -4
 315 0002 0446     		mov	r4, r0
 177:uart2.c       ****   uh->ClearRxBuffer();
 316              		.loc 1 177 0
 317 0004 D0F8A030 		ldr	r3, [r0, #160]
 318 0008 9847     		blx	r3
 319              	.LVL18:
 178:uart2.c       ****   uh->rx_rd = 0;
 320              		.loc 1 178 0
 321 000a 0023     		movs	r3, #0
 322 000c A381     		strh	r3, [r4, #12]	@ movhi
 179:uart2.c       ****   uh->rx_wr = 0;
 323              		.loc 1 179 0
 324 000e E381     		strh	r3, [r4, #14]	@ movhi
 325 0010 10BD     		pop	{r4, pc}
 326              		.cfi_endproc
 327              	.LFE68:
 328              		.size	uart_clear_rx_buffer, .-uart_clear_rx_buffer
 329 0012 00BF     		.section	.text.uart_write,"ax",%progbits
 330              		.align	2
 331              		.global	uart_write
 332              		.thumb
ARM GAS  C:\Users\164\AppData\Local\Temp\ccgtpLsh.s 			page 10


 333              		.thumb_func
 334              		.type	uart_write, %function
 335              	uart_write:
 336              	.LFB69:
 180:uart2.c       **** }
 181:uart2.c       **** 
 182:uart2.c       **** 
 183:uart2.c       **** //================================================================
 184:uart2.c       **** /*! Transmit binary data.
 185:uart2.c       **** 
 186:uart2.c       ****   @memberof UART_HANDLE
 187:uart2.c       ****   @param  uh            Pointer of UART_HANDLE.
 188:uart2.c       ****   @param  buf           Pointer of buffer.
 189:uart2.c       ****   @param  size          Size of buffer.
 190:uart2.c       ****   @return               Size of transmitted.
 191:uart2.c       **** */
 192:uart2.c       **** int uart_write(UART_HANDLE *uh, const char *buf, size_t size)
 193:uart2.c       **** {
 337              		.loc 1 193 0
 338              		.cfi_startproc
 339              		@ args = 0, pretend = 0, frame = 0
 340              		@ frame_needed = 0, uses_anonymous_args = 0
 341              	.LVL19:
 194:uart2.c       ****   if( !uh->flag_tx_finished ) return 0;  // TODO: or -1 ??
 342              		.loc 1 194 0
 343 0000 037A     		ldrb	r3, [r0, #8]	@ zero_extendqisi2
 344 0002 13F0FF0F 		tst	r3, #255
 345 0006 1BD0     		beq	.L24
 195:uart2.c       ****   if( size == 0 ) return 0;
 346              		.loc 1 195 0
 347 0008 E2B1     		cbz	r2, .L25
 193:uart2.c       ****   if( !uh->flag_tx_finished ) return 0;  // TODO: or -1 ??
 348              		.loc 1 193 0
 349 000a 10B5     		push	{r4, lr}
 350              		.cfi_def_cfa_offset 8
 351              		.cfi_offset 4, -8
 352              		.cfi_offset 14, -4
 353 000c 0446     		mov	r4, r0
 196:uart2.c       **** 
 197:uart2.c       ****   uh->p_txbuf          = buf;
 354              		.loc 1 197 0
 355 000e 0160     		str	r1, [r0]
 198:uart2.c       ****   uh->size_txbuf       = size;
 356              		.loc 1 198 0
 357 0010 8280     		strh	r2, [r0, #4]	@ movhi
 199:uart2.c       ****   uh->tx_rd            = 1;
 358              		.loc 1 199 0
 359 0012 0123     		movs	r3, #1
 360 0014 C380     		strh	r3, [r0, #6]	@ movhi
 200:uart2.c       ****   uh->flag_tx_finished = 0;
 361              		.loc 1 200 0
 362 0016 0023     		movs	r3, #0
 363 0018 0372     		strb	r3, [r0, #8]
 201:uart2.c       **** 
 202:uart2.c       ****   uh->WriteTxData(*buf); // send first byte.
 364              		.loc 1 202 0
 365 001a D0F8AC30 		ldr	r3, [r0, #172]
ARM GAS  C:\Users\164\AppData\Local\Temp\ccgtpLsh.s 			page 11


 366 001e 0878     		ldrb	r0, [r1]	@ zero_extendqisi2
 367              	.LVL20:
 368 0020 9847     		blx	r3
 369              	.LVL21:
 203:uart2.c       ****   if( uh->mode & UART_WRITE_NONBLOCK ) return 0;
 370              		.loc 1 203 0
 371 0022 637A     		ldrb	r3, [r4, #9]	@ zero_extendqisi2
 372 0024 13F0010F 		tst	r3, #1
 373 0028 0ED1     		bne	.L26
 374              	.L23:
 204:uart2.c       **** 
 205:uart2.c       ****   do {
 206:uart2.c       ****     CyPmAltAct(PM_ALT_ACT_TIME_NONE, PM_ALT_ACT_SRC_PICU);
 375              		.loc 1 206 0 discriminator 1
 376 002a 4021     		movs	r1, #64
 377 002c 0020     		movs	r0, #0
 378 002e FFF7FEFF 		bl	CyPmAltAct
 379              	.LVL22:
 207:uart2.c       **** #ifdef UART_CHECK_TIMEOUT
 208:uart2.c       ****     if( uart_check_timeout()) {
 209:uart2.c       ****       uart_stop_timeout();
 210:uart2.c       ****       uh->flag_tx_finished = 1;
 211:uart2.c       ****       return -1;
 212:uart2.c       ****     }
 213:uart2.c       **** #endif
 214:uart2.c       ****   } while( !uh->flag_tx_finished );
 380              		.loc 1 214 0 discriminator 1
 381 0032 237A     		ldrb	r3, [r4, #8]	@ zero_extendqisi2
 382 0034 13F0FF0F 		tst	r3, #255
 383 0038 F7D0     		beq	.L23
 215:uart2.c       **** 
 216:uart2.c       **** #ifdef UART_CHECK_TIMEOUT
 217:uart2.c       ****   uart_stop_timeout();
 218:uart2.c       **** #endif
 219:uart2.c       ****   return uh->tx_rd;
 384              		.loc 1 219 0
 385 003a E088     		ldrh	r0, [r4, #6]
 386 003c 80B2     		uxth	r0, r0
 387 003e 10BD     		pop	{r4, pc}
 388              	.LVL23:
 389              	.L24:
 390              		.cfi_def_cfa_offset 0
 391              		.cfi_restore 4
 392              		.cfi_restore 14
 194:uart2.c       ****   if( size == 0 ) return 0;
 393              		.loc 1 194 0
 394 0040 0020     		movs	r0, #0
 395              	.LVL24:
 220:uart2.c       **** }
 396              		.loc 1 220 0
 397 0042 7047     		bx	lr
 398              	.LVL25:
 399              	.L25:
 195:uart2.c       **** 
 400              		.loc 1 195 0
 401 0044 0020     		movs	r0, #0
 402              	.LVL26:
ARM GAS  C:\Users\164\AppData\Local\Temp\ccgtpLsh.s 			page 12


 403 0046 7047     		bx	lr
 404              	.LVL27:
 405              	.L26:
 406              		.cfi_def_cfa_offset 8
 407              		.cfi_offset 4, -8
 408              		.cfi_offset 14, -4
 203:uart2.c       **** 
 409              		.loc 1 203 0
 410 0048 0020     		movs	r0, #0
 411              		.loc 1 220 0
 412 004a 10BD     		pop	{r4, pc}
 413              		.cfi_endproc
 414              	.LFE69:
 415              		.size	uart_write, .-uart_write
 416              		.section	.text.uart_read,"ax",%progbits
 417              		.align	2
 418              		.global	uart_read
 419              		.thumb
 420              		.thumb_func
 421              		.type	uart_read, %function
 422              	uart_read:
 423              	.LFB70:
 221:uart2.c       **** 
 222:uart2.c       **** 
 223:uart2.c       **** //================================================================
 224:uart2.c       **** /*! Receive binary data.
 225:uart2.c       **** 
 226:uart2.c       ****   @memberof UART_HANDLE
 227:uart2.c       ****   @param  uh            Pointer of UART_HANDLE.
 228:uart2.c       ****   @param  buf           Pointer of buffer.
 229:uart2.c       ****   @param  size          Size of buffer.
 230:uart2.c       ****   @return int           Num of received bytes.
 231:uart2.c       **** */
 232:uart2.c       **** int uart_read(UART_HANDLE *uh, char *buf, size_t size)
 233:uart2.c       **** {
 424              		.loc 1 233 0
 425              		.cfi_startproc
 426              		@ args = 0, pretend = 0, frame = 0
 427              		@ frame_needed = 0, uses_anonymous_args = 0
 428              	.LVL28:
 429 0000 F8B5     		push	{r3, r4, r5, r6, r7, lr}
 430              		.cfi_def_cfa_offset 24
 431              		.cfi_offset 3, -24
 432              		.cfi_offset 4, -20
 433              		.cfi_offset 5, -16
 434              		.cfi_offset 6, -12
 435              		.cfi_offset 7, -8
 436              		.cfi_offset 14, -4
 437 0002 0446     		mov	r4, r0
 438 0004 0D46     		mov	r5, r1
 439 0006 1746     		mov	r7, r2
 440              	.LVL29:
 234:uart2.c       ****   size_t cnt = size;
 441              		.loc 1 234 0
 442 0008 1646     		mov	r6, r2
 443 000a 00E0     		b	.L30
 444              	.LVL30:
ARM GAS  C:\Users\164\AppData\Local\Temp\ccgtpLsh.s 			page 13


 445              	.L32:
 235:uart2.c       **** 
 236:uart2.c       ****   while( 1 ) {
 237:uart2.c       ****     // buffer is empty?
 238:uart2.c       ****     if( uh->rx_rd == uh->rx_wr ) {
 239:uart2.c       ****       CyPmAltAct(PM_ALT_ACT_TIME_NONE, PM_ALT_ACT_SRC_PICU);
 240:uart2.c       **** #ifdef UART_CHECK_TIMEOUT
 241:uart2.c       ****       if( uart_check_timeout()) {
 242:uart2.c       ****         uart_stop_timeout();
 243:uart2.c       ****         return -1;
 244:uart2.c       ****       }
 245:uart2.c       **** #endif
 246:uart2.c       ****       continue;
 446              		.loc 1 246 0
 447 000c 0D46     		mov	r5, r1
 448              	.L30:
 238:uart2.c       ****       CyPmAltAct(PM_ALT_ACT_TIME_NONE, PM_ALT_ACT_SRC_PICU);
 449              		.loc 1 238 0
 450 000e A289     		ldrh	r2, [r4, #12]
 451 0010 92B2     		uxth	r2, r2
 452 0012 E389     		ldrh	r3, [r4, #14]
 453 0014 9BB2     		uxth	r3, r3
 454 0016 9A42     		cmp	r2, r3
 455 0018 05D1     		bne	.L31
 239:uart2.c       **** #ifdef UART_CHECK_TIMEOUT
 456              		.loc 1 239 0
 457 001a 4021     		movs	r1, #64
 458              	.LVL31:
 459 001c 0020     		movs	r0, #0
 460 001e FFF7FEFF 		bl	CyPmAltAct
 461              	.LVL32:
 462              		.loc 1 246 0
 463 0022 2946     		mov	r1, r5
 464 0024 F2E7     		b	.L32
 465              	.L31:
 247:uart2.c       ****     }
 248:uart2.c       **** 
 249:uart2.c       ****     *buf++ = uh->rxfifo[uh->rx_rd++];
 466              		.loc 1 249 0
 467 0026 691C     		adds	r1, r5, #1
 468              	.LVL33:
 469 0028 A389     		ldrh	r3, [r4, #12]
 470 002a 9BB2     		uxth	r3, r3
 471 002c 5A1C     		adds	r2, r3, #1
 472 002e 92B2     		uxth	r2, r2
 473 0030 A281     		strh	r2, [r4, #12]	@ movhi
 474 0032 2344     		add	r3, r3, r4
 475 0034 1B7C     		ldrb	r3, [r3, #16]	@ zero_extendqisi2
 476 0036 2B70     		strb	r3, [r5]
 250:uart2.c       ****     if( uh->rx_rd >= sizeof(uh->rxfifo)) uh->rx_rd = 0;
 477              		.loc 1 250 0
 478 0038 A389     		ldrh	r3, [r4, #12]
 479 003a 9BB2     		uxth	r3, r3
 480 003c 7F2B     		cmp	r3, #127
 481 003e 01D9     		bls	.L33
 482              		.loc 1 250 0 is_stmt 0 discriminator 1
 483 0040 0023     		movs	r3, #0
ARM GAS  C:\Users\164\AppData\Local\Temp\ccgtpLsh.s 			page 14


 484 0042 A381     		strh	r3, [r4, #12]	@ movhi
 485              	.L33:
 486              	.LVL34:
 251:uart2.c       **** 
 252:uart2.c       ****     if( --cnt == 0 ) break;
 487              		.loc 1 252 0 is_stmt 1
 488 0044 013E     		subs	r6, r6, #1
 489              	.LVL35:
 490 0046 E1D1     		bne	.L32
 253:uart2.c       ****   }
 254:uart2.c       **** 
 255:uart2.c       **** #ifdef UART_CHECK_TIMEOUT
 256:uart2.c       ****   uart_stop_timeout();
 257:uart2.c       **** #endif
 258:uart2.c       ****   return size - cnt;
 259:uart2.c       **** }
 491              		.loc 1 259 0
 492 0048 B81B     		subs	r0, r7, r6
 493 004a F8BD     		pop	{r3, r4, r5, r6, r7, pc}
 494              		.cfi_endproc
 495              	.LFE70:
 496              		.size	uart_read, .-uart_read
 497              		.section	.text.uart_puts,"ax",%progbits
 498              		.align	2
 499              		.global	uart_puts
 500              		.thumb
 501              		.thumb_func
 502              		.type	uart_puts, %function
 503              	uart_puts:
 504              	.LFB71:
 260:uart2.c       **** 
 261:uart2.c       **** 
 262:uart2.c       **** //================================================================
 263:uart2.c       **** /*! Transmit string.
 264:uart2.c       **** 
 265:uart2.c       ****   @memberof UART_HANDLE
 266:uart2.c       ****   @param  uh            Pointer of UART_HANDLE.
 267:uart2.c       ****   @param  buf           Pointer of buffer.
 268:uart2.c       ****   @return               Size of transmitted.
 269:uart2.c       **** */
 270:uart2.c       **** int uart_puts(UART_HANDLE *uh, const char *buf)
 271:uart2.c       **** {
 505              		.loc 1 271 0
 506              		.cfi_startproc
 507              		@ args = 0, pretend = 0, frame = 0
 508              		@ frame_needed = 0, uses_anonymous_args = 0
 509              	.LVL36:
 510 0000 38B5     		push	{r3, r4, r5, lr}
 511              		.cfi_def_cfa_offset 16
 512              		.cfi_offset 3, -16
 513              		.cfi_offset 4, -12
 514              		.cfi_offset 5, -8
 515              		.cfi_offset 14, -4
 516 0002 0546     		mov	r5, r0
 517 0004 0C46     		mov	r4, r1
 272:uart2.c       ****   return uart_write(uh, buf, strlen(buf));
 518              		.loc 1 272 0
ARM GAS  C:\Users\164\AppData\Local\Temp\ccgtpLsh.s 			page 15


 519 0006 0846     		mov	r0, r1
 520              	.LVL37:
 521 0008 FFF7FEFF 		bl	strlen
 522              	.LVL38:
 523 000c 0246     		mov	r2, r0
 524 000e 2146     		mov	r1, r4
 525 0010 2846     		mov	r0, r5
 526 0012 FFF7FEFF 		bl	uart_write
 527              	.LVL39:
 273:uart2.c       **** }
 528              		.loc 1 273 0
 529 0016 38BD     		pop	{r3, r4, r5, pc}
 530              		.cfi_endproc
 531              	.LFE71:
 532              		.size	uart_puts, .-uart_puts
 533              		.section	.text.uart_gets,"ax",%progbits
 534              		.align	2
 535              		.global	uart_gets
 536              		.thumb
 537              		.thumb_func
 538              		.type	uart_gets, %function
 539              	uart_gets:
 540              	.LFB72:
 274:uart2.c       **** 
 275:uart2.c       **** 
 276:uart2.c       **** //================================================================
 277:uart2.c       **** /*! Receive string.
 278:uart2.c       **** 
 279:uart2.c       ****   @memberof UART_HANDLE
 280:uart2.c       ****   @param  uh            Pointer of UART_HANDLE.
 281:uart2.c       ****   @param  buf           Pointer of buffer.
 282:uart2.c       ****   @param  size          Size of buffer.
 283:uart2.c       ****   @return int           Num of received bytes.
 284:uart2.c       **** */
 285:uart2.c       **** int uart_gets(UART_HANDLE *uh, char *buf, size_t size)
 286:uart2.c       **** {
 541              		.loc 1 286 0
 542              		.cfi_startproc
 543              		@ args = 0, pretend = 0, frame = 0
 544              		@ frame_needed = 0, uses_anonymous_args = 0
 545              	.LVL40:
 546 0000 F8B5     		push	{r3, r4, r5, r6, r7, lr}
 547              		.cfi_def_cfa_offset 24
 548              		.cfi_offset 3, -24
 549              		.cfi_offset 4, -20
 550              		.cfi_offset 5, -16
 551              		.cfi_offset 6, -12
 552              		.cfi_offset 7, -8
 553              		.cfi_offset 14, -4
 554 0002 0446     		mov	r4, r0
 555 0004 0D46     		mov	r5, r1
 556 0006 1746     		mov	r7, r2
 287:uart2.c       ****   size_t cnt = size - 1;
 557              		.loc 1 287 0
 558 0008 561E     		subs	r6, r2, #1
 559              	.LVL41:
 560 000a 00E0     		b	.L38
ARM GAS  C:\Users\164\AppData\Local\Temp\ccgtpLsh.s 			page 16


 561              	.LVL42:
 562              	.L40:
 563              	.LBB2:
 288:uart2.c       **** 
 289:uart2.c       ****   while( 1 ) {
 290:uart2.c       ****     // buffer is empty?
 291:uart2.c       ****     if( uh->rx_rd == uh->rx_wr ) {
 292:uart2.c       ****       CyPmAltAct(PM_ALT_ACT_TIME_NONE, PM_ALT_ACT_SRC_PICU);
 293:uart2.c       **** #ifdef UART_CHECK_TIMEOUT
 294:uart2.c       ****       if( uart_check_timeout()) {
 295:uart2.c       ****         uart_stop_timeout();
 296:uart2.c       ****         *buf = '\0';
 297:uart2.c       ****         return -1;
 298:uart2.c       ****       }
 299:uart2.c       **** #endif
 300:uart2.c       ****       continue;
 564              		.loc 1 300 0
 565 000c 0D46     		mov	r5, r1
 566              	.L38:
 291:uart2.c       ****       CyPmAltAct(PM_ALT_ACT_TIME_NONE, PM_ALT_ACT_SRC_PICU);
 567              		.loc 1 291 0
 568 000e A289     		ldrh	r2, [r4, #12]
 569 0010 92B2     		uxth	r2, r2
 570 0012 E389     		ldrh	r3, [r4, #14]
 571 0014 9BB2     		uxth	r3, r3
 572 0016 9A42     		cmp	r2, r3
 573 0018 05D1     		bne	.L39
 292:uart2.c       **** #ifdef UART_CHECK_TIMEOUT
 574              		.loc 1 292 0
 575 001a 4021     		movs	r1, #64
 576              	.LVL43:
 577 001c 0020     		movs	r0, #0
 578 001e FFF7FEFF 		bl	CyPmAltAct
 579              	.LVL44:
 580              		.loc 1 300 0
 581 0022 2946     		mov	r1, r5
 582 0024 F2E7     		b	.L40
 583              	.L39:
 301:uart2.c       ****     }
 302:uart2.c       **** 
 303:uart2.c       ****     int ch = (*buf++ = uh->rxfifo[uh->rx_rd++]);
 584              		.loc 1 303 0
 585 0026 691C     		adds	r1, r5, #1
 586              	.LVL45:
 587 0028 A389     		ldrh	r3, [r4, #12]
 588 002a 9BB2     		uxth	r3, r3
 589 002c 5A1C     		adds	r2, r3, #1
 590 002e 92B2     		uxth	r2, r2
 591 0030 A281     		strh	r2, [r4, #12]	@ movhi
 592 0032 2344     		add	r3, r3, r4
 593 0034 1B7C     		ldrb	r3, [r3, #16]	@ zero_extendqisi2
 594 0036 DBB2     		uxtb	r3, r3
 595 0038 2B70     		strb	r3, [r5]
 596              	.LVL46:
 304:uart2.c       ****     if( uh->rx_rd >= sizeof(uh->rxfifo)) uh->rx_rd = 0;
 597              		.loc 1 304 0
 598 003a A289     		ldrh	r2, [r4, #12]
ARM GAS  C:\Users\164\AppData\Local\Temp\ccgtpLsh.s 			page 17


 599 003c 92B2     		uxth	r2, r2
 600 003e 7F2A     		cmp	r2, #127
 601 0040 01D9     		bls	.L41
 602              		.loc 1 304 0 is_stmt 0 discriminator 1
 603 0042 0022     		movs	r2, #0
 604 0044 A281     		strh	r2, [r4, #12]	@ movhi
 605              	.L41:
 606              	.LVL47:
 305:uart2.c       **** 
 306:uart2.c       ****     if( --cnt == 0 ) break;
 607              		.loc 1 306 0 is_stmt 1
 608 0046 013E     		subs	r6, r6, #1
 609              	.LVL48:
 610 0048 03D0     		beq	.L42
 307:uart2.c       ****     if( ch == uh->delimiter ) break;
 611              		.loc 1 307 0
 612 004a B4F90A20 		ldrsh	r2, [r4, #10]
 613 004e 9342     		cmp	r3, r2
 614 0050 DCD1     		bne	.L40
 615              	.L42:
 616              	.LBE2:
 308:uart2.c       ****   }
 309:uart2.c       ****   *buf = '\0';
 617              		.loc 1 309 0
 618 0052 0023     		movs	r3, #0
 619              	.LVL49:
 620 0054 6B70     		strb	r3, [r5, #1]
 310:uart2.c       **** 
 311:uart2.c       **** #ifdef UART_CHECK_TIMEOUT
 312:uart2.c       ****   uart_stop_timeout();
 313:uart2.c       **** #endif
 314:uart2.c       ****   return size - cnt - 1;
 621              		.loc 1 314 0
 622 0056 B81B     		subs	r0, r7, r6
 315:uart2.c       **** }
 623              		.loc 1 315 0
 624 0058 0138     		subs	r0, r0, #1
 625 005a F8BD     		pop	{r3, r4, r5, r6, r7, pc}
 626              		.cfi_endproc
 627              	.LFE72:
 628              		.size	uart_gets, .-uart_gets
 629              		.section	.text.uart_putc,"ax",%progbits
 630              		.align	2
 631              		.global	uart_putc
 632              		.thumb
 633              		.thumb_func
 634              		.type	uart_putc, %function
 635              	uart_putc:
 636              	.LFB73:
 316:uart2.c       **** 
 317:uart2.c       **** 
 318:uart2.c       **** //================================================================
 319:uart2.c       **** /*! Transmit a character. (1 byte)
 320:uart2.c       **** 
 321:uart2.c       ****   @memberof UART_HANDLE
 322:uart2.c       ****   @param  uh            Pointer of UART_HANDLE.
 323:uart2.c       ****   @param  ch            character
ARM GAS  C:\Users\164\AppData\Local\Temp\ccgtpLsh.s 			page 18


 324:uart2.c       ****   @return               Size of transmitted.
 325:uart2.c       **** */
 326:uart2.c       **** int uart_putc(UART_HANDLE *uh, int ch)
 327:uart2.c       **** {
 637              		.loc 1 327 0
 638              		.cfi_startproc
 639              		@ args = 0, pretend = 0, frame = 8
 640              		@ frame_needed = 0, uses_anonymous_args = 0
 641              	.LVL50:
 642 0000 00B5     		push	{lr}
 643              		.cfi_def_cfa_offset 4
 644              		.cfi_offset 14, -4
 645 0002 83B0     		sub	sp, sp, #12
 646              		.cfi_def_cfa_offset 16
 328:uart2.c       ****   char buf[1];
 329:uart2.c       **** 
 330:uart2.c       ****   buf[0] = ch;
 647              		.loc 1 330 0
 648 0004 02AB     		add	r3, sp, #8
 649 0006 03F8041D 		strb	r1, [r3, #-4]!
 331:uart2.c       ****   return uart_write(uh, buf, 1);
 650              		.loc 1 331 0
 651 000a 0122     		movs	r2, #1
 652 000c 1946     		mov	r1, r3
 653              	.LVL51:
 654 000e FFF7FEFF 		bl	uart_write
 655              	.LVL52:
 332:uart2.c       **** }
 656              		.loc 1 332 0
 657 0012 03B0     		add	sp, sp, #12
 658              		.cfi_def_cfa_offset 4
 659              		@ sp needed
 660 0014 5DF804FB 		ldr	pc, [sp], #4
 661              		.cfi_endproc
 662              	.LFE73:
 663              		.size	uart_putc, .-uart_putc
 664              		.section	.text.uart_getc,"ax",%progbits
 665              		.align	2
 666              		.global	uart_getc
 667              		.thumb
 668              		.thumb_func
 669              		.type	uart_getc, %function
 670              	uart_getc:
 671              	.LFB74:
 333:uart2.c       **** 
 334:uart2.c       **** 
 335:uart2.c       **** //================================================================
 336:uart2.c       **** /*! Receive a character. (1 byte)
 337:uart2.c       **** 
 338:uart2.c       ****   @memberof UART_HANDLE
 339:uart2.c       ****   @param  uh            Pointer of UART_HANDLE.
 340:uart2.c       ****   @return int           Received character.
 341:uart2.c       **** */
 342:uart2.c       **** int uart_getc(UART_HANDLE *uh)
 343:uart2.c       **** {
 672              		.loc 1 343 0
 673              		.cfi_startproc
ARM GAS  C:\Users\164\AppData\Local\Temp\ccgtpLsh.s 			page 19


 674              		@ args = 0, pretend = 0, frame = 8
 675              		@ frame_needed = 0, uses_anonymous_args = 0
 676              	.LVL53:
 677 0000 00B5     		push	{lr}
 678              		.cfi_def_cfa_offset 4
 679              		.cfi_offset 14, -4
 680 0002 83B0     		sub	sp, sp, #12
 681              		.cfi_def_cfa_offset 16
 344:uart2.c       ****   char buf[1];
 345:uart2.c       **** 
 346:uart2.c       ****   uart_read(uh, buf, 1);
 682              		.loc 1 346 0
 683 0004 0122     		movs	r2, #1
 684 0006 01A9     		add	r1, sp, #4
 685 0008 FFF7FEFF 		bl	uart_read
 686              	.LVL54:
 347:uart2.c       ****   return buf[0];
 348:uart2.c       **** }
 687              		.loc 1 348 0
 688 000c 9DF80400 		ldrb	r0, [sp, #4]	@ zero_extendqisi2
 689 0010 03B0     		add	sp, sp, #12
 690              		.cfi_def_cfa_offset 4
 691              		@ sp needed
 692 0012 5DF804FB 		ldr	pc, [sp], #4
 693              		.cfi_endproc
 694              	.LFE74:
 695              		.size	uart_getc, .-uart_getc
 696 0016 00BF     		.section	.text.uart_is_write_finished,"ax",%progbits
 697              		.align	2
 698              		.global	uart_is_write_finished
 699              		.thumb
 700              		.thumb_func
 701              		.type	uart_is_write_finished, %function
 702              	uart_is_write_finished:
 703              	.LFB75:
 349:uart2.c       **** 
 350:uart2.c       **** 
 351:uart2.c       **** //================================================================
 352:uart2.c       **** /*! check write finished?
 353:uart2.c       **** 
 354:uart2.c       ****   @memberof UART_HANDLE
 355:uart2.c       ****   @param  uh            Pointer of UART_HANDLE.
 356:uart2.c       ****   @return int           result (bool)
 357:uart2.c       **** */
 358:uart2.c       **** int uart_is_write_finished(UART_HANDLE *uh)
 359:uart2.c       **** {
 704              		.loc 1 359 0
 705              		.cfi_startproc
 706              		@ args = 0, pretend = 0, frame = 0
 707              		@ frame_needed = 0, uses_anonymous_args = 0
 708              		@ link register save eliminated.
 709              	.LVL55:
 360:uart2.c       ****   return uh->flag_tx_finished;
 710              		.loc 1 360 0
 711 0000 007A     		ldrb	r0, [r0, #8]	@ zero_extendqisi2
 712              	.LVL56:
 361:uart2.c       **** }
ARM GAS  C:\Users\164\AppData\Local\Temp\ccgtpLsh.s 			page 20


 713              		.loc 1 361 0
 714 0002 7047     		bx	lr
 715              		.cfi_endproc
 716              	.LFE75:
 717              		.size	uart_is_write_finished, .-uart_is_write_finished
 718              		.section	.text.uart_is_readable,"ax",%progbits
 719              		.align	2
 720              		.global	uart_is_readable
 721              		.thumb
 722              		.thumb_func
 723              		.type	uart_is_readable, %function
 724              	uart_is_readable:
 725              	.LFB76:
 362:uart2.c       **** 
 363:uart2.c       **** 
 364:uart2.c       **** //================================================================
 365:uart2.c       **** /*! check data can be read.
 366:uart2.c       **** 
 367:uart2.c       ****   @memberof UART_HANDLE
 368:uart2.c       ****   @param  uh            Pointer of UART_HANDLE.
 369:uart2.c       ****   @return int           result (bool)
 370:uart2.c       **** */
 371:uart2.c       **** int uart_is_readable(UART_HANDLE *uh)
 372:uart2.c       **** {
 726              		.loc 1 372 0
 727              		.cfi_startproc
 728              		@ args = 0, pretend = 0, frame = 0
 729              		@ frame_needed = 0, uses_anonymous_args = 0
 730              		@ link register save eliminated.
 731              	.LVL57:
 373:uart2.c       ****   return uh->rx_rd != uh->rx_wr;
 732              		.loc 1 373 0
 733 0000 8289     		ldrh	r2, [r0, #12]
 734 0002 92B2     		uxth	r2, r2
 735 0004 C389     		ldrh	r3, [r0, #14]
 736 0006 98B2     		uxth	r0, r3
 737              	.LVL58:
 374:uart2.c       **** }
 738              		.loc 1 374 0
 739 0008 101A     		subs	r0, r2, r0
 740 000a 18BF     		it	ne
 741 000c 0120     		movne	r0, #1
 742 000e 7047     		bx	lr
 743              		.cfi_endproc
 744              	.LFE76:
 745              		.size	uart_is_readable, .-uart_is_readable
 746              		.section	.text.uart_bytes_available,"ax",%progbits
 747              		.align	2
 748              		.global	uart_bytes_available
 749              		.thumb
 750              		.thumb_func
 751              		.type	uart_bytes_available, %function
 752              	uart_bytes_available:
 753              	.LFB77:
 375:uart2.c       **** 
 376:uart2.c       **** 
 377:uart2.c       **** //================================================================
ARM GAS  C:\Users\164\AppData\Local\Temp\ccgtpLsh.s 			page 21


 378:uart2.c       **** /*! check data length can be read.
 379:uart2.c       **** 
 380:uart2.c       ****   @memberof UART_HANDLE
 381:uart2.c       ****   @param  uh            Pointer of UART_HANDLE.
 382:uart2.c       ****   @return int           result (bytes)
 383:uart2.c       **** */
 384:uart2.c       **** int uart_bytes_available(UART_HANDLE *uh)
 385:uart2.c       **** {
 754              		.loc 1 385 0
 755              		.cfi_startproc
 756              		@ args = 0, pretend = 0, frame = 0
 757              		@ frame_needed = 0, uses_anonymous_args = 0
 758              		@ link register save eliminated.
 759              	.LVL59:
 386:uart2.c       ****   if( uh->rx_rd <= uh->rx_wr ) {
 760              		.loc 1 386 0
 761 0000 8289     		ldrh	r2, [r0, #12]
 762 0002 92B2     		uxth	r2, r2
 763 0004 C389     		ldrh	r3, [r0, #14]
 764 0006 9BB2     		uxth	r3, r3
 765 0008 9A42     		cmp	r2, r3
 766 000a 05D8     		bhi	.L51
 387:uart2.c       ****     return uh->rx_wr - uh->rx_rd;
 767              		.loc 1 387 0
 768 000c C389     		ldrh	r3, [r0, #14]
 769 000e 9BB2     		uxth	r3, r3
 770 0010 8089     		ldrh	r0, [r0, #12]
 771              	.LVL60:
 772 0012 80B2     		uxth	r0, r0
 773 0014 181A     		subs	r0, r3, r0
 774 0016 7047     		bx	lr
 775              	.LVL61:
 776              	.L51:
 388:uart2.c       ****   }
 389:uart2.c       ****   else {
 390:uart2.c       ****     return sizeof(uh->rxfifo) - uh->rx_rd + uh->rx_wr;
 777              		.loc 1 390 0
 778 0018 C389     		ldrh	r3, [r0, #14]
 779 001a 9BB2     		uxth	r3, r3
 780 001c 8089     		ldrh	r0, [r0, #12]
 781              	.LVL62:
 782 001e 80B2     		uxth	r0, r0
 783 0020 181A     		subs	r0, r3, r0
 784 0022 8030     		adds	r0, r0, #128
 391:uart2.c       ****   }
 392:uart2.c       **** }
 785              		.loc 1 392 0
 786 0024 7047     		bx	lr
 787              		.cfi_endproc
 788              	.LFE77:
 789              		.size	uart_bytes_available, .-uart_bytes_available
 790 0026 00BF     		.section	.text.uart_can_read_line,"ax",%progbits
 791              		.align	2
 792              		.global	uart_can_read_line
 793              		.thumb
 794              		.thumb_func
 795              		.type	uart_can_read_line, %function
ARM GAS  C:\Users\164\AppData\Local\Temp\ccgtpLsh.s 			page 22


 796              	uart_can_read_line:
 797              	.LFB78:
 393:uart2.c       **** 
 394:uart2.c       **** 
 395:uart2.c       **** //================================================================
 396:uart2.c       **** /*! check data can be read a line.
 397:uart2.c       **** 
 398:uart2.c       ****   @memberof UART_HANDLE
 399:uart2.c       ****   @param  uh            Pointer of UART_HANDLE.
 400:uart2.c       ****   @return int           result (bool)
 401:uart2.c       ****   @note
 402:uart2.c       ****    If RX-FIFO buffer is full, return false(0).
 403:uart2.c       **** */
 404:uart2.c       **** int uart_can_read_line(UART_HANDLE *uh)
 405:uart2.c       **** {
 798              		.loc 1 405 0
 799              		.cfi_startproc
 800              		@ args = 0, pretend = 0, frame = 0
 801              		@ frame_needed = 0, uses_anonymous_args = 0
 802              		@ link register save eliminated.
 803              	.LVL63:
 406:uart2.c       ****   uint16_t idx = uh->rx_rd;
 804              		.loc 1 406 0
 805 0000 8389     		ldrh	r3, [r0, #12]
 806 0002 9BB2     		uxth	r3, r3
 807              	.LVL64:
 407:uart2.c       **** 
 408:uart2.c       ****   while( idx != uh->rx_wr ) {
 808              		.loc 1 408 0
 809 0004 0CE0     		b	.L56
 810              	.L57:
 409:uart2.c       ****     if( uh->rxfifo[idx++] == uh->delimiter ) return 1;
 811              		.loc 1 409 0
 812 0006 5A1C     		adds	r2, r3, #1
 813 0008 92B2     		uxth	r2, r2
 814              	.LVL65:
 815 000a 0344     		add	r3, r3, r0
 816 000c 1B7C     		ldrb	r3, [r3, #16]	@ zero_extendqisi2
 817 000e DBB2     		uxtb	r3, r3
 818 0010 B0F90A10 		ldrsh	r1, [r0, #10]
 819 0014 8B42     		cmp	r3, r1
 820 0016 09D0     		beq	.L58
 410:uart2.c       ****     if( idx >= sizeof(uh->rxfifo)) idx = 0;
 821              		.loc 1 410 0
 822 0018 0023     		movs	r3, #0
 823 001a 7F2A     		cmp	r2, #127
 824 001c 00D8     		bhi	.L56
 409:uart2.c       ****     if( uh->rxfifo[idx++] == uh->delimiter ) return 1;
 825              		.loc 1 409 0
 826 001e 1346     		mov	r3, r2
 827              	.LVL66:
 828              	.L56:
 408:uart2.c       ****     if( uh->rxfifo[idx++] == uh->delimiter ) return 1;
 829              		.loc 1 408 0
 830 0020 C289     		ldrh	r2, [r0, #14]
 831 0022 92B2     		uxth	r2, r2
 832 0024 9342     		cmp	r3, r2
ARM GAS  C:\Users\164\AppData\Local\Temp\ccgtpLsh.s 			page 23


 833 0026 EED1     		bne	.L57
 411:uart2.c       ****   }
 412:uart2.c       **** 
 413:uart2.c       ****   return 0;
 834              		.loc 1 413 0
 835 0028 0020     		movs	r0, #0
 836              	.LVL67:
 837 002a 7047     		bx	lr
 838              	.LVL68:
 839              	.L58:
 409:uart2.c       ****     if( idx >= sizeof(uh->rxfifo)) idx = 0;
 840              		.loc 1 409 0
 841 002c 0120     		movs	r0, #1
 842              	.LVL69:
 414:uart2.c       **** }
 843              		.loc 1 414 0
 844 002e 7047     		bx	lr
 845              		.cfi_endproc
 846              	.LFE78:
 847              		.size	uart_can_read_line, .-uart_can_read_line
 848              		.text
 849              	.Letext0:
 850              		.file 2 "c:\\program files (x86)\\cypress\\psoc creator\\4.2\\psoc creator\\import\\gnu\\arm\\5.4.
 851              		.file 3 "c:\\program files (x86)\\cypress\\psoc creator\\4.2\\psoc creator\\import\\gnu\\arm\\5.4.
 852              		.file 4 "c:\\program files (x86)\\cypress\\psoc creator\\4.2\\psoc creator\\import\\gnu\\arm\\5.4.
 853              		.file 5 "uart2.h"
 854              		.file 6 "Generated_Source\\PSoC5/cyPm.h"
 855              		.file 7 "c:\\program files (x86)\\cypress\\psoc creator\\4.2\\psoc creator\\import\\gnu\\arm\\5.4.
 856              		.file 8 "Generated_Source\\PSoC5/core_cm3.h"