ARM GAS  C:\Users\164\AppData\Local\Temp\cctl9rYr.s 			page 1


   1              		.syntax unified
   2              		.cpu cortex-m3
   3              		.fpu softvfp
   4              		.eabi_attribute 20, 1
   5              		.eabi_attribute 21, 1
   6              		.eabi_attribute 23, 3
   7              		.eabi_attribute 24, 1
   8              		.eabi_attribute 25, 1
   9              		.eabi_attribute 26, 1
  10              		.eabi_attribute 30, 1
  11              		.eabi_attribute 34, 1
  12              		.eabi_attribute 18, 4
  13              		.thumb
  14              		.syntax unified
  15              		.file	"value.c"
  16              		.text
  17              	.Ltext0:
  18              		.cfi_sections	.debug_frame
  19              		.section	.text.mrbc_obj_alloc,"ax",%progbits
  20              		.align	2
  21              		.global	mrbc_obj_alloc
  22              		.thumb
  23              		.thumb_func
  24              		.type	mrbc_obj_alloc, %function
  25              	mrbc_obj_alloc:
  26              	.LFB25:
  27              		.file 1 "value.c"
   1:value.c       **** /*! @file
   2:value.c       ****   @brief
   3:value.c       ****   mruby/c value definitions
   4:value.c       **** 
   5:value.c       ****   <pre>
   6:value.c       ****   Copyright (C) 2015-2018 Kyushu Institute of Technology.
   7:value.c       ****   Copyright (C) 2015-2018 Shimane IT Open-Innovation Center.
   8:value.c       **** 
   9:value.c       ****   This file is distributed under BSD 3-Clause License.
  10:value.c       **** 
  11:value.c       **** 
  12:value.c       ****   </pre>
  13:value.c       **** */
  14:value.c       **** 
  15:value.c       **** #include "vm_config.h"
  16:value.c       **** #include <stdint.h>
  17:value.c       **** #include <string.h>
  18:value.c       **** #include <assert.h>
  19:value.c       **** 
  20:value.c       **** #include "value.h"
  21:value.c       **** #include "alloc.h"
  22:value.c       **** #include "keyvalue.h"
  23:value.c       **** #include "class.h"
  24:value.c       **** #include "static.h"
  25:value.c       **** #include "symbol.h"
  26:value.c       **** #include "c_string.h"
  27:value.c       **** #include "c_range.h"
  28:value.c       **** #include "c_array.h"
  29:value.c       **** #include "c_hash.h"
  30:value.c       **** 
ARM GAS  C:\Users\164\AppData\Local\Temp\cctl9rYr.s 			page 2


  31:value.c       **** 
  32:value.c       **** 
  33:value.c       **** mrbc_object *mrbc_obj_alloc(struct VM *vm, mrbc_vtype tt)
  34:value.c       **** {
  28              		.loc 1 34 0
  29              		.cfi_startproc
  30              		@ args = 0, pretend = 0, frame = 0
  31              		@ frame_needed = 0, uses_anonymous_args = 0
  32              	.LVL0:
  33 0000 10B5     		push	{r4, lr}
  34              		.cfi_def_cfa_offset 8
  35              		.cfi_offset 4, -8
  36              		.cfi_offset 14, -4
  37 0002 0C46     		mov	r4, r1
  35:value.c       ****   mrbc_object *ptr = (mrbc_object *)mrbc_alloc(vm, sizeof(mrbc_object));
  38              		.loc 1 35 0
  39 0004 1021     		movs	r1, #16
  40              	.LVL1:
  41 0006 FFF7FEFF 		bl	mrbc_alloc
  42              	.LVL2:
  36:value.c       ****   if( ptr ){
  43              		.loc 1 36 0
  44 000a 0346     		mov	r3, r0
  45 000c 00B1     		cbz	r0, .L2
  37:value.c       ****     ptr->tt = tt;
  46              		.loc 1 37 0
  47 000e 0470     		strb	r4, [r0]
  48              	.L2:
  38:value.c       ****   }
  39:value.c       ****   return ptr;
  40:value.c       **** }
  49              		.loc 1 40 0
  50 0010 1846     		mov	r0, r3
  51              	.LVL3:
  52 0012 10BD     		pop	{r4, pc}
  53              		.cfi_endproc
  54              	.LFE25:
  55              		.size	mrbc_obj_alloc, .-mrbc_obj_alloc
  56              		.section	.text.mrbc_rproc_alloc,"ax",%progbits
  57              		.align	2
  58              		.global	mrbc_rproc_alloc
  59              		.thumb
  60              		.thumb_func
  61              		.type	mrbc_rproc_alloc, %function
  62              	mrbc_rproc_alloc:
  63              	.LFB26:
  41:value.c       **** 
  42:value.c       **** 
  43:value.c       **** mrbc_proc *mrbc_rproc_alloc(struct VM *vm, const char *name)
  44:value.c       **** {
  64              		.loc 1 44 0
  65              		.cfi_startproc
  66              		@ args = 0, pretend = 0, frame = 0
  67              		@ frame_needed = 0, uses_anonymous_args = 0
  68              	.LVL4:
  69 0000 38B5     		push	{r3, r4, r5, lr}
  70              		.cfi_def_cfa_offset 16
ARM GAS  C:\Users\164\AppData\Local\Temp\cctl9rYr.s 			page 3


  71              		.cfi_offset 3, -16
  72              		.cfi_offset 4, -12
  73              		.cfi_offset 5, -8
  74              		.cfi_offset 14, -4
  75 0002 0D46     		mov	r5, r1
  45:value.c       ****   mrbc_proc *ptr = (mrbc_proc *)mrbc_alloc(vm, sizeof(mrbc_proc));
  76              		.loc 1 45 0
  77 0004 1021     		movs	r1, #16
  78              	.LVL5:
  79 0006 FFF7FEFF 		bl	mrbc_alloc
  80              	.LVL6:
  46:value.c       ****   if( ptr ) {
  81              		.loc 1 46 0
  82 000a 0446     		mov	r4, r0
  83 000c 38B1     		cbz	r0, .L5
  47:value.c       ****     ptr->ref_count = 1;
  84              		.loc 1 47 0
  85 000e 0123     		movs	r3, #1
  86 0010 0380     		strh	r3, [r0]	@ movhi
  48:value.c       ****     ptr->sym_id = str_to_symid(name);
  87              		.loc 1 48 0
  88 0012 2846     		mov	r0, r5
  89              	.LVL7:
  90 0014 FFF7FEFF 		bl	str_to_symid
  91              	.LVL8:
  92 0018 A080     		strh	r0, [r4, #4]	@ movhi
  49:value.c       **** #ifdef MRBC_DEBUG
  50:value.c       ****     ptr->names = name;	// for debug; delete soon.
  51:value.c       **** #endif
  52:value.c       ****     ptr->next = 0;
  93              		.loc 1 52 0
  94 001a 0023     		movs	r3, #0
  95 001c A360     		str	r3, [r4, #8]
  96              	.L5:
  53:value.c       ****   }
  54:value.c       ****   return ptr;
  55:value.c       **** }
  97              		.loc 1 55 0
  98 001e 2046     		mov	r0, r4
  99 0020 38BD     		pop	{r3, r4, r5, pc}
 100              		.cfi_endproc
 101              	.LFE26:
 102              		.size	mrbc_rproc_alloc, .-mrbc_rproc_alloc
 103              		.global	__aeabi_i2d
 104              		.global	__aeabi_dcmpeq
 105              		.global	__aeabi_dcmpgt
 106 0022 00BF     		.section	.text.mrbc_compare,"ax",%progbits
 107              		.align	2
 108              		.global	mrbc_compare
 109              		.thumb
 110              		.thumb_func
 111              		.type	mrbc_compare, %function
 112              	mrbc_compare:
 113              	.LFB27:
  56:value.c       **** 
  57:value.c       **** 
  58:value.c       **** 
ARM GAS  C:\Users\164\AppData\Local\Temp\cctl9rYr.s 			page 4


  59:value.c       **** //================================================================
  60:value.c       **** /*! compare two mrbc_values
  61:value.c       **** 
  62:value.c       ****   @param  v1	Pointer to mrbc_value
  63:value.c       ****   @param  v2	Pointer to another mrbc_value
  64:value.c       ****   @retval 0	v1 == v2
  65:value.c       ****   @retval plus	v1 >  v2
  66:value.c       ****   @retval minus	v1 <  v2
  67:value.c       **** */
  68:value.c       **** int mrbc_compare(const mrbc_value *v1, const mrbc_value *v2)
  69:value.c       **** {
 114              		.loc 1 69 0
 115              		.cfi_startproc
 116              		@ args = 0, pretend = 0, frame = 0
 117              		@ frame_needed = 0, uses_anonymous_args = 0
 118              	.LVL9:
 119 0000 2DE9F041 		push	{r4, r5, r6, r7, r8, lr}
 120              		.cfi_def_cfa_offset 24
 121              		.cfi_offset 4, -24
 122              		.cfi_offset 5, -20
 123              		.cfi_offset 6, -16
 124              		.cfi_offset 7, -12
 125              		.cfi_offset 8, -8
 126              		.cfi_offset 14, -4
 127 0004 0C46     		mov	r4, r1
  70:value.c       ****   mrbc_float d1, d2;
  71:value.c       **** 
  72:value.c       ****   // if TT_XXX is different
  73:value.c       ****   if( v1->tt != v2->tt ) {
 128              		.loc 1 73 0
 129 0006 90F90030 		ldrsb	r3, [r0]
 130 000a 91F90020 		ldrsb	r2, [r1]
 131 000e 9342     		cmp	r3, r2
 132 0010 23D0     		beq	.L8
  74:value.c       **** #if MRBC_USE_FLOAT
  75:value.c       ****     // but Numeric?
  76:value.c       ****     if( v1->tt == MRBC_TT_FIXNUM && v2->tt == MRBC_TT_FLOAT ) {
 133              		.loc 1 76 0
 134 0012 042B     		cmp	r3, #4
 135 0014 0BD1     		bne	.L9
 136              		.loc 1 76 0 is_stmt 0 discriminator 1
 137 0016 052A     		cmp	r2, #5
 138 0018 09D1     		bne	.L9
  77:value.c       ****       d1 = v1->i;
 139              		.loc 1 77 0 is_stmt 1
 140 001a 8068     		ldr	r0, [r0, #8]
 141              	.LVL10:
 142 001c FFF7FEFF 		bl	__aeabi_i2d
 143              	.LVL11:
 144 0020 0646     		mov	r6, r0
 145 0022 0F46     		mov	r7, r1
 146              	.LVL12:
  78:value.c       ****       d2 = v2->d;
 147              		.loc 1 78 0
 148 0024 04F10805 		add	r5, r4, #8
 149 0028 D5E90045 		ldrd	r4, [r5]
 150              	.LVL13:
ARM GAS  C:\Users\164\AppData\Local\Temp\cctl9rYr.s 			page 5


  79:value.c       ****       goto CMP_FLOAT;
 151              		.loc 1 79 0
 152 002c 62E0     		b	.L10
 153              	.LVL14:
 154              	.L9:
  80:value.c       ****     }
  81:value.c       ****     if( v1->tt == MRBC_TT_FLOAT && v2->tt == MRBC_TT_FIXNUM ) {
 155              		.loc 1 81 0
 156 002e 052B     		cmp	r3, #5
 157 0030 09D1     		bne	.L11
 158              		.loc 1 81 0 is_stmt 0 discriminator 1
 159 0032 042A     		cmp	r2, #4
 160 0034 07D1     		bne	.L11
  82:value.c       ****       d1 = v1->d;
 161              		.loc 1 82 0 is_stmt 1
 162 0036 D0E90267 		ldrd	r6, [r0, #8]
 163              	.LVL15:
  83:value.c       ****       d2 = v2->i;
 164              		.loc 1 83 0
 165 003a A068     		ldr	r0, [r4, #8]
 166              	.LVL16:
 167 003c FFF7FEFF 		bl	__aeabi_i2d
 168              	.LVL17:
 169 0040 0446     		mov	r4, r0
 170              	.LVL18:
 171 0042 0D46     		mov	r5, r1
 172              	.LVL19:
  84:value.c       ****       goto CMP_FLOAT;
 173              		.loc 1 84 0
 174 0044 56E0     		b	.L10
 175              	.LVL20:
 176              	.L11:
  85:value.c       ****     }
  86:value.c       **** #endif
  87:value.c       **** 
  88:value.c       ****     // leak Empty?
  89:value.c       ****     if((v1->tt == MRBC_TT_EMPTY && v2->tt == MRBC_TT_NIL) ||
 177              		.loc 1 89 0
 178 0046 0BB9     		cbnz	r3, .L12
 179              		.loc 1 89 0 is_stmt 0 discriminator 1
 180 0048 012A     		cmp	r2, #1
 181 004a 6CD0     		beq	.L31
 182              	.L12:
 183              		.loc 1 89 0 discriminator 3
 184 004c 012B     		cmp	r3, #1
 185 004e 01D1     		bne	.L14
  90:value.c       ****        (v1->tt == MRBC_TT_NIL   && v2->tt == MRBC_TT_EMPTY)) return 0;
 186              		.loc 1 90 0 is_stmt 1
 187 0050 002A     		cmp	r2, #0
 188 0052 6BD0     		beq	.L32
 189              	.L14:
  91:value.c       **** 
  92:value.c       ****     // other case
  93:value.c       ****     return v1->tt - v2->tt;
 190              		.loc 1 93 0
 191 0054 981A     		subs	r0, r3, r2
 192              	.LVL21:
ARM GAS  C:\Users\164\AppData\Local\Temp\cctl9rYr.s 			page 6


 193 0056 BDE8F081 		pop	{r4, r5, r6, r7, r8, pc}
 194              	.LVL22:
 195              	.L8:
  94:value.c       ****   }
  95:value.c       **** 
  96:value.c       ****   // check value
  97:value.c       ****   switch( v1->tt ) {
 196              		.loc 1 97 0
 197 005a 013B     		subs	r3, r3, #1
 198 005c 182B     		cmp	r3, #24
 199 005e 68D8     		bhi	.L33
 200 0060 DFE803F0 		tbb	[pc, r3]
 201              	.L16:
 202 0064 0D       		.byte	(.L15-.L16)/2
 203 0065 0D       		.byte	(.L15-.L16)/2
 204 0066 0D       		.byte	(.L15-.L16)/2
 205 0067 10       		.byte	(.L17-.L16)/2
 206 0068 15       		.byte	(.L18-.L16)/2
 207 0069 10       		.byte	(.L17-.L16)/2
 208 006a 1A       		.byte	(.L19-.L16)/2
 209 006b 67       		.byte	(.L33-.L16)/2
 210 006c 67       		.byte	(.L33-.L16)/2
 211 006d 67       		.byte	(.L33-.L16)/2
 212 006e 67       		.byte	(.L33-.L16)/2
 213 006f 67       		.byte	(.L33-.L16)/2
 214 0070 67       		.byte	(.L33-.L16)/2
 215 0071 67       		.byte	(.L33-.L16)/2
 216 0072 67       		.byte	(.L33-.L16)/2
 217 0073 67       		.byte	(.L33-.L16)/2
 218 0074 67       		.byte	(.L33-.L16)/2
 219 0075 67       		.byte	(.L33-.L16)/2
 220 0076 67       		.byte	(.L33-.L16)/2
 221 0077 1A       		.byte	(.L19-.L16)/2
 222 0078 1A       		.byte	(.L19-.L16)/2
 223 0079 2A       		.byte	(.L20-.L16)/2
 224 007a 2E       		.byte	(.L21-.L16)/2
 225 007b 40       		.byte	(.L22-.L16)/2
 226 007c 44       		.byte	(.L23-.L16)/2
 227 007d 00       		.p2align 1
 228              	.L15:
  98:value.c       ****   case MRBC_TT_NIL:
  99:value.c       ****   case MRBC_TT_FALSE:
 100:value.c       ****   case MRBC_TT_TRUE:
 101:value.c       ****     return 0;
 229              		.loc 1 101 0
 230 007e 0020     		movs	r0, #0
 231              	.LVL23:
 232 0080 BDE8F081 		pop	{r4, r5, r6, r7, r8, pc}
 233              	.LVL24:
 234              	.L17:
 102:value.c       **** 
 103:value.c       ****   case MRBC_TT_FIXNUM:
 104:value.c       ****   case MRBC_TT_SYMBOL:
 105:value.c       ****     return v1->i - v2->i;
 235              		.loc 1 105 0
 236 0084 8368     		ldr	r3, [r0, #8]
 237 0086 8868     		ldr	r0, [r1, #8]
ARM GAS  C:\Users\164\AppData\Local\Temp\cctl9rYr.s 			page 7


 238              	.LVL25:
 239 0088 181A     		subs	r0, r3, r0
 240 008a BDE8F081 		pop	{r4, r5, r6, r7, r8, pc}
 241              	.LVL26:
 242              	.L18:
 106:value.c       **** 
 107:value.c       **** #if MRBC_USE_FLOAT
 108:value.c       ****   case MRBC_TT_FLOAT:
 109:value.c       ****     d1 = v1->d;
 243              		.loc 1 109 0
 244 008e D0E90267 		ldrd	r6, [r0, #8]
 245              	.LVL27:
 110:value.c       ****     d2 = v2->d;
 246              		.loc 1 110 0
 247 0092 D1E90245 		ldrd	r4, [r1, #8]
 248              	.LVL28:
 111:value.c       ****     goto CMP_FLOAT;
 249              		.loc 1 111 0
 250 0096 2DE0     		b	.L10
 251              	.LVL29:
 252              	.L19:
 112:value.c       **** #endif
 113:value.c       **** 
 114:value.c       ****   case MRBC_TT_CLASS:
 115:value.c       ****   case MRBC_TT_OBJECT:
 116:value.c       ****   case MRBC_TT_PROC:
 117:value.c       ****     return -1 + (v1->handle == v2->handle) + (v1->handle > v2->handle)*2;
 253              		.loc 1 117 0
 254 0098 8168     		ldr	r1, [r0, #8]
 255              	.LVL30:
 256 009a A268     		ldr	r2, [r4, #8]
 257 009c 9142     		cmp	r1, r2
 258 009e 01D1     		bne	.L34
 259 00a0 0020     		movs	r0, #0
 260              	.LVL31:
 261 00a2 01E0     		b	.L24
 262              	.LVL32:
 263              	.L34:
 264 00a4 4FF0FF30 		mov	r0, #-1
 265              	.LVL33:
 266              	.L24:
 267              		.loc 1 117 0 is_stmt 0 discriminator 4
 268 00a8 9142     		cmp	r1, r2
 269 00aa 01D9     		bls	.L35
 270              		.loc 1 117 0
 271 00ac 0223     		movs	r3, #2
 272 00ae 00E0     		b	.L25
 273              	.L35:
 274 00b0 0023     		movs	r3, #0
 275              	.L25:
 276              		.loc 1 117 0 discriminator 8
 277 00b2 1844     		add	r0, r0, r3
 278 00b4 BDE8F081 		pop	{r4, r5, r6, r7, r8, pc}
 279              	.LVL34:
 280              	.L20:
 118:value.c       **** 
 119:value.c       ****   case MRBC_TT_ARRAY:
ARM GAS  C:\Users\164\AppData\Local\Temp\cctl9rYr.s 			page 8


 120:value.c       ****     return mrbc_array_compare( v1, v2 );
 281              		.loc 1 120 0 is_stmt 1
 282 00b8 FFF7FEFF 		bl	mrbc_array_compare
 283              	.LVL35:
 284 00bc BDE8F081 		pop	{r4, r5, r6, r7, r8, pc}
 285              	.LVL36:
 286              	.L21:
 287              	.LBB6:
 288              	.LBB7:
 289              		.file 2 "c_string.h"
   1:c_string.h    **** /*! @file
   2:c_string.h    ****   @brief
   3:c_string.h    ****   mruby/c String object
   4:c_string.h    **** 
   5:c_string.h    ****   <pre>
   6:c_string.h    ****   Copyright (C) 2015-2018 Kyushu Institute of Technology.
   7:c_string.h    ****   Copyright (C) 2015-2018 Shimane IT Open-Innovation Center.
   8:c_string.h    **** 
   9:c_string.h    ****   This file is distributed under BSD 3-Clause License.
  10:c_string.h    **** 
  11:c_string.h    ****   </pre>
  12:c_string.h    **** */
  13:c_string.h    **** 
  14:c_string.h    **** #ifndef MRBC_SRC_C_STRING_H_
  15:c_string.h    **** #define MRBC_SRC_C_STRING_H_
  16:c_string.h    **** 
  17:c_string.h    **** #include <stdint.h>
  18:c_string.h    **** #include <string.h>
  19:c_string.h    **** #include "value.h"
  20:c_string.h    **** 
  21:c_string.h    **** #ifdef __cplusplus
  22:c_string.h    **** extern "C" {
  23:c_string.h    **** #endif
  24:c_string.h    **** 
  25:c_string.h    **** //================================================================
  26:c_string.h    **** /*!@brief
  27:c_string.h    ****   Define String handle.
  28:c_string.h    **** */
  29:c_string.h    **** typedef struct RString {
  30:c_string.h    ****   MRBC_OBJECT_HEADER;
  31:c_string.h    **** 
  32:c_string.h    ****   uint16_t size;	//!< string length.
  33:c_string.h    ****   uint8_t *data;	//!< pointer to allocated buffer.
  34:c_string.h    **** 
  35:c_string.h    **** } mrbc_string;
  36:c_string.h    **** 
  37:c_string.h    **** 
  38:c_string.h    **** mrbc_value mrbc_string_new(struct VM *vm, const void *src, int len);
  39:c_string.h    **** mrbc_value mrbc_string_new_cstr(struct VM *vm, const char *src);
  40:c_string.h    **** mrbc_value mrbc_string_new_alloc(struct VM *vm, void *buf, int len);
  41:c_string.h    **** void mrbc_string_delete(mrbc_value *str);
  42:c_string.h    **** void mrbc_string_clear_vm_id(mrbc_value *str);
  43:c_string.h    **** mrbc_value mrbc_string_dup(struct VM *vm, mrbc_value *s1);
  44:c_string.h    **** mrbc_value mrbc_string_add(struct VM *vm, const mrbc_value *s1, const mrbc_value *s2);
  45:c_string.h    **** int mrbc_string_append(mrbc_value *s1, const mrbc_value *s2);
  46:c_string.h    **** int mrbc_string_append_cstr(mrbc_value *s1, const char *s2);
  47:c_string.h    **** int mrbc_string_index(const mrbc_value *src, const mrbc_value *pattern, int offset);
ARM GAS  C:\Users\164\AppData\Local\Temp\cctl9rYr.s 			page 9


  48:c_string.h    **** int mrbc_string_strip(mrbc_value *src, int mode);
  49:c_string.h    **** int mrbc_string_chomp(mrbc_value *src);
  50:c_string.h    **** void mrbc_init_class_string(struct VM *vm);
  51:c_string.h    **** 
  52:c_string.h    **** 
  53:c_string.h    **** //================================================================
  54:c_string.h    **** /*! compare
  55:c_string.h    **** */
  56:c_string.h    **** static inline int mrbc_string_compare(const mrbc_value *v1, const mrbc_value *v2)
  57:c_string.h    **** {
  58:c_string.h    ****   int len = (v1->string->size < v2->string->size) ?
 290              		.loc 2 58 0
 291 00c0 8968     		ldr	r1, [r1, #8]
 292              	.LVL37:
 293 00c2 8C88     		ldrh	r4, [r1, #4]
 294              	.LVL38:
 295 00c4 8368     		ldr	r3, [r0, #8]
 296 00c6 9D88     		ldrh	r5, [r3, #4]
 297              	.LVL39:
  59:c_string.h    ****     v1->string->size : v2->string->size;
  60:c_string.h    **** 
  61:c_string.h    ****   int res = memcmp(v1->string->data, v2->string->data, len);
 298              		.loc 2 61 0
 299 00c8 2246     		mov	r2, r4
 300 00ca AC42     		cmp	r4, r5
 301 00cc 28BF     		it	cs
 302 00ce 2A46     		movcs	r2, r5
 303 00d0 8968     		ldr	r1, [r1, #8]
 304 00d2 9868     		ldr	r0, [r3, #8]
 305              	.LVL40:
 306 00d4 FFF7FEFF 		bl	memcmp
 307              	.LVL41:
  62:c_string.h    ****   if( res != 0 ) return res;
 308              		.loc 2 62 0
 309 00d8 10B9     		cbnz	r0, .L36
  63:c_string.h    **** 
  64:c_string.h    ****   return v1->string->size - v2->string->size;
 310              		.loc 2 64 0
 311 00da 281B     		subs	r0, r5, r4
 312              	.LVL42:
 313 00dc BDE8F081 		pop	{r4, r5, r6, r7, r8, pc}
 314              	.LVL43:
 315              	.L36:
 316              	.LBE7:
 317              	.LBE6:
 121:value.c       **** 
 122:value.c       **** #if MRBC_USE_STRING
 123:value.c       ****   case MRBC_TT_STRING:
 124:value.c       ****     return mrbc_string_compare( v1, v2 );
 318              		.loc 1 124 0
 319 00e0 BDE8F081 		pop	{r4, r5, r6, r7, r8, pc}
 320              	.LVL44:
 321              	.L22:
 125:value.c       **** #endif
 126:value.c       **** 
 127:value.c       ****   case MRBC_TT_RANGE:
 128:value.c       ****     return mrbc_range_compare( v1, v2 );
ARM GAS  C:\Users\164\AppData\Local\Temp\cctl9rYr.s 			page 10


 322              		.loc 1 128 0
 323 00e4 FFF7FEFF 		bl	mrbc_range_compare
 324              	.LVL45:
 325 00e8 BDE8F081 		pop	{r4, r5, r6, r7, r8, pc}
 326              	.LVL46:
 327              	.L23:
 129:value.c       **** 
 130:value.c       ****   case MRBC_TT_HASH:
 131:value.c       ****     return mrbc_hash_compare( v1, v2 );
 328              		.loc 1 131 0
 329 00ec FFF7FEFF 		bl	mrbc_hash_compare
 330              	.LVL47:
 331 00f0 BDE8F081 		pop	{r4, r5, r6, r7, r8, pc}
 332              	.LVL48:
 333              	.L10:
 132:value.c       **** 
 133:value.c       ****   default:
 134:value.c       ****     return 1;
 135:value.c       ****   }
 136:value.c       **** 
 137:value.c       **** #if MRBC_USE_FLOAT
 138:value.c       ****  CMP_FLOAT:
 139:value.c       ****   return -1 + (d1 == d2) + (d1 > d2)*2;	// caution: NaN == NaN is false
 334              		.loc 1 139 0
 335 00f4 2246     		mov	r2, r4
 336 00f6 2B46     		mov	r3, r5
 337 00f8 3046     		mov	r0, r6
 338 00fa 3946     		mov	r1, r7
 339 00fc FFF7FEFF 		bl	__aeabi_dcmpeq
 340              	.LVL49:
 341 0100 10B1     		cbz	r0, .L41
 342 0102 4FF00008 		mov	r8, #0
 343 0106 01E0     		b	.L27
 344              	.L41:
 345 0108 4FF0FF38 		mov	r8, #-1
 346              	.L27:
 347              		.loc 1 139 0 is_stmt 0 discriminator 4
 348 010c 2246     		mov	r2, r4
 349 010e 2B46     		mov	r3, r5
 350 0110 3046     		mov	r0, r6
 351 0112 3946     		mov	r1, r7
 352 0114 FFF7FEFF 		bl	__aeabi_dcmpgt
 353              	.LVL50:
 354 0118 08B1     		cbz	r0, .L42
 355              		.loc 1 139 0
 356 011a 0220     		movs	r0, #2
 357 011c 00E0     		b	.L29
 358              	.L42:
 359 011e 0020     		movs	r0, #0
 360              	.L29:
 361              		.loc 1 139 0 discriminator 8
 362 0120 4044     		add	r0, r0, r8
 363 0122 BDE8F081 		pop	{r4, r5, r6, r7, r8, pc}
 364              	.LVL51:
 365              	.L31:
  90:value.c       **** 
 366              		.loc 1 90 0 is_stmt 1
ARM GAS  C:\Users\164\AppData\Local\Temp\cctl9rYr.s 			page 11


 367 0126 0020     		movs	r0, #0
 368              	.LVL52:
 369 0128 BDE8F081 		pop	{r4, r5, r6, r7, r8, pc}
 370              	.LVL53:
 371              	.L32:
 372 012c 0020     		movs	r0, #0
 373              	.LVL54:
 374 012e BDE8F081 		pop	{r4, r5, r6, r7, r8, pc}
 375              	.LVL55:
 376              	.L33:
 134:value.c       ****   }
 377              		.loc 1 134 0
 378 0132 0120     		movs	r0, #1
 379              	.LVL56:
 140:value.c       **** #endif
 141:value.c       **** }
 380              		.loc 1 141 0
 381 0134 BDE8F081 		pop	{r4, r5, r6, r7, r8, pc}
 382              		.cfi_endproc
 383              	.LFE27:
 384              		.size	mrbc_compare, .-mrbc_compare
 385              		.section	.text.mrbc_obj_is_kind_of,"ax",%progbits
 386              		.align	2
 387              		.global	mrbc_obj_is_kind_of
 388              		.thumb
 389              		.thumb_func
 390              		.type	mrbc_obj_is_kind_of, %function
 391              	mrbc_obj_is_kind_of:
 392              	.LFB28:
 142:value.c       **** 
 143:value.c       **** 
 144:value.c       **** //================================================================
 145:value.c       **** /*! Check the class is the class of object.
 146:value.c       **** 
 147:value.c       ****   @param  obj	target object
 148:value.c       ****   @param  cls	class
 149:value.c       **** */
 150:value.c       **** int mrbc_obj_is_kind_of( const mrbc_value *obj, const mrb_class *cls )
 151:value.c       **** {
 393              		.loc 1 151 0
 394              		.cfi_startproc
 395              		@ args = 0, pretend = 0, frame = 0
 396              		@ frame_needed = 0, uses_anonymous_args = 0
 397              	.LVL57:
 398 0000 10B5     		push	{r4, lr}
 399              		.cfi_def_cfa_offset 8
 400              		.cfi_offset 4, -8
 401              		.cfi_offset 14, -4
 402 0002 0C46     		mov	r4, r1
 152:value.c       ****   const mrbc_class *c = find_class_by_object( 0, obj );
 403              		.loc 1 152 0
 404 0004 0146     		mov	r1, r0
 405              	.LVL58:
 406 0006 0020     		movs	r0, #0
 407              	.LVL59:
 408 0008 FFF7FEFF 		bl	find_class_by_object
 409              	.LVL60:
ARM GAS  C:\Users\164\AppData\Local\Temp\cctl9rYr.s 			page 12


 153:value.c       ****   while( c != NULL ) {
 410              		.loc 1 153 0
 411 000c 02E0     		b	.L45
 412              	.L47:
 154:value.c       ****     if( c == cls ) return 1;
 413              		.loc 1 154 0
 414 000e A042     		cmp	r0, r4
 415 0010 03D0     		beq	.L48
 155:value.c       ****     c = c->super;
 416              		.loc 1 155 0
 417 0012 4068     		ldr	r0, [r0, #4]
 418              	.LVL61:
 419              	.L45:
 153:value.c       ****   while( c != NULL ) {
 420              		.loc 1 153 0
 421 0014 0028     		cmp	r0, #0
 422 0016 FAD1     		bne	.L47
 423 0018 10BD     		pop	{r4, pc}
 424              	.LVL62:
 425              	.L48:
 154:value.c       ****     if( c == cls ) return 1;
 426              		.loc 1 154 0
 427 001a 0120     		movs	r0, #1
 428              	.LVL63:
 156:value.c       ****   }
 157:value.c       **** 
 158:value.c       ****   return 0;
 159:value.c       **** }
 429              		.loc 1 159 0
 430 001c 10BD     		pop	{r4, pc}
 431              		.cfi_endproc
 432              	.LFE28:
 433              		.size	mrbc_obj_is_kind_of, .-mrbc_obj_is_kind_of
 434 001e 00BF     		.section	.text.mrbc_dup,"ax",%progbits
 435              		.align	2
 436              		.global	mrbc_dup
 437              		.thumb
 438              		.thumb_func
 439              		.type	mrbc_dup, %function
 440              	mrbc_dup:
 441              	.LFB29:
 160:value.c       **** 
 161:value.c       **** 
 162:value.c       **** //================================================================
 163:value.c       **** /*! Duplicate mrbc_value
 164:value.c       **** 
 165:value.c       ****   @param   v     Pointer to mrbc_value
 166:value.c       **** */
 167:value.c       **** void mrbc_dup(mrbc_value *v)
 168:value.c       **** {
 442              		.loc 1 168 0
 443              		.cfi_startproc
 444              		@ args = 0, pretend = 0, frame = 0
 445              		@ frame_needed = 0, uses_anonymous_args = 0
 446              	.LVL64:
 447 0000 08B5     		push	{r3, lr}
 448              		.cfi_def_cfa_offset 8
ARM GAS  C:\Users\164\AppData\Local\Temp\cctl9rYr.s 			page 13


 449              		.cfi_offset 3, -8
 450              		.cfi_offset 14, -4
 169:value.c       ****   switch( v->tt ){
 451              		.loc 1 169 0
 452 0002 90F90030 		ldrsb	r3, [r0]
 453 0006 143B     		subs	r3, r3, #20
 454 0008 052B     		cmp	r3, #5
 455 000a 12D8     		bhi	.L50
 170:value.c       ****   case MRBC_TT_OBJECT:
 171:value.c       ****   case MRBC_TT_PROC:
 172:value.c       ****   case MRBC_TT_ARRAY:
 173:value.c       ****   case MRBC_TT_STRING:
 174:value.c       ****   case MRBC_TT_RANGE:
 175:value.c       ****   case MRBC_TT_HASH:
 176:value.c       ****     assert( v->instance->ref_count > 0 );
 456              		.loc 1 176 0
 457 000c 8268     		ldr	r2, [r0, #8]
 458 000e 1388     		ldrh	r3, [r2]
 459 0010 2BB9     		cbnz	r3, .L53
 460              		.loc 1 176 0 is_stmt 0 discriminator 1
 461 0012 084B     		ldr	r3, .L56
 462 0014 084A     		ldr	r2, .L56+4
 463 0016 B021     		movs	r1, #176
 464 0018 0848     		ldr	r0, .L56+8
 465              	.LVL65:
 466 001a FFF7FEFF 		bl	__assert_func
 467              	.LVL66:
 468              	.L53:
 177:value.c       ****     assert( v->instance->ref_count != 0xff );	// check max value.
 469              		.loc 1 177 0 is_stmt 1
 470 001e FF2B     		cmp	r3, #255
 471 0020 05D1     		bne	.L54
 472              		.loc 1 177 0 is_stmt 0 discriminator 1
 473 0022 074B     		ldr	r3, .L56+12
 474 0024 044A     		ldr	r2, .L56+4
 475 0026 B121     		movs	r1, #177
 476 0028 0448     		ldr	r0, .L56+8
 477              	.LVL67:
 478 002a FFF7FEFF 		bl	__assert_func
 479              	.LVL68:
 480              	.L54:
 178:value.c       ****     v->instance->ref_count++;
 481              		.loc 1 178 0 is_stmt 1
 482 002e 0133     		adds	r3, r3, #1
 483 0030 1380     		strh	r3, [r2]	@ movhi
 484              	.L50:
 485 0032 08BD     		pop	{r3, pc}
 486              	.L57:
 487              		.align	2
 488              	.L56:
 489 0034 00000000 		.word	.LC0
 490 0038 00000000 		.word	.LANCHOR0
 491 003c 1C000000 		.word	.LC1
 492 0040 24000000 		.word	.LC2
 493              		.cfi_endproc
 494              	.LFE29:
 495              		.size	mrbc_dup, .-mrbc_dup
ARM GAS  C:\Users\164\AppData\Local\Temp\cctl9rYr.s 			page 14


 496              		.section	.text.mrbc_clear_vm_id,"ax",%progbits
 497              		.align	2
 498              		.global	mrbc_clear_vm_id
 499              		.thumb
 500              		.thumb_func
 501              		.type	mrbc_clear_vm_id, %function
 502              	mrbc_clear_vm_id:
 503              	.LFB32:
 179:value.c       ****     break;
 180:value.c       **** 
 181:value.c       ****   default:
 182:value.c       ****     // Nothing
 183:value.c       ****     break;
 184:value.c       ****   }
 185:value.c       **** }
 186:value.c       **** 
 187:value.c       **** 
 188:value.c       **** //================================================================
 189:value.c       **** /*!@brief
 190:value.c       ****   Release object related memory
 191:value.c       **** 
 192:value.c       ****   @param   v     Pointer to target mrbc_value
 193:value.c       **** */
 194:value.c       **** void mrbc_release(mrbc_value *v)
 195:value.c       **** {
 196:value.c       ****   mrbc_dec_ref_counter(v);
 197:value.c       ****   v->tt = MRBC_TT_EMPTY;
 198:value.c       **** }
 199:value.c       **** 
 200:value.c       **** 
 201:value.c       **** //================================================================
 202:value.c       **** /*!@brief
 203:value.c       ****   Decrement reference counter
 204:value.c       **** 
 205:value.c       ****   @param   v     Pointer to target mrbc_value
 206:value.c       **** */
 207:value.c       **** void mrbc_dec_ref_counter(mrbc_value *v)
 208:value.c       **** {
 209:value.c       ****   switch( v->tt ){
 210:value.c       ****   case MRBC_TT_OBJECT:
 211:value.c       ****   case MRBC_TT_PROC:
 212:value.c       ****   case MRBC_TT_ARRAY:
 213:value.c       ****   case MRBC_TT_STRING:
 214:value.c       ****   case MRBC_TT_RANGE:
 215:value.c       ****   case MRBC_TT_HASH:
 216:value.c       ****     assert( v->instance->ref_count != 0 );
 217:value.c       ****     v->instance->ref_count--;
 218:value.c       ****     break;
 219:value.c       **** 
 220:value.c       ****   default:
 221:value.c       ****     // Nothing
 222:value.c       ****     return;
 223:value.c       ****   }
 224:value.c       **** 
 225:value.c       ****   // release memory?
 226:value.c       ****   if( v->instance->ref_count != 0 ) return;
 227:value.c       **** 
ARM GAS  C:\Users\164\AppData\Local\Temp\cctl9rYr.s 			page 15


 228:value.c       ****   switch( v->tt ) {
 229:value.c       ****   case MRBC_TT_OBJECT:	mrbc_instance_delete(v);	break;
 230:value.c       ****   case MRBC_TT_PROC:	mrbc_raw_free(v->handle);	break;
 231:value.c       ****   case MRBC_TT_ARRAY:	mrbc_array_delete(v);		break;
 232:value.c       **** #if MRBC_USE_STRING
 233:value.c       ****   case MRBC_TT_STRING:	mrbc_string_delete(v);		break;
 234:value.c       **** #endif
 235:value.c       ****   case MRBC_TT_RANGE:	mrbc_range_delete(v);		break;
 236:value.c       ****   case MRBC_TT_HASH:	mrbc_hash_delete(v);		break;
 237:value.c       **** 
 238:value.c       ****   default:
 239:value.c       ****     // Nothing
 240:value.c       ****     break;
 241:value.c       ****   }
 242:value.c       **** }
 243:value.c       **** 
 244:value.c       **** 
 245:value.c       **** //================================================================
 246:value.c       **** /*!@brief
 247:value.c       ****   clear vm id
 248:value.c       **** 
 249:value.c       ****   @param   v     Pointer to target mrbc_value
 250:value.c       **** */
 251:value.c       **** void mrbc_clear_vm_id(mrbc_value *v)
 252:value.c       **** {
 504              		.loc 1 252 0
 505              		.cfi_startproc
 506              		@ args = 0, pretend = 0, frame = 0
 507              		@ frame_needed = 0, uses_anonymous_args = 0
 508              	.LVL69:
 509 0000 08B5     		push	{r3, lr}
 510              		.cfi_def_cfa_offset 8
 511              		.cfi_offset 3, -8
 512              		.cfi_offset 14, -4
 253:value.c       ****   switch( v->tt ) {
 513              		.loc 1 253 0
 514 0002 90F90030 		ldrsb	r3, [r0]
 515 0006 163B     		subs	r3, r3, #22
 516 0008 032B     		cmp	r3, #3
 517 000a 0ED8     		bhi	.L58
 518 000c DFE803F0 		tbb	[pc, r3]
 519              	.L61:
 520 0010 02       		.byte	(.L60-.L61)/2
 521 0011 05       		.byte	(.L62-.L61)/2
 522 0012 08       		.byte	(.L63-.L61)/2
 523 0013 0B       		.byte	(.L64-.L61)/2
 524              		.p2align 1
 525              	.L60:
 254:value.c       ****   case MRBC_TT_ARRAY:	mrbc_array_clear_vm_id(v);	break;
 526              		.loc 1 254 0
 527 0014 FFF7FEFF 		bl	mrbc_array_clear_vm_id
 528              	.LVL70:
 529 0018 08BD     		pop	{r3, pc}
 530              	.LVL71:
 531              	.L62:
 255:value.c       **** #if MRBC_USE_STRING
 256:value.c       ****   case MRBC_TT_STRING:	mrbc_string_clear_vm_id(v);	break;
ARM GAS  C:\Users\164\AppData\Local\Temp\cctl9rYr.s 			page 16


 532              		.loc 1 256 0
 533 001a FFF7FEFF 		bl	mrbc_string_clear_vm_id
 534              	.LVL72:
 535 001e 08BD     		pop	{r3, pc}
 536              	.LVL73:
 537              	.L63:
 257:value.c       **** #endif
 258:value.c       ****   case MRBC_TT_RANGE:	mrbc_range_clear_vm_id(v);	break;
 538              		.loc 1 258 0
 539 0020 FFF7FEFF 		bl	mrbc_range_clear_vm_id
 540              	.LVL74:
 541 0024 08BD     		pop	{r3, pc}
 542              	.LVL75:
 543              	.L64:
 544              	.LBB8:
 545              	.LBB9:
 546              		.file 3 "c_hash.h"
   1:c_hash.h      **** /*! @file
   2:c_hash.h      ****   @brief
   3:c_hash.h      ****   mruby/c Hash class
   4:c_hash.h      **** 
   5:c_hash.h      ****   <pre>
   6:c_hash.h      ****   Copyright (C) 2015-2018 Kyushu Institute of Technology.
   7:c_hash.h      ****   Copyright (C) 2015-2018 Shimane IT Open-Innovation Center.
   8:c_hash.h      **** 
   9:c_hash.h      ****   This file is distributed under BSD 3-Clause License.
  10:c_hash.h      **** 
  11:c_hash.h      ****   </pre>
  12:c_hash.h      **** */
  13:c_hash.h      **** 
  14:c_hash.h      **** #ifndef MRBC_SRC_C_HASH_H_
  15:c_hash.h      **** #define MRBC_SRC_C_HASH_H_
  16:c_hash.h      **** 
  17:c_hash.h      **** #include "value.h"
  18:c_hash.h      **** #include "c_array.h"
  19:c_hash.h      **** 
  20:c_hash.h      **** #ifdef __cplusplus
  21:c_hash.h      **** extern "C" {
  22:c_hash.h      **** #endif
  23:c_hash.h      **** 
  24:c_hash.h      **** //================================================================
  25:c_hash.h      **** /*!@brief
  26:c_hash.h      ****   Define Hash handle.
  27:c_hash.h      **** */
  28:c_hash.h      **** typedef struct RHash {
  29:c_hash.h      ****   // (NOTE)
  30:c_hash.h      ****   //  Needs to be same members and order as RArray.
  31:c_hash.h      ****   MRBC_OBJECT_HEADER;
  32:c_hash.h      **** 
  33:c_hash.h      ****   uint16_t data_size;	//!< data buffer size.
  34:c_hash.h      ****   uint16_t n_stored;	//!< # of stored.
  35:c_hash.h      ****   mrbc_value *data;	//!< pointer to allocated memory.
  36:c_hash.h      **** 
  37:c_hash.h      ****   // TODO: and other member for search.
  38:c_hash.h      **** 
  39:c_hash.h      **** } mrbc_hash;
  40:c_hash.h      **** 
ARM GAS  C:\Users\164\AppData\Local\Temp\cctl9rYr.s 			page 17


  41:c_hash.h      **** 
  42:c_hash.h      **** //================================================================
  43:c_hash.h      **** /*!@brief
  44:c_hash.h      ****   Define Hash iterator.
  45:c_hash.h      **** */
  46:c_hash.h      **** typedef struct RHashIterator {
  47:c_hash.h      ****   mrbc_hash *target;
  48:c_hash.h      ****   mrbc_value *point;
  49:c_hash.h      ****   mrbc_value *p_end;
  50:c_hash.h      **** } mrbc_hash_iterator;
  51:c_hash.h      **** 
  52:c_hash.h      **** 
  53:c_hash.h      **** mrbc_value mrbc_hash_new(struct VM *vm, int size);
  54:c_hash.h      **** void mrbc_hash_delete(mrbc_value *hash);
  55:c_hash.h      **** mrbc_value *mrbc_hash_search(const mrbc_value *hash, const mrbc_value *key);
  56:c_hash.h      **** int mrbc_hash_set(mrbc_value *hash, mrbc_value *key, mrbc_value *val);
  57:c_hash.h      **** mrbc_value mrbc_hash_get(mrbc_value *hash, mrbc_value *key);
  58:c_hash.h      **** mrbc_value mrbc_hash_remove(mrbc_value *hash, mrbc_value *key);
  59:c_hash.h      **** void mrbc_hash_clear(mrbc_value *hash);
  60:c_hash.h      **** int mrbc_hash_compare(const mrbc_value *v1, const mrbc_value *v2);
  61:c_hash.h      **** mrbc_value mrbc_hash_dup(struct VM *vm, mrbc_value *src);
  62:c_hash.h      **** void mrbc_init_class_hash(struct VM *vm);
  63:c_hash.h      **** 
  64:c_hash.h      **** 
  65:c_hash.h      **** 
  66:c_hash.h      **** //================================================================
  67:c_hash.h      **** /*! get size
  68:c_hash.h      **** */
  69:c_hash.h      **** static inline int mrbc_hash_size(const mrbc_value *hash) {
  70:c_hash.h      ****   return hash->hash->n_stored / 2;
  71:c_hash.h      **** }
  72:c_hash.h      **** 
  73:c_hash.h      **** //================================================================
  74:c_hash.h      **** /*! clear vm_id
  75:c_hash.h      **** */
  76:c_hash.h      **** static inline void mrbc_hash_clear_vm_id(mrbc_value *hash) {
  77:c_hash.h      ****   mrbc_array_clear_vm_id(hash);
 547              		.loc 3 77 0
 548 0026 FFF7FEFF 		bl	mrbc_array_clear_vm_id
 549              	.LVL76:
 550              	.L58:
 551 002a 08BD     		pop	{r3, pc}
 552              	.LBE9:
 553              	.LBE8:
 554              		.cfi_endproc
 555              	.LFE32:
 556              		.size	mrbc_clear_vm_id, .-mrbc_clear_vm_id
 557              		.section	.text.mrbc_atoi,"ax",%progbits
 558              		.align	2
 559              		.global	mrbc_atoi
 560              		.thumb
 561              		.thumb_func
 562              		.type	mrbc_atoi, %function
 563              	mrbc_atoi:
 564              	.LFB33:
 259:value.c       ****   case MRBC_TT_HASH:	mrbc_hash_clear_vm_id(v);	break;
 260:value.c       **** 
ARM GAS  C:\Users\164\AppData\Local\Temp\cctl9rYr.s 			page 18


 261:value.c       ****   default:
 262:value.c       ****     // Nothing
 263:value.c       ****     break;
 264:value.c       ****   }
 265:value.c       **** }
 266:value.c       **** 
 267:value.c       **** 
 268:value.c       **** //================================================================
 269:value.c       **** /*!@brief
 270:value.c       **** 
 271:value.c       ****   convert ASCII string to integer mruby/c version
 272:value.c       **** 
 273:value.c       ****   @param  s	source string.
 274:value.c       ****   @param  base	n base.
 275:value.c       ****   @return	result.
 276:value.c       **** */
 277:value.c       **** mrbc_int mrbc_atoi( const char *s, int base )
 278:value.c       **** {
 565              		.loc 1 278 0
 566              		.cfi_startproc
 567              		@ args = 0, pretend = 0, frame = 0
 568              		@ frame_needed = 0, uses_anonymous_args = 0
 569              		@ link register save eliminated.
 570              	.LVL77:
 571 0000 30B4     		push	{r4, r5}
 572              		.cfi_def_cfa_offset 8
 573              		.cfi_offset 4, -8
 574              		.cfi_offset 5, -4
 575 0002 0346     		mov	r3, r0
 576              	.LVL78:
 577              	.L67:
 279:value.c       ****   int ret = 0;
 280:value.c       ****   int sign = 0;
 281:value.c       **** 
 282:value.c       ****  REDO:
 283:value.c       ****   switch( *s ) {
 578              		.loc 1 283 0
 579 0004 1A78     		ldrb	r2, [r3]	@ zero_extendqisi2
 580 0006 2B2A     		cmp	r2, #43
 581 0008 04D0     		beq	.L69
 582 000a 2D2A     		cmp	r2, #45
 583 000c 04D0     		beq	.L80
 584 000e 202A     		cmp	r2, #32
 585 0010 05D1     		bne	.L81
 586 0012 07E0     		b	.L71
 587              	.L69:
 280:value.c       **** 
 588              		.loc 1 280 0
 589 0014 0025     		movs	r5, #0
 590 0016 00E0     		b	.L70
 591              	.L80:
 284:value.c       ****   case '-':
 285:value.c       ****     sign = 1;
 592              		.loc 1 285 0
 593 0018 0125     		movs	r5, #1
 594              	.L70:
 595              	.LVL79:
ARM GAS  C:\Users\164\AppData\Local\Temp\cctl9rYr.s 			page 19


 286:value.c       ****     // fall through.
 287:value.c       ****   case '+':
 288:value.c       ****     s++;
 596              		.loc 1 288 0
 597 001a 0133     		adds	r3, r3, #1
 598              	.LVL80:
 289:value.c       ****     break;
 599              		.loc 1 289 0
 600 001c 00E0     		b	.L68
 601              	.LVL81:
 602              	.L81:
 280:value.c       **** 
 603              		.loc 1 280 0
 604 001e 0025     		movs	r5, #0
 605              	.LVL82:
 606              	.L68:
 607 0020 0020     		movs	r0, #0
 608 0022 13E0     		b	.L72
 609              	.LVL83:
 610              	.L71:
 290:value.c       **** 
 291:value.c       ****   case ' ':
 292:value.c       ****     s++;
 611              		.loc 1 292 0
 612 0024 0133     		adds	r3, r3, #1
 613              	.LVL84:
 293:value.c       ****     goto REDO;
 614              		.loc 1 293 0
 615 0026 EDE7     		b	.L67
 616              	.LVL85:
 617              	.L77:
 618              	.LBB10:
 294:value.c       ****   }
 295:value.c       **** 
 296:value.c       ****   int ch;
 297:value.c       ****   while( (ch = *s++) != '\0' ) {
 298:value.c       ****     int n;
 299:value.c       **** 
 300:value.c       ****     if( 'a' <= ch ) {
 619              		.loc 1 300 0
 620 0028 602B     		cmp	r3, #96
 621 002a 01DD     		ble	.L73
 301:value.c       ****       n = ch - 'a' + 10;
 622              		.loc 1 301 0
 623 002c 573B     		subs	r3, r3, #87
 624              	.LVL86:
 625 002e 08E0     		b	.L74
 626              	.LVL87:
 627              	.L73:
 302:value.c       ****     } else
 303:value.c       ****     if( 'A' <= ch ) {
 628              		.loc 1 303 0
 629 0030 402B     		cmp	r3, #64
 630 0032 01DD     		ble	.L75
 304:value.c       ****       n = ch - 'A' + 10;
 631              		.loc 1 304 0
 632 0034 373B     		subs	r3, r3, #55
ARM GAS  C:\Users\164\AppData\Local\Temp\cctl9rYr.s 			page 20


 633              	.LVL88:
 634 0036 04E0     		b	.L74
 635              	.LVL89:
 636              	.L75:
 305:value.c       ****     } else
 306:value.c       ****     if( '0' <= ch && ch <= '9' ) {
 637              		.loc 1 306 0
 638 0038 A3F13004 		sub	r4, r3, #48
 639 003c 092C     		cmp	r4, #9
 640 003e 09D8     		bhi	.L76
 307:value.c       ****       n = ch - '0';
 641              		.loc 1 307 0
 642 0040 2346     		mov	r3, r4
 643              	.LVL90:
 644              	.L74:
 308:value.c       ****     } else {
 309:value.c       ****       break;
 310:value.c       ****     }
 311:value.c       ****     if( n >= base ) break;
 645              		.loc 1 311 0
 646 0042 8B42     		cmp	r3, r1
 647 0044 06DA     		bge	.L76
 312:value.c       **** 
 313:value.c       ****     ret = ret * base + n;
 648              		.loc 1 313 0
 649 0046 01FB0030 		mla	r0, r1, r0, r3
 650              	.LVL91:
 651              	.LBE10:
 297:value.c       ****     int n;
 652              		.loc 1 297 0
 653 004a 1346     		mov	r3, r2
 654              	.LVL92:
 655              	.L72:
 656 004c 5A1C     		adds	r2, r3, #1
 657              	.LVL93:
 658 004e 1B78     		ldrb	r3, [r3]	@ zero_extendqisi2
 659              	.LVL94:
 660 0050 002B     		cmp	r3, #0
 661 0052 E9D1     		bne	.L77
 662              	.LVL95:
 663              	.L76:
 314:value.c       ****   }
 315:value.c       **** 
 316:value.c       ****   if( sign ) ret = -ret;
 664              		.loc 1 316 0
 665 0054 05B1     		cbz	r5, .L78
 666              		.loc 1 316 0 is_stmt 0 discriminator 1
 667 0056 4042     		negs	r0, r0
 668              	.LVL96:
 669              	.L78:
 317:value.c       **** 
 318:value.c       ****   return ret;
 319:value.c       **** }
 670              		.loc 1 319 0 is_stmt 1
 671 0058 30BC     		pop	{r4, r5}
 672              		.cfi_restore 5
 673              		.cfi_restore 4
ARM GAS  C:\Users\164\AppData\Local\Temp\cctl9rYr.s 			page 21


 674              		.cfi_def_cfa_offset 0
 675              	.LVL97:
 676 005a 7047     		bx	lr
 677              		.cfi_endproc
 678              	.LFE33:
 679              		.size	mrbc_atoi, .-mrbc_atoi
 680              		.section	.text.mrbc_irep_alloc,"ax",%progbits
 681              		.align	2
 682              		.global	mrbc_irep_alloc
 683              		.thumb
 684              		.thumb_func
 685              		.type	mrbc_irep_alloc, %function
 686              	mrbc_irep_alloc:
 687              	.LFB34:
 320:value.c       **** 
 321:value.c       **** 
 322:value.c       **** 
 323:value.c       **** //================================================================
 324:value.c       **** /*!@brief
 325:value.c       ****   mrbc_irep allocator
 326:value.c       **** 
 327:value.c       ****   @param  vm	Pointer of VM.
 328:value.c       ****   @return	Pointer of allocated mrbc_irep
 329:value.c       **** */
 330:value.c       **** mrbc_irep *mrbc_irep_alloc(struct VM *vm)
 331:value.c       **** {
 688              		.loc 1 331 0
 689              		.cfi_startproc
 690              		@ args = 0, pretend = 0, frame = 0
 691              		@ frame_needed = 0, uses_anonymous_args = 0
 692              	.LVL98:
 693 0000 08B5     		push	{r3, lr}
 694              		.cfi_def_cfa_offset 8
 695              		.cfi_offset 3, -8
 696              		.cfi_offset 14, -4
 332:value.c       ****   mrbc_irep *p = (mrbc_irep *)mrbc_alloc(vm, sizeof(mrbc_irep));
 697              		.loc 1 332 0
 698 0002 1C21     		movs	r1, #28
 699 0004 FFF7FEFF 		bl	mrbc_alloc
 700              	.LVL99:
 333:value.c       ****   if( p )
 701              		.loc 1 333 0
 702 0008 0346     		mov	r3, r0
 703 000a 38B1     		cbz	r0, .L84
 334:value.c       ****     memset(p, 0, sizeof(mrbc_irep));	// caution: assume NULL is zero.
 704              		.loc 1 334 0
 705 000c 0022     		movs	r2, #0
 706 000e 0260     		str	r2, [r0]	@ unaligned
 707 0010 4260     		str	r2, [r0, #4]	@ unaligned
 708 0012 8260     		str	r2, [r0, #8]	@ unaligned
 709 0014 C260     		str	r2, [r0, #12]	@ unaligned
 710 0016 0261     		str	r2, [r0, #16]	@ unaligned
 711 0018 4261     		str	r2, [r0, #20]	@ unaligned
 712 001a 8261     		str	r2, [r0, #24]	@ unaligned
 713              	.L84:
 335:value.c       ****   return p;
 336:value.c       **** }
ARM GAS  C:\Users\164\AppData\Local\Temp\cctl9rYr.s 			page 22


 714              		.loc 1 336 0
 715 001c 1846     		mov	r0, r3
 716              	.LVL100:
 717 001e 08BD     		pop	{r3, pc}
 718              		.cfi_endproc
 719              	.LFE34:
 720              		.size	mrbc_irep_alloc, .-mrbc_irep_alloc
 721              		.section	.text.mrbc_irep_free,"ax",%progbits
 722              		.align	2
 723              		.global	mrbc_irep_free
 724              		.thumb
 725              		.thumb_func
 726              		.type	mrbc_irep_free, %function
 727              	mrbc_irep_free:
 728              	.LFB35:
 337:value.c       **** 
 338:value.c       **** 
 339:value.c       **** //================================================================
 340:value.c       **** /*!@brief
 341:value.c       ****   release mrbc_irep holds memory
 342:value.c       **** */
 343:value.c       **** void mrbc_irep_free(mrbc_irep *irep)
 344:value.c       **** {
 729              		.loc 1 344 0
 730              		.cfi_startproc
 731              		@ args = 0, pretend = 0, frame = 0
 732              		@ frame_needed = 0, uses_anonymous_args = 0
 733              	.LVL101:
 734 0000 38B5     		push	{r3, r4, r5, lr}
 735              		.cfi_def_cfa_offset 16
 736              		.cfi_offset 3, -16
 737              		.cfi_offset 4, -12
 738              		.cfi_offset 5, -8
 739              		.cfi_offset 14, -4
 740 0002 0446     		mov	r4, r0
 741              	.LVL102:
 345:value.c       ****   int i;
 346:value.c       **** 
 347:value.c       ****   // release pools.
 348:value.c       ****   for( i = 0; i < irep->plen; i++ ) {
 742              		.loc 1 348 0
 743 0004 0025     		movs	r5, #0
 744 0006 05E0     		b	.L87
 745              	.LVL103:
 746              	.L88:
 349:value.c       ****     mrbc_raw_free( irep->pools[i] );
 747              		.loc 1 349 0 discriminator 3
 748 0008 2369     		ldr	r3, [r4, #16]
 749 000a 53F82500 		ldr	r0, [r3, r5, lsl #2]
 750 000e FFF7FEFF 		bl	mrbc_raw_free
 751              	.LVL104:
 348:value.c       ****     mrbc_raw_free( irep->pools[i] );
 752              		.loc 1 348 0 discriminator 3
 753 0012 0135     		adds	r5, r5, #1
 754              	.LVL105:
 755              	.L87:
 348:value.c       ****     mrbc_raw_free( irep->pools[i] );
ARM GAS  C:\Users\164\AppData\Local\Temp\cctl9rYr.s 			page 23


 756              		.loc 1 348 0 is_stmt 0 discriminator 1
 757 0014 2389     		ldrh	r3, [r4, #8]
 758 0016 9D42     		cmp	r5, r3
 759 0018 F6DB     		blt	.L88
 350:value.c       ****   }
 351:value.c       ****   if( irep->plen ) mrbc_raw_free( irep->pools );
 760              		.loc 1 351 0 is_stmt 1
 761 001a 13B1     		cbz	r3, .L89
 762              		.loc 1 351 0 is_stmt 0 discriminator 1
 763 001c 2069     		ldr	r0, [r4, #16]
 764 001e FFF7FEFF 		bl	mrbc_raw_free
 765              	.LVL106:
 766              	.L89:
 348:value.c       ****     mrbc_raw_free( irep->pools[i] );
 767              		.loc 1 348 0 is_stmt 1 discriminator 1
 768 0022 0025     		movs	r5, #0
 769              	.LVL107:
 770 0024 05E0     		b	.L90
 771              	.LVL108:
 772              	.L91:
 352:value.c       **** 
 353:value.c       ****   // release child ireps.
 354:value.c       ****   for( i = 0; i < irep->rlen; i++ ) {
 355:value.c       ****     mrbc_irep_free( irep->reps[i] );
 773              		.loc 1 355 0 discriminator 3
 774 0026 A369     		ldr	r3, [r4, #24]
 775 0028 53F82500 		ldr	r0, [r3, r5, lsl #2]
 776 002c FFF7FEFF 		bl	mrbc_irep_free
 777              	.LVL109:
 354:value.c       ****     mrbc_irep_free( irep->reps[i] );
 778              		.loc 1 354 0 discriminator 3
 779 0030 0135     		adds	r5, r5, #1
 780              	.LVL110:
 781              	.L90:
 354:value.c       ****     mrbc_irep_free( irep->reps[i] );
 782              		.loc 1 354 0 is_stmt 0 discriminator 1
 783 0032 A388     		ldrh	r3, [r4, #4]
 784 0034 9D42     		cmp	r5, r3
 785 0036 F6DB     		blt	.L91
 356:value.c       ****   }
 357:value.c       ****   if( irep->rlen ) mrbc_raw_free( irep->reps );
 786              		.loc 1 357 0 is_stmt 1
 787 0038 13B1     		cbz	r3, .L92
 788              		.loc 1 357 0 is_stmt 0 discriminator 1
 789 003a A069     		ldr	r0, [r4, #24]
 790 003c FFF7FEFF 		bl	mrbc_raw_free
 791              	.LVL111:
 792              	.L92:
 358:value.c       **** 
 359:value.c       ****   mrbc_raw_free( irep );
 793              		.loc 1 359 0 is_stmt 1
 794 0040 2046     		mov	r0, r4
 795 0042 FFF7FEFF 		bl	mrbc_raw_free
 796              	.LVL112:
 797 0046 38BD     		pop	{r3, r4, r5, pc}
 798              		.cfi_endproc
 799              	.LFE35:
ARM GAS  C:\Users\164\AppData\Local\Temp\cctl9rYr.s 			page 24


 800              		.size	mrbc_irep_free, .-mrbc_irep_free
 801              		.section	.text.mrbc_instance_new,"ax",%progbits
 802              		.align	2
 803              		.global	mrbc_instance_new
 804              		.thumb
 805              		.thumb_func
 806              		.type	mrbc_instance_new, %function
 807              	mrbc_instance_new:
 808              	.LFB36:
 360:value.c       **** }
 361:value.c       **** 
 362:value.c       **** 
 363:value.c       **** //================================================================
 364:value.c       **** /*! mrbc_instance constructor
 365:value.c       **** 
 366:value.c       ****   @param  vm    Pointer to VM.
 367:value.c       ****   @param  cls	Pointer to Class (mrbc_class).
 368:value.c       ****   @param  size	size of additional data.
 369:value.c       ****   @return       mrbc_instance object.
 370:value.c       **** */
 371:value.c       **** mrbc_value mrbc_instance_new(struct VM *vm, mrbc_class *cls, int size)
 372:value.c       **** {
 809              		.loc 1 372 0
 810              		.cfi_startproc
 811              		@ args = 0, pretend = 0, frame = 0
 812              		@ frame_needed = 0, uses_anonymous_args = 0
 813              	.LVL113:
 814 0000 F8B5     		push	{r3, r4, r5, r6, r7, lr}
 815              		.cfi_def_cfa_offset 24
 816              		.cfi_offset 3, -24
 817              		.cfi_offset 4, -20
 818              		.cfi_offset 5, -16
 819              		.cfi_offset 6, -12
 820              		.cfi_offset 7, -8
 821              		.cfi_offset 14, -4
 822 0002 0446     		mov	r4, r0
 823 0004 0E46     		mov	r6, r1
 824 0006 1746     		mov	r7, r2
 373:value.c       ****   mrbc_value v = {.tt = MRBC_TT_OBJECT};
 825              		.loc 1 373 0
 826 0008 0022     		movs	r2, #0
 827              	.LVL114:
 828 000a 0260     		str	r2, [r0]
 829 000c 4260     		str	r2, [r0, #4]
 830 000e 8260     		str	r2, [r0, #8]
 831 0010 C260     		str	r2, [r0, #12]
 832 0012 1422     		movs	r2, #20
 833 0014 0270     		strb	r2, [r0]
 374:value.c       ****   v.instance = (mrbc_instance *)mrbc_alloc(vm, sizeof(mrbc_instance) + size);
 834              		.loc 1 374 0
 835 0016 03F10C01 		add	r1, r3, #12
 836              	.LVL115:
 837 001a 3046     		mov	r0, r6
 838              	.LVL116:
 839 001c FFF7FEFF 		bl	mrbc_alloc
 840              	.LVL117:
 841 0020 A060     		str	r0, [r4, #8]
ARM GAS  C:\Users\164\AppData\Local\Temp\cctl9rYr.s 			page 25


 375:value.c       ****   if( v.instance == NULL ) return v;	// ENOMEM
 842              		.loc 1 375 0
 843 0022 88B1     		cbz	r0, .L94
 844 0024 0546     		mov	r5, r0
 376:value.c       **** 
 377:value.c       ****   v.instance->ivar = mrbc_kv_new(vm, 0);
 845              		.loc 1 377 0
 846 0026 0021     		movs	r1, #0
 847 0028 3046     		mov	r0, r6
 848 002a FFF7FEFF 		bl	mrbc_kv_new
 849              	.LVL118:
 850 002e A860     		str	r0, [r5, #8]
 378:value.c       ****   if( v.instance->ivar == NULL ) {	// ENOMEM
 851              		.loc 1 378 0
 852 0030 28B9     		cbnz	r0, .L96
 379:value.c       ****     mrbc_raw_free(v.instance);
 853              		.loc 1 379 0
 854 0032 2846     		mov	r0, r5
 855 0034 FFF7FEFF 		bl	mrbc_raw_free
 856              	.LVL119:
 380:value.c       ****     v.instance = NULL;
 857              		.loc 1 380 0
 858 0038 0023     		movs	r3, #0
 859 003a A360     		str	r3, [r4, #8]
 381:value.c       ****     return v;
 860              		.loc 1 381 0
 861 003c 04E0     		b	.L94
 862              	.L96:
 382:value.c       ****   }
 383:value.c       **** 
 384:value.c       ****   v.instance->ref_count = 1;
 863              		.loc 1 384 0
 864 003e 0123     		movs	r3, #1
 865 0040 2B80     		strh	r3, [r5]	@ movhi
 385:value.c       ****   v.instance->tt = MRBC_TT_OBJECT;	// for debug only.
 866              		.loc 1 385 0
 867 0042 1423     		movs	r3, #20
 868 0044 AB70     		strb	r3, [r5, #2]
 386:value.c       ****   v.instance->cls = cls;
 869              		.loc 1 386 0
 870 0046 6F60     		str	r7, [r5, #4]
 871              	.L94:
 387:value.c       **** 
 388:value.c       ****   return v;
 389:value.c       **** }
 872              		.loc 1 389 0
 873 0048 2046     		mov	r0, r4
 874 004a F8BD     		pop	{r3, r4, r5, r6, r7, pc}
 875              		.cfi_endproc
 876              	.LFE36:
 877              		.size	mrbc_instance_new, .-mrbc_instance_new
 878              		.section	.text.mrbc_instance_delete,"ax",%progbits
 879              		.align	2
 880              		.global	mrbc_instance_delete
 881              		.thumb
 882              		.thumb_func
 883              		.type	mrbc_instance_delete, %function
ARM GAS  C:\Users\164\AppData\Local\Temp\cctl9rYr.s 			page 26


 884              	mrbc_instance_delete:
 885              	.LFB37:
 390:value.c       **** 
 391:value.c       **** 
 392:value.c       **** 
 393:value.c       **** //================================================================
 394:value.c       **** /*! mrbc_instance destructor
 395:value.c       **** 
 396:value.c       ****   @param  v	pointer to target value
 397:value.c       **** */
 398:value.c       **** void mrbc_instance_delete(mrbc_value *v)
 399:value.c       **** {
 886              		.loc 1 399 0
 887              		.cfi_startproc
 888              		@ args = 0, pretend = 0, frame = 0
 889              		@ frame_needed = 0, uses_anonymous_args = 0
 890              	.LVL120:
 891 0000 10B5     		push	{r4, lr}
 892              		.cfi_def_cfa_offset 8
 893              		.cfi_offset 4, -8
 894              		.cfi_offset 14, -4
 895 0002 0446     		mov	r4, r0
 400:value.c       ****   mrbc_kv_delete( v->instance->ivar );
 896              		.loc 1 400 0
 897 0004 8368     		ldr	r3, [r0, #8]
 898 0006 9868     		ldr	r0, [r3, #8]
 899              	.LVL121:
 900 0008 FFF7FEFF 		bl	mrbc_kv_delete
 901              	.LVL122:
 401:value.c       ****   mrbc_raw_free( v->instance );
 902              		.loc 1 401 0
 903 000c A068     		ldr	r0, [r4, #8]
 904 000e FFF7FEFF 		bl	mrbc_raw_free
 905              	.LVL123:
 906 0012 10BD     		pop	{r4, pc}
 907              		.cfi_endproc
 908              	.LFE37:
 909              		.size	mrbc_instance_delete, .-mrbc_instance_delete
 910              		.section	.text.mrbc_dec_ref_counter,"ax",%progbits
 911              		.align	2
 912              		.global	mrbc_dec_ref_counter
 913              		.thumb
 914              		.thumb_func
 915              		.type	mrbc_dec_ref_counter, %function
 916              	mrbc_dec_ref_counter:
 917              	.LFB31:
 208:value.c       ****   switch( v->tt ){
 918              		.loc 1 208 0
 919              		.cfi_startproc
 920              		@ args = 0, pretend = 0, frame = 0
 921              		@ frame_needed = 0, uses_anonymous_args = 0
 922              	.LVL124:
 923 0000 08B5     		push	{r3, lr}
 924              		.cfi_def_cfa_offset 8
 925              		.cfi_offset 3, -8
 926              		.cfi_offset 14, -4
 209:value.c       ****   case MRBC_TT_OBJECT:
ARM GAS  C:\Users\164\AppData\Local\Temp\cctl9rYr.s 			page 27


 927              		.loc 1 209 0
 928 0002 90F90030 		ldrsb	r3, [r0]
 929 0006 143B     		subs	r3, r3, #20
 930 0008 052B     		cmp	r3, #5
 931 000a 29D8     		bhi	.L100
 216:value.c       ****     v->instance->ref_count--;
 932              		.loc 1 216 0
 933 000c 8268     		ldr	r2, [r0, #8]
 934 000e 1388     		ldrh	r3, [r2]
 935 0010 2BB9     		cbnz	r3, .L103
 216:value.c       ****     v->instance->ref_count--;
 936              		.loc 1 216 0 is_stmt 0 discriminator 1
 937 0012 144B     		ldr	r3, .L112
 938 0014 144A     		ldr	r2, .L112+4
 939 0016 D821     		movs	r1, #216
 940 0018 1448     		ldr	r0, .L112+8
 941              	.LVL125:
 942 001a FFF7FEFF 		bl	__assert_func
 943              	.LVL126:
 944              	.L103:
 217:value.c       ****     break;
 945              		.loc 1 217 0 is_stmt 1
 946 001e 013B     		subs	r3, r3, #1
 947 0020 1380     		strh	r3, [r2]	@ movhi
 226:value.c       **** 
 948              		.loc 1 226 0
 949 0022 8268     		ldr	r2, [r0, #8]
 950 0024 1388     		ldrh	r3, [r2]
 951 0026 DBB9     		cbnz	r3, .L100
 228:value.c       ****   case MRBC_TT_OBJECT:	mrbc_instance_delete(v);	break;
 952              		.loc 1 228 0
 953 0028 90F90030 		ldrsb	r3, [r0]
 954 002c 143B     		subs	r3, r3, #20
 955 002e 052B     		cmp	r3, #5
 956 0030 16D8     		bhi	.L100
 957 0032 DFE803F0 		tbb	[pc, r3]
 958              	.L105:
 959 0036 03       		.byte	(.L104-.L105)/2
 960 0037 06       		.byte	(.L106-.L105)/2
 961 0038 0A       		.byte	(.L107-.L105)/2
 962 0039 0D       		.byte	(.L108-.L105)/2
 963 003a 10       		.byte	(.L109-.L105)/2
 964 003b 13       		.byte	(.L110-.L105)/2
 965              		.p2align 1
 966              	.L104:
 229:value.c       ****   case MRBC_TT_PROC:	mrbc_raw_free(v->handle);	break;
 967              		.loc 1 229 0
 968 003c FFF7FEFF 		bl	mrbc_instance_delete
 969              	.LVL127:
 970 0040 08BD     		pop	{r3, pc}
 971              	.LVL128:
 972              	.L106:
 230:value.c       ****   case MRBC_TT_ARRAY:	mrbc_array_delete(v);		break;
 973              		.loc 1 230 0
 974 0042 1046     		mov	r0, r2
 975              	.LVL129:
 976 0044 FFF7FEFF 		bl	mrbc_raw_free
ARM GAS  C:\Users\164\AppData\Local\Temp\cctl9rYr.s 			page 28


 977              	.LVL130:
 978 0048 08BD     		pop	{r3, pc}
 979              	.LVL131:
 980              	.L107:
 231:value.c       **** #if MRBC_USE_STRING
 981              		.loc 1 231 0
 982 004a FFF7FEFF 		bl	mrbc_array_delete
 983              	.LVL132:
 984 004e 08BD     		pop	{r3, pc}
 985              	.LVL133:
 986              	.L108:
 233:value.c       **** #endif
 987              		.loc 1 233 0
 988 0050 FFF7FEFF 		bl	mrbc_string_delete
 989              	.LVL134:
 990 0054 08BD     		pop	{r3, pc}
 991              	.LVL135:
 992              	.L109:
 235:value.c       ****   case MRBC_TT_HASH:	mrbc_hash_delete(v);		break;
 993              		.loc 1 235 0
 994 0056 FFF7FEFF 		bl	mrbc_range_delete
 995              	.LVL136:
 996 005a 08BD     		pop	{r3, pc}
 997              	.LVL137:
 998              	.L110:
 236:value.c       **** 
 999              		.loc 1 236 0
 1000 005c FFF7FEFF 		bl	mrbc_hash_delete
 1001              	.LVL138:
 1002              	.L100:
 1003 0060 08BD     		pop	{r3, pc}
 1004              	.L113:
 1005 0062 00BF     		.align	2
 1006              	.L112:
 1007 0064 44000000 		.word	.LC3
 1008 0068 0C000000 		.word	.LANCHOR0+12
 1009 006c 1C000000 		.word	.LC1
 1010              		.cfi_endproc
 1011              	.LFE31:
 1012              		.size	mrbc_dec_ref_counter, .-mrbc_dec_ref_counter
 1013              		.section	.text.mrbc_release,"ax",%progbits
 1014              		.align	2
 1015              		.global	mrbc_release
 1016              		.thumb
 1017              		.thumb_func
 1018              		.type	mrbc_release, %function
 1019              	mrbc_release:
 1020              	.LFB30:
 195:value.c       ****   mrbc_dec_ref_counter(v);
 1021              		.loc 1 195 0
 1022              		.cfi_startproc
 1023              		@ args = 0, pretend = 0, frame = 0
 1024              		@ frame_needed = 0, uses_anonymous_args = 0
 1025              	.LVL139:
 1026 0000 10B5     		push	{r4, lr}
 1027              		.cfi_def_cfa_offset 8
 1028              		.cfi_offset 4, -8
ARM GAS  C:\Users\164\AppData\Local\Temp\cctl9rYr.s 			page 29


 1029              		.cfi_offset 14, -4
 1030 0002 0446     		mov	r4, r0
 196:value.c       ****   v->tt = MRBC_TT_EMPTY;
 1031              		.loc 1 196 0
 1032 0004 FFF7FEFF 		bl	mrbc_dec_ref_counter
 1033              	.LVL140:
 197:value.c       **** }
 1034              		.loc 1 197 0
 1035 0008 0023     		movs	r3, #0
 1036 000a 2370     		strb	r3, [r4]
 1037 000c 10BD     		pop	{r4, pc}
 1038              		.cfi_endproc
 1039              	.LFE30:
 1040              		.size	mrbc_release, .-mrbc_release
 1041 000e 00BF     		.section	.text.mrbc_instance_setiv,"ax",%progbits
 1042              		.align	2
 1043              		.global	mrbc_instance_setiv
 1044              		.thumb
 1045              		.thumb_func
 1046              		.type	mrbc_instance_setiv, %function
 1047              	mrbc_instance_setiv:
 1048              	.LFB38:
 402:value.c       **** }
 403:value.c       **** 
 404:value.c       **** 
 405:value.c       **** //================================================================
 406:value.c       **** /*! instance variable setter
 407:value.c       **** 
 408:value.c       ****   @param  obj		pointer to target.
 409:value.c       ****   @param  sym_id	key symbol ID.
 410:value.c       ****   @param  v		pointer to value.
 411:value.c       **** */
 412:value.c       **** void mrbc_instance_setiv(mrbc_object *obj, mrbc_sym sym_id, mrbc_value *v)
 413:value.c       **** {
 1049              		.loc 1 413 0
 1050              		.cfi_startproc
 1051              		@ args = 0, pretend = 0, frame = 0
 1052              		@ frame_needed = 0, uses_anonymous_args = 0
 1053              	.LVL141:
 1054 0000 70B5     		push	{r4, r5, r6, lr}
 1055              		.cfi_def_cfa_offset 16
 1056              		.cfi_offset 4, -16
 1057              		.cfi_offset 5, -12
 1058              		.cfi_offset 6, -8
 1059              		.cfi_offset 14, -4
 1060 0002 0646     		mov	r6, r0
 1061 0004 0D46     		mov	r5, r1
 1062 0006 1446     		mov	r4, r2
 414:value.c       ****   mrbc_dup(v);
 1063              		.loc 1 414 0
 1064 0008 1046     		mov	r0, r2
 1065              	.LVL142:
 1066 000a FFF7FEFF 		bl	mrbc_dup
 1067              	.LVL143:
 415:value.c       ****   mrbc_kv_set( obj->instance->ivar, sym_id, v );
 1068              		.loc 1 415 0
 1069 000e B368     		ldr	r3, [r6, #8]
ARM GAS  C:\Users\164\AppData\Local\Temp\cctl9rYr.s 			page 30


 1070 0010 2246     		mov	r2, r4
 1071 0012 2946     		mov	r1, r5
 1072 0014 9868     		ldr	r0, [r3, #8]
 1073 0016 FFF7FEFF 		bl	mrbc_kv_set
 1074              	.LVL144:
 1075 001a 70BD     		pop	{r4, r5, r6, pc}
 1076              		.cfi_endproc
 1077              	.LFE38:
 1078              		.size	mrbc_instance_setiv, .-mrbc_instance_setiv
 1079              		.section	.text.mrbc_instance_getiv,"ax",%progbits
 1080              		.align	2
 1081              		.global	mrbc_instance_getiv
 1082              		.thumb
 1083              		.thumb_func
 1084              		.type	mrbc_instance_getiv, %function
 1085              	mrbc_instance_getiv:
 1086              	.LFB39:
 416:value.c       **** }
 417:value.c       **** 
 418:value.c       **** 
 419:value.c       **** //================================================================
 420:value.c       **** /*! instance variable getter
 421:value.c       **** 
 422:value.c       ****   @param  obj		pointer to target.
 423:value.c       ****   @param  sym_id	key symbol ID.
 424:value.c       ****   @return		value.
 425:value.c       **** */
 426:value.c       **** mrbc_value mrbc_instance_getiv(mrbc_object *obj, mrbc_sym sym_id)
 427:value.c       **** {
 1087              		.loc 1 427 0
 1088              		.cfi_startproc
 1089              		@ args = 0, pretend = 0, frame = 0
 1090              		@ frame_needed = 0, uses_anonymous_args = 0
 1091              	.LVL145:
 1092 0000 38B5     		push	{r3, r4, r5, lr}
 1093              		.cfi_def_cfa_offset 16
 1094              		.cfi_offset 3, -16
 1095              		.cfi_offset 4, -12
 1096              		.cfi_offset 5, -8
 1097              		.cfi_offset 14, -4
 1098 0002 0446     		mov	r4, r0
 428:value.c       ****   mrbc_value *v = mrbc_kv_get( obj->instance->ivar, sym_id );
 1099              		.loc 1 428 0
 1100 0004 8B68     		ldr	r3, [r1, #8]
 1101 0006 1146     		mov	r1, r2
 1102              	.LVL146:
 1103 0008 9868     		ldr	r0, [r3, #8]
 1104              	.LVL147:
 1105 000a FFF7FEFF 		bl	mrbc_kv_get
 1106              	.LVL148:
 429:value.c       ****   if( !v ) return mrbc_nil_value();
 1107              		.loc 1 429 0
 1108 000e 38B9     		cbnz	r0, .L119
 1109              		.loc 1 429 0 is_stmt 0 discriminator 1
 1110 0010 0023     		movs	r3, #0
 1111 0012 2360     		str	r3, [r4]
 1112 0014 6360     		str	r3, [r4, #4]
ARM GAS  C:\Users\164\AppData\Local\Temp\cctl9rYr.s 			page 31


 1113 0016 A360     		str	r3, [r4, #8]
 1114 0018 E360     		str	r3, [r4, #12]
 1115 001a 0123     		movs	r3, #1
 1116 001c 2370     		strb	r3, [r4]
 1117 001e 06E0     		b	.L118
 1118              	.L119:
 1119 0020 0546     		mov	r5, r0
 430:value.c       **** 
 431:value.c       ****   mrbc_dup(v);
 1120              		.loc 1 431 0 is_stmt 1
 1121 0022 FFF7FEFF 		bl	mrbc_dup
 1122              	.LVL149:
 432:value.c       ****   return *v;
 1123              		.loc 1 432 0
 1124 0026 95E80F00 		ldmia	r5, {r0, r1, r2, r3}
 1125 002a 84E80F00 		stmia	r4, {r0, r1, r2, r3}
 1126              	.LVL150:
 1127              	.L118:
 433:value.c       **** }
 1128              		.loc 1 433 0
 1129 002e 2046     		mov	r0, r4
 1130 0030 38BD     		pop	{r3, r4, r5, pc}
 1131              		.cfi_endproc
 1132              	.LFE39:
 1133              		.size	mrbc_instance_getiv, .-mrbc_instance_getiv
 1134 0032 00BF     		.section	.rodata
 1135              		.align	2
 1136              		.set	.LANCHOR0,. + 0
 1137              		.type	__func__.5208, %object
 1138              		.size	__func__.5208, 9
 1139              	__func__.5208:
 1140 0000 6D726263 		.ascii	"mrbc_dup\000"
 1140      5F647570 
 1140      00
 1141 0009 000000   		.space	3
 1142              		.type	__func__.5223, %object
 1143              		.size	__func__.5223, 21
 1144              	__func__.5223:
 1145 000c 6D726263 		.ascii	"mrbc_dec_ref_counter\000"
 1145      5F646563 
 1145      5F726566 
 1145      5F636F75 
 1145      6E746572 
 1146              		.section	.rodata.str1.4,"aMS",%progbits,1
 1147              		.align	2
 1148              	.LC0:
 1149 0000 762D3E69 		.ascii	"v->instance->ref_count > 0\000"
 1149      6E737461 
 1149      6E63652D 
 1149      3E726566 
 1149      5F636F75 
 1150 001b 00       		.space	1
 1151              	.LC1:
 1152 001c 76616C75 		.ascii	"value.c\000"
 1152      652E6300 
 1153              	.LC2:
 1154 0024 762D3E69 		.ascii	"v->instance->ref_count != 0xff\000"
ARM GAS  C:\Users\164\AppData\Local\Temp\cctl9rYr.s 			page 32


 1154      6E737461 
 1154      6E63652D 
 1154      3E726566 
 1154      5F636F75 
 1155 0043 00       		.space	1
 1156              	.LC3:
 1157 0044 762D3E69 		.ascii	"v->instance->ref_count != 0\000"
 1157      6E737461 
 1157      6E63652D 
 1157      3E726566 
 1157      5F636F75 
 1158              		.text
 1159              	.Letext0:
 1160              		.file 4 "c:\\program files (x86)\\cypress\\psoc creator\\4.2\\psoc creator\\import\\gnu\\arm\\5.4.
 1161              		.file 5 "c:\\program files (x86)\\cypress\\psoc creator\\4.2\\psoc creator\\import\\gnu\\arm\\5.4.
 1162              		.file 6 "value.h"
 1163              		.file 7 "vm.h"
 1164              		.file 8 "c_array.h"
 1165              		.file 9 "c_range.h"
 1166              		.file 10 "keyvalue.h"
 1167              		.file 11 "alloc.h"
 1168              		.file 12 "symbol.h"
 1169              		.file 13 "c:\\program files (x86)\\cypress\\psoc creator\\4.2\\psoc creator\\import\\gnu\\arm\\5.4
 1170              		.file 14 "class.h"
 1171              		.file 15 "c:\\program files (x86)\\cypress\\psoc creator\\4.2\\psoc creator\\import\\gnu\\arm\\5.4
 1172              		.section	.debug_info,"",%progbits
 1173              	.Ldebug_info0:
 1174 0000 690F0000 		.4byte	0xf69
 1175 0004 0400     		.2byte	0x4
 1176 0006 00000000 		.4byte	.Ldebug_abbrev0
 1177 000a 04       		.byte	0x4
 1178 000b 01       		.uleb128 0x1
 1179 000c 31020000 		.4byte	.LASF149
 1180 0010 0C       		.byte	0xc
 1181 0011 19000000 		.4byte	.LASF150
 1182 0015 9F030000 		.4byte	.LASF151
 1183 0019 00000000 		.4byte	.Ldebug_ranges0+0
 1184 001d 00000000 		.4byte	0
 1185 0021 00000000 		.4byte	.Ldebug_line0
 1186 0025 02       		.uleb128 0x2
 1187 0026 97040000 		.4byte	.LASF0
 1188 002a 04       		.byte	0x4
 1189 002b 1B       		.byte	0x1b
 1190 002c 30000000 		.4byte	0x30
 1191 0030 03       		.uleb128 0x3
 1192 0031 01       		.byte	0x1
 1193 0032 06       		.byte	0x6
 1194 0033 C9060000 		.4byte	.LASF2
 1195 0037 02       		.uleb128 0x2
 1196 0038 62050000 		.4byte	.LASF1
 1197 003c 04       		.byte	0x4
 1198 003d 1D       		.byte	0x1d
 1199 003e 42000000 		.4byte	0x42
 1200 0042 03       		.uleb128 0x3
 1201 0043 01       		.byte	0x1
 1202 0044 08       		.byte	0x8
 1203 0045 4C060000 		.4byte	.LASF3
ARM GAS  C:\Users\164\AppData\Local\Temp\cctl9rYr.s 			page 33


 1204 0049 02       		.uleb128 0x2
 1205 004a 15040000 		.4byte	.LASF4
 1206 004e 04       		.byte	0x4
 1207 004f 29       		.byte	0x29
 1208 0050 54000000 		.4byte	0x54
 1209 0054 03       		.uleb128 0x3
 1210 0055 02       		.byte	0x2
 1211 0056 05       		.byte	0x5
 1212 0057 DF040000 		.4byte	.LASF5
 1213 005b 02       		.uleb128 0x2
 1214 005c D0010000 		.4byte	.LASF6
 1215 0060 04       		.byte	0x4
 1216 0061 2B       		.byte	0x2b
 1217 0062 66000000 		.4byte	0x66
 1218 0066 03       		.uleb128 0x3
 1219 0067 02       		.byte	0x2
 1220 0068 07       		.byte	0x7
 1221 0069 D5060000 		.4byte	.LASF7
 1222 006d 02       		.uleb128 0x2
 1223 006e D9000000 		.4byte	.LASF8
 1224 0072 04       		.byte	0x4
 1225 0073 3F       		.byte	0x3f
 1226 0074 78000000 		.4byte	0x78
 1227 0078 03       		.uleb128 0x3
 1228 0079 04       		.byte	0x4
 1229 007a 05       		.byte	0x5
 1230 007b 0F050000 		.4byte	.LASF9
 1231 007f 03       		.uleb128 0x3
 1232 0080 04       		.byte	0x4
 1233 0081 07       		.byte	0x7
 1234 0082 BC050000 		.4byte	.LASF10
 1235 0086 03       		.uleb128 0x3
 1236 0087 08       		.byte	0x8
 1237 0088 05       		.byte	0x5
 1238 0089 DE030000 		.4byte	.LASF11
 1239 008d 03       		.uleb128 0x3
 1240 008e 08       		.byte	0x8
 1241 008f 07       		.byte	0x7
 1242 0090 B0010000 		.4byte	.LASF12
 1243 0094 04       		.uleb128 0x4
 1244 0095 04       		.byte	0x4
 1245 0096 05       		.byte	0x5
 1246 0097 696E7400 		.ascii	"int\000"
 1247 009b 03       		.uleb128 0x3
 1248 009c 04       		.byte	0x4
 1249 009d 07       		.byte	0x7
 1250 009e A7000000 		.4byte	.LASF13
 1251 00a2 02       		.uleb128 0x2
 1252 00a3 78010000 		.4byte	.LASF14
 1253 00a7 05       		.byte	0x5
 1254 00a8 14       		.byte	0x14
 1255 00a9 25000000 		.4byte	0x25
 1256 00ad 02       		.uleb128 0x2
 1257 00ae 8A030000 		.4byte	.LASF15
 1258 00b2 05       		.byte	0x5
 1259 00b3 18       		.byte	0x18
 1260 00b4 37000000 		.4byte	0x37
ARM GAS  C:\Users\164\AppData\Local\Temp\cctl9rYr.s 			page 34


 1261 00b8 02       		.uleb128 0x2
 1262 00b9 99010000 		.4byte	.LASF16
 1263 00bd 05       		.byte	0x5
 1264 00be 20       		.byte	0x20
 1265 00bf 49000000 		.4byte	0x49
 1266 00c3 02       		.uleb128 0x2
 1267 00c4 B2040000 		.4byte	.LASF17
 1268 00c8 05       		.byte	0x5
 1269 00c9 24       		.byte	0x24
 1270 00ca 5B000000 		.4byte	0x5b
 1271 00ce 02       		.uleb128 0x2
 1272 00cf E6050000 		.4byte	.LASF18
 1273 00d3 05       		.byte	0x5
 1274 00d4 2C       		.byte	0x2c
 1275 00d5 6D000000 		.4byte	0x6d
 1276 00d9 03       		.uleb128 0x3
 1277 00da 08       		.byte	0x8
 1278 00db 04       		.byte	0x4
 1279 00dc A6040000 		.4byte	.LASF19
 1280 00e0 03       		.uleb128 0x3
 1281 00e1 04       		.byte	0x4
 1282 00e2 07       		.byte	0x7
 1283 00e3 A7050000 		.4byte	.LASF20
 1284 00e7 03       		.uleb128 0x3
 1285 00e8 01       		.byte	0x1
 1286 00e9 08       		.byte	0x8
 1287 00ea 32030000 		.4byte	.LASF21
 1288 00ee 05       		.uleb128 0x5
 1289 00ef 04       		.byte	0x4
 1290 00f0 F4000000 		.4byte	0xf4
 1291 00f4 06       		.uleb128 0x6
 1292 00f5 E7000000 		.4byte	0xe7
 1293 00f9 02       		.uleb128 0x2
 1294 00fa C7010000 		.4byte	.LASF22
 1295 00fe 06       		.byte	0x6
 1296 00ff 1A       		.byte	0x1a
 1297 0100 CE000000 		.4byte	0xce
 1298 0104 02       		.uleb128 0x2
 1299 0105 4E030000 		.4byte	.LASF23
 1300 0109 06       		.byte	0x6
 1301 010a 1B       		.byte	0x1b
 1302 010b 0F010000 		.4byte	0x10f
 1303 010f 03       		.uleb128 0x3
 1304 0110 08       		.byte	0x8
 1305 0111 04       		.byte	0x4
 1306 0112 0C070000 		.4byte	.LASF24
 1307 0116 02       		.uleb128 0x2
 1308 0117 03070000 		.4byte	.LASF25
 1309 011b 06       		.byte	0x6
 1310 011c 1C       		.byte	0x1c
 1311 011d B8000000 		.4byte	0xb8
 1312 0121 02       		.uleb128 0x2
 1313 0122 38000000 		.4byte	.LASF26
 1314 0126 06       		.byte	0x6
 1315 0127 2C       		.byte	0x2c
 1316 0128 2C010000 		.4byte	0x12c
 1317 012c 05       		.uleb128 0x5
ARM GAS  C:\Users\164\AppData\Local\Temp\cctl9rYr.s 			page 35


 1318 012d 04       		.byte	0x4
 1319 012e 32010000 		.4byte	0x132
 1320 0132 07       		.uleb128 0x7
 1321 0133 47010000 		.4byte	0x147
 1322 0137 08       		.uleb128 0x8
 1323 0138 47010000 		.4byte	0x147
 1324 013c 08       		.uleb128 0x8
 1325 013d EF010000 		.4byte	0x1ef
 1326 0141 08       		.uleb128 0x8
 1327 0142 94000000 		.4byte	0x94
 1328 0146 00       		.byte	0
 1329 0147 05       		.uleb128 0x5
 1330 0148 04       		.byte	0x4
 1331 0149 4D010000 		.4byte	0x14d
 1332 014d 09       		.uleb128 0x9
 1333 014e 564D00   		.ascii	"VM\000"
 1334 0151 7006     		.2byte	0x670
 1335 0153 07       		.byte	0x7
 1336 0154 43       		.byte	0x43
 1337 0155 EF010000 		.4byte	0x1ef
 1338 0159 0A       		.uleb128 0xa
 1339 015a E3000000 		.4byte	.LASF27
 1340 015e 07       		.byte	0x7
 1341 015f 44       		.byte	0x44
 1342 0160 F9060000 		.4byte	0x6f9
 1343 0164 00       		.byte	0
 1344 0165 0A       		.uleb128 0xa
 1345 0166 EB010000 		.4byte	.LASF28
 1346 016a 07       		.byte	0x7
 1347 016b 46       		.byte	0x46
 1348 016c AD000000 		.4byte	0xad
 1349 0170 04       		.byte	0x4
 1350 0171 0B       		.uleb128 0xb
 1351 0172 6D726200 		.ascii	"mrb\000"
 1352 0176 07       		.byte	0x7
 1353 0177 47       		.byte	0x47
 1354 0178 16070000 		.4byte	0x716
 1355 017c 08       		.byte	0x8
 1356 017d 0A       		.uleb128 0xa
 1357 017e 29020000 		.4byte	.LASF29
 1358 0182 07       		.byte	0x7
 1359 0183 49       		.byte	0x49
 1360 0184 F9060000 		.4byte	0x6f9
 1361 0188 0C       		.byte	0xc
 1362 0189 0B       		.uleb128 0xb
 1363 018a 706300   		.ascii	"pc\000"
 1364 018d 07       		.byte	0x7
 1365 018e 4A       		.byte	0x4a
 1366 018f C3000000 		.4byte	0xc3
 1367 0193 10       		.byte	0x10
 1368 0194 0A       		.uleb128 0xa
 1369 0195 3B010000 		.4byte	.LASF30
 1370 0199 07       		.byte	0x7
 1371 019a 4D       		.byte	0x4d
 1372 019b 21070000 		.4byte	0x721
 1373 019f 18       		.byte	0x18
 1374 01a0 0C       		.uleb128 0xc
ARM GAS  C:\Users\164\AppData\Local\Temp\cctl9rYr.s 			page 36


 1375 01a1 6B010000 		.4byte	.LASF31
 1376 01a5 07       		.byte	0x7
 1377 01a6 4E       		.byte	0x4e
 1378 01a7 FF060000 		.4byte	0x6ff
 1379 01ab 5806     		.2byte	0x658
 1380 01ad 0C       		.uleb128 0xc
 1381 01ae BB040000 		.4byte	.LASF32
 1382 01b2 07       		.byte	0x7
 1383 01b3 4F       		.byte	0x4f
 1384 01b4 31070000 		.4byte	0x731
 1385 01b8 5C06     		.2byte	0x65c
 1386 01ba 0C       		.uleb128 0xc
 1387 01bb 92030000 		.4byte	.LASF33
 1388 01bf 07       		.byte	0x7
 1389 01c0 51       		.byte	0x51
 1390 01c1 05070000 		.4byte	0x705
 1391 01c5 6006     		.2byte	0x660
 1392 01c7 0C       		.uleb128 0xc
 1393 01c8 A7060000 		.4byte	.LASF34
 1394 01cc 07       		.byte	0x7
 1395 01cd 53       		.byte	0x53
 1396 01ce CE000000 		.4byte	0xce
 1397 01d2 6406     		.2byte	0x664
 1398 01d4 0C       		.uleb128 0xc
 1399 01d5 B9060000 		.4byte	.LASF35
 1400 01d9 07       		.byte	0x7
 1401 01da 55       		.byte	0x55
 1402 01db 37070000 		.4byte	0x737
 1403 01df 6806     		.2byte	0x668
 1404 01e1 0C       		.uleb128 0xc
 1405 01e2 03030000 		.4byte	.LASF36
 1406 01e6 07       		.byte	0x7
 1407 01e7 56       		.byte	0x56
 1408 01e8 A2000000 		.4byte	0xa2
 1409 01ec 6906     		.2byte	0x669
 1410 01ee 00       		.byte	0
 1411 01ef 05       		.uleb128 0x5
 1412 01f0 04       		.byte	0x4
 1413 01f1 F5010000 		.4byte	0x1f5
 1414 01f5 0D       		.uleb128 0xd
 1415 01f6 34050000 		.4byte	.LASF37
 1416 01fa 10       		.byte	0x10
 1417 01fb 06       		.byte	0x6
 1418 01fc 68       		.byte	0x68
 1419 01fd 16020000 		.4byte	0x216
 1420 0201 0E       		.uleb128 0xe
 1421 0202 747400   		.ascii	"tt\000"
 1422 0205 06       		.byte	0x6
 1423 0206 69       		.byte	0x69
 1424 0207 7D020000 		.4byte	0x27d
 1425 020b 01       		.byte	0x1
 1426 020c 08       		.byte	0x8
 1427 020d 00       		.byte	0
 1428 020e 00       		.byte	0
 1429 020f 0F       		.uleb128 0xf
 1430 0210 88020000 		.4byte	0x288
 1431 0214 08       		.byte	0x8
ARM GAS  C:\Users\164\AppData\Local\Temp\cctl9rYr.s 			page 37


 1432 0215 00       		.byte	0
 1433 0216 10       		.uleb128 0x10
 1434 0217 01       		.byte	0x1
 1435 0218 30000000 		.4byte	0x30
 1436 021c 06       		.byte	0x6
 1437 021d 33       		.byte	0x33
 1438 021e 7D020000 		.4byte	0x27d
 1439 0222 11       		.uleb128 0x11
 1440 0223 40010000 		.4byte	.LASF38
 1441 0227 7F       		.sleb128 -1
 1442 0228 12       		.uleb128 0x12
 1443 0229 B9000000 		.4byte	.LASF39
 1444 022d 00       		.byte	0
 1445 022e 12       		.uleb128 0x12
 1446 022f 70030000 		.4byte	.LASF40
 1447 0233 01       		.byte	0x1
 1448 0234 12       		.uleb128 0x12
 1449 0235 01050000 		.4byte	.LASF41
 1450 0239 02       		.byte	0x2
 1451 023a 12       		.uleb128 0x12
 1452 023b C9040000 		.4byte	.LASF42
 1453 023f 03       		.byte	0x3
 1454 0240 12       		.uleb128 0x12
 1455 0241 40040000 		.4byte	.LASF43
 1456 0245 04       		.byte	0x4
 1457 0246 12       		.uleb128 0x12
 1458 0247 44000000 		.4byte	.LASF44
 1459 024b 05       		.byte	0x5
 1460 024c 12       		.uleb128 0x12
 1461 024d A1010000 		.4byte	.LASF45
 1462 0251 06       		.byte	0x6
 1463 0252 12       		.uleb128 0x12
 1464 0253 4A050000 		.4byte	.LASF46
 1465 0257 07       		.byte	0x7
 1466 0258 12       		.uleb128 0x12
 1467 0259 88040000 		.4byte	.LASF47
 1468 025d 14       		.byte	0x14
 1469 025e 12       		.uleb128 0x12
 1470 025f 13070000 		.4byte	.LASF48
 1471 0263 15       		.byte	0x15
 1472 0264 12       		.uleb128 0x12
 1473 0265 7C030000 		.4byte	.LASF49
 1474 0269 16       		.byte	0x16
 1475 026a 12       		.uleb128 0x12
 1476 026b 64040000 		.4byte	.LASF50
 1477 026f 17       		.byte	0x17
 1478 0270 12       		.uleb128 0x12
 1479 0271 07040000 		.4byte	.LASF51
 1480 0275 18       		.byte	0x18
 1481 0276 12       		.uleb128 0x12
 1482 0277 7B060000 		.4byte	.LASF52
 1483 027b 19       		.byte	0x19
 1484 027c 00       		.byte	0
 1485 027d 02       		.uleb128 0x2
 1486 027e 06020000 		.4byte	.LASF53
 1487 0282 06       		.byte	0x6
 1488 0283 49       		.byte	0x49
ARM GAS  C:\Users\164\AppData\Local\Temp\cctl9rYr.s 			page 38


 1489 0284 16020000 		.4byte	0x216
 1490 0288 13       		.uleb128 0x13
 1491 0289 08       		.byte	0x8
 1492 028a 06       		.byte	0x6
 1493 028b 6A       		.byte	0x6a
 1494 028c 06030000 		.4byte	0x306
 1495 0290 14       		.uleb128 0x14
 1496 0291 6900     		.ascii	"i\000"
 1497 0293 06       		.byte	0x6
 1498 0294 6B       		.byte	0x6b
 1499 0295 F9000000 		.4byte	0xf9
 1500 0299 14       		.uleb128 0x14
 1501 029a 6400     		.ascii	"d\000"
 1502 029c 06       		.byte	0x6
 1503 029d 6D       		.byte	0x6d
 1504 029e 04010000 		.4byte	0x104
 1505 02a2 14       		.uleb128 0x14
 1506 02a3 636C7300 		.ascii	"cls\000"
 1507 02a7 06       		.byte	0x6
 1508 02a8 6F       		.byte	0x6f
 1509 02a9 37030000 		.4byte	0x337
 1510 02ad 15       		.uleb128 0x15
 1511 02ae E8060000 		.4byte	.LASF54
 1512 02b2 06       		.byte	0x6
 1513 02b3 70       		.byte	0x70
 1514 02b4 EF010000 		.4byte	0x1ef
 1515 02b8 15       		.uleb128 0x15
 1516 02b9 20020000 		.4byte	.LASF55
 1517 02bd 06       		.byte	0x6
 1518 02be 71       		.byte	0x71
 1519 02bf 88030000 		.4byte	0x388
 1520 02c3 15       		.uleb128 0x15
 1521 02c4 9D050000 		.4byte	.LASF56
 1522 02c8 06       		.byte	0x6
 1523 02c9 72       		.byte	0x72
 1524 02ca E2030000 		.4byte	0x3e2
 1525 02ce 15       		.uleb128 0x15
 1526 02cf A0040000 		.4byte	.LASF57
 1527 02d3 06       		.byte	0x6
 1528 02d4 73       		.byte	0x73
 1529 02d5 33040000 		.4byte	0x433
 1530 02d9 15       		.uleb128 0x15
 1531 02da 64030000 		.4byte	.LASF58
 1532 02de 06       		.byte	0x6
 1533 02df 74       		.byte	0x74
 1534 02e0 78040000 		.4byte	0x478
 1535 02e4 14       		.uleb128 0x14
 1536 02e5 73747200 		.ascii	"str\000"
 1537 02e9 06       		.byte	0x6
 1538 02ea 75       		.byte	0x75
 1539 02eb EE000000 		.4byte	0xee
 1540 02ef 15       		.uleb128 0x15
 1541 02f0 5E040000 		.4byte	.LASF59
 1542 02f4 06       		.byte	0x6
 1543 02f5 76       		.byte	0x76
 1544 02f6 C9040000 		.4byte	0x4c9
 1545 02fa 15       		.uleb128 0x15
ARM GAS  C:\Users\164\AppData\Local\Temp\cctl9rYr.s 			page 39


 1546 02fb 2F050000 		.4byte	.LASF60
 1547 02ff 06       		.byte	0x6
 1548 0300 77       		.byte	0x77
 1549 0301 1A050000 		.4byte	0x51a
 1550 0305 00       		.byte	0
 1551 0306 0D       		.uleb128 0xd
 1552 0307 7F010000 		.4byte	.LASF61
 1553 030b 0C       		.byte	0xc
 1554 030c 06       		.byte	0x6
 1555 030d 84       		.byte	0x84
 1556 030e 37030000 		.4byte	0x337
 1557 0312 0A       		.uleb128 0xa
 1558 0313 00040000 		.4byte	.LASF62
 1559 0317 06       		.byte	0x6
 1560 0318 85       		.byte	0x85
 1561 0319 16010000 		.4byte	0x116
 1562 031d 00       		.byte	0
 1563 031e 0A       		.uleb128 0xa
 1564 031f 5E030000 		.4byte	.LASF63
 1565 0323 06       		.byte	0x6
 1566 0324 89       		.byte	0x89
 1567 0325 37030000 		.4byte	0x337
 1568 0329 04       		.byte	0x4
 1569 032a 0A       		.uleb128 0xa
 1570 032b CF020000 		.4byte	.LASF64
 1571 032f 06       		.byte	0x6
 1572 0330 8A       		.byte	0x8a
 1573 0331 E2030000 		.4byte	0x3e2
 1574 0335 08       		.byte	0x8
 1575 0336 00       		.byte	0
 1576 0337 05       		.uleb128 0x5
 1577 0338 04       		.byte	0x4
 1578 0339 06030000 		.4byte	0x306
 1579 033d 0D       		.uleb128 0xd
 1580 033e 0B060000 		.4byte	.LASF65
 1581 0342 0C       		.byte	0xc
 1582 0343 06       		.byte	0x6
 1583 0344 93       		.byte	0x93
 1584 0345 88030000 		.4byte	0x388
 1585 0349 0A       		.uleb128 0xa
 1586 034a 52000000 		.4byte	.LASF66
 1587 034e 06       		.byte	0x6
 1588 034f 94       		.byte	0x94
 1589 0350 C3000000 		.4byte	0xc3
 1590 0354 00       		.byte	0
 1591 0355 0E       		.uleb128 0xe
 1592 0356 747400   		.ascii	"tt\000"
 1593 0359 06       		.byte	0x6
 1594 035a 94       		.byte	0x94
 1595 035b 7D020000 		.4byte	0x27d
 1596 035f 01       		.byte	0x1
 1597 0360 08       		.byte	0x8
 1598 0361 00       		.byte	0
 1599 0362 02       		.byte	0x2
 1600 0363 0B       		.uleb128 0xb
 1601 0364 636C7300 		.ascii	"cls\000"
 1602 0368 06       		.byte	0x6
ARM GAS  C:\Users\164\AppData\Local\Temp\cctl9rYr.s 			page 40


 1603 0369 96       		.byte	0x96
 1604 036a 37030000 		.4byte	0x337
 1605 036e 04       		.byte	0x4
 1606 036f 0A       		.uleb128 0xa
 1607 0370 59030000 		.4byte	.LASF67
 1608 0374 06       		.byte	0x6
 1609 0375 97       		.byte	0x97
 1610 0376 7D050000 		.4byte	0x57d
 1611 037a 08       		.byte	0x8
 1612 037b 0A       		.uleb128 0xa
 1613 037c 6B030000 		.4byte	.LASF68
 1614 0380 06       		.byte	0x6
 1615 0381 98       		.byte	0x98
 1616 0382 83050000 		.4byte	0x583
 1617 0386 0C       		.byte	0xc
 1618 0387 00       		.byte	0
 1619 0388 05       		.uleb128 0x5
 1620 0389 04       		.byte	0x4
 1621 038a 3D030000 		.4byte	0x33d
 1622 038e 0D       		.uleb128 0xd
 1623 038f 1E010000 		.4byte	.LASF69
 1624 0393 10       		.byte	0x10
 1625 0394 06       		.byte	0x6
 1626 0395 A1       		.byte	0xa1
 1627 0396 E2030000 		.4byte	0x3e2
 1628 039a 0A       		.uleb128 0xa
 1629 039b 52000000 		.4byte	.LASF66
 1630 039f 06       		.byte	0x6
 1631 03a0 A2       		.byte	0xa2
 1632 03a1 C3000000 		.4byte	0xc3
 1633 03a5 00       		.byte	0
 1634 03a6 0E       		.uleb128 0xe
 1635 03a7 747400   		.ascii	"tt\000"
 1636 03aa 06       		.byte	0x6
 1637 03ab A2       		.byte	0xa2
 1638 03ac 7D020000 		.4byte	0x27d
 1639 03b0 01       		.byte	0x1
 1640 03b1 08       		.byte	0x8
 1641 03b2 00       		.byte	0
 1642 03b3 02       		.byte	0x2
 1643 03b4 16       		.uleb128 0x16
 1644 03b5 B2060000 		.4byte	.LASF70
 1645 03b9 06       		.byte	0x6
 1646 03ba A4       		.byte	0xa4
 1647 03bb 9B000000 		.4byte	0x9b
 1648 03bf 04       		.byte	0x4
 1649 03c0 01       		.byte	0x1
 1650 03c1 07       		.byte	0x7
 1651 03c2 00       		.byte	0
 1652 03c3 0A       		.uleb128 0xa
 1653 03c4 00040000 		.4byte	.LASF62
 1654 03c8 06       		.byte	0x6
 1655 03c9 A5       		.byte	0xa5
 1656 03ca 16010000 		.4byte	0x116
 1657 03ce 04       		.byte	0x4
 1658 03cf 0A       		.uleb128 0xa
 1659 03d0 B4000000 		.4byte	.LASF71
ARM GAS  C:\Users\164\AppData\Local\Temp\cctl9rYr.s 			page 41


 1660 03d4 06       		.byte	0x6
 1661 03d5 A9       		.byte	0xa9
 1662 03d6 E2030000 		.4byte	0x3e2
 1663 03da 08       		.byte	0x8
 1664 03db 0F       		.uleb128 0xf
 1665 03dc 9D050000 		.4byte	0x59d
 1666 03e0 0C       		.byte	0xc
 1667 03e1 00       		.byte	0
 1668 03e2 05       		.uleb128 0x5
 1669 03e3 04       		.byte	0x4
 1670 03e4 8E030000 		.4byte	0x38e
 1671 03e8 0D       		.uleb128 0xd
 1672 03e9 FC060000 		.4byte	.LASF72
 1673 03ed 0C       		.byte	0xc
 1674 03ee 08       		.byte	0x8
 1675 03ef 1B       		.byte	0x1b
 1676 03f0 33040000 		.4byte	0x433
 1677 03f4 0A       		.uleb128 0xa
 1678 03f5 52000000 		.4byte	.LASF66
 1679 03f9 08       		.byte	0x8
 1680 03fa 1C       		.byte	0x1c
 1681 03fb C3000000 		.4byte	0xc3
 1682 03ff 00       		.byte	0
 1683 0400 0E       		.uleb128 0xe
 1684 0401 747400   		.ascii	"tt\000"
 1685 0404 08       		.byte	0x8
 1686 0405 1C       		.byte	0x1c
 1687 0406 7D020000 		.4byte	0x27d
 1688 040a 01       		.byte	0x1
 1689 040b 08       		.byte	0x8
 1690 040c 00       		.byte	0
 1691 040d 02       		.byte	0x2
 1692 040e 0A       		.uleb128 0xa
 1693 040f C5020000 		.4byte	.LASF73
 1694 0413 08       		.byte	0x8
 1695 0414 1E       		.byte	0x1e
 1696 0415 C3000000 		.4byte	0xc3
 1697 0419 04       		.byte	0x4
 1698 041a 0A       		.uleb128 0xa
 1699 041b F7030000 		.4byte	.LASF74
 1700 041f 08       		.byte	0x8
 1701 0420 1F       		.byte	0x1f
 1702 0421 C3000000 		.4byte	0xc3
 1703 0425 06       		.byte	0x6
 1704 0426 0A       		.uleb128 0xa
 1705 0427 6B030000 		.4byte	.LASF68
 1706 042b 08       		.byte	0x8
 1707 042c 20       		.byte	0x20
 1708 042d FF060000 		.4byte	0x6ff
 1709 0431 08       		.byte	0x8
 1710 0432 00       		.byte	0
 1711 0433 05       		.uleb128 0x5
 1712 0434 04       		.byte	0x4
 1713 0435 E8030000 		.4byte	0x3e8
 1714 0439 0D       		.uleb128 0xd
 1715 043a 87050000 		.4byte	.LASF75
 1716 043e 0C       		.byte	0xc
ARM GAS  C:\Users\164\AppData\Local\Temp\cctl9rYr.s 			page 42


 1717 043f 02       		.byte	0x2
 1718 0440 1D       		.byte	0x1d
 1719 0441 78040000 		.4byte	0x478
 1720 0445 0A       		.uleb128 0xa
 1721 0446 52000000 		.4byte	.LASF66
 1722 044a 02       		.byte	0x2
 1723 044b 1E       		.byte	0x1e
 1724 044c C3000000 		.4byte	0xc3
 1725 0450 00       		.byte	0
 1726 0451 0E       		.uleb128 0xe
 1727 0452 747400   		.ascii	"tt\000"
 1728 0455 02       		.byte	0x2
 1729 0456 1E       		.byte	0x1e
 1730 0457 7D020000 		.4byte	0x27d
 1731 045b 01       		.byte	0x1
 1732 045c 08       		.byte	0x8
 1733 045d 00       		.byte	0
 1734 045e 02       		.byte	0x2
 1735 045f 0A       		.uleb128 0xa
 1736 0460 59040000 		.4byte	.LASF76
 1737 0464 02       		.byte	0x2
 1738 0465 20       		.byte	0x20
 1739 0466 C3000000 		.4byte	0xc3
 1740 046a 04       		.byte	0x4
 1741 046b 0A       		.uleb128 0xa
 1742 046c 6B030000 		.4byte	.LASF68
 1743 0470 02       		.byte	0x2
 1744 0471 21       		.byte	0x21
 1745 0472 7C060000 		.4byte	0x67c
 1746 0476 08       		.byte	0x8
 1747 0477 00       		.byte	0
 1748 0478 05       		.uleb128 0x5
 1749 0479 04       		.byte	0x4
 1750 047a 39040000 		.4byte	0x439
 1751 047e 0D       		.uleb128 0xd
 1752 047f 55070000 		.4byte	.LASF77
 1753 0483 28       		.byte	0x28
 1754 0484 09       		.byte	0x9
 1755 0485 1C       		.byte	0x1c
 1756 0486 C9040000 		.4byte	0x4c9
 1757 048a 0A       		.uleb128 0xa
 1758 048b 52000000 		.4byte	.LASF66
 1759 048f 09       		.byte	0x9
 1760 0490 1D       		.byte	0x1d
 1761 0491 C3000000 		.4byte	0xc3
 1762 0495 00       		.byte	0
 1763 0496 0E       		.uleb128 0xe
 1764 0497 747400   		.ascii	"tt\000"
 1765 049a 09       		.byte	0x9
 1766 049b 1D       		.byte	0x1d
 1767 049c 7D020000 		.4byte	0x27d
 1768 04a0 01       		.byte	0x1
 1769 04a1 08       		.byte	0x8
 1770 04a2 00       		.byte	0
 1771 04a3 02       		.byte	0x2
 1772 04a4 0A       		.uleb128 0xa
 1773 04a5 29010000 		.4byte	.LASF78
ARM GAS  C:\Users\164\AppData\Local\Temp\cctl9rYr.s 			page 43


 1774 04a9 09       		.byte	0x9
 1775 04aa 1F       		.byte	0x1f
 1776 04ab AD000000 		.4byte	0xad
 1777 04af 03       		.byte	0x3
 1778 04b0 0A       		.uleb128 0xa
 1779 04b1 FD020000 		.4byte	.LASF79
 1780 04b5 09       		.byte	0x9
 1781 04b6 20       		.byte	0x20
 1782 04b7 2B050000 		.4byte	0x52b
 1783 04bb 08       		.byte	0x8
 1784 04bc 0A       		.uleb128 0xa
 1785 04bd 14000000 		.4byte	.LASF80
 1786 04c1 09       		.byte	0x9
 1787 04c2 21       		.byte	0x21
 1788 04c3 2B050000 		.4byte	0x52b
 1789 04c7 18       		.byte	0x18
 1790 04c8 00       		.byte	0
 1791 04c9 05       		.uleb128 0x5
 1792 04ca 04       		.byte	0x4
 1793 04cb 7E040000 		.4byte	0x47e
 1794 04cf 0D       		.uleb128 0xd
 1795 04d0 21000000 		.4byte	.LASF81
 1796 04d4 0C       		.byte	0xc
 1797 04d5 03       		.byte	0x3
 1798 04d6 1C       		.byte	0x1c
 1799 04d7 1A050000 		.4byte	0x51a
 1800 04db 0A       		.uleb128 0xa
 1801 04dc 52000000 		.4byte	.LASF66
 1802 04e0 03       		.byte	0x3
 1803 04e1 1F       		.byte	0x1f
 1804 04e2 C3000000 		.4byte	0xc3
 1805 04e6 00       		.byte	0
 1806 04e7 0E       		.uleb128 0xe
 1807 04e8 747400   		.ascii	"tt\000"
 1808 04eb 03       		.byte	0x3
 1809 04ec 1F       		.byte	0x1f
 1810 04ed 7D020000 		.4byte	0x27d
 1811 04f1 01       		.byte	0x1
 1812 04f2 08       		.byte	0x8
 1813 04f3 00       		.byte	0
 1814 04f4 02       		.byte	0x2
 1815 04f5 0A       		.uleb128 0xa
 1816 04f6 C5020000 		.4byte	.LASF73
 1817 04fa 03       		.byte	0x3
 1818 04fb 21       		.byte	0x21
 1819 04fc C3000000 		.4byte	0xc3
 1820 0500 04       		.byte	0x4
 1821 0501 0A       		.uleb128 0xa
 1822 0502 F7030000 		.4byte	.LASF74
 1823 0506 03       		.byte	0x3
 1824 0507 22       		.byte	0x22
 1825 0508 C3000000 		.4byte	0xc3
 1826 050c 06       		.byte	0x6
 1827 050d 0A       		.uleb128 0xa
 1828 050e 6B030000 		.4byte	.LASF68
 1829 0512 03       		.byte	0x3
 1830 0513 23       		.byte	0x23
ARM GAS  C:\Users\164\AppData\Local\Temp\cctl9rYr.s 			page 44


 1831 0514 FF060000 		.4byte	0x6ff
 1832 0518 08       		.byte	0x8
 1833 0519 00       		.byte	0
 1834 051a 05       		.uleb128 0x5
 1835 051b 04       		.byte	0x4
 1836 051c CF040000 		.4byte	0x4cf
 1837 0520 02       		.uleb128 0x2
 1838 0521 5A060000 		.4byte	.LASF82
 1839 0525 06       		.byte	0x6
 1840 0526 7C       		.byte	0x7c
 1841 0527 F5010000 		.4byte	0x1f5
 1842 052b 02       		.uleb128 0x2
 1843 052c EC030000 		.4byte	.LASF83
 1844 0530 06       		.byte	0x6
 1845 0531 7D       		.byte	0x7d
 1846 0532 F5010000 		.4byte	0x1f5
 1847 0536 02       		.uleb128 0x2
 1848 0537 CE000000 		.4byte	.LASF84
 1849 053b 06       		.byte	0x6
 1850 053c 8B       		.byte	0x8b
 1851 053d 06030000 		.4byte	0x306
 1852 0541 02       		.uleb128 0x2
 1853 0542 CE050000 		.4byte	.LASF85
 1854 0546 06       		.byte	0x6
 1855 0547 8C       		.byte	0x8c
 1856 0548 06030000 		.4byte	0x306
 1857 054c 0D       		.uleb128 0xd
 1858 054d E8000000 		.4byte	.LASF86
 1859 0551 08       		.byte	0x8
 1860 0552 0A       		.byte	0xa
 1861 0553 24       		.byte	0x24
 1862 0554 7D050000 		.4byte	0x57d
 1863 0558 0A       		.uleb128 0xa
 1864 0559 C5020000 		.4byte	.LASF73
 1865 055d 0A       		.byte	0xa
 1866 055e 25       		.byte	0x25
 1867 055f C3000000 		.4byte	0xc3
 1868 0563 00       		.byte	0
 1869 0564 0A       		.uleb128 0xa
 1870 0565 F7030000 		.4byte	.LASF74
 1871 0569 0A       		.byte	0xa
 1872 056a 26       		.byte	0x26
 1873 056b C3000000 		.4byte	0xc3
 1874 056f 02       		.byte	0x2
 1875 0570 0A       		.uleb128 0xa
 1876 0571 6B030000 		.4byte	.LASF68
 1877 0575 0A       		.byte	0xa
 1878 0576 27       		.byte	0x27
 1879 0577 76060000 		.4byte	0x676
 1880 057b 04       		.byte	0x4
 1881 057c 00       		.byte	0
 1882 057d 05       		.uleb128 0x5
 1883 057e 04       		.byte	0x4
 1884 057f 4C050000 		.4byte	0x54c
 1885 0583 17       		.uleb128 0x17
 1886 0584 AD000000 		.4byte	0xad
 1887 0588 92050000 		.4byte	0x592
ARM GAS  C:\Users\164\AppData\Local\Temp\cctl9rYr.s 			page 45


 1888 058c 18       		.uleb128 0x18
 1889 058d E0000000 		.4byte	0xe0
 1890 0591 00       		.byte	0
 1891 0592 02       		.uleb128 0x2
 1892 0593 D8050000 		.4byte	.LASF87
 1893 0597 06       		.byte	0x6
 1894 0598 99       		.byte	0x99
 1895 0599 3D030000 		.4byte	0x33d
 1896 059d 13       		.uleb128 0x13
 1897 059e 04       		.byte	0x4
 1898 059f 06       		.byte	0x6
 1899 05a0 AA       		.byte	0xaa
 1900 05a1 BC050000 		.4byte	0x5bc
 1901 05a5 15       		.uleb128 0x15
 1902 05a6 E3000000 		.4byte	.LASF27
 1903 05aa 06       		.byte	0x6
 1904 05ab AB       		.byte	0xab
 1905 05ac 35060000 		.4byte	0x635
 1906 05b0 15       		.uleb128 0x15
 1907 05b1 24010000 		.4byte	.LASF88
 1908 05b5 06       		.byte	0x6
 1909 05b6 AC       		.byte	0xac
 1910 05b7 21010000 		.4byte	0x121
 1911 05bb 00       		.byte	0
 1912 05bc 0D       		.uleb128 0xd
 1913 05bd 06060000 		.4byte	.LASF89
 1914 05c1 1C       		.byte	0x1c
 1915 05c2 07       		.byte	0x7
 1916 05c3 20       		.byte	0x20
 1917 05c4 35060000 		.4byte	0x635
 1918 05c8 0A       		.uleb128 0xa
 1919 05c9 F1010000 		.4byte	.LASF90
 1920 05cd 07       		.byte	0x7
 1921 05ce 21       		.byte	0x21
 1922 05cf C3000000 		.4byte	0xc3
 1923 05d3 00       		.byte	0
 1924 05d4 0A       		.uleb128 0xa
 1925 05d5 BF020000 		.4byte	.LASF91
 1926 05d9 07       		.byte	0x7
 1927 05da 22       		.byte	0x22
 1928 05db C3000000 		.4byte	0xc3
 1929 05df 02       		.byte	0x2
 1930 05e0 0A       		.uleb128 0xa
 1931 05e1 01060000 		.4byte	.LASF92
 1932 05e5 07       		.byte	0x7
 1933 05e6 23       		.byte	0x23
 1934 05e7 C3000000 		.4byte	0xc3
 1935 05eb 04       		.byte	0x4
 1936 05ec 0A       		.uleb128 0xa
 1937 05ed 3C050000 		.4byte	.LASF93
 1938 05f1 07       		.byte	0x7
 1939 05f2 24       		.byte	0x24
 1940 05f3 C3000000 		.4byte	0xc3
 1941 05f7 06       		.byte	0x6
 1942 05f8 0A       		.uleb128 0xa
 1943 05f9 76050000 		.4byte	.LASF94
 1944 05fd 07       		.byte	0x7
ARM GAS  C:\Users\164\AppData\Local\Temp\cctl9rYr.s 			page 46


 1945 05fe 25       		.byte	0x25
 1946 05ff C3000000 		.4byte	0xc3
 1947 0603 08       		.byte	0x8
 1948 0604 0A       		.uleb128 0xa
 1949 0605 F8020000 		.4byte	.LASF95
 1950 0609 07       		.byte	0x7
 1951 060a 27       		.byte	0x27
 1952 060b 7C060000 		.4byte	0x67c
 1953 060f 0C       		.byte	0xc
 1954 0610 0A       		.uleb128 0xa
 1955 0611 59010000 		.4byte	.LASF96
 1956 0615 07       		.byte	0x7
 1957 0616 28       		.byte	0x28
 1958 0617 82060000 		.4byte	0x682
 1959 061b 10       		.byte	0x10
 1960 061c 0A       		.uleb128 0xa
 1961 061d 15030000 		.4byte	.LASF97
 1962 0621 07       		.byte	0x7
 1963 0622 29       		.byte	0x29
 1964 0623 7C060000 		.4byte	0x67c
 1965 0627 14       		.byte	0x14
 1966 0628 0A       		.uleb128 0xa
 1967 0629 6C050000 		.4byte	.LASF98
 1968 062d 07       		.byte	0x7
 1969 062e 2A       		.byte	0x2a
 1970 062f 8E060000 		.4byte	0x68e
 1971 0633 18       		.byte	0x18
 1972 0634 00       		.byte	0
 1973 0635 05       		.uleb128 0x5
 1974 0636 04       		.byte	0x4
 1975 0637 BC050000 		.4byte	0x5bc
 1976 063b 02       		.uleb128 0x2
 1977 063c 4F010000 		.4byte	.LASF99
 1978 0640 06       		.byte	0x6
 1979 0641 AE       		.byte	0xae
 1980 0642 8E030000 		.4byte	0x38e
 1981 0646 0D       		.uleb128 0xd
 1982 0647 20070000 		.4byte	.LASF100
 1983 064b 18       		.byte	0x18
 1984 064c 0A       		.byte	0xa
 1985 064d 1A       		.byte	0x1a
 1986 064e 6B060000 		.4byte	0x66b
 1987 0652 0A       		.uleb128 0xa
 1988 0653 00040000 		.4byte	.LASF62
 1989 0657 0A       		.byte	0xa
 1990 0658 1B       		.byte	0x1b
 1991 0659 16010000 		.4byte	0x116
 1992 065d 00       		.byte	0
 1993 065e 0A       		.uleb128 0xa
 1994 065f 4F070000 		.4byte	.LASF101
 1995 0663 0A       		.byte	0xa
 1996 0664 1C       		.byte	0x1c
 1997 0665 2B050000 		.4byte	0x52b
 1998 0669 08       		.byte	0x8
 1999 066a 00       		.byte	0
 2000 066b 02       		.uleb128 0x2
 2001 066c F8000000 		.4byte	.LASF102
ARM GAS  C:\Users\164\AppData\Local\Temp\cctl9rYr.s 			page 47


 2002 0670 0A       		.byte	0xa
 2003 0671 1E       		.byte	0x1e
 2004 0672 46060000 		.4byte	0x646
 2005 0676 05       		.uleb128 0x5
 2006 0677 04       		.byte	0x4
 2007 0678 6B060000 		.4byte	0x66b
 2008 067c 05       		.uleb128 0x5
 2009 067d 04       		.byte	0x4
 2010 067e AD000000 		.4byte	0xad
 2011 0682 05       		.uleb128 0x5
 2012 0683 04       		.byte	0x4
 2013 0684 88060000 		.4byte	0x688
 2014 0688 05       		.uleb128 0x5
 2015 0689 04       		.byte	0x4
 2016 068a 20050000 		.4byte	0x520
 2017 068e 05       		.uleb128 0x5
 2018 068f 04       		.byte	0x4
 2019 0690 35060000 		.4byte	0x635
 2020 0694 02       		.uleb128 0x2
 2021 0695 58050000 		.4byte	.LASF103
 2022 0699 07       		.byte	0x7
 2023 069a 2C       		.byte	0x2c
 2024 069b BC050000 		.4byte	0x5bc
 2025 069f 0D       		.uleb128 0xd
 2026 06a0 EF020000 		.4byte	.LASF104
 2027 06a4 18       		.byte	0x18
 2028 06a5 07       		.byte	0x7
 2029 06a6 34       		.byte	0x34
 2030 06a7 F3060000 		.4byte	0x6f3
 2031 06ab 0A       		.uleb128 0xa
 2032 06ac 36010000 		.4byte	.LASF105
 2033 06b0 07       		.byte	0x7
 2034 06b1 35       		.byte	0x35
 2035 06b2 F3060000 		.4byte	0x6f3
 2036 06b6 00       		.byte	0
 2037 06b7 0A       		.uleb128 0xa
 2038 06b8 29020000 		.4byte	.LASF29
 2039 06bc 07       		.byte	0x7
 2040 06bd 36       		.byte	0x36
 2041 06be F9060000 		.4byte	0x6f9
 2042 06c2 04       		.byte	0x4
 2043 06c3 0B       		.uleb128 0xb
 2044 06c4 706300   		.ascii	"pc\000"
 2045 06c7 07       		.byte	0x7
 2046 06c8 37       		.byte	0x37
 2047 06c9 C3000000 		.4byte	0xc3
 2048 06cd 08       		.byte	0x8
 2049 06ce 0A       		.uleb128 0xa
 2050 06cf 6B010000 		.4byte	.LASF31
 2051 06d3 07       		.byte	0x7
 2052 06d4 38       		.byte	0x38
 2053 06d5 FF060000 		.4byte	0x6ff
 2054 06d9 0C       		.byte	0xc
 2055 06da 0A       		.uleb128 0xa
 2056 06db 92030000 		.4byte	.LASF33
 2057 06df 07       		.byte	0x7
 2058 06e0 39       		.byte	0x39
ARM GAS  C:\Users\164\AppData\Local\Temp\cctl9rYr.s 			page 48


 2059 06e1 05070000 		.4byte	0x705
 2060 06e5 10       		.byte	0x10
 2061 06e6 0A       		.uleb128 0xa
 2062 06e7 C7000000 		.4byte	.LASF106
 2063 06eb 07       		.byte	0x7
 2064 06ec 3A       		.byte	0x3a
 2065 06ed AD000000 		.4byte	0xad
 2066 06f1 14       		.byte	0x14
 2067 06f2 00       		.byte	0
 2068 06f3 05       		.uleb128 0x5
 2069 06f4 04       		.byte	0x4
 2070 06f5 9F060000 		.4byte	0x69f
 2071 06f9 05       		.uleb128 0x5
 2072 06fa 04       		.byte	0x4
 2073 06fb 94060000 		.4byte	0x694
 2074 06ff 05       		.uleb128 0x5
 2075 0700 04       		.byte	0x4
 2076 0701 2B050000 		.4byte	0x52b
 2077 0705 05       		.uleb128 0x5
 2078 0706 04       		.byte	0x4
 2079 0707 36050000 		.4byte	0x536
 2080 070b 02       		.uleb128 0x2
 2081 070c 8F050000 		.4byte	.LASF107
 2082 0710 07       		.byte	0x7
 2083 0711 3B       		.byte	0x3b
 2084 0712 9F060000 		.4byte	0x69f
 2085 0716 05       		.uleb128 0x5
 2086 0717 04       		.byte	0x4
 2087 0718 1C070000 		.4byte	0x71c
 2088 071c 06       		.uleb128 0x6
 2089 071d AD000000 		.4byte	0xad
 2090 0721 17       		.uleb128 0x17
 2091 0722 2B050000 		.4byte	0x52b
 2092 0726 31070000 		.4byte	0x731
 2093 072a 19       		.uleb128 0x19
 2094 072b E0000000 		.4byte	0xe0
 2095 072f 63       		.byte	0x63
 2096 0730 00       		.byte	0
 2097 0731 05       		.uleb128 0x5
 2098 0732 04       		.byte	0x4
 2099 0733 0B070000 		.4byte	0x70b
 2100 0737 1A       		.uleb128 0x1a
 2101 0738 A2000000 		.4byte	0xa2
 2102 073c 1B       		.uleb128 0x1b
 2103 073d 5C000000 		.4byte	.LASF152
 2104 0741 03       		.byte	0x3
 2105 0742 4C       		.byte	0x4c
 2106 0743 03       		.byte	0x3
 2107 0744 54070000 		.4byte	0x754
 2108 0748 1C       		.uleb128 0x1c
 2109 0749 2F050000 		.4byte	.LASF60
 2110 074d 03       		.byte	0x3
 2111 074e 4C       		.byte	0x4c
 2112 074f FF060000 		.4byte	0x6ff
 2113 0753 00       		.byte	0
 2114 0754 1D       		.uleb128 0x1d
 2115 0755 11020000 		.4byte	.LASF108
ARM GAS  C:\Users\164\AppData\Local\Temp\cctl9rYr.s 			page 49


 2116 0759 01       		.byte	0x1
 2117 075a 21       		.byte	0x21
 2118 075b 88060000 		.4byte	0x688
 2119 075f 00000000 		.4byte	.LFB25
 2120 0763 14000000 		.4byte	.LFE25-.LFB25
 2121 0767 01       		.uleb128 0x1
 2122 0768 9C       		.byte	0x9c
 2123 0769 AF070000 		.4byte	0x7af
 2124 076d 1E       		.uleb128 0x1e
 2125 076e 766D00   		.ascii	"vm\000"
 2126 0771 01       		.byte	0x1
 2127 0772 21       		.byte	0x21
 2128 0773 47010000 		.4byte	0x147
 2129 0777 00000000 		.4byte	.LLST0
 2130 077b 1E       		.uleb128 0x1e
 2131 077c 747400   		.ascii	"tt\000"
 2132 077f 01       		.byte	0x1
 2133 0780 21       		.byte	0x21
 2134 0781 7D020000 		.4byte	0x27d
 2135 0785 21000000 		.4byte	.LLST1
 2136 0789 1F       		.uleb128 0x1f
 2137 078a 70747200 		.ascii	"ptr\000"
 2138 078e 01       		.byte	0x1
 2139 078f 23       		.byte	0x23
 2140 0790 88060000 		.4byte	0x688
 2141 0794 42000000 		.4byte	.LLST2
 2142 0798 20       		.uleb128 0x20
 2143 0799 0A000000 		.4byte	.LVL2
 2144 079d 900E0000 		.4byte	0xe90
 2145 07a1 21       		.uleb128 0x21
 2146 07a2 01       		.uleb128 0x1
 2147 07a3 50       		.byte	0x50
 2148 07a4 03       		.uleb128 0x3
 2149 07a5 F3       		.byte	0xf3
 2150 07a6 01       		.uleb128 0x1
 2151 07a7 50       		.byte	0x50
 2152 07a8 21       		.uleb128 0x21
 2153 07a9 01       		.uleb128 0x1
 2154 07aa 51       		.byte	0x51
 2155 07ab 01       		.uleb128 0x1
 2156 07ac 40       		.byte	0x40
 2157 07ad 00       		.byte	0
 2158 07ae 00       		.byte	0
 2159 07af 1D       		.uleb128 0x1d
 2160 07b0 0D010000 		.4byte	.LASF109
 2161 07b4 01       		.byte	0x1
 2162 07b5 2B       		.byte	0x2b
 2163 07b6 1F080000 		.4byte	0x81f
 2164 07ba 00000000 		.4byte	.LFB26
 2165 07be 22000000 		.4byte	.LFE26-.LFB26
 2166 07c2 01       		.uleb128 0x1
 2167 07c3 9C       		.byte	0x9c
 2168 07c4 1F080000 		.4byte	0x81f
 2169 07c8 1E       		.uleb128 0x1e
 2170 07c9 766D00   		.ascii	"vm\000"
 2171 07cc 01       		.byte	0x1
 2172 07cd 2B       		.byte	0x2b
ARM GAS  C:\Users\164\AppData\Local\Temp\cctl9rYr.s 			page 50


 2173 07ce 47010000 		.4byte	0x147
 2174 07d2 60000000 		.4byte	.LLST3
 2175 07d6 22       		.uleb128 0x22
 2176 07d7 71050000 		.4byte	.LASF110
 2177 07db 01       		.byte	0x1
 2178 07dc 2B       		.byte	0x2b
 2179 07dd EE000000 		.4byte	0xee
 2180 07e1 81000000 		.4byte	.LLST4
 2181 07e5 1F       		.uleb128 0x1f
 2182 07e6 70747200 		.ascii	"ptr\000"
 2183 07ea 01       		.byte	0x1
 2184 07eb 2D       		.byte	0x2d
 2185 07ec 1F080000 		.4byte	0x81f
 2186 07f0 9F000000 		.4byte	.LLST5
 2187 07f4 23       		.uleb128 0x23
 2188 07f5 0A000000 		.4byte	.LVL6
 2189 07f9 900E0000 		.4byte	0xe90
 2190 07fd 0E080000 		.4byte	0x80e
 2191 0801 21       		.uleb128 0x21
 2192 0802 01       		.uleb128 0x1
 2193 0803 50       		.byte	0x50
 2194 0804 03       		.uleb128 0x3
 2195 0805 F3       		.byte	0xf3
 2196 0806 01       		.uleb128 0x1
 2197 0807 50       		.byte	0x50
 2198 0808 21       		.uleb128 0x21
 2199 0809 01       		.uleb128 0x1
 2200 080a 51       		.byte	0x51
 2201 080b 01       		.uleb128 0x1
 2202 080c 40       		.byte	0x40
 2203 080d 00       		.byte	0
 2204 080e 20       		.uleb128 0x20
 2205 080f 18000000 		.4byte	.LVL8
 2206 0813 9B0E0000 		.4byte	0xe9b
 2207 0817 21       		.uleb128 0x21
 2208 0818 01       		.uleb128 0x1
 2209 0819 50       		.byte	0x50
 2210 081a 02       		.uleb128 0x2
 2211 081b 75       		.byte	0x75
 2212 081c 00       		.sleb128 0
 2213 081d 00       		.byte	0
 2214 081e 00       		.byte	0
 2215 081f 05       		.uleb128 0x5
 2216 0820 04       		.byte	0x4
 2217 0821 3B060000 		.4byte	0x63b
 2218 0825 24       		.uleb128 0x24
 2219 0826 88060000 		.4byte	.LASF153
 2220 082a 02       		.byte	0x2
 2221 082b 38       		.byte	0x38
 2222 082c 94000000 		.4byte	0x94
 2223 0830 03       		.byte	0x3
 2224 0831 60080000 		.4byte	0x860
 2225 0835 25       		.uleb128 0x25
 2226 0836 763100   		.ascii	"v1\000"
 2227 0839 02       		.byte	0x2
 2228 083a 38       		.byte	0x38
 2229 083b 60080000 		.4byte	0x860
ARM GAS  C:\Users\164\AppData\Local\Temp\cctl9rYr.s 			page 51


 2230 083f 25       		.uleb128 0x25
 2231 0840 763200   		.ascii	"v2\000"
 2232 0843 02       		.byte	0x2
 2233 0844 38       		.byte	0x38
 2234 0845 60080000 		.4byte	0x860
 2235 0849 26       		.uleb128 0x26
 2236 084a 6C656E00 		.ascii	"len\000"
 2237 084e 02       		.byte	0x2
 2238 084f 3A       		.byte	0x3a
 2239 0850 94000000 		.4byte	0x94
 2240 0854 26       		.uleb128 0x26
 2241 0855 72657300 		.ascii	"res\000"
 2242 0859 02       		.byte	0x2
 2243 085a 3D       		.byte	0x3d
 2244 085b 94000000 		.4byte	0x94
 2245 085f 00       		.byte	0
 2246 0860 05       		.uleb128 0x5
 2247 0861 04       		.byte	0x4
 2248 0862 66080000 		.4byte	0x866
 2249 0866 06       		.uleb128 0x6
 2250 0867 2B050000 		.4byte	0x52b
 2251 086b 27       		.uleb128 0x27
 2252 086c EF060000 		.4byte	.LASF111
 2253 0870 01       		.byte	0x1
 2254 0871 44       		.byte	0x44
 2255 0872 94000000 		.4byte	0x94
 2256 0876 00000000 		.4byte	.LFB27
 2257 087a 38010000 		.4byte	.LFE27-.LFB27
 2258 087e 01       		.uleb128 0x1
 2259 087f 9C       		.byte	0x9c
 2260 0880 49090000 		.4byte	0x949
 2261 0884 1E       		.uleb128 0x1e
 2262 0885 763100   		.ascii	"v1\000"
 2263 0888 01       		.byte	0x1
 2264 0889 44       		.byte	0x44
 2265 088a 60080000 		.4byte	0x860
 2266 088e BD000000 		.4byte	.LLST6
 2267 0892 1E       		.uleb128 0x1e
 2268 0893 763200   		.ascii	"v2\000"
 2269 0896 01       		.byte	0x1
 2270 0897 44       		.byte	0x44
 2271 0898 60080000 		.4byte	0x860
 2272 089c 23020000 		.4byte	.LLST7
 2273 08a0 1F       		.uleb128 0x1f
 2274 08a1 643100   		.ascii	"d1\000"
 2275 08a4 01       		.byte	0x1
 2276 08a5 46       		.byte	0x46
 2277 08a6 04010000 		.4byte	0x104
 2278 08aa 08030000 		.4byte	.LLST8
 2279 08ae 1F       		.uleb128 0x1f
 2280 08af 643200   		.ascii	"d2\000"
 2281 08b2 01       		.byte	0x1
 2282 08b3 46       		.byte	0x46
 2283 08b4 04010000 		.4byte	0x104
 2284 08b8 50030000 		.4byte	.LLST9
 2285 08bc 28       		.uleb128 0x28
 2286 08bd 31040000 		.4byte	.LASF119
ARM GAS  C:\Users\164\AppData\Local\Temp\cctl9rYr.s 			page 52


 2287 08c1 01       		.byte	0x1
 2288 08c2 8A       		.byte	0x8a
 2289 08c3 F4000000 		.4byte	.L10
 2290 08c7 29       		.uleb128 0x29
 2291 08c8 25080000 		.4byte	0x825
 2292 08cc C0000000 		.4byte	.LBB6
 2293 08d0 20000000 		.4byte	.LBE6-.LBB6
 2294 08d4 01       		.byte	0x1
 2295 08d5 7C       		.byte	0x7c
 2296 08d6 2D090000 		.4byte	0x92d
 2297 08da 2A       		.uleb128 0x2a
 2298 08db 3F080000 		.4byte	0x83f
 2299 08df 98030000 		.4byte	.LLST10
 2300 08e3 2A       		.uleb128 0x2a
 2301 08e4 35080000 		.4byte	0x835
 2302 08e8 C4030000 		.4byte	.LLST11
 2303 08ec 2B       		.uleb128 0x2b
 2304 08ed C0000000 		.4byte	.LBB7
 2305 08f1 20000000 		.4byte	.LBE7-.LBB7
 2306 08f5 2C       		.uleb128 0x2c
 2307 08f6 49080000 		.4byte	0x849
 2308 08fa E5030000 		.4byte	.LLST12
 2309 08fe 2C       		.uleb128 0x2c
 2310 08ff 54080000 		.4byte	0x854
 2311 0903 0D040000 		.4byte	.LLST13
 2312 0907 20       		.uleb128 0x20
 2313 0908 D8000000 		.4byte	.LVL41
 2314 090c A60E0000 		.4byte	0xea6
 2315 0910 21       		.uleb128 0x21
 2316 0911 01       		.uleb128 0x1
 2317 0912 52       		.byte	0x52
 2318 0913 16       		.uleb128 0x16
 2319 0914 75       		.byte	0x75
 2320 0915 00       		.sleb128 0
 2321 0916 74       		.byte	0x74
 2322 0917 00       		.sleb128 0
 2323 0918 74       		.byte	0x74
 2324 0919 00       		.sleb128 0
 2325 091a 40       		.byte	0x40
 2326 091b 4B       		.byte	0x4b
 2327 091c 24       		.byte	0x24
 2328 091d 22       		.byte	0x22
 2329 091e 75       		.byte	0x75
 2330 091f 00       		.sleb128 0
 2331 0920 40       		.byte	0x40
 2332 0921 4B       		.byte	0x4b
 2333 0922 24       		.byte	0x24
 2334 0923 22       		.byte	0x22
 2335 0924 2A       		.byte	0x2a
 2336 0925 28       		.byte	0x28
 2337 0926 0100     		.2byte	0x1
 2338 0928 16       		.byte	0x16
 2339 0929 13       		.byte	0x13
 2340 092a 00       		.byte	0
 2341 092b 00       		.byte	0
 2342 092c 00       		.byte	0
 2343 092d 2D       		.uleb128 0x2d
ARM GAS  C:\Users\164\AppData\Local\Temp\cctl9rYr.s 			page 53


 2344 092e BC000000 		.4byte	.LVL35
 2345 0932 B10E0000 		.4byte	0xeb1
 2346 0936 2D       		.uleb128 0x2d
 2347 0937 E8000000 		.4byte	.LVL45
 2348 093b BC0E0000 		.4byte	0xebc
 2349 093f 2D       		.uleb128 0x2d
 2350 0940 F0000000 		.4byte	.LVL47
 2351 0944 C70E0000 		.4byte	0xec7
 2352 0948 00       		.byte	0
 2353 0949 1D       		.uleb128 0x1d
 2354 094a 29060000 		.4byte	.LASF112
 2355 094e 01       		.byte	0x1
 2356 094f 96       		.byte	0x96
 2357 0950 94000000 		.4byte	0x94
 2358 0954 00000000 		.4byte	.LFB28
 2359 0958 1E000000 		.4byte	.LFE28-.LFB28
 2360 095c 01       		.uleb128 0x1
 2361 095d 9C       		.byte	0x9c
 2362 095e A4090000 		.4byte	0x9a4
 2363 0962 1E       		.uleb128 0x1e
 2364 0963 6F626A00 		.ascii	"obj\000"
 2365 0967 01       		.byte	0x1
 2366 0968 96       		.byte	0x96
 2367 0969 60080000 		.4byte	0x860
 2368 096d 20040000 		.4byte	.LLST14
 2369 0971 1E       		.uleb128 0x1e
 2370 0972 636C7300 		.ascii	"cls\000"
 2371 0976 01       		.byte	0x1
 2372 0977 96       		.byte	0x96
 2373 0978 A4090000 		.4byte	0x9a4
 2374 097c 4C040000 		.4byte	.LLST15
 2375 0980 1F       		.uleb128 0x1f
 2376 0981 6300     		.ascii	"c\000"
 2377 0983 01       		.byte	0x1
 2378 0984 98       		.byte	0x98
 2379 0985 AF090000 		.4byte	0x9af
 2380 0989 6A040000 		.4byte	.LLST16
 2381 098d 20       		.uleb128 0x20
 2382 098e 0C000000 		.4byte	.LVL60
 2383 0992 D20E0000 		.4byte	0xed2
 2384 0996 21       		.uleb128 0x21
 2385 0997 01       		.uleb128 0x1
 2386 0998 50       		.byte	0x50
 2387 0999 01       		.uleb128 0x1
 2388 099a 30       		.byte	0x30
 2389 099b 21       		.uleb128 0x21
 2390 099c 01       		.uleb128 0x1
 2391 099d 51       		.byte	0x51
 2392 099e 03       		.uleb128 0x3
 2393 099f F3       		.byte	0xf3
 2394 09a0 01       		.uleb128 0x1
 2395 09a1 50       		.byte	0x50
 2396 09a2 00       		.byte	0
 2397 09a3 00       		.byte	0
 2398 09a4 05       		.uleb128 0x5
 2399 09a5 04       		.byte	0x4
 2400 09a6 AA090000 		.4byte	0x9aa
ARM GAS  C:\Users\164\AppData\Local\Temp\cctl9rYr.s 			page 54


 2401 09aa 06       		.uleb128 0x6
 2402 09ab 41050000 		.4byte	0x541
 2403 09af 05       		.uleb128 0x5
 2404 09b0 04       		.byte	0x4
 2405 09b1 B5090000 		.4byte	0x9b5
 2406 09b5 06       		.uleb128 0x6
 2407 09b6 36050000 		.4byte	0x536
 2408 09ba 2E       		.uleb128 0x2e
 2409 09bb 41050000 		.4byte	.LASF114
 2410 09bf 01       		.byte	0x1
 2411 09c0 A7       		.byte	0xa7
 2412 09c1 00000000 		.4byte	.LFB29
 2413 09c5 44000000 		.4byte	.LFE29-.LFB29
 2414 09c9 01       		.uleb128 0x1
 2415 09ca 9C       		.byte	0x9c
 2416 09cb 460A0000 		.4byte	0xa46
 2417 09cf 1E       		.uleb128 0x1e
 2418 09d0 7600     		.ascii	"v\000"
 2419 09d2 01       		.byte	0x1
 2420 09d3 A7       		.byte	0xa7
 2421 09d4 FF060000 		.4byte	0x6ff
 2422 09d8 7D040000 		.4byte	.LLST17
 2423 09dc 2F       		.uleb128 0x2f
 2424 09dd D6040000 		.4byte	.LASF113
 2425 09e1 560A0000 		.4byte	0xa56
 2426 09e5 05       		.uleb128 0x5
 2427 09e6 03       		.byte	0x3
 2428 09e7 00000000 		.4byte	__func__.5208
 2429 09eb 23       		.uleb128 0x23
 2430 09ec 1E000000 		.4byte	.LVL66
 2431 09f0 DD0E0000 		.4byte	0xedd
 2432 09f4 1A0A0000 		.4byte	0xa1a
 2433 09f8 21       		.uleb128 0x21
 2434 09f9 01       		.uleb128 0x1
 2435 09fa 50       		.byte	0x50
 2436 09fb 05       		.uleb128 0x5
 2437 09fc 03       		.byte	0x3
 2438 09fd 1C000000 		.4byte	.LC1
 2439 0a01 21       		.uleb128 0x21
 2440 0a02 01       		.uleb128 0x1
 2441 0a03 51       		.byte	0x51
 2442 0a04 02       		.uleb128 0x2
 2443 0a05 08       		.byte	0x8
 2444 0a06 B0       		.byte	0xb0
 2445 0a07 21       		.uleb128 0x21
 2446 0a08 01       		.uleb128 0x1
 2447 0a09 52       		.byte	0x52
 2448 0a0a 05       		.uleb128 0x5
 2449 0a0b 03       		.byte	0x3
 2450 0a0c 00000000 		.4byte	.LANCHOR0
 2451 0a10 21       		.uleb128 0x21
 2452 0a11 01       		.uleb128 0x1
 2453 0a12 53       		.byte	0x53
 2454 0a13 05       		.uleb128 0x5
 2455 0a14 03       		.byte	0x3
 2456 0a15 00000000 		.4byte	.LC0
 2457 0a19 00       		.byte	0
ARM GAS  C:\Users\164\AppData\Local\Temp\cctl9rYr.s 			page 55


 2458 0a1a 20       		.uleb128 0x20
 2459 0a1b 2E000000 		.4byte	.LVL68
 2460 0a1f DD0E0000 		.4byte	0xedd
 2461 0a23 21       		.uleb128 0x21
 2462 0a24 01       		.uleb128 0x1
 2463 0a25 50       		.byte	0x50
 2464 0a26 05       		.uleb128 0x5
 2465 0a27 03       		.byte	0x3
 2466 0a28 1C000000 		.4byte	.LC1
 2467 0a2c 21       		.uleb128 0x21
 2468 0a2d 01       		.uleb128 0x1
 2469 0a2e 51       		.byte	0x51
 2470 0a2f 02       		.uleb128 0x2
 2471 0a30 08       		.byte	0x8
 2472 0a31 B1       		.byte	0xb1
 2473 0a32 21       		.uleb128 0x21
 2474 0a33 01       		.uleb128 0x1
 2475 0a34 52       		.byte	0x52
 2476 0a35 05       		.uleb128 0x5
 2477 0a36 03       		.byte	0x3
 2478 0a37 00000000 		.4byte	.LANCHOR0
 2479 0a3b 21       		.uleb128 0x21
 2480 0a3c 01       		.uleb128 0x1
 2481 0a3d 53       		.byte	0x53
 2482 0a3e 05       		.uleb128 0x5
 2483 0a3f 03       		.byte	0x3
 2484 0a40 24000000 		.4byte	.LC2
 2485 0a44 00       		.byte	0
 2486 0a45 00       		.byte	0
 2487 0a46 17       		.uleb128 0x17
 2488 0a47 F4000000 		.4byte	0xf4
 2489 0a4b 560A0000 		.4byte	0xa56
 2490 0a4f 19       		.uleb128 0x19
 2491 0a50 E0000000 		.4byte	0xe0
 2492 0a54 08       		.byte	0x8
 2493 0a55 00       		.byte	0
 2494 0a56 06       		.uleb128 0x6
 2495 0a57 460A0000 		.4byte	0xa46
 2496 0a5b 2E       		.uleb128 0x2e
 2497 0a5c 27000000 		.4byte	.LASF115
 2498 0a60 01       		.byte	0x1
 2499 0a61 FB       		.byte	0xfb
 2500 0a62 00000000 		.4byte	.LFB32
 2501 0a66 2C000000 		.4byte	.LFE32-.LFB32
 2502 0a6a 01       		.uleb128 0x1
 2503 0a6b 9C       		.byte	0x9c
 2504 0a6c C80A0000 		.4byte	0xac8
 2505 0a70 1E       		.uleb128 0x1e
 2506 0a71 7600     		.ascii	"v\000"
 2507 0a73 01       		.byte	0x1
 2508 0a74 FB       		.byte	0xfb
 2509 0a75 FF060000 		.4byte	0x6ff
 2510 0a79 C2040000 		.4byte	.LLST18
 2511 0a7d 30       		.uleb128 0x30
 2512 0a7e 3C070000 		.4byte	0x73c
 2513 0a82 26000000 		.4byte	.LBB8
 2514 0a86 06000000 		.4byte	.LBE8-.LBB8
ARM GAS  C:\Users\164\AppData\Local\Temp\cctl9rYr.s 			page 56


 2515 0a8a 01       		.byte	0x1
 2516 0a8b 0301     		.2byte	0x103
 2517 0a8d AC0A0000 		.4byte	0xaac
 2518 0a91 2A       		.uleb128 0x2a
 2519 0a92 48070000 		.4byte	0x748
 2520 0a96 2E050000 		.4byte	.LLST19
 2521 0a9a 20       		.uleb128 0x20
 2522 0a9b 2A000000 		.4byte	.LVL76
 2523 0a9f E80E0000 		.4byte	0xee8
 2524 0aa3 21       		.uleb128 0x21
 2525 0aa4 01       		.uleb128 0x1
 2526 0aa5 50       		.byte	0x50
 2527 0aa6 03       		.uleb128 0x3
 2528 0aa7 F3       		.byte	0xf3
 2529 0aa8 01       		.uleb128 0x1
 2530 0aa9 50       		.byte	0x50
 2531 0aaa 00       		.byte	0
 2532 0aab 00       		.byte	0
 2533 0aac 2D       		.uleb128 0x2d
 2534 0aad 18000000 		.4byte	.LVL70
 2535 0ab1 E80E0000 		.4byte	0xee8
 2536 0ab5 2D       		.uleb128 0x2d
 2537 0ab6 1E000000 		.4byte	.LVL72
 2538 0aba F30E0000 		.4byte	0xef3
 2539 0abe 2D       		.uleb128 0x2d
 2540 0abf 24000000 		.4byte	.LVL74
 2541 0ac3 FE0E0000 		.4byte	0xefe
 2542 0ac7 00       		.byte	0
 2543 0ac8 31       		.uleb128 0x31
 2544 0ac9 4F040000 		.4byte	.LASF116
 2545 0acd 01       		.byte	0x1
 2546 0ace 1501     		.2byte	0x115
 2547 0ad0 F9000000 		.4byte	0xf9
 2548 0ad4 00000000 		.4byte	.LFB33
 2549 0ad8 5C000000 		.4byte	.LFE33-.LFB33
 2550 0adc 01       		.uleb128 0x1
 2551 0add 9C       		.byte	0x9c
 2552 0ade 520B0000 		.4byte	0xb52
 2553 0ae2 32       		.uleb128 0x32
 2554 0ae3 7300     		.ascii	"s\000"
 2555 0ae5 01       		.byte	0x1
 2556 0ae6 1501     		.2byte	0x115
 2557 0ae8 EE000000 		.4byte	0xee
 2558 0aec 4F050000 		.4byte	.LLST20
 2559 0af0 33       		.uleb128 0x33
 2560 0af1 94010000 		.4byte	.LASF117
 2561 0af5 01       		.byte	0x1
 2562 0af6 1501     		.2byte	0x115
 2563 0af8 94000000 		.4byte	0x94
 2564 0afc 01       		.uleb128 0x1
 2565 0afd 51       		.byte	0x51
 2566 0afe 34       		.uleb128 0x34
 2567 0aff 72657400 		.ascii	"ret\000"
 2568 0b03 01       		.byte	0x1
 2569 0b04 1701     		.2byte	0x117
 2570 0b06 94000000 		.4byte	0x94
 2571 0b0a 8E050000 		.4byte	.LLST21
ARM GAS  C:\Users\164\AppData\Local\Temp\cctl9rYr.s 			page 57


 2572 0b0e 35       		.uleb128 0x35
 2573 0b0f 3B040000 		.4byte	.LASF118
 2574 0b13 01       		.byte	0x1
 2575 0b14 1801     		.2byte	0x118
 2576 0b16 94000000 		.4byte	0x94
 2577 0b1a AD050000 		.4byte	.LLST22
 2578 0b1e 36       		.uleb128 0x36
 2579 0b1f A2050000 		.4byte	.LASF120
 2580 0b23 01       		.byte	0x1
 2581 0b24 1A01     		.2byte	0x11a
 2582 0b26 04000000 		.4byte	.L67
 2583 0b2a 34       		.uleb128 0x34
 2584 0b2b 636800   		.ascii	"ch\000"
 2585 0b2e 01       		.byte	0x1
 2586 0b2f 2801     		.2byte	0x128
 2587 0b31 94000000 		.4byte	0x94
 2588 0b35 EF050000 		.4byte	.LLST23
 2589 0b39 2B       		.uleb128 0x2b
 2590 0b3a 28000000 		.4byte	.LBB10
 2591 0b3e 22000000 		.4byte	.LBE10-.LBB10
 2592 0b42 34       		.uleb128 0x34
 2593 0b43 6E00     		.ascii	"n\000"
 2594 0b45 01       		.byte	0x1
 2595 0b46 2A01     		.2byte	0x12a
 2596 0b48 94000000 		.4byte	0x94
 2597 0b4c 62060000 		.4byte	.LLST24
 2598 0b50 00       		.byte	0
 2599 0b51 00       		.byte	0
 2600 0b52 31       		.uleb128 0x31
 2601 0b53 DB010000 		.4byte	.LASF121
 2602 0b57 01       		.byte	0x1
 2603 0b58 4A01     		.2byte	0x14a
 2604 0b5a F9060000 		.4byte	0x6f9
 2605 0b5e 00000000 		.4byte	.LFB34
 2606 0b62 20000000 		.4byte	.LFE34-.LFB34
 2607 0b66 01       		.uleb128 0x1
 2608 0b67 9C       		.byte	0x9c
 2609 0b68 A00B0000 		.4byte	0xba0
 2610 0b6c 32       		.uleb128 0x32
 2611 0b6d 766D00   		.ascii	"vm\000"
 2612 0b70 01       		.byte	0x1
 2613 0b71 4A01     		.2byte	0x14a
 2614 0b73 47010000 		.4byte	0x147
 2615 0b77 8B060000 		.4byte	.LLST25
 2616 0b7b 34       		.uleb128 0x34
 2617 0b7c 7000     		.ascii	"p\000"
 2618 0b7e 01       		.byte	0x1
 2619 0b7f 4C01     		.2byte	0x14c
 2620 0b81 F9060000 		.4byte	0x6f9
 2621 0b85 AC060000 		.4byte	.LLST26
 2622 0b89 20       		.uleb128 0x20
 2623 0b8a 08000000 		.4byte	.LVL99
 2624 0b8e 900E0000 		.4byte	0xe90
 2625 0b92 21       		.uleb128 0x21
 2626 0b93 01       		.uleb128 0x1
 2627 0b94 50       		.byte	0x50
 2628 0b95 03       		.uleb128 0x3
ARM GAS  C:\Users\164\AppData\Local\Temp\cctl9rYr.s 			page 58


 2629 0b96 F3       		.byte	0xf3
 2630 0b97 01       		.uleb128 0x1
 2631 0b98 50       		.byte	0x50
 2632 0b99 21       		.uleb128 0x21
 2633 0b9a 01       		.uleb128 0x1
 2634 0b9b 51       		.byte	0x51
 2635 0b9c 01       		.uleb128 0x1
 2636 0b9d 4C       		.byte	0x4c
 2637 0b9e 00       		.byte	0
 2638 0b9f 00       		.byte	0
 2639 0ba0 37       		.uleb128 0x37
 2640 0ba1 3D060000 		.4byte	.LASF122
 2641 0ba5 01       		.byte	0x1
 2642 0ba6 5701     		.2byte	0x157
 2643 0ba8 00000000 		.4byte	.LFB35
 2644 0bac 48000000 		.4byte	.LFE35-.LFB35
 2645 0bb0 01       		.uleb128 0x1
 2646 0bb1 9C       		.byte	0x9c
 2647 0bb2 090C0000 		.4byte	0xc09
 2648 0bb6 38       		.uleb128 0x38
 2649 0bb7 E3000000 		.4byte	.LASF27
 2650 0bbb 01       		.byte	0x1
 2651 0bbc 5701     		.2byte	0x157
 2652 0bbe F9060000 		.4byte	0x6f9
 2653 0bc2 CA060000 		.4byte	.LLST27
 2654 0bc6 34       		.uleb128 0x34
 2655 0bc7 6900     		.ascii	"i\000"
 2656 0bc9 01       		.byte	0x1
 2657 0bca 5901     		.2byte	0x159
 2658 0bcc 94000000 		.4byte	0x94
 2659 0bd0 E8060000 		.4byte	.LLST28
 2660 0bd4 2D       		.uleb128 0x2d
 2661 0bd5 12000000 		.4byte	.LVL104
 2662 0bd9 090F0000 		.4byte	0xf09
 2663 0bdd 2D       		.uleb128 0x2d
 2664 0bde 22000000 		.4byte	.LVL106
 2665 0be2 090F0000 		.4byte	0xf09
 2666 0be6 2D       		.uleb128 0x2d
 2667 0be7 30000000 		.4byte	.LVL109
 2668 0beb A00B0000 		.4byte	0xba0
 2669 0bef 2D       		.uleb128 0x2d
 2670 0bf0 40000000 		.4byte	.LVL111
 2671 0bf4 090F0000 		.4byte	0xf09
 2672 0bf8 20       		.uleb128 0x20
 2673 0bf9 46000000 		.4byte	.LVL112
 2674 0bfd 090F0000 		.4byte	0xf09
 2675 0c01 21       		.uleb128 0x21
 2676 0c02 01       		.uleb128 0x1
 2677 0c03 50       		.byte	0x50
 2678 0c04 02       		.uleb128 0x2
 2679 0c05 74       		.byte	0x74
 2680 0c06 00       		.sleb128 0
 2681 0c07 00       		.byte	0
 2682 0c08 00       		.byte	0
 2683 0c09 31       		.uleb128 0x31
 2684 0c0a 20030000 		.4byte	.LASF123
 2685 0c0e 01       		.byte	0x1
ARM GAS  C:\Users\164\AppData\Local\Temp\cctl9rYr.s 			page 59


 2686 0c0f 7301     		.2byte	0x173
 2687 0c11 2B050000 		.4byte	0x52b
 2688 0c15 00000000 		.4byte	.LFB36
 2689 0c19 4C000000 		.4byte	.LFE36-.LFB36
 2690 0c1d 01       		.uleb128 0x1
 2691 0c1e 9C       		.byte	0x9c
 2692 0c1f A90C0000 		.4byte	0xca9
 2693 0c23 32       		.uleb128 0x32
 2694 0c24 766D00   		.ascii	"vm\000"
 2695 0c27 01       		.byte	0x1
 2696 0c28 7301     		.2byte	0x173
 2697 0c2a 47010000 		.4byte	0x147
 2698 0c2e 12070000 		.4byte	.LLST29
 2699 0c32 32       		.uleb128 0x32
 2700 0c33 636C7300 		.ascii	"cls\000"
 2701 0c37 01       		.byte	0x1
 2702 0c38 7301     		.2byte	0x173
 2703 0c3a 05070000 		.4byte	0x705
 2704 0c3e 30070000 		.4byte	.LLST30
 2705 0c42 38       		.uleb128 0x38
 2706 0c43 59040000 		.4byte	.LASF76
 2707 0c47 01       		.byte	0x1
 2708 0c48 7301     		.2byte	0x173
 2709 0c4a 94000000 		.4byte	0x94
 2710 0c4e 4E070000 		.4byte	.LLST31
 2711 0c52 34       		.uleb128 0x34
 2712 0c53 7600     		.ascii	"v\000"
 2713 0c55 01       		.byte	0x1
 2714 0c56 7501     		.2byte	0x175
 2715 0c58 2B050000 		.4byte	0x52b
 2716 0c5c 6F070000 		.4byte	.LLST32
 2717 0c60 23       		.uleb128 0x23
 2718 0c61 20000000 		.4byte	.LVL117
 2719 0c65 900E0000 		.4byte	0xe90
 2720 0c69 7D0C0000 		.4byte	0xc7d
 2721 0c6d 21       		.uleb128 0x21
 2722 0c6e 01       		.uleb128 0x1
 2723 0c6f 50       		.byte	0x50
 2724 0c70 02       		.uleb128 0x2
 2725 0c71 76       		.byte	0x76
 2726 0c72 00       		.sleb128 0
 2727 0c73 21       		.uleb128 0x21
 2728 0c74 01       		.uleb128 0x1
 2729 0c75 51       		.byte	0x51
 2730 0c76 05       		.uleb128 0x5
 2731 0c77 F3       		.byte	0xf3
 2732 0c78 01       		.uleb128 0x1
 2733 0c79 53       		.byte	0x53
 2734 0c7a 23       		.byte	0x23
 2735 0c7b 0C       		.uleb128 0xc
 2736 0c7c 00       		.byte	0
 2737 0c7d 23       		.uleb128 0x23
 2738 0c7e 2E000000 		.4byte	.LVL118
 2739 0c82 140F0000 		.4byte	0xf14
 2740 0c86 980C0000 		.4byte	0xc98
 2741 0c8a 21       		.uleb128 0x21
 2742 0c8b 01       		.uleb128 0x1
ARM GAS  C:\Users\164\AppData\Local\Temp\cctl9rYr.s 			page 60


 2743 0c8c 50       		.byte	0x50
 2744 0c8d 02       		.uleb128 0x2
 2745 0c8e 76       		.byte	0x76
 2746 0c8f 00       		.sleb128 0
 2747 0c90 21       		.uleb128 0x21
 2748 0c91 01       		.uleb128 0x1
 2749 0c92 51       		.byte	0x51
 2750 0c93 03       		.uleb128 0x3
 2751 0c94 74       		.byte	0x74
 2752 0c95 04       		.sleb128 4
 2753 0c96 06       		.byte	0x6
 2754 0c97 00       		.byte	0
 2755 0c98 20       		.uleb128 0x20
 2756 0c99 38000000 		.4byte	.LVL119
 2757 0c9d 090F0000 		.4byte	0xf09
 2758 0ca1 21       		.uleb128 0x21
 2759 0ca2 01       		.uleb128 0x1
 2760 0ca3 50       		.byte	0x50
 2761 0ca4 02       		.uleb128 0x2
 2762 0ca5 75       		.byte	0x75
 2763 0ca6 00       		.sleb128 0
 2764 0ca7 00       		.byte	0
 2765 0ca8 00       		.byte	0
 2766 0ca9 37       		.uleb128 0x37
 2767 0caa 73040000 		.4byte	.LASF124
 2768 0cae 01       		.byte	0x1
 2769 0caf 8E01     		.2byte	0x18e
 2770 0cb1 00000000 		.4byte	.LFB37
 2771 0cb5 14000000 		.4byte	.LFE37-.LFB37
 2772 0cb9 01       		.uleb128 0x1
 2773 0cba 9C       		.byte	0x9c
 2774 0cbb E00C0000 		.4byte	0xce0
 2775 0cbf 32       		.uleb128 0x32
 2776 0cc0 7600     		.ascii	"v\000"
 2777 0cc2 01       		.byte	0x1
 2778 0cc3 8E01     		.2byte	0x18e
 2779 0cc5 FF060000 		.4byte	0x6ff
 2780 0cc9 8F070000 		.4byte	.LLST33
 2781 0ccd 2D       		.uleb128 0x2d
 2782 0cce 0C000000 		.4byte	.LVL122
 2783 0cd2 1F0F0000 		.4byte	0xf1f
 2784 0cd6 2D       		.uleb128 0x2d
 2785 0cd7 12000000 		.4byte	.LVL123
 2786 0cdb 090F0000 		.4byte	0xf09
 2787 0cdf 00       		.byte	0
 2788 0ce0 2E       		.uleb128 0x2e
 2789 0ce1 66060000 		.4byte	.LASF125
 2790 0ce5 01       		.byte	0x1
 2791 0ce6 CF       		.byte	0xcf
 2792 0ce7 00000000 		.4byte	.LFB31
 2793 0ceb 70000000 		.4byte	.LFE31-.LFB31
 2794 0cef 01       		.uleb128 0x1
 2795 0cf0 9C       		.byte	0x9c
 2796 0cf1 770D0000 		.4byte	0xd77
 2797 0cf5 1E       		.uleb128 0x1e
 2798 0cf6 7600     		.ascii	"v\000"
 2799 0cf8 01       		.byte	0x1
ARM GAS  C:\Users\164\AppData\Local\Temp\cctl9rYr.s 			page 61


 2800 0cf9 CF       		.byte	0xcf
 2801 0cfa FF060000 		.4byte	0x6ff
 2802 0cfe AD070000 		.4byte	.LLST34
 2803 0d02 2F       		.uleb128 0x2f
 2804 0d03 D6040000 		.4byte	.LASF113
 2805 0d07 870D0000 		.4byte	0xd87
 2806 0d0b 05       		.uleb128 0x5
 2807 0d0c 03       		.byte	0x3
 2808 0d0d 0C000000 		.4byte	__func__.5223
 2809 0d11 23       		.uleb128 0x23
 2810 0d12 1E000000 		.4byte	.LVL126
 2811 0d16 DD0E0000 		.4byte	0xedd
 2812 0d1a 400D0000 		.4byte	0xd40
 2813 0d1e 21       		.uleb128 0x21
 2814 0d1f 01       		.uleb128 0x1
 2815 0d20 50       		.byte	0x50
 2816 0d21 05       		.uleb128 0x5
 2817 0d22 03       		.byte	0x3
 2818 0d23 1C000000 		.4byte	.LC1
 2819 0d27 21       		.uleb128 0x21
 2820 0d28 01       		.uleb128 0x1
 2821 0d29 51       		.byte	0x51
 2822 0d2a 02       		.uleb128 0x2
 2823 0d2b 08       		.byte	0x8
 2824 0d2c D8       		.byte	0xd8
 2825 0d2d 21       		.uleb128 0x21
 2826 0d2e 01       		.uleb128 0x1
 2827 0d2f 52       		.byte	0x52
 2828 0d30 05       		.uleb128 0x5
 2829 0d31 03       		.byte	0x3
 2830 0d32 0C000000 		.4byte	.LANCHOR0+12
 2831 0d36 21       		.uleb128 0x21
 2832 0d37 01       		.uleb128 0x1
 2833 0d38 53       		.byte	0x53
 2834 0d39 05       		.uleb128 0x5
 2835 0d3a 03       		.byte	0x3
 2836 0d3b 44000000 		.4byte	.LC3
 2837 0d3f 00       		.byte	0
 2838 0d40 2D       		.uleb128 0x2d
 2839 0d41 40000000 		.4byte	.LVL127
 2840 0d45 A90C0000 		.4byte	0xca9
 2841 0d49 2D       		.uleb128 0x2d
 2842 0d4a 48000000 		.4byte	.LVL130
 2843 0d4e 090F0000 		.4byte	0xf09
 2844 0d52 2D       		.uleb128 0x2d
 2845 0d53 4E000000 		.4byte	.LVL132
 2846 0d57 2A0F0000 		.4byte	0xf2a
 2847 0d5b 2D       		.uleb128 0x2d
 2848 0d5c 54000000 		.4byte	.LVL134
 2849 0d60 350F0000 		.4byte	0xf35
 2850 0d64 2D       		.uleb128 0x2d
 2851 0d65 5A000000 		.4byte	.LVL136
 2852 0d69 400F0000 		.4byte	0xf40
 2853 0d6d 2D       		.uleb128 0x2d
 2854 0d6e 60000000 		.4byte	.LVL138
 2855 0d72 4B0F0000 		.4byte	0xf4b
 2856 0d76 00       		.byte	0
ARM GAS  C:\Users\164\AppData\Local\Temp\cctl9rYr.s 			page 62


 2857 0d77 17       		.uleb128 0x17
 2858 0d78 F4000000 		.4byte	0xf4
 2859 0d7c 870D0000 		.4byte	0xd87
 2860 0d80 19       		.uleb128 0x19
 2861 0d81 E0000000 		.4byte	0xe0
 2862 0d85 14       		.byte	0x14
 2863 0d86 00       		.byte	0
 2864 0d87 06       		.uleb128 0x6
 2865 0d88 770D0000 		.4byte	0xd77
 2866 0d8c 2E       		.uleb128 0x2e
 2867 0d8d F9010000 		.4byte	.LASF126
 2868 0d91 01       		.byte	0x1
 2869 0d92 C2       		.byte	0xc2
 2870 0d93 00000000 		.4byte	.LFB30
 2871 0d97 0E000000 		.4byte	.LFE30-.LFB30
 2872 0d9b 01       		.uleb128 0x1
 2873 0d9c 9C       		.byte	0x9c
 2874 0d9d BF0D0000 		.4byte	0xdbf
 2875 0da1 1E       		.uleb128 0x1e
 2876 0da2 7600     		.ascii	"v\000"
 2877 0da4 01       		.byte	0x1
 2878 0da5 C2       		.byte	0xc2
 2879 0da6 FF060000 		.4byte	0x6ff
 2880 0daa 64080000 		.4byte	.LLST35
 2881 0dae 20       		.uleb128 0x20
 2882 0daf 08000000 		.4byte	.LVL140
 2883 0db3 E00C0000 		.4byte	0xce0
 2884 0db7 21       		.uleb128 0x21
 2885 0db8 01       		.uleb128 0x1
 2886 0db9 50       		.byte	0x50
 2887 0dba 02       		.uleb128 0x2
 2888 0dbb 74       		.byte	0x74
 2889 0dbc 00       		.sleb128 0
 2890 0dbd 00       		.byte	0
 2891 0dbe 00       		.byte	0
 2892 0dbf 37       		.uleb128 0x37
 2893 0dc0 15060000 		.4byte	.LASF127
 2894 0dc4 01       		.byte	0x1
 2895 0dc5 9C01     		.2byte	0x19c
 2896 0dc7 00000000 		.4byte	.LFB38
 2897 0dcb 1C000000 		.4byte	.LFE38-.LFB38
 2898 0dcf 01       		.uleb128 0x1
 2899 0dd0 9C       		.byte	0x9c
 2900 0dd1 2E0E0000 		.4byte	0xe2e
 2901 0dd5 32       		.uleb128 0x32
 2902 0dd6 6F626A00 		.ascii	"obj\000"
 2903 0dda 01       		.byte	0x1
 2904 0ddb 9C01     		.2byte	0x19c
 2905 0ddd 88060000 		.4byte	0x688
 2906 0de1 82080000 		.4byte	.LLST36
 2907 0de5 38       		.uleb128 0x38
 2908 0de6 00040000 		.4byte	.LASF62
 2909 0dea 01       		.byte	0x1
 2910 0deb 9C01     		.2byte	0x19c
 2911 0ded 16010000 		.4byte	0x116
 2912 0df1 A0080000 		.4byte	.LLST37
 2913 0df5 32       		.uleb128 0x32
ARM GAS  C:\Users\164\AppData\Local\Temp\cctl9rYr.s 			page 63


 2914 0df6 7600     		.ascii	"v\000"
 2915 0df8 01       		.byte	0x1
 2916 0df9 9C01     		.2byte	0x19c
 2917 0dfb FF060000 		.4byte	0x6ff
 2918 0dff C1080000 		.4byte	.LLST38
 2919 0e03 23       		.uleb128 0x23
 2920 0e04 0E000000 		.4byte	.LVL143
 2921 0e08 BA090000 		.4byte	0x9ba
 2922 0e0c 170E0000 		.4byte	0xe17
 2923 0e10 21       		.uleb128 0x21
 2924 0e11 01       		.uleb128 0x1
 2925 0e12 50       		.byte	0x50
 2926 0e13 02       		.uleb128 0x2
 2927 0e14 74       		.byte	0x74
 2928 0e15 00       		.sleb128 0
 2929 0e16 00       		.byte	0
 2930 0e17 20       		.uleb128 0x20
 2931 0e18 1A000000 		.4byte	.LVL144
 2932 0e1c 560F0000 		.4byte	0xf56
 2933 0e20 21       		.uleb128 0x21
 2934 0e21 01       		.uleb128 0x1
 2935 0e22 51       		.byte	0x51
 2936 0e23 02       		.uleb128 0x2
 2937 0e24 75       		.byte	0x75
 2938 0e25 00       		.sleb128 0
 2939 0e26 21       		.uleb128 0x21
 2940 0e27 01       		.uleb128 0x1
 2941 0e28 52       		.byte	0x52
 2942 0e29 02       		.uleb128 0x2
 2943 0e2a 74       		.byte	0x74
 2944 0e2b 00       		.sleb128 0
 2945 0e2c 00       		.byte	0
 2946 0e2d 00       		.byte	0
 2947 0e2e 31       		.uleb128 0x31
 2948 0e2f 00000000 		.4byte	.LASF128
 2949 0e33 01       		.byte	0x1
 2950 0e34 AA01     		.2byte	0x1aa
 2951 0e36 2B050000 		.4byte	0x52b
 2952 0e3a 00000000 		.4byte	.LFB39
 2953 0e3e 32000000 		.4byte	.LFE39-.LFB39
 2954 0e42 01       		.uleb128 0x1
 2955 0e43 9C       		.byte	0x9c
 2956 0e44 900E0000 		.4byte	0xe90
 2957 0e48 32       		.uleb128 0x32
 2958 0e49 6F626A00 		.ascii	"obj\000"
 2959 0e4d 01       		.byte	0x1
 2960 0e4e AA01     		.2byte	0x1aa
 2961 0e50 88060000 		.4byte	0x688
 2962 0e54 DF080000 		.4byte	.LLST39
 2963 0e58 38       		.uleb128 0x38
 2964 0e59 00040000 		.4byte	.LASF62
 2965 0e5d 01       		.byte	0x1
 2966 0e5e AA01     		.2byte	0x1aa
 2967 0e60 16010000 		.4byte	0x116
 2968 0e64 00090000 		.4byte	.LLST40
 2969 0e68 34       		.uleb128 0x34
 2970 0e69 7600     		.ascii	"v\000"
ARM GAS  C:\Users\164\AppData\Local\Temp\cctl9rYr.s 			page 64


 2971 0e6b 01       		.byte	0x1
 2972 0e6c AC01     		.2byte	0x1ac
 2973 0e6e FF060000 		.4byte	0x6ff
 2974 0e72 21090000 		.4byte	.LLST41
 2975 0e76 2D       		.uleb128 0x2d
 2976 0e77 0E000000 		.4byte	.LVL148
 2977 0e7b 610F0000 		.4byte	0xf61
 2978 0e7f 20       		.uleb128 0x20
 2979 0e80 26000000 		.4byte	.LVL149
 2980 0e84 BA090000 		.4byte	0x9ba
 2981 0e88 21       		.uleb128 0x21
 2982 0e89 01       		.uleb128 0x1
 2983 0e8a 50       		.byte	0x50
 2984 0e8b 02       		.uleb128 0x2
 2985 0e8c 75       		.byte	0x75
 2986 0e8d 00       		.sleb128 0
 2987 0e8e 00       		.byte	0
 2988 0e8f 00       		.byte	0
 2989 0e90 39       		.uleb128 0x39
 2990 0e91 9C060000 		.4byte	.LASF129
 2991 0e95 9C060000 		.4byte	.LASF129
 2992 0e99 0B       		.byte	0xb
 2993 0e9a 1D       		.byte	0x1d
 2994 0e9b 39       		.uleb128 0x39
 2995 0e9c 00010000 		.4byte	.LASF130
 2996 0ea0 00010000 		.4byte	.LASF130
 2997 0ea4 0C       		.byte	0xc
 2998 0ea5 1A       		.byte	0x1a
 2999 0ea6 39       		.uleb128 0x39
 3000 0ea7 D5020000 		.4byte	.LASF131
 3001 0eab D5020000 		.4byte	.LASF131
 3002 0eaf 0D       		.byte	0xd
 3003 0eb0 16       		.byte	0x16
 3004 0eb1 39       		.uleb128 0x39
 3005 0eb2 DC020000 		.4byte	.LASF132
 3006 0eb6 DC020000 		.4byte	.LASF132
 3007 0eba 08       		.byte	0x8
 3008 0ebb 32       		.byte	0x32
 3009 0ebc 39       		.uleb128 0x39
 3010 0ebd 2A070000 		.4byte	.LASF133
 3011 0ec1 2A070000 		.4byte	.LASF133
 3012 0ec5 09       		.byte	0x9
 3013 0ec6 29       		.byte	0x29
 3014 0ec7 39       		.uleb128 0x39
 3015 0ec8 3D070000 		.4byte	.LASF134
 3016 0ecc 3D070000 		.4byte	.LASF134
 3017 0ed0 03       		.byte	0x3
 3018 0ed1 3C       		.byte	0x3c
 3019 0ed2 39       		.uleb128 0x39
 3020 0ed3 80000000 		.4byte	.LASF135
 3021 0ed7 80000000 		.4byte	.LASF135
 3022 0edb 0E       		.byte	0xe
 3023 0edc 1A       		.byte	0x1a
 3024 0edd 39       		.uleb128 0x39
 3025 0ede 72000000 		.4byte	.LASF136
 3026 0ee2 72000000 		.4byte	.LASF136
 3027 0ee6 0F       		.byte	0xf
ARM GAS  C:\Users\164\AppData\Local\Temp\cctl9rYr.s 			page 65


 3028 0ee7 29       		.byte	0x29
 3029 0ee8 39       		.uleb128 0x39
 3030 0ee9 18050000 		.4byte	.LASF137
 3031 0eed 18050000 		.4byte	.LASF137
 3032 0ef1 08       		.byte	0x8
 3033 0ef2 27       		.byte	0x27
 3034 0ef3 39       		.uleb128 0x39
 3035 0ef4 E9040000 		.4byte	.LASF138
 3036 0ef8 E9040000 		.4byte	.LASF138
 3037 0efc 02       		.byte	0x2
 3038 0efd 2A       		.byte	0x2a
 3039 0efe 39       		.uleb128 0x39
 3040 0eff 37030000 		.4byte	.LASF139
 3041 0f03 37030000 		.4byte	.LASF139
 3042 0f07 09       		.byte	0x9
 3043 0f08 28       		.byte	0x28
 3044 0f09 39       		.uleb128 0x39
 3045 0f0a 86010000 		.4byte	.LASF140
 3046 0f0e 86010000 		.4byte	.LASF140
 3047 0f12 0B       		.byte	0xb
 3048 0f13 1B       		.byte	0x1b
 3049 0f14 39       		.uleb128 0x39
 3050 0f15 B0050000 		.4byte	.LASF141
 3051 0f19 B0050000 		.4byte	.LASF141
 3052 0f1d 0A       		.byte	0xa
 3053 0f1e 2C       		.byte	0x2c
 3054 0f1f 39       		.uleb128 0x39
 3055 0f20 CF030000 		.4byte	.LASF142
 3056 0f24 CF030000 		.4byte	.LASF142
 3057 0f28 0A       		.byte	0xa
 3058 0f29 2D       		.byte	0x2d
 3059 0f2a 39       		.uleb128 0x39
 3060 0f2b 95000000 		.4byte	.LASF143
 3061 0f2f 95000000 		.4byte	.LASF143
 3062 0f33 08       		.byte	0x8
 3063 0f34 26       		.byte	0x26
 3064 0f35 39       		.uleb128 0x39
 3065 0f36 EE050000 		.4byte	.LASF144
 3066 0f3a EE050000 		.4byte	.LASF144
 3067 0f3e 02       		.byte	0x2
 3068 0f3f 29       		.byte	0x29
 3069 0f40 39       		.uleb128 0x39
 3070 0f41 1F040000 		.4byte	.LASF145
 3071 0f45 1F040000 		.4byte	.LASF145
 3072 0f49 09       		.byte	0x9
 3073 0f4a 27       		.byte	0x27
 3074 0f4b 39       		.uleb128 0x39
 3075 0f4c 5C070000 		.4byte	.LASF146
 3076 0f50 5C070000 		.4byte	.LASF146
 3077 0f54 03       		.byte	0x3
 3078 0f55 36       		.byte	0x36
 3079 0f56 39       		.uleb128 0x39
 3080 0f57 7B050000 		.4byte	.LASF147
 3081 0f5b 7B050000 		.4byte	.LASF147
 3082 0f5f 0A       		.byte	0xa
 3083 0f60 30       		.byte	0x30
 3084 0f61 39       		.uleb128 0x39
ARM GAS  C:\Users\164\AppData\Local\Temp\cctl9rYr.s 			page 66


 3085 0f62 5F010000 		.4byte	.LASF148
 3086 0f66 5F010000 		.4byte	.LASF148
 3087 0f6a 0A       		.byte	0xa
 3088 0f6b 31       		.byte	0x31
 3089 0f6c 00       		.byte	0
 3090              		.section	.debug_abbrev,"",%progbits
 3091              	.Ldebug_abbrev0:
 3092 0000 01       		.uleb128 0x1
 3093 0001 11       		.uleb128 0x11
 3094 0002 01       		.byte	0x1
 3095 0003 25       		.uleb128 0x25
 3096 0004 0E       		.uleb128 0xe
 3097 0005 13       		.uleb128 0x13
 3098 0006 0B       		.uleb128 0xb
 3099 0007 03       		.uleb128 0x3
 3100 0008 0E       		.uleb128 0xe
 3101 0009 1B       		.uleb128 0x1b
 3102 000a 0E       		.uleb128 0xe
 3103 000b 55       		.uleb128 0x55
 3104 000c 17       		.uleb128 0x17
 3105 000d 11       		.uleb128 0x11
 3106 000e 01       		.uleb128 0x1
 3107 000f 10       		.uleb128 0x10
 3108 0010 17       		.uleb128 0x17
 3109 0011 00       		.byte	0
 3110 0012 00       		.byte	0
 3111 0013 02       		.uleb128 0x2
 3112 0014 16       		.uleb128 0x16
 3113 0015 00       		.byte	0
 3114 0016 03       		.uleb128 0x3
 3115 0017 0E       		.uleb128 0xe
 3116 0018 3A       		.uleb128 0x3a
 3117 0019 0B       		.uleb128 0xb
 3118 001a 3B       		.uleb128 0x3b
 3119 001b 0B       		.uleb128 0xb
 3120 001c 49       		.uleb128 0x49
 3121 001d 13       		.uleb128 0x13
 3122 001e 00       		.byte	0
 3123 001f 00       		.byte	0
 3124 0020 03       		.uleb128 0x3
 3125 0021 24       		.uleb128 0x24
 3126 0022 00       		.byte	0
 3127 0023 0B       		.uleb128 0xb
 3128 0024 0B       		.uleb128 0xb
 3129 0025 3E       		.uleb128 0x3e
 3130 0026 0B       		.uleb128 0xb
 3131 0027 03       		.uleb128 0x3
 3132 0028 0E       		.uleb128 0xe
 3133 0029 00       		.byte	0
 3134 002a 00       		.byte	0
 3135 002b 04       		.uleb128 0x4
 3136 002c 24       		.uleb128 0x24
 3137 002d 00       		.byte	0
 3138 002e 0B       		.uleb128 0xb
 3139 002f 0B       		.uleb128 0xb
 3140 0030 3E       		.uleb128 0x3e
 3141 0031 0B       		.uleb128 0xb
ARM GAS  C:\Users\164\AppData\Local\Temp\cctl9rYr.s 			page 67


 3142 0032 03       		.uleb128 0x3
 3143 0033 08       		.uleb128 0x8
 3144 0034 00       		.byte	0
 3145 0035 00       		.byte	0
 3146 0036 05       		.uleb128 0x5
 3147 0037 0F       		.uleb128 0xf
 3148 0038 00       		.byte	0
 3149 0039 0B       		.uleb128 0xb
 3150 003a 0B       		.uleb128 0xb
 3151 003b 49       		.uleb128 0x49
 3152 003c 13       		.uleb128 0x13
 3153 003d 00       		.byte	0
 3154 003e 00       		.byte	0
 3155 003f 06       		.uleb128 0x6
 3156 0040 26       		.uleb128 0x26
 3157 0041 00       		.byte	0
 3158 0042 49       		.uleb128 0x49
 3159 0043 13       		.uleb128 0x13
 3160 0044 00       		.byte	0
 3161 0045 00       		.byte	0
 3162 0046 07       		.uleb128 0x7
 3163 0047 15       		.uleb128 0x15
 3164 0048 01       		.byte	0x1
 3165 0049 27       		.uleb128 0x27
 3166 004a 19       		.uleb128 0x19
 3167 004b 01       		.uleb128 0x1
 3168 004c 13       		.uleb128 0x13
 3169 004d 00       		.byte	0
 3170 004e 00       		.byte	0
 3171 004f 08       		.uleb128 0x8
 3172 0050 05       		.uleb128 0x5
 3173 0051 00       		.byte	0
 3174 0052 49       		.uleb128 0x49
 3175 0053 13       		.uleb128 0x13
 3176 0054 00       		.byte	0
 3177 0055 00       		.byte	0
 3178 0056 09       		.uleb128 0x9
 3179 0057 13       		.uleb128 0x13
 3180 0058 01       		.byte	0x1
 3181 0059 03       		.uleb128 0x3
 3182 005a 08       		.uleb128 0x8
 3183 005b 0B       		.uleb128 0xb
 3184 005c 05       		.uleb128 0x5
 3185 005d 3A       		.uleb128 0x3a
 3186 005e 0B       		.uleb128 0xb
 3187 005f 3B       		.uleb128 0x3b
 3188 0060 0B       		.uleb128 0xb
 3189 0061 01       		.uleb128 0x1
 3190 0062 13       		.uleb128 0x13
 3191 0063 00       		.byte	0
 3192 0064 00       		.byte	0
 3193 0065 0A       		.uleb128 0xa
 3194 0066 0D       		.uleb128 0xd
 3195 0067 00       		.byte	0
 3196 0068 03       		.uleb128 0x3
 3197 0069 0E       		.uleb128 0xe
 3198 006a 3A       		.uleb128 0x3a
ARM GAS  C:\Users\164\AppData\Local\Temp\cctl9rYr.s 			page 68


 3199 006b 0B       		.uleb128 0xb
 3200 006c 3B       		.uleb128 0x3b
 3201 006d 0B       		.uleb128 0xb
 3202 006e 49       		.uleb128 0x49
 3203 006f 13       		.uleb128 0x13
 3204 0070 38       		.uleb128 0x38
 3205 0071 0B       		.uleb128 0xb
 3206 0072 00       		.byte	0
 3207 0073 00       		.byte	0
 3208 0074 0B       		.uleb128 0xb
 3209 0075 0D       		.uleb128 0xd
 3210 0076 00       		.byte	0
 3211 0077 03       		.uleb128 0x3
 3212 0078 08       		.uleb128 0x8
 3213 0079 3A       		.uleb128 0x3a
 3214 007a 0B       		.uleb128 0xb
 3215 007b 3B       		.uleb128 0x3b
 3216 007c 0B       		.uleb128 0xb
 3217 007d 49       		.uleb128 0x49
 3218 007e 13       		.uleb128 0x13
 3219 007f 38       		.uleb128 0x38
 3220 0080 0B       		.uleb128 0xb
 3221 0081 00       		.byte	0
 3222 0082 00       		.byte	0
 3223 0083 0C       		.uleb128 0xc
 3224 0084 0D       		.uleb128 0xd
 3225 0085 00       		.byte	0
 3226 0086 03       		.uleb128 0x3
 3227 0087 0E       		.uleb128 0xe
 3228 0088 3A       		.uleb128 0x3a
 3229 0089 0B       		.uleb128 0xb
 3230 008a 3B       		.uleb128 0x3b
 3231 008b 0B       		.uleb128 0xb
 3232 008c 49       		.uleb128 0x49
 3233 008d 13       		.uleb128 0x13
 3234 008e 38       		.uleb128 0x38
 3235 008f 05       		.uleb128 0x5
 3236 0090 00       		.byte	0
 3237 0091 00       		.byte	0
 3238 0092 0D       		.uleb128 0xd
 3239 0093 13       		.uleb128 0x13
 3240 0094 01       		.byte	0x1
 3241 0095 03       		.uleb128 0x3
 3242 0096 0E       		.uleb128 0xe
 3243 0097 0B       		.uleb128 0xb
 3244 0098 0B       		.uleb128 0xb
 3245 0099 3A       		.uleb128 0x3a
 3246 009a 0B       		.uleb128 0xb
 3247 009b 3B       		.uleb128 0x3b
 3248 009c 0B       		.uleb128 0xb
 3249 009d 01       		.uleb128 0x1
 3250 009e 13       		.uleb128 0x13
 3251 009f 00       		.byte	0
 3252 00a0 00       		.byte	0
 3253 00a1 0E       		.uleb128 0xe
 3254 00a2 0D       		.uleb128 0xd
 3255 00a3 00       		.byte	0
ARM GAS  C:\Users\164\AppData\Local\Temp\cctl9rYr.s 			page 69


 3256 00a4 03       		.uleb128 0x3
 3257 00a5 08       		.uleb128 0x8
 3258 00a6 3A       		.uleb128 0x3a
 3259 00a7 0B       		.uleb128 0xb
 3260 00a8 3B       		.uleb128 0x3b
 3261 00a9 0B       		.uleb128 0xb
 3262 00aa 49       		.uleb128 0x49
 3263 00ab 13       		.uleb128 0x13
 3264 00ac 0B       		.uleb128 0xb
 3265 00ad 0B       		.uleb128 0xb
 3266 00ae 0D       		.uleb128 0xd
 3267 00af 0B       		.uleb128 0xb
 3268 00b0 0C       		.uleb128 0xc
 3269 00b1 0B       		.uleb128 0xb
 3270 00b2 38       		.uleb128 0x38
 3271 00b3 0B       		.uleb128 0xb
 3272 00b4 00       		.byte	0
 3273 00b5 00       		.byte	0
 3274 00b6 0F       		.uleb128 0xf
 3275 00b7 0D       		.uleb128 0xd
 3276 00b8 00       		.byte	0
 3277 00b9 49       		.uleb128 0x49
 3278 00ba 13       		.uleb128 0x13
 3279 00bb 38       		.uleb128 0x38
 3280 00bc 0B       		.uleb128 0xb
 3281 00bd 00       		.byte	0
 3282 00be 00       		.byte	0
 3283 00bf 10       		.uleb128 0x10
 3284 00c0 04       		.uleb128 0x4
 3285 00c1 01       		.byte	0x1
 3286 00c2 0B       		.uleb128 0xb
 3287 00c3 0B       		.uleb128 0xb
 3288 00c4 49       		.uleb128 0x49
 3289 00c5 13       		.uleb128 0x13
 3290 00c6 3A       		.uleb128 0x3a
 3291 00c7 0B       		.uleb128 0xb
 3292 00c8 3B       		.uleb128 0x3b
 3293 00c9 0B       		.uleb128 0xb
 3294 00ca 01       		.uleb128 0x1
 3295 00cb 13       		.uleb128 0x13
 3296 00cc 00       		.byte	0
 3297 00cd 00       		.byte	0
 3298 00ce 11       		.uleb128 0x11
 3299 00cf 28       		.uleb128 0x28
 3300 00d0 00       		.byte	0
 3301 00d1 03       		.uleb128 0x3
 3302 00d2 0E       		.uleb128 0xe
 3303 00d3 1C       		.uleb128 0x1c
 3304 00d4 0D       		.uleb128 0xd
 3305 00d5 00       		.byte	0
 3306 00d6 00       		.byte	0
 3307 00d7 12       		.uleb128 0x12
 3308 00d8 28       		.uleb128 0x28
 3309 00d9 00       		.byte	0
 3310 00da 03       		.uleb128 0x3
 3311 00db 0E       		.uleb128 0xe
 3312 00dc 1C       		.uleb128 0x1c
ARM GAS  C:\Users\164\AppData\Local\Temp\cctl9rYr.s 			page 70


 3313 00dd 0B       		.uleb128 0xb
 3314 00de 00       		.byte	0
 3315 00df 00       		.byte	0
 3316 00e0 13       		.uleb128 0x13
 3317 00e1 17       		.uleb128 0x17
 3318 00e2 01       		.byte	0x1
 3319 00e3 0B       		.uleb128 0xb
 3320 00e4 0B       		.uleb128 0xb
 3321 00e5 3A       		.uleb128 0x3a
 3322 00e6 0B       		.uleb128 0xb
 3323 00e7 3B       		.uleb128 0x3b
 3324 00e8 0B       		.uleb128 0xb
 3325 00e9 01       		.uleb128 0x1
 3326 00ea 13       		.uleb128 0x13
 3327 00eb 00       		.byte	0
 3328 00ec 00       		.byte	0
 3329 00ed 14       		.uleb128 0x14
 3330 00ee 0D       		.uleb128 0xd
 3331 00ef 00       		.byte	0
 3332 00f0 03       		.uleb128 0x3
 3333 00f1 08       		.uleb128 0x8
 3334 00f2 3A       		.uleb128 0x3a
 3335 00f3 0B       		.uleb128 0xb
 3336 00f4 3B       		.uleb128 0x3b
 3337 00f5 0B       		.uleb128 0xb
 3338 00f6 49       		.uleb128 0x49
 3339 00f7 13       		.uleb128 0x13
 3340 00f8 00       		.byte	0
 3341 00f9 00       		.byte	0
 3342 00fa 15       		.uleb128 0x15
 3343 00fb 0D       		.uleb128 0xd
 3344 00fc 00       		.byte	0
 3345 00fd 03       		.uleb128 0x3
 3346 00fe 0E       		.uleb128 0xe
 3347 00ff 3A       		.uleb128 0x3a
 3348 0100 0B       		.uleb128 0xb
 3349 0101 3B       		.uleb128 0x3b
 3350 0102 0B       		.uleb128 0xb
 3351 0103 49       		.uleb128 0x49
 3352 0104 13       		.uleb128 0x13
 3353 0105 00       		.byte	0
 3354 0106 00       		.byte	0
 3355 0107 16       		.uleb128 0x16
 3356 0108 0D       		.uleb128 0xd
 3357 0109 00       		.byte	0
 3358 010a 03       		.uleb128 0x3
 3359 010b 0E       		.uleb128 0xe
 3360 010c 3A       		.uleb128 0x3a
 3361 010d 0B       		.uleb128 0xb
 3362 010e 3B       		.uleb128 0x3b
 3363 010f 0B       		.uleb128 0xb
 3364 0110 49       		.uleb128 0x49
 3365 0111 13       		.uleb128 0x13
 3366 0112 0B       		.uleb128 0xb
 3367 0113 0B       		.uleb128 0xb
 3368 0114 0D       		.uleb128 0xd
 3369 0115 0B       		.uleb128 0xb
ARM GAS  C:\Users\164\AppData\Local\Temp\cctl9rYr.s 			page 71


 3370 0116 0C       		.uleb128 0xc
 3371 0117 0B       		.uleb128 0xb
 3372 0118 38       		.uleb128 0x38
 3373 0119 0B       		.uleb128 0xb
 3374 011a 00       		.byte	0
 3375 011b 00       		.byte	0
 3376 011c 17       		.uleb128 0x17
 3377 011d 01       		.uleb128 0x1
 3378 011e 01       		.byte	0x1
 3379 011f 49       		.uleb128 0x49
 3380 0120 13       		.uleb128 0x13
 3381 0121 01       		.uleb128 0x1
 3382 0122 13       		.uleb128 0x13
 3383 0123 00       		.byte	0
 3384 0124 00       		.byte	0
 3385 0125 18       		.uleb128 0x18
 3386 0126 21       		.uleb128 0x21
 3387 0127 00       		.byte	0
 3388 0128 49       		.uleb128 0x49
 3389 0129 13       		.uleb128 0x13
 3390 012a 00       		.byte	0
 3391 012b 00       		.byte	0
 3392 012c 19       		.uleb128 0x19
 3393 012d 21       		.uleb128 0x21
 3394 012e 00       		.byte	0
 3395 012f 49       		.uleb128 0x49
 3396 0130 13       		.uleb128 0x13
 3397 0131 2F       		.uleb128 0x2f
 3398 0132 0B       		.uleb128 0xb
 3399 0133 00       		.byte	0
 3400 0134 00       		.byte	0
 3401 0135 1A       		.uleb128 0x1a
 3402 0136 35       		.uleb128 0x35
 3403 0137 00       		.byte	0
 3404 0138 49       		.uleb128 0x49
 3405 0139 13       		.uleb128 0x13
 3406 013a 00       		.byte	0
 3407 013b 00       		.byte	0
 3408 013c 1B       		.uleb128 0x1b
 3409 013d 2E       		.uleb128 0x2e
 3410 013e 01       		.byte	0x1
 3411 013f 03       		.uleb128 0x3
 3412 0140 0E       		.uleb128 0xe
 3413 0141 3A       		.uleb128 0x3a
 3414 0142 0B       		.uleb128 0xb
 3415 0143 3B       		.uleb128 0x3b
 3416 0144 0B       		.uleb128 0xb
 3417 0145 27       		.uleb128 0x27
 3418 0146 19       		.uleb128 0x19
 3419 0147 20       		.uleb128 0x20
 3420 0148 0B       		.uleb128 0xb
 3421 0149 01       		.uleb128 0x1
 3422 014a 13       		.uleb128 0x13
 3423 014b 00       		.byte	0
 3424 014c 00       		.byte	0
 3425 014d 1C       		.uleb128 0x1c
 3426 014e 05       		.uleb128 0x5
ARM GAS  C:\Users\164\AppData\Local\Temp\cctl9rYr.s 			page 72


 3427 014f 00       		.byte	0
 3428 0150 03       		.uleb128 0x3
 3429 0151 0E       		.uleb128 0xe
 3430 0152 3A       		.uleb128 0x3a
 3431 0153 0B       		.uleb128 0xb
 3432 0154 3B       		.uleb128 0x3b
 3433 0155 0B       		.uleb128 0xb
 3434 0156 49       		.uleb128 0x49
 3435 0157 13       		.uleb128 0x13
 3436 0158 00       		.byte	0
 3437 0159 00       		.byte	0
 3438 015a 1D       		.uleb128 0x1d
 3439 015b 2E       		.uleb128 0x2e
 3440 015c 01       		.byte	0x1
 3441 015d 3F       		.uleb128 0x3f
 3442 015e 19       		.uleb128 0x19
 3443 015f 03       		.uleb128 0x3
 3444 0160 0E       		.uleb128 0xe
 3445 0161 3A       		.uleb128 0x3a
 3446 0162 0B       		.uleb128 0xb
 3447 0163 3B       		.uleb128 0x3b
 3448 0164 0B       		.uleb128 0xb
 3449 0165 27       		.uleb128 0x27
 3450 0166 19       		.uleb128 0x19
 3451 0167 49       		.uleb128 0x49
 3452 0168 13       		.uleb128 0x13
 3453 0169 11       		.uleb128 0x11
 3454 016a 01       		.uleb128 0x1
 3455 016b 12       		.uleb128 0x12
 3456 016c 06       		.uleb128 0x6
 3457 016d 40       		.uleb128 0x40
 3458 016e 18       		.uleb128 0x18
 3459 016f 9742     		.uleb128 0x2117
 3460 0171 19       		.uleb128 0x19
 3461 0172 01       		.uleb128 0x1
 3462 0173 13       		.uleb128 0x13
 3463 0174 00       		.byte	0
 3464 0175 00       		.byte	0
 3465 0176 1E       		.uleb128 0x1e
 3466 0177 05       		.uleb128 0x5
 3467 0178 00       		.byte	0
 3468 0179 03       		.uleb128 0x3
 3469 017a 08       		.uleb128 0x8
 3470 017b 3A       		.uleb128 0x3a
 3471 017c 0B       		.uleb128 0xb
 3472 017d 3B       		.uleb128 0x3b
 3473 017e 0B       		.uleb128 0xb
 3474 017f 49       		.uleb128 0x49
 3475 0180 13       		.uleb128 0x13
 3476 0181 02       		.uleb128 0x2
 3477 0182 17       		.uleb128 0x17
 3478 0183 00       		.byte	0
 3479 0184 00       		.byte	0
 3480 0185 1F       		.uleb128 0x1f
 3481 0186 34       		.uleb128 0x34
 3482 0187 00       		.byte	0
 3483 0188 03       		.uleb128 0x3
ARM GAS  C:\Users\164\AppData\Local\Temp\cctl9rYr.s 			page 73


 3484 0189 08       		.uleb128 0x8
 3485 018a 3A       		.uleb128 0x3a
 3486 018b 0B       		.uleb128 0xb
 3487 018c 3B       		.uleb128 0x3b
 3488 018d 0B       		.uleb128 0xb
 3489 018e 49       		.uleb128 0x49
 3490 018f 13       		.uleb128 0x13
 3491 0190 02       		.uleb128 0x2
 3492 0191 17       		.uleb128 0x17
 3493 0192 00       		.byte	0
 3494 0193 00       		.byte	0
 3495 0194 20       		.uleb128 0x20
 3496 0195 898201   		.uleb128 0x4109
 3497 0198 01       		.byte	0x1
 3498 0199 11       		.uleb128 0x11
 3499 019a 01       		.uleb128 0x1
 3500 019b 31       		.uleb128 0x31
 3501 019c 13       		.uleb128 0x13
 3502 019d 00       		.byte	0
 3503 019e 00       		.byte	0
 3504 019f 21       		.uleb128 0x21
 3505 01a0 8A8201   		.uleb128 0x410a
 3506 01a3 00       		.byte	0
 3507 01a4 02       		.uleb128 0x2
 3508 01a5 18       		.uleb128 0x18
 3509 01a6 9142     		.uleb128 0x2111
 3510 01a8 18       		.uleb128 0x18
 3511 01a9 00       		.byte	0
 3512 01aa 00       		.byte	0
 3513 01ab 22       		.uleb128 0x22
 3514 01ac 05       		.uleb128 0x5
 3515 01ad 00       		.byte	0
 3516 01ae 03       		.uleb128 0x3
 3517 01af 0E       		.uleb128 0xe
 3518 01b0 3A       		.uleb128 0x3a
 3519 01b1 0B       		.uleb128 0xb
 3520 01b2 3B       		.uleb128 0x3b
 3521 01b3 0B       		.uleb128 0xb
 3522 01b4 49       		.uleb128 0x49
 3523 01b5 13       		.uleb128 0x13
 3524 01b6 02       		.uleb128 0x2
 3525 01b7 17       		.uleb128 0x17
 3526 01b8 00       		.byte	0
 3527 01b9 00       		.byte	0
 3528 01ba 23       		.uleb128 0x23
 3529 01bb 898201   		.uleb128 0x4109
 3530 01be 01       		.byte	0x1
 3531 01bf 11       		.uleb128 0x11
 3532 01c0 01       		.uleb128 0x1
 3533 01c1 31       		.uleb128 0x31
 3534 01c2 13       		.uleb128 0x13
 3535 01c3 01       		.uleb128 0x1
 3536 01c4 13       		.uleb128 0x13
 3537 01c5 00       		.byte	0
 3538 01c6 00       		.byte	0
 3539 01c7 24       		.uleb128 0x24
 3540 01c8 2E       		.uleb128 0x2e
ARM GAS  C:\Users\164\AppData\Local\Temp\cctl9rYr.s 			page 74


 3541 01c9 01       		.byte	0x1
 3542 01ca 03       		.uleb128 0x3
 3543 01cb 0E       		.uleb128 0xe
 3544 01cc 3A       		.uleb128 0x3a
 3545 01cd 0B       		.uleb128 0xb
 3546 01ce 3B       		.uleb128 0x3b
 3547 01cf 0B       		.uleb128 0xb
 3548 01d0 27       		.uleb128 0x27
 3549 01d1 19       		.uleb128 0x19
 3550 01d2 49       		.uleb128 0x49
 3551 01d3 13       		.uleb128 0x13
 3552 01d4 20       		.uleb128 0x20
 3553 01d5 0B       		.uleb128 0xb
 3554 01d6 01       		.uleb128 0x1
 3555 01d7 13       		.uleb128 0x13
 3556 01d8 00       		.byte	0
 3557 01d9 00       		.byte	0
 3558 01da 25       		.uleb128 0x25
 3559 01db 05       		.uleb128 0x5
 3560 01dc 00       		.byte	0
 3561 01dd 03       		.uleb128 0x3
 3562 01de 08       		.uleb128 0x8
 3563 01df 3A       		.uleb128 0x3a
 3564 01e0 0B       		.uleb128 0xb
 3565 01e1 3B       		.uleb128 0x3b
 3566 01e2 0B       		.uleb128 0xb
 3567 01e3 49       		.uleb128 0x49
 3568 01e4 13       		.uleb128 0x13
 3569 01e5 00       		.byte	0
 3570 01e6 00       		.byte	0
 3571 01e7 26       		.uleb128 0x26
 3572 01e8 34       		.uleb128 0x34
 3573 01e9 00       		.byte	0
 3574 01ea 03       		.uleb128 0x3
 3575 01eb 08       		.uleb128 0x8
 3576 01ec 3A       		.uleb128 0x3a
 3577 01ed 0B       		.uleb128 0xb
 3578 01ee 3B       		.uleb128 0x3b
 3579 01ef 0B       		.uleb128 0xb
 3580 01f0 49       		.uleb128 0x49
 3581 01f1 13       		.uleb128 0x13
 3582 01f2 00       		.byte	0
 3583 01f3 00       		.byte	0
 3584 01f4 27       		.uleb128 0x27
 3585 01f5 2E       		.uleb128 0x2e
 3586 01f6 01       		.byte	0x1
 3587 01f7 3F       		.uleb128 0x3f
 3588 01f8 19       		.uleb128 0x19
 3589 01f9 03       		.uleb128 0x3
 3590 01fa 0E       		.uleb128 0xe
 3591 01fb 3A       		.uleb128 0x3a
 3592 01fc 0B       		.uleb128 0xb
 3593 01fd 3B       		.uleb128 0x3b
 3594 01fe 0B       		.uleb128 0xb
 3595 01ff 27       		.uleb128 0x27
 3596 0200 19       		.uleb128 0x19
 3597 0201 49       		.uleb128 0x49
ARM GAS  C:\Users\164\AppData\Local\Temp\cctl9rYr.s 			page 75


 3598 0202 13       		.uleb128 0x13
 3599 0203 11       		.uleb128 0x11
 3600 0204 01       		.uleb128 0x1
 3601 0205 12       		.uleb128 0x12
 3602 0206 06       		.uleb128 0x6
 3603 0207 40       		.uleb128 0x40
 3604 0208 18       		.uleb128 0x18
 3605 0209 9642     		.uleb128 0x2116
 3606 020b 19       		.uleb128 0x19
 3607 020c 01       		.uleb128 0x1
 3608 020d 13       		.uleb128 0x13
 3609 020e 00       		.byte	0
 3610 020f 00       		.byte	0
 3611 0210 28       		.uleb128 0x28
 3612 0211 0A       		.uleb128 0xa
 3613 0212 00       		.byte	0
 3614 0213 03       		.uleb128 0x3
 3615 0214 0E       		.uleb128 0xe
 3616 0215 3A       		.uleb128 0x3a
 3617 0216 0B       		.uleb128 0xb
 3618 0217 3B       		.uleb128 0x3b
 3619 0218 0B       		.uleb128 0xb
 3620 0219 11       		.uleb128 0x11
 3621 021a 01       		.uleb128 0x1
 3622 021b 00       		.byte	0
 3623 021c 00       		.byte	0
 3624 021d 29       		.uleb128 0x29
 3625 021e 1D       		.uleb128 0x1d
 3626 021f 01       		.byte	0x1
 3627 0220 31       		.uleb128 0x31
 3628 0221 13       		.uleb128 0x13
 3629 0222 11       		.uleb128 0x11
 3630 0223 01       		.uleb128 0x1
 3631 0224 12       		.uleb128 0x12
 3632 0225 06       		.uleb128 0x6
 3633 0226 58       		.uleb128 0x58
 3634 0227 0B       		.uleb128 0xb
 3635 0228 59       		.uleb128 0x59
 3636 0229 0B       		.uleb128 0xb
 3637 022a 01       		.uleb128 0x1
 3638 022b 13       		.uleb128 0x13
 3639 022c 00       		.byte	0
 3640 022d 00       		.byte	0
 3641 022e 2A       		.uleb128 0x2a
 3642 022f 05       		.uleb128 0x5
 3643 0230 00       		.byte	0
 3644 0231 31       		.uleb128 0x31
 3645 0232 13       		.uleb128 0x13
 3646 0233 02       		.uleb128 0x2
 3647 0234 17       		.uleb128 0x17
 3648 0235 00       		.byte	0
 3649 0236 00       		.byte	0
 3650 0237 2B       		.uleb128 0x2b
 3651 0238 0B       		.uleb128 0xb
 3652 0239 01       		.byte	0x1
 3653 023a 11       		.uleb128 0x11
 3654 023b 01       		.uleb128 0x1
ARM GAS  C:\Users\164\AppData\Local\Temp\cctl9rYr.s 			page 76


 3655 023c 12       		.uleb128 0x12
 3656 023d 06       		.uleb128 0x6
 3657 023e 00       		.byte	0
 3658 023f 00       		.byte	0
 3659 0240 2C       		.uleb128 0x2c
 3660 0241 34       		.uleb128 0x34
 3661 0242 00       		.byte	0
 3662 0243 31       		.uleb128 0x31
 3663 0244 13       		.uleb128 0x13
 3664 0245 02       		.uleb128 0x2
 3665 0246 17       		.uleb128 0x17
 3666 0247 00       		.byte	0
 3667 0248 00       		.byte	0
 3668 0249 2D       		.uleb128 0x2d
 3669 024a 898201   		.uleb128 0x4109
 3670 024d 00       		.byte	0
 3671 024e 11       		.uleb128 0x11
 3672 024f 01       		.uleb128 0x1
 3673 0250 31       		.uleb128 0x31
 3674 0251 13       		.uleb128 0x13
 3675 0252 00       		.byte	0
 3676 0253 00       		.byte	0
 3677 0254 2E       		.uleb128 0x2e
 3678 0255 2E       		.uleb128 0x2e
 3679 0256 01       		.byte	0x1
 3680 0257 3F       		.uleb128 0x3f
 3681 0258 19       		.uleb128 0x19
 3682 0259 03       		.uleb128 0x3
 3683 025a 0E       		.uleb128 0xe
 3684 025b 3A       		.uleb128 0x3a
 3685 025c 0B       		.uleb128 0xb
 3686 025d 3B       		.uleb128 0x3b
 3687 025e 0B       		.uleb128 0xb
 3688 025f 27       		.uleb128 0x27
 3689 0260 19       		.uleb128 0x19
 3690 0261 11       		.uleb128 0x11
 3691 0262 01       		.uleb128 0x1
 3692 0263 12       		.uleb128 0x12
 3693 0264 06       		.uleb128 0x6
 3694 0265 40       		.uleb128 0x40
 3695 0266 18       		.uleb128 0x18
 3696 0267 9742     		.uleb128 0x2117
 3697 0269 19       		.uleb128 0x19
 3698 026a 01       		.uleb128 0x1
 3699 026b 13       		.uleb128 0x13
 3700 026c 00       		.byte	0
 3701 026d 00       		.byte	0
 3702 026e 2F       		.uleb128 0x2f
 3703 026f 34       		.uleb128 0x34
 3704 0270 00       		.byte	0
 3705 0271 03       		.uleb128 0x3
 3706 0272 0E       		.uleb128 0xe
 3707 0273 49       		.uleb128 0x49
 3708 0274 13       		.uleb128 0x13
 3709 0275 34       		.uleb128 0x34
 3710 0276 19       		.uleb128 0x19
 3711 0277 02       		.uleb128 0x2
ARM GAS  C:\Users\164\AppData\Local\Temp\cctl9rYr.s 			page 77


 3712 0278 18       		.uleb128 0x18
 3713 0279 00       		.byte	0
 3714 027a 00       		.byte	0
 3715 027b 30       		.uleb128 0x30
 3716 027c 1D       		.uleb128 0x1d
 3717 027d 01       		.byte	0x1
 3718 027e 31       		.uleb128 0x31
 3719 027f 13       		.uleb128 0x13
 3720 0280 11       		.uleb128 0x11
 3721 0281 01       		.uleb128 0x1
 3722 0282 12       		.uleb128 0x12
 3723 0283 06       		.uleb128 0x6
 3724 0284 58       		.uleb128 0x58
 3725 0285 0B       		.uleb128 0xb
 3726 0286 59       		.uleb128 0x59
 3727 0287 05       		.uleb128 0x5
 3728 0288 01       		.uleb128 0x1
 3729 0289 13       		.uleb128 0x13
 3730 028a 00       		.byte	0
 3731 028b 00       		.byte	0
 3732 028c 31       		.uleb128 0x31
 3733 028d 2E       		.uleb128 0x2e
 3734 028e 01       		.byte	0x1
 3735 028f 3F       		.uleb128 0x3f
 3736 0290 19       		.uleb128 0x19
 3737 0291 03       		.uleb128 0x3
 3738 0292 0E       		.uleb128 0xe
 3739 0293 3A       		.uleb128 0x3a
 3740 0294 0B       		.uleb128 0xb
 3741 0295 3B       		.uleb128 0x3b
 3742 0296 05       		.uleb128 0x5
 3743 0297 27       		.uleb128 0x27
 3744 0298 19       		.uleb128 0x19
 3745 0299 49       		.uleb128 0x49
 3746 029a 13       		.uleb128 0x13
 3747 029b 11       		.uleb128 0x11
 3748 029c 01       		.uleb128 0x1
 3749 029d 12       		.uleb128 0x12
 3750 029e 06       		.uleb128 0x6
 3751 029f 40       		.uleb128 0x40
 3752 02a0 18       		.uleb128 0x18
 3753 02a1 9742     		.uleb128 0x2117
 3754 02a3 19       		.uleb128 0x19
 3755 02a4 01       		.uleb128 0x1
 3756 02a5 13       		.uleb128 0x13
 3757 02a6 00       		.byte	0
 3758 02a7 00       		.byte	0
 3759 02a8 32       		.uleb128 0x32
 3760 02a9 05       		.uleb128 0x5
 3761 02aa 00       		.byte	0
 3762 02ab 03       		.uleb128 0x3
 3763 02ac 08       		.uleb128 0x8
 3764 02ad 3A       		.uleb128 0x3a
 3765 02ae 0B       		.uleb128 0xb
 3766 02af 3B       		.uleb128 0x3b
 3767 02b0 05       		.uleb128 0x5
 3768 02b1 49       		.uleb128 0x49
ARM GAS  C:\Users\164\AppData\Local\Temp\cctl9rYr.s 			page 78


 3769 02b2 13       		.uleb128 0x13
 3770 02b3 02       		.uleb128 0x2
 3771 02b4 17       		.uleb128 0x17
 3772 02b5 00       		.byte	0
 3773 02b6 00       		.byte	0
 3774 02b7 33       		.uleb128 0x33
 3775 02b8 05       		.uleb128 0x5
 3776 02b9 00       		.byte	0
 3777 02ba 03       		.uleb128 0x3
 3778 02bb 0E       		.uleb128 0xe
 3779 02bc 3A       		.uleb128 0x3a
 3780 02bd 0B       		.uleb128 0xb
 3781 02be 3B       		.uleb128 0x3b
 3782 02bf 05       		.uleb128 0x5
 3783 02c0 49       		.uleb128 0x49
 3784 02c1 13       		.uleb128 0x13
 3785 02c2 02       		.uleb128 0x2
 3786 02c3 18       		.uleb128 0x18
 3787 02c4 00       		.byte	0
 3788 02c5 00       		.byte	0
 3789 02c6 34       		.uleb128 0x34
 3790 02c7 34       		.uleb128 0x34
 3791 02c8 00       		.byte	0
 3792 02c9 03       		.uleb128 0x3
 3793 02ca 08       		.uleb128 0x8
 3794 02cb 3A       		.uleb128 0x3a
 3795 02cc 0B       		.uleb128 0xb
 3796 02cd 3B       		.uleb128 0x3b
 3797 02ce 05       		.uleb128 0x5
 3798 02cf 49       		.uleb128 0x49
 3799 02d0 13       		.uleb128 0x13
 3800 02d1 02       		.uleb128 0x2
 3801 02d2 17       		.uleb128 0x17
 3802 02d3 00       		.byte	0
 3803 02d4 00       		.byte	0
 3804 02d5 35       		.uleb128 0x35
 3805 02d6 34       		.uleb128 0x34
 3806 02d7 00       		.byte	0
 3807 02d8 03       		.uleb128 0x3
 3808 02d9 0E       		.uleb128 0xe
 3809 02da 3A       		.uleb128 0x3a
 3810 02db 0B       		.uleb128 0xb
 3811 02dc 3B       		.uleb128 0x3b
 3812 02dd 05       		.uleb128 0x5
 3813 02de 49       		.uleb128 0x49
 3814 02df 13       		.uleb128 0x13
 3815 02e0 02       		.uleb128 0x2
 3816 02e1 17       		.uleb128 0x17
 3817 02e2 00       		.byte	0
 3818 02e3 00       		.byte	0
 3819 02e4 36       		.uleb128 0x36
 3820 02e5 0A       		.uleb128 0xa
 3821 02e6 00       		.byte	0
 3822 02e7 03       		.uleb128 0x3
 3823 02e8 0E       		.uleb128 0xe
 3824 02e9 3A       		.uleb128 0x3a
 3825 02ea 0B       		.uleb128 0xb
ARM GAS  C:\Users\164\AppData\Local\Temp\cctl9rYr.s 			page 79


 3826 02eb 3B       		.uleb128 0x3b
 3827 02ec 05       		.uleb128 0x5
 3828 02ed 11       		.uleb128 0x11
 3829 02ee 01       		.uleb128 0x1
 3830 02ef 00       		.byte	0
 3831 02f0 00       		.byte	0
 3832 02f1 37       		.uleb128 0x37
 3833 02f2 2E       		.uleb128 0x2e
 3834 02f3 01       		.byte	0x1
 3835 02f4 3F       		.uleb128 0x3f
 3836 02f5 19       		.uleb128 0x19
 3837 02f6 03       		.uleb128 0x3
 3838 02f7 0E       		.uleb128 0xe
 3839 02f8 3A       		.uleb128 0x3a
 3840 02f9 0B       		.uleb128 0xb
 3841 02fa 3B       		.uleb128 0x3b
 3842 02fb 05       		.uleb128 0x5
 3843 02fc 27       		.uleb128 0x27
 3844 02fd 19       		.uleb128 0x19
 3845 02fe 11       		.uleb128 0x11
 3846 02ff 01       		.uleb128 0x1
 3847 0300 12       		.uleb128 0x12
 3848 0301 06       		.uleb128 0x6
 3849 0302 40       		.uleb128 0x40
 3850 0303 18       		.uleb128 0x18
 3851 0304 9742     		.uleb128 0x2117
 3852 0306 19       		.uleb128 0x19
 3853 0307 01       		.uleb128 0x1
 3854 0308 13       		.uleb128 0x13
 3855 0309 00       		.byte	0
 3856 030a 00       		.byte	0
 3857 030b 38       		.uleb128 0x38
 3858 030c 05       		.uleb128 0x5
 3859 030d 00       		.byte	0
 3860 030e 03       		.uleb128 0x3
 3861 030f 0E       		.uleb128 0xe
 3862 0310 3A       		.uleb128 0x3a
 3863 0311 0B       		.uleb128 0xb
 3864 0312 3B       		.uleb128 0x3b
 3865 0313 05       		.uleb128 0x5
 3866 0314 49       		.uleb128 0x49
 3867 0315 13       		.uleb128 0x13
 3868 0316 02       		.uleb128 0x2
 3869 0317 17       		.uleb128 0x17
 3870 0318 00       		.byte	0
 3871 0319 00       		.byte	0
 3872 031a 39       		.uleb128 0x39
 3873 031b 2E       		.uleb128 0x2e
 3874 031c 00       		.byte	0
 3875 031d 3F       		.uleb128 0x3f
 3876 031e 19       		.uleb128 0x19
 3877 031f 3C       		.uleb128 0x3c
 3878 0320 19       		.uleb128 0x19
 3879 0321 6E       		.uleb128 0x6e
 3880 0322 0E       		.uleb128 0xe
 3881 0323 03       		.uleb128 0x3
 3882 0324 0E       		.uleb128 0xe
ARM GAS  C:\Users\164\AppData\Local\Temp\cctl9rYr.s 			page 80


 3883 0325 3A       		.uleb128 0x3a
 3884 0326 0B       		.uleb128 0xb
 3885 0327 3B       		.uleb128 0x3b
 3886 0328 0B       		.uleb128 0xb
 3887 0329 00       		.byte	0
 3888 032a 00       		.byte	0
 3889 032b 00       		.byte	0
 3890              		.section	.debug_loc,"",%progbits
 3891              	.Ldebug_loc0:
 3892              	.LLST0:
 3893 0000 00000000 		.4byte	.LVL0
 3894 0004 09000000 		.4byte	.LVL2-1
 3895 0008 0100     		.2byte	0x1
 3896 000a 50       		.byte	0x50
 3897 000b 09000000 		.4byte	.LVL2-1
 3898 000f 14000000 		.4byte	.LFE25
 3899 0013 0400     		.2byte	0x4
 3900 0015 F3       		.byte	0xf3
 3901 0016 01       		.uleb128 0x1
 3902 0017 50       		.byte	0x50
 3903 0018 9F       		.byte	0x9f
 3904 0019 00000000 		.4byte	0
 3905 001d 00000000 		.4byte	0
 3906              	.LLST1:
 3907 0021 00000000 		.4byte	.LVL0
 3908 0025 06000000 		.4byte	.LVL1
 3909 0029 0100     		.2byte	0x1
 3910 002b 51       		.byte	0x51
 3911 002c 06000000 		.4byte	.LVL1
 3912 0030 14000000 		.4byte	.LFE25
 3913 0034 0400     		.2byte	0x4
 3914 0036 F3       		.byte	0xf3
 3915 0037 01       		.uleb128 0x1
 3916 0038 51       		.byte	0x51
 3917 0039 9F       		.byte	0x9f
 3918 003a 00000000 		.4byte	0
 3919 003e 00000000 		.4byte	0
 3920              	.LLST2:
 3921 0042 0A000000 		.4byte	.LVL2
 3922 0046 12000000 		.4byte	.LVL3
 3923 004a 0100     		.2byte	0x1
 3924 004c 50       		.byte	0x50
 3925 004d 12000000 		.4byte	.LVL3
 3926 0051 14000000 		.4byte	.LFE25
 3927 0055 0100     		.2byte	0x1
 3928 0057 53       		.byte	0x53
 3929 0058 00000000 		.4byte	0
 3930 005c 00000000 		.4byte	0
 3931              	.LLST3:
 3932 0060 00000000 		.4byte	.LVL4
 3933 0064 09000000 		.4byte	.LVL6-1
 3934 0068 0100     		.2byte	0x1
 3935 006a 50       		.byte	0x50
 3936 006b 09000000 		.4byte	.LVL6-1
 3937 006f 22000000 		.4byte	.LFE26
 3938 0073 0400     		.2byte	0x4
 3939 0075 F3       		.byte	0xf3
ARM GAS  C:\Users\164\AppData\Local\Temp\cctl9rYr.s 			page 81


 3940 0076 01       		.uleb128 0x1
 3941 0077 50       		.byte	0x50
 3942 0078 9F       		.byte	0x9f
 3943 0079 00000000 		.4byte	0
 3944 007d 00000000 		.4byte	0
 3945              	.LLST4:
 3946 0081 00000000 		.4byte	.LVL4
 3947 0085 06000000 		.4byte	.LVL5
 3948 0089 0100     		.2byte	0x1
 3949 008b 51       		.byte	0x51
 3950 008c 06000000 		.4byte	.LVL5
 3951 0090 22000000 		.4byte	.LFE26
 3952 0094 0100     		.2byte	0x1
 3953 0096 55       		.byte	0x55
 3954 0097 00000000 		.4byte	0
 3955 009b 00000000 		.4byte	0
 3956              	.LLST5:
 3957 009f 0A000000 		.4byte	.LVL6
 3958 00a3 14000000 		.4byte	.LVL7
 3959 00a7 0100     		.2byte	0x1
 3960 00a9 50       		.byte	0x50
 3961 00aa 14000000 		.4byte	.LVL7
 3962 00ae 22000000 		.4byte	.LFE26
 3963 00b2 0100     		.2byte	0x1
 3964 00b4 54       		.byte	0x54
 3965 00b5 00000000 		.4byte	0
 3966 00b9 00000000 		.4byte	0
 3967              	.LLST6:
 3968 00bd 00000000 		.4byte	.LVL9
 3969 00c1 1C000000 		.4byte	.LVL10
 3970 00c5 0100     		.2byte	0x1
 3971 00c7 50       		.byte	0x50
 3972 00c8 1C000000 		.4byte	.LVL10
 3973 00cc 2E000000 		.4byte	.LVL14
 3974 00d0 0400     		.2byte	0x4
 3975 00d2 F3       		.byte	0xf3
 3976 00d3 01       		.uleb128 0x1
 3977 00d4 50       		.byte	0x50
 3978 00d5 9F       		.byte	0x9f
 3979 00d6 2E000000 		.4byte	.LVL14
 3980 00da 3C000000 		.4byte	.LVL16
 3981 00de 0100     		.2byte	0x1
 3982 00e0 50       		.byte	0x50
 3983 00e1 3C000000 		.4byte	.LVL16
 3984 00e5 46000000 		.4byte	.LVL20
 3985 00e9 0400     		.2byte	0x4
 3986 00eb F3       		.byte	0xf3
 3987 00ec 01       		.uleb128 0x1
 3988 00ed 50       		.byte	0x50
 3989 00ee 9F       		.byte	0x9f
 3990 00ef 46000000 		.4byte	.LVL20
 3991 00f3 56000000 		.4byte	.LVL21
 3992 00f7 0100     		.2byte	0x1
 3993 00f9 50       		.byte	0x50
 3994 00fa 56000000 		.4byte	.LVL21
 3995 00fe 5A000000 		.4byte	.LVL22
 3996 0102 0400     		.2byte	0x4
ARM GAS  C:\Users\164\AppData\Local\Temp\cctl9rYr.s 			page 82


 3997 0104 F3       		.byte	0xf3
 3998 0105 01       		.uleb128 0x1
 3999 0106 50       		.byte	0x50
 4000 0107 9F       		.byte	0x9f
 4001 0108 5A000000 		.4byte	.LVL22
 4002 010c 80000000 		.4byte	.LVL23
 4003 0110 0100     		.2byte	0x1
 4004 0112 50       		.byte	0x50
 4005 0113 80000000 		.4byte	.LVL23
 4006 0117 84000000 		.4byte	.LVL24
 4007 011b 0400     		.2byte	0x4
 4008 011d F3       		.byte	0xf3
 4009 011e 01       		.uleb128 0x1
 4010 011f 50       		.byte	0x50
 4011 0120 9F       		.byte	0x9f
 4012 0121 84000000 		.4byte	.LVL24
 4013 0125 88000000 		.4byte	.LVL25
 4014 0129 0100     		.2byte	0x1
 4015 012b 50       		.byte	0x50
 4016 012c 88000000 		.4byte	.LVL25
 4017 0130 8E000000 		.4byte	.LVL26
 4018 0134 0400     		.2byte	0x4
 4019 0136 F3       		.byte	0xf3
 4020 0137 01       		.uleb128 0x1
 4021 0138 50       		.byte	0x50
 4022 0139 9F       		.byte	0x9f
 4023 013a 8E000000 		.4byte	.LVL26
 4024 013e A2000000 		.4byte	.LVL31
 4025 0142 0100     		.2byte	0x1
 4026 0144 50       		.byte	0x50
 4027 0145 A2000000 		.4byte	.LVL31
 4028 0149 A4000000 		.4byte	.LVL32
 4029 014d 0400     		.2byte	0x4
 4030 014f F3       		.byte	0xf3
 4031 0150 01       		.uleb128 0x1
 4032 0151 50       		.byte	0x50
 4033 0152 9F       		.byte	0x9f
 4034 0153 A4000000 		.4byte	.LVL32
 4035 0157 A8000000 		.4byte	.LVL33
 4036 015b 0100     		.2byte	0x1
 4037 015d 50       		.byte	0x50
 4038 015e A8000000 		.4byte	.LVL33
 4039 0162 B8000000 		.4byte	.LVL34
 4040 0166 0400     		.2byte	0x4
 4041 0168 F3       		.byte	0xf3
 4042 0169 01       		.uleb128 0x1
 4043 016a 50       		.byte	0x50
 4044 016b 9F       		.byte	0x9f
 4045 016c B8000000 		.4byte	.LVL34
 4046 0170 BB000000 		.4byte	.LVL35-1
 4047 0174 0100     		.2byte	0x1
 4048 0176 50       		.byte	0x50
 4049 0177 BB000000 		.4byte	.LVL35-1
 4050 017b C0000000 		.4byte	.LVL36
 4051 017f 0400     		.2byte	0x4
 4052 0181 F3       		.byte	0xf3
 4053 0182 01       		.uleb128 0x1
ARM GAS  C:\Users\164\AppData\Local\Temp\cctl9rYr.s 			page 83


 4054 0183 50       		.byte	0x50
 4055 0184 9F       		.byte	0x9f
 4056 0185 C0000000 		.4byte	.LVL36
 4057 0189 D4000000 		.4byte	.LVL40
 4058 018d 0100     		.2byte	0x1
 4059 018f 50       		.byte	0x50
 4060 0190 D4000000 		.4byte	.LVL40
 4061 0194 E4000000 		.4byte	.LVL44
 4062 0198 0400     		.2byte	0x4
 4063 019a F3       		.byte	0xf3
 4064 019b 01       		.uleb128 0x1
 4065 019c 50       		.byte	0x50
 4066 019d 9F       		.byte	0x9f
 4067 019e E4000000 		.4byte	.LVL44
 4068 01a2 E7000000 		.4byte	.LVL45-1
 4069 01a6 0100     		.2byte	0x1
 4070 01a8 50       		.byte	0x50
 4071 01a9 E7000000 		.4byte	.LVL45-1
 4072 01ad EC000000 		.4byte	.LVL46
 4073 01b1 0400     		.2byte	0x4
 4074 01b3 F3       		.byte	0xf3
 4075 01b4 01       		.uleb128 0x1
 4076 01b5 50       		.byte	0x50
 4077 01b6 9F       		.byte	0x9f
 4078 01b7 EC000000 		.4byte	.LVL46
 4079 01bb EF000000 		.4byte	.LVL47-1
 4080 01bf 0100     		.2byte	0x1
 4081 01c1 50       		.byte	0x50
 4082 01c2 EF000000 		.4byte	.LVL47-1
 4083 01c6 26010000 		.4byte	.LVL51
 4084 01ca 0400     		.2byte	0x4
 4085 01cc F3       		.byte	0xf3
 4086 01cd 01       		.uleb128 0x1
 4087 01ce 50       		.byte	0x50
 4088 01cf 9F       		.byte	0x9f
 4089 01d0 26010000 		.4byte	.LVL51
 4090 01d4 28010000 		.4byte	.LVL52
 4091 01d8 0100     		.2byte	0x1
 4092 01da 50       		.byte	0x50
 4093 01db 28010000 		.4byte	.LVL52
 4094 01df 2C010000 		.4byte	.LVL53
 4095 01e3 0400     		.2byte	0x4
 4096 01e5 F3       		.byte	0xf3
 4097 01e6 01       		.uleb128 0x1
 4098 01e7 50       		.byte	0x50
 4099 01e8 9F       		.byte	0x9f
 4100 01e9 2C010000 		.4byte	.LVL53
 4101 01ed 2E010000 		.4byte	.LVL54
 4102 01f1 0100     		.2byte	0x1
 4103 01f3 50       		.byte	0x50
 4104 01f4 2E010000 		.4byte	.LVL54
 4105 01f8 32010000 		.4byte	.LVL55
 4106 01fc 0400     		.2byte	0x4
 4107 01fe F3       		.byte	0xf3
 4108 01ff 01       		.uleb128 0x1
 4109 0200 50       		.byte	0x50
 4110 0201 9F       		.byte	0x9f
ARM GAS  C:\Users\164\AppData\Local\Temp\cctl9rYr.s 			page 84


 4111 0202 32010000 		.4byte	.LVL55
 4112 0206 34010000 		.4byte	.LVL56
 4113 020a 0100     		.2byte	0x1
 4114 020c 50       		.byte	0x50
 4115 020d 34010000 		.4byte	.LVL56
 4116 0211 38010000 		.4byte	.LFE27
 4117 0215 0400     		.2byte	0x4
 4118 0217 F3       		.byte	0xf3
 4119 0218 01       		.uleb128 0x1
 4120 0219 50       		.byte	0x50
 4121 021a 9F       		.byte	0x9f
 4122 021b 00000000 		.4byte	0
 4123 021f 00000000 		.4byte	0
 4124              	.LLST7:
 4125 0223 00000000 		.4byte	.LVL9
 4126 0227 1F000000 		.4byte	.LVL11-1
 4127 022b 0100     		.2byte	0x1
 4128 022d 51       		.byte	0x51
 4129 022e 1F000000 		.4byte	.LVL11-1
 4130 0232 2C000000 		.4byte	.LVL13
 4131 0236 0100     		.2byte	0x1
 4132 0238 54       		.byte	0x54
 4133 0239 2C000000 		.4byte	.LVL13
 4134 023d 2E000000 		.4byte	.LVL14
 4135 0241 0400     		.2byte	0x4
 4136 0243 F3       		.byte	0xf3
 4137 0244 01       		.uleb128 0x1
 4138 0245 51       		.byte	0x51
 4139 0246 9F       		.byte	0x9f
 4140 0247 2E000000 		.4byte	.LVL14
 4141 024b 3F000000 		.4byte	.LVL17-1
 4142 024f 0100     		.2byte	0x1
 4143 0251 51       		.byte	0x51
 4144 0252 3F000000 		.4byte	.LVL17-1
 4145 0256 42000000 		.4byte	.LVL18
 4146 025a 0100     		.2byte	0x1
 4147 025c 54       		.byte	0x54
 4148 025d 42000000 		.4byte	.LVL18
 4149 0261 46000000 		.4byte	.LVL20
 4150 0265 0400     		.2byte	0x4
 4151 0267 F3       		.byte	0xf3
 4152 0268 01       		.uleb128 0x1
 4153 0269 51       		.byte	0x51
 4154 026a 9F       		.byte	0x9f
 4155 026b 46000000 		.4byte	.LVL20
 4156 026f 9A000000 		.4byte	.LVL30
 4157 0273 0100     		.2byte	0x1
 4158 0275 51       		.byte	0x51
 4159 0276 9A000000 		.4byte	.LVL30
 4160 027a B8000000 		.4byte	.LVL34
 4161 027e 0100     		.2byte	0x1
 4162 0280 54       		.byte	0x54
 4163 0281 B8000000 		.4byte	.LVL34
 4164 0285 BB000000 		.4byte	.LVL35-1
 4165 0289 0100     		.2byte	0x1
 4166 028b 51       		.byte	0x51
 4167 028c BB000000 		.4byte	.LVL35-1
ARM GAS  C:\Users\164\AppData\Local\Temp\cctl9rYr.s 			page 85


 4168 0290 C0000000 		.4byte	.LVL36
 4169 0294 0100     		.2byte	0x1
 4170 0296 54       		.byte	0x54
 4171 0297 C0000000 		.4byte	.LVL36
 4172 029b C2000000 		.4byte	.LVL37
 4173 029f 0100     		.2byte	0x1
 4174 02a1 51       		.byte	0x51
 4175 02a2 C2000000 		.4byte	.LVL37
 4176 02a6 C4000000 		.4byte	.LVL38
 4177 02aa 0100     		.2byte	0x1
 4178 02ac 54       		.byte	0x54
 4179 02ad C4000000 		.4byte	.LVL38
 4180 02b1 E4000000 		.4byte	.LVL44
 4181 02b5 0400     		.2byte	0x4
 4182 02b7 F3       		.byte	0xf3
 4183 02b8 01       		.uleb128 0x1
 4184 02b9 51       		.byte	0x51
 4185 02ba 9F       		.byte	0x9f
 4186 02bb E4000000 		.4byte	.LVL44
 4187 02bf E7000000 		.4byte	.LVL45-1
 4188 02c3 0100     		.2byte	0x1
 4189 02c5 51       		.byte	0x51
 4190 02c6 E7000000 		.4byte	.LVL45-1
 4191 02ca EC000000 		.4byte	.LVL46
 4192 02ce 0100     		.2byte	0x1
 4193 02d0 54       		.byte	0x54
 4194 02d1 EC000000 		.4byte	.LVL46
 4195 02d5 EF000000 		.4byte	.LVL47-1
 4196 02d9 0100     		.2byte	0x1
 4197 02db 51       		.byte	0x51
 4198 02dc EF000000 		.4byte	.LVL47-1
 4199 02e0 F4000000 		.4byte	.LVL48
 4200 02e4 0100     		.2byte	0x1
 4201 02e6 54       		.byte	0x54
 4202 02e7 F4000000 		.4byte	.LVL48
 4203 02eb 26010000 		.4byte	.LVL51
 4204 02ef 0400     		.2byte	0x4
 4205 02f1 F3       		.byte	0xf3
 4206 02f2 01       		.uleb128 0x1
 4207 02f3 51       		.byte	0x51
 4208 02f4 9F       		.byte	0x9f
 4209 02f5 26010000 		.4byte	.LVL51
 4210 02f9 38010000 		.4byte	.LFE27
 4211 02fd 0100     		.2byte	0x1
 4212 02ff 51       		.byte	0x51
 4213 0300 00000000 		.4byte	0
 4214 0304 00000000 		.4byte	0
 4215              	.LLST8:
 4216 0308 24000000 		.4byte	.LVL12
 4217 030c 2E000000 		.4byte	.LVL14
 4218 0310 0600     		.2byte	0x6
 4219 0312 56       		.byte	0x56
 4220 0313 93       		.byte	0x93
 4221 0314 04       		.uleb128 0x4
 4222 0315 57       		.byte	0x57
 4223 0316 93       		.byte	0x93
 4224 0317 04       		.uleb128 0x4
ARM GAS  C:\Users\164\AppData\Local\Temp\cctl9rYr.s 			page 86


 4225 0318 3A000000 		.4byte	.LVL15
 4226 031c 46000000 		.4byte	.LVL20
 4227 0320 0600     		.2byte	0x6
 4228 0322 56       		.byte	0x56
 4229 0323 93       		.byte	0x93
 4230 0324 04       		.uleb128 0x4
 4231 0325 57       		.byte	0x57
 4232 0326 93       		.byte	0x93
 4233 0327 04       		.uleb128 0x4
 4234 0328 92000000 		.4byte	.LVL27
 4235 032c 98000000 		.4byte	.LVL29
 4236 0330 0600     		.2byte	0x6
 4237 0332 56       		.byte	0x56
 4238 0333 93       		.byte	0x93
 4239 0334 04       		.uleb128 0x4
 4240 0335 57       		.byte	0x57
 4241 0336 93       		.byte	0x93
 4242 0337 04       		.uleb128 0x4
 4243 0338 F4000000 		.4byte	.LVL48
 4244 033c 26010000 		.4byte	.LVL51
 4245 0340 0600     		.2byte	0x6
 4246 0342 56       		.byte	0x56
 4247 0343 93       		.byte	0x93
 4248 0344 04       		.uleb128 0x4
 4249 0345 57       		.byte	0x57
 4250 0346 93       		.byte	0x93
 4251 0347 04       		.uleb128 0x4
 4252 0348 00000000 		.4byte	0
 4253 034c 00000000 		.4byte	0
 4254              	.LLST9:
 4255 0350 2C000000 		.4byte	.LVL13
 4256 0354 2E000000 		.4byte	.LVL14
 4257 0358 0600     		.2byte	0x6
 4258 035a 54       		.byte	0x54
 4259 035b 93       		.byte	0x93
 4260 035c 04       		.uleb128 0x4
 4261 035d 55       		.byte	0x55
 4262 035e 93       		.byte	0x93
 4263 035f 04       		.uleb128 0x4
 4264 0360 44000000 		.4byte	.LVL19
 4265 0364 46000000 		.4byte	.LVL20
 4266 0368 0600     		.2byte	0x6
 4267 036a 54       		.byte	0x54
 4268 036b 93       		.byte	0x93
 4269 036c 04       		.uleb128 0x4
 4270 036d 55       		.byte	0x55
 4271 036e 93       		.byte	0x93
 4272 036f 04       		.uleb128 0x4
 4273 0370 96000000 		.4byte	.LVL28
 4274 0374 98000000 		.4byte	.LVL29
 4275 0378 0600     		.2byte	0x6
 4276 037a 54       		.byte	0x54
 4277 037b 93       		.byte	0x93
 4278 037c 04       		.uleb128 0x4
 4279 037d 55       		.byte	0x55
 4280 037e 93       		.byte	0x93
 4281 037f 04       		.uleb128 0x4
ARM GAS  C:\Users\164\AppData\Local\Temp\cctl9rYr.s 			page 87


 4282 0380 F4000000 		.4byte	.LVL48
 4283 0384 26010000 		.4byte	.LVL51
 4284 0388 0600     		.2byte	0x6
 4285 038a 54       		.byte	0x54
 4286 038b 93       		.byte	0x93
 4287 038c 04       		.uleb128 0x4
 4288 038d 55       		.byte	0x55
 4289 038e 93       		.byte	0x93
 4290 038f 04       		.uleb128 0x4
 4291 0390 00000000 		.4byte	0
 4292 0394 00000000 		.4byte	0
 4293              	.LLST10:
 4294 0398 C0000000 		.4byte	.LVL36
 4295 039c C2000000 		.4byte	.LVL37
 4296 03a0 0100     		.2byte	0x1
 4297 03a2 51       		.byte	0x51
 4298 03a3 C2000000 		.4byte	.LVL37
 4299 03a7 C4000000 		.4byte	.LVL38
 4300 03ab 0100     		.2byte	0x1
 4301 03ad 54       		.byte	0x54
 4302 03ae C4000000 		.4byte	.LVL38
 4303 03b2 E0000000 		.4byte	.LVL43
 4304 03b6 0400     		.2byte	0x4
 4305 03b8 F3       		.byte	0xf3
 4306 03b9 01       		.uleb128 0x1
 4307 03ba 51       		.byte	0x51
 4308 03bb 9F       		.byte	0x9f
 4309 03bc 00000000 		.4byte	0
 4310 03c0 00000000 		.4byte	0
 4311              	.LLST11:
 4312 03c4 C0000000 		.4byte	.LVL36
 4313 03c8 D4000000 		.4byte	.LVL40
 4314 03cc 0100     		.2byte	0x1
 4315 03ce 50       		.byte	0x50
 4316 03cf D4000000 		.4byte	.LVL40
 4317 03d3 E0000000 		.4byte	.LVL43
 4318 03d7 0400     		.2byte	0x4
 4319 03d9 F3       		.byte	0xf3
 4320 03da 01       		.uleb128 0x1
 4321 03db 50       		.byte	0x50
 4322 03dc 9F       		.byte	0x9f
 4323 03dd 00000000 		.4byte	0
 4324 03e1 00000000 		.4byte	0
 4325              	.LLST12:
 4326 03e5 C8000000 		.4byte	.LVL39
 4327 03e9 E4000000 		.4byte	.LVL44
 4328 03ed 1600     		.2byte	0x16
 4329 03ef 74       		.byte	0x74
 4330 03f0 00       		.sleb128 0
 4331 03f1 12       		.byte	0x12
 4332 03f2 40       		.byte	0x40
 4333 03f3 4B       		.byte	0x4b
 4334 03f4 24       		.byte	0x24
 4335 03f5 22       		.byte	0x22
 4336 03f6 75       		.byte	0x75
 4337 03f7 00       		.sleb128 0
 4338 03f8 16       		.byte	0x16
ARM GAS  C:\Users\164\AppData\Local\Temp\cctl9rYr.s 			page 88


 4339 03f9 14       		.byte	0x14
 4340 03fa 40       		.byte	0x40
 4341 03fb 4B       		.byte	0x4b
 4342 03fc 24       		.byte	0x24
 4343 03fd 22       		.byte	0x22
 4344 03fe 2D       		.byte	0x2d
 4345 03ff 28       		.byte	0x28
 4346 0400 0100     		.2byte	0x1
 4347 0402 16       		.byte	0x16
 4348 0403 13       		.byte	0x13
 4349 0404 9F       		.byte	0x9f
 4350 0405 00000000 		.4byte	0
 4351 0409 00000000 		.4byte	0
 4352              	.LLST13:
 4353 040d D8000000 		.4byte	.LVL41
 4354 0411 DC000000 		.4byte	.LVL42
 4355 0415 0100     		.2byte	0x1
 4356 0417 50       		.byte	0x50
 4357 0418 00000000 		.4byte	0
 4358 041c 00000000 		.4byte	0
 4359              	.LLST14:
 4360 0420 00000000 		.4byte	.LVL57
 4361 0424 08000000 		.4byte	.LVL59
 4362 0428 0100     		.2byte	0x1
 4363 042a 50       		.byte	0x50
 4364 042b 08000000 		.4byte	.LVL59
 4365 042f 0B000000 		.4byte	.LVL60-1
 4366 0433 0100     		.2byte	0x1
 4367 0435 51       		.byte	0x51
 4368 0436 0B000000 		.4byte	.LVL60-1
 4369 043a 1E000000 		.4byte	.LFE28
 4370 043e 0400     		.2byte	0x4
 4371 0440 F3       		.byte	0xf3
 4372 0441 01       		.uleb128 0x1
 4373 0442 50       		.byte	0x50
 4374 0443 9F       		.byte	0x9f
 4375 0444 00000000 		.4byte	0
 4376 0448 00000000 		.4byte	0
 4377              	.LLST15:
 4378 044c 00000000 		.4byte	.LVL57
 4379 0450 06000000 		.4byte	.LVL58
 4380 0454 0100     		.2byte	0x1
 4381 0456 51       		.byte	0x51
 4382 0457 06000000 		.4byte	.LVL58
 4383 045b 1E000000 		.4byte	.LFE28
 4384 045f 0100     		.2byte	0x1
 4385 0461 54       		.byte	0x54
 4386 0462 00000000 		.4byte	0
 4387 0466 00000000 		.4byte	0
 4388              	.LLST16:
 4389 046a 0C000000 		.4byte	.LVL60
 4390 046e 1C000000 		.4byte	.LVL63
 4391 0472 0100     		.2byte	0x1
 4392 0474 50       		.byte	0x50
 4393 0475 00000000 		.4byte	0
 4394 0479 00000000 		.4byte	0
 4395              	.LLST17:
ARM GAS  C:\Users\164\AppData\Local\Temp\cctl9rYr.s 			page 89


 4396 047d 00000000 		.4byte	.LVL64
 4397 0481 1A000000 		.4byte	.LVL65
 4398 0485 0100     		.2byte	0x1
 4399 0487 50       		.byte	0x50
 4400 0488 1A000000 		.4byte	.LVL65
 4401 048c 1E000000 		.4byte	.LVL66
 4402 0490 0400     		.2byte	0x4
 4403 0492 F3       		.byte	0xf3
 4404 0493 01       		.uleb128 0x1
 4405 0494 50       		.byte	0x50
 4406 0495 9F       		.byte	0x9f
 4407 0496 1E000000 		.4byte	.LVL66
 4408 049a 2A000000 		.4byte	.LVL67
 4409 049e 0100     		.2byte	0x1
 4410 04a0 50       		.byte	0x50
 4411 04a1 2A000000 		.4byte	.LVL67
 4412 04a5 2E000000 		.4byte	.LVL68
 4413 04a9 0400     		.2byte	0x4
 4414 04ab F3       		.byte	0xf3
 4415 04ac 01       		.uleb128 0x1
 4416 04ad 50       		.byte	0x50
 4417 04ae 9F       		.byte	0x9f
 4418 04af 2E000000 		.4byte	.LVL68
 4419 04b3 44000000 		.4byte	.LFE29
 4420 04b7 0100     		.2byte	0x1
 4421 04b9 50       		.byte	0x50
 4422 04ba 00000000 		.4byte	0
 4423 04be 00000000 		.4byte	0
 4424              	.LLST18:
 4425 04c2 00000000 		.4byte	.LVL69
 4426 04c6 17000000 		.4byte	.LVL70-1
 4427 04ca 0100     		.2byte	0x1
 4428 04cc 50       		.byte	0x50
 4429 04cd 17000000 		.4byte	.LVL70-1
 4430 04d1 1A000000 		.4byte	.LVL71
 4431 04d5 0400     		.2byte	0x4
 4432 04d7 F3       		.byte	0xf3
 4433 04d8 01       		.uleb128 0x1
 4434 04d9 50       		.byte	0x50
 4435 04da 9F       		.byte	0x9f
 4436 04db 1A000000 		.4byte	.LVL71
 4437 04df 1D000000 		.4byte	.LVL72-1
 4438 04e3 0100     		.2byte	0x1
 4439 04e5 50       		.byte	0x50
 4440 04e6 1D000000 		.4byte	.LVL72-1
 4441 04ea 20000000 		.4byte	.LVL73
 4442 04ee 0400     		.2byte	0x4
 4443 04f0 F3       		.byte	0xf3
 4444 04f1 01       		.uleb128 0x1
 4445 04f2 50       		.byte	0x50
 4446 04f3 9F       		.byte	0x9f
 4447 04f4 20000000 		.4byte	.LVL73
 4448 04f8 23000000 		.4byte	.LVL74-1
 4449 04fc 0100     		.2byte	0x1
 4450 04fe 50       		.byte	0x50
 4451 04ff 23000000 		.4byte	.LVL74-1
 4452 0503 26000000 		.4byte	.LVL75
ARM GAS  C:\Users\164\AppData\Local\Temp\cctl9rYr.s 			page 90


 4453 0507 0400     		.2byte	0x4
 4454 0509 F3       		.byte	0xf3
 4455 050a 01       		.uleb128 0x1
 4456 050b 50       		.byte	0x50
 4457 050c 9F       		.byte	0x9f
 4458 050d 26000000 		.4byte	.LVL75
 4459 0511 29000000 		.4byte	.LVL76-1
 4460 0515 0100     		.2byte	0x1
 4461 0517 50       		.byte	0x50
 4462 0518 29000000 		.4byte	.LVL76-1
 4463 051c 2C000000 		.4byte	.LFE32
 4464 0520 0400     		.2byte	0x4
 4465 0522 F3       		.byte	0xf3
 4466 0523 01       		.uleb128 0x1
 4467 0524 50       		.byte	0x50
 4468 0525 9F       		.byte	0x9f
 4469 0526 00000000 		.4byte	0
 4470 052a 00000000 		.4byte	0
 4471              	.LLST19:
 4472 052e 26000000 		.4byte	.LVL75
 4473 0532 29000000 		.4byte	.LVL76-1
 4474 0536 0100     		.2byte	0x1
 4475 0538 50       		.byte	0x50
 4476 0539 29000000 		.4byte	.LVL76-1
 4477 053d 2A000000 		.4byte	.LVL76
 4478 0541 0400     		.2byte	0x4
 4479 0543 F3       		.byte	0xf3
 4480 0544 01       		.uleb128 0x1
 4481 0545 50       		.byte	0x50
 4482 0546 9F       		.byte	0x9f
 4483 0547 00000000 		.4byte	0
 4484 054b 00000000 		.4byte	0
 4485              	.LLST20:
 4486 054f 00000000 		.4byte	.LVL77
 4487 0553 04000000 		.4byte	.LVL78
 4488 0557 0100     		.2byte	0x1
 4489 0559 50       		.byte	0x50
 4490 055a 04000000 		.4byte	.LVL78
 4491 055e 28000000 		.4byte	.LVL85
 4492 0562 0100     		.2byte	0x1
 4493 0564 53       		.byte	0x53
 4494 0565 28000000 		.4byte	.LVL85
 4495 0569 4C000000 		.4byte	.LVL92
 4496 056d 0100     		.2byte	0x1
 4497 056f 52       		.byte	0x52
 4498 0570 4C000000 		.4byte	.LVL92
 4499 0574 4E000000 		.4byte	.LVL93
 4500 0578 0100     		.2byte	0x1
 4501 057a 53       		.byte	0x53
 4502 057b 4E000000 		.4byte	.LVL93
 4503 057f 5C000000 		.4byte	.LFE33
 4504 0583 0100     		.2byte	0x1
 4505 0585 52       		.byte	0x52
 4506 0586 00000000 		.4byte	0
 4507 058a 00000000 		.4byte	0
 4508              	.LLST21:
 4509 058e 04000000 		.4byte	.LVL78
ARM GAS  C:\Users\164\AppData\Local\Temp\cctl9rYr.s 			page 91


 4510 0592 28000000 		.4byte	.LVL85
 4511 0596 0200     		.2byte	0x2
 4512 0598 30       		.byte	0x30
 4513 0599 9F       		.byte	0x9f
 4514 059a 28000000 		.4byte	.LVL85
 4515 059e 5C000000 		.4byte	.LFE33
 4516 05a2 0100     		.2byte	0x1
 4517 05a4 50       		.byte	0x50
 4518 05a5 00000000 		.4byte	0
 4519 05a9 00000000 		.4byte	0
 4520              	.LLST22:
 4521 05ad 04000000 		.4byte	.LVL78
 4522 05b1 1A000000 		.4byte	.LVL79
 4523 05b5 0200     		.2byte	0x2
 4524 05b7 30       		.byte	0x30
 4525 05b8 9F       		.byte	0x9f
 4526 05b9 1A000000 		.4byte	.LVL79
 4527 05bd 1E000000 		.4byte	.LVL81
 4528 05c1 0100     		.2byte	0x1
 4529 05c3 55       		.byte	0x55
 4530 05c4 1E000000 		.4byte	.LVL81
 4531 05c8 20000000 		.4byte	.LVL82
 4532 05cc 0200     		.2byte	0x2
 4533 05ce 30       		.byte	0x30
 4534 05cf 9F       		.byte	0x9f
 4535 05d0 24000000 		.4byte	.LVL83
 4536 05d4 28000000 		.4byte	.LVL85
 4537 05d8 0200     		.2byte	0x2
 4538 05da 30       		.byte	0x30
 4539 05db 9F       		.byte	0x9f
 4540 05dc 28000000 		.4byte	.LVL85
 4541 05e0 5A000000 		.4byte	.LVL97
 4542 05e4 0100     		.2byte	0x1
 4543 05e6 55       		.byte	0x55
 4544 05e7 00000000 		.4byte	0
 4545 05eb 00000000 		.4byte	0
 4546              	.LLST23:
 4547 05ef 28000000 		.4byte	.LVL85
 4548 05f3 2E000000 		.4byte	.LVL86
 4549 05f7 0100     		.2byte	0x1
 4550 05f9 53       		.byte	0x53
 4551 05fa 2E000000 		.4byte	.LVL86
 4552 05fe 30000000 		.4byte	.LVL87
 4553 0602 0400     		.2byte	0x4
 4554 0604 73       		.byte	0x73
 4555 0605 D700     		.sleb128 87
 4556 0607 9F       		.byte	0x9f
 4557 0608 30000000 		.4byte	.LVL87
 4558 060c 36000000 		.4byte	.LVL88
 4559 0610 0100     		.2byte	0x1
 4560 0612 53       		.byte	0x53
 4561 0613 36000000 		.4byte	.LVL88
 4562 0617 38000000 		.4byte	.LVL89
 4563 061b 0300     		.2byte	0x3
 4564 061d 73       		.byte	0x73
 4565 061e 37       		.sleb128 55
 4566 061f 9F       		.byte	0x9f
ARM GAS  C:\Users\164\AppData\Local\Temp\cctl9rYr.s 			page 92


 4567 0620 38000000 		.4byte	.LVL89
 4568 0624 42000000 		.4byte	.LVL90
 4569 0628 0100     		.2byte	0x1
 4570 062a 53       		.byte	0x53
 4571 062b 42000000 		.4byte	.LVL90
 4572 062f 4C000000 		.4byte	.LVL92
 4573 0633 0800     		.2byte	0x8
 4574 0635 72       		.byte	0x72
 4575 0636 7F       		.sleb128 -1
 4576 0637 94       		.byte	0x94
 4577 0638 01       		.byte	0x1
 4578 0639 08       		.byte	0x8
 4579 063a FF       		.byte	0xff
 4580 063b 1A       		.byte	0x1a
 4581 063c 9F       		.byte	0x9f
 4582 063d 50000000 		.4byte	.LVL94
 4583 0641 54000000 		.4byte	.LVL95
 4584 0645 0100     		.2byte	0x1
 4585 0647 53       		.byte	0x53
 4586 0648 54000000 		.4byte	.LVL95
 4587 064c 5C000000 		.4byte	.LFE33
 4588 0650 0800     		.2byte	0x8
 4589 0652 72       		.byte	0x72
 4590 0653 7F       		.sleb128 -1
 4591 0654 94       		.byte	0x94
 4592 0655 01       		.byte	0x1
 4593 0656 08       		.byte	0x8
 4594 0657 FF       		.byte	0xff
 4595 0658 1A       		.byte	0x1a
 4596 0659 9F       		.byte	0x9f
 4597 065a 00000000 		.4byte	0
 4598 065e 00000000 		.4byte	0
 4599              	.LLST24:
 4600 0662 2E000000 		.4byte	.LVL86
 4601 0666 30000000 		.4byte	.LVL87
 4602 066a 0100     		.2byte	0x1
 4603 066c 53       		.byte	0x53
 4604 066d 36000000 		.4byte	.LVL88
 4605 0671 38000000 		.4byte	.LVL89
 4606 0675 0100     		.2byte	0x1
 4607 0677 53       		.byte	0x53
 4608 0678 42000000 		.4byte	.LVL90
 4609 067c 4C000000 		.4byte	.LVL92
 4610 0680 0100     		.2byte	0x1
 4611 0682 53       		.byte	0x53
 4612 0683 00000000 		.4byte	0
 4613 0687 00000000 		.4byte	0
 4614              	.LLST25:
 4615 068b 00000000 		.4byte	.LVL98
 4616 068f 07000000 		.4byte	.LVL99-1
 4617 0693 0100     		.2byte	0x1
 4618 0695 50       		.byte	0x50
 4619 0696 07000000 		.4byte	.LVL99-1
 4620 069a 20000000 		.4byte	.LFE34
 4621 069e 0400     		.2byte	0x4
 4622 06a0 F3       		.byte	0xf3
 4623 06a1 01       		.uleb128 0x1
ARM GAS  C:\Users\164\AppData\Local\Temp\cctl9rYr.s 			page 93


 4624 06a2 50       		.byte	0x50
 4625 06a3 9F       		.byte	0x9f
 4626 06a4 00000000 		.4byte	0
 4627 06a8 00000000 		.4byte	0
 4628              	.LLST26:
 4629 06ac 08000000 		.4byte	.LVL99
 4630 06b0 1E000000 		.4byte	.LVL100
 4631 06b4 0100     		.2byte	0x1
 4632 06b6 50       		.byte	0x50
 4633 06b7 1E000000 		.4byte	.LVL100
 4634 06bb 20000000 		.4byte	.LFE34
 4635 06bf 0100     		.2byte	0x1
 4636 06c1 53       		.byte	0x53
 4637 06c2 00000000 		.4byte	0
 4638 06c6 00000000 		.4byte	0
 4639              	.LLST27:
 4640 06ca 00000000 		.4byte	.LVL101
 4641 06ce 08000000 		.4byte	.LVL103
 4642 06d2 0100     		.2byte	0x1
 4643 06d4 50       		.byte	0x50
 4644 06d5 08000000 		.4byte	.LVL103
 4645 06d9 48000000 		.4byte	.LFE35
 4646 06dd 0100     		.2byte	0x1
 4647 06df 54       		.byte	0x54
 4648 06e0 00000000 		.4byte	0
 4649 06e4 00000000 		.4byte	0
 4650              	.LLST28:
 4651 06e8 04000000 		.4byte	.LVL102
 4652 06ec 08000000 		.4byte	.LVL103
 4653 06f0 0200     		.2byte	0x2
 4654 06f2 30       		.byte	0x30
 4655 06f3 9F       		.byte	0x9f
 4656 06f4 08000000 		.4byte	.LVL103
 4657 06f8 24000000 		.4byte	.LVL107
 4658 06fc 0100     		.2byte	0x1
 4659 06fe 55       		.byte	0x55
 4660 06ff 26000000 		.4byte	.LVL108
 4661 0703 48000000 		.4byte	.LFE35
 4662 0707 0100     		.2byte	0x1
 4663 0709 55       		.byte	0x55
 4664 070a 00000000 		.4byte	0
 4665 070e 00000000 		.4byte	0
 4666              	.LLST29:
 4667 0712 00000000 		.4byte	.LVL113
 4668 0716 1A000000 		.4byte	.LVL115
 4669 071a 0100     		.2byte	0x1
 4670 071c 51       		.byte	0x51
 4671 071d 1A000000 		.4byte	.LVL115
 4672 0721 4C000000 		.4byte	.LFE36
 4673 0725 0100     		.2byte	0x1
 4674 0727 56       		.byte	0x56
 4675 0728 00000000 		.4byte	0
 4676 072c 00000000 		.4byte	0
 4677              	.LLST30:
 4678 0730 00000000 		.4byte	.LVL113
 4679 0734 0A000000 		.4byte	.LVL114
 4680 0738 0100     		.2byte	0x1
ARM GAS  C:\Users\164\AppData\Local\Temp\cctl9rYr.s 			page 94


 4681 073a 52       		.byte	0x52
 4682 073b 0A000000 		.4byte	.LVL114
 4683 073f 4C000000 		.4byte	.LFE36
 4684 0743 0100     		.2byte	0x1
 4685 0745 57       		.byte	0x57
 4686 0746 00000000 		.4byte	0
 4687 074a 00000000 		.4byte	0
 4688              	.LLST31:
 4689 074e 00000000 		.4byte	.LVL113
 4690 0752 1F000000 		.4byte	.LVL117-1
 4691 0756 0100     		.2byte	0x1
 4692 0758 53       		.byte	0x53
 4693 0759 1F000000 		.4byte	.LVL117-1
 4694 075d 4C000000 		.4byte	.LFE36
 4695 0761 0400     		.2byte	0x4
 4696 0763 F3       		.byte	0xf3
 4697 0764 01       		.uleb128 0x1
 4698 0765 53       		.byte	0x53
 4699 0766 9F       		.byte	0x9f
 4700 0767 00000000 		.4byte	0
 4701 076b 00000000 		.4byte	0
 4702              	.LLST32:
 4703 076f 00000000 		.4byte	.LVL113
 4704 0773 1C000000 		.4byte	.LVL116
 4705 0777 0200     		.2byte	0x2
 4706 0779 70       		.byte	0x70
 4707 077a 00       		.sleb128 0
 4708 077b 1C000000 		.4byte	.LVL116
 4709 077f 4C000000 		.4byte	.LFE36
 4710 0783 0200     		.2byte	0x2
 4711 0785 74       		.byte	0x74
 4712 0786 00       		.sleb128 0
 4713 0787 00000000 		.4byte	0
 4714 078b 00000000 		.4byte	0
 4715              	.LLST33:
 4716 078f 00000000 		.4byte	.LVL120
 4717 0793 08000000 		.4byte	.LVL121
 4718 0797 0100     		.2byte	0x1
 4719 0799 50       		.byte	0x50
 4720 079a 08000000 		.4byte	.LVL121
 4721 079e 14000000 		.4byte	.LFE37
 4722 07a2 0100     		.2byte	0x1
 4723 07a4 54       		.byte	0x54
 4724 07a5 00000000 		.4byte	0
 4725 07a9 00000000 		.4byte	0
 4726              	.LLST34:
 4727 07ad 00000000 		.4byte	.LVL124
 4728 07b1 1A000000 		.4byte	.LVL125
 4729 07b5 0100     		.2byte	0x1
 4730 07b7 50       		.byte	0x50
 4731 07b8 1A000000 		.4byte	.LVL125
 4732 07bc 1E000000 		.4byte	.LVL126
 4733 07c0 0400     		.2byte	0x4
 4734 07c2 F3       		.byte	0xf3
 4735 07c3 01       		.uleb128 0x1
 4736 07c4 50       		.byte	0x50
 4737 07c5 9F       		.byte	0x9f
ARM GAS  C:\Users\164\AppData\Local\Temp\cctl9rYr.s 			page 95


 4738 07c6 1E000000 		.4byte	.LVL126
 4739 07ca 3F000000 		.4byte	.LVL127-1
 4740 07ce 0100     		.2byte	0x1
 4741 07d0 50       		.byte	0x50
 4742 07d1 3F000000 		.4byte	.LVL127-1
 4743 07d5 42000000 		.4byte	.LVL128
 4744 07d9 0400     		.2byte	0x4
 4745 07db F3       		.byte	0xf3
 4746 07dc 01       		.uleb128 0x1
 4747 07dd 50       		.byte	0x50
 4748 07de 9F       		.byte	0x9f
 4749 07df 42000000 		.4byte	.LVL128
 4750 07e3 44000000 		.4byte	.LVL129
 4751 07e7 0100     		.2byte	0x1
 4752 07e9 50       		.byte	0x50
 4753 07ea 44000000 		.4byte	.LVL129
 4754 07ee 4A000000 		.4byte	.LVL131
 4755 07f2 0400     		.2byte	0x4
 4756 07f4 F3       		.byte	0xf3
 4757 07f5 01       		.uleb128 0x1
 4758 07f6 50       		.byte	0x50
 4759 07f7 9F       		.byte	0x9f
 4760 07f8 4A000000 		.4byte	.LVL131
 4761 07fc 4D000000 		.4byte	.LVL132-1
 4762 0800 0100     		.2byte	0x1
 4763 0802 50       		.byte	0x50
 4764 0803 4D000000 		.4byte	.LVL132-1
 4765 0807 50000000 		.4byte	.LVL133
 4766 080b 0400     		.2byte	0x4
 4767 080d F3       		.byte	0xf3
 4768 080e 01       		.uleb128 0x1
 4769 080f 50       		.byte	0x50
 4770 0810 9F       		.byte	0x9f
 4771 0811 50000000 		.4byte	.LVL133
 4772 0815 53000000 		.4byte	.LVL134-1
 4773 0819 0100     		.2byte	0x1
 4774 081b 50       		.byte	0x50
 4775 081c 53000000 		.4byte	.LVL134-1
 4776 0820 56000000 		.4byte	.LVL135
 4777 0824 0400     		.2byte	0x4
 4778 0826 F3       		.byte	0xf3
 4779 0827 01       		.uleb128 0x1
 4780 0828 50       		.byte	0x50
 4781 0829 9F       		.byte	0x9f
 4782 082a 56000000 		.4byte	.LVL135
 4783 082e 59000000 		.4byte	.LVL136-1
 4784 0832 0100     		.2byte	0x1
 4785 0834 50       		.byte	0x50
 4786 0835 59000000 		.4byte	.LVL136-1
 4787 0839 5C000000 		.4byte	.LVL137
 4788 083d 0400     		.2byte	0x4
 4789 083f F3       		.byte	0xf3
 4790 0840 01       		.uleb128 0x1
 4791 0841 50       		.byte	0x50
 4792 0842 9F       		.byte	0x9f
 4793 0843 5C000000 		.4byte	.LVL137
 4794 0847 5F000000 		.4byte	.LVL138-1
ARM GAS  C:\Users\164\AppData\Local\Temp\cctl9rYr.s 			page 96


 4795 084b 0100     		.2byte	0x1
 4796 084d 50       		.byte	0x50
 4797 084e 5F000000 		.4byte	.LVL138-1
 4798 0852 70000000 		.4byte	.LFE31
 4799 0856 0400     		.2byte	0x4
 4800 0858 F3       		.byte	0xf3
 4801 0859 01       		.uleb128 0x1
 4802 085a 50       		.byte	0x50
 4803 085b 9F       		.byte	0x9f
 4804 085c 00000000 		.4byte	0
 4805 0860 00000000 		.4byte	0
 4806              	.LLST35:
 4807 0864 00000000 		.4byte	.LVL139
 4808 0868 07000000 		.4byte	.LVL140-1
 4809 086c 0100     		.2byte	0x1
 4810 086e 50       		.byte	0x50
 4811 086f 07000000 		.4byte	.LVL140-1
 4812 0873 0E000000 		.4byte	.LFE30
 4813 0877 0100     		.2byte	0x1
 4814 0879 54       		.byte	0x54
 4815 087a 00000000 		.4byte	0
 4816 087e 00000000 		.4byte	0
 4817              	.LLST36:
 4818 0882 00000000 		.4byte	.LVL141
 4819 0886 0A000000 		.4byte	.LVL142
 4820 088a 0100     		.2byte	0x1
 4821 088c 50       		.byte	0x50
 4822 088d 0A000000 		.4byte	.LVL142
 4823 0891 1C000000 		.4byte	.LFE38
 4824 0895 0100     		.2byte	0x1
 4825 0897 56       		.byte	0x56
 4826 0898 00000000 		.4byte	0
 4827 089c 00000000 		.4byte	0
 4828              	.LLST37:
 4829 08a0 00000000 		.4byte	.LVL141
 4830 08a4 0D000000 		.4byte	.LVL143-1
 4831 08a8 0100     		.2byte	0x1
 4832 08aa 51       		.byte	0x51
 4833 08ab 0D000000 		.4byte	.LVL143-1
 4834 08af 1C000000 		.4byte	.LFE38
 4835 08b3 0400     		.2byte	0x4
 4836 08b5 F3       		.byte	0xf3
 4837 08b6 01       		.uleb128 0x1
 4838 08b7 51       		.byte	0x51
 4839 08b8 9F       		.byte	0x9f
 4840 08b9 00000000 		.4byte	0
 4841 08bd 00000000 		.4byte	0
 4842              	.LLST38:
 4843 08c1 00000000 		.4byte	.LVL141
 4844 08c5 0D000000 		.4byte	.LVL143-1
 4845 08c9 0100     		.2byte	0x1
 4846 08cb 52       		.byte	0x52
 4847 08cc 0D000000 		.4byte	.LVL143-1
 4848 08d0 1C000000 		.4byte	.LFE38
 4849 08d4 0100     		.2byte	0x1
 4850 08d6 54       		.byte	0x54
 4851 08d7 00000000 		.4byte	0
ARM GAS  C:\Users\164\AppData\Local\Temp\cctl9rYr.s 			page 97


 4852 08db 00000000 		.4byte	0
 4853              	.LLST39:
 4854 08df 00000000 		.4byte	.LVL145
 4855 08e3 08000000 		.4byte	.LVL146
 4856 08e7 0100     		.2byte	0x1
 4857 08e9 51       		.byte	0x51
 4858 08ea 08000000 		.4byte	.LVL146
 4859 08ee 32000000 		.4byte	.LFE39
 4860 08f2 0400     		.2byte	0x4
 4861 08f4 F3       		.byte	0xf3
 4862 08f5 01       		.uleb128 0x1
 4863 08f6 51       		.byte	0x51
 4864 08f7 9F       		.byte	0x9f
 4865 08f8 00000000 		.4byte	0
 4866 08fc 00000000 		.4byte	0
 4867              	.LLST40:
 4868 0900 00000000 		.4byte	.LVL145
 4869 0904 0D000000 		.4byte	.LVL148-1
 4870 0908 0100     		.2byte	0x1
 4871 090a 52       		.byte	0x52
 4872 090b 0D000000 		.4byte	.LVL148-1
 4873 090f 32000000 		.4byte	.LFE39
 4874 0913 0400     		.2byte	0x4
 4875 0915 F3       		.byte	0xf3
 4876 0916 01       		.uleb128 0x1
 4877 0917 52       		.byte	0x52
 4878 0918 9F       		.byte	0x9f
 4879 0919 00000000 		.4byte	0
 4880 091d 00000000 		.4byte	0
 4881              	.LLST41:
 4882 0921 0E000000 		.4byte	.LVL148
 4883 0925 25000000 		.4byte	.LVL149-1
 4884 0929 0100     		.2byte	0x1
 4885 092b 50       		.byte	0x50
 4886 092c 25000000 		.4byte	.LVL149-1
 4887 0930 2E000000 		.4byte	.LVL150
 4888 0934 0100     		.2byte	0x1
 4889 0936 55       		.byte	0x55
 4890 0937 00000000 		.4byte	0
 4891 093b 00000000 		.4byte	0
 4892              		.section	.debug_aranges,"",%progbits
 4893 0000 8C000000 		.4byte	0x8c
 4894 0004 0200     		.2byte	0x2
 4895 0006 00000000 		.4byte	.Ldebug_info0
 4896 000a 04       		.byte	0x4
 4897 000b 00       		.byte	0
 4898 000c 0000     		.2byte	0
 4899 000e 0000     		.2byte	0
 4900 0010 00000000 		.4byte	.LFB25
 4901 0014 14000000 		.4byte	.LFE25-.LFB25
 4902 0018 00000000 		.4byte	.LFB26
 4903 001c 22000000 		.4byte	.LFE26-.LFB26
 4904 0020 00000000 		.4byte	.LFB27
 4905 0024 38010000 		.4byte	.LFE27-.LFB27
 4906 0028 00000000 		.4byte	.LFB28
 4907 002c 1E000000 		.4byte	.LFE28-.LFB28
 4908 0030 00000000 		.4byte	.LFB29
ARM GAS  C:\Users\164\AppData\Local\Temp\cctl9rYr.s 			page 98


 4909 0034 44000000 		.4byte	.LFE29-.LFB29
 4910 0038 00000000 		.4byte	.LFB32
 4911 003c 2C000000 		.4byte	.LFE32-.LFB32
 4912 0040 00000000 		.4byte	.LFB33
 4913 0044 5C000000 		.4byte	.LFE33-.LFB33
 4914 0048 00000000 		.4byte	.LFB34
 4915 004c 20000000 		.4byte	.LFE34-.LFB34
 4916 0050 00000000 		.4byte	.LFB35
 4917 0054 48000000 		.4byte	.LFE35-.LFB35
 4918 0058 00000000 		.4byte	.LFB36
 4919 005c 4C000000 		.4byte	.LFE36-.LFB36
 4920 0060 00000000 		.4byte	.LFB37
 4921 0064 14000000 		.4byte	.LFE37-.LFB37
 4922 0068 00000000 		.4byte	.LFB31
 4923 006c 70000000 		.4byte	.LFE31-.LFB31
 4924 0070 00000000 		.4byte	.LFB30
 4925 0074 0E000000 		.4byte	.LFE30-.LFB30
 4926 0078 00000000 		.4byte	.LFB38
 4927 007c 1C000000 		.4byte	.LFE38-.LFB38
 4928 0080 00000000 		.4byte	.LFB39
 4929 0084 32000000 		.4byte	.LFE39-.LFB39
 4930 0088 00000000 		.4byte	0
 4931 008c 00000000 		.4byte	0
 4932              		.section	.debug_ranges,"",%progbits
 4933              	.Ldebug_ranges0:
 4934 0000 00000000 		.4byte	.LFB25
 4935 0004 14000000 		.4byte	.LFE25
 4936 0008 00000000 		.4byte	.LFB26
 4937 000c 22000000 		.4byte	.LFE26
 4938 0010 00000000 		.4byte	.LFB27
 4939 0014 38010000 		.4byte	.LFE27
 4940 0018 00000000 		.4byte	.LFB28
 4941 001c 1E000000 		.4byte	.LFE28
 4942 0020 00000000 		.4byte	.LFB29
 4943 0024 44000000 		.4byte	.LFE29
 4944 0028 00000000 		.4byte	.LFB32
 4945 002c 2C000000 		.4byte	.LFE32
 4946 0030 00000000 		.4byte	.LFB33
 4947 0034 5C000000 		.4byte	.LFE33
 4948 0038 00000000 		.4byte	.LFB34
 4949 003c 20000000 		.4byte	.LFE34
 4950 0040 00000000 		.4byte	.LFB35
 4951 0044 48000000 		.4byte	.LFE35
 4952 0048 00000000 		.4byte	.LFB36
 4953 004c 4C000000 		.4byte	.LFE36
 4954 0050 00000000 		.4byte	.LFB37
 4955 0054 14000000 		.4byte	.LFE37
 4956 0058 00000000 		.4byte	.LFB31
 4957 005c 70000000 		.4byte	.LFE31
 4958 0060 00000000 		.4byte	.LFB30
 4959 0064 0E000000 		.4byte	.LFE30
 4960 0068 00000000 		.4byte	.LFB38
 4961 006c 1C000000 		.4byte	.LFE38
 4962 0070 00000000 		.4byte	.LFB39
 4963 0074 32000000 		.4byte	.LFE39
 4964 0078 00000000 		.4byte	0
 4965 007c 00000000 		.4byte	0
ARM GAS  C:\Users\164\AppData\Local\Temp\cctl9rYr.s 			page 99


 4966              		.section	.debug_line,"",%progbits
 4967              	.Ldebug_line0:
 4968 0000 24040000 		.section	.debug_str,"MS",%progbits,1
 4968      02001202 
 4968      00000201 
 4968      FB0E0D00 
 4968      01010101 
 4969              	.LASF128:
 4970 0000 6D726263 		.ascii	"mrbc_instance_getiv\000"
 4970      5F696E73 
 4970      74616E63 
 4970      655F6765 
 4970      74697600 
 4971              	.LASF80:
 4972 0014 6C617374 		.ascii	"last\000"
 4972      00
 4973              	.LASF150:
 4974 0019 76616C75 		.ascii	"value.c\000"
 4974      652E6300 
 4975              	.LASF81:
 4976 0021 52486173 		.ascii	"RHash\000"
 4976      6800
 4977              	.LASF115:
 4978 0027 6D726263 		.ascii	"mrbc_clear_vm_id\000"
 4978      5F636C65 
 4978      61725F76 
 4978      6D5F6964 
 4978      00
 4979              	.LASF26:
 4980 0038 6D726263 		.ascii	"mrbc_func_t\000"
 4980      5F66756E 
 4980      635F7400 
 4981              	.LASF44:
 4982 0044 4D524243 		.ascii	"MRBC_TT_FLOAT\000"
 4982      5F54545F 
 4982      464C4F41 
 4982      5400
 4983              	.LASF66:
 4984 0052 7265665F 		.ascii	"ref_count\000"
 4984      636F756E 
 4984      7400
 4985              	.LASF152:
 4986 005c 6D726263 		.ascii	"mrbc_hash_clear_vm_id\000"
 4986      5F686173 
 4986      685F636C 
 4986      6561725F 
 4986      766D5F69 
 4987              	.LASF136:
 4988 0072 5F5F6173 		.ascii	"__assert_func\000"
 4988      73657274 
 4988      5F66756E 
 4988      6300
 4989              	.LASF135:
 4990 0080 66696E64 		.ascii	"find_class_by_object\000"
 4990      5F636C61 
 4990      73735F62 
 4990      795F6F62 
ARM GAS  C:\Users\164\AppData\Local\Temp\cctl9rYr.s 			page 100


 4990      6A656374 
 4991              	.LASF143:
 4992 0095 6D726263 		.ascii	"mrbc_array_delete\000"
 4992      5F617272 
 4992      61795F64 
 4992      656C6574 
 4992      6500
 4993              	.LASF13:
 4994 00a7 756E7369 		.ascii	"unsigned int\000"
 4994      676E6564 
 4994      20696E74 
 4994      00
 4995              	.LASF71:
 4996 00b4 6E657874 		.ascii	"next\000"
 4996      00
 4997              	.LASF39:
 4998 00b9 4D524243 		.ascii	"MRBC_TT_EMPTY\000"
 4998      5F54545F 
 4998      454D5054 
 4998      5900
 4999              	.LASF106:
 5000 00c7 6E5F6172 		.ascii	"n_args\000"
 5000      677300
 5001              	.LASF84:
 5002 00ce 6D726263 		.ascii	"mrbc_class\000"
 5002      5F636C61 
 5002      737300
 5003              	.LASF8:
 5004 00d9 5F5F696E 		.ascii	"__int32_t\000"
 5004      7433325F 
 5004      7400
 5005              	.LASF27:
 5006 00e3 69726570 		.ascii	"irep\000"
 5006      00
 5007              	.LASF86:
 5008 00e8 524B6579 		.ascii	"RKeyValueHandle\000"
 5008      56616C75 
 5008      6548616E 
 5008      646C6500 
 5009              	.LASF102:
 5010 00f8 6D726263 		.ascii	"mrbc_kv\000"
 5010      5F6B7600 
 5011              	.LASF130:
 5012 0100 7374725F 		.ascii	"str_to_symid\000"
 5012      746F5F73 
 5012      796D6964 
 5012      00
 5013              	.LASF109:
 5014 010d 6D726263 		.ascii	"mrbc_rproc_alloc\000"
 5014      5F727072 
 5014      6F635F61 
 5014      6C6C6F63 
 5014      00
 5015              	.LASF69:
 5016 011e 5250726F 		.ascii	"RProc\000"
 5016      6300
 5017              	.LASF88:
ARM GAS  C:\Users\164\AppData\Local\Temp\cctl9rYr.s 			page 101


 5018 0124 66756E63 		.ascii	"func\000"
 5018      00
 5019              	.LASF78:
 5020 0129 666C6167 		.ascii	"flag_exclude\000"
 5020      5F657863 
 5020      6C756465 
 5020      00
 5021              	.LASF105:
 5022 0136 70726576 		.ascii	"prev\000"
 5022      00
 5023              	.LASF30:
 5024 013b 72656773 		.ascii	"regs\000"
 5024      00
 5025              	.LASF38:
 5026 0140 4D524243 		.ascii	"MRBC_TT_HANDLE\000"
 5026      5F54545F 
 5026      48414E44 
 5026      4C4500
 5027              	.LASF99:
 5028 014f 6D726263 		.ascii	"mrbc_proc\000"
 5028      5F70726F 
 5028      6300
 5029              	.LASF96:
 5030 0159 706F6F6C 		.ascii	"pools\000"
 5030      7300
 5031              	.LASF148:
 5032 015f 6D726263 		.ascii	"mrbc_kv_get\000"
 5032      5F6B765F 
 5032      67657400 
 5033              	.LASF31:
 5034 016b 63757272 		.ascii	"current_regs\000"
 5034      656E745F 
 5034      72656773 
 5034      00
 5035              	.LASF14:
 5036 0178 696E7438 		.ascii	"int8_t\000"
 5036      5F7400
 5037              	.LASF61:
 5038 017f 52436C61 		.ascii	"RClass\000"
 5038      737300
 5039              	.LASF140:
 5040 0186 6D726263 		.ascii	"mrbc_raw_free\000"
 5040      5F726177 
 5040      5F667265 
 5040      6500
 5041              	.LASF117:
 5042 0194 62617365 		.ascii	"base\000"
 5042      00
 5043              	.LASF16:
 5044 0199 696E7431 		.ascii	"int16_t\000"
 5044      365F7400 
 5045              	.LASF45:
 5046 01a1 4D524243 		.ascii	"MRBC_TT_SYMBOL\000"
 5046      5F54545F 
 5046      53594D42 
 5046      4F4C00
 5047              	.LASF12:
ARM GAS  C:\Users\164\AppData\Local\Temp\cctl9rYr.s 			page 102


 5048 01b0 6C6F6E67 		.ascii	"long long unsigned int\000"
 5048      206C6F6E 
 5048      6720756E 
 5048      7369676E 
 5048      65642069 
 5049              	.LASF22:
 5050 01c7 6D726263 		.ascii	"mrbc_int\000"
 5050      5F696E74 
 5050      00
 5051              	.LASF6:
 5052 01d0 5F5F7569 		.ascii	"__uint16_t\000"
 5052      6E743136 
 5052      5F7400
 5053              	.LASF121:
 5054 01db 6D726263 		.ascii	"mrbc_irep_alloc\000"
 5054      5F697265 
 5054      705F616C 
 5054      6C6F6300 
 5055              	.LASF28:
 5056 01eb 766D5F69 		.ascii	"vm_id\000"
 5056      6400
 5057              	.LASF90:
 5058 01f1 6E6C6F63 		.ascii	"nlocals\000"
 5058      616C7300 
 5059              	.LASF126:
 5060 01f9 6D726263 		.ascii	"mrbc_release\000"
 5060      5F72656C 
 5060      65617365 
 5060      00
 5061              	.LASF53:
 5062 0206 6D726263 		.ascii	"mrbc_vtype\000"
 5062      5F767479 
 5062      706500
 5063              	.LASF108:
 5064 0211 6D726263 		.ascii	"mrbc_obj_alloc\000"
 5064      5F6F626A 
 5064      5F616C6C 
 5064      6F6300
 5065              	.LASF55:
 5066 0220 696E7374 		.ascii	"instance\000"
 5066      616E6365 
 5066      00
 5067              	.LASF29:
 5068 0229 70635F69 		.ascii	"pc_irep\000"
 5068      72657000 
 5069              	.LASF149:
 5070 0231 474E5520 		.ascii	"GNU C11 5.4.1 20160609 (release) [ARM/embedded-5-br"
 5070      43313120 
 5070      352E342E 
 5070      31203230 
 5070      31363036 
 5071 0264 616E6368 		.ascii	"anch revision 237715] -mcpu=cortex-m3 -mthumb -g -O"
 5071      20726576 
 5071      6973696F 
 5071      6E203233 
 5071      37373135 
 5072 0297 67202D66 		.ascii	"g -ffunction-sections -ffat-lto-objects\000"
ARM GAS  C:\Users\164\AppData\Local\Temp\cctl9rYr.s 			page 103


 5072      66756E63 
 5072      74696F6E 
 5072      2D736563 
 5072      74696F6E 
 5073              	.LASF91:
 5074 02bf 6E726567 		.ascii	"nregs\000"
 5074      7300
 5075              	.LASF73:
 5076 02c5 64617461 		.ascii	"data_size\000"
 5076      5F73697A 
 5076      6500
 5077              	.LASF64:
 5078 02cf 70726F63 		.ascii	"procs\000"
 5078      7300
 5079              	.LASF131:
 5080 02d5 6D656D63 		.ascii	"memcmp\000"
 5080      6D7000
 5081              	.LASF132:
 5082 02dc 6D726263 		.ascii	"mrbc_array_compare\000"
 5082      5F617272 
 5082      61795F63 
 5082      6F6D7061 
 5082      726500
 5083              	.LASF104:
 5084 02ef 43414C4C 		.ascii	"CALLINFO\000"
 5084      494E464F 
 5084      00
 5085              	.LASF95:
 5086 02f8 636F6465 		.ascii	"code\000"
 5086      00
 5087              	.LASF79:
 5088 02fd 66697273 		.ascii	"first\000"
 5088      7400
 5089              	.LASF36:
 5090 0303 666C6167 		.ascii	"flag_need_memfree\000"
 5090      5F6E6565 
 5090      645F6D65 
 5090      6D667265 
 5090      6500
 5091              	.LASF97:
 5092 0315 7074725F 		.ascii	"ptr_to_sym\000"
 5092      746F5F73 
 5092      796D00
 5093              	.LASF123:
 5094 0320 6D726263 		.ascii	"mrbc_instance_new\000"
 5094      5F696E73 
 5094      74616E63 
 5094      655F6E65 
 5094      7700
 5095              	.LASF21:
 5096 0332 63686172 		.ascii	"char\000"
 5096      00
 5097              	.LASF139:
 5098 0337 6D726263 		.ascii	"mrbc_range_clear_vm_id\000"
 5098      5F72616E 
 5098      67655F63 
 5098      6C656172 
ARM GAS  C:\Users\164\AppData\Local\Temp\cctl9rYr.s 			page 104


 5098      5F766D5F 
 5099              	.LASF23:
 5100 034e 6D726263 		.ascii	"mrbc_float\000"
 5100      5F666C6F 
 5100      617400
 5101              	.LASF67:
 5102 0359 69766172 		.ascii	"ivar\000"
 5102      00
 5103              	.LASF63:
 5104 035e 73757065 		.ascii	"super\000"
 5104      7200
 5105              	.LASF58:
 5106 0364 73747269 		.ascii	"string\000"
 5106      6E6700
 5107              	.LASF68:
 5108 036b 64617461 		.ascii	"data\000"
 5108      00
 5109              	.LASF40:
 5110 0370 4D524243 		.ascii	"MRBC_TT_NIL\000"
 5110      5F54545F 
 5110      4E494C00 
 5111              	.LASF49:
 5112 037c 4D524243 		.ascii	"MRBC_TT_ARRAY\000"
 5112      5F54545F 
 5112      41525241 
 5112      5900
 5113              	.LASF15:
 5114 038a 75696E74 		.ascii	"uint8_t\000"
 5114      385F7400 
 5115              	.LASF33:
 5116 0392 74617267 		.ascii	"target_class\000"
 5116      65745F63 
 5116      6C617373 
 5116      00
 5117              	.LASF151:
 5118 039f 433A5C55 		.ascii	"C:\\Users\\164\\Desktop\\github\\mcmc\\Design01.cyd"
 5118      73657273 
 5118      5C313634 
 5118      5C446573 
 5118      6B746F70 
 5119 03cc 736E00   		.ascii	"sn\000"
 5120              	.LASF142:
 5121 03cf 6D726263 		.ascii	"mrbc_kv_delete\000"
 5121      5F6B765F 
 5121      64656C65 
 5121      746500
 5122              	.LASF11:
 5123 03de 6C6F6E67 		.ascii	"long long int\000"
 5123      206C6F6E 
 5123      6720696E 
 5123      7400
 5124              	.LASF83:
 5125 03ec 6D726263 		.ascii	"mrbc_value\000"
 5125      5F76616C 
 5125      756500
 5126              	.LASF74:
 5127 03f7 6E5F7374 		.ascii	"n_stored\000"
ARM GAS  C:\Users\164\AppData\Local\Temp\cctl9rYr.s 			page 105


 5127      6F726564 
 5127      00
 5128              	.LASF62:
 5129 0400 73796D5F 		.ascii	"sym_id\000"
 5129      696400
 5130              	.LASF51:
 5131 0407 4D524243 		.ascii	"MRBC_TT_RANGE\000"
 5131      5F54545F 
 5131      52414E47 
 5131      4500
 5132              	.LASF4:
 5133 0415 5F5F696E 		.ascii	"__int16_t\000"
 5133      7431365F 
 5133      7400
 5134              	.LASF145:
 5135 041f 6D726263 		.ascii	"mrbc_range_delete\000"
 5135      5F72616E 
 5135      67655F64 
 5135      656C6574 
 5135      6500
 5136              	.LASF119:
 5137 0431 434D505F 		.ascii	"CMP_FLOAT\000"
 5137      464C4F41 
 5137      5400
 5138              	.LASF118:
 5139 043b 7369676E 		.ascii	"sign\000"
 5139      00
 5140              	.LASF43:
 5141 0440 4D524243 		.ascii	"MRBC_TT_FIXNUM\000"
 5141      5F54545F 
 5141      4649584E 
 5141      554D00
 5142              	.LASF116:
 5143 044f 6D726263 		.ascii	"mrbc_atoi\000"
 5143      5F61746F 
 5143      6900
 5144              	.LASF76:
 5145 0459 73697A65 		.ascii	"size\000"
 5145      00
 5146              	.LASF59:
 5147 045e 72616E67 		.ascii	"range\000"
 5147      6500
 5148              	.LASF50:
 5149 0464 4D524243 		.ascii	"MRBC_TT_STRING\000"
 5149      5F54545F 
 5149      53545249 
 5149      4E4700
 5150              	.LASF124:
 5151 0473 6D726263 		.ascii	"mrbc_instance_delete\000"
 5151      5F696E73 
 5151      74616E63 
 5151      655F6465 
 5151      6C657465 
 5152              	.LASF47:
 5153 0488 4D524243 		.ascii	"MRBC_TT_OBJECT\000"
 5153      5F54545F 
 5153      4F424A45 
ARM GAS  C:\Users\164\AppData\Local\Temp\cctl9rYr.s 			page 106


 5153      435400
 5154              	.LASF0:
 5155 0497 5F5F696E 		.ascii	"__int8_t\000"
 5155      74385F74 
 5155      00
 5156              	.LASF57:
 5157 04a0 61727261 		.ascii	"array\000"
 5157      7900
 5158              	.LASF19:
 5159 04a6 6C6F6E67 		.ascii	"long double\000"
 5159      20646F75 
 5159      626C6500 
 5160              	.LASF17:
 5161 04b2 75696E74 		.ascii	"uint16_t\000"
 5161      31365F74 
 5161      00
 5162              	.LASF32:
 5163 04bb 63616C6C 		.ascii	"callinfo_tail\000"
 5163      696E666F 
 5163      5F746169 
 5163      6C00
 5164              	.LASF42:
 5165 04c9 4D524243 		.ascii	"MRBC_TT_TRUE\000"
 5165      5F54545F 
 5165      54525545 
 5165      00
 5166              	.LASF113:
 5167 04d6 5F5F6675 		.ascii	"__func__\000"
 5167      6E635F5F 
 5167      00
 5168              	.LASF5:
 5169 04df 73686F72 		.ascii	"short int\000"
 5169      7420696E 
 5169      7400
 5170              	.LASF138:
 5171 04e9 6D726263 		.ascii	"mrbc_string_clear_vm_id\000"
 5171      5F737472 
 5171      696E675F 
 5171      636C6561 
 5171      725F766D 
 5172              	.LASF41:
 5173 0501 4D524243 		.ascii	"MRBC_TT_FALSE\000"
 5173      5F54545F 
 5173      46414C53 
 5173      4500
 5174              	.LASF9:
 5175 050f 6C6F6E67 		.ascii	"long int\000"
 5175      20696E74 
 5175      00
 5176              	.LASF137:
 5177 0518 6D726263 		.ascii	"mrbc_array_clear_vm_id\000"
 5177      5F617272 
 5177      61795F63 
 5177      6C656172 
 5177      5F766D5F 
 5178              	.LASF60:
 5179 052f 68617368 		.ascii	"hash\000"
ARM GAS  C:\Users\164\AppData\Local\Temp\cctl9rYr.s 			page 107


 5179      00
 5180              	.LASF37:
 5181 0534 524F626A 		.ascii	"RObject\000"
 5181      65637400 
 5182              	.LASF93:
 5183 053c 696C656E 		.ascii	"ilen\000"
 5183      00
 5184              	.LASF114:
 5185 0541 6D726263 		.ascii	"mrbc_dup\000"
 5185      5F647570 
 5185      00
 5186              	.LASF46:
 5187 054a 4D524243 		.ascii	"MRBC_TT_CLASS\000"
 5187      5F54545F 
 5187      434C4153 
 5187      5300
 5188              	.LASF103:
 5189 0558 6D726263 		.ascii	"mrbc_irep\000"
 5189      5F697265 
 5189      7000
 5190              	.LASF1:
 5191 0562 5F5F7569 		.ascii	"__uint8_t\000"
 5191      6E74385F 
 5191      7400
 5192              	.LASF98:
 5193 056c 72657073 		.ascii	"reps\000"
 5193      00
 5194              	.LASF110:
 5195 0571 6E616D65 		.ascii	"name\000"
 5195      00
 5196              	.LASF94:
 5197 0576 706C656E 		.ascii	"plen\000"
 5197      00
 5198              	.LASF147:
 5199 057b 6D726263 		.ascii	"mrbc_kv_set\000"
 5199      5F6B765F 
 5199      73657400 
 5200              	.LASF75:
 5201 0587 52537472 		.ascii	"RString\000"
 5201      696E6700 
 5202              	.LASF107:
 5203 058f 6D726263 		.ascii	"mrbc_callinfo\000"
 5203      5F63616C 
 5203      6C696E66 
 5203      6F00
 5204              	.LASF56:
 5205 059d 70726F63 		.ascii	"proc\000"
 5205      00
 5206              	.LASF120:
 5207 05a2 5245444F 		.ascii	"REDO\000"
 5207      00
 5208              	.LASF20:
 5209 05a7 73697A65 		.ascii	"sizetype\000"
 5209      74797065 
 5209      00
 5210              	.LASF141:
 5211 05b0 6D726263 		.ascii	"mrbc_kv_new\000"
ARM GAS  C:\Users\164\AppData\Local\Temp\cctl9rYr.s 			page 108


 5211      5F6B765F 
 5211      6E657700 
 5212              	.LASF10:
 5213 05bc 6C6F6E67 		.ascii	"long unsigned int\000"
 5213      20756E73 
 5213      69676E65 
 5213      6420696E 
 5213      7400
 5214              	.LASF85:
 5215 05ce 6D72625F 		.ascii	"mrb_class\000"
 5215      636C6173 
 5215      7300
 5216              	.LASF87:
 5217 05d8 6D726263 		.ascii	"mrbc_instance\000"
 5217      5F696E73 
 5217      74616E63 
 5217      6500
 5218              	.LASF18:
 5219 05e6 696E7433 		.ascii	"int32_t\000"
 5219      325F7400 
 5220              	.LASF144:
 5221 05ee 6D726263 		.ascii	"mrbc_string_delete\000"
 5221      5F737472 
 5221      696E675F 
 5221      64656C65 
 5221      746500
 5222              	.LASF92:
 5223 0601 726C656E 		.ascii	"rlen\000"
 5223      00
 5224              	.LASF89:
 5225 0606 49524550 		.ascii	"IREP\000"
 5225      00
 5226              	.LASF65:
 5227 060b 52496E73 		.ascii	"RInstance\000"
 5227      74616E63 
 5227      6500
 5228              	.LASF127:
 5229 0615 6D726263 		.ascii	"mrbc_instance_setiv\000"
 5229      5F696E73 
 5229      74616E63 
 5229      655F7365 
 5229      74697600 
 5230              	.LASF112:
 5231 0629 6D726263 		.ascii	"mrbc_obj_is_kind_of\000"
 5231      5F6F626A 
 5231      5F69735F 
 5231      6B696E64 
 5231      5F6F6600 
 5232              	.LASF122:
 5233 063d 6D726263 		.ascii	"mrbc_irep_free\000"
 5233      5F697265 
 5233      705F6672 
 5233      656500
 5234              	.LASF3:
 5235 064c 756E7369 		.ascii	"unsigned char\000"
 5235      676E6564 
 5235      20636861 
ARM GAS  C:\Users\164\AppData\Local\Temp\cctl9rYr.s 			page 109


 5235      7200
 5236              	.LASF82:
 5237 065a 6D726263 		.ascii	"mrbc_object\000"
 5237      5F6F626A 
 5237      65637400 
 5238              	.LASF125:
 5239 0666 6D726263 		.ascii	"mrbc_dec_ref_counter\000"
 5239      5F646563 
 5239      5F726566 
 5239      5F636F75 
 5239      6E746572 
 5240              	.LASF52:
 5241 067b 4D524243 		.ascii	"MRBC_TT_HASH\000"
 5241      5F54545F 
 5241      48415348 
 5241      00
 5242              	.LASF153:
 5243 0688 6D726263 		.ascii	"mrbc_string_compare\000"
 5243      5F737472 
 5243      696E675F 
 5243      636F6D70 
 5243      61726500 
 5244              	.LASF129:
 5245 069c 6D726263 		.ascii	"mrbc_alloc\000"
 5245      5F616C6C 
 5245      6F6300
 5246              	.LASF34:
 5247 06a7 6572726F 		.ascii	"error_code\000"
 5247      725F636F 
 5247      646500
 5248              	.LASF70:
 5249 06b2 635F6675 		.ascii	"c_func\000"
 5249      6E6300
 5250              	.LASF35:
 5251 06b9 666C6167 		.ascii	"flag_preemption\000"
 5251      5F707265 
 5251      656D7074 
 5251      696F6E00 
 5252              	.LASF2:
 5253 06c9 7369676E 		.ascii	"signed char\000"
 5253      65642063 
 5253      68617200 
 5254              	.LASF7:
 5255 06d5 73686F72 		.ascii	"short unsigned int\000"
 5255      7420756E 
 5255      7369676E 
 5255      65642069 
 5255      6E7400
 5256              	.LASF54:
 5257 06e8 68616E64 		.ascii	"handle\000"
 5257      6C6500
 5258              	.LASF111:
 5259 06ef 6D726263 		.ascii	"mrbc_compare\000"
 5259      5F636F6D 
 5259      70617265 
 5259      00
 5260              	.LASF72:
ARM GAS  C:\Users\164\AppData\Local\Temp\cctl9rYr.s 			page 110


 5261 06fc 52417272 		.ascii	"RArray\000"
 5261      617900
 5262              	.LASF25:
 5263 0703 6D726263 		.ascii	"mrbc_sym\000"
 5263      5F73796D 
 5263      00
 5264              	.LASF24:
 5265 070c 646F7562 		.ascii	"double\000"
 5265      6C6500
 5266              	.LASF48:
 5267 0713 4D524243 		.ascii	"MRBC_TT_PROC\000"
 5267      5F54545F 
 5267      50524F43 
 5267      00
 5268              	.LASF100:
 5269 0720 524B6579 		.ascii	"RKeyValue\000"
 5269      56616C75 
 5269      6500
 5270              	.LASF133:
 5271 072a 6D726263 		.ascii	"mrbc_range_compare\000"
 5271      5F72616E 
 5271      67655F63 
 5271      6F6D7061 
 5271      726500
 5272              	.LASF134:
 5273 073d 6D726263 		.ascii	"mrbc_hash_compare\000"
 5273      5F686173 
 5273      685F636F 
 5273      6D706172 
 5273      6500
 5274              	.LASF101:
 5275 074f 76616C75 		.ascii	"value\000"
 5275      6500
 5276              	.LASF77:
 5277 0755 5252616E 		.ascii	"RRange\000"
 5277      676500
 5278              	.LASF146:
 5279 075c 6D726263 		.ascii	"mrbc_hash_delete\000"
 5279      5F686173 
 5279      685F6465 
 5279      6C657465 
 5279      00
 5280              		.ident	"GCC: (GNU Tools for ARM Embedded Processors) 5.4.1 20160609 (release) [ARM/embedded-5-bran
