ARM GAS  C:\Users\164\AppData\Local\Temp\cctl9rYr.s 			page 1


   1              		.syntax unified
   2              		.cpu cortex-m3
   3              		.fpu softvfp
   4              		.eabi_attribute 20, 1
   5              		.eabi_attribute 21, 1
   6              		.eabi_attribute 23, 3
   7              		.eabi_attribute 24, 1
   8              		.eabi_attribute 25, 1
   9              		.eabi_attribute 26, 1
  10              		.eabi_attribute 30, 1
  11              		.eabi_attribute 34, 1
  12              		.eabi_attribute 18, 4
  13              		.thumb
  14              		.syntax unified
  15              		.file	"value.c"
  16              		.text
  17              	.Ltext0:
  18              		.cfi_sections	.debug_frame
  19              		.section	.text.mrbc_obj_alloc,"ax",%progbits
  20              		.align	2
  21              		.global	mrbc_obj_alloc
  22              		.thumb
  23              		.thumb_func
  24              		.type	mrbc_obj_alloc, %function
  25              	mrbc_obj_alloc:
  26              	.LFB25:
  27              		.file 1 "value.c"
   1:value.c       **** /*! @file
   2:value.c       ****   @brief
   3:value.c       ****   mruby/c value definitions
   4:value.c       **** 
   5:value.c       ****   <pre>
   6:value.c       ****   Copyright (C) 2015-2018 Kyushu Institute of Technology.
   7:value.c       ****   Copyright (C) 2015-2018 Shimane IT Open-Innovation Center.
   8:value.c       **** 
   9:value.c       ****   This file is distributed under BSD 3-Clause License.
  10:value.c       **** 
  11:value.c       **** 
  12:value.c       ****   </pre>
  13:value.c       **** */
  14:value.c       **** 
  15:value.c       **** #include "vm_config.h"
  16:value.c       **** #include <stdint.h>
  17:value.c       **** #include <string.h>
  18:value.c       **** #include <assert.h>
  19:value.c       **** 
  20:value.c       **** #include "value.h"
  21:value.c       **** #include "alloc.h"
  22:value.c       **** #include "keyvalue.h"
  23:value.c       **** #include "class.h"
  24:value.c       **** #include "static.h"
  25:value.c       **** #include "symbol.h"
  26:value.c       **** #include "c_string.h"
  27:value.c       **** #include "c_range.h"
  28:value.c       **** #include "c_array.h"
  29:value.c       **** #include "c_hash.h"
  30:value.c       **** 
ARM GAS  C:\Users\164\AppData\Local\Temp\cctl9rYr.s 			page 2


  31:value.c       **** 
  32:value.c       **** 
  33:value.c       **** mrbc_object *mrbc_obj_alloc(struct VM *vm, mrbc_vtype tt)
  34:value.c       **** {
  28              		.loc 1 34 0
  29              		.cfi_startproc
  30              		@ args = 0, pretend = 0, frame = 0
  31              		@ frame_needed = 0, uses_anonymous_args = 0
  32              	.LVL0:
  33 0000 10B5     		push	{r4, lr}
  34              		.cfi_def_cfa_offset 8
  35              		.cfi_offset 4, -8
  36              		.cfi_offset 14, -4
  37 0002 0C46     		mov	r4, r1
  35:value.c       ****   mrbc_object *ptr = (mrbc_object *)mrbc_alloc(vm, sizeof(mrbc_object));
  38              		.loc 1 35 0
  39 0004 1021     		movs	r1, #16
  40              	.LVL1:
  41 0006 FFF7FEFF 		bl	mrbc_alloc
  42              	.LVL2:
  36:value.c       ****   if( ptr ){
  43              		.loc 1 36 0
  44 000a 0346     		mov	r3, r0
  45 000c 00B1     		cbz	r0, .L2
  37:value.c       ****     ptr->tt = tt;
  46              		.loc 1 37 0
  47 000e 0470     		strb	r4, [r0]
  48              	.L2:
  38:value.c       ****   }
  39:value.c       ****   return ptr;
  40:value.c       **** }
  49              		.loc 1 40 0
  50 0010 1846     		mov	r0, r3
  51              	.LVL3:
  52 0012 10BD     		pop	{r4, pc}
  53              		.cfi_endproc
  54              	.LFE25:
  55              		.size	mrbc_obj_alloc, .-mrbc_obj_alloc
  56              		.section	.text.mrbc_rproc_alloc,"ax",%progbits
  57              		.align	2
  58              		.global	mrbc_rproc_alloc
  59              		.thumb
  60              		.thumb_func
  61              		.type	mrbc_rproc_alloc, %function
  62              	mrbc_rproc_alloc:
  63              	.LFB26:
  41:value.c       **** 
  42:value.c       **** 
  43:value.c       **** mrbc_proc *mrbc_rproc_alloc(struct VM *vm, const char *name)
  44:value.c       **** {
  64              		.loc 1 44 0
  65              		.cfi_startproc
  66              		@ args = 0, pretend = 0, frame = 0
  67              		@ frame_needed = 0, uses_anonymous_args = 0
  68              	.LVL4:
  69 0000 38B5     		push	{r3, r4, r5, lr}
  70              		.cfi_def_cfa_offset 16
ARM GAS  C:\Users\164\AppData\Local\Temp\cctl9rYr.s 			page 3


  71              		.cfi_offset 3, -16
  72              		.cfi_offset 4, -12
  73              		.cfi_offset 5, -8
  74              		.cfi_offset 14, -4
  75 0002 0D46     		mov	r5, r1
  45:value.c       ****   mrbc_proc *ptr = (mrbc_proc *)mrbc_alloc(vm, sizeof(mrbc_proc));
  76              		.loc 1 45 0
  77 0004 1021     		movs	r1, #16
  78              	.LVL5:
  79 0006 FFF7FEFF 		bl	mrbc_alloc
  80              	.LVL6:
  46:value.c       ****   if( ptr ) {
  81              		.loc 1 46 0
  82 000a 0446     		mov	r4, r0
  83 000c 38B1     		cbz	r0, .L5
  47:value.c       ****     ptr->ref_count = 1;
  84              		.loc 1 47 0
  85 000e 0123     		movs	r3, #1
  86 0010 0380     		strh	r3, [r0]	@ movhi
  48:value.c       ****     ptr->sym_id = str_to_symid(name);
  87              		.loc 1 48 0
  88 0012 2846     		mov	r0, r5
  89              	.LVL7:
  90 0014 FFF7FEFF 		bl	str_to_symid
  91              	.LVL8:
  92 0018 A080     		strh	r0, [r4, #4]	@ movhi
  49:value.c       **** #ifdef MRBC_DEBUG
  50:value.c       ****     ptr->names = name;	// for debug; delete soon.
  51:value.c       **** #endif
  52:value.c       ****     ptr->next = 0;
  93              		.loc 1 52 0
  94 001a 0023     		movs	r3, #0
  95 001c A360     		str	r3, [r4, #8]
  96              	.L5:
  53:value.c       ****   }
  54:value.c       ****   return ptr;
  55:value.c       **** }
  97              		.loc 1 55 0
  98 001e 2046     		mov	r0, r4
  99 0020 38BD     		pop	{r3, r4, r5, pc}
 100              		.cfi_endproc
 101              	.LFE26:
 102              		.size	mrbc_rproc_alloc, .-mrbc_rproc_alloc
 103              		.global	__aeabi_i2d
 104              		.global	__aeabi_dcmpeq
 105              		.global	__aeabi_dcmpgt
 106 0022 00BF     		.section	.text.mrbc_compare,"ax",%progbits
 107              		.align	2
 108              		.global	mrbc_compare
 109              		.thumb
 110              		.thumb_func
 111              		.type	mrbc_compare, %function
 112              	mrbc_compare:
 113              	.LFB27:
  56:value.c       **** 
  57:value.c       **** 
  58:value.c       **** 
ARM GAS  C:\Users\164\AppData\Local\Temp\cctl9rYr.s 			page 4


  59:value.c       **** //================================================================
  60:value.c       **** /*! compare two mrbc_values
  61:value.c       **** 
  62:value.c       ****   @param  v1	Pointer to mrbc_value
  63:value.c       ****   @param  v2	Pointer to another mrbc_value
  64:value.c       ****   @retval 0	v1 == v2
  65:value.c       ****   @retval plus	v1 >  v2
  66:value.c       ****   @retval minus	v1 <  v2
  67:value.c       **** */
  68:value.c       **** int mrbc_compare(const mrbc_value *v1, const mrbc_value *v2)
  69:value.c       **** {
 114              		.loc 1 69 0
 115              		.cfi_startproc
 116              		@ args = 0, pretend = 0, frame = 0
 117              		@ frame_needed = 0, uses_anonymous_args = 0
 118              	.LVL9:
 119 0000 2DE9F041 		push	{r4, r5, r6, r7, r8, lr}
 120              		.cfi_def_cfa_offset 24
 121              		.cfi_offset 4, -24
 122              		.cfi_offset 5, -20
 123              		.cfi_offset 6, -16
 124              		.cfi_offset 7, -12
 125              		.cfi_offset 8, -8
 126              		.cfi_offset 14, -4
 127 0004 0C46     		mov	r4, r1
  70:value.c       ****   mrbc_float d1, d2;
  71:value.c       **** 
  72:value.c       ****   // if TT_XXX is different
  73:value.c       ****   if( v1->tt != v2->tt ) {
 128              		.loc 1 73 0
 129 0006 90F90030 		ldrsb	r3, [r0]
 130 000a 91F90020 		ldrsb	r2, [r1]
 131 000e 9342     		cmp	r3, r2
 132 0010 23D0     		beq	.L8
  74:value.c       **** #if MRBC_USE_FLOAT
  75:value.c       ****     // but Numeric?
  76:value.c       ****     if( v1->tt == MRBC_TT_FIXNUM && v2->tt == MRBC_TT_FLOAT ) {
 133              		.loc 1 76 0
 134 0012 042B     		cmp	r3, #4
 135 0014 0BD1     		bne	.L9
 136              		.loc 1 76 0 is_stmt 0 discriminator 1
 137 0016 052A     		cmp	r2, #5
 138 0018 09D1     		bne	.L9
  77:value.c       ****       d1 = v1->i;
 139              		.loc 1 77 0 is_stmt 1
 140 001a 8068     		ldr	r0, [r0, #8]
 141              	.LVL10:
 142 001c FFF7FEFF 		bl	__aeabi_i2d
 143              	.LVL11:
 144 0020 0646     		mov	r6, r0
 145 0022 0F46     		mov	r7, r1
 146              	.LVL12:
  78:value.c       ****       d2 = v2->d;
 147              		.loc 1 78 0
 148 0024 04F10805 		add	r5, r4, #8
 149 0028 D5E90045 		ldrd	r4, [r5]
 150              	.LVL13:
ARM GAS  C:\Users\164\AppData\Local\Temp\cctl9rYr.s 			page 5


  79:value.c       ****       goto CMP_FLOAT;
 151              		.loc 1 79 0
 152 002c 62E0     		b	.L10
 153              	.LVL14:
 154              	.L9:
  80:value.c       ****     }
  81:value.c       ****     if( v1->tt == MRBC_TT_FLOAT && v2->tt == MRBC_TT_FIXNUM ) {
 155              		.loc 1 81 0
 156 002e 052B     		cmp	r3, #5
 157 0030 09D1     		bne	.L11
 158              		.loc 1 81 0 is_stmt 0 discriminator 1
 159 0032 042A     		cmp	r2, #4
 160 0034 07D1     		bne	.L11
  82:value.c       ****       d1 = v1->d;
 161              		.loc 1 82 0 is_stmt 1
 162 0036 D0E90267 		ldrd	r6, [r0, #8]
 163              	.LVL15:
  83:value.c       ****       d2 = v2->i;
 164              		.loc 1 83 0
 165 003a A068     		ldr	r0, [r4, #8]
 166              	.LVL16:
 167 003c FFF7FEFF 		bl	__aeabi_i2d
 168              	.LVL17:
 169 0040 0446     		mov	r4, r0
 170              	.LVL18:
 171 0042 0D46     		mov	r5, r1
 172              	.LVL19:
  84:value.c       ****       goto CMP_FLOAT;
 173              		.loc 1 84 0
 174 0044 56E0     		b	.L10
 175              	.LVL20:
 176              	.L11:
  85:value.c       ****     }
  86:value.c       **** #endif
  87:value.c       **** 
  88:value.c       ****     // leak Empty?
  89:value.c       ****     if((v1->tt == MRBC_TT_EMPTY && v2->tt == MRBC_TT_NIL) ||
 177              		.loc 1 89 0
 178 0046 0BB9     		cbnz	r3, .L12
 179              		.loc 1 89 0 is_stmt 0 discriminator 1
 180 0048 012A     		cmp	r2, #1
 181 004a 6CD0     		beq	.L31
 182              	.L12:
 183              		.loc 1 89 0 discriminator 3
 184 004c 012B     		cmp	r3, #1
 185 004e 01D1     		bne	.L14
  90:value.c       ****        (v1->tt == MRBC_TT_NIL   && v2->tt == MRBC_TT_EMPTY)) return 0;
 186              		.loc 1 90 0 is_stmt 1
 187 0050 002A     		cmp	r2, #0
 188 0052 6BD0     		beq	.L32
 189              	.L14:
  91:value.c       **** 
  92:value.c       ****     // other case
  93:value.c       ****     return v1->tt - v2->tt;
 190              		.loc 1 93 0
 191 0054 981A     		subs	r0, r3, r2
 192              	.LVL21:
ARM GAS  C:\Users\164\AppData\Local\Temp\cctl9rYr.s 			page 6


 193 0056 BDE8F081 		pop	{r4, r5, r6, r7, r8, pc}
 194              	.LVL22:
 195              	.L8:
  94:value.c       ****   }
  95:value.c       **** 
  96:value.c       ****   // check value
  97:value.c       ****   switch( v1->tt ) {
 196              		.loc 1 97 0
 197 005a 013B     		subs	r3, r3, #1
 198 005c 182B     		cmp	r3, #24
 199 005e 68D8     		bhi	.L33
 200 0060 DFE803F0 		tbb	[pc, r3]
 201              	.L16:
 202 0064 0D       		.byte	(.L15-.L16)/2
 203 0065 0D       		.byte	(.L15-.L16)/2
 204 0066 0D       		.byte	(.L15-.L16)/2
 205 0067 10       		.byte	(.L17-.L16)/2
 206 0068 15       		.byte	(.L18-.L16)/2
 207 0069 10       		.byte	(.L17-.L16)/2
 208 006a 1A       		.byte	(.L19-.L16)/2
 209 006b 67       		.byte	(.L33-.L16)/2
 210 006c 67       		.byte	(.L33-.L16)/2
 211 006d 67       		.byte	(.L33-.L16)/2
 212 006e 67       		.byte	(.L33-.L16)/2
 213 006f 67       		.byte	(.L33-.L16)/2
 214 0070 67       		.byte	(.L33-.L16)/2
 215 0071 67       		.byte	(.L33-.L16)/2
 216 0072 67       		.byte	(.L33-.L16)/2
 217 0073 67       		.byte	(.L33-.L16)/2
 218 0074 67       		.byte	(.L33-.L16)/2
 219 0075 67       		.byte	(.L33-.L16)/2
 220 0076 67       		.byte	(.L33-.L16)/2
 221 0077 1A       		.byte	(.L19-.L16)/2
 222 0078 1A       		.byte	(.L19-.L16)/2
 223 0079 2A       		.byte	(.L20-.L16)/2
 224 007a 2E       		.byte	(.L21-.L16)/2
 225 007b 40       		.byte	(.L22-.L16)/2
 226 007c 44       		.byte	(.L23-.L16)/2
 227 007d 00       		.p2align 1
 228              	.L15:
  98:value.c       ****   case MRBC_TT_NIL:
  99:value.c       ****   case MRBC_TT_FALSE:
 100:value.c       ****   case MRBC_TT_TRUE:
 101:value.c       ****     return 0;
 229              		.loc 1 101 0
 230 007e 0020     		movs	r0, #0
 231              	.LVL23:
 232 0080 BDE8F081 		pop	{r4, r5, r6, r7, r8, pc}
 233              	.LVL24:
 234              	.L17:
 102:value.c       **** 
 103:value.c       ****   case MRBC_TT_FIXNUM:
 104:value.c       ****   case MRBC_TT_SYMBOL:
 105:value.c       ****     return v1->i - v2->i;
 235              		.loc 1 105 0
 236 0084 8368     		ldr	r3, [r0, #8]
 237 0086 8868     		ldr	r0, [r1, #8]
ARM GAS  C:\Users\164\AppData\Local\Temp\cctl9rYr.s 			page 7


 238              	.LVL25:
 239 0088 181A     		subs	r0, r3, r0
 240 008a BDE8F081 		pop	{r4, r5, r6, r7, r8, pc}
 241              	.LVL26:
 242              	.L18:
 106:value.c       **** 
 107:value.c       **** #if MRBC_USE_FLOAT
 108:value.c       ****   case MRBC_TT_FLOAT:
 109:value.c       ****     d1 = v1->d;
 243              		.loc 1 109 0
 244 008e D0E90267 		ldrd	r6, [r0, #8]
 245              	.LVL27:
 110:value.c       ****     d2 = v2->d;
 246              		.loc 1 110 0
 247 0092 D1E90245 		ldrd	r4, [r1, #8]
 248              	.LVL28:
 111:value.c       ****     goto CMP_FLOAT;
 249              		.loc 1 111 0
 250 0096 2DE0     		b	.L10
 251              	.LVL29:
 252              	.L19:
 112:value.c       **** #endif
 113:value.c       **** 
 114:value.c       ****   case MRBC_TT_CLASS:
 115:value.c       ****   case MRBC_TT_OBJECT:
 116:value.c       ****   case MRBC_TT_PROC:
 117:value.c       ****     return -1 + (v1->handle == v2->handle) + (v1->handle > v2->handle)*2;
 253              		.loc 1 117 0
 254 0098 8168     		ldr	r1, [r0, #8]
 255              	.LVL30:
 256 009a A268     		ldr	r2, [r4, #8]
 257 009c 9142     		cmp	r1, r2
 258 009e 01D1     		bne	.L34
 259 00a0 0020     		movs	r0, #0
 260              	.LVL31:
 261 00a2 01E0     		b	.L24
 262              	.LVL32:
 263              	.L34:
 264 00a4 4FF0FF30 		mov	r0, #-1
 265              	.LVL33:
 266              	.L24:
 267              		.loc 1 117 0 is_stmt 0 discriminator 4
 268 00a8 9142     		cmp	r1, r2
 269 00aa 01D9     		bls	.L35
 270              		.loc 1 117 0
 271 00ac 0223     		movs	r3, #2
 272 00ae 00E0     		b	.L25
 273              	.L35:
 274 00b0 0023     		movs	r3, #0
 275              	.L25:
 276              		.loc 1 117 0 discriminator 8
 277 00b2 1844     		add	r0, r0, r3
 278 00b4 BDE8F081 		pop	{r4, r5, r6, r7, r8, pc}
 279              	.LVL34:
 280              	.L20:
 118:value.c       **** 
 119:value.c       ****   case MRBC_TT_ARRAY:
ARM GAS  C:\Users\164\AppData\Local\Temp\cctl9rYr.s 			page 8


 120:value.c       ****     return mrbc_array_compare( v1, v2 );
 281              		.loc 1 120 0 is_stmt 1
 282 00b8 FFF7FEFF 		bl	mrbc_array_compare
 283              	.LVL35:
 284 00bc BDE8F081 		pop	{r4, r5, r6, r7, r8, pc}
 285              	.LVL36:
 286              	.L21:
 287              	.LBB6:
 288              	.LBB7:
 289              		.file 2 "c_string.h"
   1:c_string.h    **** /*! @file
   2:c_string.h    ****   @brief
   3:c_string.h    ****   mruby/c String object
   4:c_string.h    **** 
   5:c_string.h    ****   <pre>
   6:c_string.h    ****   Copyright (C) 2015-2018 Kyushu Institute of Technology.
   7:c_string.h    ****   Copyright (C) 2015-2018 Shimane IT Open-Innovation Center.
   8:c_string.h    **** 
   9:c_string.h    ****   This file is distributed under BSD 3-Clause License.
  10:c_string.h    **** 
  11:c_string.h    ****   </pre>
  12:c_string.h    **** */
  13:c_string.h    **** 
  14:c_string.h    **** #ifndef MRBC_SRC_C_STRING_H_
  15:c_string.h    **** #define MRBC_SRC_C_STRING_H_
  16:c_string.h    **** 
  17:c_string.h    **** #include <stdint.h>
  18:c_string.h    **** #include <string.h>
  19:c_string.h    **** #include "value.h"
  20:c_string.h    **** 
  21:c_string.h    **** #ifdef __cplusplus
  22:c_string.h    **** extern "C" {
  23:c_string.h    **** #endif
  24:c_string.h    **** 
  25:c_string.h    **** //================================================================
  26:c_string.h    **** /*!@brief
  27:c_string.h    ****   Define String handle.
  28:c_string.h    **** */
  29:c_string.h    **** typedef struct RString {
  30:c_string.h    ****   MRBC_OBJECT_HEADER;
  31:c_string.h    **** 
  32:c_string.h    ****   uint16_t size;	//!< string length.
  33:c_string.h    ****   uint8_t *data;	//!< pointer to allocated buffer.
  34:c_string.h    **** 
  35:c_string.h    **** } mrbc_string;
  36:c_string.h    **** 
  37:c_string.h    **** 
  38:c_string.h    **** mrbc_value mrbc_string_new(struct VM *vm, const void *src, int len);
  39:c_string.h    **** mrbc_value mrbc_string_new_cstr(struct VM *vm, const char *src);
  40:c_string.h    **** mrbc_value mrbc_string_new_alloc(struct VM *vm, void *buf, int len);
  41:c_string.h    **** void mrbc_string_delete(mrbc_value *str);
  42:c_string.h    **** void mrbc_string_clear_vm_id(mrbc_value *str);
  43:c_string.h    **** mrbc_value mrbc_string_dup(struct VM *vm, mrbc_value *s1);
  44:c_string.h    **** mrbc_value mrbc_string_add(struct VM *vm, const mrbc_value *s1, const mrbc_value *s2);
  45:c_string.h    **** int mrbc_string_append(mrbc_value *s1, const mrbc_value *s2);
  46:c_string.h    **** int mrbc_string_append_cstr(mrbc_value *s1, const char *s2);
  47:c_string.h    **** int mrbc_string_index(const mrbc_value *src, const mrbc_value *pattern, int offset);
ARM GAS  C:\Users\164\AppData\Local\Temp\cctl9rYr.s 			page 9


  48:c_string.h    **** int mrbc_string_strip(mrbc_value *src, int mode);
  49:c_string.h    **** int mrbc_string_chomp(mrbc_value *src);
  50:c_string.h    **** void mrbc_init_class_string(struct VM *vm);
  51:c_string.h    **** 
  52:c_string.h    **** 
  53:c_string.h    **** //================================================================
  54:c_string.h    **** /*! compare
  55:c_string.h    **** */
  56:c_string.h    **** static inline int mrbc_string_compare(const mrbc_value *v1, const mrbc_value *v2)
  57:c_string.h    **** {
  58:c_string.h    ****   int len = (v1->string->size < v2->string->size) ?
 290              		.loc 2 58 0
 291 00c0 8968     		ldr	r1, [r1, #8]
 292              	.LVL37:
 293 00c2 8C88     		ldrh	r4, [r1, #4]
 294              	.LVL38:
 295 00c4 8368     		ldr	r3, [r0, #8]
 296 00c6 9D88     		ldrh	r5, [r3, #4]
 297              	.LVL39:
  59:c_string.h    ****     v1->string->size : v2->string->size;
  60:c_string.h    **** 
  61:c_string.h    ****   int res = memcmp(v1->string->data, v2->string->data, len);
 298              		.loc 2 61 0
 299 00c8 2246     		mov	r2, r4
 300 00ca AC42     		cmp	r4, r5
 301 00cc 28BF     		it	cs
 302 00ce 2A46     		movcs	r2, r5
 303 00d0 8968     		ldr	r1, [r1, #8]
 304 00d2 9868     		ldr	r0, [r3, #8]
 305              	.LVL40:
 306 00d4 FFF7FEFF 		bl	memcmp
 307              	.LVL41:
  62:c_string.h    ****   if( res != 0 ) return res;
 308              		.loc 2 62 0
 309 00d8 10B9     		cbnz	r0, .L36
  63:c_string.h    **** 
  64:c_string.h    ****   return v1->string->size - v2->string->size;
 310              		.loc 2 64 0
 311 00da 281B     		subs	r0, r5, r4
 312              	.LVL42:
 313 00dc BDE8F081 		pop	{r4, r5, r6, r7, r8, pc}
 314              	.LVL43:
 315              	.L36:
 316              	.LBE7:
 317              	.LBE6:
 121:value.c       **** 
 122:value.c       **** #if MRBC_USE_STRING
 123:value.c       ****   case MRBC_TT_STRING:
 124:value.c       ****     return mrbc_string_compare( v1, v2 );
 318              		.loc 1 124 0
 319 00e0 BDE8F081 		pop	{r4, r5, r6, r7, r8, pc}
 320              	.LVL44:
 321              	.L22:
 125:value.c       **** #endif
 126:value.c       **** 
 127:value.c       ****   case MRBC_TT_RANGE:
 128:value.c       ****     return mrbc_range_compare( v1, v2 );
ARM GAS  C:\Users\164\AppData\Local\Temp\cctl9rYr.s 			page 10


 322              		.loc 1 128 0
 323 00e4 FFF7FEFF 		bl	mrbc_range_compare
 324              	.LVL45:
 325 00e8 BDE8F081 		pop	{r4, r5, r6, r7, r8, pc}
 326              	.LVL46:
 327              	.L23:
 129:value.c       **** 
 130:value.c       ****   case MRBC_TT_HASH:
 131:value.c       ****     return mrbc_hash_compare( v1, v2 );
 328              		.loc 1 131 0
 329 00ec FFF7FEFF 		bl	mrbc_hash_compare
 330              	.LVL47:
 331 00f0 BDE8F081 		pop	{r4, r5, r6, r7, r8, pc}
 332              	.LVL48:
 333              	.L10:
 132:value.c       **** 
 133:value.c       ****   default:
 134:value.c       ****     return 1;
 135:value.c       ****   }
 136:value.c       **** 
 137:value.c       **** #if MRBC_USE_FLOAT
 138:value.c       ****  CMP_FLOAT:
 139:value.c       ****   return -1 + (d1 == d2) + (d1 > d2)*2;	// caution: NaN == NaN is false
 334              		.loc 1 139 0
 335 00f4 2246     		mov	r2, r4
 336 00f6 2B46     		mov	r3, r5
 337 00f8 3046     		mov	r0, r6
 338 00fa 3946     		mov	r1, r7
 339 00fc FFF7FEFF 		bl	__aeabi_dcmpeq
 340              	.LVL49:
 341 0100 10B1     		cbz	r0, .L41
 342 0102 4FF00008 		mov	r8, #0
 343 0106 01E0     		b	.L27
 344              	.L41:
 345 0108 4FF0FF38 		mov	r8, #-1
 346              	.L27:
 347              		.loc 1 139 0 is_stmt 0 discriminator 4
 348 010c 2246     		mov	r2, r4
 349 010e 2B46     		mov	r3, r5
 350 0110 3046     		mov	r0, r6
 351 0112 3946     		mov	r1, r7
 352 0114 FFF7FEFF 		bl	__aeabi_dcmpgt
 353              	.LVL50:
 354 0118 08B1     		cbz	r0, .L42
 355              		.loc 1 139 0
 356 011a 0220     		movs	r0, #2
 357 011c 00E0     		b	.L29
 358              	.L42:
 359 011e 0020     		movs	r0, #0
 360              	.L29:
 361              		.loc 1 139 0 discriminator 8
 362 0120 4044     		add	r0, r0, r8
 363 0122 BDE8F081 		pop	{r4, r5, r6, r7, r8, pc}
 364              	.LVL51:
 365              	.L31:
  90:value.c       **** 
 366              		.loc 1 90 0 is_stmt 1
ARM GAS  C:\Users\164\AppData\Local\Temp\cctl9rYr.s 			page 11


 367 0126 0020     		movs	r0, #0
 368              	.LVL52:
 369 0128 BDE8F081 		pop	{r4, r5, r6, r7, r8, pc}
 370              	.LVL53:
 371              	.L32:
 372 012c 0020     		movs	r0, #0
 373              	.LVL54:
 374 012e BDE8F081 		pop	{r4, r5, r6, r7, r8, pc}
 375              	.LVL55:
 376              	.L33:
 134:value.c       ****   }
 377              		.loc 1 134 0
 378 0132 0120     		movs	r0, #1
 379              	.LVL56:
 140:value.c       **** #endif
 141:value.c       **** }
 380              		.loc 1 141 0
 381 0134 BDE8F081 		pop	{r4, r5, r6, r7, r8, pc}
 382              		.cfi_endproc
 383              	.LFE27:
 384              		.size	mrbc_compare, .-mrbc_compare
 385              		.section	.text.mrbc_obj_is_kind_of,"ax",%progbits
 386              		.align	2
 387              		.global	mrbc_obj_is_kind_of
 388              		.thumb
 389              		.thumb_func
 390              		.type	mrbc_obj_is_kind_of, %function
 391              	mrbc_obj_is_kind_of:
 392              	.LFB28:
 142:value.c       **** 
 143:value.c       **** 
 144:value.c       **** //================================================================
 145:value.c       **** /*! Check the class is the class of object.
 146:value.c       **** 
 147:value.c       ****   @param  obj	target object
 148:value.c       ****   @param  cls	class
 149:value.c       **** */
 150:value.c       **** int mrbc_obj_is_kind_of( const mrbc_value *obj, const mrb_class *cls )
 151:value.c       **** {
 393              		.loc 1 151 0
 394              		.cfi_startproc
 395              		@ args = 0, pretend = 0, frame = 0
 396              		@ frame_needed = 0, uses_anonymous_args = 0
 397              	.LVL57:
 398 0000 10B5     		push	{r4, lr}
 399              		.cfi_def_cfa_offset 8
 400              		.cfi_offset 4, -8
 401              		.cfi_offset 14, -4
 402 0002 0C46     		mov	r4, r1
 152:value.c       ****   const mrbc_class *c = find_class_by_object( 0, obj );
 403              		.loc 1 152 0
 404 0004 0146     		mov	r1, r0
 405              	.LVL58:
 406 0006 0020     		movs	r0, #0
 407              	.LVL59:
 408 0008 FFF7FEFF 		bl	find_class_by_object
 409              	.LVL60:
ARM GAS  C:\Users\164\AppData\Local\Temp\cctl9rYr.s 			page 12


 153:value.c       ****   while( c != NULL ) {
 410              		.loc 1 153 0
 411 000c 02E0     		b	.L45
 412              	.L47:
 154:value.c       ****     if( c == cls ) return 1;
 413              		.loc 1 154 0
 414 000e A042     		cmp	r0, r4
 415 0010 03D0     		beq	.L48
 155:value.c       ****     c = c->super;
 416              		.loc 1 155 0
 417 0012 4068     		ldr	r0, [r0, #4]
 418              	.LVL61:
 419              	.L45:
 153:value.c       ****   while( c != NULL ) {
 420              		.loc 1 153 0
 421 0014 0028     		cmp	r0, #0
 422 0016 FAD1     		bne	.L47
 423 0018 10BD     		pop	{r4, pc}
 424              	.LVL62:
 425              	.L48:
 154:value.c       ****     if( c == cls ) return 1;
 426              		.loc 1 154 0
 427 001a 0120     		movs	r0, #1
 428              	.LVL63:
 156:value.c       ****   }
 157:value.c       **** 
 158:value.c       ****   return 0;
 159:value.c       **** }
 429              		.loc 1 159 0
 430 001c 10BD     		pop	{r4, pc}
 431              		.cfi_endproc
 432              	.LFE28:
 433              		.size	mrbc_obj_is_kind_of, .-mrbc_obj_is_kind_of
 434 001e 00BF     		.section	.text.mrbc_dup,"ax",%progbits
 435              		.align	2
 436              		.global	mrbc_dup
 437              		.thumb
 438              		.thumb_func
 439              		.type	mrbc_dup, %function
 440              	mrbc_dup:
 441              	.LFB29:
 160:value.c       **** 
 161:value.c       **** 
 162:value.c       **** //================================================================
 163:value.c       **** /*! Duplicate mrbc_value
 164:value.c       **** 
 165:value.c       ****   @param   v     Pointer to mrbc_value
 166:value.c       **** */
 167:value.c       **** void mrbc_dup(mrbc_value *v)
 168:value.c       **** {
 442              		.loc 1 168 0
 443              		.cfi_startproc
 444              		@ args = 0, pretend = 0, frame = 0
 445              		@ frame_needed = 0, uses_anonymous_args = 0
 446              	.LVL64:
 447 0000 08B5     		push	{r3, lr}
 448              		.cfi_def_cfa_offset 8
ARM GAS  C:\Users\164\AppData\Local\Temp\cctl9rYr.s 			page 13


 449              		.cfi_offset 3, -8
 450              		.cfi_offset 14, -4
 169:value.c       ****   switch( v->tt ){
 451              		.loc 1 169 0
 452 0002 90F90030 		ldrsb	r3, [r0]
 453 0006 143B     		subs	r3, r3, #20
 454 0008 052B     		cmp	r3, #5
 455 000a 12D8     		bhi	.L50
 170:value.c       ****   case MRBC_TT_OBJECT:
 171:value.c       ****   case MRBC_TT_PROC:
 172:value.c       ****   case MRBC_TT_ARRAY:
 173:value.c       ****   case MRBC_TT_STRING:
 174:value.c       ****   case MRBC_TT_RANGE:
 175:value.c       ****   case MRBC_TT_HASH:
 176:value.c       ****     assert( v->instance->ref_count > 0 );
 456              		.loc 1 176 0
 457 000c 8268     		ldr	r2, [r0, #8]
 458 000e 1388     		ldrh	r3, [r2]
 459 0010 2BB9     		cbnz	r3, .L53
 460              		.loc 1 176 0 is_stmt 0 discriminator 1
 461 0012 084B     		ldr	r3, .L56
 462 0014 084A     		ldr	r2, .L56+4
 463 0016 B021     		movs	r1, #176
 464 0018 0848     		ldr	r0, .L56+8
 465              	.LVL65:
 466 001a FFF7FEFF 		bl	__assert_func
 467              	.LVL66:
 468              	.L53:
 177:value.c       ****     assert( v->instance->ref_count != 0xff );	// check max value.
 469              		.loc 1 177 0 is_stmt 1
 470 001e FF2B     		cmp	r3, #255
 471 0020 05D1     		bne	.L54
 472              		.loc 1 177 0 is_stmt 0 discriminator 1
 473 0022 074B     		ldr	r3, .L56+12
 474 0024 044A     		ldr	r2, .L56+4
 475 0026 B121     		movs	r1, #177
 476 0028 0448     		ldr	r0, .L56+8
 477              	.LVL67:
 478 002a FFF7FEFF 		bl	__assert_func
 479              	.LVL68:
 480              	.L54:
 178:value.c       ****     v->instance->ref_count++;
 481              		.loc 1 178 0 is_stmt 1
 482 002e 0133     		adds	r3, r3, #1
 483 0030 1380     		strh	r3, [r2]	@ movhi
 484              	.L50:
 485 0032 08BD     		pop	{r3, pc}
 486              	.L57:
 487              		.align	2
 488              	.L56:
 489 0034 00000000 		.word	.LC0
 490 0038 00000000 		.word	.LANCHOR0
 491 003c 1C000000 		.word	.LC1
 492 0040 24000000 		.word	.LC2
 493              		.cfi_endproc
 494              	.LFE29:
 495              		.size	mrbc_dup, .-mrbc_dup
ARM GAS  C:\Users\164\AppData\Local\Temp\cctl9rYr.s 			page 14


 496              		.section	.text.mrbc_clear_vm_id,"ax",%progbits
 497              		.align	2
 498              		.global	mrbc_clear_vm_id
 499              		.thumb
 500              		.thumb_func
 501              		.type	mrbc_clear_vm_id, %function
 502              	mrbc_clear_vm_id:
 503              	.LFB32:
 179:value.c       ****     break;
 180:value.c       **** 
 181:value.c       ****   default:
 182:value.c       ****     // Nothing
 183:value.c       ****     break;
 184:value.c       ****   }
 185:value.c       **** }
 186:value.c       **** 
 187:value.c       **** 
 188:value.c       **** //================================================================
 189:value.c       **** /*!@brief
 190:value.c       ****   Release object related memory
 191:value.c       **** 
 192:value.c       ****   @param   v     Pointer to target mrbc_value
 193:value.c       **** */
 194:value.c       **** void mrbc_release(mrbc_value *v)
 195:value.c       **** {
 196:value.c       ****   mrbc_dec_ref_counter(v);
 197:value.c       ****   v->tt = MRBC_TT_EMPTY;
 198:value.c       **** }
 199:value.c       **** 
 200:value.c       **** 
 201:value.c       **** //================================================================
 202:value.c       **** /*!@brief
 203:value.c       ****   Decrement reference counter
 204:value.c       **** 
 205:value.c       ****   @param   v     Pointer to target mrbc_value
 206:value.c       **** */
 207:value.c       **** void mrbc_dec_ref_counter(mrbc_value *v)
 208:value.c       **** {
 209:value.c       ****   switch( v->tt ){
 210:value.c       ****   case MRBC_TT_OBJECT:
 211:value.c       ****   case MRBC_TT_PROC:
 212:value.c       ****   case MRBC_TT_ARRAY:
 213:value.c       ****   case MRBC_TT_STRING:
 214:value.c       ****   case MRBC_TT_RANGE:
 215:value.c       ****   case MRBC_TT_HASH:
 216:value.c       ****     assert( v->instance->ref_count != 0 );
 217:value.c       ****     v->instance->ref_count--;
 218:value.c       ****     break;
 219:value.c       **** 
 220:value.c       ****   default:
 221:value.c       ****     // Nothing
 222:value.c       ****     return;
 223:value.c       ****   }
 224:value.c       **** 
 225:value.c       ****   // release memory?
 226:value.c       ****   if( v->instance->ref_count != 0 ) return;
 227:value.c       **** 
ARM GAS  C:\Users\164\AppData\Local\Temp\cctl9rYr.s 			page 15


 228:value.c       ****   switch( v->tt ) {
 229:value.c       ****   case MRBC_TT_OBJECT:	mrbc_instance_delete(v);	break;
 230:value.c       ****   case MRBC_TT_PROC:	mrbc_raw_free(v->handle);	break;
 231:value.c       ****   case MRBC_TT_ARRAY:	mrbc_array_delete(v);		break;
 232:value.c       **** #if MRBC_USE_STRING
 233:value.c       ****   case MRBC_TT_STRING:	mrbc_string_delete(v);		break;
 234:value.c       **** #endif
 235:value.c       ****   case MRBC_TT_RANGE:	mrbc_range_delete(v);		break;
 236:value.c       ****   case MRBC_TT_HASH:	mrbc_hash_delete(v);		break;
 237:value.c       **** 
 238:value.c       ****   default:
 239:value.c       ****     // Nothing
 240:value.c       ****     break;
 241:value.c       ****   }
 242:value.c       **** }
 243:value.c       **** 
 244:value.c       **** 
 245:value.c       **** //================================================================
 246:value.c       **** /*!@brief
 247:value.c       ****   clear vm id
 248:value.c       **** 
 249:value.c       ****   @param   v     Pointer to target mrbc_value
 250:value.c       **** */
 251:value.c       **** void mrbc_clear_vm_id(mrbc_value *v)
 252:value.c       **** {
 504              		.loc 1 252 0
 505              		.cfi_startproc
 506              		@ args = 0, pretend = 0, frame = 0
 507              		@ frame_needed = 0, uses_anonymous_args = 0
 508              	.LVL69:
 509 0000 08B5     		push	{r3, lr}
 510              		.cfi_def_cfa_offset 8
 511              		.cfi_offset 3, -8
 512              		.cfi_offset 14, -4
 253:value.c       ****   switch( v->tt ) {
 513              		.loc 1 253 0
 514 0002 90F90030 		ldrsb	r3, [r0]
 515 0006 163B     		subs	r3, r3, #22
 516 0008 032B     		cmp	r3, #3
 517 000a 0ED8     		bhi	.L58
 518 000c DFE803F0 		tbb	[pc, r3]
 519              	.L61:
 520 0010 02       		.byte	(.L60-.L61)/2
 521 0011 05       		.byte	(.L62-.L61)/2
 522 0012 08       		.byte	(.L63-.L61)/2
 523 0013 0B       		.byte	(.L64-.L61)/2
 524              		.p2align 1
 525              	.L60:
 254:value.c       ****   case MRBC_TT_ARRAY:	mrbc_array_clear_vm_id(v);	break;
 526              		.loc 1 254 0
 527 0014 FFF7FEFF 		bl	mrbc_array_clear_vm_id
 528              	.LVL70:
 529 0018 08BD     		pop	{r3, pc}
 530              	.LVL71:
 531              	.L62:
 255:value.c       **** #if MRBC_USE_STRING
 256:value.c       ****   case MRBC_TT_STRING:	mrbc_string_clear_vm_id(v);	break;
ARM GAS  C:\Users\164\AppData\Local\Temp\cctl9rYr.s 			page 16


 532              		.loc 1 256 0
 533 001a FFF7FEFF 		bl	mrbc_string_clear_vm_id
 534              	.LVL72:
 535 001e 08BD     		pop	{r3, pc}
 536              	.LVL73:
 537              	.L63:
 257:value.c       **** #endif
 258:value.c       ****   case MRBC_TT_RANGE:	mrbc_range_clear_vm_id(v);	break;
 538              		.loc 1 258 0
 539 0020 FFF7FEFF 		bl	mrbc_range_clear_vm_id
 540              	.LVL74:
 541 0024 08BD     		pop	{r3, pc}
 542              	.LVL75:
 543              	.L64:
 544              	.LBB8:
 545              	.LBB9:
 546              		.file 3 "c_hash.h"
   1:c_hash.h      **** /*! @file
   2:c_hash.h      ****   @brief
   3:c_hash.h      ****   mruby/c Hash class
   4:c_hash.h      **** 
   5:c_hash.h      ****   <pre>
   6:c_hash.h      ****   Copyright (C) 2015-2018 Kyushu Institute of Technology.
   7:c_hash.h      ****   Copyright (C) 2015-2018 Shimane IT Open-Innovation Center.
   8:c_hash.h      **** 
   9:c_hash.h      ****   This file is distributed under BSD 3-Clause License.
  10:c_hash.h      **** 
  11:c_hash.h      ****   </pre>
  12:c_hash.h      **** */
  13:c_hash.h      **** 
  14:c_hash.h      **** #ifndef MRBC_SRC_C_HASH_H_
  15:c_hash.h      **** #define MRBC_SRC_C_HASH_H_
  16:c_hash.h      **** 
  17:c_hash.h      **** #include "value.h"
  18:c_hash.h      **** #include "c_array.h"
  19:c_hash.h      **** 
  20:c_hash.h      **** #ifdef __cplusplus
  21:c_hash.h      **** extern "C" {
  22:c_hash.h      **** #endif
  23:c_hash.h      **** 
  24:c_hash.h      **** //================================================================
  25:c_hash.h      **** /*!@brief
  26:c_hash.h      ****   Define Hash handle.
  27:c_hash.h      **** */
  28:c_hash.h      **** typedef struct RHash {
  29:c_hash.h      ****   // (NOTE)
  30:c_hash.h      ****   //  Needs to be same members and order as RArray.
  31:c_hash.h      ****   MRBC_OBJECT_HEADER;
  32:c_hash.h      **** 
  33:c_hash.h      ****   uint16_t data_size;	//!< data buffer size.
  34:c_hash.h      ****   uint16_t n_stored;	//!< # of stored.
  35:c_hash.h      ****   mrbc_value *data;	//!< pointer to allocated memory.
  36:c_hash.h      **** 
  37:c_hash.h      ****   // TODO: and other member for search.
  38:c_hash.h      **** 
  39:c_hash.h      **** } mrbc_hash;
  40:c_hash.h      **** 
ARM GAS  C:\Users\164\AppData\Local\Temp\cctl9rYr.s 			page 17


  41:c_hash.h      **** 
  42:c_hash.h      **** //================================================================
  43:c_hash.h      **** /*!@brief
  44:c_hash.h      ****   Define Hash iterator.
  45:c_hash.h      **** */
  46:c_hash.h      **** typedef struct RHashIterator {
  47:c_hash.h      ****   mrbc_hash *target;
  48:c_hash.h      ****   mrbc_value *point;
  49:c_hash.h      ****   mrbc_value *p_end;
  50:c_hash.h      **** } mrbc_hash_iterator;
  51:c_hash.h      **** 
  52:c_hash.h      **** 
  53:c_hash.h      **** mrbc_value mrbc_hash_new(struct VM *vm, int size);
  54:c_hash.h      **** void mrbc_hash_delete(mrbc_value *hash);
  55:c_hash.h      **** mrbc_value *mrbc_hash_search(const mrbc_value *hash, const mrbc_value *key);
  56:c_hash.h      **** int mrbc_hash_set(mrbc_value *hash, mrbc_value *key, mrbc_value *val);
  57:c_hash.h      **** mrbc_value mrbc_hash_get(mrbc_value *hash, mrbc_value *key);
  58:c_hash.h      **** mrbc_value mrbc_hash_remove(mrbc_value *hash, mrbc_value *key);
  59:c_hash.h      **** void mrbc_hash_clear(mrbc_value *hash);
  60:c_hash.h      **** int mrbc_hash_compare(const mrbc_value *v1, const mrbc_value *v2);
  61:c_hash.h      **** mrbc_value mrbc_hash_dup(struct VM *vm, mrbc_value *src);
  62:c_hash.h      **** void mrbc_init_class_hash(struct VM *vm);
  63:c_hash.h      **** 
  64:c_hash.h      **** 
  65:c_hash.h      **** 
  66:c_hash.h      **** //================================================================
  67:c_hash.h      **** /*! get size
  68:c_hash.h      **** */
  69:c_hash.h      **** static inline int mrbc_hash_size(const mrbc_value *hash) {
  70:c_hash.h      ****   return hash->hash->n_stored / 2;
  71:c_hash.h      **** }
  72:c_hash.h      **** 
  73:c_hash.h      **** //================================================================
  74:c_hash.h      **** /*! clear vm_id
  75:c_hash.h      **** */
  76:c_hash.h      **** static inline void mrbc_hash_clear_vm_id(mrbc_value *hash) {
  77:c_hash.h      ****   mrbc_array_clear_vm_id(hash);
 547              		.loc 3 77 0
 548 0026 FFF7FEFF 		bl	mrbc_array_clear_vm_id
 549              	.LVL76:
 550              	.L58:
 551 002a 08BD     		pop	{r3, pc}
 552              	.LBE9:
 553              	.LBE8:
 554              		.cfi_endproc
 555              	.LFE32:
 556              		.size	mrbc_clear_vm_id, .-mrbc_clear_vm_id
 557              		.section	.text.mrbc_atoi,"ax",%progbits
 558              		.align	2
 559              		.global	mrbc_atoi
 560              		.thumb
 561              		.thumb_func
 562              		.type	mrbc_atoi, %function
 563              	mrbc_atoi:
 564              	.LFB33:
 259:value.c       ****   case MRBC_TT_HASH:	mrbc_hash_clear_vm_id(v);	break;
 260:value.c       **** 
ARM GAS  C:\Users\164\AppData\Local\Temp\cctl9rYr.s 			page 18


 261:value.c       ****   default:
 262:value.c       ****     // Nothing
 263:value.c       ****     break;
 264:value.c       ****   }
 265:value.c       **** }
 266:value.c       **** 
 267:value.c       **** 
 268:value.c       **** //================================================================
 269:value.c       **** /*!@brief
 270:value.c       **** 
 271:value.c       ****   convert ASCII string to integer mruby/c version
 272:value.c       **** 
 273:value.c       ****   @param  s	source string.
 274:value.c       ****   @param  base	n base.
 275:value.c       ****   @return	result.
 276:value.c       **** */
 277:value.c       **** mrbc_int mrbc_atoi( const char *s, int base )
 278:value.c       **** {
 565              		.loc 1 278 0
 566              		.cfi_startproc
 567              		@ args = 0, pretend = 0, frame = 0
 568              		@ frame_needed = 0, uses_anonymous_args = 0
 569              		@ link register save eliminated.
 570              	.LVL77:
 571 0000 30B4     		push	{r4, r5}
 572              		.cfi_def_cfa_offset 8
 573              		.cfi_offset 4, -8
 574              		.cfi_offset 5, -4
 575 0002 0346     		mov	r3, r0
 576              	.LVL78:
 577              	.L67:
 279:value.c       ****   int ret = 0;
 280:value.c       ****   int sign = 0;
 281:value.c       **** 
 282:value.c       ****  REDO:
 283:value.c       ****   switch( *s ) {
 578              		.loc 1 283 0
 579 0004 1A78     		ldrb	r2, [r3]	@ zero_extendqisi2
 580 0006 2B2A     		cmp	r2, #43
 581 0008 04D0     		beq	.L69
 582 000a 2D2A     		cmp	r2, #45
 583 000c 04D0     		beq	.L80
 584 000e 202A     		cmp	r2, #32
 585 0010 05D1     		bne	.L81
 586 0012 07E0     		b	.L71
 587              	.L69:
 280:value.c       **** 
 588              		.loc 1 280 0
 589 0014 0025     		movs	r5, #0
 590 0016 00E0     		b	.L70
 591              	.L80:
 284:value.c       ****   case '-':
 285:value.c       ****     sign = 1;
 592              		.loc 1 285 0
 593 0018 0125     		movs	r5, #1
 594              	.L70:
 595              	.LVL79:
ARM GAS  C:\Users\164\AppData\Local\Temp\cctl9rYr.s 			page 19


 286:value.c       ****     // fall through.
 287:value.c       ****   case '+':
 288:value.c       ****     s++;
 596              		.loc 1 288 0
 597 001a 0133     		adds	r3, r3, #1
 598              	.LVL80:
 289:value.c       ****     break;
 599              		.loc 1 289 0
 600 001c 00E0     		b	.L68
 601              	.LVL81:
 602              	.L81:
 280:value.c       **** 
 603              		.loc 1 280 0
 604 001e 0025     		movs	r5, #0
 605              	.LVL82:
 606              	.L68:
 607 0020 0020     		movs	r0, #0
 608 0022 13E0     		b	.L72
 609              	.LVL83:
 610              	.L71:
 290:value.c       **** 
 291:value.c       ****   case ' ':
 292:value.c       ****     s++;
 611              		.loc 1 292 0
 612 0024 0133     		adds	r3, r3, #1
 613              	.LVL84:
 293:value.c       ****     goto REDO;
 614              		.loc 1 293 0
 615 0026 EDE7     		b	.L67
 616              	.LVL85:
 617              	.L77:
 618              	.LBB10:
 294:value.c       ****   }
 295:value.c       **** 
 296:value.c       ****   int ch;
 297:value.c       ****   while( (ch = *s++) != '\0' ) {
 298:value.c       ****     int n;
 299:value.c       **** 
 300:value.c       ****     if( 'a' <= ch ) {
 619              		.loc 1 300 0
 620 0028 602B     		cmp	r3, #96
 621 002a 01DD     		ble	.L73
 301:value.c       ****       n = ch - 'a' + 10;
 622              		.loc 1 301 0
 623 002c 573B     		subs	r3, r3, #87
 624              	.LVL86:
 625 002e 08E0     		b	.L74
 626              	.LVL87:
 627              	.L73:
 302:value.c       ****     } else
 303:value.c       ****     if( 'A' <= ch ) {
 628              		.loc 1 303 0
 629 0030 402B     		cmp	r3, #64
 630 0032 01DD     		ble	.L75
 304:value.c       ****       n = ch - 'A' + 10;
 631              		.loc 1 304 0
 632 0034 373B     		subs	r3, r3, #55
ARM GAS  C:\Users\164\AppData\Local\Temp\cctl9rYr.s 			page 20


 633              	.LVL88:
 634 0036 04E0     		b	.L74
 635              	.LVL89:
 636              	.L75:
 305:value.c       ****     } else
 306:value.c       ****     if( '0' <= ch && ch <= '9' ) {
 637              		.loc 1 306 0
 638 0038 A3F13004 		sub	r4, r3, #48
 639 003c 092C     		cmp	r4, #9
 640 003e 09D8     		bhi	.L76
 307:value.c       ****       n = ch - '0';
 641              		.loc 1 307 0
 642 0040 2346     		mov	r3, r4
 643              	.LVL90:
 644              	.L74:
 308:value.c       ****     } else {
 309:value.c       ****       break;
 310:value.c       ****     }
 311:value.c       ****     if( n >= base ) break;
 645              		.loc 1 311 0
 646 0042 8B42     		cmp	r3, r1
 647 0044 06DA     		bge	.L76
 312:value.c       **** 
 313:value.c       ****     ret = ret * base + n;
 648              		.loc 1 313 0
 649 0046 01FB0030 		mla	r0, r1, r0, r3
 650              	.LVL91:
 651              	.LBE10:
 297:value.c       ****     int n;
 652              		.loc 1 297 0
 653 004a 1346     		mov	r3, r2
 654              	.LVL92:
 655              	.L72:
 656 004c 5A1C     		adds	r2, r3, #1
 657              	.LVL93:
 658 004e 1B78     		ldrb	r3, [r3]	@ zero_extendqisi2
 659              	.LVL94:
 660 0050 002B     		cmp	r3, #0
 661 0052 E9D1     		bne	.L77
 662              	.LVL95:
 663              	.L76:
 314:value.c       ****   }
 315:value.c       **** 
 316:value.c       ****   if( sign ) ret = -ret;
 664              		.loc 1 316 0
 665 0054 05B1     		cbz	r5, .L78
 666              		.loc 1 316 0 is_stmt 0 discriminator 1
 667 0056 4042     		negs	r0, r0
 668              	.LVL96:
 669              	.L78:
 317:value.c       **** 
 318:value.c       ****   return ret;
 319:value.c       **** }
 670              		.loc 1 319 0 is_stmt 1
 671 0058 30BC     		pop	{r4, r5}
 672              		.cfi_restore 5
 673              		.cfi_restore 4
ARM GAS  C:\Users\164\AppData\Local\Temp\cctl9rYr.s 			page 21


 674              		.cfi_def_cfa_offset 0
 675              	.LVL97:
 676 005a 7047     		bx	lr
 677              		.cfi_endproc
 678              	.LFE33:
 679              		.size	mrbc_atoi, .-mrbc_atoi
 680              		.section	.text.mrbc_irep_alloc,"ax",%progbits
 681              		.align	2
 682              		.global	mrbc_irep_alloc
 683              		.thumb
 684              		.thumb_func
 685              		.type	mrbc_irep_alloc, %function
 686              	mrbc_irep_alloc:
 687              	.LFB34:
 320:value.c       **** 
 321:value.c       **** 
 322:value.c       **** 
 323:value.c       **** //================================================================
 324:value.c       **** /*!@brief
 325:value.c       ****   mrbc_irep allocator
 326:value.c       **** 
 327:value.c       ****   @param  vm	Pointer of VM.
 328:value.c       ****   @return	Pointer of allocated mrbc_irep
 329:value.c       **** */
 330:value.c       **** mrbc_irep *mrbc_irep_alloc(struct VM *vm)
 331:value.c       **** {
 688              		.loc 1 331 0
 689              		.cfi_startproc
 690              		@ args = 0, pretend = 0, frame = 0
 691              		@ frame_needed = 0, uses_anonymous_args = 0
 692              	.LVL98:
 693 0000 08B5     		push	{r3, lr}
 694              		.cfi_def_cfa_offset 8
 695              		.cfi_offset 3, -8
 696              		.cfi_offset 14, -4
 332:value.c       ****   mrbc_irep *p = (mrbc_irep *)mrbc_alloc(vm, sizeof(mrbc_irep));
 697              		.loc 1 332 0
 698 0002 1C21     		movs	r1, #28
 699 0004 FFF7FEFF 		bl	mrbc_alloc
 700              	.LVL99:
 333:value.c       ****   if( p )
 701              		.loc 1 333 0
 702 0008 0346     		mov	r3, r0
 703 000a 38B1     		cbz	r0, .L84
 334:value.c       ****     memset(p, 0, sizeof(mrbc_irep));	// caution: assume NULL is zero.
 704              		.loc 1 334 0
 705 000c 0022     		movs	r2, #0
 706 000e 0260     		str	r2, [r0]	@ unaligned
 707 0010 4260     		str	r2, [r0, #4]	@ unaligned
 708 0012 8260     		str	r2, [r0, #8]	@ unaligned
 709 0014 C260     		str	r2, [r0, #12]	@ unaligned
 710 0016 0261     		str	r2, [r0, #16]	@ unaligned
 711 0018 4261     		str	r2, [r0, #20]	@ unaligned
 712 001a 8261     		str	r2, [r0, #24]	@ unaligned
 713              	.L84:
 335:value.c       ****   return p;
 336:value.c       **** }
ARM GAS  C:\Users\164\AppData\Local\Temp\cctl9rYr.s 			page 22


 714              		.loc 1 336 0
 715 001c 1846     		mov	r0, r3
 716              	.LVL100:
 717 001e 08BD     		pop	{r3, pc}
 718              		.cfi_endproc
 719              	.LFE34:
 720              		.size	mrbc_irep_alloc, .-mrbc_irep_alloc
 721              		.section	.text.mrbc_irep_free,"ax",%progbits
 722              		.align	2
 723              		.global	mrbc_irep_free
 724              		.thumb
 725              		.thumb_func
 726              		.type	mrbc_irep_free, %function
 727              	mrbc_irep_free:
 728              	.LFB35:
 337:value.c       **** 
 338:value.c       **** 
 339:value.c       **** //================================================================
 340:value.c       **** /*!@brief
 341:value.c       ****   release mrbc_irep holds memory
 342:value.c       **** */
 343:value.c       **** void mrbc_irep_free(mrbc_irep *irep)
 344:value.c       **** {
 729              		.loc 1 344 0
 730              		.cfi_startproc
 731              		@ args = 0, pretend = 0, frame = 0
 732              		@ frame_needed = 0, uses_anonymous_args = 0
 733              	.LVL101:
 734 0000 38B5     		push	{r3, r4, r5, lr}
 735              		.cfi_def_cfa_offset 16
 736              		.cfi_offset 3, -16
 737              		.cfi_offset 4, -12
 738              		.cfi_offset 5, -8
 739              		.cfi_offset 14, -4
 740 0002 0446     		mov	r4, r0
 741              	.LVL102:
 345:value.c       ****   int i;
 346:value.c       **** 
 347:value.c       ****   // release pools.
 348:value.c       ****   for( i = 0; i < irep->plen; i++ ) {
 742              		.loc 1 348 0
 743 0004 0025     		movs	r5, #0
 744 0006 05E0     		b	.L87
 745              	.LVL103:
 746              	.L88:
 349:value.c       ****     mrbc_raw_free( irep->pools[i] );
 747              		.loc 1 349 0 discriminator 3
 748 0008 2369     		ldr	r3, [r4, #16]
 749 000a 53F82500 		ldr	r0, [r3, r5, lsl #2]
 750 000e FFF7FEFF 		bl	mrbc_raw_free
 751              	.LVL104:
 348:value.c       ****     mrbc_raw_free( irep->pools[i] );
 752              		.loc 1 348 0 discriminator 3
 753 0012 0135     		adds	r5, r5, #1
 754              	.LVL105:
 755              	.L87:
 348:value.c       ****     mrbc_raw_free( irep->pools[i] );
ARM GAS  C:\Users\164\AppData\Local\Temp\cctl9rYr.s 			page 23


 756              		.loc 1 348 0 is_stmt 0 discriminator 1
 757 0014 2389     		ldrh	r3, [r4, #8]
 758 0016 9D42     		cmp	r5, r3
 759 0018 F6DB     		blt	.L88
 350:value.c       ****   }
 351:value.c       ****   if( irep->plen ) mrbc_raw_free( irep->pools );
 760              		.loc 1 351 0 is_stmt 1
 761 001a 13B1     		cbz	r3, .L89
 762              		.loc 1 351 0 is_stmt 0 discriminator 1
 763 001c 2069     		ldr	r0, [r4, #16]
 764 001e FFF7FEFF 		bl	mrbc_raw_free
 765              	.LVL106:
 766              	.L89:
 348:value.c       ****     mrbc_raw_free( irep->pools[i] );
 767              		.loc 1 348 0 is_stmt 1 discriminator 1
 768 0022 0025     		movs	r5, #0
 769              	.LVL107:
 770 0024 05E0     		b	.L90
 771              	.LVL108:
 772              	.L91:
 352:value.c       **** 
 353:value.c       ****   // release child ireps.
 354:value.c       ****   for( i = 0; i < irep->rlen; i++ ) {
 355:value.c       ****     mrbc_irep_free( irep->reps[i] );
 773              		.loc 1 355 0 discriminator 3
 774 0026 A369     		ldr	r3, [r4, #24]
 775 0028 53F82500 		ldr	r0, [r3, r5, lsl #2]
 776 002c FFF7FEFF 		bl	mrbc_irep_free
 777              	.LVL109:
 354:value.c       ****     mrbc_irep_free( irep->reps[i] );
 778              		.loc 1 354 0 discriminator 3
 779 0030 0135     		adds	r5, r5, #1
 780              	.LVL110:
 781              	.L90:
 354:value.c       ****     mrbc_irep_free( irep->reps[i] );
 782              		.loc 1 354 0 is_stmt 0 discriminator 1
 783 0032 A388     		ldrh	r3, [r4, #4]
 784 0034 9D42     		cmp	r5, r3
 785 0036 F6DB     		blt	.L91
 356:value.c       ****   }
 357:value.c       ****   if( irep->rlen ) mrbc_raw_free( irep->reps );
 786              		.loc 1 357 0 is_stmt 1
 787 0038 13B1     		cbz	r3, .L92
 788              		.loc 1 357 0 is_stmt 0 discriminator 1
 789 003a A069     		ldr	r0, [r4, #24]
 790 003c FFF7FEFF 		bl	mrbc_raw_free
 791              	.LVL111:
 792              	.L92:
 358:value.c       **** 
 359:value.c       ****   mrbc_raw_free( irep );
 793              		.loc 1 359 0 is_stmt 1
 794 0040 2046     		mov	r0, r4
 795 0042 FFF7FEFF 		bl	mrbc_raw_free
 796              	.LVL112:
 797 0046 38BD     		pop	{r3, r4, r5, pc}
 798              		.cfi_endproc
 799              	.LFE35:
ARM GAS  C:\Users\164\AppData\Local\Temp\cctl9rYr.s 			page 24


 800              		.size	mrbc_irep_free, .-mrbc_irep_free
 801              		.section	.text.mrbc_instance_new,"ax",%progbits
 802              		.align	2
 803              		.global	mrbc_instance_new
 804              		.thumb
 805              		.thumb_func
 806              		.type	mrbc_instance_new, %function
 807              	mrbc_instance_new:
 808              	.LFB36:
 360:value.c       **** }
 361:value.c       **** 
 362:value.c       **** 
 363:value.c       **** //================================================================
 364:value.c       **** /*! mrbc_instance constructor
 365:value.c       **** 
 366:value.c       ****   @param  vm    Pointer to VM.
 367:value.c       ****   @param  cls	Pointer to Class (mrbc_class).
 368:value.c       ****   @param  size	size of additional data.
 369:value.c       ****   @return       mrbc_instance object.
 370:value.c       **** */
 371:value.c       **** mrbc_value mrbc_instance_new(struct VM *vm, mrbc_class *cls, int size)
 372:value.c       **** {
 809              		.loc 1 372 0
 810              		.cfi_startproc
 811              		@ args = 0, pretend = 0, frame = 0
 812              		@ frame_needed = 0, uses_anonymous_args = 0
 813              	.LVL113:
 814 0000 F8B5     		push	{r3, r4, r5, r6, r7, lr}
 815              		.cfi_def_cfa_offset 24
 816              		.cfi_offset 3, -24
 817              		.cfi_offset 4, -20
 818              		.cfi_offset 5, -16
 819              		.cfi_offset 6, -12
 820              		.cfi_offset 7, -8
 821              		.cfi_offset 14, -4
 822 0002 0446     		mov	r4, r0
 823 0004 0E46     		mov	r6, r1
 824 0006 1746     		mov	r7, r2
 373:value.c       ****   mrbc_value v = {.tt = MRBC_TT_OBJECT};
 825              		.loc 1 373 0
 826 0008 0022     		movs	r2, #0
 827              	.LVL114:
 828 000a 0260     		str	r2, [r0]
 829 000c 4260     		str	r2, [r0, #4]
 830 000e 8260     		str	r2, [r0, #8]
 831 0010 C260     		str	r2, [r0, #12]
 832 0012 1422     		movs	r2, #20
 833 0014 0270     		strb	r2, [r0]
 374:value.c       ****   v.instance = (mrbc_instance *)mrbc_alloc(vm, sizeof(mrbc_instance) + size);
 834              		.loc 1 374 0
 835 0016 03F10C01 		add	r1, r3, #12
 836              	.LVL115:
 837 001a 3046     		mov	r0, r6
 838              	.LVL116:
 839 001c FFF7FEFF 		bl	mrbc_alloc
 840              	.LVL117:
 841 0020 A060     		str	r0, [r4, #8]
ARM GAS  C:\Users\164\AppData\Local\Temp\cctl9rYr.s 			page 25


 375:value.c       ****   if( v.instance == NULL ) return v;	// ENOMEM
 842              		.loc 1 375 0
 843 0022 88B1     		cbz	r0, .L94
 844 0024 0546     		mov	r5, r0
 376:value.c       **** 
 377:value.c       ****   v.instance->ivar = mrbc_kv_new(vm, 0);
 845              		.loc 1 377 0
 846 0026 0021     		movs	r1, #0
 847 0028 3046     		mov	r0, r6
 848 002a FFF7FEFF 		bl	mrbc_kv_new
 849              	.LVL118:
 850 002e A860     		str	r0, [r5, #8]
 378:value.c       ****   if( v.instance->ivar == NULL ) {	// ENOMEM
 851              		.loc 1 378 0
 852 0030 28B9     		cbnz	r0, .L96
 379:value.c       ****     mrbc_raw_free(v.instance);
 853              		.loc 1 379 0
 854 0032 2846     		mov	r0, r5
 855 0034 FFF7FEFF 		bl	mrbc_raw_free
 856              	.LVL119:
 380:value.c       ****     v.instance = NULL;
 857              		.loc 1 380 0
 858 0038 0023     		movs	r3, #0
 859 003a A360     		str	r3, [r4, #8]
 381:value.c       ****     return v;
 860              		.loc 1 381 0
 861 003c 04E0     		b	.L94
 862              	.L96:
 382:value.c       ****   }
 383:value.c       **** 
 384:value.c       ****   v.instance->ref_count = 1;
 863              		.loc 1 384 0
 864 003e 0123     		movs	r3, #1
 865 0040 2B80     		strh	r3, [r5]	@ movhi
 385:value.c       ****   v.instance->tt = MRBC_TT_OBJECT;	// for debug only.
 866              		.loc 1 385 0
 867 0042 1423     		movs	r3, #20
 868 0044 AB70     		strb	r3, [r5, #2]
 386:value.c       ****   v.instance->cls = cls;
 869              		.loc 1 386 0
 870 0046 6F60     		str	r7, [r5, #4]
 871              	.L94:
 387:value.c       **** 
 388:value.c       ****   return v;
 389:value.c       **** }
 872              		.loc 1 389 0
 873 0048 2046     		mov	r0, r4
 874 004a F8BD     		pop	{r3, r4, r5, r6, r7, pc}
 875              		.cfi_endproc
 876              	.LFE36:
 877              		.size	mrbc_instance_new, .-mrbc_instance_new
 878              		.section	.text.mrbc_instance_delete,"ax",%progbits
 879              		.align	2
 880              		.global	mrbc_instance_delete
 881              		.thumb
 882              		.thumb_func
 883              		.type	mrbc_instance_delete, %function
ARM GAS  C:\Users\164\AppData\Local\Temp\cctl9rYr.s 			page 26


 884              	mrbc_instance_delete:
 885              	.LFB37:
 390:value.c       **** 
 391:value.c       **** 
 392:value.c       **** 
 393:value.c       **** //================================================================
 394:value.c       **** /*! mrbc_instance destructor
 395:value.c       **** 
 396:value.c       ****   @param  v	pointer to target value
 397:value.c       **** */
 398:value.c       **** void mrbc_instance_delete(mrbc_value *v)
 399:value.c       **** {
 886              		.loc 1 399 0
 887              		.cfi_startproc
 888              		@ args = 0, pretend = 0, frame = 0
 889              		@ frame_needed = 0, uses_anonymous_args = 0
 890              	.LVL120:
 891 0000 10B5     		push	{r4, lr}
 892              		.cfi_def_cfa_offset 8
 893              		.cfi_offset 4, -8
 894              		.cfi_offset 14, -4
 895 0002 0446     		mov	r4, r0
 400:value.c       ****   mrbc_kv_delete( v->instance->ivar );
 896              		.loc 1 400 0
 897 0004 8368     		ldr	r3, [r0, #8]
 898 0006 9868     		ldr	r0, [r3, #8]
 899              	.LVL121:
 900 0008 FFF7FEFF 		bl	mrbc_kv_delete
 901              	.LVL122:
 401:value.c       ****   mrbc_raw_free( v->instance );
 902              		.loc 1 401 0
 903 000c A068     		ldr	r0, [r4, #8]
 904 000e FFF7FEFF 		bl	mrbc_raw_free
 905              	.LVL123:
 906 0012 10BD     		pop	{r4, pc}
 907              		.cfi_endproc
 908              	.LFE37:
 909              		.size	mrbc_instance_delete, .-mrbc_instance_delete
 910              		.section	.text.mrbc_dec_ref_counter,"ax",%progbits
 911              		.align	2
 912              		.global	mrbc_dec_ref_counter
 913              		.thumb
 914              		.thumb_func
 915              		.type	mrbc_dec_ref_counter, %function
 916              	mrbc_dec_ref_counter:
 917              	.LFB31:
 208:value.c       ****   switch( v->tt ){
 918              		.loc 1 208 0
 919              		.cfi_startproc
 920              		@ args = 0, pretend = 0, frame = 0
 921              		@ frame_needed = 0, uses_anonymous_args = 0
 922              	.LVL124:
 923 0000 08B5     		push	{r3, lr}
 924              		.cfi_def_cfa_offset 8
 925              		.cfi_offset 3, -8
 926              		.cfi_offset 14, -4
 209:value.c       ****   case MRBC_TT_OBJECT:
ARM GAS  C:\Users\164\AppData\Local\Temp\cctl9rYr.s 			page 27


 927              		.loc 1 209 0
 928 0002 90F90030 		ldrsb	r3, [r0]
 929 0006 143B     		subs	r3, r3, #20
 930 0008 052B     		cmp	r3, #5
 931 000a 29D8     		bhi	.L100
 216:value.c       ****     v->instance->ref_count--;
 932              		.loc 1 216 0
 933 000c 8268     		ldr	r2, [r0, #8]
 934 000e 1388     		ldrh	r3, [r2]
 935 0010 2BB9     		cbnz	r3, .L103
 216:value.c       ****     v->instance->ref_count--;
 936              		.loc 1 216 0 is_stmt 0 discriminator 1
 937 0012 144B     		ldr	r3, .L112
 938 0014 144A     		ldr	r2, .L112+4
 939 0016 D821     		movs	r1, #216
 940 0018 1448     		ldr	r0, .L112+8
 941              	.LVL125:
 942 001a FFF7FEFF 		bl	__assert_func
 943              	.LVL126:
 944              	.L103:
 217:value.c       ****     break;
 945              		.loc 1 217 0 is_stmt 1
 946 001e 013B     		subs	r3, r3, #1
 947 0020 1380     		strh	r3, [r2]	@ movhi
 226:value.c       **** 
 948              		.loc 1 226 0
 949 0022 8268     		ldr	r2, [r0, #8]
 950 0024 1388     		ldrh	r3, [r2]
 951 0026 DBB9     		cbnz	r3, .L100
 228:value.c       ****   case MRBC_TT_OBJECT:	mrbc_instance_delete(v);	break;
 952              		.loc 1 228 0
 953 0028 90F90030 		ldrsb	r3, [r0]
 954 002c 143B     		subs	r3, r3, #20
 955 002e 052B     		cmp	r3, #5
 956 0030 16D8     		bhi	.L100
 957 0032 DFE803F0 		tbb	[pc, r3]
 958              	.L105:
 959 0036 03       		.byte	(.L104-.L105)/2
 960 0037 06       		.byte	(.L106-.L105)/2
 961 0038 0A       		.byte	(.L107-.L105)/2
 962 0039 0D       		.byte	(.L108-.L105)/2
 963 003a 10       		.byte	(.L109-.L105)/2
 964 003b 13       		.byte	(.L110-.L105)/2
 965              		.p2align 1
 966              	.L104:
 229:value.c       ****   case MRBC_TT_PROC:	mrbc_raw_free(v->handle);	break;
 967              		.loc 1 229 0
 968 003c FFF7FEFF 		bl	mrbc_instance_delete
 969              	.LVL127:
 970 0040 08BD     		pop	{r3, pc}
 971              	.LVL128:
 972              	.L106:
 230:value.c       ****   case MRBC_TT_ARRAY:	mrbc_array_delete(v);		break;
 973              		.loc 1 230 0
 974 0042 1046     		mov	r0, r2
 975              	.LVL129:
 976 0044 FFF7FEFF 		bl	mrbc_raw_free
ARM GAS  C:\Users\164\AppData\Local\Temp\cctl9rYr.s 			page 28


 977              	.LVL130:
 978 0048 08BD     		pop	{r3, pc}
 979              	.LVL131:
 980              	.L107:
 231:value.c       **** #if MRBC_USE_STRING
 981              		.loc 1 231 0
 982 004a FFF7FEFF 		bl	mrbc_array_delete
 983              	.LVL132:
 984 004e 08BD     		pop	{r3, pc}
 985              	.LVL133:
 986              	.L108:
 233:value.c       **** #endif
 987              		.loc 1 233 0
 988 0050 FFF7FEFF 		bl	mrbc_string_delete
 989              	.LVL134:
 990 0054 08BD     		pop	{r3, pc}
 991              	.LVL135:
 992              	.L109:
 235:value.c       ****   case MRBC_TT_HASH:	mrbc_hash_delete(v);		break;
 993              		.loc 1 235 0
 994 0056 FFF7FEFF 		bl	mrbc_range_delete
 995              	.LVL136:
 996 005a 08BD     		pop	{r3, pc}
 997              	.LVL137:
 998              	.L110:
 236:value.c       **** 
 999              		.loc 1 236 0
 1000 005c FFF7FEFF 		bl	mrbc_hash_delete
 1001              	.LVL138:
 1002              	.L100:
 1003 0060 08BD     		pop	{r3, pc}
 1004              	.L113:
 1005 0062 00BF     		.align	2
 1006              	.L112:
 1007 0064 44000000 		.word	.LC3
 1008 0068 0C000000 		.word	.LANCHOR0+12
 1009 006c 1C000000 		.word	.LC1
 1010              		.cfi_endproc
 1011              	.LFE31:
 1012              		.size	mrbc_dec_ref_counter, .-mrbc_dec_ref_counter
 1013              		.section	.text.mrbc_release,"ax",%progbits
 1014              		.align	2
 1015              		.global	mrbc_release
 1016              		.thumb
 1017              		.thumb_func
 1018              		.type	mrbc_release, %function
 1019              	mrbc_release:
 1020              	.LFB30:
 195:value.c       ****   mrbc_dec_ref_counter(v);
 1021              		.loc 1 195 0
 1022              		.cfi_startproc
 1023              		@ args = 0, pretend = 0, frame = 0
 1024              		@ frame_needed = 0, uses_anonymous_args = 0
 1025              	.LVL139:
 1026 0000 10B5     		push	{r4, lr}
 1027              		.cfi_def_cfa_offset 8
 1028              		.cfi_offset 4, -8
ARM GAS  C:\Users\164\AppData\Local\Temp\cctl9rYr.s 			page 29


 1029              		.cfi_offset 14, -4
 1030 0002 0446     		mov	r4, r0
 196:value.c       ****   v->tt = MRBC_TT_EMPTY;
 1031              		.loc 1 196 0
 1032 0004 FFF7FEFF 		bl	mrbc_dec_ref_counter
 1033              	.LVL140:
 197:value.c       **** }
 1034              		.loc 1 197 0
 1035 0008 0023     		movs	r3, #0
 1036 000a 2370     		strb	r3, [r4]
 1037 000c 10BD     		pop	{r4, pc}
 1038              		.cfi_endproc
 1039              	.LFE30:
 1040              		.size	mrbc_release, .-mrbc_release
 1041 000e 00BF     		.section	.text.mrbc_instance_setiv,"ax",%progbits
 1042              		.align	2
 1043              		.global	mrbc_instance_setiv
 1044              		.thumb
 1045              		.thumb_func
 1046              		.type	mrbc_instance_setiv, %function
 1047              	mrbc_instance_setiv:
 1048              	.LFB38:
 402:value.c       **** }
 403:value.c       **** 
 404:value.c       **** 
 405:value.c       **** //================================================================
 406:value.c       **** /*! instance variable setter
 407:value.c       **** 
 408:value.c       ****   @param  obj		pointer to target.
 409:value.c       ****   @param  sym_id	key symbol ID.
 410:value.c       ****   @param  v		pointer to value.
 411:value.c       **** */
 412:value.c       **** void mrbc_instance_setiv(mrbc_object *obj, mrbc_sym sym_id, mrbc_value *v)
 413:value.c       **** {
 1049              		.loc 1 413 0
 1050              		.cfi_startproc
 1051              		@ args = 0, pretend = 0, frame = 0
 1052              		@ frame_needed = 0, uses_anonymous_args = 0
 1053              	.LVL141:
 1054 0000 70B5     		push	{r4, r5, r6, lr}
 1055              		.cfi_def_cfa_offset 16
 1056              		.cfi_offset 4, -16
 1057              		.cfi_offset 5, -12
 1058              		.cfi_offset 6, -8
 1059              		.cfi_offset 14, -4
 1060 0002 0646     		mov	r6, r0
 1061 0004 0D46     		mov	r5, r1
 1062 0006 1446     		mov	r4, r2
 414:value.c       ****   mrbc_dup(v);
 1063              		.loc 1 414 0
 1064 0008 1046     		mov	r0, r2
 1065              	.LVL142:
 1066 000a FFF7FEFF 		bl	mrbc_dup
 1067              	.LVL143:
 415:value.c       ****   mrbc_kv_set( obj->instance->ivar, sym_id, v );
 1068              		.loc 1 415 0
 1069 000e B368     		ldr	r3, [r6, #8]
ARM GAS  C:\Users\164\AppData\Local\Temp\cctl9rYr.s 			page 30


 1070 0010 2246     		mov	r2, r4
 1071 0012 2946     		mov	r1, r5
 1072 0014 9868     		ldr	r0, [r3, #8]
 1073 0016 FFF7FEFF 		bl	mrbc_kv_set
 1074              	.LVL144:
 1075 001a 70BD     		pop	{r4, r5, r6, pc}
 1076              		.cfi_endproc
 1077              	.LFE38:
 1078              		.size	mrbc_instance_setiv, .-mrbc_instance_setiv
 1079              		.section	.text.mrbc_instance_getiv,"ax",%progbits
 1080              		.align	2
 1081              		.global	mrbc_instance_getiv
 1082              		.thumb
 1083              		.thumb_func
 1084              		.type	mrbc_instance_getiv, %function
 1085              	mrbc_instance_getiv:
 1086              	.LFB39:
 416:value.c       **** }
 417:value.c       **** 
 418:value.c       **** 
 419:value.c       **** //================================================================
 420:value.c       **** /*! instance variable getter
 421:value.c       **** 
 422:value.c       ****   @param  obj		pointer to target.
 423:value.c       ****   @param  sym_id	key symbol ID.
 424:value.c       ****   @return		value.
 425:value.c       **** */
 426:value.c       **** mrbc_value mrbc_instance_getiv(mrbc_object *obj, mrbc_sym sym_id)
 427:value.c       **** {
 1087              		.loc 1 427 0
 1088              		.cfi_startproc
 1089              		@ args = 0, pretend = 0, frame = 0
 1090              		@ frame_needed = 0, uses_anonymous_args = 0
 1091              	.LVL145:
 1092 0000 38B5     		push	{r3, r4, r5, lr}
 1093              		.cfi_def_cfa_offset 16
 1094              		.cfi_offset 3, -16
 1095              		.cfi_offset 4, -12
 1096              		.cfi_offset 5, -8
 1097              		.cfi_offset 14, -4
 1098 0002 0446     		mov	r4, r0
 428:value.c       ****   mrbc_value *v = mrbc_kv_get( obj->instance->ivar, sym_id );
 1099              		.loc 1 428 0
 1100 0004 8B68     		ldr	r3, [r1, #8]
 1101 0006 1146     		mov	r1, r2
 1102              	.LVL146:
 1103 0008 9868     		ldr	r0, [r3, #8]
 1104              	.LVL147:
 1105 000a FFF7FEFF 		bl	mrbc_kv_get
 1106              	.LVL148:
 429:value.c       ****   if( !v ) return mrbc_nil_value();
 1107              		.loc 1 429 0
 1108 000e 38B9     		cbnz	r0, .L119
 1109              		.loc 1 429 0 is_stmt 0 discriminator 1
 1110 0010 0023     		movs	r3, #0
 1111 0012 2360     		str	r3, [r4]
 1112 0014 6360     		str	r3, [r4, #4]
ARM GAS  C:\Users\164\AppData\Local\Temp\cctl9rYr.s 			page 31


 1113 0016 A360     		str	r3, [r4, #8]
 1114 0018 E360     		str	r3, [r4, #12]
 1115 001a 0123     		movs	r3, #1
 1116 001c 2370     		strb	r3, [r4]
 1117 001e 06E0     		b	.L118
 1118              	.L119:
 1119 0020 0546     		mov	r5, r0
 430:value.c       **** 
 431:value.c       ****   mrbc_dup(v);
 1120              		.loc 1 431 0 is_stmt 1
 1121 0022 FFF7FEFF 		bl	mrbc_dup
 1122              	.LVL149:
 432:value.c       ****   return *v;
 1123              		.loc 1 432 0
 1124 0026 95E80F00 		ldmia	r5, {r0, r1, r2, r3}
 1125 002a 84E80F00 		stmia	r4, {r0, r1, r2, r3}
 1126              	.LVL150:
 1127              	.L118:
 433:value.c       **** }
 1128              		.loc 1 433 0
 1129 002e 2046     		mov	r0, r4
 1130 0030 38BD     		pop	{r3, r4, r5, pc}
 1131              		.cfi_endproc
 1132              	.LFE39:
 1133              		.size	mrbc_instance_getiv, .-mrbc_instance_getiv
 1134 0032 00BF     		.section	.rodata
 1135              		.align	2
 1136              		.set	.LANCHOR0,. + 0
 1137              		.type	__func__.5208, %object
 1138              		.size	__func__.5208, 9
 1139              	__func__.5208:
 1140 0000 6D726263 		.ascii	"mrbc_dup\000"
 1140      5F647570 
 1140      00
 1141 0009 000000   		.space	3
 1142              		.type	__func__.5223, %object
 1143              		.size	__func__.5223, 21
 1144              	__func__.5223:
 1145 000c 6D726263 		.ascii	"mrbc_dec_ref_counter\000"
 1145      5F646563 
 1145      5F726566 
 1145      5F636F75 
 1145      6E746572 
 1146              		.section	.rodata.str1.4,"aMS",%progbits,1
 1147              		.align	2
 1148              	.LC0:
 1149 0000 762D3E69 		.ascii	"v->instance->ref_count > 0\000"
 1149      6E737461 
 1149      6E63652D 
 1149      3E726566 
 1149      5F636F75 
 1150 001b 00       		.space	1
 1151              	.LC1:
 1152 001c 76616C75 		.ascii	"value.c\000"
 1152      652E6300 
 1153              	.LC2:
 1154 0024 762D3E69 		.ascii	"v->instance->ref_count != 0xff\000"
ARM GAS  C:\Users\164\AppData\Local\Temp\cctl9rYr.s 			page 32


 1154      6E737461 
 1154      6E63652D 
 1154      3E726566 
 1154      5F636F75 
 1155 0043 00       		.space	1
 1156              	.LC3:
 1157 0044 762D3E69 		.ascii	"v->instance->ref_count != 0\000"
 1157      6E737461 
 1157      6E63652D 
 1157      3E726566 
 1157      5F636F75 
 1158              		.text
 1159              	.Letext0:
 1160              		.file 4 "c:\\program files (x86)\\cypress\\psoc creator\\4.2\\psoc creator\\import\\gnu\\arm\\5.4.
 1161              		.file 5 "c:\\program files (x86)\\cypress\\psoc creator\\4.2\\psoc creator\\import\\gnu\\arm\\5.4.
 1162              		.file 6 "value.h"
 1163              		.file 7 "vm.h"
 1164              		.file 8 "c_array.h"
 1165              		.file 9 "c_range.h"
 1166              		.file 10 "keyvalue.h"
 1167              		.file 11 "alloc.h"
 1168              		.file 12 "symbol.h"
 1169              		.file 13 "c:\\program files (x86)\\cypress\\psoc creator\\4.2\\psoc creator\\import\\gnu\\arm\\5.4
 1170              		.file 14 "class.h"
 1171              		.file 15 "c:\\program files (x86)\\cypress\\psoc creator\\4.2\\psoc creator\\import\\gnu\\arm\\5.4