ARM GAS  C:\Users\164\AppData\Local\Temp\cc4PZf78.s 			page 1


   1              		.syntax unified
   2              		.cpu cortex-m3
   3              		.fpu softvfp
   4              		.eabi_attribute 20, 1
   5              		.eabi_attribute 21, 1
   6              		.eabi_attribute 23, 3
   7              		.eabi_attribute 24, 1
   8              		.eabi_attribute 25, 1
   9              		.eabi_attribute 26, 1
  10              		.eabi_attribute 30, 1
  11              		.eabi_attribute 34, 1
  12              		.eabi_attribute 18, 4
  13              		.thumb
  14              		.syntax unified
  15              		.file	"vm.c"
  16              		.text
  17              	.Ltext0:
  18              		.cfi_sections	.debug_frame
  19              		.section	.text.not_supported,"ax",%progbits
  20              		.align	2
  21              		.thumb
  22              		.thumb_func
  23              		.type	not_supported, %function
  24              	not_supported:
  25              	.LFB93:
  26              		.file 1 "..\\..\\mruby_c2\\Design01.cydsn\\vm.c"
   1:..\..\mruby_c2\Design01.cydsn/vm.c **** /*! @file
   2:..\..\mruby_c2\Design01.cydsn/vm.c ****   @brief
   3:..\..\mruby_c2\Design01.cydsn/vm.c ****   mruby bytecode executor.
   4:..\..\mruby_c2\Design01.cydsn/vm.c **** 
   5:..\..\mruby_c2\Design01.cydsn/vm.c ****   <pre>
   6:..\..\mruby_c2\Design01.cydsn/vm.c ****   Copyright (C) 2015-2018 Kyushu Institute of Technology.
   7:..\..\mruby_c2\Design01.cydsn/vm.c ****   Copyright (C) 2015-2018 Shimane IT Open-Innovation Center.
   8:..\..\mruby_c2\Design01.cydsn/vm.c **** 
   9:..\..\mruby_c2\Design01.cydsn/vm.c ****   This file is distributed under BSD 3-Clause License.
  10:..\..\mruby_c2\Design01.cydsn/vm.c **** 
  11:..\..\mruby_c2\Design01.cydsn/vm.c ****   Fetch mruby VM bytecodes, decode and execute.
  12:..\..\mruby_c2\Design01.cydsn/vm.c **** 
  13:..\..\mruby_c2\Design01.cydsn/vm.c ****   </pre>
  14:..\..\mruby_c2\Design01.cydsn/vm.c **** */
  15:..\..\mruby_c2\Design01.cydsn/vm.c **** 
  16:..\..\mruby_c2\Design01.cydsn/vm.c **** #include "vm_config.h"
  17:..\..\mruby_c2\Design01.cydsn/vm.c **** #include <stdint.h>
  18:..\..\mruby_c2\Design01.cydsn/vm.c **** #include <stddef.h>
  19:..\..\mruby_c2\Design01.cydsn/vm.c **** #include <string.h>
  20:..\..\mruby_c2\Design01.cydsn/vm.c **** #include <assert.h>
  21:..\..\mruby_c2\Design01.cydsn/vm.c **** #include "vm.h"
  22:..\..\mruby_c2\Design01.cydsn/vm.c **** #include "alloc.h"
  23:..\..\mruby_c2\Design01.cydsn/vm.c **** #include "static.h"
  24:..\..\mruby_c2\Design01.cydsn/vm.c **** #include "opcode.h"
  25:..\..\mruby_c2\Design01.cydsn/vm.c **** #include "class.h"
  26:..\..\mruby_c2\Design01.cydsn/vm.c **** #include "symbol.h"
  27:..\..\mruby_c2\Design01.cydsn/vm.c **** #include "console.h"
  28:..\..\mruby_c2\Design01.cydsn/vm.c **** 
  29:..\..\mruby_c2\Design01.cydsn/vm.c **** #include "c_string.h"
  30:..\..\mruby_c2\Design01.cydsn/vm.c **** #include "c_range.h"
  31:..\..\mruby_c2\Design01.cydsn/vm.c **** #include "c_array.h"
ARM GAS  C:\Users\164\AppData\Local\Temp\cc4PZf78.s 			page 2


  32:..\..\mruby_c2\Design01.cydsn/vm.c **** #include "c_hash.h"
  33:..\..\mruby_c2\Design01.cydsn/vm.c **** 
  34:..\..\mruby_c2\Design01.cydsn/vm.c **** 
  35:..\..\mruby_c2\Design01.cydsn/vm.c **** static uint32_t free_vm_bitmap[MAX_VM_COUNT / 32 + 1];
  36:..\..\mruby_c2\Design01.cydsn/vm.c **** #define FREE_BITMAP_WIDTH 32
  37:..\..\mruby_c2\Design01.cydsn/vm.c **** #define Num(n) (sizeof(n)/sizeof((n)[0]))
  38:..\..\mruby_c2\Design01.cydsn/vm.c **** 
  39:..\..\mruby_c2\Design01.cydsn/vm.c **** 
  40:..\..\mruby_c2\Design01.cydsn/vm.c **** //================================================================
  41:..\..\mruby_c2\Design01.cydsn/vm.c **** /*! Number of leading zeros.
  42:..\..\mruby_c2\Design01.cydsn/vm.c **** 
  43:..\..\mruby_c2\Design01.cydsn/vm.c ****   @param	x	target (32bit unsined)
  44:..\..\mruby_c2\Design01.cydsn/vm.c ****   @retval	int	nlz value
  45:..\..\mruby_c2\Design01.cydsn/vm.c **** */
  46:..\..\mruby_c2\Design01.cydsn/vm.c **** static inline int nlz32(uint32_t x)
  47:..\..\mruby_c2\Design01.cydsn/vm.c **** {
  48:..\..\mruby_c2\Design01.cydsn/vm.c ****   if( x == 0 ) return 32;
  49:..\..\mruby_c2\Design01.cydsn/vm.c **** 
  50:..\..\mruby_c2\Design01.cydsn/vm.c ****   int n = 1;
  51:..\..\mruby_c2\Design01.cydsn/vm.c ****   if((x >> 16) == 0 ) { n += 16; x <<= 16; }
  52:..\..\mruby_c2\Design01.cydsn/vm.c ****   if((x >> 24) == 0 ) { n +=  8; x <<=  8; }
  53:..\..\mruby_c2\Design01.cydsn/vm.c ****   if((x >> 28) == 0 ) { n +=  4; x <<=  4; }
  54:..\..\mruby_c2\Design01.cydsn/vm.c ****   if((x >> 30) == 0 ) { n +=  2; x <<=  2; }
  55:..\..\mruby_c2\Design01.cydsn/vm.c ****   return n - (x >> 31);
  56:..\..\mruby_c2\Design01.cydsn/vm.c **** }
  57:..\..\mruby_c2\Design01.cydsn/vm.c **** 
  58:..\..\mruby_c2\Design01.cydsn/vm.c **** 
  59:..\..\mruby_c2\Design01.cydsn/vm.c **** //================================================================
  60:..\..\mruby_c2\Design01.cydsn/vm.c **** /*! get sym[n] from symbol table in irep
  61:..\..\mruby_c2\Design01.cydsn/vm.c **** 
  62:..\..\mruby_c2\Design01.cydsn/vm.c ****   @param  p	Pointer to IREP SYMS section.
  63:..\..\mruby_c2\Design01.cydsn/vm.c ****   @param  n	n th
  64:..\..\mruby_c2\Design01.cydsn/vm.c ****   @return	symbol name string
  65:..\..\mruby_c2\Design01.cydsn/vm.c **** */
  66:..\..\mruby_c2\Design01.cydsn/vm.c **** const char * mrbc_get_irep_symbol( const uint8_t *p, int n )
  67:..\..\mruby_c2\Design01.cydsn/vm.c **** {
  68:..\..\mruby_c2\Design01.cydsn/vm.c ****   int cnt = bin_to_uint32(p);
  69:..\..\mruby_c2\Design01.cydsn/vm.c ****   if( n >= cnt ) return 0;
  70:..\..\mruby_c2\Design01.cydsn/vm.c ****   p += 4;
  71:..\..\mruby_c2\Design01.cydsn/vm.c ****   while( n > 0 ) {
  72:..\..\mruby_c2\Design01.cydsn/vm.c ****     uint16_t s = bin_to_uint16(p);
  73:..\..\mruby_c2\Design01.cydsn/vm.c ****     p += 2+s+1;   // size(2 bytes) + symbol len + '\0'
  74:..\..\mruby_c2\Design01.cydsn/vm.c ****     n--;
  75:..\..\mruby_c2\Design01.cydsn/vm.c ****   }
  76:..\..\mruby_c2\Design01.cydsn/vm.c ****   return (char *)p+2;  // skip size(2 bytes)
  77:..\..\mruby_c2\Design01.cydsn/vm.c **** }
  78:..\..\mruby_c2\Design01.cydsn/vm.c **** 
  79:..\..\mruby_c2\Design01.cydsn/vm.c **** 
  80:..\..\mruby_c2\Design01.cydsn/vm.c **** //================================================================
  81:..\..\mruby_c2\Design01.cydsn/vm.c **** /*! get callee name
  82:..\..\mruby_c2\Design01.cydsn/vm.c **** 
  83:..\..\mruby_c2\Design01.cydsn/vm.c ****   @param  vm	Pointer to VM
  84:..\..\mruby_c2\Design01.cydsn/vm.c ****   @return	string
  85:..\..\mruby_c2\Design01.cydsn/vm.c **** */
  86:..\..\mruby_c2\Design01.cydsn/vm.c **** const char *mrbc_get_callee_name( mrb_vm *vm )
  87:..\..\mruby_c2\Design01.cydsn/vm.c **** {
  88:..\..\mruby_c2\Design01.cydsn/vm.c ****   uint32_t code = bin_to_uint32(vm->pc_irep->code + (vm->pc - 1) * 4);
ARM GAS  C:\Users\164\AppData\Local\Temp\cc4PZf78.s 			page 3


  89:..\..\mruby_c2\Design01.cydsn/vm.c ****   int rb = GETARG_B(code);  // index of method sym
  90:..\..\mruby_c2\Design01.cydsn/vm.c ****   return mrbc_get_irep_symbol(vm->pc_irep->ptr_to_sym, rb);
  91:..\..\mruby_c2\Design01.cydsn/vm.c **** }
  92:..\..\mruby_c2\Design01.cydsn/vm.c **** 
  93:..\..\mruby_c2\Design01.cydsn/vm.c **** 
  94:..\..\mruby_c2\Design01.cydsn/vm.c **** //================================================================
  95:..\..\mruby_c2\Design01.cydsn/vm.c **** /*!@brief
  96:..\..\mruby_c2\Design01.cydsn/vm.c **** 
  97:..\..\mruby_c2\Design01.cydsn/vm.c **** */
  98:..\..\mruby_c2\Design01.cydsn/vm.c **** static void not_supported(void)
  99:..\..\mruby_c2\Design01.cydsn/vm.c **** {
  27              		.loc 1 99 0
  28              		.cfi_startproc
  29              		@ args = 0, pretend = 0, frame = 0
  30              		@ frame_needed = 0, uses_anonymous_args = 0
  31 0000 08B5     		push	{r3, lr}
  32              		.cfi_def_cfa_offset 8
  33              		.cfi_offset 3, -8
  34              		.cfi_offset 14, -4
 100:..\..\mruby_c2\Design01.cydsn/vm.c ****   console_printf("Not supported!\n");
  35              		.loc 1 100 0
  36 0002 0248     		ldr	r0, .L3
  37 0004 FFF7FEFF 		bl	console_printf
  38              	.LVL0:
  39 0008 08BD     		pop	{r3, pc}
  40              	.L4:
  41 000a 00BF     		.align	2
  42              	.L3:
  43 000c 00000000 		.word	.LC0
  44              		.cfi_endproc
  45              	.LFE93:
  46              		.size	not_supported, .-not_supported
  47              		.section	.text.mrbc_get_irep_symbol,"ax",%progbits
  48              		.align	2
  49              		.global	mrbc_get_irep_symbol
  50              		.thumb
  51              		.thumb_func
  52              		.type	mrbc_get_irep_symbol, %function
  53              	mrbc_get_irep_symbol:
  54              	.LFB91:
  67:..\..\mruby_c2\Design01.cydsn/vm.c ****   int cnt = bin_to_uint32(p);
  55              		.loc 1 67 0
  56              		.cfi_startproc
  57              		@ args = 0, pretend = 0, frame = 0
  58              		@ frame_needed = 0, uses_anonymous_args = 0
  59              		@ link register save eliminated.
  60              	.LVL1:
  61 0000 10B4     		push	{r4}
  62              		.cfi_def_cfa_offset 4
  63              		.cfi_offset 4, -4
  64              	.LVL2:
  65              	.LBB42:
  66              	.LBB43:
  67              		.file 2 "..\\..\\mruby_c2\\Design01.cydsn\\vm.h"
   1:..\..\mruby_c2\Design01.cydsn/vm.h **** /*! @file
   2:..\..\mruby_c2\Design01.cydsn/vm.h ****   @brief
   3:..\..\mruby_c2\Design01.cydsn/vm.h ****   mruby bytecode executor.
ARM GAS  C:\Users\164\AppData\Local\Temp\cc4PZf78.s 			page 4


   4:..\..\mruby_c2\Design01.cydsn/vm.h **** 
   5:..\..\mruby_c2\Design01.cydsn/vm.h ****   <pre>
   6:..\..\mruby_c2\Design01.cydsn/vm.h ****   Copyright (C) 2015-2017 Kyushu Institute of Technology.
   7:..\..\mruby_c2\Design01.cydsn/vm.h ****   Copyright (C) 2015-2017 Shimane IT Open-Innovation Center.
   8:..\..\mruby_c2\Design01.cydsn/vm.h **** 
   9:..\..\mruby_c2\Design01.cydsn/vm.h ****   This file is distributed under BSD 3-Clause License.
  10:..\..\mruby_c2\Design01.cydsn/vm.h **** 
  11:..\..\mruby_c2\Design01.cydsn/vm.h ****   Fetch mruby VM bytecodes, decode and execute.
  12:..\..\mruby_c2\Design01.cydsn/vm.h **** 
  13:..\..\mruby_c2\Design01.cydsn/vm.h ****   </pre>
  14:..\..\mruby_c2\Design01.cydsn/vm.h **** */
  15:..\..\mruby_c2\Design01.cydsn/vm.h **** 
  16:..\..\mruby_c2\Design01.cydsn/vm.h **** #ifndef MRBC_SRC_VM_H_
  17:..\..\mruby_c2\Design01.cydsn/vm.h **** #define MRBC_SRC_VM_H_
  18:..\..\mruby_c2\Design01.cydsn/vm.h **** 
  19:..\..\mruby_c2\Design01.cydsn/vm.h **** #include <stdint.h>
  20:..\..\mruby_c2\Design01.cydsn/vm.h **** #include "vm_config.h"
  21:..\..\mruby_c2\Design01.cydsn/vm.h **** #include "value.h"
  22:..\..\mruby_c2\Design01.cydsn/vm.h **** 
  23:..\..\mruby_c2\Design01.cydsn/vm.h **** #ifdef __cplusplus
  24:..\..\mruby_c2\Design01.cydsn/vm.h **** extern "C" {
  25:..\..\mruby_c2\Design01.cydsn/vm.h **** #endif
  26:..\..\mruby_c2\Design01.cydsn/vm.h **** 
  27:..\..\mruby_c2\Design01.cydsn/vm.h **** 
  28:..\..\mruby_c2\Design01.cydsn/vm.h **** //================================================================
  29:..\..\mruby_c2\Design01.cydsn/vm.h **** /*!@brief
  30:..\..\mruby_c2\Design01.cydsn/vm.h ****   IREP Internal REPresentation
  31:..\..\mruby_c2\Design01.cydsn/vm.h **** */
  32:..\..\mruby_c2\Design01.cydsn/vm.h **** typedef struct IREP {
  33:..\..\mruby_c2\Design01.cydsn/vm.h ****   uint16_t nlocals;		//!< # of local variables
  34:..\..\mruby_c2\Design01.cydsn/vm.h ****   uint16_t nregs;		//!< # of register variables
  35:..\..\mruby_c2\Design01.cydsn/vm.h ****   uint16_t rlen;		//!< # of child IREP blocks
  36:..\..\mruby_c2\Design01.cydsn/vm.h ****   uint16_t ilen;		//!< # of irep
  37:..\..\mruby_c2\Design01.cydsn/vm.h ****   uint16_t plen;		//!< # of pool
  38:..\..\mruby_c2\Design01.cydsn/vm.h **** 
  39:..\..\mruby_c2\Design01.cydsn/vm.h ****   uint8_t     *code;		//!< ISEQ (code) BLOCK
  40:..\..\mruby_c2\Design01.cydsn/vm.h ****   mrb_object  **pools;          //!< array of POOL objects pointer.
  41:..\..\mruby_c2\Design01.cydsn/vm.h ****   uint8_t     *ptr_to_sym;
  42:..\..\mruby_c2\Design01.cydsn/vm.h ****   struct IREP **reps;		//!< array of child IREP's pointer.
  43:..\..\mruby_c2\Design01.cydsn/vm.h **** 
  44:..\..\mruby_c2\Design01.cydsn/vm.h **** } mrb_irep;
  45:..\..\mruby_c2\Design01.cydsn/vm.h **** 
  46:..\..\mruby_c2\Design01.cydsn/vm.h **** 
  47:..\..\mruby_c2\Design01.cydsn/vm.h **** //================================================================
  48:..\..\mruby_c2\Design01.cydsn/vm.h **** /*!@brief
  49:..\..\mruby_c2\Design01.cydsn/vm.h ****   Call information
  50:..\..\mruby_c2\Design01.cydsn/vm.h **** */
  51:..\..\mruby_c2\Design01.cydsn/vm.h **** typedef struct CALLINFO {
  52:..\..\mruby_c2\Design01.cydsn/vm.h ****   mrb_irep *pc_irep;
  53:..\..\mruby_c2\Design01.cydsn/vm.h ****   uint16_t  pc;
  54:..\..\mruby_c2\Design01.cydsn/vm.h ****   mrb_value *current_regs;
  55:..\..\mruby_c2\Design01.cydsn/vm.h ****   mrb_class *target_class;
  56:..\..\mruby_c2\Design01.cydsn/vm.h ****   uint8_t   n_args;     // num of args
  57:..\..\mruby_c2\Design01.cydsn/vm.h **** } mrb_callinfo;
  58:..\..\mruby_c2\Design01.cydsn/vm.h **** 
  59:..\..\mruby_c2\Design01.cydsn/vm.h **** 
  60:..\..\mruby_c2\Design01.cydsn/vm.h **** //================================================================
ARM GAS  C:\Users\164\AppData\Local\Temp\cc4PZf78.s 			page 5


  61:..\..\mruby_c2\Design01.cydsn/vm.h **** /*!@brief
  62:..\..\mruby_c2\Design01.cydsn/vm.h ****   Virtual Machine
  63:..\..\mruby_c2\Design01.cydsn/vm.h **** */
  64:..\..\mruby_c2\Design01.cydsn/vm.h **** typedef struct VM {
  65:..\..\mruby_c2\Design01.cydsn/vm.h ****   mrb_irep *irep;
  66:..\..\mruby_c2\Design01.cydsn/vm.h **** 
  67:..\..\mruby_c2\Design01.cydsn/vm.h ****   uint8_t        vm_id; // vm_id : 1..n
  68:..\..\mruby_c2\Design01.cydsn/vm.h ****   const uint8_t *mrb;   // bytecode
  69:..\..\mruby_c2\Design01.cydsn/vm.h **** 
  70:..\..\mruby_c2\Design01.cydsn/vm.h ****   mrb_irep *pc_irep;    // PC
  71:..\..\mruby_c2\Design01.cydsn/vm.h ****   uint16_t  pc;         // PC
  72:..\..\mruby_c2\Design01.cydsn/vm.h **** 
  73:..\..\mruby_c2\Design01.cydsn/vm.h ****   //  uint16_t     reg_top;
  74:..\..\mruby_c2\Design01.cydsn/vm.h ****   mrb_value    regs[MAX_REGS_SIZE];
  75:..\..\mruby_c2\Design01.cydsn/vm.h ****   mrb_value   *current_regs;
  76:..\..\mruby_c2\Design01.cydsn/vm.h ****   uint16_t     callinfo_top;
  77:..\..\mruby_c2\Design01.cydsn/vm.h ****   mrb_callinfo callinfo[MAX_CALLINFO_SIZE];
  78:..\..\mruby_c2\Design01.cydsn/vm.h **** 
  79:..\..\mruby_c2\Design01.cydsn/vm.h ****   mrb_class *target_class;
  80:..\..\mruby_c2\Design01.cydsn/vm.h **** 
  81:..\..\mruby_c2\Design01.cydsn/vm.h ****   int32_t error_code;
  82:..\..\mruby_c2\Design01.cydsn/vm.h **** 
  83:..\..\mruby_c2\Design01.cydsn/vm.h ****   volatile int8_t flag_preemption;
  84:..\..\mruby_c2\Design01.cydsn/vm.h ****   int8_t flag_need_memfree;
  85:..\..\mruby_c2\Design01.cydsn/vm.h **** } mrb_vm;
  86:..\..\mruby_c2\Design01.cydsn/vm.h **** 
  87:..\..\mruby_c2\Design01.cydsn/vm.h **** 
  88:..\..\mruby_c2\Design01.cydsn/vm.h **** const char *mrbc_get_irep_symbol(const uint8_t *p, int n);
  89:..\..\mruby_c2\Design01.cydsn/vm.h **** const char *mrbc_get_callee_name(mrb_vm *vm);
  90:..\..\mruby_c2\Design01.cydsn/vm.h **** mrb_vm *mrbc_vm_open(mrb_vm *vm_arg);
  91:..\..\mruby_c2\Design01.cydsn/vm.h **** void mrbc_vm_close(mrb_vm *vm);
  92:..\..\mruby_c2\Design01.cydsn/vm.h **** void mrbc_vm_begin(mrb_vm *vm);
  93:..\..\mruby_c2\Design01.cydsn/vm.h **** void mrbc_vm_end(mrb_vm *vm);
  94:..\..\mruby_c2\Design01.cydsn/vm.h **** int mrbc_vm_run(mrb_vm *vm);
  95:..\..\mruby_c2\Design01.cydsn/vm.h **** 
  96:..\..\mruby_c2\Design01.cydsn/vm.h **** void mrbc_push_callinfo(mrb_vm *vm, int n_args);
  97:..\..\mruby_c2\Design01.cydsn/vm.h **** void mrbc_pop_callinfo(mrb_vm *vm);
  98:..\..\mruby_c2\Design01.cydsn/vm.h **** 
  99:..\..\mruby_c2\Design01.cydsn/vm.h **** //================================================================
 100:..\..\mruby_c2\Design01.cydsn/vm.h **** /*!@brief
 101:..\..\mruby_c2\Design01.cydsn/vm.h ****   Get 32bit value from memory big endian.
 102:..\..\mruby_c2\Design01.cydsn/vm.h **** 
 103:..\..\mruby_c2\Design01.cydsn/vm.h ****   @param  s	Pointer of memory.
 104:..\..\mruby_c2\Design01.cydsn/vm.h ****   @return	32bit unsigned value.
 105:..\..\mruby_c2\Design01.cydsn/vm.h **** */
 106:..\..\mruby_c2\Design01.cydsn/vm.h **** inline static uint32_t bin_to_uint32( const void *s )
 107:..\..\mruby_c2\Design01.cydsn/vm.h **** {
 108:..\..\mruby_c2\Design01.cydsn/vm.h **** #if MRBC_REQUIRE_32BIT_ALIGNMENT
 109:..\..\mruby_c2\Design01.cydsn/vm.h ****   uint8_t *p = (uint8_t *)s;
 110:..\..\mruby_c2\Design01.cydsn/vm.h ****   uint32_t x = *p++;
 111:..\..\mruby_c2\Design01.cydsn/vm.h ****   x <<= 8;
 112:..\..\mruby_c2\Design01.cydsn/vm.h ****   x |= *p++;
 113:..\..\mruby_c2\Design01.cydsn/vm.h ****   x <<= 8;
 114:..\..\mruby_c2\Design01.cydsn/vm.h ****   x |= *p++;
 115:..\..\mruby_c2\Design01.cydsn/vm.h ****   x <<= 8;
 116:..\..\mruby_c2\Design01.cydsn/vm.h ****   x |= *p;
 117:..\..\mruby_c2\Design01.cydsn/vm.h ****   return x;
ARM GAS  C:\Users\164\AppData\Local\Temp\cc4PZf78.s 			page 6


 118:..\..\mruby_c2\Design01.cydsn/vm.h **** #else
 119:..\..\mruby_c2\Design01.cydsn/vm.h ****   uint32_t x = *((uint32_t *)s);
  68              		.loc 2 119 0
  69 0002 0468     		ldr	r4, [r0]
  70              	.LVL3:
 120:..\..\mruby_c2\Design01.cydsn/vm.h ****   return (x << 24) | ((x & 0xff00) << 8) | ((x >> 8) & 0xff00) | (x >> 24);
  71              		.loc 2 120 0
  72 0004 2302     		lsls	r3, r4, #8
  73 0006 03F47F03 		and	r3, r3, #16711680
  74 000a 43EA0463 		orr	r3, r3, r4, lsl #24
  75 000e 220A     		lsrs	r2, r4, #8
  76 0010 02F47F42 		and	r2, r2, #65280
  77 0014 1343     		orrs	r3, r3, r2
  78 0016 43EA1463 		orr	r3, r3, r4, lsr #24
  79              	.LVL4:
  80              	.LBE43:
  81              	.LBE42:
  69:..\..\mruby_c2\Design01.cydsn/vm.c ****   p += 4;
  82              		.loc 1 69 0
  83 001a 8B42     		cmp	r3, r1
  84 001c 0DDD     		ble	.L9
  70:..\..\mruby_c2\Design01.cydsn/vm.c ****   while( n > 0 ) {
  85              		.loc 1 70 0
  86 001e 0430     		adds	r0, r0, #4
  87              	.LVL5:
  71:..\..\mruby_c2\Design01.cydsn/vm.c ****     uint16_t s = bin_to_uint16(p);
  88              		.loc 1 71 0
  89 0020 07E0     		b	.L7
  90              	.LVL6:
  91              	.L8:
  92              	.LBB44:
  93              	.LBB45:
  94              	.LBB46:
 121:..\..\mruby_c2\Design01.cydsn/vm.h **** #endif
 122:..\..\mruby_c2\Design01.cydsn/vm.h **** }
 123:..\..\mruby_c2\Design01.cydsn/vm.h **** 
 124:..\..\mruby_c2\Design01.cydsn/vm.h **** 
 125:..\..\mruby_c2\Design01.cydsn/vm.h **** //================================================================
 126:..\..\mruby_c2\Design01.cydsn/vm.h **** /*!@brief
 127:..\..\mruby_c2\Design01.cydsn/vm.h ****   Get 16bit value from memory big endian.
 128:..\..\mruby_c2\Design01.cydsn/vm.h **** 
 129:..\..\mruby_c2\Design01.cydsn/vm.h ****   @param  s	Pointer of memory.
 130:..\..\mruby_c2\Design01.cydsn/vm.h ****   @return	16bit unsigned value.
 131:..\..\mruby_c2\Design01.cydsn/vm.h **** */
 132:..\..\mruby_c2\Design01.cydsn/vm.h **** inline static uint16_t bin_to_uint16( const void *s )
 133:..\..\mruby_c2\Design01.cydsn/vm.h **** {
 134:..\..\mruby_c2\Design01.cydsn/vm.h **** #if MRBC_REQUIRE_32BIT_ALIGNMENT
 135:..\..\mruby_c2\Design01.cydsn/vm.h ****   uint8_t *p = (uint8_t *)s;
 136:..\..\mruby_c2\Design01.cydsn/vm.h ****   uint16_t x = *p++ << 8;
 137:..\..\mruby_c2\Design01.cydsn/vm.h ****   x |= *p;
 138:..\..\mruby_c2\Design01.cydsn/vm.h ****   return x;
 139:..\..\mruby_c2\Design01.cydsn/vm.h **** #else
 140:..\..\mruby_c2\Design01.cydsn/vm.h ****   uint16_t x = *((uint16_t *)s);
  95              		.loc 2 140 0
  96 0022 0288     		ldrh	r2, [r0]
  97              	.LVL7:
 141:..\..\mruby_c2\Design01.cydsn/vm.h ****   return (x << 8) | (x >> 8);
ARM GAS  C:\Users\164\AppData\Local\Temp\cc4PZf78.s 			page 7


  98              		.loc 2 141 0
  99 0024 130A     		lsrs	r3, r2, #8
 100 0026 43EA0223 		orr	r3, r3, r2, lsl #8
 101 002a 9BB2     		uxth	r3, r3
 102              	.LVL8:
 103              	.LBE46:
 104              	.LBE45:
  73:..\..\mruby_c2\Design01.cydsn/vm.c ****     n--;
 105              		.loc 1 73 0
 106 002c 0333     		adds	r3, r3, #3
 107 002e 1844     		add	r0, r0, r3
 108              	.LVL9:
  74:..\..\mruby_c2\Design01.cydsn/vm.c ****   }
 109              		.loc 1 74 0
 110 0030 0139     		subs	r1, r1, #1
 111              	.LVL10:
 112              	.L7:
 113              	.LBE44:
  71:..\..\mruby_c2\Design01.cydsn/vm.c ****     uint16_t s = bin_to_uint16(p);
 114              		.loc 1 71 0
 115 0032 0029     		cmp	r1, #0
 116 0034 F5DC     		bgt	.L8
  76:..\..\mruby_c2\Design01.cydsn/vm.c **** }
 117              		.loc 1 76 0
 118 0036 0230     		adds	r0, r0, #2
 119              	.LVL11:
 120 0038 00E0     		b	.L6
 121              	.LVL12:
 122              	.L9:
  69:..\..\mruby_c2\Design01.cydsn/vm.c ****   p += 4;
 123              		.loc 1 69 0
 124 003a 0020     		movs	r0, #0
 125              	.LVL13:
 126              	.L6:
  77:..\..\mruby_c2\Design01.cydsn/vm.c **** 
 127              		.loc 1 77 0
 128 003c 10BC     		pop	{r4}
 129              		.cfi_restore 4
 130              		.cfi_def_cfa_offset 0
 131              	.LVL14:
 132 003e 7047     		bx	lr
 133              		.cfi_endproc
 134              	.LFE91:
 135              		.size	mrbc_get_irep_symbol, .-mrbc_get_irep_symbol
 136              		.section	.text.mrbc_get_callee_name,"ax",%progbits
 137              		.align	2
 138              		.global	mrbc_get_callee_name
 139              		.thumb
 140              		.thumb_func
 141              		.type	mrbc_get_callee_name, %function
 142              	mrbc_get_callee_name:
 143              	.LFB92:
  87:..\..\mruby_c2\Design01.cydsn/vm.c ****   uint32_t code = bin_to_uint32(vm->pc_irep->code + (vm->pc - 1) * 4);
 144              		.loc 1 87 0
 145              		.cfi_startproc
 146              		@ args = 0, pretend = 0, frame = 0
 147              		@ frame_needed = 0, uses_anonymous_args = 0
ARM GAS  C:\Users\164\AppData\Local\Temp\cc4PZf78.s 			page 8


 148              	.LVL15:
 149 0000 08B5     		push	{r3, lr}
 150              		.cfi_def_cfa_offset 8
 151              		.cfi_offset 3, -8
 152              		.cfi_offset 14, -4
  88:..\..\mruby_c2\Design01.cydsn/vm.c ****   int rb = GETARG_B(code);  // index of method sym
 153              		.loc 1 88 0
 154 0002 C268     		ldr	r2, [r0, #12]
 155 0004 D168     		ldr	r1, [r2, #12]
 156 0006 038A     		ldrh	r3, [r0, #16]
 157 0008 013B     		subs	r3, r3, #1
 158              	.LVL16:
 159              	.LBB47:
 160              	.LBB48:
 119:..\..\mruby_c2\Design01.cydsn/vm.h ****   return (x << 24) | ((x & 0xff00) << 8) | ((x >> 8) & 0xff00) | (x >> 24);
 161              		.loc 2 119 0
 162 000a 51F82330 		ldr	r3, [r1, r3, lsl #2]
 163              	.LVL17:
 120:..\..\mruby_c2\Design01.cydsn/vm.h **** #endif
 164              		.loc 2 120 0
 165 000e 1902     		lsls	r1, r3, #8
 166              	.LVL18:
 167 0010 01F47F01 		and	r1, r1, #16711680
 168 0014 41EA0361 		orr	r1, r1, r3, lsl #24
 169 0018 1B0A     		lsrs	r3, r3, #8
 170              	.LVL19:
 171 001a 03F47F43 		and	r3, r3, #65280
 172 001e 1943     		orrs	r1, r1, r3
 173              	.LVL20:
 174              	.LBE48:
 175              	.LBE47:
  90:..\..\mruby_c2\Design01.cydsn/vm.c **** }
 176              		.loc 1 90 0
 177 0020 C1F38831 		ubfx	r1, r1, #14, #9
 178              	.LVL21:
 179 0024 5069     		ldr	r0, [r2, #20]
 180              	.LVL22:
 181 0026 FFF7FEFF 		bl	mrbc_get_irep_symbol
 182              	.LVL23:
  91:..\..\mruby_c2\Design01.cydsn/vm.c **** 
 183              		.loc 1 91 0
 184 002a 08BD     		pop	{r3, pc}
 185              		.cfi_endproc
 186              	.LFE92:
 187              		.size	mrbc_get_callee_name, .-mrbc_get_callee_name
 188              		.section	.text.mrbc_push_callinfo,"ax",%progbits
 189              		.align	2
 190              		.global	mrbc_push_callinfo
 191              		.thumb
 192              		.thumb_func
 193              		.type	mrbc_push_callinfo, %function
 194              	mrbc_push_callinfo:
 195              	.LFB94:
 101:..\..\mruby_c2\Design01.cydsn/vm.c **** }
 102:..\..\mruby_c2\Design01.cydsn/vm.c **** 
 103:..\..\mruby_c2\Design01.cydsn/vm.c **** 
 104:..\..\mruby_c2\Design01.cydsn/vm.c **** 
ARM GAS  C:\Users\164\AppData\Local\Temp\cc4PZf78.s 			page 9


 105:..\..\mruby_c2\Design01.cydsn/vm.c **** //================================================================
 106:..\..\mruby_c2\Design01.cydsn/vm.c **** /*!@brief
 107:..\..\mruby_c2\Design01.cydsn/vm.c ****   Push current status to callinfo stack
 108:..\..\mruby_c2\Design01.cydsn/vm.c **** 
 109:..\..\mruby_c2\Design01.cydsn/vm.c **** */
 110:..\..\mruby_c2\Design01.cydsn/vm.c **** void mrbc_push_callinfo(mrb_vm *vm, int n_args)
 111:..\..\mruby_c2\Design01.cydsn/vm.c **** {
 196              		.loc 1 111 0
 197              		.cfi_startproc
 198              		@ args = 0, pretend = 0, frame = 0
 199              		@ frame_needed = 0, uses_anonymous_args = 0
 200              		@ link register save eliminated.
 201              	.LVL24:
 202 0000 30B4     		push	{r4, r5}
 203              		.cfi_def_cfa_offset 8
 204              		.cfi_offset 4, -8
 205              		.cfi_offset 5, -4
 112:..\..\mruby_c2\Design01.cydsn/vm.c ****   mrb_callinfo *callinfo = vm->callinfo + vm->callinfo_top;
 206              		.loc 1 112 0
 207 0002 00F5CC64 		add	r4, r0, #1632
 208 0006 B0F85C36 		ldrh	r3, [r0, #1628]
 209 000a 03EB8303 		add	r3, r3, r3, lsl #2
 210 000e 9A00     		lsls	r2, r3, #2
 211 0010 A318     		adds	r3, r4, r2
 212              	.LVL25:
 113:..\..\mruby_c2\Design01.cydsn/vm.c ****   callinfo->current_regs = vm->current_regs;
 213              		.loc 1 113 0
 214 0012 D0F85856 		ldr	r5, [r0, #1624]
 215 0016 9D60     		str	r5, [r3, #8]
 114:..\..\mruby_c2\Design01.cydsn/vm.c ****   callinfo->pc_irep = vm->pc_irep;
 216              		.loc 1 114 0
 217 0018 C568     		ldr	r5, [r0, #12]
 218 001a A550     		str	r5, [r4, r2]
 115:..\..\mruby_c2\Design01.cydsn/vm.c ****   callinfo->pc = vm->pc;
 219              		.loc 1 115 0
 220 001c 028A     		ldrh	r2, [r0, #16]
 221 001e 9A80     		strh	r2, [r3, #4]	@ movhi
 116:..\..\mruby_c2\Design01.cydsn/vm.c ****   callinfo->n_args = n_args;
 222              		.loc 1 116 0
 223 0020 1974     		strb	r1, [r3, #16]
 117:..\..\mruby_c2\Design01.cydsn/vm.c ****   callinfo->target_class = vm->target_class;
 224              		.loc 1 117 0
 225 0022 D0F8302E 		ldr	r2, [r0, #3632]
 226 0026 DA60     		str	r2, [r3, #12]
 118:..\..\mruby_c2\Design01.cydsn/vm.c ****   vm->callinfo_top++;
 227              		.loc 1 118 0
 228 0028 B0F85C36 		ldrh	r3, [r0, #1628]
 229              	.LVL26:
 230 002c 0133     		adds	r3, r3, #1
 231 002e A0F85C36 		strh	r3, [r0, #1628]	@ movhi
 119:..\..\mruby_c2\Design01.cydsn/vm.c **** }
 232              		.loc 1 119 0
 233 0032 30BC     		pop	{r4, r5}
 234              		.cfi_restore 5
 235              		.cfi_restore 4
 236              		.cfi_def_cfa_offset 0
 237 0034 7047     		bx	lr
ARM GAS  C:\Users\164\AppData\Local\Temp\cc4PZf78.s 			page 10


 238              		.cfi_endproc
 239              	.LFE94:
 240              		.size	mrbc_push_callinfo, .-mrbc_push_callinfo
 241 0036 00BF     		.section	.text.mrbc_pop_callinfo,"ax",%progbits
 242              		.align	2
 243              		.global	mrbc_pop_callinfo
 244              		.thumb
 245              		.thumb_func
 246              		.type	mrbc_pop_callinfo, %function
 247              	mrbc_pop_callinfo:
 248              	.LFB95:
 120:..\..\mruby_c2\Design01.cydsn/vm.c **** 
 121:..\..\mruby_c2\Design01.cydsn/vm.c **** 
 122:..\..\mruby_c2\Design01.cydsn/vm.c **** 
 123:..\..\mruby_c2\Design01.cydsn/vm.c **** //================================================================
 124:..\..\mruby_c2\Design01.cydsn/vm.c **** /*!@brief
 125:..\..\mruby_c2\Design01.cydsn/vm.c ****   Push current status to callinfo stack
 126:..\..\mruby_c2\Design01.cydsn/vm.c **** 
 127:..\..\mruby_c2\Design01.cydsn/vm.c **** */
 128:..\..\mruby_c2\Design01.cydsn/vm.c **** void mrbc_pop_callinfo(mrb_vm *vm)
 129:..\..\mruby_c2\Design01.cydsn/vm.c **** {
 249              		.loc 1 129 0
 250              		.cfi_startproc
 251              		@ args = 0, pretend = 0, frame = 0
 252              		@ frame_needed = 0, uses_anonymous_args = 0
 253              		@ link register save eliminated.
 254              	.LVL27:
 255 0000 10B4     		push	{r4}
 256              		.cfi_def_cfa_offset 4
 257              		.cfi_offset 4, -4
 130:..\..\mruby_c2\Design01.cydsn/vm.c ****   vm->callinfo_top--;
 258              		.loc 1 130 0
 259 0002 B0F85C36 		ldrh	r3, [r0, #1628]
 260 0006 013B     		subs	r3, r3, #1
 261 0008 9BB2     		uxth	r3, r3
 262 000a A0F85C36 		strh	r3, [r0, #1628]	@ movhi
 131:..\..\mruby_c2\Design01.cydsn/vm.c ****   mrb_callinfo *callinfo = vm->callinfo + vm->callinfo_top;
 263              		.loc 1 131 0
 264 000e 00F5CC61 		add	r1, r0, #1632
 265 0012 03EB8303 		add	r3, r3, r3, lsl #2
 266 0016 9A00     		lsls	r2, r3, #2
 267 0018 8B18     		adds	r3, r1, r2
 268              	.LVL28:
 132:..\..\mruby_c2\Design01.cydsn/vm.c ****   vm->current_regs = callinfo->current_regs;
 269              		.loc 1 132 0
 270 001a 9C68     		ldr	r4, [r3, #8]
 271 001c C0F85846 		str	r4, [r0, #1624]
 133:..\..\mruby_c2\Design01.cydsn/vm.c ****   vm->pc_irep = callinfo->pc_irep;
 272              		.loc 1 133 0
 273 0020 8A58     		ldr	r2, [r1, r2]
 274 0022 C260     		str	r2, [r0, #12]
 134:..\..\mruby_c2\Design01.cydsn/vm.c ****   vm->pc = callinfo->pc;
 275              		.loc 1 134 0
 276 0024 9A88     		ldrh	r2, [r3, #4]
 277 0026 0282     		strh	r2, [r0, #16]	@ movhi
 135:..\..\mruby_c2\Design01.cydsn/vm.c ****   vm->target_class = callinfo->target_class;
 278              		.loc 1 135 0
ARM GAS  C:\Users\164\AppData\Local\Temp\cc4PZf78.s 			page 11


 279 0028 DB68     		ldr	r3, [r3, #12]
 280              	.LVL29:
 281 002a C0F8303E 		str	r3, [r0, #3632]
 136:..\..\mruby_c2\Design01.cydsn/vm.c **** }
 282              		.loc 1 136 0
 283 002e 10BC     		pop	{r4}
 284              		.cfi_restore 4
 285              		.cfi_def_cfa_offset 0
 286 0030 7047     		bx	lr
 287              		.cfi_endproc
 288              	.LFE95:
 289              		.size	mrbc_pop_callinfo, .-mrbc_pop_callinfo
 290 0032 00BF     		.section	.text.mrbc_vm_open,"ax",%progbits
 291              		.align	2
 292              		.global	mrbc_vm_open
 293              		.thumb
 294              		.thumb_func
 295              		.type	mrbc_vm_open, %function
 296              	mrbc_vm_open:
 297              	.LFB142:
 137:..\..\mruby_c2\Design01.cydsn/vm.c **** 
 138:..\..\mruby_c2\Design01.cydsn/vm.c **** 
 139:..\..\mruby_c2\Design01.cydsn/vm.c **** 
 140:..\..\mruby_c2\Design01.cydsn/vm.c **** //================================================================
 141:..\..\mruby_c2\Design01.cydsn/vm.c **** /*!@brief
 142:..\..\mruby_c2\Design01.cydsn/vm.c ****   Execute OP_NOP
 143:..\..\mruby_c2\Design01.cydsn/vm.c **** 
 144:..\..\mruby_c2\Design01.cydsn/vm.c ****   No operation
 145:..\..\mruby_c2\Design01.cydsn/vm.c **** 
 146:..\..\mruby_c2\Design01.cydsn/vm.c ****   @param  vm    A pointer of VM.
 147:..\..\mruby_c2\Design01.cydsn/vm.c ****   @param  code  bytecode
 148:..\..\mruby_c2\Design01.cydsn/vm.c ****   @param  regs  vm->regs + vm->reg_top
 149:..\..\mruby_c2\Design01.cydsn/vm.c ****   @retval 0  No error.
 150:..\..\mruby_c2\Design01.cydsn/vm.c **** */
 151:..\..\mruby_c2\Design01.cydsn/vm.c **** inline static int op_nop( mrb_vm *vm, uint32_t code, mrb_value *regs )
 152:..\..\mruby_c2\Design01.cydsn/vm.c **** {
 153:..\..\mruby_c2\Design01.cydsn/vm.c ****   return 0;
 154:..\..\mruby_c2\Design01.cydsn/vm.c **** }
 155:..\..\mruby_c2\Design01.cydsn/vm.c **** 
 156:..\..\mruby_c2\Design01.cydsn/vm.c **** 
 157:..\..\mruby_c2\Design01.cydsn/vm.c **** //================================================================
 158:..\..\mruby_c2\Design01.cydsn/vm.c **** /*!@brief
 159:..\..\mruby_c2\Design01.cydsn/vm.c ****   Execute OP_MOVE
 160:..\..\mruby_c2\Design01.cydsn/vm.c **** 
 161:..\..\mruby_c2\Design01.cydsn/vm.c ****   R(A) := R(B)
 162:..\..\mruby_c2\Design01.cydsn/vm.c **** 
 163:..\..\mruby_c2\Design01.cydsn/vm.c ****   @param  vm    A pointer of VM.
 164:..\..\mruby_c2\Design01.cydsn/vm.c ****   @param  code  bytecode
 165:..\..\mruby_c2\Design01.cydsn/vm.c ****   @param  regs  vm->regs + vm->reg_top
 166:..\..\mruby_c2\Design01.cydsn/vm.c ****   @retval 0  No error.
 167:..\..\mruby_c2\Design01.cydsn/vm.c **** */
 168:..\..\mruby_c2\Design01.cydsn/vm.c **** inline static int op_move( mrb_vm *vm, uint32_t code, mrb_value *regs )
 169:..\..\mruby_c2\Design01.cydsn/vm.c **** {
 170:..\..\mruby_c2\Design01.cydsn/vm.c ****   int ra = GETARG_A(code);
 171:..\..\mruby_c2\Design01.cydsn/vm.c ****   int rb = GETARG_B(code);
 172:..\..\mruby_c2\Design01.cydsn/vm.c **** 
 173:..\..\mruby_c2\Design01.cydsn/vm.c ****   mrbc_release(&regs[ra]);
ARM GAS  C:\Users\164\AppData\Local\Temp\cc4PZf78.s 			page 12


 174:..\..\mruby_c2\Design01.cydsn/vm.c ****   mrbc_dup(&regs[rb]);
 175:..\..\mruby_c2\Design01.cydsn/vm.c ****   regs[ra] = regs[rb];
 176:..\..\mruby_c2\Design01.cydsn/vm.c **** 
 177:..\..\mruby_c2\Design01.cydsn/vm.c ****   return 0;
 178:..\..\mruby_c2\Design01.cydsn/vm.c **** }
 179:..\..\mruby_c2\Design01.cydsn/vm.c **** 
 180:..\..\mruby_c2\Design01.cydsn/vm.c **** 
 181:..\..\mruby_c2\Design01.cydsn/vm.c **** //================================================================
 182:..\..\mruby_c2\Design01.cydsn/vm.c **** /*!@brief
 183:..\..\mruby_c2\Design01.cydsn/vm.c ****   Execute OP_LOADL
 184:..\..\mruby_c2\Design01.cydsn/vm.c **** 
 185:..\..\mruby_c2\Design01.cydsn/vm.c ****   R(A) := Pool(Bx)
 186:..\..\mruby_c2\Design01.cydsn/vm.c **** 
 187:..\..\mruby_c2\Design01.cydsn/vm.c ****   @param  vm    A pointer of VM.
 188:..\..\mruby_c2\Design01.cydsn/vm.c ****   @param  code  bytecode
 189:..\..\mruby_c2\Design01.cydsn/vm.c ****   @param  regs  vm->regs + vm->reg_top
 190:..\..\mruby_c2\Design01.cydsn/vm.c ****   @retval 0  No error.
 191:..\..\mruby_c2\Design01.cydsn/vm.c **** */
 192:..\..\mruby_c2\Design01.cydsn/vm.c **** inline static int op_loadl( mrb_vm *vm, uint32_t code, mrb_value *regs )
 193:..\..\mruby_c2\Design01.cydsn/vm.c **** {
 194:..\..\mruby_c2\Design01.cydsn/vm.c ****   int ra = GETARG_A(code);
 195:..\..\mruby_c2\Design01.cydsn/vm.c ****   int rb = GETARG_Bx(code);
 196:..\..\mruby_c2\Design01.cydsn/vm.c **** 
 197:..\..\mruby_c2\Design01.cydsn/vm.c ****   mrbc_release(&regs[ra]);
 198:..\..\mruby_c2\Design01.cydsn/vm.c **** 
 199:..\..\mruby_c2\Design01.cydsn/vm.c ****   // regs[ra] = vm->pc_irep->pools[rb];
 200:..\..\mruby_c2\Design01.cydsn/vm.c **** 
 201:..\..\mruby_c2\Design01.cydsn/vm.c ****   mrb_object *pool_obj = vm->pc_irep->pools[rb];
 202:..\..\mruby_c2\Design01.cydsn/vm.c ****   regs[ra] = *pool_obj;
 203:..\..\mruby_c2\Design01.cydsn/vm.c **** 
 204:..\..\mruby_c2\Design01.cydsn/vm.c ****   return 0;
 205:..\..\mruby_c2\Design01.cydsn/vm.c **** }
 206:..\..\mruby_c2\Design01.cydsn/vm.c **** 
 207:..\..\mruby_c2\Design01.cydsn/vm.c **** 
 208:..\..\mruby_c2\Design01.cydsn/vm.c **** //================================================================
 209:..\..\mruby_c2\Design01.cydsn/vm.c **** /*!@brief
 210:..\..\mruby_c2\Design01.cydsn/vm.c ****   Execute OP_LOADI
 211:..\..\mruby_c2\Design01.cydsn/vm.c **** 
 212:..\..\mruby_c2\Design01.cydsn/vm.c ****   R(A) := sBx
 213:..\..\mruby_c2\Design01.cydsn/vm.c **** 
 214:..\..\mruby_c2\Design01.cydsn/vm.c ****   @param  vm    A pointer of VM.
 215:..\..\mruby_c2\Design01.cydsn/vm.c ****   @param  code  bytecode
 216:..\..\mruby_c2\Design01.cydsn/vm.c ****   @param  regs  vm->regs + vm->reg_top
 217:..\..\mruby_c2\Design01.cydsn/vm.c ****   @retval 0  No error.
 218:..\..\mruby_c2\Design01.cydsn/vm.c **** */
 219:..\..\mruby_c2\Design01.cydsn/vm.c **** inline static int op_loadi( mrb_vm *vm, uint32_t code, mrb_value *regs )
 220:..\..\mruby_c2\Design01.cydsn/vm.c **** {
 221:..\..\mruby_c2\Design01.cydsn/vm.c ****   int ra = GETARG_A(code);
 222:..\..\mruby_c2\Design01.cydsn/vm.c **** 
 223:..\..\mruby_c2\Design01.cydsn/vm.c ****   mrbc_release(&regs[ra]);
 224:..\..\mruby_c2\Design01.cydsn/vm.c ****   regs[ra].tt = MRB_TT_FIXNUM;
 225:..\..\mruby_c2\Design01.cydsn/vm.c ****   regs[ra].i = GETARG_sBx(code);
 226:..\..\mruby_c2\Design01.cydsn/vm.c **** 
 227:..\..\mruby_c2\Design01.cydsn/vm.c ****   return 0;
 228:..\..\mruby_c2\Design01.cydsn/vm.c **** }
 229:..\..\mruby_c2\Design01.cydsn/vm.c **** 
 230:..\..\mruby_c2\Design01.cydsn/vm.c **** 
ARM GAS  C:\Users\164\AppData\Local\Temp\cc4PZf78.s 			page 13


 231:..\..\mruby_c2\Design01.cydsn/vm.c **** //================================================================
 232:..\..\mruby_c2\Design01.cydsn/vm.c **** /*!@brief
 233:..\..\mruby_c2\Design01.cydsn/vm.c ****   Execute OP_LOADSYM
 234:..\..\mruby_c2\Design01.cydsn/vm.c **** 
 235:..\..\mruby_c2\Design01.cydsn/vm.c ****   R(A) := Syms(Bx)
 236:..\..\mruby_c2\Design01.cydsn/vm.c **** 
 237:..\..\mruby_c2\Design01.cydsn/vm.c ****   @param  vm    A pointer of VM.
 238:..\..\mruby_c2\Design01.cydsn/vm.c ****   @param  code  bytecode
 239:..\..\mruby_c2\Design01.cydsn/vm.c ****   @param  regs  vm->regs + vm->reg_top
 240:..\..\mruby_c2\Design01.cydsn/vm.c ****   @retval 0  No error.
 241:..\..\mruby_c2\Design01.cydsn/vm.c **** */
 242:..\..\mruby_c2\Design01.cydsn/vm.c **** inline static int op_loadsym( mrb_vm *vm, uint32_t code, mrb_value *regs )
 243:..\..\mruby_c2\Design01.cydsn/vm.c **** {
 244:..\..\mruby_c2\Design01.cydsn/vm.c ****   int ra = GETARG_A(code);
 245:..\..\mruby_c2\Design01.cydsn/vm.c ****   int rb = GETARG_Bx(code);
 246:..\..\mruby_c2\Design01.cydsn/vm.c ****   const char *sym_name = mrbc_get_irep_symbol(vm->pc_irep->ptr_to_sym, rb);
 247:..\..\mruby_c2\Design01.cydsn/vm.c ****   mrb_sym sym_id = str_to_symid(sym_name);
 248:..\..\mruby_c2\Design01.cydsn/vm.c **** 
 249:..\..\mruby_c2\Design01.cydsn/vm.c ****   mrbc_release(&regs[ra]);
 250:..\..\mruby_c2\Design01.cydsn/vm.c ****   regs[ra].tt = MRB_TT_SYMBOL;
 251:..\..\mruby_c2\Design01.cydsn/vm.c ****   regs[ra].i = sym_id;
 252:..\..\mruby_c2\Design01.cydsn/vm.c **** 
 253:..\..\mruby_c2\Design01.cydsn/vm.c ****   return 0;
 254:..\..\mruby_c2\Design01.cydsn/vm.c **** }
 255:..\..\mruby_c2\Design01.cydsn/vm.c **** 
 256:..\..\mruby_c2\Design01.cydsn/vm.c **** 
 257:..\..\mruby_c2\Design01.cydsn/vm.c **** //================================================================
 258:..\..\mruby_c2\Design01.cydsn/vm.c **** /*!@brief
 259:..\..\mruby_c2\Design01.cydsn/vm.c ****   Execute OP_LOADNIL
 260:..\..\mruby_c2\Design01.cydsn/vm.c **** 
 261:..\..\mruby_c2\Design01.cydsn/vm.c ****   R(A) := nil
 262:..\..\mruby_c2\Design01.cydsn/vm.c **** 
 263:..\..\mruby_c2\Design01.cydsn/vm.c ****   @param  vm    A pointer of VM.
 264:..\..\mruby_c2\Design01.cydsn/vm.c ****   @param  code  bytecode
 265:..\..\mruby_c2\Design01.cydsn/vm.c ****   @param  regs  vm->regs + vm->reg_top
 266:..\..\mruby_c2\Design01.cydsn/vm.c ****   @retval 0  No error.
 267:..\..\mruby_c2\Design01.cydsn/vm.c **** */
 268:..\..\mruby_c2\Design01.cydsn/vm.c **** inline static int op_loadnil( mrb_vm *vm, uint32_t code, mrb_value *regs )
 269:..\..\mruby_c2\Design01.cydsn/vm.c **** {
 270:..\..\mruby_c2\Design01.cydsn/vm.c ****   int ra = GETARG_A(code);
 271:..\..\mruby_c2\Design01.cydsn/vm.c **** 
 272:..\..\mruby_c2\Design01.cydsn/vm.c ****   mrbc_release(&regs[ra]);
 273:..\..\mruby_c2\Design01.cydsn/vm.c ****   regs[ra].tt = MRB_TT_NIL;
 274:..\..\mruby_c2\Design01.cydsn/vm.c **** 
 275:..\..\mruby_c2\Design01.cydsn/vm.c ****   return 0;
 276:..\..\mruby_c2\Design01.cydsn/vm.c **** }
 277:..\..\mruby_c2\Design01.cydsn/vm.c **** 
 278:..\..\mruby_c2\Design01.cydsn/vm.c **** 
 279:..\..\mruby_c2\Design01.cydsn/vm.c **** //================================================================
 280:..\..\mruby_c2\Design01.cydsn/vm.c **** /*!@brief
 281:..\..\mruby_c2\Design01.cydsn/vm.c ****   Execute OP_LOADSELF
 282:..\..\mruby_c2\Design01.cydsn/vm.c **** 
 283:..\..\mruby_c2\Design01.cydsn/vm.c ****   R(A) := self
 284:..\..\mruby_c2\Design01.cydsn/vm.c **** 
 285:..\..\mruby_c2\Design01.cydsn/vm.c ****   @param  vm    A pointer of VM.
 286:..\..\mruby_c2\Design01.cydsn/vm.c ****   @param  code  bytecode
 287:..\..\mruby_c2\Design01.cydsn/vm.c ****   @param  regs  vm->regs + vm->reg_top
ARM GAS  C:\Users\164\AppData\Local\Temp\cc4PZf78.s 			page 14


 288:..\..\mruby_c2\Design01.cydsn/vm.c ****   @retval 0  No error.
 289:..\..\mruby_c2\Design01.cydsn/vm.c **** */
 290:..\..\mruby_c2\Design01.cydsn/vm.c **** inline static int op_loadself( mrb_vm *vm, uint32_t code, mrb_value *regs )
 291:..\..\mruby_c2\Design01.cydsn/vm.c **** {
 292:..\..\mruby_c2\Design01.cydsn/vm.c ****   int ra = GETARG_A(code);
 293:..\..\mruby_c2\Design01.cydsn/vm.c **** 
 294:..\..\mruby_c2\Design01.cydsn/vm.c ****   mrbc_release(&regs[ra]);
 295:..\..\mruby_c2\Design01.cydsn/vm.c ****   mrbc_dup(&regs[0]);       // TODO: Need?
 296:..\..\mruby_c2\Design01.cydsn/vm.c ****   regs[ra] = regs[0];
 297:..\..\mruby_c2\Design01.cydsn/vm.c **** 
 298:..\..\mruby_c2\Design01.cydsn/vm.c ****   return 0;
 299:..\..\mruby_c2\Design01.cydsn/vm.c **** }
 300:..\..\mruby_c2\Design01.cydsn/vm.c **** 
 301:..\..\mruby_c2\Design01.cydsn/vm.c **** 
 302:..\..\mruby_c2\Design01.cydsn/vm.c **** //================================================================
 303:..\..\mruby_c2\Design01.cydsn/vm.c **** /*!@brief
 304:..\..\mruby_c2\Design01.cydsn/vm.c ****   Execute OP_LOADT
 305:..\..\mruby_c2\Design01.cydsn/vm.c **** 
 306:..\..\mruby_c2\Design01.cydsn/vm.c ****   R(A) := true
 307:..\..\mruby_c2\Design01.cydsn/vm.c **** 
 308:..\..\mruby_c2\Design01.cydsn/vm.c ****   @param  vm    A pointer of VM.
 309:..\..\mruby_c2\Design01.cydsn/vm.c ****   @param  code  bytecode
 310:..\..\mruby_c2\Design01.cydsn/vm.c ****   @param  regs  vm->regs + vm->reg_top
 311:..\..\mruby_c2\Design01.cydsn/vm.c ****   @retval 0  No error.
 312:..\..\mruby_c2\Design01.cydsn/vm.c **** */
 313:..\..\mruby_c2\Design01.cydsn/vm.c **** inline static int op_loadt( mrb_vm *vm, uint32_t code, mrb_value *regs )
 314:..\..\mruby_c2\Design01.cydsn/vm.c **** {
 315:..\..\mruby_c2\Design01.cydsn/vm.c ****   int ra = GETARG_A(code);
 316:..\..\mruby_c2\Design01.cydsn/vm.c **** 
 317:..\..\mruby_c2\Design01.cydsn/vm.c ****   mrbc_release(&regs[ra]);
 318:..\..\mruby_c2\Design01.cydsn/vm.c ****   regs[ra].tt = MRB_TT_TRUE;
 319:..\..\mruby_c2\Design01.cydsn/vm.c **** 
 320:..\..\mruby_c2\Design01.cydsn/vm.c ****   return 0;
 321:..\..\mruby_c2\Design01.cydsn/vm.c **** }
 322:..\..\mruby_c2\Design01.cydsn/vm.c **** 
 323:..\..\mruby_c2\Design01.cydsn/vm.c **** 
 324:..\..\mruby_c2\Design01.cydsn/vm.c **** //================================================================
 325:..\..\mruby_c2\Design01.cydsn/vm.c **** /*!@brief
 326:..\..\mruby_c2\Design01.cydsn/vm.c ****   Execute OP_LOADF
 327:..\..\mruby_c2\Design01.cydsn/vm.c **** 
 328:..\..\mruby_c2\Design01.cydsn/vm.c ****   R(A) := false
 329:..\..\mruby_c2\Design01.cydsn/vm.c **** 
 330:..\..\mruby_c2\Design01.cydsn/vm.c ****   @param  vm    A pointer of VM.
 331:..\..\mruby_c2\Design01.cydsn/vm.c ****   @param  code  bytecode
 332:..\..\mruby_c2\Design01.cydsn/vm.c ****   @param  regs  vm->regs + vm->reg_top
 333:..\..\mruby_c2\Design01.cydsn/vm.c ****   @retval 0  No error.
 334:..\..\mruby_c2\Design01.cydsn/vm.c **** */
 335:..\..\mruby_c2\Design01.cydsn/vm.c **** inline static int op_loadf( mrb_vm *vm, uint32_t code, mrb_value *regs )
 336:..\..\mruby_c2\Design01.cydsn/vm.c **** {
 337:..\..\mruby_c2\Design01.cydsn/vm.c ****   int ra = GETARG_A(code);
 338:..\..\mruby_c2\Design01.cydsn/vm.c **** 
 339:..\..\mruby_c2\Design01.cydsn/vm.c ****   mrbc_release(&regs[ra]);
 340:..\..\mruby_c2\Design01.cydsn/vm.c ****   regs[ra].tt = MRB_TT_FALSE;
 341:..\..\mruby_c2\Design01.cydsn/vm.c **** 
 342:..\..\mruby_c2\Design01.cydsn/vm.c ****   return 0;
 343:..\..\mruby_c2\Design01.cydsn/vm.c **** }
 344:..\..\mruby_c2\Design01.cydsn/vm.c **** 
ARM GAS  C:\Users\164\AppData\Local\Temp\cc4PZf78.s 			page 15


 345:..\..\mruby_c2\Design01.cydsn/vm.c **** 
 346:..\..\mruby_c2\Design01.cydsn/vm.c **** //================================================================
 347:..\..\mruby_c2\Design01.cydsn/vm.c **** /*!@brief
 348:..\..\mruby_c2\Design01.cydsn/vm.c ****   Execute OP_GETGLOBAL
 349:..\..\mruby_c2\Design01.cydsn/vm.c **** 
 350:..\..\mruby_c2\Design01.cydsn/vm.c ****   R(A) := getglobal(Syms(Bx))
 351:..\..\mruby_c2\Design01.cydsn/vm.c **** 
 352:..\..\mruby_c2\Design01.cydsn/vm.c ****   @param  vm    A pointer of VM.
 353:..\..\mruby_c2\Design01.cydsn/vm.c ****   @param  code  bytecode
 354:..\..\mruby_c2\Design01.cydsn/vm.c ****   @param  regs  vm->regs + vm->reg_top
 355:..\..\mruby_c2\Design01.cydsn/vm.c ****   @retval 0  No error.
 356:..\..\mruby_c2\Design01.cydsn/vm.c **** */
 357:..\..\mruby_c2\Design01.cydsn/vm.c **** inline static int op_getglobal( mrb_vm *vm, uint32_t code, mrb_value *regs )
 358:..\..\mruby_c2\Design01.cydsn/vm.c **** {
 359:..\..\mruby_c2\Design01.cydsn/vm.c ****   int ra = GETARG_A(code);
 360:..\..\mruby_c2\Design01.cydsn/vm.c ****   int rb = GETARG_Bx(code);
 361:..\..\mruby_c2\Design01.cydsn/vm.c ****   const char *sym_name = mrbc_get_irep_symbol(vm->pc_irep->ptr_to_sym, rb);
 362:..\..\mruby_c2\Design01.cydsn/vm.c ****   mrb_sym sym_id = str_to_symid(sym_name);
 363:..\..\mruby_c2\Design01.cydsn/vm.c **** 
 364:..\..\mruby_c2\Design01.cydsn/vm.c ****   mrbc_release(&regs[ra]);
 365:..\..\mruby_c2\Design01.cydsn/vm.c ****   regs[ra] = global_object_get(sym_id);
 366:..\..\mruby_c2\Design01.cydsn/vm.c **** 
 367:..\..\mruby_c2\Design01.cydsn/vm.c ****   return 0;
 368:..\..\mruby_c2\Design01.cydsn/vm.c **** }
 369:..\..\mruby_c2\Design01.cydsn/vm.c **** 
 370:..\..\mruby_c2\Design01.cydsn/vm.c **** 
 371:..\..\mruby_c2\Design01.cydsn/vm.c **** //================================================================
 372:..\..\mruby_c2\Design01.cydsn/vm.c **** /*!@brief
 373:..\..\mruby_c2\Design01.cydsn/vm.c ****   Execute OP_SETGLOBAL
 374:..\..\mruby_c2\Design01.cydsn/vm.c **** 
 375:..\..\mruby_c2\Design01.cydsn/vm.c ****   setglobal(Syms(Bx), R(A))
 376:..\..\mruby_c2\Design01.cydsn/vm.c **** 
 377:..\..\mruby_c2\Design01.cydsn/vm.c ****   @param  vm    A pointer of VM.
 378:..\..\mruby_c2\Design01.cydsn/vm.c ****   @param  code  bytecode
 379:..\..\mruby_c2\Design01.cydsn/vm.c ****   @param  regs  vm->regs + vm->reg_top
 380:..\..\mruby_c2\Design01.cydsn/vm.c ****   @retval 0  No error.
 381:..\..\mruby_c2\Design01.cydsn/vm.c **** */
 382:..\..\mruby_c2\Design01.cydsn/vm.c **** inline static int op_setglobal( mrb_vm *vm, uint32_t code, mrb_value *regs )
 383:..\..\mruby_c2\Design01.cydsn/vm.c **** {
 384:..\..\mruby_c2\Design01.cydsn/vm.c ****   int ra = GETARG_A(code);
 385:..\..\mruby_c2\Design01.cydsn/vm.c ****   int rb = GETARG_Bx(code);
 386:..\..\mruby_c2\Design01.cydsn/vm.c ****   const char *sym_name = mrbc_get_irep_symbol(vm->pc_irep->ptr_to_sym, rb);
 387:..\..\mruby_c2\Design01.cydsn/vm.c ****   mrb_sym sym_id = str_to_symid(sym_name);
 388:..\..\mruby_c2\Design01.cydsn/vm.c ****   global_object_add(sym_id, regs[ra]);
 389:..\..\mruby_c2\Design01.cydsn/vm.c **** 
 390:..\..\mruby_c2\Design01.cydsn/vm.c ****   return 0;
 391:..\..\mruby_c2\Design01.cydsn/vm.c **** }
 392:..\..\mruby_c2\Design01.cydsn/vm.c **** 
 393:..\..\mruby_c2\Design01.cydsn/vm.c **** 
 394:..\..\mruby_c2\Design01.cydsn/vm.c **** //================================================================
 395:..\..\mruby_c2\Design01.cydsn/vm.c **** /*!@brief
 396:..\..\mruby_c2\Design01.cydsn/vm.c ****   Execute OP_GETIV
 397:..\..\mruby_c2\Design01.cydsn/vm.c **** 
 398:..\..\mruby_c2\Design01.cydsn/vm.c ****   R(A) := ivget(Syms(Bx))
 399:..\..\mruby_c2\Design01.cydsn/vm.c **** 
 400:..\..\mruby_c2\Design01.cydsn/vm.c ****   @param  vm    A pointer of VM.
 401:..\..\mruby_c2\Design01.cydsn/vm.c ****   @param  code  bytecode
ARM GAS  C:\Users\164\AppData\Local\Temp\cc4PZf78.s 			page 16


 402:..\..\mruby_c2\Design01.cydsn/vm.c ****   @param  regs  vm->regs + vm->reg_top
 403:..\..\mruby_c2\Design01.cydsn/vm.c ****   @retval 0  No error.
 404:..\..\mruby_c2\Design01.cydsn/vm.c **** */
 405:..\..\mruby_c2\Design01.cydsn/vm.c **** inline static int op_getiv( mrb_vm *vm, uint32_t code, mrb_value *regs )
 406:..\..\mruby_c2\Design01.cydsn/vm.c **** {
 407:..\..\mruby_c2\Design01.cydsn/vm.c ****   int ra = GETARG_A(code);
 408:..\..\mruby_c2\Design01.cydsn/vm.c ****   int rb = GETARG_Bx(code);
 409:..\..\mruby_c2\Design01.cydsn/vm.c **** 
 410:..\..\mruby_c2\Design01.cydsn/vm.c ****   const char *sym_name = mrbc_get_irep_symbol(vm->pc_irep->ptr_to_sym, rb);
 411:..\..\mruby_c2\Design01.cydsn/vm.c ****   mrb_sym sym_id = str_to_symid(sym_name+1);	// skip '@'
 412:..\..\mruby_c2\Design01.cydsn/vm.c **** 
 413:..\..\mruby_c2\Design01.cydsn/vm.c ****   mrb_value val = mrbc_instance_getiv(&regs[0], sym_id);
 414:..\..\mruby_c2\Design01.cydsn/vm.c **** 
 415:..\..\mruby_c2\Design01.cydsn/vm.c ****   mrbc_release(&regs[ra]);
 416:..\..\mruby_c2\Design01.cydsn/vm.c ****   regs[ra] = val;
 417:..\..\mruby_c2\Design01.cydsn/vm.c **** 
 418:..\..\mruby_c2\Design01.cydsn/vm.c ****   return 0;
 419:..\..\mruby_c2\Design01.cydsn/vm.c **** }
 420:..\..\mruby_c2\Design01.cydsn/vm.c **** 
 421:..\..\mruby_c2\Design01.cydsn/vm.c **** 
 422:..\..\mruby_c2\Design01.cydsn/vm.c **** //================================================================
 423:..\..\mruby_c2\Design01.cydsn/vm.c **** /*!@brief
 424:..\..\mruby_c2\Design01.cydsn/vm.c ****   Execute OP_SETIV
 425:..\..\mruby_c2\Design01.cydsn/vm.c **** 
 426:..\..\mruby_c2\Design01.cydsn/vm.c ****   ivset(Syms(Bx),R(A))
 427:..\..\mruby_c2\Design01.cydsn/vm.c **** 
 428:..\..\mruby_c2\Design01.cydsn/vm.c ****   @param  vm    A pointer of VM.
 429:..\..\mruby_c2\Design01.cydsn/vm.c ****   @param  code  bytecode
 430:..\..\mruby_c2\Design01.cydsn/vm.c ****   @param  regs  vm->regs + vm->reg_top
 431:..\..\mruby_c2\Design01.cydsn/vm.c ****   @retval 0  No error.
 432:..\..\mruby_c2\Design01.cydsn/vm.c **** */
 433:..\..\mruby_c2\Design01.cydsn/vm.c **** inline static int op_setiv( mrb_vm *vm, uint32_t code, mrb_value *regs )
 434:..\..\mruby_c2\Design01.cydsn/vm.c **** {
 435:..\..\mruby_c2\Design01.cydsn/vm.c ****   int ra = GETARG_A(code);
 436:..\..\mruby_c2\Design01.cydsn/vm.c ****   int rb = GETARG_Bx(code);
 437:..\..\mruby_c2\Design01.cydsn/vm.c **** 
 438:..\..\mruby_c2\Design01.cydsn/vm.c ****   const char *sym_name = mrbc_get_irep_symbol(vm->pc_irep->ptr_to_sym, rb);
 439:..\..\mruby_c2\Design01.cydsn/vm.c ****   mrb_sym sym_id = str_to_symid(sym_name+1);	// skip '@'
 440:..\..\mruby_c2\Design01.cydsn/vm.c **** 
 441:..\..\mruby_c2\Design01.cydsn/vm.c ****   mrbc_instance_setiv(&regs[0], sym_id, &regs[ra]);
 442:..\..\mruby_c2\Design01.cydsn/vm.c **** 
 443:..\..\mruby_c2\Design01.cydsn/vm.c ****   return 0;
 444:..\..\mruby_c2\Design01.cydsn/vm.c **** }
 445:..\..\mruby_c2\Design01.cydsn/vm.c **** 
 446:..\..\mruby_c2\Design01.cydsn/vm.c **** 
 447:..\..\mruby_c2\Design01.cydsn/vm.c **** //================================================================
 448:..\..\mruby_c2\Design01.cydsn/vm.c **** /*!@brief
 449:..\..\mruby_c2\Design01.cydsn/vm.c ****   Execute OP_GETCONST
 450:..\..\mruby_c2\Design01.cydsn/vm.c **** 
 451:..\..\mruby_c2\Design01.cydsn/vm.c ****   R(A) := constget(Syms(Bx))
 452:..\..\mruby_c2\Design01.cydsn/vm.c **** 
 453:..\..\mruby_c2\Design01.cydsn/vm.c ****   @param  vm    A pointer of VM.
 454:..\..\mruby_c2\Design01.cydsn/vm.c ****   @param  code  bytecode
 455:..\..\mruby_c2\Design01.cydsn/vm.c ****   @param  regs  vm->regs + vm->reg_top
 456:..\..\mruby_c2\Design01.cydsn/vm.c ****   @retval 0  No error.
 457:..\..\mruby_c2\Design01.cydsn/vm.c **** */
 458:..\..\mruby_c2\Design01.cydsn/vm.c **** inline static int op_getconst( mrb_vm *vm, uint32_t code, mrb_value *regs )
ARM GAS  C:\Users\164\AppData\Local\Temp\cc4PZf78.s 			page 17


 459:..\..\mruby_c2\Design01.cydsn/vm.c **** {
 460:..\..\mruby_c2\Design01.cydsn/vm.c ****   int ra = GETARG_A(code);
 461:..\..\mruby_c2\Design01.cydsn/vm.c ****   int rb = GETARG_Bx(code);
 462:..\..\mruby_c2\Design01.cydsn/vm.c ****   const char *sym_name = mrbc_get_irep_symbol(vm->pc_irep->ptr_to_sym, rb);
 463:..\..\mruby_c2\Design01.cydsn/vm.c ****   mrb_sym sym_id = str_to_symid(sym_name);
 464:..\..\mruby_c2\Design01.cydsn/vm.c **** 
 465:..\..\mruby_c2\Design01.cydsn/vm.c ****   mrbc_release(&regs[ra]);
 466:..\..\mruby_c2\Design01.cydsn/vm.c ****   regs[ra] = const_object_get(sym_id);
 467:..\..\mruby_c2\Design01.cydsn/vm.c **** 
 468:..\..\mruby_c2\Design01.cydsn/vm.c ****   return 0;
 469:..\..\mruby_c2\Design01.cydsn/vm.c **** }
 470:..\..\mruby_c2\Design01.cydsn/vm.c **** 
 471:..\..\mruby_c2\Design01.cydsn/vm.c **** 
 472:..\..\mruby_c2\Design01.cydsn/vm.c **** //================================================================
 473:..\..\mruby_c2\Design01.cydsn/vm.c **** /*!@brief
 474:..\..\mruby_c2\Design01.cydsn/vm.c ****   Execute OP_SETCONST
 475:..\..\mruby_c2\Design01.cydsn/vm.c **** 
 476:..\..\mruby_c2\Design01.cydsn/vm.c ****   constset(Syms(Bx),R(A))
 477:..\..\mruby_c2\Design01.cydsn/vm.c **** 
 478:..\..\mruby_c2\Design01.cydsn/vm.c ****   @param  vm    A pointer of VM.
 479:..\..\mruby_c2\Design01.cydsn/vm.c ****   @param  code  bytecode
 480:..\..\mruby_c2\Design01.cydsn/vm.c ****   @param  regs  vm->regs + vm->reg_top
 481:..\..\mruby_c2\Design01.cydsn/vm.c ****   @retval 0  No error.
 482:..\..\mruby_c2\Design01.cydsn/vm.c **** */
 483:..\..\mruby_c2\Design01.cydsn/vm.c **** 
 484:..\..\mruby_c2\Design01.cydsn/vm.c **** inline static int op_setconst( mrb_vm *vm, uint32_t code, mrb_value *regs ) {
 485:..\..\mruby_c2\Design01.cydsn/vm.c ****   int ra = GETARG_A(code);
 486:..\..\mruby_c2\Design01.cydsn/vm.c ****   int rb = GETARG_Bx(code);
 487:..\..\mruby_c2\Design01.cydsn/vm.c ****   const char *sym_name = mrbc_get_irep_symbol(vm->pc_irep->ptr_to_sym, rb);
 488:..\..\mruby_c2\Design01.cydsn/vm.c ****   mrb_sym sym_id = str_to_symid(sym_name);
 489:..\..\mruby_c2\Design01.cydsn/vm.c ****   const_object_add(sym_id, &regs[ra]);
 490:..\..\mruby_c2\Design01.cydsn/vm.c **** 
 491:..\..\mruby_c2\Design01.cydsn/vm.c ****   return 0;
 492:..\..\mruby_c2\Design01.cydsn/vm.c **** }
 493:..\..\mruby_c2\Design01.cydsn/vm.c **** 
 494:..\..\mruby_c2\Design01.cydsn/vm.c **** 
 495:..\..\mruby_c2\Design01.cydsn/vm.c **** 
 496:..\..\mruby_c2\Design01.cydsn/vm.c **** //================================================================
 497:..\..\mruby_c2\Design01.cydsn/vm.c **** /*!@brief
 498:..\..\mruby_c2\Design01.cydsn/vm.c ****   Execute OP_GETUPVAR
 499:..\..\mruby_c2\Design01.cydsn/vm.c **** 
 500:..\..\mruby_c2\Design01.cydsn/vm.c ****   R(A) := uvget(B,C)
 501:..\..\mruby_c2\Design01.cydsn/vm.c **** 
 502:..\..\mruby_c2\Design01.cydsn/vm.c ****   @param  vm    A pointer of VM.
 503:..\..\mruby_c2\Design01.cydsn/vm.c ****   @param  code  bytecode
 504:..\..\mruby_c2\Design01.cydsn/vm.c ****   @param  regs  vm->regs + vm->reg_top
 505:..\..\mruby_c2\Design01.cydsn/vm.c ****   @retval 0  No error.
 506:..\..\mruby_c2\Design01.cydsn/vm.c **** */
 507:..\..\mruby_c2\Design01.cydsn/vm.c **** inline static int op_getupvar( mrb_vm *vm, uint32_t code, mrb_value *regs )
 508:..\..\mruby_c2\Design01.cydsn/vm.c **** {
 509:..\..\mruby_c2\Design01.cydsn/vm.c ****   int ra = GETARG_A(code);
 510:..\..\mruby_c2\Design01.cydsn/vm.c ****   int rb = GETARG_B(code);
 511:..\..\mruby_c2\Design01.cydsn/vm.c ****   int rc = GETARG_C(code);   // UP
 512:..\..\mruby_c2\Design01.cydsn/vm.c ****   
 513:..\..\mruby_c2\Design01.cydsn/vm.c ****   mrb_callinfo *callinfo = vm->callinfo + vm->callinfo_top - 2 - rc;
 514:..\..\mruby_c2\Design01.cydsn/vm.c ****   mrb_value *up_regs = callinfo->current_regs;
 515:..\..\mruby_c2\Design01.cydsn/vm.c ****   
ARM GAS  C:\Users\164\AppData\Local\Temp\cc4PZf78.s 			page 18


 516:..\..\mruby_c2\Design01.cydsn/vm.c ****   mrbc_release( &regs[ra] );
 517:..\..\mruby_c2\Design01.cydsn/vm.c ****   mrbc_dup( &up_regs[rb] );
 518:..\..\mruby_c2\Design01.cydsn/vm.c ****   regs[ra] = up_regs[rb];
 519:..\..\mruby_c2\Design01.cydsn/vm.c ****   
 520:..\..\mruby_c2\Design01.cydsn/vm.c ****   return 0;
 521:..\..\mruby_c2\Design01.cydsn/vm.c **** }
 522:..\..\mruby_c2\Design01.cydsn/vm.c **** 
 523:..\..\mruby_c2\Design01.cydsn/vm.c **** 
 524:..\..\mruby_c2\Design01.cydsn/vm.c **** 
 525:..\..\mruby_c2\Design01.cydsn/vm.c **** //================================================================
 526:..\..\mruby_c2\Design01.cydsn/vm.c **** /*!@brief
 527:..\..\mruby_c2\Design01.cydsn/vm.c ****   Execute OP_SETUPVAR
 528:..\..\mruby_c2\Design01.cydsn/vm.c **** 
 529:..\..\mruby_c2\Design01.cydsn/vm.c ****   uvset(B,C,R(A))
 530:..\..\mruby_c2\Design01.cydsn/vm.c **** 
 531:..\..\mruby_c2\Design01.cydsn/vm.c ****   @param  vm    A pointer of VM.
 532:..\..\mruby_c2\Design01.cydsn/vm.c ****   @param  code  bytecode
 533:..\..\mruby_c2\Design01.cydsn/vm.c ****   @param  regs  vm->regs + vm->reg_top
 534:..\..\mruby_c2\Design01.cydsn/vm.c ****   @retval 0  No error.
 535:..\..\mruby_c2\Design01.cydsn/vm.c **** */
 536:..\..\mruby_c2\Design01.cydsn/vm.c **** inline static int op_setupvar( mrb_vm *vm, uint32_t code, mrb_value *regs )
 537:..\..\mruby_c2\Design01.cydsn/vm.c **** {
 538:..\..\mruby_c2\Design01.cydsn/vm.c ****   int ra = GETARG_A(code);
 539:..\..\mruby_c2\Design01.cydsn/vm.c ****   int rb = GETARG_B(code);
 540:..\..\mruby_c2\Design01.cydsn/vm.c ****   int rc = GETARG_C(code);   // UP
 541:..\..\mruby_c2\Design01.cydsn/vm.c ****   
 542:..\..\mruby_c2\Design01.cydsn/vm.c ****   mrb_callinfo *callinfo = vm->callinfo + vm->callinfo_top - 2 - rc;
 543:..\..\mruby_c2\Design01.cydsn/vm.c ****   mrb_value *up_regs = callinfo->current_regs;
 544:..\..\mruby_c2\Design01.cydsn/vm.c **** 
 545:..\..\mruby_c2\Design01.cydsn/vm.c ****   mrbc_release( &up_regs[rb] );
 546:..\..\mruby_c2\Design01.cydsn/vm.c ****   mrbc_dup( &regs[ra] );
 547:..\..\mruby_c2\Design01.cydsn/vm.c ****   up_regs[rb] = regs[ra];
 548:..\..\mruby_c2\Design01.cydsn/vm.c **** 
 549:..\..\mruby_c2\Design01.cydsn/vm.c ****   return 0;
 550:..\..\mruby_c2\Design01.cydsn/vm.c **** }
 551:..\..\mruby_c2\Design01.cydsn/vm.c **** 
 552:..\..\mruby_c2\Design01.cydsn/vm.c **** 
 553:..\..\mruby_c2\Design01.cydsn/vm.c **** 
 554:..\..\mruby_c2\Design01.cydsn/vm.c **** //================================================================
 555:..\..\mruby_c2\Design01.cydsn/vm.c **** /*!@brief
 556:..\..\mruby_c2\Design01.cydsn/vm.c ****   Execute OP_JMP
 557:..\..\mruby_c2\Design01.cydsn/vm.c **** 
 558:..\..\mruby_c2\Design01.cydsn/vm.c ****   pc += sBx
 559:..\..\mruby_c2\Design01.cydsn/vm.c **** 
 560:..\..\mruby_c2\Design01.cydsn/vm.c ****   @param  vm    A pointer of VM.
 561:..\..\mruby_c2\Design01.cydsn/vm.c ****   @param  code  bytecode
 562:..\..\mruby_c2\Design01.cydsn/vm.c ****   @param  regs  vm->regs + vm->reg_top
 563:..\..\mruby_c2\Design01.cydsn/vm.c ****   @retval 0  No error.
 564:..\..\mruby_c2\Design01.cydsn/vm.c **** */
 565:..\..\mruby_c2\Design01.cydsn/vm.c **** inline static int op_jmp( mrb_vm *vm, uint32_t code, mrb_value *regs )
 566:..\..\mruby_c2\Design01.cydsn/vm.c **** {
 567:..\..\mruby_c2\Design01.cydsn/vm.c ****   vm->pc += GETARG_sBx(code) - 1;
 568:..\..\mruby_c2\Design01.cydsn/vm.c ****   return 0;
 569:..\..\mruby_c2\Design01.cydsn/vm.c **** }
 570:..\..\mruby_c2\Design01.cydsn/vm.c **** 
 571:..\..\mruby_c2\Design01.cydsn/vm.c **** 
 572:..\..\mruby_c2\Design01.cydsn/vm.c **** //================================================================
ARM GAS  C:\Users\164\AppData\Local\Temp\cc4PZf78.s 			page 19


 573:..\..\mruby_c2\Design01.cydsn/vm.c **** /*!@brief
 574:..\..\mruby_c2\Design01.cydsn/vm.c ****   Execute OP_JMPIF
 575:..\..\mruby_c2\Design01.cydsn/vm.c **** 
 576:..\..\mruby_c2\Design01.cydsn/vm.c ****   if R(A) pc += sBx
 577:..\..\mruby_c2\Design01.cydsn/vm.c **** 
 578:..\..\mruby_c2\Design01.cydsn/vm.c ****   @param  vm    A pointer of VM.
 579:..\..\mruby_c2\Design01.cydsn/vm.c ****   @param  code  bytecode
 580:..\..\mruby_c2\Design01.cydsn/vm.c ****   @param  regs  vm->regs + vm->reg_top
 581:..\..\mruby_c2\Design01.cydsn/vm.c ****   @retval 0  No error.
 582:..\..\mruby_c2\Design01.cydsn/vm.c **** */
 583:..\..\mruby_c2\Design01.cydsn/vm.c **** inline static int op_jmpif( mrb_vm *vm, uint32_t code, mrb_value *regs )
 584:..\..\mruby_c2\Design01.cydsn/vm.c **** {
 585:..\..\mruby_c2\Design01.cydsn/vm.c ****   if( regs[GETARG_A(code)].tt > MRB_TT_FALSE ) {
 586:..\..\mruby_c2\Design01.cydsn/vm.c ****     vm->pc += GETARG_sBx(code) - 1;
 587:..\..\mruby_c2\Design01.cydsn/vm.c ****   }
 588:..\..\mruby_c2\Design01.cydsn/vm.c ****   return 0;
 589:..\..\mruby_c2\Design01.cydsn/vm.c **** }
 590:..\..\mruby_c2\Design01.cydsn/vm.c **** 
 591:..\..\mruby_c2\Design01.cydsn/vm.c **** 
 592:..\..\mruby_c2\Design01.cydsn/vm.c **** //================================================================
 593:..\..\mruby_c2\Design01.cydsn/vm.c **** /*!@brief
 594:..\..\mruby_c2\Design01.cydsn/vm.c ****   Execute OP_JMPNOT
 595:..\..\mruby_c2\Design01.cydsn/vm.c **** 
 596:..\..\mruby_c2\Design01.cydsn/vm.c ****   if not R(A) pc += sBx
 597:..\..\mruby_c2\Design01.cydsn/vm.c **** 
 598:..\..\mruby_c2\Design01.cydsn/vm.c ****   @param  vm    A pointer of VM.
 599:..\..\mruby_c2\Design01.cydsn/vm.c ****   @param  code  bytecode
 600:..\..\mruby_c2\Design01.cydsn/vm.c ****   @param  regs  vm->regs + vm->reg_top
 601:..\..\mruby_c2\Design01.cydsn/vm.c ****   @retval 0  No error.
 602:..\..\mruby_c2\Design01.cydsn/vm.c **** */
 603:..\..\mruby_c2\Design01.cydsn/vm.c **** inline static int op_jmpnot( mrb_vm *vm, uint32_t code, mrb_value *regs )
 604:..\..\mruby_c2\Design01.cydsn/vm.c **** {
 605:..\..\mruby_c2\Design01.cydsn/vm.c ****   if( regs[GETARG_A(code)].tt <= MRB_TT_FALSE ) {
 606:..\..\mruby_c2\Design01.cydsn/vm.c ****     vm->pc += GETARG_sBx(code) - 1;
 607:..\..\mruby_c2\Design01.cydsn/vm.c ****   }
 608:..\..\mruby_c2\Design01.cydsn/vm.c ****   return 0;
 609:..\..\mruby_c2\Design01.cydsn/vm.c **** }
 610:..\..\mruby_c2\Design01.cydsn/vm.c **** 
 611:..\..\mruby_c2\Design01.cydsn/vm.c **** 
 612:..\..\mruby_c2\Design01.cydsn/vm.c **** //================================================================
 613:..\..\mruby_c2\Design01.cydsn/vm.c **** /*!@brief
 614:..\..\mruby_c2\Design01.cydsn/vm.c ****   Execute OP_SEND / OP_SENDB
 615:..\..\mruby_c2\Design01.cydsn/vm.c **** 
 616:..\..\mruby_c2\Design01.cydsn/vm.c ****   OP_SEND   R(A) := call(R(A),Syms(B),R(A+1),...,R(A+C))
 617:..\..\mruby_c2\Design01.cydsn/vm.c ****   OP_SENDB  R(A) := call(R(A),Syms(B),R(A+1),...,R(A+C),&R(A+C+1))
 618:..\..\mruby_c2\Design01.cydsn/vm.c **** 
 619:..\..\mruby_c2\Design01.cydsn/vm.c ****   @param  vm    A pointer of VM.
 620:..\..\mruby_c2\Design01.cydsn/vm.c ****   @param  code  bytecode
 621:..\..\mruby_c2\Design01.cydsn/vm.c ****   @param  regs  vm->regs + vm->reg_top
 622:..\..\mruby_c2\Design01.cydsn/vm.c ****   @retval 0  No error.
 623:..\..\mruby_c2\Design01.cydsn/vm.c **** */
 624:..\..\mruby_c2\Design01.cydsn/vm.c **** inline static int op_send( mrb_vm *vm, uint32_t code, mrb_value *regs )
 625:..\..\mruby_c2\Design01.cydsn/vm.c **** {
 626:..\..\mruby_c2\Design01.cydsn/vm.c ****   int ra = GETARG_A(code);
 627:..\..\mruby_c2\Design01.cydsn/vm.c ****   int rb = GETARG_B(code);  // index of method sym
 628:..\..\mruby_c2\Design01.cydsn/vm.c ****   int rc = GETARG_C(code);  // number of params
 629:..\..\mruby_c2\Design01.cydsn/vm.c ****   mrb_value recv = regs[ra];
ARM GAS  C:\Users\164\AppData\Local\Temp\cc4PZf78.s 			page 20


 630:..\..\mruby_c2\Design01.cydsn/vm.c **** 
 631:..\..\mruby_c2\Design01.cydsn/vm.c ****   // Block param
 632:..\..\mruby_c2\Design01.cydsn/vm.c ****   int bidx = ra + rc + 1;
 633:..\..\mruby_c2\Design01.cydsn/vm.c ****   switch( GET_OPCODE(code) ) {
 634:..\..\mruby_c2\Design01.cydsn/vm.c ****   case OP_SEND:
 635:..\..\mruby_c2\Design01.cydsn/vm.c ****     // set nil
 636:..\..\mruby_c2\Design01.cydsn/vm.c ****     mrbc_release( &regs[bidx] );
 637:..\..\mruby_c2\Design01.cydsn/vm.c ****     regs[bidx].tt = MRB_TT_NIL;
 638:..\..\mruby_c2\Design01.cydsn/vm.c ****     break;
 639:..\..\mruby_c2\Design01.cydsn/vm.c **** 
 640:..\..\mruby_c2\Design01.cydsn/vm.c ****   case OP_SENDB:
 641:..\..\mruby_c2\Design01.cydsn/vm.c ****     // set Proc object
 642:..\..\mruby_c2\Design01.cydsn/vm.c ****     if( regs[bidx].tt != MRB_TT_NIL && regs[bidx].tt != MRB_TT_PROC ){
 643:..\..\mruby_c2\Design01.cydsn/vm.c ****       // TODO: fix the following behavior
 644:..\..\mruby_c2\Design01.cydsn/vm.c ****       // convert to Proc ?
 645:..\..\mruby_c2\Design01.cydsn/vm.c ****       // raise exceprion in mruby/c ?
 646:..\..\mruby_c2\Design01.cydsn/vm.c ****       return 0;
 647:..\..\mruby_c2\Design01.cydsn/vm.c ****     }
 648:..\..\mruby_c2\Design01.cydsn/vm.c ****     break;
 649:..\..\mruby_c2\Design01.cydsn/vm.c **** 
 650:..\..\mruby_c2\Design01.cydsn/vm.c ****   default:
 651:..\..\mruby_c2\Design01.cydsn/vm.c ****     break;
 652:..\..\mruby_c2\Design01.cydsn/vm.c ****   }
 653:..\..\mruby_c2\Design01.cydsn/vm.c **** 
 654:..\..\mruby_c2\Design01.cydsn/vm.c ****   const char *sym_name = mrbc_get_irep_symbol(vm->pc_irep->ptr_to_sym, rb);
 655:..\..\mruby_c2\Design01.cydsn/vm.c ****   mrb_sym sym_id = str_to_symid(sym_name);
 656:..\..\mruby_c2\Design01.cydsn/vm.c ****   mrb_proc *m = find_method(vm, recv, sym_id);
 657:..\..\mruby_c2\Design01.cydsn/vm.c **** 
 658:..\..\mruby_c2\Design01.cydsn/vm.c ****   if( m == 0 ) {
 659:..\..\mruby_c2\Design01.cydsn/vm.c ****     console_printf("No method. vtype=%d method='%s'\n", recv.tt, sym_name);
 660:..\..\mruby_c2\Design01.cydsn/vm.c ****     return 0;
 661:..\..\mruby_c2\Design01.cydsn/vm.c ****   }
 662:..\..\mruby_c2\Design01.cydsn/vm.c **** 
 663:..\..\mruby_c2\Design01.cydsn/vm.c ****   // m is C func
 664:..\..\mruby_c2\Design01.cydsn/vm.c ****   if( m->c_func ) {
 665:..\..\mruby_c2\Design01.cydsn/vm.c ****     m->func(vm, regs + ra, rc);
 666:..\..\mruby_c2\Design01.cydsn/vm.c **** 
 667:..\..\mruby_c2\Design01.cydsn/vm.c ****     int release_reg = ra+rc+1;
 668:..\..\mruby_c2\Design01.cydsn/vm.c ****     while( release_reg <= bidx ) {
 669:..\..\mruby_c2\Design01.cydsn/vm.c ****       // mrbc_release(&regs[release_reg]);
 670:..\..\mruby_c2\Design01.cydsn/vm.c ****       release_reg++;
 671:..\..\mruby_c2\Design01.cydsn/vm.c ****     }
 672:..\..\mruby_c2\Design01.cydsn/vm.c ****     return 0;
 673:..\..\mruby_c2\Design01.cydsn/vm.c ****   }
 674:..\..\mruby_c2\Design01.cydsn/vm.c **** 
 675:..\..\mruby_c2\Design01.cydsn/vm.c ****   // m is Ruby method.
 676:..\..\mruby_c2\Design01.cydsn/vm.c ****   // callinfo
 677:..\..\mruby_c2\Design01.cydsn/vm.c ****   mrbc_push_callinfo(vm, rc);
 678:..\..\mruby_c2\Design01.cydsn/vm.c **** 
 679:..\..\mruby_c2\Design01.cydsn/vm.c ****   // target irep
 680:..\..\mruby_c2\Design01.cydsn/vm.c ****   vm->pc = 0;
 681:..\..\mruby_c2\Design01.cydsn/vm.c ****   vm->pc_irep = m->irep;
 682:..\..\mruby_c2\Design01.cydsn/vm.c **** 
 683:..\..\mruby_c2\Design01.cydsn/vm.c ****   // new regs
 684:..\..\mruby_c2\Design01.cydsn/vm.c ****   vm->current_regs += ra;
 685:..\..\mruby_c2\Design01.cydsn/vm.c **** 
 686:..\..\mruby_c2\Design01.cydsn/vm.c ****   return 0;
ARM GAS  C:\Users\164\AppData\Local\Temp\cc4PZf78.s 			page 21


 687:..\..\mruby_c2\Design01.cydsn/vm.c **** }
 688:..\..\mruby_c2\Design01.cydsn/vm.c **** 
 689:..\..\mruby_c2\Design01.cydsn/vm.c **** 
 690:..\..\mruby_c2\Design01.cydsn/vm.c **** //================================================================
 691:..\..\mruby_c2\Design01.cydsn/vm.c **** /*!@brief
 692:..\..\mruby_c2\Design01.cydsn/vm.c ****   Execute OP_CALL
 693:..\..\mruby_c2\Design01.cydsn/vm.c **** 
 694:..\..\mruby_c2\Design01.cydsn/vm.c ****   R(A) := self.call(frame.argc, frame.argv)
 695:..\..\mruby_c2\Design01.cydsn/vm.c **** 
 696:..\..\mruby_c2\Design01.cydsn/vm.c ****   @param  vm    A pointer of VM.
 697:..\..\mruby_c2\Design01.cydsn/vm.c ****   @param  code  bytecode
 698:..\..\mruby_c2\Design01.cydsn/vm.c ****   @param  regs  vm->regs + vm->reg_top
 699:..\..\mruby_c2\Design01.cydsn/vm.c ****   @retval 0  No error.
 700:..\..\mruby_c2\Design01.cydsn/vm.c **** */
 701:..\..\mruby_c2\Design01.cydsn/vm.c **** inline static int op_call( mrb_vm *vm, uint32_t code, mrb_value *regs )
 702:..\..\mruby_c2\Design01.cydsn/vm.c **** {
 703:..\..\mruby_c2\Design01.cydsn/vm.c ****   mrbc_push_callinfo(vm, 0);
 704:..\..\mruby_c2\Design01.cydsn/vm.c **** 
 705:..\..\mruby_c2\Design01.cydsn/vm.c ****   // jump to proc
 706:..\..\mruby_c2\Design01.cydsn/vm.c ****   vm->pc = 0;
 707:..\..\mruby_c2\Design01.cydsn/vm.c ****   vm->pc_irep = regs[0].proc->irep;
 708:..\..\mruby_c2\Design01.cydsn/vm.c **** 
 709:..\..\mruby_c2\Design01.cydsn/vm.c ****   return 0;
 710:..\..\mruby_c2\Design01.cydsn/vm.c **** }
 711:..\..\mruby_c2\Design01.cydsn/vm.c **** 
 712:..\..\mruby_c2\Design01.cydsn/vm.c **** 
 713:..\..\mruby_c2\Design01.cydsn/vm.c **** 
 714:..\..\mruby_c2\Design01.cydsn/vm.c **** //================================================================
 715:..\..\mruby_c2\Design01.cydsn/vm.c **** /*!@brief
 716:..\..\mruby_c2\Design01.cydsn/vm.c ****   Execute OP_ENTER
 717:..\..\mruby_c2\Design01.cydsn/vm.c **** 
 718:..\..\mruby_c2\Design01.cydsn/vm.c ****   arg setup according to flags (23=5:5:1:5:5:1:1)
 719:..\..\mruby_c2\Design01.cydsn/vm.c **** 
 720:..\..\mruby_c2\Design01.cydsn/vm.c ****   @param  vm    A pointer of VM.
 721:..\..\mruby_c2\Design01.cydsn/vm.c ****   @param  code  bytecode
 722:..\..\mruby_c2\Design01.cydsn/vm.c ****   @param  regs  vm->regs + vm->reg_top
 723:..\..\mruby_c2\Design01.cydsn/vm.c ****   @retval 0  No error.
 724:..\..\mruby_c2\Design01.cydsn/vm.c **** */
 725:..\..\mruby_c2\Design01.cydsn/vm.c **** inline static int op_enter( mrb_vm *vm, uint32_t code, mrb_value *regs )
 726:..\..\mruby_c2\Design01.cydsn/vm.c **** {
 727:..\..\mruby_c2\Design01.cydsn/vm.c ****   mrb_callinfo *callinfo = vm->callinfo + vm->callinfo_top - 1;
 728:..\..\mruby_c2\Design01.cydsn/vm.c ****   uint32_t enter_param = GETARG_Ax(code);
 729:..\..\mruby_c2\Design01.cydsn/vm.c ****   int def_args = (enter_param >> 13) & 0x1f;  // default args
 730:..\..\mruby_c2\Design01.cydsn/vm.c ****   int args = (enter_param >> 18) & 0x1f;      // given args
 731:..\..\mruby_c2\Design01.cydsn/vm.c ****   if( def_args > 0 ){
 732:..\..\mruby_c2\Design01.cydsn/vm.c ****     vm->pc += callinfo->n_args - args;
 733:..\..\mruby_c2\Design01.cydsn/vm.c ****   }
 734:..\..\mruby_c2\Design01.cydsn/vm.c ****   return 0;
 735:..\..\mruby_c2\Design01.cydsn/vm.c **** }
 736:..\..\mruby_c2\Design01.cydsn/vm.c **** 
 737:..\..\mruby_c2\Design01.cydsn/vm.c **** 
 738:..\..\mruby_c2\Design01.cydsn/vm.c **** //================================================================
 739:..\..\mruby_c2\Design01.cydsn/vm.c **** /*!@brief
 740:..\..\mruby_c2\Design01.cydsn/vm.c ****   Execute OP_RETURN
 741:..\..\mruby_c2\Design01.cydsn/vm.c **** 
 742:..\..\mruby_c2\Design01.cydsn/vm.c ****   return R(A) (B=normal,in-block return/break)
 743:..\..\mruby_c2\Design01.cydsn/vm.c **** 
ARM GAS  C:\Users\164\AppData\Local\Temp\cc4PZf78.s 			page 22


 744:..\..\mruby_c2\Design01.cydsn/vm.c ****   @param  vm    A pointer of VM.
 745:..\..\mruby_c2\Design01.cydsn/vm.c ****   @param  code  bytecode
 746:..\..\mruby_c2\Design01.cydsn/vm.c ****   @param  regs  vm->regs + vm->reg_top
 747:..\..\mruby_c2\Design01.cydsn/vm.c ****   @retval 0  No error.
 748:..\..\mruby_c2\Design01.cydsn/vm.c **** */
 749:..\..\mruby_c2\Design01.cydsn/vm.c **** inline static int op_return( mrb_vm *vm, uint32_t code, mrb_value *regs )
 750:..\..\mruby_c2\Design01.cydsn/vm.c **** {
 751:..\..\mruby_c2\Design01.cydsn/vm.c ****   // return value
 752:..\..\mruby_c2\Design01.cydsn/vm.c ****   int ra = GETARG_A(code);
 753:..\..\mruby_c2\Design01.cydsn/vm.c ****   //  if( ra != 0 ){
 754:..\..\mruby_c2\Design01.cydsn/vm.c ****   mrb_value v = regs[ra];
 755:..\..\mruby_c2\Design01.cydsn/vm.c ****   mrbc_dup(&v);
 756:..\..\mruby_c2\Design01.cydsn/vm.c ****   mrbc_release(&regs[0]);
 757:..\..\mruby_c2\Design01.cydsn/vm.c ****   regs[0] = v;
 758:..\..\mruby_c2\Design01.cydsn/vm.c ****   //  }
 759:..\..\mruby_c2\Design01.cydsn/vm.c ****   // restore irep,pc,regs
 760:..\..\mruby_c2\Design01.cydsn/vm.c ****   vm->callinfo_top--;
 761:..\..\mruby_c2\Design01.cydsn/vm.c ****   mrb_callinfo *callinfo = vm->callinfo + vm->callinfo_top;
 762:..\..\mruby_c2\Design01.cydsn/vm.c ****   mrb_value *regs_ptr = vm->current_regs;
 763:..\..\mruby_c2\Design01.cydsn/vm.c ****   vm->current_regs = callinfo->current_regs;
 764:..\..\mruby_c2\Design01.cydsn/vm.c ****   // clear regs and restore vm->reg_top
 765:..\..\mruby_c2\Design01.cydsn/vm.c ****   // while( regs_ptr > callinfo->current_regs ){
 766:..\..\mruby_c2\Design01.cydsn/vm.c ****   //   mrbc_release(regs_ptr);
 767:..\..\mruby_c2\Design01.cydsn/vm.c ****   //   regs_ptr->tt = MRB_TT_EMPTY;
 768:..\..\mruby_c2\Design01.cydsn/vm.c ****   //   regs_ptr--;
 769:..\..\mruby_c2\Design01.cydsn/vm.c ****   // }
 770:..\..\mruby_c2\Design01.cydsn/vm.c ****   // restore others
 771:..\..\mruby_c2\Design01.cydsn/vm.c ****   vm->pc_irep = callinfo->pc_irep;
 772:..\..\mruby_c2\Design01.cydsn/vm.c ****   vm->pc = callinfo->pc;
 773:..\..\mruby_c2\Design01.cydsn/vm.c ****   vm->target_class = callinfo->target_class;
 774:..\..\mruby_c2\Design01.cydsn/vm.c ****   return 0;
 775:..\..\mruby_c2\Design01.cydsn/vm.c **** }
 776:..\..\mruby_c2\Design01.cydsn/vm.c **** 
 777:..\..\mruby_c2\Design01.cydsn/vm.c **** 
 778:..\..\mruby_c2\Design01.cydsn/vm.c **** //================================================================
 779:..\..\mruby_c2\Design01.cydsn/vm.c **** /*!@brief
 780:..\..\mruby_c2\Design01.cydsn/vm.c ****   Execute OP_BLKPUSH
 781:..\..\mruby_c2\Design01.cydsn/vm.c **** 
 782:..\..\mruby_c2\Design01.cydsn/vm.c ****   R(A) := block (16=6:1:5:4)
 783:..\..\mruby_c2\Design01.cydsn/vm.c **** 
 784:..\..\mruby_c2\Design01.cydsn/vm.c ****   @param  vm    A pointer of VM.
 785:..\..\mruby_c2\Design01.cydsn/vm.c ****   @param  code  bytecode
 786:..\..\mruby_c2\Design01.cydsn/vm.c ****   @param  regs  vm->regs + vm->reg_top
 787:..\..\mruby_c2\Design01.cydsn/vm.c ****   @retval 0  No error.
 788:..\..\mruby_c2\Design01.cydsn/vm.c **** */
 789:..\..\mruby_c2\Design01.cydsn/vm.c **** inline static int op_blkpush( mrb_vm *vm, uint32_t code, mrb_value *regs )
 790:..\..\mruby_c2\Design01.cydsn/vm.c **** {
 791:..\..\mruby_c2\Design01.cydsn/vm.c ****   int ra = GETARG_A(code);
 792:..\..\mruby_c2\Design01.cydsn/vm.c **** 
 793:..\..\mruby_c2\Design01.cydsn/vm.c ****   mrb_value *stack = regs + 1;
 794:..\..\mruby_c2\Design01.cydsn/vm.c **** 
 795:..\..\mruby_c2\Design01.cydsn/vm.c ****   if( stack[0].tt == MRB_TT_NIL ){
 796:..\..\mruby_c2\Design01.cydsn/vm.c ****     return -1;  // EYIELD
 797:..\..\mruby_c2\Design01.cydsn/vm.c ****   }
 798:..\..\mruby_c2\Design01.cydsn/vm.c **** 
 799:..\..\mruby_c2\Design01.cydsn/vm.c ****   mrbc_release(&regs[ra]);
 800:..\..\mruby_c2\Design01.cydsn/vm.c ****   mrbc_dup( stack );
ARM GAS  C:\Users\164\AppData\Local\Temp\cc4PZf78.s 			page 23


 801:..\..\mruby_c2\Design01.cydsn/vm.c ****   regs[ra] = stack[0];
 802:..\..\mruby_c2\Design01.cydsn/vm.c **** 
 803:..\..\mruby_c2\Design01.cydsn/vm.c ****   return 0;
 804:..\..\mruby_c2\Design01.cydsn/vm.c **** }
 805:..\..\mruby_c2\Design01.cydsn/vm.c **** 
 806:..\..\mruby_c2\Design01.cydsn/vm.c **** 
 807:..\..\mruby_c2\Design01.cydsn/vm.c **** 
 808:..\..\mruby_c2\Design01.cydsn/vm.c **** //================================================================
 809:..\..\mruby_c2\Design01.cydsn/vm.c **** /*!@brief
 810:..\..\mruby_c2\Design01.cydsn/vm.c ****   Execute OP_ADD
 811:..\..\mruby_c2\Design01.cydsn/vm.c **** 
 812:..\..\mruby_c2\Design01.cydsn/vm.c ****   R(A) := R(A)+R(A+1) (Syms[B]=:+,C=1)
 813:..\..\mruby_c2\Design01.cydsn/vm.c **** 
 814:..\..\mruby_c2\Design01.cydsn/vm.c ****   @param  vm    A pointer of VM.
 815:..\..\mruby_c2\Design01.cydsn/vm.c ****   @param  code  bytecode
 816:..\..\mruby_c2\Design01.cydsn/vm.c ****   @param  regs  vm->regs + vm->reg_top
 817:..\..\mruby_c2\Design01.cydsn/vm.c ****   @retval 0  No error.
 818:..\..\mruby_c2\Design01.cydsn/vm.c **** */
 819:..\..\mruby_c2\Design01.cydsn/vm.c **** inline static int op_add( mrb_vm *vm, uint32_t code, mrb_value *regs )
 820:..\..\mruby_c2\Design01.cydsn/vm.c **** {
 821:..\..\mruby_c2\Design01.cydsn/vm.c ****   int ra = GETARG_A(code);
 822:..\..\mruby_c2\Design01.cydsn/vm.c **** 
 823:..\..\mruby_c2\Design01.cydsn/vm.c ****   if( regs[ra].tt == MRB_TT_FIXNUM ) {
 824:..\..\mruby_c2\Design01.cydsn/vm.c ****     if( regs[ra+1].tt == MRB_TT_FIXNUM ) {	// in case of Fixnum, Fixnum
 825:..\..\mruby_c2\Design01.cydsn/vm.c ****       regs[ra].i += regs[ra+1].i;
 826:..\..\mruby_c2\Design01.cydsn/vm.c ****       return 0;
 827:..\..\mruby_c2\Design01.cydsn/vm.c ****     }
 828:..\..\mruby_c2\Design01.cydsn/vm.c **** #if MRBC_USE_FLOAT
 829:..\..\mruby_c2\Design01.cydsn/vm.c ****     if( regs[ra+1].tt == MRB_TT_FLOAT ) {	// in case of Fixnum, Float
 830:..\..\mruby_c2\Design01.cydsn/vm.c ****       regs[ra].tt = MRB_TT_FLOAT;
 831:..\..\mruby_c2\Design01.cydsn/vm.c ****       regs[ra].d = regs[ra].i + regs[ra+1].d;
 832:..\..\mruby_c2\Design01.cydsn/vm.c ****       return 0;
 833:..\..\mruby_c2\Design01.cydsn/vm.c ****     }
 834:..\..\mruby_c2\Design01.cydsn/vm.c ****   }
 835:..\..\mruby_c2\Design01.cydsn/vm.c ****   if( regs[ra].tt == MRB_TT_FLOAT ) {
 836:..\..\mruby_c2\Design01.cydsn/vm.c ****     if( regs[ra+1].tt == MRB_TT_FIXNUM ) {	// in case of Float, Fixnum
 837:..\..\mruby_c2\Design01.cydsn/vm.c ****       regs[ra].d += regs[ra+1].i;
 838:..\..\mruby_c2\Design01.cydsn/vm.c ****       return 0;
 839:..\..\mruby_c2\Design01.cydsn/vm.c ****     }
 840:..\..\mruby_c2\Design01.cydsn/vm.c ****     if( regs[ra+1].tt == MRB_TT_FLOAT ) {	// in case of Float, Float
 841:..\..\mruby_c2\Design01.cydsn/vm.c ****       regs[ra].d += regs[ra+1].d;
 842:..\..\mruby_c2\Design01.cydsn/vm.c ****       return 0;
 843:..\..\mruby_c2\Design01.cydsn/vm.c ****     }
 844:..\..\mruby_c2\Design01.cydsn/vm.c **** #endif
 845:..\..\mruby_c2\Design01.cydsn/vm.c ****   }
 846:..\..\mruby_c2\Design01.cydsn/vm.c **** 
 847:..\..\mruby_c2\Design01.cydsn/vm.c ****   // other case
 848:..\..\mruby_c2\Design01.cydsn/vm.c ****   op_send(vm, code, regs);
 849:..\..\mruby_c2\Design01.cydsn/vm.c ****   return 0;
 850:..\..\mruby_c2\Design01.cydsn/vm.c **** }
 851:..\..\mruby_c2\Design01.cydsn/vm.c **** 
 852:..\..\mruby_c2\Design01.cydsn/vm.c **** 
 853:..\..\mruby_c2\Design01.cydsn/vm.c **** //================================================================
 854:..\..\mruby_c2\Design01.cydsn/vm.c **** /*!@brief
 855:..\..\mruby_c2\Design01.cydsn/vm.c ****   Execute OP_ADDI
 856:..\..\mruby_c2\Design01.cydsn/vm.c **** 
 857:..\..\mruby_c2\Design01.cydsn/vm.c ****   R(A) := R(A)+C (Syms[B]=:+)
ARM GAS  C:\Users\164\AppData\Local\Temp\cc4PZf78.s 			page 24


 858:..\..\mruby_c2\Design01.cydsn/vm.c **** 
 859:..\..\mruby_c2\Design01.cydsn/vm.c ****   @param  vm    A pointer of VM.
 860:..\..\mruby_c2\Design01.cydsn/vm.c ****   @param  code  bytecode
 861:..\..\mruby_c2\Design01.cydsn/vm.c ****   @param  regs  vm->regs + vm->reg_top
 862:..\..\mruby_c2\Design01.cydsn/vm.c ****   @retval 0  No error.
 863:..\..\mruby_c2\Design01.cydsn/vm.c **** */
 864:..\..\mruby_c2\Design01.cydsn/vm.c **** inline static int op_addi( mrb_vm *vm, uint32_t code, mrb_value *regs )
 865:..\..\mruby_c2\Design01.cydsn/vm.c **** {
 866:..\..\mruby_c2\Design01.cydsn/vm.c ****   int ra = GETARG_A(code);
 867:..\..\mruby_c2\Design01.cydsn/vm.c **** 
 868:..\..\mruby_c2\Design01.cydsn/vm.c ****   if( regs[ra].tt == MRB_TT_FIXNUM ) {
 869:..\..\mruby_c2\Design01.cydsn/vm.c ****     regs[ra].i += GETARG_C(code);
 870:..\..\mruby_c2\Design01.cydsn/vm.c ****     return 0;
 871:..\..\mruby_c2\Design01.cydsn/vm.c ****   }
 872:..\..\mruby_c2\Design01.cydsn/vm.c **** 
 873:..\..\mruby_c2\Design01.cydsn/vm.c **** #if MRBC_USE_FLOAT
 874:..\..\mruby_c2\Design01.cydsn/vm.c ****   if( regs[ra].tt == MRB_TT_FLOAT ) {
 875:..\..\mruby_c2\Design01.cydsn/vm.c ****     regs[ra].d += GETARG_C(code);
 876:..\..\mruby_c2\Design01.cydsn/vm.c ****     return 0;
 877:..\..\mruby_c2\Design01.cydsn/vm.c ****   }
 878:..\..\mruby_c2\Design01.cydsn/vm.c **** #endif
 879:..\..\mruby_c2\Design01.cydsn/vm.c **** 
 880:..\..\mruby_c2\Design01.cydsn/vm.c ****   not_supported();
 881:..\..\mruby_c2\Design01.cydsn/vm.c ****   return 0;
 882:..\..\mruby_c2\Design01.cydsn/vm.c **** }
 883:..\..\mruby_c2\Design01.cydsn/vm.c **** 
 884:..\..\mruby_c2\Design01.cydsn/vm.c **** 
 885:..\..\mruby_c2\Design01.cydsn/vm.c **** //================================================================
 886:..\..\mruby_c2\Design01.cydsn/vm.c **** /*!@brief
 887:..\..\mruby_c2\Design01.cydsn/vm.c ****   Execute OP_SUB
 888:..\..\mruby_c2\Design01.cydsn/vm.c **** 
 889:..\..\mruby_c2\Design01.cydsn/vm.c ****   R(A) := R(A)-R(A+1) (Syms[B]=:-,C=1)
 890:..\..\mruby_c2\Design01.cydsn/vm.c **** 
 891:..\..\mruby_c2\Design01.cydsn/vm.c ****   @param  vm    A pointer of VM.
 892:..\..\mruby_c2\Design01.cydsn/vm.c ****   @param  code  bytecode
 893:..\..\mruby_c2\Design01.cydsn/vm.c ****   @param  regs  vm->regs + vm->reg_top
 894:..\..\mruby_c2\Design01.cydsn/vm.c ****   @retval 0  No error.
 895:..\..\mruby_c2\Design01.cydsn/vm.c **** */
 896:..\..\mruby_c2\Design01.cydsn/vm.c **** inline static int op_sub( mrb_vm *vm, uint32_t code, mrb_value *regs )
 897:..\..\mruby_c2\Design01.cydsn/vm.c **** {
 898:..\..\mruby_c2\Design01.cydsn/vm.c ****   int ra = GETARG_A(code);
 899:..\..\mruby_c2\Design01.cydsn/vm.c **** 
 900:..\..\mruby_c2\Design01.cydsn/vm.c ****   if( regs[ra].tt == MRB_TT_FIXNUM ) {
 901:..\..\mruby_c2\Design01.cydsn/vm.c ****     if( regs[ra+1].tt == MRB_TT_FIXNUM ) {	// in case of Fixnum, Fixnum
 902:..\..\mruby_c2\Design01.cydsn/vm.c ****       regs[ra].i -= regs[ra+1].i;
 903:..\..\mruby_c2\Design01.cydsn/vm.c ****       return 0;
 904:..\..\mruby_c2\Design01.cydsn/vm.c ****     }
 905:..\..\mruby_c2\Design01.cydsn/vm.c **** #if MRBC_USE_FLOAT
 906:..\..\mruby_c2\Design01.cydsn/vm.c ****     if( regs[ra+1].tt == MRB_TT_FLOAT ) {	// in case of Fixnum, Float
 907:..\..\mruby_c2\Design01.cydsn/vm.c ****       regs[ra].tt = MRB_TT_FLOAT;
 908:..\..\mruby_c2\Design01.cydsn/vm.c ****       regs[ra].d = regs[ra].i - regs[ra+1].d;
 909:..\..\mruby_c2\Design01.cydsn/vm.c ****       return 0;
 910:..\..\mruby_c2\Design01.cydsn/vm.c ****     }
 911:..\..\mruby_c2\Design01.cydsn/vm.c ****   }
 912:..\..\mruby_c2\Design01.cydsn/vm.c ****   if( regs[ra].tt == MRB_TT_FLOAT ) {
 913:..\..\mruby_c2\Design01.cydsn/vm.c ****     if( regs[ra+1].tt == MRB_TT_FIXNUM ) {	// in case of Float, Fixnum
 914:..\..\mruby_c2\Design01.cydsn/vm.c ****       regs[ra].d -= regs[ra+1].i;
ARM GAS  C:\Users\164\AppData\Local\Temp\cc4PZf78.s 			page 25


 915:..\..\mruby_c2\Design01.cydsn/vm.c ****       return 0;
 916:..\..\mruby_c2\Design01.cydsn/vm.c ****     }
 917:..\..\mruby_c2\Design01.cydsn/vm.c ****     if( regs[ra+1].tt == MRB_TT_FLOAT ) {	// in case of Float, Float
 918:..\..\mruby_c2\Design01.cydsn/vm.c ****       regs[ra].d -= regs[ra+1].d;
 919:..\..\mruby_c2\Design01.cydsn/vm.c ****       return 0;
 920:..\..\mruby_c2\Design01.cydsn/vm.c ****     }
 921:..\..\mruby_c2\Design01.cydsn/vm.c **** #endif
 922:..\..\mruby_c2\Design01.cydsn/vm.c ****   }
 923:..\..\mruby_c2\Design01.cydsn/vm.c **** 
 924:..\..\mruby_c2\Design01.cydsn/vm.c ****   // other case
 925:..\..\mruby_c2\Design01.cydsn/vm.c ****   op_send(vm, code, regs);
 926:..\..\mruby_c2\Design01.cydsn/vm.c ****   mrbc_release(&regs[ra+1]);
 927:..\..\mruby_c2\Design01.cydsn/vm.c ****   return 0;
 928:..\..\mruby_c2\Design01.cydsn/vm.c **** }
 929:..\..\mruby_c2\Design01.cydsn/vm.c **** 
 930:..\..\mruby_c2\Design01.cydsn/vm.c **** 
 931:..\..\mruby_c2\Design01.cydsn/vm.c **** //================================================================
 932:..\..\mruby_c2\Design01.cydsn/vm.c **** /*!@brief
 933:..\..\mruby_c2\Design01.cydsn/vm.c ****   Execute OP_SUBI
 934:..\..\mruby_c2\Design01.cydsn/vm.c **** 
 935:..\..\mruby_c2\Design01.cydsn/vm.c ****   R(A) := R(A)-C (Syms[B]=:-)
 936:..\..\mruby_c2\Design01.cydsn/vm.c **** 
 937:..\..\mruby_c2\Design01.cydsn/vm.c ****   @param  vm    A pointer of VM.
 938:..\..\mruby_c2\Design01.cydsn/vm.c ****   @param  code  bytecode
 939:..\..\mruby_c2\Design01.cydsn/vm.c ****   @param  regs  vm->regs + vm->reg_top
 940:..\..\mruby_c2\Design01.cydsn/vm.c ****   @retval 0  No error.
 941:..\..\mruby_c2\Design01.cydsn/vm.c **** */
 942:..\..\mruby_c2\Design01.cydsn/vm.c **** inline static int op_subi( mrb_vm *vm, uint32_t code, mrb_value *regs )
 943:..\..\mruby_c2\Design01.cydsn/vm.c **** {
 944:..\..\mruby_c2\Design01.cydsn/vm.c ****   int ra = GETARG_A(code);
 945:..\..\mruby_c2\Design01.cydsn/vm.c **** 
 946:..\..\mruby_c2\Design01.cydsn/vm.c ****   if( regs[ra].tt == MRB_TT_FIXNUM ) {
 947:..\..\mruby_c2\Design01.cydsn/vm.c ****     regs[ra].i -= GETARG_C(code);
 948:..\..\mruby_c2\Design01.cydsn/vm.c ****     return 0;
 949:..\..\mruby_c2\Design01.cydsn/vm.c ****   }
 950:..\..\mruby_c2\Design01.cydsn/vm.c **** 
 951:..\..\mruby_c2\Design01.cydsn/vm.c **** #if MRBC_USE_FLOAT
 952:..\..\mruby_c2\Design01.cydsn/vm.c ****   if( regs[ra].tt == MRB_TT_FLOAT ) {
 953:..\..\mruby_c2\Design01.cydsn/vm.c ****     regs[ra].d -= GETARG_C(code);
 954:..\..\mruby_c2\Design01.cydsn/vm.c ****     return 0;
 955:..\..\mruby_c2\Design01.cydsn/vm.c ****   }
 956:..\..\mruby_c2\Design01.cydsn/vm.c **** #endif
 957:..\..\mruby_c2\Design01.cydsn/vm.c **** 
 958:..\..\mruby_c2\Design01.cydsn/vm.c ****   not_supported();
 959:..\..\mruby_c2\Design01.cydsn/vm.c ****   return 0;
 960:..\..\mruby_c2\Design01.cydsn/vm.c **** }
 961:..\..\mruby_c2\Design01.cydsn/vm.c **** 
 962:..\..\mruby_c2\Design01.cydsn/vm.c **** 
 963:..\..\mruby_c2\Design01.cydsn/vm.c **** //================================================================
 964:..\..\mruby_c2\Design01.cydsn/vm.c **** /*!@brief
 965:..\..\mruby_c2\Design01.cydsn/vm.c ****   Execute OP_MUL
 966:..\..\mruby_c2\Design01.cydsn/vm.c **** 
 967:..\..\mruby_c2\Design01.cydsn/vm.c ****   R(A) := R(A)*R(A+1) (Syms[B]=:*)
 968:..\..\mruby_c2\Design01.cydsn/vm.c **** 
 969:..\..\mruby_c2\Design01.cydsn/vm.c ****   @param  vm    A pointer of VM.
 970:..\..\mruby_c2\Design01.cydsn/vm.c ****   @param  code  bytecode
 971:..\..\mruby_c2\Design01.cydsn/vm.c ****   @param  regs  vm->regs + vm->reg_top
ARM GAS  C:\Users\164\AppData\Local\Temp\cc4PZf78.s 			page 26


 972:..\..\mruby_c2\Design01.cydsn/vm.c ****   @retval 0  No error.
 973:..\..\mruby_c2\Design01.cydsn/vm.c **** */
 974:..\..\mruby_c2\Design01.cydsn/vm.c **** inline static int op_mul( mrb_vm *vm, uint32_t code, mrb_value *regs )
 975:..\..\mruby_c2\Design01.cydsn/vm.c **** {
 976:..\..\mruby_c2\Design01.cydsn/vm.c ****   int ra = GETARG_A(code);
 977:..\..\mruby_c2\Design01.cydsn/vm.c **** 
 978:..\..\mruby_c2\Design01.cydsn/vm.c ****   if( regs[ra].tt == MRB_TT_FIXNUM ) {
 979:..\..\mruby_c2\Design01.cydsn/vm.c ****     if( regs[ra+1].tt == MRB_TT_FIXNUM ) {	// in case of Fixnum, Fixnum
 980:..\..\mruby_c2\Design01.cydsn/vm.c ****       regs[ra].i *= regs[ra+1].i;
 981:..\..\mruby_c2\Design01.cydsn/vm.c ****       return 0;
 982:..\..\mruby_c2\Design01.cydsn/vm.c ****     }
 983:..\..\mruby_c2\Design01.cydsn/vm.c **** #if MRBC_USE_FLOAT
 984:..\..\mruby_c2\Design01.cydsn/vm.c ****     if( regs[ra+1].tt == MRB_TT_FLOAT ) {	// in case of Fixnum, Float
 985:..\..\mruby_c2\Design01.cydsn/vm.c ****       regs[ra].tt = MRB_TT_FLOAT;
 986:..\..\mruby_c2\Design01.cydsn/vm.c ****       regs[ra].d = regs[ra].i * regs[ra+1].d;
 987:..\..\mruby_c2\Design01.cydsn/vm.c ****       return 0;
 988:..\..\mruby_c2\Design01.cydsn/vm.c ****     }
 989:..\..\mruby_c2\Design01.cydsn/vm.c ****   }
 990:..\..\mruby_c2\Design01.cydsn/vm.c ****   if( regs[ra].tt == MRB_TT_FLOAT ) {
 991:..\..\mruby_c2\Design01.cydsn/vm.c ****     if( regs[ra+1].tt == MRB_TT_FIXNUM ) {	// in case of Float, Fixnum
 992:..\..\mruby_c2\Design01.cydsn/vm.c ****       regs[ra].d *= regs[ra+1].i;
 993:..\..\mruby_c2\Design01.cydsn/vm.c ****       return 0;
 994:..\..\mruby_c2\Design01.cydsn/vm.c ****     }
 995:..\..\mruby_c2\Design01.cydsn/vm.c ****     if( regs[ra+1].tt == MRB_TT_FLOAT ) {	// in case of Float, Float
 996:..\..\mruby_c2\Design01.cydsn/vm.c ****       regs[ra].d *= regs[ra+1].d;
 997:..\..\mruby_c2\Design01.cydsn/vm.c ****       return 0;
 998:..\..\mruby_c2\Design01.cydsn/vm.c ****     }
 999:..\..\mruby_c2\Design01.cydsn/vm.c **** #endif
1000:..\..\mruby_c2\Design01.cydsn/vm.c ****   }
1001:..\..\mruby_c2\Design01.cydsn/vm.c **** 
1002:..\..\mruby_c2\Design01.cydsn/vm.c ****   // other case
1003:..\..\mruby_c2\Design01.cydsn/vm.c ****   op_send(vm, code, regs);
1004:..\..\mruby_c2\Design01.cydsn/vm.c ****   mrbc_release(&regs[ra+1]);
1005:..\..\mruby_c2\Design01.cydsn/vm.c ****   return 0;
1006:..\..\mruby_c2\Design01.cydsn/vm.c **** }
1007:..\..\mruby_c2\Design01.cydsn/vm.c **** 
1008:..\..\mruby_c2\Design01.cydsn/vm.c **** 
1009:..\..\mruby_c2\Design01.cydsn/vm.c **** //================================================================
1010:..\..\mruby_c2\Design01.cydsn/vm.c **** /*!@brief
1011:..\..\mruby_c2\Design01.cydsn/vm.c ****   Execute OP_DIV
1012:..\..\mruby_c2\Design01.cydsn/vm.c **** 
1013:..\..\mruby_c2\Design01.cydsn/vm.c ****   R(A) := R(A)/R(A+1) (Syms[B]=:/)
1014:..\..\mruby_c2\Design01.cydsn/vm.c **** 
1015:..\..\mruby_c2\Design01.cydsn/vm.c ****   @param  vm    A pointer of VM.
1016:..\..\mruby_c2\Design01.cydsn/vm.c ****   @param  code  bytecode
1017:..\..\mruby_c2\Design01.cydsn/vm.c ****   @param  regs  vm->regs + vm->reg_top
1018:..\..\mruby_c2\Design01.cydsn/vm.c ****   @retval 0  No error.
1019:..\..\mruby_c2\Design01.cydsn/vm.c **** */
1020:..\..\mruby_c2\Design01.cydsn/vm.c **** inline static int op_div( mrb_vm *vm, uint32_t code, mrb_value *regs )
1021:..\..\mruby_c2\Design01.cydsn/vm.c **** {
1022:..\..\mruby_c2\Design01.cydsn/vm.c ****   int ra = GETARG_A(code);
1023:..\..\mruby_c2\Design01.cydsn/vm.c **** 
1024:..\..\mruby_c2\Design01.cydsn/vm.c ****   if( regs[ra].tt == MRB_TT_FIXNUM ) {
1025:..\..\mruby_c2\Design01.cydsn/vm.c ****     if( regs[ra+1].tt == MRB_TT_FIXNUM ) {	// in case of Fixnum, Fixnum
1026:..\..\mruby_c2\Design01.cydsn/vm.c ****       regs[ra].i /= regs[ra+1].i;
1027:..\..\mruby_c2\Design01.cydsn/vm.c ****       return 0;
1028:..\..\mruby_c2\Design01.cydsn/vm.c ****     }
ARM GAS  C:\Users\164\AppData\Local\Temp\cc4PZf78.s 			page 27


1029:..\..\mruby_c2\Design01.cydsn/vm.c **** #if MRBC_USE_FLOAT
1030:..\..\mruby_c2\Design01.cydsn/vm.c ****     if( regs[ra+1].tt == MRB_TT_FLOAT ) {	// in case of Fixnum, Float
1031:..\..\mruby_c2\Design01.cydsn/vm.c ****       regs[ra].tt = MRB_TT_FLOAT;
1032:..\..\mruby_c2\Design01.cydsn/vm.c ****       regs[ra].d = regs[ra].i / regs[ra+1].d;
1033:..\..\mruby_c2\Design01.cydsn/vm.c ****       return 0;
1034:..\..\mruby_c2\Design01.cydsn/vm.c ****     }
1035:..\..\mruby_c2\Design01.cydsn/vm.c ****   }
1036:..\..\mruby_c2\Design01.cydsn/vm.c ****   if( regs[ra].tt == MRB_TT_FLOAT ) {
1037:..\..\mruby_c2\Design01.cydsn/vm.c ****     if( regs[ra+1].tt == MRB_TT_FIXNUM ) {	// in case of Float, Fixnum
1038:..\..\mruby_c2\Design01.cydsn/vm.c ****       regs[ra].d /= regs[ra+1].i;
1039:..\..\mruby_c2\Design01.cydsn/vm.c ****       return 0;
1040:..\..\mruby_c2\Design01.cydsn/vm.c ****     }
1041:..\..\mruby_c2\Design01.cydsn/vm.c ****     if( regs[ra+1].tt == MRB_TT_FLOAT ) {	// in case of Float, Float
1042:..\..\mruby_c2\Design01.cydsn/vm.c ****       regs[ra].d /= regs[ra+1].d;
1043:..\..\mruby_c2\Design01.cydsn/vm.c ****       return 0;
1044:..\..\mruby_c2\Design01.cydsn/vm.c ****     }
1045:..\..\mruby_c2\Design01.cydsn/vm.c **** #endif
1046:..\..\mruby_c2\Design01.cydsn/vm.c ****   }
1047:..\..\mruby_c2\Design01.cydsn/vm.c **** 
1048:..\..\mruby_c2\Design01.cydsn/vm.c ****   // other case
1049:..\..\mruby_c2\Design01.cydsn/vm.c ****   op_send(vm, code, regs);
1050:..\..\mruby_c2\Design01.cydsn/vm.c ****   mrbc_release(&regs[ra+1]);
1051:..\..\mruby_c2\Design01.cydsn/vm.c ****   return 0;
1052:..\..\mruby_c2\Design01.cydsn/vm.c **** }
1053:..\..\mruby_c2\Design01.cydsn/vm.c **** 
1054:..\..\mruby_c2\Design01.cydsn/vm.c **** 
1055:..\..\mruby_c2\Design01.cydsn/vm.c **** //================================================================
1056:..\..\mruby_c2\Design01.cydsn/vm.c **** /*!@brief
1057:..\..\mruby_c2\Design01.cydsn/vm.c ****   Execute OP_EQ
1058:..\..\mruby_c2\Design01.cydsn/vm.c **** 
1059:..\..\mruby_c2\Design01.cydsn/vm.c ****   R(A) := R(A)==R(A+1)  (Syms[B]=:==,C=1)
1060:..\..\mruby_c2\Design01.cydsn/vm.c **** 
1061:..\..\mruby_c2\Design01.cydsn/vm.c ****   @param  vm    A pointer of VM.
1062:..\..\mruby_c2\Design01.cydsn/vm.c ****   @param  code  bytecode
1063:..\..\mruby_c2\Design01.cydsn/vm.c ****   @param  regs  vm->regs + vm->reg_top
1064:..\..\mruby_c2\Design01.cydsn/vm.c ****   @retval 0  No error.
1065:..\..\mruby_c2\Design01.cydsn/vm.c **** */
1066:..\..\mruby_c2\Design01.cydsn/vm.c **** inline static int op_eq( mrb_vm *vm, uint32_t code, mrb_value *regs )
1067:..\..\mruby_c2\Design01.cydsn/vm.c **** {
1068:..\..\mruby_c2\Design01.cydsn/vm.c ****   int ra = GETARG_A(code);
1069:..\..\mruby_c2\Design01.cydsn/vm.c ****   int result = mrbc_compare(&regs[ra], &regs[ra+1]);
1070:..\..\mruby_c2\Design01.cydsn/vm.c **** 
1071:..\..\mruby_c2\Design01.cydsn/vm.c ****   mrbc_release(&regs[ra+1]);
1072:..\..\mruby_c2\Design01.cydsn/vm.c ****   mrbc_release(&regs[ra]);
1073:..\..\mruby_c2\Design01.cydsn/vm.c ****   regs[ra].tt = result ? MRB_TT_FALSE : MRB_TT_TRUE;
1074:..\..\mruby_c2\Design01.cydsn/vm.c **** 
1075:..\..\mruby_c2\Design01.cydsn/vm.c ****   return 0;
1076:..\..\mruby_c2\Design01.cydsn/vm.c **** }
1077:..\..\mruby_c2\Design01.cydsn/vm.c **** 
1078:..\..\mruby_c2\Design01.cydsn/vm.c **** 
1079:..\..\mruby_c2\Design01.cydsn/vm.c **** //================================================================
1080:..\..\mruby_c2\Design01.cydsn/vm.c **** /*!@brief
1081:..\..\mruby_c2\Design01.cydsn/vm.c ****   Execute OP_LT
1082:..\..\mruby_c2\Design01.cydsn/vm.c **** 
1083:..\..\mruby_c2\Design01.cydsn/vm.c ****   R(A) := R(A)<R(A+1)  (Syms[B]=:<,C=1)
1084:..\..\mruby_c2\Design01.cydsn/vm.c **** 
1085:..\..\mruby_c2\Design01.cydsn/vm.c ****   @param  vm    A pointer of VM.
ARM GAS  C:\Users\164\AppData\Local\Temp\cc4PZf78.s 			page 28


1086:..\..\mruby_c2\Design01.cydsn/vm.c ****   @param  code  bytecode
1087:..\..\mruby_c2\Design01.cydsn/vm.c ****   @param  regs  vm->regs + vm->reg_top
1088:..\..\mruby_c2\Design01.cydsn/vm.c ****   @retval 0  No error.
1089:..\..\mruby_c2\Design01.cydsn/vm.c **** */
1090:..\..\mruby_c2\Design01.cydsn/vm.c **** inline static int op_lt( mrb_vm *vm, uint32_t code, mrb_value *regs )
1091:..\..\mruby_c2\Design01.cydsn/vm.c **** {
1092:..\..\mruby_c2\Design01.cydsn/vm.c ****   int ra = GETARG_A(code);
1093:..\..\mruby_c2\Design01.cydsn/vm.c ****   int result;
1094:..\..\mruby_c2\Design01.cydsn/vm.c **** 
1095:..\..\mruby_c2\Design01.cydsn/vm.c ****   if( regs[ra].tt == MRB_TT_FIXNUM ) {
1096:..\..\mruby_c2\Design01.cydsn/vm.c ****     if( regs[ra+1].tt == MRB_TT_FIXNUM ) {
1097:..\..\mruby_c2\Design01.cydsn/vm.c ****       result = regs[ra].i < regs[ra+1].i;	// in case of Fixnum, Fixnum
1098:..\..\mruby_c2\Design01.cydsn/vm.c ****       goto DONE;
1099:..\..\mruby_c2\Design01.cydsn/vm.c ****     }
1100:..\..\mruby_c2\Design01.cydsn/vm.c **** #if MRBC_USE_FLOAT
1101:..\..\mruby_c2\Design01.cydsn/vm.c ****     if( regs[ra+1].tt == MRB_TT_FLOAT ) {
1102:..\..\mruby_c2\Design01.cydsn/vm.c ****       result = regs[ra].i < regs[ra+1].d;	// in case of Fixnum, Float
1103:..\..\mruby_c2\Design01.cydsn/vm.c ****       goto DONE;
1104:..\..\mruby_c2\Design01.cydsn/vm.c ****     }
1105:..\..\mruby_c2\Design01.cydsn/vm.c ****   }
1106:..\..\mruby_c2\Design01.cydsn/vm.c ****   if( regs[ra].tt == MRB_TT_FLOAT ) {
1107:..\..\mruby_c2\Design01.cydsn/vm.c ****     if( regs[ra+1].tt == MRB_TT_FIXNUM ) {
1108:..\..\mruby_c2\Design01.cydsn/vm.c ****       result = regs[ra].d < regs[ra+1].i;	// in case of Float, Fixnum
1109:..\..\mruby_c2\Design01.cydsn/vm.c ****       goto DONE;
1110:..\..\mruby_c2\Design01.cydsn/vm.c ****     }
1111:..\..\mruby_c2\Design01.cydsn/vm.c ****     if( regs[ra+1].tt == MRB_TT_FLOAT ) {
1112:..\..\mruby_c2\Design01.cydsn/vm.c ****       result = regs[ra].d < regs[ra+1].d;	// in case of Float, Float
1113:..\..\mruby_c2\Design01.cydsn/vm.c ****       goto DONE;
1114:..\..\mruby_c2\Design01.cydsn/vm.c ****     }
1115:..\..\mruby_c2\Design01.cydsn/vm.c **** #endif
1116:..\..\mruby_c2\Design01.cydsn/vm.c ****   }
1117:..\..\mruby_c2\Design01.cydsn/vm.c **** 
1118:..\..\mruby_c2\Design01.cydsn/vm.c ****   // other case
1119:..\..\mruby_c2\Design01.cydsn/vm.c ****   op_send(vm, code, regs);
1120:..\..\mruby_c2\Design01.cydsn/vm.c ****   mrbc_release(&regs[ra+1]);
1121:..\..\mruby_c2\Design01.cydsn/vm.c ****   return 0;
1122:..\..\mruby_c2\Design01.cydsn/vm.c **** 
1123:..\..\mruby_c2\Design01.cydsn/vm.c **** DONE:
1124:..\..\mruby_c2\Design01.cydsn/vm.c ****   regs[ra].tt = result ? MRB_TT_TRUE : MRB_TT_FALSE;
1125:..\..\mruby_c2\Design01.cydsn/vm.c ****   return 0;
1126:..\..\mruby_c2\Design01.cydsn/vm.c **** }
1127:..\..\mruby_c2\Design01.cydsn/vm.c **** 
1128:..\..\mruby_c2\Design01.cydsn/vm.c **** 
1129:..\..\mruby_c2\Design01.cydsn/vm.c **** //================================================================
1130:..\..\mruby_c2\Design01.cydsn/vm.c **** /*!@brief
1131:..\..\mruby_c2\Design01.cydsn/vm.c ****   Execute OP_LE
1132:..\..\mruby_c2\Design01.cydsn/vm.c **** 
1133:..\..\mruby_c2\Design01.cydsn/vm.c ****   R(A) := R(A)<=R(A+1)  (Syms[B]=:<=,C=1)
1134:..\..\mruby_c2\Design01.cydsn/vm.c **** 
1135:..\..\mruby_c2\Design01.cydsn/vm.c ****   @param  vm    A pointer of VM.
1136:..\..\mruby_c2\Design01.cydsn/vm.c ****   @param  code  bytecode
1137:..\..\mruby_c2\Design01.cydsn/vm.c ****   @param  regs  vm->regs + vm->reg_top
1138:..\..\mruby_c2\Design01.cydsn/vm.c ****   @retval 0  No error.
1139:..\..\mruby_c2\Design01.cydsn/vm.c **** */
1140:..\..\mruby_c2\Design01.cydsn/vm.c **** inline static int op_le( mrb_vm *vm, uint32_t code, mrb_value *regs )
1141:..\..\mruby_c2\Design01.cydsn/vm.c **** {
1142:..\..\mruby_c2\Design01.cydsn/vm.c ****   int ra = GETARG_A(code);
ARM GAS  C:\Users\164\AppData\Local\Temp\cc4PZf78.s 			page 29


1143:..\..\mruby_c2\Design01.cydsn/vm.c ****   int result;
1144:..\..\mruby_c2\Design01.cydsn/vm.c **** 
1145:..\..\mruby_c2\Design01.cydsn/vm.c ****   if( regs[ra].tt == MRB_TT_FIXNUM ) {
1146:..\..\mruby_c2\Design01.cydsn/vm.c ****     if( regs[ra+1].tt == MRB_TT_FIXNUM ) {
1147:..\..\mruby_c2\Design01.cydsn/vm.c ****       result = regs[ra].i <= regs[ra+1].i;	// in case of Fixnum, Fixnum
1148:..\..\mruby_c2\Design01.cydsn/vm.c ****       goto DONE;
1149:..\..\mruby_c2\Design01.cydsn/vm.c ****     }
1150:..\..\mruby_c2\Design01.cydsn/vm.c **** #if MRBC_USE_FLOAT
1151:..\..\mruby_c2\Design01.cydsn/vm.c ****     if( regs[ra+1].tt == MRB_TT_FLOAT ) {
1152:..\..\mruby_c2\Design01.cydsn/vm.c ****       result = regs[ra].i <= regs[ra+1].d;	// in case of Fixnum, Float
1153:..\..\mruby_c2\Design01.cydsn/vm.c ****       goto DONE;
1154:..\..\mruby_c2\Design01.cydsn/vm.c ****     }
1155:..\..\mruby_c2\Design01.cydsn/vm.c ****   }
1156:..\..\mruby_c2\Design01.cydsn/vm.c ****   if( regs[ra].tt == MRB_TT_FLOAT ) {
1157:..\..\mruby_c2\Design01.cydsn/vm.c ****     if( regs[ra+1].tt == MRB_TT_FIXNUM ) {
1158:..\..\mruby_c2\Design01.cydsn/vm.c ****       result = regs[ra].d <= regs[ra+1].i;	// in case of Float, Fixnum
1159:..\..\mruby_c2\Design01.cydsn/vm.c ****       goto DONE;
1160:..\..\mruby_c2\Design01.cydsn/vm.c ****     }
1161:..\..\mruby_c2\Design01.cydsn/vm.c ****     if( regs[ra+1].tt == MRB_TT_FLOAT ) {
1162:..\..\mruby_c2\Design01.cydsn/vm.c ****       result = regs[ra].d <= regs[ra+1].d;	// in case of Float, Float
1163:..\..\mruby_c2\Design01.cydsn/vm.c ****       goto DONE;
1164:..\..\mruby_c2\Design01.cydsn/vm.c ****     }
1165:..\..\mruby_c2\Design01.cydsn/vm.c **** #endif
1166:..\..\mruby_c2\Design01.cydsn/vm.c ****   }
1167:..\..\mruby_c2\Design01.cydsn/vm.c **** 
1168:..\..\mruby_c2\Design01.cydsn/vm.c ****   // other case
1169:..\..\mruby_c2\Design01.cydsn/vm.c ****   op_send(vm, code, regs);
1170:..\..\mruby_c2\Design01.cydsn/vm.c ****   mrbc_release(&regs[ra+1]);
1171:..\..\mruby_c2\Design01.cydsn/vm.c ****   return 0;
1172:..\..\mruby_c2\Design01.cydsn/vm.c **** 
1173:..\..\mruby_c2\Design01.cydsn/vm.c **** DONE:
1174:..\..\mruby_c2\Design01.cydsn/vm.c ****   regs[ra].tt = result ? MRB_TT_TRUE : MRB_TT_FALSE;
1175:..\..\mruby_c2\Design01.cydsn/vm.c ****   return 0;
1176:..\..\mruby_c2\Design01.cydsn/vm.c **** }
1177:..\..\mruby_c2\Design01.cydsn/vm.c **** 
1178:..\..\mruby_c2\Design01.cydsn/vm.c **** 
1179:..\..\mruby_c2\Design01.cydsn/vm.c **** //================================================================
1180:..\..\mruby_c2\Design01.cydsn/vm.c **** /*!@brief
1181:..\..\mruby_c2\Design01.cydsn/vm.c ****   Execute OP_GT
1182:..\..\mruby_c2\Design01.cydsn/vm.c **** 
1183:..\..\mruby_c2\Design01.cydsn/vm.c ****   R(A) := R(A)>=R(A+1) (Syms[B]=:>=,C=1)
1184:..\..\mruby_c2\Design01.cydsn/vm.c **** 
1185:..\..\mruby_c2\Design01.cydsn/vm.c ****   @param  vm    A pointer of VM.
1186:..\..\mruby_c2\Design01.cydsn/vm.c ****   @param  code  bytecode
1187:..\..\mruby_c2\Design01.cydsn/vm.c ****   @param  regs  vm->regs + vm->reg_top
1188:..\..\mruby_c2\Design01.cydsn/vm.c ****   @retval 0  No error.
1189:..\..\mruby_c2\Design01.cydsn/vm.c **** */
1190:..\..\mruby_c2\Design01.cydsn/vm.c **** inline static int op_gt( mrb_vm *vm, uint32_t code, mrb_value *regs )
1191:..\..\mruby_c2\Design01.cydsn/vm.c **** {
1192:..\..\mruby_c2\Design01.cydsn/vm.c ****   int ra = GETARG_A(code);
1193:..\..\mruby_c2\Design01.cydsn/vm.c ****   int result;
1194:..\..\mruby_c2\Design01.cydsn/vm.c **** 
1195:..\..\mruby_c2\Design01.cydsn/vm.c ****   if( regs[ra].tt == MRB_TT_FIXNUM ) {
1196:..\..\mruby_c2\Design01.cydsn/vm.c ****     if( regs[ra+1].tt == MRB_TT_FIXNUM ) {
1197:..\..\mruby_c2\Design01.cydsn/vm.c ****       result = regs[ra].i > regs[ra+1].i;	// in case of Fixnum, Fixnum
1198:..\..\mruby_c2\Design01.cydsn/vm.c ****       goto DONE;
1199:..\..\mruby_c2\Design01.cydsn/vm.c ****     }
ARM GAS  C:\Users\164\AppData\Local\Temp\cc4PZf78.s 			page 30


1200:..\..\mruby_c2\Design01.cydsn/vm.c **** #if MRBC_USE_FLOAT
1201:..\..\mruby_c2\Design01.cydsn/vm.c ****     if( regs[ra+1].tt == MRB_TT_FLOAT ) {
1202:..\..\mruby_c2\Design01.cydsn/vm.c ****       result = regs[ra].i > regs[ra+1].d;	// in case of Fixnum, Float
1203:..\..\mruby_c2\Design01.cydsn/vm.c ****       goto DONE;
1204:..\..\mruby_c2\Design01.cydsn/vm.c ****     }
1205:..\..\mruby_c2\Design01.cydsn/vm.c ****   }
1206:..\..\mruby_c2\Design01.cydsn/vm.c ****   if( regs[ra].tt == MRB_TT_FLOAT ) {
1207:..\..\mruby_c2\Design01.cydsn/vm.c ****     if( regs[ra+1].tt == MRB_TT_FIXNUM ) {
1208:..\..\mruby_c2\Design01.cydsn/vm.c ****       result = regs[ra].d > regs[ra+1].i;	// in case of Float, Fixnum
1209:..\..\mruby_c2\Design01.cydsn/vm.c ****       goto DONE;
1210:..\..\mruby_c2\Design01.cydsn/vm.c ****     }
1211:..\..\mruby_c2\Design01.cydsn/vm.c ****     if( regs[ra+1].tt == MRB_TT_FLOAT ) {
1212:..\..\mruby_c2\Design01.cydsn/vm.c ****       result = regs[ra].d > regs[ra+1].d;	// in case of Float, Float
1213:..\..\mruby_c2\Design01.cydsn/vm.c ****       goto DONE;
1214:..\..\mruby_c2\Design01.cydsn/vm.c ****     }
1215:..\..\mruby_c2\Design01.cydsn/vm.c **** #endif
1216:..\..\mruby_c2\Design01.cydsn/vm.c ****   }
1217:..\..\mruby_c2\Design01.cydsn/vm.c **** 
1218:..\..\mruby_c2\Design01.cydsn/vm.c ****   // other case
1219:..\..\mruby_c2\Design01.cydsn/vm.c ****   op_send(vm, code, regs);
1220:..\..\mruby_c2\Design01.cydsn/vm.c ****   mrbc_release(&regs[ra+1]);
1221:..\..\mruby_c2\Design01.cydsn/vm.c ****   return 0;
1222:..\..\mruby_c2\Design01.cydsn/vm.c **** 
1223:..\..\mruby_c2\Design01.cydsn/vm.c **** DONE:
1224:..\..\mruby_c2\Design01.cydsn/vm.c ****   regs[ra].tt = result ? MRB_TT_TRUE : MRB_TT_FALSE;
1225:..\..\mruby_c2\Design01.cydsn/vm.c ****   return 0;
1226:..\..\mruby_c2\Design01.cydsn/vm.c **** }
1227:..\..\mruby_c2\Design01.cydsn/vm.c **** 
1228:..\..\mruby_c2\Design01.cydsn/vm.c **** 
1229:..\..\mruby_c2\Design01.cydsn/vm.c **** //================================================================
1230:..\..\mruby_c2\Design01.cydsn/vm.c **** /*!@brief
1231:..\..\mruby_c2\Design01.cydsn/vm.c ****   Execute OP_GE
1232:..\..\mruby_c2\Design01.cydsn/vm.c **** 
1233:..\..\mruby_c2\Design01.cydsn/vm.c ****   R(A) := R(A)>=R(A+1) (Syms[B]=:>=,C=1)
1234:..\..\mruby_c2\Design01.cydsn/vm.c **** 
1235:..\..\mruby_c2\Design01.cydsn/vm.c ****   @param  vm    A pointer of VM.
1236:..\..\mruby_c2\Design01.cydsn/vm.c ****   @param  code  bytecode
1237:..\..\mruby_c2\Design01.cydsn/vm.c ****   @param  regs  vm->regs + vm->reg_top
1238:..\..\mruby_c2\Design01.cydsn/vm.c ****   @retval 0  No error.
1239:..\..\mruby_c2\Design01.cydsn/vm.c **** */
1240:..\..\mruby_c2\Design01.cydsn/vm.c **** inline static int op_ge( mrb_vm *vm, uint32_t code, mrb_value *regs )
1241:..\..\mruby_c2\Design01.cydsn/vm.c **** {
1242:..\..\mruby_c2\Design01.cydsn/vm.c ****   int ra = GETARG_A(code);
1243:..\..\mruby_c2\Design01.cydsn/vm.c ****   int result;
1244:..\..\mruby_c2\Design01.cydsn/vm.c **** 
1245:..\..\mruby_c2\Design01.cydsn/vm.c ****   if( regs[ra].tt == MRB_TT_FIXNUM ) {
1246:..\..\mruby_c2\Design01.cydsn/vm.c ****     if( regs[ra+1].tt == MRB_TT_FIXNUM ) {
1247:..\..\mruby_c2\Design01.cydsn/vm.c ****       result = regs[ra].i >= regs[ra+1].i;	// in case of Fixnum, Fixnum
1248:..\..\mruby_c2\Design01.cydsn/vm.c ****       goto DONE;
1249:..\..\mruby_c2\Design01.cydsn/vm.c ****     }
1250:..\..\mruby_c2\Design01.cydsn/vm.c **** #if MRBC_USE_FLOAT
1251:..\..\mruby_c2\Design01.cydsn/vm.c ****     if( regs[ra+1].tt == MRB_TT_FLOAT ) {
1252:..\..\mruby_c2\Design01.cydsn/vm.c ****       result = regs[ra].i >= regs[ra+1].d;	// in case of Fixnum, Float
1253:..\..\mruby_c2\Design01.cydsn/vm.c ****       goto DONE;
1254:..\..\mruby_c2\Design01.cydsn/vm.c ****     }
1255:..\..\mruby_c2\Design01.cydsn/vm.c ****   }
1256:..\..\mruby_c2\Design01.cydsn/vm.c ****   if( regs[ra].tt == MRB_TT_FLOAT ) {
ARM GAS  C:\Users\164\AppData\Local\Temp\cc4PZf78.s 			page 31


1257:..\..\mruby_c2\Design01.cydsn/vm.c ****     if( regs[ra+1].tt == MRB_TT_FIXNUM ) {
1258:..\..\mruby_c2\Design01.cydsn/vm.c ****       result = regs[ra].d >= regs[ra+1].i;	// in case of Float, Fixnum
1259:..\..\mruby_c2\Design01.cydsn/vm.c ****       goto DONE;
1260:..\..\mruby_c2\Design01.cydsn/vm.c ****     }
1261:..\..\mruby_c2\Design01.cydsn/vm.c ****     if( regs[ra+1].tt == MRB_TT_FLOAT ) {
1262:..\..\mruby_c2\Design01.cydsn/vm.c ****       result = regs[ra].d >= regs[ra+1].d;	// in case of Float, Float
1263:..\..\mruby_c2\Design01.cydsn/vm.c ****       goto DONE;
1264:..\..\mruby_c2\Design01.cydsn/vm.c ****     }
1265:..\..\mruby_c2\Design01.cydsn/vm.c **** #endif
1266:..\..\mruby_c2\Design01.cydsn/vm.c ****   }
1267:..\..\mruby_c2\Design01.cydsn/vm.c **** 
1268:..\..\mruby_c2\Design01.cydsn/vm.c ****   // other case
1269:..\..\mruby_c2\Design01.cydsn/vm.c ****   op_send(vm, code, regs);
1270:..\..\mruby_c2\Design01.cydsn/vm.c ****   mrbc_release(&regs[ra+1]);
1271:..\..\mruby_c2\Design01.cydsn/vm.c ****   return 0;
1272:..\..\mruby_c2\Design01.cydsn/vm.c **** 
1273:..\..\mruby_c2\Design01.cydsn/vm.c **** DONE:
1274:..\..\mruby_c2\Design01.cydsn/vm.c ****   regs[ra].tt = result ? MRB_TT_TRUE : MRB_TT_FALSE;
1275:..\..\mruby_c2\Design01.cydsn/vm.c ****   return 0;
1276:..\..\mruby_c2\Design01.cydsn/vm.c **** }
1277:..\..\mruby_c2\Design01.cydsn/vm.c **** 
1278:..\..\mruby_c2\Design01.cydsn/vm.c **** 
1279:..\..\mruby_c2\Design01.cydsn/vm.c **** //================================================================
1280:..\..\mruby_c2\Design01.cydsn/vm.c **** /*!@brief
1281:..\..\mruby_c2\Design01.cydsn/vm.c ****   Create Array object
1282:..\..\mruby_c2\Design01.cydsn/vm.c **** 
1283:..\..\mruby_c2\Design01.cydsn/vm.c ****   R(A) := ary_new(R(B),R(B+1)..R(B+C))
1284:..\..\mruby_c2\Design01.cydsn/vm.c **** 
1285:..\..\mruby_c2\Design01.cydsn/vm.c ****   @param  vm    A pointer of VM.
1286:..\..\mruby_c2\Design01.cydsn/vm.c ****   @param  code  bytecode
1287:..\..\mruby_c2\Design01.cydsn/vm.c ****   @param  regs  vm->regs + vm->reg_top
1288:..\..\mruby_c2\Design01.cydsn/vm.c ****   @retval 0  No error.
1289:..\..\mruby_c2\Design01.cydsn/vm.c **** */
1290:..\..\mruby_c2\Design01.cydsn/vm.c **** inline static int op_array( mrb_vm *vm, uint32_t code, mrb_value *regs )
1291:..\..\mruby_c2\Design01.cydsn/vm.c **** {
1292:..\..\mruby_c2\Design01.cydsn/vm.c ****   int ra = GETARG_A(code);
1293:..\..\mruby_c2\Design01.cydsn/vm.c ****   int rb = GETARG_B(code);
1294:..\..\mruby_c2\Design01.cydsn/vm.c ****   int rc = GETARG_C(code);
1295:..\..\mruby_c2\Design01.cydsn/vm.c **** 
1296:..\..\mruby_c2\Design01.cydsn/vm.c ****   mrb_value value = mrbc_array_new(vm, rc);
1297:..\..\mruby_c2\Design01.cydsn/vm.c ****   if( value.array == NULL ) return -1;	// ENOMEM
1298:..\..\mruby_c2\Design01.cydsn/vm.c **** 
1299:..\..\mruby_c2\Design01.cydsn/vm.c ****   memcpy( value.array->data, &regs[rb], sizeof(mrb_value) * rc );
1300:..\..\mruby_c2\Design01.cydsn/vm.c ****   memset( &regs[rb], 0, sizeof(mrb_value) * rc );
1301:..\..\mruby_c2\Design01.cydsn/vm.c ****   value.array->n_stored = rc;
1302:..\..\mruby_c2\Design01.cydsn/vm.c **** 
1303:..\..\mruby_c2\Design01.cydsn/vm.c ****   mrbc_release(&regs[ra]);
1304:..\..\mruby_c2\Design01.cydsn/vm.c ****   regs[ra] = value;
1305:..\..\mruby_c2\Design01.cydsn/vm.c **** 
1306:..\..\mruby_c2\Design01.cydsn/vm.c ****   return 0;
1307:..\..\mruby_c2\Design01.cydsn/vm.c **** }
1308:..\..\mruby_c2\Design01.cydsn/vm.c **** 
1309:..\..\mruby_c2\Design01.cydsn/vm.c **** 
1310:..\..\mruby_c2\Design01.cydsn/vm.c **** //================================================================
1311:..\..\mruby_c2\Design01.cydsn/vm.c **** /*!@brief
1312:..\..\mruby_c2\Design01.cydsn/vm.c ****   Create string object
1313:..\..\mruby_c2\Design01.cydsn/vm.c **** 
ARM GAS  C:\Users\164\AppData\Local\Temp\cc4PZf78.s 			page 32


1314:..\..\mruby_c2\Design01.cydsn/vm.c ****   R(A) := str_dup(Lit(Bx))
1315:..\..\mruby_c2\Design01.cydsn/vm.c **** 
1316:..\..\mruby_c2\Design01.cydsn/vm.c ****   @param  vm    A pointer of VM.
1317:..\..\mruby_c2\Design01.cydsn/vm.c ****   @param  code  bytecode
1318:..\..\mruby_c2\Design01.cydsn/vm.c ****   @param  regs  vm->regs + vm->reg_top
1319:..\..\mruby_c2\Design01.cydsn/vm.c ****   @retval 0  No error.
1320:..\..\mruby_c2\Design01.cydsn/vm.c **** */
1321:..\..\mruby_c2\Design01.cydsn/vm.c **** inline static int op_string( mrb_vm *vm, uint32_t code, mrb_value *regs )
1322:..\..\mruby_c2\Design01.cydsn/vm.c **** {
1323:..\..\mruby_c2\Design01.cydsn/vm.c **** #if MRBC_USE_STRING
1324:..\..\mruby_c2\Design01.cydsn/vm.c ****   int ra = GETARG_A(code);
1325:..\..\mruby_c2\Design01.cydsn/vm.c ****   int rb = GETARG_Bx(code);
1326:..\..\mruby_c2\Design01.cydsn/vm.c ****   mrb_object *pool_obj = vm->pc_irep->pools[rb];
1327:..\..\mruby_c2\Design01.cydsn/vm.c **** 
1328:..\..\mruby_c2\Design01.cydsn/vm.c ****   /* CAUTION: pool_obj->str - 2. see IREP POOL structure. */
1329:..\..\mruby_c2\Design01.cydsn/vm.c ****   int len = bin_to_uint16(pool_obj->str - 2);
1330:..\..\mruby_c2\Design01.cydsn/vm.c ****   mrb_value value = mrbc_string_new(vm, pool_obj->str, len);
1331:..\..\mruby_c2\Design01.cydsn/vm.c ****   if( value.string == NULL ) return -1;		// ENOMEM
1332:..\..\mruby_c2\Design01.cydsn/vm.c **** 
1333:..\..\mruby_c2\Design01.cydsn/vm.c ****   mrbc_release(&regs[ra]);
1334:..\..\mruby_c2\Design01.cydsn/vm.c ****   regs[ra] = value;
1335:..\..\mruby_c2\Design01.cydsn/vm.c **** 
1336:..\..\mruby_c2\Design01.cydsn/vm.c **** #else
1337:..\..\mruby_c2\Design01.cydsn/vm.c ****   not_supported();
1338:..\..\mruby_c2\Design01.cydsn/vm.c **** #endif
1339:..\..\mruby_c2\Design01.cydsn/vm.c ****   return 0;
1340:..\..\mruby_c2\Design01.cydsn/vm.c **** }
1341:..\..\mruby_c2\Design01.cydsn/vm.c **** 
1342:..\..\mruby_c2\Design01.cydsn/vm.c **** 
1343:..\..\mruby_c2\Design01.cydsn/vm.c **** //================================================================
1344:..\..\mruby_c2\Design01.cydsn/vm.c **** /*!@brief
1345:..\..\mruby_c2\Design01.cydsn/vm.c ****   String Catination
1346:..\..\mruby_c2\Design01.cydsn/vm.c **** 
1347:..\..\mruby_c2\Design01.cydsn/vm.c ****   str_cat(R(A),R(B))
1348:..\..\mruby_c2\Design01.cydsn/vm.c **** 
1349:..\..\mruby_c2\Design01.cydsn/vm.c ****   @param  vm    A pointer of VM.
1350:..\..\mruby_c2\Design01.cydsn/vm.c ****   @param  code  bytecode
1351:..\..\mruby_c2\Design01.cydsn/vm.c ****   @param  regs  vm->regs + vm->reg_top
1352:..\..\mruby_c2\Design01.cydsn/vm.c ****   @retval 0  No error.
1353:..\..\mruby_c2\Design01.cydsn/vm.c **** */
1354:..\..\mruby_c2\Design01.cydsn/vm.c **** inline static int op_strcat( mrb_vm *vm, uint32_t code, mrb_value *regs )
1355:..\..\mruby_c2\Design01.cydsn/vm.c **** {
1356:..\..\mruby_c2\Design01.cydsn/vm.c **** #if MRBC_USE_STRING
1357:..\..\mruby_c2\Design01.cydsn/vm.c ****   int ra = GETARG_A(code);
1358:..\..\mruby_c2\Design01.cydsn/vm.c ****   int rb = GETARG_B(code);
1359:..\..\mruby_c2\Design01.cydsn/vm.c **** 
1360:..\..\mruby_c2\Design01.cydsn/vm.c ****   // call "to_s"
1361:..\..\mruby_c2\Design01.cydsn/vm.c ****   mrb_sym sym_id = str_to_symid("to_s");
1362:..\..\mruby_c2\Design01.cydsn/vm.c ****   mrb_proc *m;
1363:..\..\mruby_c2\Design01.cydsn/vm.c ****   m = find_method(vm, regs[ra], sym_id);
1364:..\..\mruby_c2\Design01.cydsn/vm.c ****   if( m && m->c_func ){
1365:..\..\mruby_c2\Design01.cydsn/vm.c ****     m->func(vm, regs+ra, 0);
1366:..\..\mruby_c2\Design01.cydsn/vm.c ****   } 
1367:..\..\mruby_c2\Design01.cydsn/vm.c ****   m = find_method(vm, regs[rb], sym_id);
1368:..\..\mruby_c2\Design01.cydsn/vm.c ****   if( m && m->c_func ){
1369:..\..\mruby_c2\Design01.cydsn/vm.c ****     m->func(vm, regs+rb, 0);
1370:..\..\mruby_c2\Design01.cydsn/vm.c ****   }
ARM GAS  C:\Users\164\AppData\Local\Temp\cc4PZf78.s 			page 33


1371:..\..\mruby_c2\Design01.cydsn/vm.c **** 
1372:..\..\mruby_c2\Design01.cydsn/vm.c ****   mrb_value v = mrbc_string_add(vm, &regs[ra], &regs[rb]);
1373:..\..\mruby_c2\Design01.cydsn/vm.c ****   mrbc_release(&regs[ra]);
1374:..\..\mruby_c2\Design01.cydsn/vm.c ****   regs[ra] = v;
1375:..\..\mruby_c2\Design01.cydsn/vm.c **** 
1376:..\..\mruby_c2\Design01.cydsn/vm.c **** #else
1377:..\..\mruby_c2\Design01.cydsn/vm.c ****   not_supported();
1378:..\..\mruby_c2\Design01.cydsn/vm.c **** #endif
1379:..\..\mruby_c2\Design01.cydsn/vm.c ****   return 0;
1380:..\..\mruby_c2\Design01.cydsn/vm.c **** }
1381:..\..\mruby_c2\Design01.cydsn/vm.c **** 
1382:..\..\mruby_c2\Design01.cydsn/vm.c **** 
1383:..\..\mruby_c2\Design01.cydsn/vm.c **** 
1384:..\..\mruby_c2\Design01.cydsn/vm.c **** 
1385:..\..\mruby_c2\Design01.cydsn/vm.c **** //================================================================
1386:..\..\mruby_c2\Design01.cydsn/vm.c **** /*!@brief
1387:..\..\mruby_c2\Design01.cydsn/vm.c ****   Execute OP_LAMBDA
1388:..\..\mruby_c2\Design01.cydsn/vm.c **** 
1389:..\..\mruby_c2\Design01.cydsn/vm.c ****   R(A) := lambda(SEQ[Bz],Cz)
1390:..\..\mruby_c2\Design01.cydsn/vm.c **** 
1391:..\..\mruby_c2\Design01.cydsn/vm.c ****   @param  vm    A pointer of VM.
1392:..\..\mruby_c2\Design01.cydsn/vm.c ****   @param  code  bytecode
1393:..\..\mruby_c2\Design01.cydsn/vm.c ****   @param  regs  vm->regs + vm->reg_top
1394:..\..\mruby_c2\Design01.cydsn/vm.c ****   @retval 0  No error.
1395:..\..\mruby_c2\Design01.cydsn/vm.c **** */
1396:..\..\mruby_c2\Design01.cydsn/vm.c **** inline static int op_lambda( mrb_vm *vm, uint32_t code, mrb_value *regs )
1397:..\..\mruby_c2\Design01.cydsn/vm.c **** {
1398:..\..\mruby_c2\Design01.cydsn/vm.c ****   int ra = GETARG_A(code);
1399:..\..\mruby_c2\Design01.cydsn/vm.c ****   int rb = GETARG_Bz(code);      // sequence position in irep list
1400:..\..\mruby_c2\Design01.cydsn/vm.c ****   // int c = GETARG_C(code);    // TODO: Add flags support for OP_LAMBDA
1401:..\..\mruby_c2\Design01.cydsn/vm.c ****   mrb_proc *proc = mrbc_rproc_alloc(vm, "(lambda)");
1402:..\..\mruby_c2\Design01.cydsn/vm.c **** 
1403:..\..\mruby_c2\Design01.cydsn/vm.c ****   proc->c_func = 0;
1404:..\..\mruby_c2\Design01.cydsn/vm.c ****   proc->irep = vm->pc_irep->reps[rb];
1405:..\..\mruby_c2\Design01.cydsn/vm.c **** 
1406:..\..\mruby_c2\Design01.cydsn/vm.c ****   mrbc_release(&regs[ra]);
1407:..\..\mruby_c2\Design01.cydsn/vm.c ****   regs[ra].tt = MRB_TT_PROC;
1408:..\..\mruby_c2\Design01.cydsn/vm.c ****   regs[ra].proc = proc;
1409:..\..\mruby_c2\Design01.cydsn/vm.c **** 
1410:..\..\mruby_c2\Design01.cydsn/vm.c ****   return 0;
1411:..\..\mruby_c2\Design01.cydsn/vm.c **** }
1412:..\..\mruby_c2\Design01.cydsn/vm.c **** 
1413:..\..\mruby_c2\Design01.cydsn/vm.c **** 
1414:..\..\mruby_c2\Design01.cydsn/vm.c **** //================================================================
1415:..\..\mruby_c2\Design01.cydsn/vm.c **** /*!@brief
1416:..\..\mruby_c2\Design01.cydsn/vm.c ****   Execute OP_RANGE
1417:..\..\mruby_c2\Design01.cydsn/vm.c **** 
1418:..\..\mruby_c2\Design01.cydsn/vm.c ****   R(A) := range_new(R(B),R(B+1),C)
1419:..\..\mruby_c2\Design01.cydsn/vm.c **** 
1420:..\..\mruby_c2\Design01.cydsn/vm.c ****   @param  vm    A pointer of VM.
1421:..\..\mruby_c2\Design01.cydsn/vm.c ****   @param  code  bytecode
1422:..\..\mruby_c2\Design01.cydsn/vm.c ****   @param  regs  vm->regs + vm->reg_top
1423:..\..\mruby_c2\Design01.cydsn/vm.c ****   @retval 0  No error.
1424:..\..\mruby_c2\Design01.cydsn/vm.c **** */
1425:..\..\mruby_c2\Design01.cydsn/vm.c **** inline static int op_range( mrb_vm *vm, uint32_t code, mrb_value *regs )
1426:..\..\mruby_c2\Design01.cydsn/vm.c **** {
1427:..\..\mruby_c2\Design01.cydsn/vm.c ****   int ra = GETARG_A(code);
ARM GAS  C:\Users\164\AppData\Local\Temp\cc4PZf78.s 			page 34


1428:..\..\mruby_c2\Design01.cydsn/vm.c ****   int rb = GETARG_B(code);
1429:..\..\mruby_c2\Design01.cydsn/vm.c ****   int rc = GETARG_C(code);
1430:..\..\mruby_c2\Design01.cydsn/vm.c **** 
1431:..\..\mruby_c2\Design01.cydsn/vm.c ****   mrbc_dup(&regs[rb]);
1432:..\..\mruby_c2\Design01.cydsn/vm.c ****   mrbc_dup(&regs[rb+1]);
1433:..\..\mruby_c2\Design01.cydsn/vm.c **** 
1434:..\..\mruby_c2\Design01.cydsn/vm.c ****   mrb_value value = mrbc_range_new(vm, &regs[rb], &regs[rb+1], rc);
1435:..\..\mruby_c2\Design01.cydsn/vm.c ****   if( value.range == NULL ) return -1;		// ENOMEM
1436:..\..\mruby_c2\Design01.cydsn/vm.c **** 
1437:..\..\mruby_c2\Design01.cydsn/vm.c ****   mrbc_release(&regs[ra]);
1438:..\..\mruby_c2\Design01.cydsn/vm.c ****   regs[ra] = value;
1439:..\..\mruby_c2\Design01.cydsn/vm.c **** 
1440:..\..\mruby_c2\Design01.cydsn/vm.c ****   return 0;
1441:..\..\mruby_c2\Design01.cydsn/vm.c **** }
1442:..\..\mruby_c2\Design01.cydsn/vm.c **** 
1443:..\..\mruby_c2\Design01.cydsn/vm.c **** 
1444:..\..\mruby_c2\Design01.cydsn/vm.c **** //================================================================
1445:..\..\mruby_c2\Design01.cydsn/vm.c **** /*!@brief
1446:..\..\mruby_c2\Design01.cydsn/vm.c ****   Execute OP_CLASS
1447:..\..\mruby_c2\Design01.cydsn/vm.c **** 
1448:..\..\mruby_c2\Design01.cydsn/vm.c ****     R(A) := newclass(R(A),Syms(B),R(A+1))
1449:..\..\mruby_c2\Design01.cydsn/vm.c ****     Syms(B): class name
1450:..\..\mruby_c2\Design01.cydsn/vm.c ****     R(A+1): super class
1451:..\..\mruby_c2\Design01.cydsn/vm.c **** 
1452:..\..\mruby_c2\Design01.cydsn/vm.c ****   @param  vm    A pointer of VM.
1453:..\..\mruby_c2\Design01.cydsn/vm.c ****   @param  code  bytecode
1454:..\..\mruby_c2\Design01.cydsn/vm.c ****   @param  regs  vm->regs + vm->reg_top
1455:..\..\mruby_c2\Design01.cydsn/vm.c ****   @retval 0  No error.
1456:..\..\mruby_c2\Design01.cydsn/vm.c **** */
1457:..\..\mruby_c2\Design01.cydsn/vm.c **** inline static int op_class( mrb_vm *vm, uint32_t code, mrb_value *regs )
1458:..\..\mruby_c2\Design01.cydsn/vm.c **** {
1459:..\..\mruby_c2\Design01.cydsn/vm.c ****   int ra = GETARG_A(code);
1460:..\..\mruby_c2\Design01.cydsn/vm.c ****   int rb = GETARG_B(code);
1461:..\..\mruby_c2\Design01.cydsn/vm.c **** 
1462:..\..\mruby_c2\Design01.cydsn/vm.c ****   mrb_irep *cur_irep = vm->pc_irep;
1463:..\..\mruby_c2\Design01.cydsn/vm.c ****   const char *sym_name = mrbc_get_irep_symbol(cur_irep->ptr_to_sym, rb);
1464:..\..\mruby_c2\Design01.cydsn/vm.c ****   mrb_class *super = (regs[ra+1].tt == MRB_TT_CLASS) ? regs[ra+1].cls : mrbc_class_object;
1465:..\..\mruby_c2\Design01.cydsn/vm.c **** 
1466:..\..\mruby_c2\Design01.cydsn/vm.c ****   mrb_class *cls = mrbc_define_class(vm, sym_name, super);
1467:..\..\mruby_c2\Design01.cydsn/vm.c **** 
1468:..\..\mruby_c2\Design01.cydsn/vm.c ****   mrb_value ret = {.tt = MRB_TT_CLASS};
1469:..\..\mruby_c2\Design01.cydsn/vm.c ****   ret.cls = cls;
1470:..\..\mruby_c2\Design01.cydsn/vm.c **** 
1471:..\..\mruby_c2\Design01.cydsn/vm.c ****   regs[ra] = ret;
1472:..\..\mruby_c2\Design01.cydsn/vm.c **** 
1473:..\..\mruby_c2\Design01.cydsn/vm.c ****   return 0;
1474:..\..\mruby_c2\Design01.cydsn/vm.c **** }
1475:..\..\mruby_c2\Design01.cydsn/vm.c **** 
1476:..\..\mruby_c2\Design01.cydsn/vm.c **** 
1477:..\..\mruby_c2\Design01.cydsn/vm.c **** //================================================================
1478:..\..\mruby_c2\Design01.cydsn/vm.c **** /*!@brief
1479:..\..\mruby_c2\Design01.cydsn/vm.c ****   Execute OP_EXEC
1480:..\..\mruby_c2\Design01.cydsn/vm.c **** 
1481:..\..\mruby_c2\Design01.cydsn/vm.c ****   R(A) := blockexec(R(A),SEQ[Bx])
1482:..\..\mruby_c2\Design01.cydsn/vm.c **** 
1483:..\..\mruby_c2\Design01.cydsn/vm.c ****   @param  vm    A pointer of VM.
1484:..\..\mruby_c2\Design01.cydsn/vm.c ****   @param  code  bytecode
ARM GAS  C:\Users\164\AppData\Local\Temp\cc4PZf78.s 			page 35


1485:..\..\mruby_c2\Design01.cydsn/vm.c ****   @param  regs  vm->regs + vm->reg_top
1486:..\..\mruby_c2\Design01.cydsn/vm.c ****   @retval 0  No error.
1487:..\..\mruby_c2\Design01.cydsn/vm.c **** */
1488:..\..\mruby_c2\Design01.cydsn/vm.c **** inline static int op_exec( mrb_vm *vm, uint32_t code, mrb_value *regs )
1489:..\..\mruby_c2\Design01.cydsn/vm.c **** {
1490:..\..\mruby_c2\Design01.cydsn/vm.c ****   int ra = GETARG_A(code);
1491:..\..\mruby_c2\Design01.cydsn/vm.c ****   int rb = GETARG_Bx(code);
1492:..\..\mruby_c2\Design01.cydsn/vm.c **** 
1493:..\..\mruby_c2\Design01.cydsn/vm.c ****   mrb_value recv = regs[ra];
1494:..\..\mruby_c2\Design01.cydsn/vm.c **** 
1495:..\..\mruby_c2\Design01.cydsn/vm.c ****   // prepare callinfo
1496:..\..\mruby_c2\Design01.cydsn/vm.c ****   mrb_callinfo *callinfo = vm->callinfo + vm->callinfo_top;
1497:..\..\mruby_c2\Design01.cydsn/vm.c ****   callinfo->current_regs = vm->current_regs;
1498:..\..\mruby_c2\Design01.cydsn/vm.c ****   callinfo->pc_irep = vm->pc_irep;
1499:..\..\mruby_c2\Design01.cydsn/vm.c ****   callinfo->pc = vm->pc;
1500:..\..\mruby_c2\Design01.cydsn/vm.c ****   callinfo->target_class = vm->target_class;
1501:..\..\mruby_c2\Design01.cydsn/vm.c ****   callinfo->n_args = 0;
1502:..\..\mruby_c2\Design01.cydsn/vm.c ****   vm->callinfo_top++;
1503:..\..\mruby_c2\Design01.cydsn/vm.c **** 
1504:..\..\mruby_c2\Design01.cydsn/vm.c ****   // target irep
1505:..\..\mruby_c2\Design01.cydsn/vm.c ****   vm->pc = 0;
1506:..\..\mruby_c2\Design01.cydsn/vm.c ****   vm->pc_irep = vm->irep->reps[rb];
1507:..\..\mruby_c2\Design01.cydsn/vm.c **** 
1508:..\..\mruby_c2\Design01.cydsn/vm.c ****   // new regs
1509:..\..\mruby_c2\Design01.cydsn/vm.c ****   vm->current_regs += ra;
1510:..\..\mruby_c2\Design01.cydsn/vm.c **** 
1511:..\..\mruby_c2\Design01.cydsn/vm.c ****   vm->target_class = find_class_by_object(vm, &recv);
1512:..\..\mruby_c2\Design01.cydsn/vm.c **** 
1513:..\..\mruby_c2\Design01.cydsn/vm.c ****   return 0;
1514:..\..\mruby_c2\Design01.cydsn/vm.c **** }
1515:..\..\mruby_c2\Design01.cydsn/vm.c **** 
1516:..\..\mruby_c2\Design01.cydsn/vm.c **** 
1517:..\..\mruby_c2\Design01.cydsn/vm.c **** 
1518:..\..\mruby_c2\Design01.cydsn/vm.c **** //================================================================
1519:..\..\mruby_c2\Design01.cydsn/vm.c **** /*!@brief
1520:..\..\mruby_c2\Design01.cydsn/vm.c ****   Execute OP_METHOD
1521:..\..\mruby_c2\Design01.cydsn/vm.c **** 
1522:..\..\mruby_c2\Design01.cydsn/vm.c ****   R(A).newmethod(Syms(B),R(A+1))
1523:..\..\mruby_c2\Design01.cydsn/vm.c **** 
1524:..\..\mruby_c2\Design01.cydsn/vm.c ****   @param  vm    A pointer of VM.
1525:..\..\mruby_c2\Design01.cydsn/vm.c ****   @param  code  bytecode
1526:..\..\mruby_c2\Design01.cydsn/vm.c ****   @param  regs  vm->regs + vm->reg_top
1527:..\..\mruby_c2\Design01.cydsn/vm.c ****   @retval 0  No error.
1528:..\..\mruby_c2\Design01.cydsn/vm.c **** */
1529:..\..\mruby_c2\Design01.cydsn/vm.c **** inline static int op_method( mrb_vm *vm, uint32_t code, mrb_value *regs )
1530:..\..\mruby_c2\Design01.cydsn/vm.c **** {
1531:..\..\mruby_c2\Design01.cydsn/vm.c ****   int ra = GETARG_A(code);
1532:..\..\mruby_c2\Design01.cydsn/vm.c ****   int rb = GETARG_B(code);
1533:..\..\mruby_c2\Design01.cydsn/vm.c ****   mrb_proc *proc = regs[ra+1].proc;
1534:..\..\mruby_c2\Design01.cydsn/vm.c **** 
1535:..\..\mruby_c2\Design01.cydsn/vm.c ****   if( regs[ra].tt == MRB_TT_CLASS ) {
1536:..\..\mruby_c2\Design01.cydsn/vm.c ****     mrb_class *cls = regs[ra].cls;
1537:..\..\mruby_c2\Design01.cydsn/vm.c **** 
1538:..\..\mruby_c2\Design01.cydsn/vm.c ****     // sym_id : method name
1539:..\..\mruby_c2\Design01.cydsn/vm.c ****     mrb_irep *cur_irep = vm->pc_irep;
1540:..\..\mruby_c2\Design01.cydsn/vm.c ****     const char *sym_name = mrbc_get_irep_symbol(cur_irep->ptr_to_sym, rb);
1541:..\..\mruby_c2\Design01.cydsn/vm.c ****     int sym_id = str_to_symid(sym_name);
ARM GAS  C:\Users\164\AppData\Local\Temp\cc4PZf78.s 			page 36


1542:..\..\mruby_c2\Design01.cydsn/vm.c **** 
1543:..\..\mruby_c2\Design01.cydsn/vm.c ****     // check same name method
1544:..\..\mruby_c2\Design01.cydsn/vm.c ****     mrb_proc *p = cls->procs;
1545:..\..\mruby_c2\Design01.cydsn/vm.c ****     void *pp = &cls->procs;
1546:..\..\mruby_c2\Design01.cydsn/vm.c ****     while( p != NULL ) {
1547:..\..\mruby_c2\Design01.cydsn/vm.c ****       if( p->sym_id == sym_id ) break;
1548:..\..\mruby_c2\Design01.cydsn/vm.c ****       pp = &p->next;
1549:..\..\mruby_c2\Design01.cydsn/vm.c ****       p = p->next;
1550:..\..\mruby_c2\Design01.cydsn/vm.c ****     }
1551:..\..\mruby_c2\Design01.cydsn/vm.c ****     if( p ) {
1552:..\..\mruby_c2\Design01.cydsn/vm.c ****       // found it.
1553:..\..\mruby_c2\Design01.cydsn/vm.c ****       *((mrb_proc**)pp) = p->next;
1554:..\..\mruby_c2\Design01.cydsn/vm.c ****       if( !p->c_func ) {
1555:..\..\mruby_c2\Design01.cydsn/vm.c **** 	mrb_value v = {.tt = MRB_TT_PROC};
1556:..\..\mruby_c2\Design01.cydsn/vm.c **** 	v.proc = p;
1557:..\..\mruby_c2\Design01.cydsn/vm.c **** 	mrbc_release(&v);
1558:..\..\mruby_c2\Design01.cydsn/vm.c ****       }
1559:..\..\mruby_c2\Design01.cydsn/vm.c ****     }
1560:..\..\mruby_c2\Design01.cydsn/vm.c **** 
1561:..\..\mruby_c2\Design01.cydsn/vm.c ****     // add proc to class
1562:..\..\mruby_c2\Design01.cydsn/vm.c ****     proc->c_func = 0;
1563:..\..\mruby_c2\Design01.cydsn/vm.c ****     proc->sym_id = sym_id;
1564:..\..\mruby_c2\Design01.cydsn/vm.c **** #ifdef MRBC_DEBUG
1565:..\..\mruby_c2\Design01.cydsn/vm.c ****     proc->names = sym_name;		// debug only.
1566:..\..\mruby_c2\Design01.cydsn/vm.c **** #endif
1567:..\..\mruby_c2\Design01.cydsn/vm.c ****     proc->next = cls->procs;
1568:..\..\mruby_c2\Design01.cydsn/vm.c ****     cls->procs = proc;
1569:..\..\mruby_c2\Design01.cydsn/vm.c **** 
1570:..\..\mruby_c2\Design01.cydsn/vm.c ****     mrbc_set_vm_id(proc, 0);
1571:..\..\mruby_c2\Design01.cydsn/vm.c ****     regs[ra+1].tt = MRB_TT_EMPTY;
1572:..\..\mruby_c2\Design01.cydsn/vm.c ****   }
1573:..\..\mruby_c2\Design01.cydsn/vm.c **** 
1574:..\..\mruby_c2\Design01.cydsn/vm.c ****   return 0;
1575:..\..\mruby_c2\Design01.cydsn/vm.c **** }
1576:..\..\mruby_c2\Design01.cydsn/vm.c **** 
1577:..\..\mruby_c2\Design01.cydsn/vm.c **** 
1578:..\..\mruby_c2\Design01.cydsn/vm.c **** //================================================================
1579:..\..\mruby_c2\Design01.cydsn/vm.c **** /*!@brief
1580:..\..\mruby_c2\Design01.cydsn/vm.c ****   Execute OP_TCLASS
1581:..\..\mruby_c2\Design01.cydsn/vm.c **** 
1582:..\..\mruby_c2\Design01.cydsn/vm.c ****   R(A) := target_class
1583:..\..\mruby_c2\Design01.cydsn/vm.c **** 
1584:..\..\mruby_c2\Design01.cydsn/vm.c ****   @param  vm    A pointer of VM.
1585:..\..\mruby_c2\Design01.cydsn/vm.c ****   @param  code  bytecode
1586:..\..\mruby_c2\Design01.cydsn/vm.c ****   @param  regs  vm->regs + vm->reg_top
1587:..\..\mruby_c2\Design01.cydsn/vm.c ****   @retval 0  No error.
1588:..\..\mruby_c2\Design01.cydsn/vm.c **** */
1589:..\..\mruby_c2\Design01.cydsn/vm.c **** inline static int op_tclass( mrb_vm *vm, uint32_t code, mrb_value *regs )
1590:..\..\mruby_c2\Design01.cydsn/vm.c **** {
1591:..\..\mruby_c2\Design01.cydsn/vm.c ****   int ra = GETARG_A(code);
1592:..\..\mruby_c2\Design01.cydsn/vm.c **** 
1593:..\..\mruby_c2\Design01.cydsn/vm.c ****   mrbc_release(&regs[ra]);
1594:..\..\mruby_c2\Design01.cydsn/vm.c ****   regs[ra].tt = MRB_TT_CLASS;
1595:..\..\mruby_c2\Design01.cydsn/vm.c ****   regs[ra].cls = vm->target_class;
1596:..\..\mruby_c2\Design01.cydsn/vm.c **** 
1597:..\..\mruby_c2\Design01.cydsn/vm.c ****   return 0;
1598:..\..\mruby_c2\Design01.cydsn/vm.c **** }
ARM GAS  C:\Users\164\AppData\Local\Temp\cc4PZf78.s 			page 37


1599:..\..\mruby_c2\Design01.cydsn/vm.c **** 
1600:..\..\mruby_c2\Design01.cydsn/vm.c **** 
1601:..\..\mruby_c2\Design01.cydsn/vm.c **** //================================================================
1602:..\..\mruby_c2\Design01.cydsn/vm.c **** /*!@brief
1603:..\..\mruby_c2\Design01.cydsn/vm.c ****   Execute OP_STOP and OP_ABORT
1604:..\..\mruby_c2\Design01.cydsn/vm.c **** 
1605:..\..\mruby_c2\Design01.cydsn/vm.c ****   stop VM (OP_STOP)
1606:..\..\mruby_c2\Design01.cydsn/vm.c ****   stop VM without release memory (OP_ABORT)
1607:..\..\mruby_c2\Design01.cydsn/vm.c **** 
1608:..\..\mruby_c2\Design01.cydsn/vm.c ****   @param  vm    A pointer of VM.
1609:..\..\mruby_c2\Design01.cydsn/vm.c ****   @param  code  bytecode
1610:..\..\mruby_c2\Design01.cydsn/vm.c ****   @param  regs  vm->regs + vm->reg_top
1611:..\..\mruby_c2\Design01.cydsn/vm.c ****   @retval -1  No error and exit from vm.
1612:..\..\mruby_c2\Design01.cydsn/vm.c **** */
1613:..\..\mruby_c2\Design01.cydsn/vm.c **** inline static int op_stop( mrb_vm *vm, uint32_t code, mrb_value *regs )
1614:..\..\mruby_c2\Design01.cydsn/vm.c **** {
1615:..\..\mruby_c2\Design01.cydsn/vm.c ****   if( GET_OPCODE(code) == OP_STOP ) {
1616:..\..\mruby_c2\Design01.cydsn/vm.c ****     int i;
1617:..\..\mruby_c2\Design01.cydsn/vm.c ****     for( i = 0; i < MAX_REGS_SIZE; i++ ) {
1618:..\..\mruby_c2\Design01.cydsn/vm.c ****       mrbc_release(&vm->regs[i]);
1619:..\..\mruby_c2\Design01.cydsn/vm.c ****     }
1620:..\..\mruby_c2\Design01.cydsn/vm.c ****   }
1621:..\..\mruby_c2\Design01.cydsn/vm.c **** 
1622:..\..\mruby_c2\Design01.cydsn/vm.c ****   vm->flag_preemption = 1;
1623:..\..\mruby_c2\Design01.cydsn/vm.c ****   
1624:..\..\mruby_c2\Design01.cydsn/vm.c ****   return -1;
1625:..\..\mruby_c2\Design01.cydsn/vm.c **** }
1626:..\..\mruby_c2\Design01.cydsn/vm.c **** 
1627:..\..\mruby_c2\Design01.cydsn/vm.c **** 
1628:..\..\mruby_c2\Design01.cydsn/vm.c **** //================================================================
1629:..\..\mruby_c2\Design01.cydsn/vm.c **** /*!@brief
1630:..\..\mruby_c2\Design01.cydsn/vm.c ****   Open the VM.
1631:..\..\mruby_c2\Design01.cydsn/vm.c **** 
1632:..\..\mruby_c2\Design01.cydsn/vm.c ****   @param vm     Pointer to mrb_vm or NULL.
1633:..\..\mruby_c2\Design01.cydsn/vm.c ****   @return	Pointer to mrb_vm.
1634:..\..\mruby_c2\Design01.cydsn/vm.c ****   @retval NULL	error.
1635:..\..\mruby_c2\Design01.cydsn/vm.c **** */
1636:..\..\mruby_c2\Design01.cydsn/vm.c **** mrb_vm *mrbc_vm_open(mrb_vm *vm_arg)
1637:..\..\mruby_c2\Design01.cydsn/vm.c **** {
 298              		.loc 1 1637 0
 299              		.cfi_startproc
 300              		@ args = 0, pretend = 0, frame = 0
 301              		@ frame_needed = 0, uses_anonymous_args = 0
 302              	.LVL30:
 303 0000 70B5     		push	{r4, r5, r6, lr}
 304              		.cfi_def_cfa_offset 16
 305              		.cfi_offset 4, -16
 306              		.cfi_offset 5, -12
 307              		.cfi_offset 6, -8
 308              		.cfi_offset 14, -4
 309              	.LVL31:
1638:..\..\mruby_c2\Design01.cydsn/vm.c ****   mrb_vm *vm;
1639:..\..\mruby_c2\Design01.cydsn/vm.c ****   if( (vm = vm_arg) == NULL ) {
 310              		.loc 1 1639 0
 311 0002 0646     		mov	r6, r0
 312 0004 30B9     		cbnz	r0, .L31
1640:..\..\mruby_c2\Design01.cydsn/vm.c ****     // allocate memory.
ARM GAS  C:\Users\164\AppData\Local\Temp\cc4PZf78.s 			page 38


1641:..\..\mruby_c2\Design01.cydsn/vm.c ****     vm = (mrb_vm *)mrbc_raw_alloc( sizeof(mrb_vm) );
 313              		.loc 1 1641 0
 314 0006 4FF46460 		mov	r0, #3648
 315              	.LVL32:
 316 000a FFF7FEFF 		bl	mrbc_raw_alloc
 317              	.LVL33:
1642:..\..\mruby_c2\Design01.cydsn/vm.c ****     if( vm == NULL ) return NULL;
 318              		.loc 1 1642 0
 319 000e 0546     		mov	r5, r0
 320 0010 08B9     		cbnz	r0, .L18
 321 0012 43E0     		b	.L32
 322              	.LVL34:
 323              	.L31:
1639:..\..\mruby_c2\Design01.cydsn/vm.c ****     // allocate memory.
 324              		.loc 1 1639 0
 325 0014 0546     		mov	r5, r0
 326              	.LVL35:
 327              	.L18:
1643:..\..\mruby_c2\Design01.cydsn/vm.c ****   }
1644:..\..\mruby_c2\Design01.cydsn/vm.c **** 
1645:..\..\mruby_c2\Design01.cydsn/vm.c ****   // allocate vm id.
1646:..\..\mruby_c2\Design01.cydsn/vm.c ****   int vm_id = 0;
1647:..\..\mruby_c2\Design01.cydsn/vm.c ****   int i;
1648:..\..\mruby_c2\Design01.cydsn/vm.c ****   for( i = 0; i < Num(free_vm_bitmap); i++ ) {
 328              		.loc 1 1648 0
 329 0016 0021     		movs	r1, #0
 330 0018 29E0     		b	.L20
 331              	.LVL36:
 332              	.L28:
 333              	.LBB52:
1649:..\..\mruby_c2\Design01.cydsn/vm.c ****     int n = nlz32( ~free_vm_bitmap[i] );
 334              		.loc 1 1649 0
 335 001a 224B     		ldr	r3, .L37
 336 001c 53F82100 		ldr	r0, [r3, r1, lsl #2]
 337              	.LVL37:
 338              	.LBB53:
 339              	.LBB54:
  48:..\..\mruby_c2\Design01.cydsn/vm.c **** 
 340              		.loc 1 48 0
 341 0020 C343     		mvns	r3, r0
 342              	.LVL38:
 343 0022 14D0     		beq	.L33
 344              	.LVL39:
  51:..\..\mruby_c2\Design01.cydsn/vm.c ****   if((x >> 24) == 0 ) { n +=  8; x <<=  8; }
 345              		.loc 1 51 0
 346 0024 1A0C     		lsrs	r2, r3, #16
 347 0026 02D1     		bne	.L34
 348              	.LVL40:
 349 0028 1B04     		lsls	r3, r3, #16
 350              	.LVL41:
 351 002a 1122     		movs	r2, #17
 352 002c 00E0     		b	.L22
 353              	.LVL42:
 354              	.L34:
  50:..\..\mruby_c2\Design01.cydsn/vm.c ****   if((x >> 16) == 0 ) { n += 16; x <<= 16; }
 355              		.loc 1 50 0
 356 002e 0122     		movs	r2, #1
ARM GAS  C:\Users\164\AppData\Local\Temp\cc4PZf78.s 			page 39


 357              	.LVL43:
 358              	.L22:
  52:..\..\mruby_c2\Design01.cydsn/vm.c ****   if((x >> 28) == 0 ) { n +=  4; x <<=  4; }
 359              		.loc 1 52 0
 360 0030 1C0E     		lsrs	r4, r3, #24
 361 0032 01D1     		bne	.L23
 362 0034 0832     		adds	r2, r2, #8
 363              	.LVL44:
 364 0036 1B02     		lsls	r3, r3, #8
 365              	.LVL45:
 366              	.L23:
  53:..\..\mruby_c2\Design01.cydsn/vm.c ****   if((x >> 30) == 0 ) { n +=  2; x <<=  2; }
 367              		.loc 1 53 0
 368 0038 1C0F     		lsrs	r4, r3, #28
 369 003a 01D1     		bne	.L24
 370 003c 0432     		adds	r2, r2, #4
 371              	.LVL46:
 372 003e 1B01     		lsls	r3, r3, #4
 373              	.LVL47:
 374              	.L24:
  54:..\..\mruby_c2\Design01.cydsn/vm.c ****   return n - (x >> 31);
 375              		.loc 1 54 0
 376 0040 9C0F     		lsrs	r4, r3, #30
 377 0042 01D1     		bne	.L25
 378 0044 0232     		adds	r2, r2, #2
 379              	.LVL48:
 380 0046 9B00     		lsls	r3, r3, #2
 381              	.LVL49:
 382              	.L25:
  55:..\..\mruby_c2\Design01.cydsn/vm.c **** }
 383              		.loc 1 55 0
 384 0048 02EBE373 		add	r3, r2, r3, asr #31
 385              	.LVL50:
 386 004c 00E0     		b	.L21
 387              	.LVL51:
 388              	.L33:
  48:..\..\mruby_c2\Design01.cydsn/vm.c **** 
 389              		.loc 1 48 0
 390 004e 2023     		movs	r3, #32
 391              	.LVL52:
 392              	.L21:
 393              	.LBE54:
 394              	.LBE53:
1650:..\..\mruby_c2\Design01.cydsn/vm.c ****     if( n < FREE_BITMAP_WIDTH ) {
 395              		.loc 1 1650 0
 396 0050 1F2B     		cmp	r3, #31
 397 0052 0BDC     		bgt	.L26
1651:..\..\mruby_c2\Design01.cydsn/vm.c ****       free_vm_bitmap[i] |= (1 << (FREE_BITMAP_WIDTH - n - 1));
 398              		.loc 1 1651 0
 399 0054 C3F11F04 		rsb	r4, r3, #31
 400 0058 0122     		movs	r2, #1
 401 005a A240     		lsls	r2, r2, r4
 402 005c 1043     		orrs	r0, r0, r2
 403 005e 114A     		ldr	r2, .L37
 404 0060 42F82100 		str	r0, [r2, r1, lsl #2]
1652:..\..\mruby_c2\Design01.cydsn/vm.c ****       vm_id = i * FREE_BITMAP_WIDTH + n + 1;
 405              		.loc 1 1652 0
ARM GAS  C:\Users\164\AppData\Local\Temp\cc4PZf78.s 			page 40


 406 0064 03EB4114 		add	r4, r3, r1, lsl #5
 407 0068 0134     		adds	r4, r4, #1
 408              	.LVL53:
1653:..\..\mruby_c2\Design01.cydsn/vm.c ****       break;
 409              		.loc 1 1653 0
 410 006a 03E0     		b	.L27
 411              	.LVL54:
 412              	.L26:
 413              	.LBE52:
1648:..\..\mruby_c2\Design01.cydsn/vm.c ****     int n = nlz32( ~free_vm_bitmap[i] );
 414              		.loc 1 1648 0 discriminator 2
 415 006c 0131     		adds	r1, r1, #1
 416              	.LVL55:
 417              	.L20:
1648:..\..\mruby_c2\Design01.cydsn/vm.c ****     int n = nlz32( ~free_vm_bitmap[i] );
 418              		.loc 1 1648 0 is_stmt 0 discriminator 1
 419 006e 0029     		cmp	r1, #0
 420 0070 D3D0     		beq	.L28
1646:..\..\mruby_c2\Design01.cydsn/vm.c ****   int i;
 421              		.loc 1 1646 0 is_stmt 1
 422 0072 0024     		movs	r4, #0
 423              	.LVL56:
 424              	.L27:
1654:..\..\mruby_c2\Design01.cydsn/vm.c ****     }
1655:..\..\mruby_c2\Design01.cydsn/vm.c ****   }
1656:..\..\mruby_c2\Design01.cydsn/vm.c ****   if( vm_id == 0 ) {
 425              		.loc 1 1656 0
 426 0074 2CB9     		cbnz	r4, .L29
1657:..\..\mruby_c2\Design01.cydsn/vm.c ****     if( vm_arg == NULL ) mrbc_raw_free(vm);
 427              		.loc 1 1657 0
 428 0076 9EB9     		cbnz	r6, .L35
 429              		.loc 1 1657 0 is_stmt 0 discriminator 1
 430 0078 2846     		mov	r0, r5
 431 007a FFF7FEFF 		bl	mrbc_raw_free
 432              	.LVL57:
1658:..\..\mruby_c2\Design01.cydsn/vm.c ****     return NULL;
 433              		.loc 1 1658 0 is_stmt 1 discriminator 1
 434 007e 0020     		movs	r0, #0
 435 0080 70BD     		pop	{r4, r5, r6, pc}
 436              	.LVL58:
 437              	.L29:
1659:..\..\mruby_c2\Design01.cydsn/vm.c ****   }
1660:..\..\mruby_c2\Design01.cydsn/vm.c **** 
1661:..\..\mruby_c2\Design01.cydsn/vm.c ****   // initialize attributes.
1662:..\..\mruby_c2\Design01.cydsn/vm.c ****   memset(vm, 0, sizeof(mrb_vm));	// caution: assume NULL is zero.
 438              		.loc 1 1662 0
 439 0082 4FF46462 		mov	r2, #3648
 440 0086 0021     		movs	r1, #0
 441              	.LVL59:
 442 0088 2846     		mov	r0, r5
 443 008a FFF7FEFF 		bl	memset
 444              	.LVL60:
1663:..\..\mruby_c2\Design01.cydsn/vm.c ****   if( vm_arg == NULL ) vm->flag_need_memfree = 1;
 445              		.loc 1 1663 0
 446 008e 16B9     		cbnz	r6, .L30
 447              		.loc 1 1663 0 is_stmt 0 discriminator 1
 448 0090 0123     		movs	r3, #1
ARM GAS  C:\Users\164\AppData\Local\Temp\cc4PZf78.s 			page 41


 449 0092 85F8393E 		strb	r3, [r5, #3641]
 450              	.L30:
1664:..\..\mruby_c2\Design01.cydsn/vm.c ****   vm->vm_id = vm_id;
 451              		.loc 1 1664 0 is_stmt 1
 452 0096 2C71     		strb	r4, [r5, #4]
1665:..\..\mruby_c2\Design01.cydsn/vm.c **** 
1666:..\..\mruby_c2\Design01.cydsn/vm.c ****   return vm;
 453              		.loc 1 1666 0
 454 0098 2846     		mov	r0, r5
 455 009a 70BD     		pop	{r4, r5, r6, pc}
 456              	.LVL61:
 457              	.L32:
1642:..\..\mruby_c2\Design01.cydsn/vm.c ****   }
 458              		.loc 1 1642 0
 459 009c 0020     		movs	r0, #0
 460              	.LVL62:
 461 009e 70BD     		pop	{r4, r5, r6, pc}
 462              	.LVL63:
 463              	.L35:
1658:..\..\mruby_c2\Design01.cydsn/vm.c ****   }
 464              		.loc 1 1658 0
 465 00a0 0020     		movs	r0, #0
1667:..\..\mruby_c2\Design01.cydsn/vm.c **** }
 466              		.loc 1 1667 0
 467 00a2 70BD     		pop	{r4, r5, r6, pc}
 468              	.LVL64:
 469              	.L38:
 470              		.align	2
 471              	.L37:
 472 00a4 00000000 		.word	.LANCHOR0
 473              		.cfi_endproc
 474              	.LFE142:
 475              		.size	mrbc_vm_open, .-mrbc_vm_open
 476              		.section	.text.mrbc_vm_close,"ax",%progbits
 477              		.align	2
 478              		.global	mrbc_vm_close
 479              		.thumb
 480              		.thumb_func
 481              		.type	mrbc_vm_close, %function
 482              	mrbc_vm_close:
 483              	.LFB143:
1668:..\..\mruby_c2\Design01.cydsn/vm.c **** 
1669:..\..\mruby_c2\Design01.cydsn/vm.c **** 
1670:..\..\mruby_c2\Design01.cydsn/vm.c **** 
1671:..\..\mruby_c2\Design01.cydsn/vm.c **** //================================================================
1672:..\..\mruby_c2\Design01.cydsn/vm.c **** /*!@brief
1673:..\..\mruby_c2\Design01.cydsn/vm.c ****   Close the VM.
1674:..\..\mruby_c2\Design01.cydsn/vm.c **** 
1675:..\..\mruby_c2\Design01.cydsn/vm.c ****   @param  vm  Pointer to mrb_vm
1676:..\..\mruby_c2\Design01.cydsn/vm.c **** */
1677:..\..\mruby_c2\Design01.cydsn/vm.c **** void mrbc_vm_close(mrb_vm *vm)
1678:..\..\mruby_c2\Design01.cydsn/vm.c **** {
 484              		.loc 1 1678 0
 485              		.cfi_startproc
 486              		@ args = 0, pretend = 0, frame = 0
 487              		@ frame_needed = 0, uses_anonymous_args = 0
 488              	.LVL65:
ARM GAS  C:\Users\164\AppData\Local\Temp\cc4PZf78.s 			page 42


 489 0000 10B5     		push	{r4, lr}
 490              		.cfi_def_cfa_offset 8
 491              		.cfi_offset 4, -8
 492              		.cfi_offset 14, -4
 493 0002 0446     		mov	r4, r0
1679:..\..\mruby_c2\Design01.cydsn/vm.c ****   // free vm id.
1680:..\..\mruby_c2\Design01.cydsn/vm.c ****   int i = (vm->vm_id-1) / FREE_BITMAP_WIDTH;
 494              		.loc 1 1680 0
 495 0004 0379     		ldrb	r3, [r0, #4]	@ zero_extendqisi2
 496 0006 013B     		subs	r3, r3, #1
 497 0008 1A46     		mov	r2, r3
 498 000a 002B     		cmp	r3, #0
 499 000c 01DA     		bge	.L40
 500 000e 03F11F02 		add	r2, r3, #31
 501              	.L40:
 502 0012 5211     		asrs	r2, r2, #5
 503              	.LVL66:
1681:..\..\mruby_c2\Design01.cydsn/vm.c ****   int n = (vm->vm_id-1) % FREE_BITMAP_WIDTH;
 504              		.loc 1 1681 0
 505 0014 1249     		ldr	r1, .L45
 506 0016 0B40     		ands	r3, r3, r1
 507 0018 03D5     		bpl	.L41
 508 001a 013B     		subs	r3, r3, #1
 509 001c 63F01F03 		orn	r3, r3, #31
 510 0020 0133     		adds	r3, r3, #1
 511              	.L41:
 512              	.LVL67:
1682:..\..\mruby_c2\Design01.cydsn/vm.c ****   assert( i < Num(free_vm_bitmap) );
 513              		.loc 1 1682 0
 514 0022 32B1     		cbz	r2, .L42
 515              		.loc 1 1682 0 is_stmt 0 discriminator 1
 516 0024 0F4B     		ldr	r3, .L45+4
 517              	.LVL68:
 518 0026 104A     		ldr	r2, .L45+8
 519              	.LVL69:
 520 0028 40F29261 		movw	r1, #1682
 521 002c 0F48     		ldr	r0, .L45+12
 522              	.LVL70:
 523 002e FFF7FEFF 		bl	__assert_func
 524              	.LVL71:
 525              	.L42:
1683:..\..\mruby_c2\Design01.cydsn/vm.c ****   free_vm_bitmap[i] &= ~(1 << (FREE_BITMAP_WIDTH - n - 1));
 526              		.loc 1 1683 0 is_stmt 1
 527 0032 C3F11F03 		rsb	r3, r3, #31
 528              	.LVL72:
 529 0036 0121     		movs	r1, #1
 530 0038 01FA03F3 		lsl	r3, r1, r3
 531 003c 0C48     		ldr	r0, .L45+16
 532              	.LVL73:
 533 003e 50F82210 		ldr	r1, [r0, r2, lsl #2]
 534 0042 21EA0301 		bic	r1, r1, r3
 535 0046 40F82210 		str	r1, [r0, r2, lsl #2]
1684:..\..\mruby_c2\Design01.cydsn/vm.c **** 
1685:..\..\mruby_c2\Design01.cydsn/vm.c ****   // free irep and vm
1686:..\..\mruby_c2\Design01.cydsn/vm.c ****   mrbc_irep_free( vm->irep );
 536              		.loc 1 1686 0
 537 004a 2068     		ldr	r0, [r4]
ARM GAS  C:\Users\164\AppData\Local\Temp\cc4PZf78.s 			page 43


 538 004c FFF7FEFF 		bl	mrbc_irep_free
 539              	.LVL74:
1687:..\..\mruby_c2\Design01.cydsn/vm.c ****   if( vm->flag_need_memfree ) mrbc_raw_free(vm);
 540              		.loc 1 1687 0
 541 0050 94F9393E 		ldrsb	r3, [r4, #3641]
 542 0054 13B1     		cbz	r3, .L39
 543              		.loc 1 1687 0 is_stmt 0 discriminator 1
 544 0056 2046     		mov	r0, r4
 545 0058 FFF7FEFF 		bl	mrbc_raw_free
 546              	.LVL75:
 547              	.L39:
 548 005c 10BD     		pop	{r4, pc}
 549              	.LVL76:
 550              	.L46:
 551 005e 00BF     		.align	2
 552              	.L45:
 553 0060 1F000080 		.word	-2147483617
 554 0064 10000000 		.word	.LC1
 555 0068 00000000 		.word	.LANCHOR1
 556 006c 28000000 		.word	.LC2
 557 0070 00000000 		.word	.LANCHOR0
 558              		.cfi_endproc
 559              	.LFE143:
 560              		.size	mrbc_vm_close, .-mrbc_vm_close
 561              		.section	.text.mrbc_vm_begin,"ax",%progbits
 562              		.align	2
 563              		.global	mrbc_vm_begin
 564              		.thumb
 565              		.thumb_func
 566              		.type	mrbc_vm_begin, %function
 567              	mrbc_vm_begin:
 568              	.LFB144:
1688:..\..\mruby_c2\Design01.cydsn/vm.c **** }
1689:..\..\mruby_c2\Design01.cydsn/vm.c **** 
1690:..\..\mruby_c2\Design01.cydsn/vm.c **** 
1691:..\..\mruby_c2\Design01.cydsn/vm.c **** 
1692:..\..\mruby_c2\Design01.cydsn/vm.c **** //================================================================
1693:..\..\mruby_c2\Design01.cydsn/vm.c **** /*!@brief
1694:..\..\mruby_c2\Design01.cydsn/vm.c ****   VM initializer.
1695:..\..\mruby_c2\Design01.cydsn/vm.c **** 
1696:..\..\mruby_c2\Design01.cydsn/vm.c ****   @param  vm  Pointer to VM
1697:..\..\mruby_c2\Design01.cydsn/vm.c **** */
1698:..\..\mruby_c2\Design01.cydsn/vm.c **** void mrbc_vm_begin(mrb_vm *vm)
1699:..\..\mruby_c2\Design01.cydsn/vm.c **** {
 569              		.loc 1 1699 0 is_stmt 1
 570              		.cfi_startproc
 571              		@ args = 0, pretend = 0, frame = 0
 572              		@ frame_needed = 0, uses_anonymous_args = 0
 573              	.LVL77:
 574 0000 70B5     		push	{r4, r5, r6, lr}
 575              		.cfi_def_cfa_offset 16
 576              		.cfi_offset 4, -16
 577              		.cfi_offset 5, -12
 578              		.cfi_offset 6, -8
 579              		.cfi_offset 14, -4
 580 0002 0446     		mov	r4, r0
1700:..\..\mruby_c2\Design01.cydsn/vm.c ****   vm->pc_irep = vm->irep;
ARM GAS  C:\Users\164\AppData\Local\Temp\cc4PZf78.s 			page 44


 581              		.loc 1 1700 0
 582 0004 0368     		ldr	r3, [r0]
 583 0006 C360     		str	r3, [r0, #12]
1701:..\..\mruby_c2\Design01.cydsn/vm.c ****   vm->pc = 0;
 584              		.loc 1 1701 0
 585 0008 0025     		movs	r5, #0
 586 000a 0582     		strh	r5, [r0, #16]	@ movhi
1702:..\..\mruby_c2\Design01.cydsn/vm.c ****   vm->current_regs = vm->regs;
 587              		.loc 1 1702 0
 588 000c 1830     		adds	r0, r0, #24
 589              	.LVL78:
 590 000e C4F85806 		str	r0, [r4, #1624]
1703:..\..\mruby_c2\Design01.cydsn/vm.c ****   memset(vm->regs, 0, sizeof(vm->regs));
 591              		.loc 1 1703 0
 592 0012 4FF4C862 		mov	r2, #1600
 593 0016 2946     		mov	r1, r5
 594 0018 FFF7FEFF 		bl	memset
 595              	.LVL79:
1704:..\..\mruby_c2\Design01.cydsn/vm.c **** 
1705:..\..\mruby_c2\Design01.cydsn/vm.c ****   // set self to reg[0]
1706:..\..\mruby_c2\Design01.cydsn/vm.c ****   vm->regs[0].tt = MRB_TT_CLASS;
 596              		.loc 1 1706 0
 597 001c 0723     		movs	r3, #7
 598 001e 2376     		strb	r3, [r4, #24]
1707:..\..\mruby_c2\Design01.cydsn/vm.c ****   vm->regs[0].cls = mrbc_class_object;
 599              		.loc 1 1707 0
 600 0020 094B     		ldr	r3, .L49
 601 0022 1E68     		ldr	r6, [r3]
 602 0024 2662     		str	r6, [r4, #32]
1708:..\..\mruby_c2\Design01.cydsn/vm.c **** 
1709:..\..\mruby_c2\Design01.cydsn/vm.c ****   vm->callinfo_top = 0;
 603              		.loc 1 1709 0
 604 0026 A4F85C56 		strh	r5, [r4, #1628]	@ movhi
1710:..\..\mruby_c2\Design01.cydsn/vm.c ****   memset(vm->callinfo, 0, sizeof(vm->callinfo));
 605              		.loc 1 1710 0
 606 002a 4FF4FA62 		mov	r2, #2000
 607 002e 2946     		mov	r1, r5
 608 0030 04F5CC60 		add	r0, r4, #1632
 609 0034 FFF7FEFF 		bl	memset
 610              	.LVL80:
1711:..\..\mruby_c2\Design01.cydsn/vm.c **** 
1712:..\..\mruby_c2\Design01.cydsn/vm.c ****   // target_class
1713:..\..\mruby_c2\Design01.cydsn/vm.c ****   vm->target_class = mrbc_class_object;
 611              		.loc 1 1713 0
 612 0038 C4F8306E 		str	r6, [r4, #3632]
1714:..\..\mruby_c2\Design01.cydsn/vm.c **** 
1715:..\..\mruby_c2\Design01.cydsn/vm.c ****   vm->error_code = 0;
 613              		.loc 1 1715 0
 614 003c C4F8345E 		str	r5, [r4, #3636]
1716:..\..\mruby_c2\Design01.cydsn/vm.c ****   vm->flag_preemption = 0;
 615              		.loc 1 1716 0
 616 0040 84F8385E 		strb	r5, [r4, #3640]
 617 0044 70BD     		pop	{r4, r5, r6, pc}
 618              	.LVL81:
 619              	.L50:
 620 0046 00BF     		.align	2
 621              	.L49:
ARM GAS  C:\Users\164\AppData\Local\Temp\cc4PZf78.s 			page 45


 622 0048 00000000 		.word	mrbc_class_object
 623              		.cfi_endproc
 624              	.LFE144:
 625              		.size	mrbc_vm_begin, .-mrbc_vm_begin
 626              		.section	.text.mrbc_vm_end,"ax",%progbits
 627              		.align	2
 628              		.global	mrbc_vm_end
 629              		.thumb
 630              		.thumb_func
 631              		.type	mrbc_vm_end, %function
 632              	mrbc_vm_end:
 633              	.LFB145:
1717:..\..\mruby_c2\Design01.cydsn/vm.c **** }
1718:..\..\mruby_c2\Design01.cydsn/vm.c **** 
1719:..\..\mruby_c2\Design01.cydsn/vm.c **** 
1720:..\..\mruby_c2\Design01.cydsn/vm.c **** //================================================================
1721:..\..\mruby_c2\Design01.cydsn/vm.c **** /*!@brief
1722:..\..\mruby_c2\Design01.cydsn/vm.c ****   VM finalizer.
1723:..\..\mruby_c2\Design01.cydsn/vm.c **** 
1724:..\..\mruby_c2\Design01.cydsn/vm.c ****   @param  vm  Pointer to VM
1725:..\..\mruby_c2\Design01.cydsn/vm.c **** */
1726:..\..\mruby_c2\Design01.cydsn/vm.c **** void mrbc_vm_end(mrb_vm *vm)
1727:..\..\mruby_c2\Design01.cydsn/vm.c **** {
 634              		.loc 1 1727 0
 635              		.cfi_startproc
 636              		@ args = 0, pretend = 0, frame = 0
 637              		@ frame_needed = 0, uses_anonymous_args = 0
 638              	.LVL82:
 639 0000 10B5     		push	{r4, lr}
 640              		.cfi_def_cfa_offset 8
 641              		.cfi_offset 4, -8
 642              		.cfi_offset 14, -4
 643 0002 0446     		mov	r4, r0
1728:..\..\mruby_c2\Design01.cydsn/vm.c ****   mrbc_global_clear_vm_id();
 644              		.loc 1 1728 0
 645 0004 FFF7FEFF 		bl	mrbc_global_clear_vm_id
 646              	.LVL83:
1729:..\..\mruby_c2\Design01.cydsn/vm.c ****   mrbc_free_all(vm);
 647              		.loc 1 1729 0
 648 0008 2046     		mov	r0, r4
 649 000a FFF7FEFF 		bl	mrbc_free_all
 650              	.LVL84:
 651 000e 10BD     		pop	{r4, pc}
 652              		.cfi_endproc
 653              	.LFE145:
 654              		.size	mrbc_vm_end, .-mrbc_vm_end
 655              		.global	__aeabi_i2d
 656              		.global	__aeabi_dadd
 657              		.global	__aeabi_ui2d
 658              		.global	__aeabi_dsub
 659              		.global	__aeabi_dmul
 660              		.global	__aeabi_ddiv
 661              		.global	__aeabi_dcmplt
 662              		.global	__aeabi_dcmple
 663              		.global	__aeabi_dcmpgt
 664              		.global	__aeabi_dcmpge
 665              		.section	.text.mrbc_vm_run,"ax",%progbits
ARM GAS  C:\Users\164\AppData\Local\Temp\cc4PZf78.s 			page 46


 666              		.align	2
 667              		.global	mrbc_vm_run
 668              		.thumb
 669              		.thumb_func
 670              		.type	mrbc_vm_run, %function
 671              	mrbc_vm_run:
 672              	.LFB146:
1730:..\..\mruby_c2\Design01.cydsn/vm.c **** }
1731:..\..\mruby_c2\Design01.cydsn/vm.c **** 
1732:..\..\mruby_c2\Design01.cydsn/vm.c **** 
1733:..\..\mruby_c2\Design01.cydsn/vm.c **** //================================================================
1734:..\..\mruby_c2\Design01.cydsn/vm.c **** /*!@brief
1735:..\..\mruby_c2\Design01.cydsn/vm.c ****   Fetch a bytecode and execute
1736:..\..\mruby_c2\Design01.cydsn/vm.c **** 
1737:..\..\mruby_c2\Design01.cydsn/vm.c ****   @param  vm    A pointer of VM.
1738:..\..\mruby_c2\Design01.cydsn/vm.c ****   @retval 0  No error.
1739:..\..\mruby_c2\Design01.cydsn/vm.c **** */
1740:..\..\mruby_c2\Design01.cydsn/vm.c **** int mrbc_vm_run( mrb_vm *vm )
1741:..\..\mruby_c2\Design01.cydsn/vm.c **** {
 673              		.loc 1 1741 0
 674              		.cfi_startproc
 675              		@ args = 0, pretend = 0, frame = 40
 676              		@ frame_needed = 0, uses_anonymous_args = 0
 677              	.LVL85:
 678 0000 2DE9F04F 		push	{r4, r5, r6, r7, r8, r9, r10, fp, lr}
 679              		.cfi_def_cfa_offset 36
 680              		.cfi_offset 4, -36
 681              		.cfi_offset 5, -32
 682              		.cfi_offset 6, -28
 683              		.cfi_offset 7, -24
 684              		.cfi_offset 8, -20
 685              		.cfi_offset 9, -16
 686              		.cfi_offset 10, -12
 687              		.cfi_offset 11, -8
 688              		.cfi_offset 14, -4
 689 0004 8FB0     		sub	sp, sp, #60
 690              		.cfi_def_cfa_offset 96
 691 0006 0546     		mov	r5, r0
 692              	.LVL86:
1742:..\..\mruby_c2\Design01.cydsn/vm.c ****   int ret = 0;
 693              		.loc 1 1742 0
 694 0008 0027     		movs	r7, #0
 695              	.LVL87:
 696              	.L270:
 697              	.LBB184:
1743:..\..\mruby_c2\Design01.cydsn/vm.c **** 
1744:..\..\mruby_c2\Design01.cydsn/vm.c ****   do {
1745:..\..\mruby_c2\Design01.cydsn/vm.c ****     // get one bytecode
1746:..\..\mruby_c2\Design01.cydsn/vm.c ****     uint32_t code = bin_to_uint32(vm->pc_irep->code + vm->pc * 4);
 698              		.loc 1 1746 0
 699 000a EB68     		ldr	r3, [r5, #12]
 700 000c DB68     		ldr	r3, [r3, #12]
 701 000e 2A8A     		ldrh	r2, [r5, #16]
 702              	.LVL88:
 703              	.LBB185:
 704              	.LBB186:
 119:..\..\mruby_c2\Design01.cydsn/vm.h ****   return (x << 24) | ((x & 0xff00) << 8) | ((x >> 8) & 0xff00) | (x >> 24);
ARM GAS  C:\Users\164\AppData\Local\Temp\cc4PZf78.s 			page 47


 705              		.loc 2 119 0
 706 0010 53F82210 		ldr	r1, [r3, r2, lsl #2]
 707              	.LVL89:
 120:..\..\mruby_c2\Design01.cydsn/vm.h **** #endif
 708              		.loc 2 120 0
 709 0014 0B02     		lsls	r3, r1, #8
 710              	.LVL90:
 711 0016 03F47F03 		and	r3, r3, #16711680
 712 001a 43EA0164 		orr	r4, r3, r1, lsl #24
 713 001e 0B0A     		lsrs	r3, r1, #8
 714 0020 03F47F43 		and	r3, r3, #65280
 715 0024 2343     		orrs	r3, r3, r4
 716 0026 43EA1164 		orr	r4, r3, r1, lsr #24
 717              	.LVL91:
 718              	.LBE186:
 719              	.LBE185:
1747:..\..\mruby_c2\Design01.cydsn/vm.c ****     vm->pc++;
 720              		.loc 1 1747 0
 721 002a 0132     		adds	r2, r2, #1
 722 002c 92B2     		uxth	r2, r2
 723 002e 2A82     		strh	r2, [r5, #16]	@ movhi
1748:..\..\mruby_c2\Design01.cydsn/vm.c **** 
1749:..\..\mruby_c2\Design01.cydsn/vm.c ****     // regs
1750:..\..\mruby_c2\Design01.cydsn/vm.c ****     mrb_value *regs = vm->current_regs;
 724              		.loc 1 1750 0
 725 0030 D5F85866 		ldr	r6, [r5, #1624]
 726              	.LVL92:
1751:..\..\mruby_c2\Design01.cydsn/vm.c **** 
1752:..\..\mruby_c2\Design01.cydsn/vm.c ****     // Dispatch
1753:..\..\mruby_c2\Design01.cydsn/vm.c ****     int opcode = GET_OPCODE(code);
 727              		.loc 1 1753 0
 728 0034 04F07F03 		and	r3, r4, #127
 729              	.LVL93:
1754:..\..\mruby_c2\Design01.cydsn/vm.c ****     switch( opcode ) {
 730              		.loc 1 1754 0
 731 0038 502B     		cmp	r3, #80
 732 003a 01F2C682 		bhi	.L54
 733 003e DFE813F0 		tbh	[pc, r3, lsl #1]
 734              	.L56:
 735 0042 CA0A     		.2byte	(.L271-.L56)/2
 736 0044 5100     		.2byte	(.L57-.L56)/2
 737 0046 6500     		.2byte	(.L58-.L56)/2
 738 0048 7700     		.2byte	(.L59-.L56)/2
 739 004a 8A00     		.2byte	(.L60-.L56)/2
 740 004c A000     		.2byte	(.L61-.L56)/2
 741 004e AA00     		.2byte	(.L62-.L56)/2
 742 0050 BA00     		.2byte	(.L63-.L56)/2
 743 0052 C400     		.2byte	(.L64-.L56)/2
 744 0054 CE00     		.2byte	(.L65-.L56)/2
 745 0056 E900     		.2byte	(.L66-.L56)/2
 746 0058 C40A     		.2byte	(.L54-.L56)/2
 747 005a C40A     		.2byte	(.L54-.L56)/2
 748 005c 0301     		.2byte	(.L67-.L56)/2
 749 005e 1F01     		.2byte	(.L68-.L56)/2
 750 0060 C40A     		.2byte	(.L54-.L56)/2
 751 0062 C40A     		.2byte	(.L54-.L56)/2
 752 0064 3201     		.2byte	(.L69-.L56)/2
ARM GAS  C:\Users\164\AppData\Local\Temp\cc4PZf78.s 			page 48


 753 0066 4D01     		.2byte	(.L70-.L56)/2
 754 0068 C40A     		.2byte	(.L54-.L56)/2
 755 006a C40A     		.2byte	(.L54-.L56)/2
 756 006c 5D01     		.2byte	(.L71-.L56)/2
 757 006e 7E01     		.2byte	(.L72-.L56)/2
 758 0070 9F01     		.2byte	(.L73-.L56)/2
 759 0072 A701     		.2byte	(.L74-.L56)/2
 760 0074 B501     		.2byte	(.L75-.L56)/2
 761 0076 C40A     		.2byte	(.L54-.L56)/2
 762 0078 C40A     		.2byte	(.L54-.L56)/2
 763 007a C40A     		.2byte	(.L54-.L56)/2
 764 007c C40A     		.2byte	(.L54-.L56)/2
 765 007e C40A     		.2byte	(.L54-.L56)/2
 766 0080 C40A     		.2byte	(.L54-.L56)/2
 767 0082 C301     		.2byte	(.L76-.L56)/2
 768 0084 2302     		.2byte	(.L77-.L56)/2
 769 0086 C40A     		.2byte	(.L54-.L56)/2
 770 0088 8302     		.2byte	(.L78-.L56)/2
 771 008a C40A     		.2byte	(.L54-.L56)/2
 772 008c C40A     		.2byte	(.L54-.L56)/2
 773 008e 8E02     		.2byte	(.L79-.L56)/2
 774 0090 C40A     		.2byte	(.L54-.L56)/2
 775 0092 C40A     		.2byte	(.L54-.L56)/2
 776 0094 A402     		.2byte	(.L80-.L56)/2
 777 0096 C40A     		.2byte	(.L54-.L56)/2
 778 0098 D002     		.2byte	(.L81-.L56)/2
 779 009a EA02     		.2byte	(.L82-.L56)/2
 780 009c 9103     		.2byte	(.L83-.L56)/2
 781 009e B103     		.2byte	(.L84-.L56)/2
 782 00a0 5E04     		.2byte	(.L85-.L56)/2
 783 00a2 7E04     		.2byte	(.L86-.L56)/2
 784 00a4 2C05     		.2byte	(.L87-.L56)/2
 785 00a6 DC05     		.2byte	(.L88-.L56)/2
 786 00a8 F805     		.2byte	(.L89-.L56)/2
 787 00aa B906     		.2byte	(.L90-.L56)/2
 788 00ac 7C07     		.2byte	(.L91-.L56)/2
 789 00ae 3C08     		.2byte	(.L92-.L56)/2
 790 00b0 FF08     		.2byte	(.L93-.L56)/2
 791 00b2 C40A     		.2byte	(.L54-.L56)/2
 792 00b4 C40A     		.2byte	(.L54-.L56)/2
 793 00b6 C40A     		.2byte	(.L54-.L56)/2
 794 00b8 C40A     		.2byte	(.L54-.L56)/2
 795 00ba C40A     		.2byte	(.L54-.L56)/2
 796 00bc 2A09     		.2byte	(.L94-.L56)/2
 797 00be 4D09     		.2byte	(.L95-.L56)/2
 798 00c0 C40A     		.2byte	(.L54-.L56)/2
 799 00c2 9609     		.2byte	(.L96-.L56)/2
 800 00c4 B509     		.2byte	(.L97-.L56)/2
 801 00c6 C40A     		.2byte	(.L54-.L56)/2
 802 00c8 DE09     		.2byte	(.L98-.L56)/2
 803 00ca C40A     		.2byte	(.L54-.L56)/2
 804 00cc 040A     		.2byte	(.L99-.L56)/2
 805 00ce 3D0A     		.2byte	(.L100-.L56)/2
 806 00d0 C40A     		.2byte	(.L54-.L56)/2
 807 00d2 8D0A     		.2byte	(.L101-.L56)/2
 808 00d4 C40A     		.2byte	(.L54-.L56)/2
 809 00d6 9A0A     		.2byte	(.L102-.L56)/2
ARM GAS  C:\Users\164\AppData\Local\Temp\cc4PZf78.s 			page 49


 810 00d8 C40A     		.2byte	(.L54-.L56)/2
 811 00da C40A     		.2byte	(.L54-.L56)/2
 812 00dc C40A     		.2byte	(.L54-.L56)/2
 813 00de C40A     		.2byte	(.L54-.L56)/2
 814 00e0 C40A     		.2byte	(.L54-.L56)/2
 815 00e2 AF0A     		.2byte	(.L103-.L56)/2
 816              		.p2align 1
 817              	.L57:
 818              	.LVL94:
 819              	.LBB187:
 820              	.LBB188:
 170:..\..\mruby_c2\Design01.cydsn/vm.c ****   int rb = GETARG_B(code);
 821              		.loc 1 170 0
 822 00e4 E70D     		lsrs	r7, r4, #23
 823              	.LVL95:
 171:..\..\mruby_c2\Design01.cydsn/vm.c **** 
 824              		.loc 1 171 0
 825 00e6 C4F38834 		ubfx	r4, r4, #14, #9
 826              	.LVL96:
 173:..\..\mruby_c2\Design01.cydsn/vm.c ****   mrbc_dup(&regs[rb]);
 827              		.loc 1 173 0
 828 00ea 06EB0717 		add	r7, r6, r7, lsl #4
 829              	.LVL97:
 830 00ee 3846     		mov	r0, r7
 831 00f0 FFF7FEFF 		bl	mrbc_release
 832              	.LVL98:
 174:..\..\mruby_c2\Design01.cydsn/vm.c ****   regs[ra] = regs[rb];
 833              		.loc 1 174 0
 834 00f4 06EB0416 		add	r6, r6, r4, lsl #4
 835              	.LVL99:
 836 00f8 3046     		mov	r0, r6
 837 00fa FFF7FEFF 		bl	mrbc_dup
 838              	.LVL100:
 175:..\..\mruby_c2\Design01.cydsn/vm.c **** 
 839              		.loc 1 175 0
 840 00fe 96E80F00 		ldmia	r6, {r0, r1, r2, r3}
 841 0102 87E80F00 		stmia	r7, {r0, r1, r2, r3}
 842              	.LVL101:
 843              	.LBE188:
 844              	.LBE187:
1755:..\..\mruby_c2\Design01.cydsn/vm.c ****     case OP_NOP:        ret = op_nop       (vm, code, regs); break;
1756:..\..\mruby_c2\Design01.cydsn/vm.c ****     case OP_MOVE:       ret = op_move      (vm, code, regs); break;
 845              		.loc 1 1756 0
 846 0106 0027     		movs	r7, #0
 847 0108 01F06CBA 		b	.L55
 848              	.LVL102:
 849              	.L58:
 850              	.LBB189:
 851              	.LBB190:
 194:..\..\mruby_c2\Design01.cydsn/vm.c ****   int rb = GETARG_Bx(code);
 852              		.loc 1 194 0
 853 010c E30D     		lsrs	r3, r4, #23
 854              	.LVL103:
 195:..\..\mruby_c2\Design01.cydsn/vm.c **** 
 855              		.loc 1 195 0
 856 010e C4F3CF14 		ubfx	r4, r4, #7, #16
 857              	.LVL104:
ARM GAS  C:\Users\164\AppData\Local\Temp\cc4PZf78.s 			page 50


 197:..\..\mruby_c2\Design01.cydsn/vm.c **** 
 858              		.loc 1 197 0
 859 0112 06EB0316 		add	r6, r6, r3, lsl #4
 860              	.LVL105:
 861 0116 3046     		mov	r0, r6
 862 0118 FFF7FEFF 		bl	mrbc_release
 863              	.LVL106:
 201:..\..\mruby_c2\Design01.cydsn/vm.c ****   regs[ra] = *pool_obj;
 864              		.loc 1 201 0
 865 011c EB68     		ldr	r3, [r5, #12]
 866 011e 1B69     		ldr	r3, [r3, #16]
 867 0120 53F82430 		ldr	r3, [r3, r4, lsl #2]
 868              	.LVL107:
 202:..\..\mruby_c2\Design01.cydsn/vm.c **** 
 869              		.loc 1 202 0
 870 0124 0FCB     		ldmia	r3, {r0, r1, r2, r3}
 871              	.LVL108:
 872 0126 86E80F00 		stmia	r6, {r0, r1, r2, r3}
 873              	.LVL109:
 874              	.LBE190:
 875              	.LBE189:
1757:..\..\mruby_c2\Design01.cydsn/vm.c ****     case OP_LOADL:      ret = op_loadl     (vm, code, regs); break;
 876              		.loc 1 1757 0
 877 012a 0027     		movs	r7, #0
 878 012c 01F05ABA 		b	.L55
 879              	.LVL110:
 880              	.L59:
 881              	.LBB191:
 882              	.LBB192:
 221:..\..\mruby_c2\Design01.cydsn/vm.c **** 
 883              		.loc 1 221 0
 884 0130 E70D     		lsrs	r7, r4, #23
 885              	.LVL111:
 223:..\..\mruby_c2\Design01.cydsn/vm.c ****   regs[ra].tt = MRB_TT_FIXNUM;
 886              		.loc 1 223 0
 887 0132 3F01     		lsls	r7, r7, #4
 888              	.LVL112:
 889 0134 06EB0708 		add	r8, r6, r7
 890 0138 4046     		mov	r0, r8
 891 013a FFF7FEFF 		bl	mrbc_release
 892              	.LVL113:
 224:..\..\mruby_c2\Design01.cydsn/vm.c ****   regs[ra].i = GETARG_sBx(code);
 893              		.loc 1 224 0
 894 013e 0423     		movs	r3, #4
 895 0140 F355     		strb	r3, [r6, r7]
 225:..\..\mruby_c2\Design01.cydsn/vm.c **** 
 896              		.loc 1 225 0
 897 0142 C4F3CF14 		ubfx	r4, r4, #7, #16
 898              	.LVL114:
 899 0146 A4F5FF44 		sub	r4, r4, #32640
 900 014a 7F3C     		subs	r4, r4, #127
 901 014c C8F80840 		str	r4, [r8, #8]
 902              	.LVL115:
 903              	.LBE192:
 904              	.LBE191:
1758:..\..\mruby_c2\Design01.cydsn/vm.c ****     case OP_LOADI:      ret = op_loadi     (vm, code, regs); break;
 905              		.loc 1 1758 0
ARM GAS  C:\Users\164\AppData\Local\Temp\cc4PZf78.s 			page 51


 906 0150 0027     		movs	r7, #0
 907 0152 01F047BA 		b	.L55
 908              	.LVL116:
 909              	.L60:
 910              	.LBB193:
 911              	.LBB194:
 244:..\..\mruby_c2\Design01.cydsn/vm.c ****   int rb = GETARG_Bx(code);
 912              		.loc 1 244 0
 913 0156 E70D     		lsrs	r7, r4, #23
 914              	.LVL117:
 246:..\..\mruby_c2\Design01.cydsn/vm.c ****   mrb_sym sym_id = str_to_symid(sym_name);
 915              		.loc 1 246 0
 916 0158 EB68     		ldr	r3, [r5, #12]
 917              	.LVL118:
 918 015a C4F3CF11 		ubfx	r1, r4, #7, #16
 919              	.LVL119:
 920 015e 5869     		ldr	r0, [r3, #20]
 921 0160 FFF7FEFF 		bl	mrbc_get_irep_symbol
 922              	.LVL120:
 247:..\..\mruby_c2\Design01.cydsn/vm.c **** 
 923              		.loc 1 247 0
 924 0164 FFF7FEFF 		bl	str_to_symid
 925              	.LVL121:
 926 0168 8046     		mov	r8, r0
 927              	.LVL122:
 249:..\..\mruby_c2\Design01.cydsn/vm.c ****   regs[ra].tt = MRB_TT_SYMBOL;
 928              		.loc 1 249 0
 929 016a 3C01     		lsls	r4, r7, #4
 930              	.LVL123:
 931 016c 3719     		adds	r7, r6, r4
 932              	.LVL124:
 933 016e 3846     		mov	r0, r7
 934 0170 FFF7FEFF 		bl	mrbc_release
 935              	.LVL125:
 250:..\..\mruby_c2\Design01.cydsn/vm.c ****   regs[ra].i = sym_id;
 936              		.loc 1 250 0
 937 0174 0623     		movs	r3, #6
 938 0176 3355     		strb	r3, [r6, r4]
 251:..\..\mruby_c2\Design01.cydsn/vm.c **** 
 939              		.loc 1 251 0
 940 0178 C7F80880 		str	r8, [r7, #8]
 941              	.LVL126:
 942              	.LBE194:
 943              	.LBE193:
1759:..\..\mruby_c2\Design01.cydsn/vm.c ****     case OP_LOADSYM:    ret = op_loadsym   (vm, code, regs); break;
 944              		.loc 1 1759 0
 945 017c 0027     		movs	r7, #0
 946 017e 01F031BA 		b	.L55
 947              	.LVL127:
 948              	.L61:
 949              	.LBB195:
 950              	.LBB196:
 270:..\..\mruby_c2\Design01.cydsn/vm.c **** 
 951              		.loc 1 270 0
 952 0182 E40D     		lsrs	r4, r4, #23
 953              	.LVL128:
 272:..\..\mruby_c2\Design01.cydsn/vm.c ****   regs[ra].tt = MRB_TT_NIL;
ARM GAS  C:\Users\164\AppData\Local\Temp\cc4PZf78.s 			page 52


 954              		.loc 1 272 0
 955 0184 2401     		lsls	r4, r4, #4
 956              	.LVL129:
 957 0186 3019     		adds	r0, r6, r4
 958 0188 FFF7FEFF 		bl	mrbc_release
 959              	.LVL130:
 273:..\..\mruby_c2\Design01.cydsn/vm.c **** 
 960              		.loc 1 273 0
 961 018c 0123     		movs	r3, #1
 962 018e 3355     		strb	r3, [r6, r4]
 963              	.LVL131:
 964              	.LBE196:
 965              	.LBE195:
1760:..\..\mruby_c2\Design01.cydsn/vm.c ****     case OP_LOADNIL:    ret = op_loadnil   (vm, code, regs); break;
 966              		.loc 1 1760 0
 967 0190 0027     		movs	r7, #0
 968 0192 01F027BA 		b	.L55
 969              	.LVL132:
 970              	.L62:
 971              	.LBB197:
 972              	.LBB198:
 292:..\..\mruby_c2\Design01.cydsn/vm.c **** 
 973              		.loc 1 292 0
 974 0196 E40D     		lsrs	r4, r4, #23
 975              	.LVL133:
 294:..\..\mruby_c2\Design01.cydsn/vm.c ****   mrbc_dup(&regs[0]);       // TODO: Need?
 976              		.loc 1 294 0
 977 0198 06EB0414 		add	r4, r6, r4, lsl #4
 978              	.LVL134:
 979 019c 2046     		mov	r0, r4
 980 019e FFF7FEFF 		bl	mrbc_release
 981              	.LVL135:
 295:..\..\mruby_c2\Design01.cydsn/vm.c ****   regs[ra] = regs[0];
 982              		.loc 1 295 0
 983 01a2 3046     		mov	r0, r6
 984 01a4 FFF7FEFF 		bl	mrbc_dup
 985              	.LVL136:
 296:..\..\mruby_c2\Design01.cydsn/vm.c **** 
 986              		.loc 1 296 0
 987 01a8 96E80F00 		ldmia	r6, {r0, r1, r2, r3}
 988 01ac 84E80F00 		stmia	r4, {r0, r1, r2, r3}
 989              	.LVL137:
 990              	.LBE198:
 991              	.LBE197:
1761:..\..\mruby_c2\Design01.cydsn/vm.c ****     case OP_LOADSELF:   ret = op_loadself  (vm, code, regs); break;
 992              		.loc 1 1761 0
 993 01b0 0027     		movs	r7, #0
 994 01b2 01F017BA 		b	.L55
 995              	.LVL138:
 996              	.L63:
 997              	.LBB199:
 998              	.LBB200:
 315:..\..\mruby_c2\Design01.cydsn/vm.c **** 
 999              		.loc 1 315 0
 1000 01b6 E40D     		lsrs	r4, r4, #23
 1001              	.LVL139:
 317:..\..\mruby_c2\Design01.cydsn/vm.c ****   regs[ra].tt = MRB_TT_TRUE;
ARM GAS  C:\Users\164\AppData\Local\Temp\cc4PZf78.s 			page 53


 1002              		.loc 1 317 0
 1003 01b8 2401     		lsls	r4, r4, #4
 1004              	.LVL140:
 1005 01ba 3019     		adds	r0, r6, r4
 1006 01bc FFF7FEFF 		bl	mrbc_release
 1007              	.LVL141:
 318:..\..\mruby_c2\Design01.cydsn/vm.c **** 
 1008              		.loc 1 318 0
 1009 01c0 0323     		movs	r3, #3
 1010 01c2 3355     		strb	r3, [r6, r4]
 1011              	.LVL142:
 1012              	.LBE200:
 1013              	.LBE199:
1762:..\..\mruby_c2\Design01.cydsn/vm.c ****     case OP_LOADT:      ret = op_loadt     (vm, code, regs); break;
 1014              		.loc 1 1762 0
 1015 01c4 0027     		movs	r7, #0
 1016 01c6 01F00DBA 		b	.L55
 1017              	.LVL143:
 1018              	.L64:
 1019              	.LBB201:
 1020              	.LBB202:
 337:..\..\mruby_c2\Design01.cydsn/vm.c **** 
 1021              		.loc 1 337 0
 1022 01ca E40D     		lsrs	r4, r4, #23
 1023              	.LVL144:
 339:..\..\mruby_c2\Design01.cydsn/vm.c ****   regs[ra].tt = MRB_TT_FALSE;
 1024              		.loc 1 339 0
 1025 01cc 2401     		lsls	r4, r4, #4
 1026              	.LVL145:
 1027 01ce 3019     		adds	r0, r6, r4
 1028 01d0 FFF7FEFF 		bl	mrbc_release
 1029              	.LVL146:
 340:..\..\mruby_c2\Design01.cydsn/vm.c **** 
 1030              		.loc 1 340 0
 1031 01d4 0223     		movs	r3, #2
 1032 01d6 3355     		strb	r3, [r6, r4]
 1033              	.LVL147:
 1034              	.LBE202:
 1035              	.LBE201:
1763:..\..\mruby_c2\Design01.cydsn/vm.c ****     case OP_LOADF:      ret = op_loadf     (vm, code, regs); break;
 1036              		.loc 1 1763 0
 1037 01d8 0027     		movs	r7, #0
 1038 01da 01F003BA 		b	.L55
 1039              	.LVL148:
 1040              	.L65:
 1041              	.LBB203:
 1042              	.LBB204:
 359:..\..\mruby_c2\Design01.cydsn/vm.c ****   int rb = GETARG_Bx(code);
 1043              		.loc 1 359 0
 1044 01de E70D     		lsrs	r7, r4, #23
 1045              	.LVL149:
 361:..\..\mruby_c2\Design01.cydsn/vm.c ****   mrb_sym sym_id = str_to_symid(sym_name);
 1046              		.loc 1 361 0
 1047 01e0 EB68     		ldr	r3, [r5, #12]
 1048              	.LVL150:
 1049 01e2 C4F3CF11 		ubfx	r1, r4, #7, #16
 1050              	.LVL151:
ARM GAS  C:\Users\164\AppData\Local\Temp\cc4PZf78.s 			page 54


 1051 01e6 5869     		ldr	r0, [r3, #20]
 1052 01e8 FFF7FEFF 		bl	mrbc_get_irep_symbol
 1053              	.LVL152:
 362:..\..\mruby_c2\Design01.cydsn/vm.c **** 
 1054              		.loc 1 362 0
 1055 01ec FFF7FEFF 		bl	str_to_symid
 1056              	.LVL153:
 1057 01f0 8046     		mov	r8, r0
 1058              	.LVL154:
 364:..\..\mruby_c2\Design01.cydsn/vm.c ****   regs[ra] = global_object_get(sym_id);
 1059              		.loc 1 364 0
 1060 01f2 06EB0716 		add	r6, r6, r7, lsl #4
 1061              	.LVL155:
 1062 01f6 3046     		mov	r0, r6
 1063 01f8 FFF7FEFF 		bl	mrbc_release
 1064              	.LVL156:
 365:..\..\mruby_c2\Design01.cydsn/vm.c **** 
 1065              		.loc 1 365 0
 1066 01fc 06AC     		add	r4, sp, #24
 1067              	.LVL157:
 1068 01fe 4146     		mov	r1, r8
 1069 0200 2046     		mov	r0, r4
 1070 0202 FFF7FEFF 		bl	global_object_get
 1071              	.LVL158:
 1072 0206 94E80F00 		ldmia	r4, {r0, r1, r2, r3}
 1073 020a 86E80F00 		stmia	r6, {r0, r1, r2, r3}
 1074              	.LVL159:
 1075              	.LBE204:
 1076              	.LBE203:
1764:..\..\mruby_c2\Design01.cydsn/vm.c ****     case OP_GETGLOBAL:  ret = op_getglobal (vm, code, regs); break;
 1077              		.loc 1 1764 0
 1078 020e 0027     		movs	r7, #0
 1079              	.LVL160:
 1080 0210 01F0E8B9 		b	.L55
 1081              	.LVL161:
 1082              	.L66:
 1083              	.LBB205:
 1084              	.LBB206:
 384:..\..\mruby_c2\Design01.cydsn/vm.c ****   int rb = GETARG_Bx(code);
 1085              		.loc 1 384 0
 1086 0214 E70D     		lsrs	r7, r4, #23
 1087              	.LVL162:
 386:..\..\mruby_c2\Design01.cydsn/vm.c ****   mrb_sym sym_id = str_to_symid(sym_name);
 1088              		.loc 1 386 0
 1089 0216 EB68     		ldr	r3, [r5, #12]
 1090              	.LVL163:
 1091 0218 C4F3CF11 		ubfx	r1, r4, #7, #16
 1092              	.LVL164:
 1093 021c 5869     		ldr	r0, [r3, #20]
 1094 021e FFF7FEFF 		bl	mrbc_get_irep_symbol
 1095              	.LVL165:
 387:..\..\mruby_c2\Design01.cydsn/vm.c ****   global_object_add(sym_id, regs[ra]);
 1096              		.loc 1 387 0
 1097 0222 FFF7FEFF 		bl	str_to_symid
 1098              	.LVL166:
 1099 0226 0446     		mov	r4, r0
 1100              	.LVL167:
ARM GAS  C:\Users\164\AppData\Local\Temp\cc4PZf78.s 			page 55


 388:..\..\mruby_c2\Design01.cydsn/vm.c **** 
 1101              		.loc 1 388 0
 1102 0228 06EB0716 		add	r6, r6, r7, lsl #4
 1103              	.LVL168:
 1104 022c 06F10803 		add	r3, r6, #8
 1105 0230 93E80300 		ldmia	r3, {r0, r1}
 1106 0234 8DE80300 		stmia	sp, {r0, r1}
 1107 0238 96E80C00 		ldmia	r6, {r2, r3}
 1108 023c 2046     		mov	r0, r4
 1109 023e FFF7FEFF 		bl	global_object_add
 1110              	.LVL169:
 1111              	.LBE206:
 1112              	.LBE205:
1765:..\..\mruby_c2\Design01.cydsn/vm.c ****     case OP_SETGLOBAL:  ret = op_setglobal (vm, code, regs); break;
 1113              		.loc 1 1765 0
 1114 0242 0027     		movs	r7, #0
 1115              	.LVL170:
 1116 0244 01F0CEB9 		b	.L55
 1117              	.LVL171:
 1118              	.L67:
 1119              	.LBB207:
 1120              	.LBB208:
 407:..\..\mruby_c2\Design01.cydsn/vm.c ****   int rb = GETARG_Bx(code);
 1121              		.loc 1 407 0
 1122 0248 E70D     		lsrs	r7, r4, #23
 1123              	.LVL172:
 410:..\..\mruby_c2\Design01.cydsn/vm.c ****   mrb_sym sym_id = str_to_symid(sym_name+1);	// skip '@'
 1124              		.loc 1 410 0
 1125 024a EB68     		ldr	r3, [r5, #12]
 1126              	.LVL173:
 1127 024c C4F3CF11 		ubfx	r1, r4, #7, #16
 1128              	.LVL174:
 1129 0250 5869     		ldr	r0, [r3, #20]
 1130 0252 FFF7FEFF 		bl	mrbc_get_irep_symbol
 1131              	.LVL175:
 411:..\..\mruby_c2\Design01.cydsn/vm.c **** 
 1132              		.loc 1 411 0
 1133 0256 0130     		adds	r0, r0, #1
 1134              	.LVL176:
 1135 0258 FFF7FEFF 		bl	str_to_symid
 1136              	.LVL177:
 413:..\..\mruby_c2\Design01.cydsn/vm.c **** 
 1137              		.loc 1 413 0
 1138 025c 0AAC     		add	r4, sp, #40
 1139              	.LVL178:
 1140 025e 0246     		mov	r2, r0
 1141 0260 3146     		mov	r1, r6
 1142 0262 2046     		mov	r0, r4
 1143              	.LVL179:
 1144 0264 FFF7FEFF 		bl	mrbc_instance_getiv
 1145              	.LVL180:
 415:..\..\mruby_c2\Design01.cydsn/vm.c ****   regs[ra] = val;
 1146              		.loc 1 415 0
 1147 0268 06EB0716 		add	r6, r6, r7, lsl #4
 1148              	.LVL181:
 1149 026c 3046     		mov	r0, r6
 1150 026e FFF7FEFF 		bl	mrbc_release
ARM GAS  C:\Users\164\AppData\Local\Temp\cc4PZf78.s 			page 56


 1151              	.LVL182:
 416:..\..\mruby_c2\Design01.cydsn/vm.c **** 
 1152              		.loc 1 416 0
 1153 0272 94E80F00 		ldmia	r4, {r0, r1, r2, r3}
 1154 0276 86E80F00 		stmia	r6, {r0, r1, r2, r3}
 1155              	.LVL183:
 1156              	.LBE208:
 1157              	.LBE207:
1766:..\..\mruby_c2\Design01.cydsn/vm.c ****     case OP_GETIV:      ret = op_getiv     (vm, code, regs); break;
 1158              		.loc 1 1766 0
 1159 027a 0027     		movs	r7, #0
 1160              	.LVL184:
 1161 027c 01F0B2B9 		b	.L55
 1162              	.LVL185:
 1163              	.L68:
 1164              	.LBB209:
 1165              	.LBB210:
 435:..\..\mruby_c2\Design01.cydsn/vm.c ****   int rb = GETARG_Bx(code);
 1166              		.loc 1 435 0
 1167 0280 E70D     		lsrs	r7, r4, #23
 1168              	.LVL186:
 438:..\..\mruby_c2\Design01.cydsn/vm.c ****   mrb_sym sym_id = str_to_symid(sym_name+1);	// skip '@'
 1169              		.loc 1 438 0
 1170 0282 EB68     		ldr	r3, [r5, #12]
 1171              	.LVL187:
 1172 0284 C4F3CF11 		ubfx	r1, r4, #7, #16
 1173              	.LVL188:
 1174 0288 5869     		ldr	r0, [r3, #20]
 1175 028a FFF7FEFF 		bl	mrbc_get_irep_symbol
 1176              	.LVL189:
 439:..\..\mruby_c2\Design01.cydsn/vm.c **** 
 1177              		.loc 1 439 0
 1178 028e 0130     		adds	r0, r0, #1
 1179              	.LVL190:
 1180 0290 FFF7FEFF 		bl	str_to_symid
 1181              	.LVL191:
 441:..\..\mruby_c2\Design01.cydsn/vm.c **** 
 1182              		.loc 1 441 0
 1183 0294 06EB0712 		add	r2, r6, r7, lsl #4
 1184 0298 0146     		mov	r1, r0
 1185 029a 3046     		mov	r0, r6
 1186              	.LVL192:
 1187 029c FFF7FEFF 		bl	mrbc_instance_setiv
 1188              	.LVL193:
 1189              	.LBE210:
 1190              	.LBE209:
1767:..\..\mruby_c2\Design01.cydsn/vm.c ****     case OP_SETIV:      ret = op_setiv     (vm, code, regs); break;
 1191              		.loc 1 1767 0
 1192 02a0 0027     		movs	r7, #0
 1193              	.LVL194:
 1194 02a2 01F09FB9 		b	.L55
 1195              	.LVL195:
 1196              	.L69:
 1197              	.LBB211:
 1198              	.LBB212:
 460:..\..\mruby_c2\Design01.cydsn/vm.c ****   int rb = GETARG_Bx(code);
 1199              		.loc 1 460 0
ARM GAS  C:\Users\164\AppData\Local\Temp\cc4PZf78.s 			page 57


 1200 02a6 E70D     		lsrs	r7, r4, #23
 1201              	.LVL196:
 462:..\..\mruby_c2\Design01.cydsn/vm.c ****   mrb_sym sym_id = str_to_symid(sym_name);
 1202              		.loc 1 462 0
 1203 02a8 EB68     		ldr	r3, [r5, #12]
 1204              	.LVL197:
 1205 02aa C4F3CF11 		ubfx	r1, r4, #7, #16
 1206              	.LVL198:
 1207 02ae 5869     		ldr	r0, [r3, #20]
 1208 02b0 FFF7FEFF 		bl	mrbc_get_irep_symbol
 1209              	.LVL199:
 463:..\..\mruby_c2\Design01.cydsn/vm.c **** 
 1210              		.loc 1 463 0
 1211 02b4 FFF7FEFF 		bl	str_to_symid
 1212              	.LVL200:
 1213 02b8 8046     		mov	r8, r0
 1214              	.LVL201:
 465:..\..\mruby_c2\Design01.cydsn/vm.c ****   regs[ra] = const_object_get(sym_id);
 1215              		.loc 1 465 0
 1216 02ba 06EB0716 		add	r6, r6, r7, lsl #4
 1217              	.LVL202:
 1218 02be 3046     		mov	r0, r6
 1219 02c0 FFF7FEFF 		bl	mrbc_release
 1220              	.LVL203:
 466:..\..\mruby_c2\Design01.cydsn/vm.c **** 
 1221              		.loc 1 466 0
 1222 02c4 06AC     		add	r4, sp, #24
 1223              	.LVL204:
 1224 02c6 4146     		mov	r1, r8
 1225 02c8 2046     		mov	r0, r4
 1226 02ca FFF7FEFF 		bl	const_object_get
 1227              	.LVL205:
 1228 02ce 94E80F00 		ldmia	r4, {r0, r1, r2, r3}
 1229 02d2 86E80F00 		stmia	r6, {r0, r1, r2, r3}
 1230              	.LVL206:
 1231              	.LBE212:
 1232              	.LBE211:
1768:..\..\mruby_c2\Design01.cydsn/vm.c ****     case OP_GETCONST:   ret = op_getconst  (vm, code, regs); break;
 1233              		.loc 1 1768 0
 1234 02d6 0027     		movs	r7, #0
 1235              	.LVL207:
 1236 02d8 01F084B9 		b	.L55
 1237              	.LVL208:
 1238              	.L70:
 1239              	.LBB213:
 1240              	.LBB214:
 485:..\..\mruby_c2\Design01.cydsn/vm.c ****   int rb = GETARG_Bx(code);
 1241              		.loc 1 485 0
 1242 02dc E70D     		lsrs	r7, r4, #23
 1243              	.LVL209:
 487:..\..\mruby_c2\Design01.cydsn/vm.c ****   mrb_sym sym_id = str_to_symid(sym_name);
 1244              		.loc 1 487 0
 1245 02de EB68     		ldr	r3, [r5, #12]
 1246              	.LVL210:
 1247 02e0 C4F3CF11 		ubfx	r1, r4, #7, #16
 1248              	.LVL211:
 1249 02e4 5869     		ldr	r0, [r3, #20]
ARM GAS  C:\Users\164\AppData\Local\Temp\cc4PZf78.s 			page 58


 1250 02e6 FFF7FEFF 		bl	mrbc_get_irep_symbol
 1251              	.LVL212:
 488:..\..\mruby_c2\Design01.cydsn/vm.c ****   const_object_add(sym_id, &regs[ra]);
 1252              		.loc 1 488 0
 1253 02ea FFF7FEFF 		bl	str_to_symid
 1254              	.LVL213:
 489:..\..\mruby_c2\Design01.cydsn/vm.c **** 
 1255              		.loc 1 489 0
 1256 02ee 06EB0711 		add	r1, r6, r7, lsl #4
 1257 02f2 FFF7FEFF 		bl	const_object_add
 1258              	.LVL214:
 1259              	.LBE214:
 1260              	.LBE213:
1769:..\..\mruby_c2\Design01.cydsn/vm.c ****     case OP_SETCONST:   ret = op_setconst  (vm, code, regs); break;
 1261              		.loc 1 1769 0
 1262 02f6 0027     		movs	r7, #0
 1263              	.LVL215:
 1264 02f8 01F074B9 		b	.L55
 1265              	.LVL216:
 1266              	.L71:
 1267              	.LBB215:
 1268              	.LBB216:
 509:..\..\mruby_c2\Design01.cydsn/vm.c ****   int rb = GETARG_B(code);
 1269              		.loc 1 509 0
 1270 02fc E00D     		lsrs	r0, r4, #23
 1271              	.LVL217:
 510:..\..\mruby_c2\Design01.cydsn/vm.c ****   int rc = GETARG_C(code);   // UP
 1272              		.loc 1 510 0
 1273 02fe C4F38837 		ubfx	r7, r4, #14, #9
 1274              	.LVL218:
 511:..\..\mruby_c2\Design01.cydsn/vm.c ****   
 1275              		.loc 1 511 0
 1276 0302 C4F3C614 		ubfx	r4, r4, #7, #7
 1277              	.LVL219:
 513:..\..\mruby_c2\Design01.cydsn/vm.c ****   mrb_value *up_regs = callinfo->current_regs;
 1278              		.loc 1 513 0
 1279 0306 05F5CC63 		add	r3, r5, #1632
 1280              	.LVL220:
 1281 030a B5F85C26 		ldrh	r2, [r5, #1628]
 1282 030e 141B     		subs	r4, r2, r4
 1283              	.LVL221:
 1284 0310 04EB8404 		add	r4, r4, r4, lsl #2
 1285 0314 A200     		lsls	r2, r4, #2
 1286 0316 283A     		subs	r2, r2, #40
 1287 0318 1344     		add	r3, r3, r2
 1288              	.LVL222:
 514:..\..\mruby_c2\Design01.cydsn/vm.c ****   
 1289              		.loc 1 514 0
 1290 031a 9C68     		ldr	r4, [r3, #8]
 1291              	.LVL223:
 516:..\..\mruby_c2\Design01.cydsn/vm.c ****   mrbc_dup( &up_regs[rb] );
 1292              		.loc 1 516 0
 1293 031c 06EB0016 		add	r6, r6, r0, lsl #4
 1294              	.LVL224:
 1295 0320 3046     		mov	r0, r6
 1296              	.LVL225:
 1297 0322 FFF7FEFF 		bl	mrbc_release
ARM GAS  C:\Users\164\AppData\Local\Temp\cc4PZf78.s 			page 59


 1298              	.LVL226:
 517:..\..\mruby_c2\Design01.cydsn/vm.c ****   regs[ra] = up_regs[rb];
 1299              		.loc 1 517 0
 1300 0326 04EB0717 		add	r7, r4, r7, lsl #4
 1301              	.LVL227:
 1302 032a 3846     		mov	r0, r7
 1303 032c FFF7FEFF 		bl	mrbc_dup
 1304              	.LVL228:
 518:..\..\mruby_c2\Design01.cydsn/vm.c ****   
 1305              		.loc 1 518 0
 1306 0330 97E80F00 		ldmia	r7, {r0, r1, r2, r3}
 1307 0334 86E80F00 		stmia	r6, {r0, r1, r2, r3}
 1308              	.LVL229:
 1309              	.LBE216:
 1310              	.LBE215:
1770:..\..\mruby_c2\Design01.cydsn/vm.c ****     case OP_GETUPVAR:   ret = op_getupvar  (vm, code, regs); break;
 1311              		.loc 1 1770 0
 1312 0338 0027     		movs	r7, #0
 1313 033a 01F053B9 		b	.L55
 1314              	.LVL230:
 1315              	.L72:
 1316              	.LBB217:
 1317              	.LBB218:
 538:..\..\mruby_c2\Design01.cydsn/vm.c ****   int rb = GETARG_B(code);
 1318              		.loc 1 538 0
 1319 033e E70D     		lsrs	r7, r4, #23
 1320              	.LVL231:
 539:..\..\mruby_c2\Design01.cydsn/vm.c ****   int rc = GETARG_C(code);   // UP
 1321              		.loc 1 539 0
 1322 0340 C4F38830 		ubfx	r0, r4, #14, #9
 1323              	.LVL232:
 540:..\..\mruby_c2\Design01.cydsn/vm.c ****   
 1324              		.loc 1 540 0
 1325 0344 C4F3C614 		ubfx	r4, r4, #7, #7
 1326              	.LVL233:
 542:..\..\mruby_c2\Design01.cydsn/vm.c ****   mrb_value *up_regs = callinfo->current_regs;
 1327              		.loc 1 542 0
 1328 0348 05F5CC63 		add	r3, r5, #1632
 1329              	.LVL234:
 1330 034c B5F85C26 		ldrh	r2, [r5, #1628]
 1331 0350 141B     		subs	r4, r2, r4
 1332              	.LVL235:
 1333 0352 04EB8404 		add	r4, r4, r4, lsl #2
 1334 0356 A200     		lsls	r2, r4, #2
 1335 0358 283A     		subs	r2, r2, #40
 1336 035a 1344     		add	r3, r3, r2
 1337              	.LVL236:
 543:..\..\mruby_c2\Design01.cydsn/vm.c **** 
 1338              		.loc 1 543 0
 1339 035c 9B68     		ldr	r3, [r3, #8]
 1340              	.LVL237:
 545:..\..\mruby_c2\Design01.cydsn/vm.c ****   mrbc_dup( &regs[ra] );
 1341              		.loc 1 545 0
 1342 035e 03EB0014 		add	r4, r3, r0, lsl #4
 1343 0362 2046     		mov	r0, r4
 1344              	.LVL238:
 1345 0364 FFF7FEFF 		bl	mrbc_release
ARM GAS  C:\Users\164\AppData\Local\Temp\cc4PZf78.s 			page 60


 1346              	.LVL239:
 546:..\..\mruby_c2\Design01.cydsn/vm.c ****   up_regs[rb] = regs[ra];
 1347              		.loc 1 546 0
 1348 0368 06EB0716 		add	r6, r6, r7, lsl #4
 1349              	.LVL240:
 1350 036c 3046     		mov	r0, r6
 1351 036e FFF7FEFF 		bl	mrbc_dup
 1352              	.LVL241:
 547:..\..\mruby_c2\Design01.cydsn/vm.c **** 
 1353              		.loc 1 547 0
 1354 0372 96E80F00 		ldmia	r6, {r0, r1, r2, r3}
 1355 0376 84E80F00 		stmia	r4, {r0, r1, r2, r3}
 1356              	.LVL242:
 1357              	.LBE218:
 1358              	.LBE217:
1771:..\..\mruby_c2\Design01.cydsn/vm.c ****     case OP_SETUPVAR:   ret = op_setupvar  (vm, code, regs); break;
 1359              		.loc 1 1771 0
 1360 037a 0027     		movs	r7, #0
 1361              	.LVL243:
 1362 037c 01F032B9 		b	.L55
 1363              	.LVL244:
 1364              	.L73:
 1365              	.LBB219:
 1366              	.LBB220:
 567:..\..\mruby_c2\Design01.cydsn/vm.c ****   return 0;
 1367              		.loc 1 567 0
 1368 0380 02EBD412 		add	r2, r2, r4, lsr #7
 1369 0384 A2F50042 		sub	r2, r2, #32768
 1370 0388 2A82     		strh	r2, [r5, #16]	@ movhi
 1371              	.LVL245:
 1372              	.LBE220:
 1373              	.LBE219:
1772:..\..\mruby_c2\Design01.cydsn/vm.c ****     case OP_JMP:        ret = op_jmp       (vm, code, regs); break;
 1374              		.loc 1 1772 0
 1375 038a 0027     		movs	r7, #0
 1376 038c 01F02AB9 		b	.L55
 1377              	.LVL246:
 1378              	.L74:
 1379              	.LBB221:
 1380              	.LBB222:
 585:..\..\mruby_c2\Design01.cydsn/vm.c ****     vm->pc += GETARG_sBx(code) - 1;
 1381              		.loc 1 585 0
 1382 0390 E30D     		lsrs	r3, r4, #23
 1383              	.LVL247:
 1384 0392 1B01     		lsls	r3, r3, #4
 1385 0394 F356     		ldrsb	r3, [r6, r3]
 1386 0396 022B     		cmp	r3, #2
 1387 0398 41F31F81 		ble	.L272
 586:..\..\mruby_c2\Design01.cydsn/vm.c ****   }
 1388              		.loc 1 586 0
 1389 039c 02EBD413 		add	r3, r2, r4, lsr #7
 1390 03a0 A3F50043 		sub	r3, r3, #32768
 1391 03a4 2B82     		strh	r3, [r5, #16]	@ movhi
 1392              	.LBE222:
 1393              	.LBE221:
1773:..\..\mruby_c2\Design01.cydsn/vm.c ****     case OP_JMPIF:      ret = op_jmpif     (vm, code, regs); break;
 1394              		.loc 1 1773 0
ARM GAS  C:\Users\164\AppData\Local\Temp\cc4PZf78.s 			page 61


 1395 03a6 0027     		movs	r7, #0
 1396              	.LVL248:
 1397 03a8 01F01CB9 		b	.L55
 1398              	.LVL249:
 1399              	.L75:
 1400              	.LBB223:
 1401              	.LBB224:
 605:..\..\mruby_c2\Design01.cydsn/vm.c ****     vm->pc += GETARG_sBx(code) - 1;
 1402              		.loc 1 605 0
 1403 03ac E30D     		lsrs	r3, r4, #23
 1404              	.LVL250:
 1405 03ae 1B01     		lsls	r3, r3, #4
 1406 03b0 F356     		ldrsb	r3, [r6, r3]
 1407 03b2 022B     		cmp	r3, #2
 1408 03b4 01F31381 		bgt	.L273
 606:..\..\mruby_c2\Design01.cydsn/vm.c ****   }
 1409              		.loc 1 606 0
 1410 03b8 02EBD413 		add	r3, r2, r4, lsr #7
 1411 03bc A3F50043 		sub	r3, r3, #32768
 1412 03c0 2B82     		strh	r3, [r5, #16]	@ movhi
 1413              	.LBE224:
 1414              	.LBE223:
1774:..\..\mruby_c2\Design01.cydsn/vm.c ****     case OP_JMPNOT:     ret = op_jmpnot    (vm, code, regs); break;
 1415              		.loc 1 1774 0
 1416 03c2 0027     		movs	r7, #0
 1417              	.LVL251:
 1418 03c4 01F00EB9 		b	.L55
 1419              	.LVL252:
 1420              	.L76:
 1421              	.LBB225:
 1422              	.LBB226:
 626:..\..\mruby_c2\Design01.cydsn/vm.c ****   int rb = GETARG_B(code);  // index of method sym
 1423              		.loc 1 626 0
 1424 03c8 E70D     		lsrs	r7, r4, #23
 1425              	.LVL253:
 627:..\..\mruby_c2\Design01.cydsn/vm.c ****   int rc = GETARG_C(code);  // number of params
 1426              		.loc 1 627 0
 1427 03ca C4F3883B 		ubfx	fp, r4, #14, #9
 1428              	.LVL254:
 628:..\..\mruby_c2\Design01.cydsn/vm.c ****   mrb_value recv = regs[ra];
 1429              		.loc 1 628 0
 1430 03ce C4F3C61A 		ubfx	r10, r4, #7, #7
 1431              	.LVL255:
 629:..\..\mruby_c2\Design01.cydsn/vm.c **** 
 1432              		.loc 1 629 0
 1433 03d2 4FEA0719 		lsl	r9, r7, #4
 1434 03d6 06EB0908 		add	r8, r6, r9
 1435 03da 98E80F00 		ldmia	r8, {r0, r1, r2, r3}
 1436              	.LVL256:
 1437 03de 0DF1380E 		add	lr, sp, #56
 1438 03e2 0EE90F00 		stmdb	lr, {r0, r1, r2, r3}
 632:..\..\mruby_c2\Design01.cydsn/vm.c ****   switch( GET_OPCODE(code) ) {
 1439              		.loc 1 632 0
 1440 03e6 5744     		add	r7, r7, r10
 1441              	.LVL257:
 1442 03e8 0137     		adds	r7, r7, #1
 1443              	.LVL258:
ARM GAS  C:\Users\164\AppData\Local\Temp\cc4PZf78.s 			page 62


 633:..\..\mruby_c2\Design01.cydsn/vm.c ****   case OP_SEND:
 1444              		.loc 1 633 0
 1445 03ea 04F07F04 		and	r4, r4, #127
 1446              	.LVL259:
 1447 03ee 202C     		cmp	r4, #32
 1448 03f0 02D0     		beq	.L105
 1449 03f2 212C     		cmp	r4, #33
 1450 03f4 07D0     		beq	.L106
 1451 03f6 0CE0     		b	.L104
 1452              	.L105:
 636:..\..\mruby_c2\Design01.cydsn/vm.c ****     regs[bidx].tt = MRB_TT_NIL;
 1453              		.loc 1 636 0
 1454 03f8 3C01     		lsls	r4, r7, #4
 1455 03fa 3019     		adds	r0, r6, r4
 1456 03fc FFF7FEFF 		bl	mrbc_release
 1457              	.LVL260:
 637:..\..\mruby_c2\Design01.cydsn/vm.c ****     break;
 1458              		.loc 1 637 0
 1459 0400 0123     		movs	r3, #1
 1460 0402 3355     		strb	r3, [r6, r4]
 1461 0404 05E0     		b	.L104
 1462              	.L106:
 642:..\..\mruby_c2\Design01.cydsn/vm.c ****       // TODO: fix the following behavior
 1463              		.loc 1 642 0
 1464 0406 3B01     		lsls	r3, r7, #4
 1465 0408 F356     		ldrsb	r3, [r6, r3]
 1466 040a 012B     		cmp	r3, #1
 1467 040c 01D0     		beq	.L104
 1468 040e 152B     		cmp	r3, #21
 1469 0410 37D1     		bne	.L107
 1470              	.L104:
 654:..\..\mruby_c2\Design01.cydsn/vm.c ****   mrb_sym sym_id = str_to_symid(sym_name);
 1471              		.loc 1 654 0
 1472 0412 EB68     		ldr	r3, [r5, #12]
 1473 0414 5946     		mov	r1, fp
 1474 0416 5869     		ldr	r0, [r3, #20]
 1475 0418 FFF7FEFF 		bl	mrbc_get_irep_symbol
 1476              	.LVL261:
 1477 041c 0646     		mov	r6, r0
 1478              	.LVL262:
 655:..\..\mruby_c2\Design01.cydsn/vm.c ****   mrb_proc *m = find_method(vm, recv, sym_id);
 1479              		.loc 1 655 0
 1480 041e FFF7FEFF 		bl	str_to_symid
 1481              	.LVL263:
 656:..\..\mruby_c2\Design01.cydsn/vm.c **** 
 1482              		.loc 1 656 0
 1483 0422 0290     		str	r0, [sp, #8]
 1484 0424 0EAB     		add	r3, sp, #56
 1485 0426 13E90300 		ldmdb	r3, {r0, r1}
 1486              	.LVL264:
 1487 042a 8DE80300 		stmia	sp, {r0, r1}
 1488 042e 0AAB     		add	r3, sp, #40
 1489 0430 0CCB     		ldmia	r3, {r2, r3}
 1490 0432 2846     		mov	r0, r5
 1491 0434 FFF7FEFF 		bl	find_method
 1492              	.LVL265:
 658:..\..\mruby_c2\Design01.cydsn/vm.c ****     console_printf("No method. vtype=%d method='%s'\n", recv.tt, sym_name);
ARM GAS  C:\Users\164\AppData\Local\Temp\cc4PZf78.s 			page 63


 1493              		.loc 1 658 0
 1494 0438 0446     		mov	r4, r0
 1495 043a 30B9     		cbnz	r0, .L108
 659:..\..\mruby_c2\Design01.cydsn/vm.c ****     return 0;
 1496              		.loc 1 659 0
 1497 043c 3246     		mov	r2, r6
 1498 043e 9DF92810 		ldrsb	r1, [sp, #40]
 1499 0442 BF48     		ldr	r0, .L287
 1500              	.LVL266:
 1501 0444 FFF7FEFF 		bl	console_printf
 1502              	.LVL267:
 1503 0448 1BE0     		b	.L107
 1504              	.LVL268:
 1505              	.L108:
 664:..\..\mruby_c2\Design01.cydsn/vm.c ****     m->func(vm, regs + ra, rc);
 1506              		.loc 1 664 0
 1507 044a C378     		ldrb	r3, [r0, #3]	@ zero_extendqisi2
 1508 044c 13F0010F 		tst	r3, #1
 1509 0450 0AD0     		beq	.L109
 1510              	.LBB227:
 665:..\..\mruby_c2\Design01.cydsn/vm.c **** 
 1511              		.loc 1 665 0
 1512 0452 C368     		ldr	r3, [r0, #12]
 1513 0454 5246     		mov	r2, r10
 1514 0456 4146     		mov	r1, r8
 1515 0458 2846     		mov	r0, r5
 1516              	.LVL269:
 1517 045a 9847     		blx	r3
 1518              	.LVL270:
 667:..\..\mruby_c2\Design01.cydsn/vm.c ****     while( release_reg <= bidx ) {
 1519              		.loc 1 667 0
 1520 045c 3B46     		mov	r3, r7
 1521 045e 00E0     		b	.L110
 1522              	.LVL271:
 1523              	.L111:
 670:..\..\mruby_c2\Design01.cydsn/vm.c ****     }
 1524              		.loc 1 670 0
 1525 0460 0133     		adds	r3, r3, #1
 1526              	.LVL272:
 1527              	.L110:
 668:..\..\mruby_c2\Design01.cydsn/vm.c ****       // mrbc_release(&regs[release_reg]);
 1528              		.loc 1 668 0
 1529 0462 9F42     		cmp	r7, r3
 1530 0464 FCDA     		bge	.L111
 1531 0466 0CE0     		b	.L107
 1532              	.LVL273:
 1533              	.L109:
 1534              	.LBE227:
 677:..\..\mruby_c2\Design01.cydsn/vm.c **** 
 1535              		.loc 1 677 0
 1536 0468 5146     		mov	r1, r10
 1537 046a 2846     		mov	r0, r5
 1538              	.LVL274:
 1539 046c FFF7FEFF 		bl	mrbc_push_callinfo
 1540              	.LVL275:
 680:..\..\mruby_c2\Design01.cydsn/vm.c ****   vm->pc_irep = m->irep;
 1541              		.loc 1 680 0
ARM GAS  C:\Users\164\AppData\Local\Temp\cc4PZf78.s 			page 64


 1542 0470 0023     		movs	r3, #0
 1543 0472 2B82     		strh	r3, [r5, #16]	@ movhi
 681:..\..\mruby_c2\Design01.cydsn/vm.c **** 
 1544              		.loc 1 681 0
 1545 0474 E368     		ldr	r3, [r4, #12]
 1546 0476 EB60     		str	r3, [r5, #12]
 684:..\..\mruby_c2\Design01.cydsn/vm.c **** 
 1547              		.loc 1 684 0
 1548 0478 D5F85836 		ldr	r3, [r5, #1624]
 1549 047c 4B44     		add	r3, r3, r9
 1550 047e C5F85836 		str	r3, [r5, #1624]
 1551              	.LVL276:
 1552              	.L107:
 1553              	.LBE226:
 1554              	.LBE225:
1775:..\..\mruby_c2\Design01.cydsn/vm.c ****     case OP_SEND:       ret = op_send      (vm, code, regs); break;
 1555              		.loc 1 1775 0
 1556 0482 0027     		movs	r7, #0
 1557 0484 01F0AEB8 		b	.L55
 1558              	.LVL277:
 1559              	.L77:
 1560              	.LBB228:
 1561              	.LBB229:
 626:..\..\mruby_c2\Design01.cydsn/vm.c ****   int rb = GETARG_B(code);  // index of method sym
 1562              		.loc 1 626 0
 1563 0488 E70D     		lsrs	r7, r4, #23
 1564              	.LVL278:
 627:..\..\mruby_c2\Design01.cydsn/vm.c ****   int rc = GETARG_C(code);  // number of params
 1565              		.loc 1 627 0
 1566 048a C4F3883B 		ubfx	fp, r4, #14, #9
 1567              	.LVL279:
 628:..\..\mruby_c2\Design01.cydsn/vm.c ****   mrb_value recv = regs[ra];
 1568              		.loc 1 628 0
 1569 048e C4F3C61A 		ubfx	r10, r4, #7, #7
 1570              	.LVL280:
 629:..\..\mruby_c2\Design01.cydsn/vm.c **** 
 1571              		.loc 1 629 0
 1572 0492 4FEA0719 		lsl	r9, r7, #4
 1573 0496 06EB0908 		add	r8, r6, r9
 1574 049a 98E80F00 		ldmia	r8, {r0, r1, r2, r3}
 1575              	.LVL281:
 1576 049e 0DF1380E 		add	lr, sp, #56
 1577 04a2 0EE90F00 		stmdb	lr, {r0, r1, r2, r3}
 632:..\..\mruby_c2\Design01.cydsn/vm.c ****   switch( GET_OPCODE(code) ) {
 1578              		.loc 1 632 0
 1579 04a6 5744     		add	r7, r7, r10
 1580              	.LVL282:
 1581 04a8 0137     		adds	r7, r7, #1
 1582              	.LVL283:
 633:..\..\mruby_c2\Design01.cydsn/vm.c ****   case OP_SEND:
 1583              		.loc 1 633 0
 1584 04aa 04F07F04 		and	r4, r4, #127
 1585              	.LVL284:
 1586 04ae 202C     		cmp	r4, #32
 1587 04b0 02D0     		beq	.L113
 1588 04b2 212C     		cmp	r4, #33
 1589 04b4 07D0     		beq	.L114
ARM GAS  C:\Users\164\AppData\Local\Temp\cc4PZf78.s 			page 65


 1590 04b6 0CE0     		b	.L112
 1591              	.L113:
 636:..\..\mruby_c2\Design01.cydsn/vm.c ****     regs[bidx].tt = MRB_TT_NIL;
 1592              		.loc 1 636 0
 1593 04b8 3C01     		lsls	r4, r7, #4
 1594 04ba 3019     		adds	r0, r6, r4
 1595 04bc FFF7FEFF 		bl	mrbc_release
 1596              	.LVL285:
 637:..\..\mruby_c2\Design01.cydsn/vm.c ****     break;
 1597              		.loc 1 637 0
 1598 04c0 0123     		movs	r3, #1
 1599 04c2 3355     		strb	r3, [r6, r4]
 1600 04c4 05E0     		b	.L112
 1601              	.L114:
 642:..\..\mruby_c2\Design01.cydsn/vm.c ****       // TODO: fix the following behavior
 1602              		.loc 1 642 0
 1603 04c6 3B01     		lsls	r3, r7, #4
 1604 04c8 F356     		ldrsb	r3, [r6, r3]
 1605 04ca 012B     		cmp	r3, #1
 1606 04cc 01D0     		beq	.L112
 1607 04ce 152B     		cmp	r3, #21
 1608 04d0 37D1     		bne	.L115
 1609              	.L112:
 654:..\..\mruby_c2\Design01.cydsn/vm.c ****   mrb_sym sym_id = str_to_symid(sym_name);
 1610              		.loc 1 654 0
 1611 04d2 EB68     		ldr	r3, [r5, #12]
 1612 04d4 5946     		mov	r1, fp
 1613 04d6 5869     		ldr	r0, [r3, #20]
 1614 04d8 FFF7FEFF 		bl	mrbc_get_irep_symbol
 1615              	.LVL286:
 1616 04dc 0646     		mov	r6, r0
 1617              	.LVL287:
 655:..\..\mruby_c2\Design01.cydsn/vm.c ****   mrb_proc *m = find_method(vm, recv, sym_id);
 1618              		.loc 1 655 0
 1619 04de FFF7FEFF 		bl	str_to_symid
 1620              	.LVL288:
 656:..\..\mruby_c2\Design01.cydsn/vm.c **** 
 1621              		.loc 1 656 0
 1622 04e2 0290     		str	r0, [sp, #8]
 1623 04e4 0EAB     		add	r3, sp, #56
 1624 04e6 13E90300 		ldmdb	r3, {r0, r1}
 1625              	.LVL289:
 1626 04ea 8DE80300 		stmia	sp, {r0, r1}
 1627 04ee 0AAB     		add	r3, sp, #40
 1628 04f0 0CCB     		ldmia	r3, {r2, r3}
 1629 04f2 2846     		mov	r0, r5
 1630 04f4 FFF7FEFF 		bl	find_method
 1631              	.LVL290:
 658:..\..\mruby_c2\Design01.cydsn/vm.c ****     console_printf("No method. vtype=%d method='%s'\n", recv.tt, sym_name);
 1632              		.loc 1 658 0
 1633 04f8 0446     		mov	r4, r0
 1634 04fa 30B9     		cbnz	r0, .L116
 659:..\..\mruby_c2\Design01.cydsn/vm.c ****     return 0;
 1635              		.loc 1 659 0
 1636 04fc 3246     		mov	r2, r6
 1637 04fe 9DF92810 		ldrsb	r1, [sp, #40]
 1638 0502 8F48     		ldr	r0, .L287
ARM GAS  C:\Users\164\AppData\Local\Temp\cc4PZf78.s 			page 66


 1639              	.LVL291:
 1640 0504 FFF7FEFF 		bl	console_printf
 1641              	.LVL292:
 1642 0508 1BE0     		b	.L115
 1643              	.LVL293:
 1644              	.L116:
 664:..\..\mruby_c2\Design01.cydsn/vm.c ****     m->func(vm, regs + ra, rc);
 1645              		.loc 1 664 0
 1646 050a C378     		ldrb	r3, [r0, #3]	@ zero_extendqisi2
 1647 050c 13F0010F 		tst	r3, #1
 1648 0510 0AD0     		beq	.L117
 1649              	.LBB230:
 665:..\..\mruby_c2\Design01.cydsn/vm.c **** 
 1650              		.loc 1 665 0
 1651 0512 C368     		ldr	r3, [r0, #12]
 1652 0514 5246     		mov	r2, r10
 1653 0516 4146     		mov	r1, r8
 1654 0518 2846     		mov	r0, r5
 1655              	.LVL294:
 1656 051a 9847     		blx	r3
 1657              	.LVL295:
 667:..\..\mruby_c2\Design01.cydsn/vm.c ****     while( release_reg <= bidx ) {
 1658              		.loc 1 667 0
 1659 051c 3B46     		mov	r3, r7
 1660 051e 00E0     		b	.L118
 1661              	.LVL296:
 1662              	.L119:
 670:..\..\mruby_c2\Design01.cydsn/vm.c ****     }
 1663              		.loc 1 670 0
 1664 0520 0133     		adds	r3, r3, #1
 1665              	.LVL297:
 1666              	.L118:
 668:..\..\mruby_c2\Design01.cydsn/vm.c ****       // mrbc_release(&regs[release_reg]);
 1667              		.loc 1 668 0
 1668 0522 9F42     		cmp	r7, r3
 1669 0524 FCDA     		bge	.L119
 1670 0526 0CE0     		b	.L115
 1671              	.LVL298:
 1672              	.L117:
 1673              	.LBE230:
 677:..\..\mruby_c2\Design01.cydsn/vm.c **** 
 1674              		.loc 1 677 0
 1675 0528 5146     		mov	r1, r10
 1676 052a 2846     		mov	r0, r5
 1677              	.LVL299:
 1678 052c FFF7FEFF 		bl	mrbc_push_callinfo
 1679              	.LVL300:
 680:..\..\mruby_c2\Design01.cydsn/vm.c ****   vm->pc_irep = m->irep;
 1680              		.loc 1 680 0
 1681 0530 0023     		movs	r3, #0
 1682 0532 2B82     		strh	r3, [r5, #16]	@ movhi
 681:..\..\mruby_c2\Design01.cydsn/vm.c **** 
 1683              		.loc 1 681 0
 1684 0534 E368     		ldr	r3, [r4, #12]
 1685 0536 EB60     		str	r3, [r5, #12]
 684:..\..\mruby_c2\Design01.cydsn/vm.c **** 
 1686              		.loc 1 684 0
ARM GAS  C:\Users\164\AppData\Local\Temp\cc4PZf78.s 			page 67


 1687 0538 D5F85836 		ldr	r3, [r5, #1624]
 1688 053c 4B44     		add	r3, r3, r9
 1689 053e C5F85836 		str	r3, [r5, #1624]
 1690              	.LVL301:
 1691              	.L115:
 1692              	.LBE229:
 1693              	.LBE228:
1776:..\..\mruby_c2\Design01.cydsn/vm.c ****     case OP_SENDB:      ret = op_send      (vm, code, regs); break;  // reuse
 1694              		.loc 1 1776 0
 1695 0542 0027     		movs	r7, #0
 1696 0544 01F04EB8 		b	.L55
 1697              	.LVL302:
 1698              	.L78:
 1699              	.LBB231:
 1700              	.LBB232:
 703:..\..\mruby_c2\Design01.cydsn/vm.c **** 
 1701              		.loc 1 703 0
 1702 0548 0021     		movs	r1, #0
 1703 054a 2846     		mov	r0, r5
 1704 054c FFF7FEFF 		bl	mrbc_push_callinfo
 1705              	.LVL303:
 706:..\..\mruby_c2\Design01.cydsn/vm.c ****   vm->pc_irep = regs[0].proc->irep;
 1706              		.loc 1 706 0
 1707 0550 0027     		movs	r7, #0
 1708              	.LVL304:
 1709 0552 2F82     		strh	r7, [r5, #16]	@ movhi
 707:..\..\mruby_c2\Design01.cydsn/vm.c **** 
 1710              		.loc 1 707 0
 1711 0554 B368     		ldr	r3, [r6, #8]
 1712 0556 DB68     		ldr	r3, [r3, #12]
 1713 0558 EB60     		str	r3, [r5, #12]
 1714              	.LVL305:
 1715              	.LBE232:
 1716              	.LBE231:
1777:..\..\mruby_c2\Design01.cydsn/vm.c ****     case OP_CALL:       ret = op_call      (vm, code, regs); break;
 1717              		.loc 1 1777 0
 1718 055a 01F043B8 		b	.L55
 1719              	.LVL306:
 1720              	.L79:
 1721              	.LBB233:
 1722              	.LBB234:
 727:..\..\mruby_c2\Design01.cydsn/vm.c ****   uint32_t enter_param = GETARG_Ax(code);
 1723              		.loc 1 727 0
 1724 055e 05F5CC61 		add	r1, r5, #1632
 1725 0562 B5F85C36 		ldrh	r3, [r5, #1628]
 1726              	.LVL307:
 1727 0566 03EB8303 		add	r3, r3, r3, lsl #2
 1728 056a 9B00     		lsls	r3, r3, #2
 1729 056c 143B     		subs	r3, r3, #20
 1730 056e 0B44     		add	r3, r3, r1
 1731              	.LVL308:
 730:..\..\mruby_c2\Design01.cydsn/vm.c ****   if( def_args > 0 ){
 1732              		.loc 1 730 0
 1733 0570 C4F34461 		ubfx	r1, r4, #25, #5
 1734              	.LVL309:
 731:..\..\mruby_c2\Design01.cydsn/vm.c ****     vm->pc += callinfo->n_args - args;
 1735              		.loc 1 731 0
ARM GAS  C:\Users\164\AppData\Local\Temp\cc4PZf78.s 			page 68


 1736 0574 14F0F87F 		tst	r4, #32505856
 1737 0578 01F03380 		beq	.L274
 732:..\..\mruby_c2\Design01.cydsn/vm.c ****   }
 1738              		.loc 1 732 0
 1739 057c 1B7C     		ldrb	r3, [r3, #16]	@ zero_extendqisi2
 1740              	.LVL310:
 1741 057e 5B1A     		subs	r3, r3, r1
 1742 0580 1A44     		add	r2, r2, r3
 1743 0582 2A82     		strh	r2, [r5, #16]	@ movhi
 1744              	.LBE234:
 1745              	.LBE233:
1778:..\..\mruby_c2\Design01.cydsn/vm.c ****     case OP_ENTER:      ret = op_enter     (vm, code, regs); break;
 1746              		.loc 1 1778 0
 1747 0584 0027     		movs	r7, #0
 1748              	.LVL311:
 1749 0586 01F02DB8 		b	.L55
 1750              	.LVL312:
 1751              	.L80:
 1752              	.LBB235:
 1753              	.LBB236:
 752:..\..\mruby_c2\Design01.cydsn/vm.c ****   //  if( ra != 0 ){
 1754              		.loc 1 752 0
 1755 058a E40D     		lsrs	r4, r4, #23
 1756              	.LVL313:
 754:..\..\mruby_c2\Design01.cydsn/vm.c ****   mrbc_dup(&v);
 1757              		.loc 1 754 0
 1758 058c 06EB0414 		add	r4, r6, r4, lsl #4
 1759              	.LVL314:
 1760 0590 0AAF     		add	r7, sp, #40
 1761              	.LVL315:
 1762 0592 94E80F00 		ldmia	r4, {r0, r1, r2, r3}
 1763              	.LVL316:
 1764 0596 87E80F00 		stmia	r7, {r0, r1, r2, r3}
 755:..\..\mruby_c2\Design01.cydsn/vm.c ****   mrbc_release(&regs[0]);
 1765              		.loc 1 755 0
 1766 059a 3846     		mov	r0, r7
 1767 059c FFF7FEFF 		bl	mrbc_dup
 1768              	.LVL317:
 756:..\..\mruby_c2\Design01.cydsn/vm.c ****   regs[0] = v;
 1769              		.loc 1 756 0
 1770 05a0 3046     		mov	r0, r6
 1771 05a2 FFF7FEFF 		bl	mrbc_release
 1772              	.LVL318:
 757:..\..\mruby_c2\Design01.cydsn/vm.c ****   //  }
 1773              		.loc 1 757 0
 1774 05a6 97E80F00 		ldmia	r7, {r0, r1, r2, r3}
 1775 05aa 86E80F00 		stmia	r6, {r0, r1, r2, r3}
 760:..\..\mruby_c2\Design01.cydsn/vm.c ****   mrb_callinfo *callinfo = vm->callinfo + vm->callinfo_top;
 1776              		.loc 1 760 0
 1777 05ae B5F85C36 		ldrh	r3, [r5, #1628]
 1778 05b2 013B     		subs	r3, r3, #1
 1779 05b4 9BB2     		uxth	r3, r3
 1780 05b6 A5F85C36 		strh	r3, [r5, #1628]	@ movhi
 761:..\..\mruby_c2\Design01.cydsn/vm.c ****   mrb_value *regs_ptr = vm->current_regs;
 1781              		.loc 1 761 0
 1782 05ba 05F5CC62 		add	r2, r5, #1632
 1783 05be 03EB8303 		add	r3, r3, r3, lsl #2
ARM GAS  C:\Users\164\AppData\Local\Temp\cc4PZf78.s 			page 69


 1784 05c2 02EB8301 		add	r1, r2, r3, lsl #2
 1785              	.LVL319:
 763:..\..\mruby_c2\Design01.cydsn/vm.c ****   // clear regs and restore vm->reg_top
 1786              		.loc 1 763 0
 1787 05c6 8868     		ldr	r0, [r1, #8]
 1788 05c8 C5F85806 		str	r0, [r5, #1624]
 1789              	.LVL320:
 771:..\..\mruby_c2\Design01.cydsn/vm.c ****   vm->pc = callinfo->pc;
 1790              		.loc 1 771 0
 1791 05cc 52F82330 		ldr	r3, [r2, r3, lsl #2]
 1792 05d0 EB60     		str	r3, [r5, #12]
 772:..\..\mruby_c2\Design01.cydsn/vm.c ****   vm->target_class = callinfo->target_class;
 1793              		.loc 1 772 0
 1794 05d2 8B88     		ldrh	r3, [r1, #4]
 1795 05d4 2B82     		strh	r3, [r5, #16]	@ movhi
 773:..\..\mruby_c2\Design01.cydsn/vm.c ****   return 0;
 1796              		.loc 1 773 0
 1797 05d6 CB68     		ldr	r3, [r1, #12]
 1798 05d8 C5F8303E 		str	r3, [r5, #3632]
 1799              	.LVL321:
 1800              	.LBE236:
 1801              	.LBE235:
1779:..\..\mruby_c2\Design01.cydsn/vm.c ****     case OP_RETURN:     ret = op_return    (vm, code, regs); break;
 1802              		.loc 1 1779 0
 1803 05dc 0027     		movs	r7, #0
 1804 05de 01F001B8 		b	.L55
 1805              	.LVL322:
 1806              	.L81:
 1807              	.LBB237:
 1808              	.LBB238:
 791:..\..\mruby_c2\Design01.cydsn/vm.c **** 
 1809              		.loc 1 791 0
 1810 05e2 E40D     		lsrs	r4, r4, #23
 1811              	.LVL323:
 793:..\..\mruby_c2\Design01.cydsn/vm.c **** 
 1812              		.loc 1 793 0
 1813 05e4 06F11007 		add	r7, r6, #16
 1814              	.LVL324:
 795:..\..\mruby_c2\Design01.cydsn/vm.c ****     return -1;  // EYIELD
 1815              		.loc 1 795 0
 1816 05e8 96F91030 		ldrsb	r3, [r6, #16]
 1817              	.LVL325:
 1818 05ec 012B     		cmp	r3, #1
 1819 05ee 0ED0     		beq	.L275
 799:..\..\mruby_c2\Design01.cydsn/vm.c ****   mrbc_dup( stack );
 1820              		.loc 1 799 0
 1821 05f0 06EB0414 		add	r4, r6, r4, lsl #4
 1822              	.LVL326:
 1823 05f4 2046     		mov	r0, r4
 1824 05f6 FFF7FEFF 		bl	mrbc_release
 1825              	.LVL327:
 800:..\..\mruby_c2\Design01.cydsn/vm.c ****   regs[ra] = stack[0];
 1826              		.loc 1 800 0
 1827 05fa 3846     		mov	r0, r7
 1828 05fc FFF7FEFF 		bl	mrbc_dup
 1829              	.LVL328:
 801:..\..\mruby_c2\Design01.cydsn/vm.c **** 
ARM GAS  C:\Users\164\AppData\Local\Temp\cc4PZf78.s 			page 70


 1830              		.loc 1 801 0
 1831 0600 97E80F00 		ldmia	r7, {r0, r1, r2, r3}
 1832 0604 84E80F00 		stmia	r4, {r0, r1, r2, r3}
 803:..\..\mruby_c2\Design01.cydsn/vm.c **** }
 1833              		.loc 1 803 0
 1834 0608 0027     		movs	r7, #0
 1835              	.LVL329:
 1836 060a 00F0EBBF 		b	.L55
 1837              	.LVL330:
 1838              	.L275:
 796:..\..\mruby_c2\Design01.cydsn/vm.c ****   }
 1839              		.loc 1 796 0
 1840 060e 4FF0FF37 		mov	r7, #-1
 1841              	.LVL331:
 1842              	.LBE238:
 1843              	.LBE237:
1780:..\..\mruby_c2\Design01.cydsn/vm.c ****     case OP_BLKPUSH:    ret = op_blkpush   (vm, code, regs); break;
 1844              		.loc 1 1780 0
 1845 0612 00F0E7BF 		b	.L55
 1846              	.LVL332:
 1847              	.L82:
 1848              	.LBB239:
 1849              	.LBB240:
 821:..\..\mruby_c2\Design01.cydsn/vm.c **** 
 1850              		.loc 1 821 0
 1851 0616 E30D     		lsrs	r3, r4, #23
 1852              	.LVL333:
 823:..\..\mruby_c2\Design01.cydsn/vm.c ****     if( regs[ra+1].tt == MRB_TT_FIXNUM ) {	// in case of Fixnum, Fixnum
 1853              		.loc 1 823 0
 1854 0618 1A01     		lsls	r2, r3, #4
 1855 061a B718     		adds	r7, r6, r2
 1856              	.LVL334:
 1857 061c B156     		ldrsb	r1, [r6, r2]
 1858 061e 0429     		cmp	r1, #4
 1859 0620 1CD1     		bne	.L121
 824:..\..\mruby_c2\Design01.cydsn/vm.c ****       regs[ra].i += regs[ra+1].i;
 1860              		.loc 1 824 0
 1861 0622 581C     		adds	r0, r3, #1
 1862 0624 0001     		lsls	r0, r0, #4
 1863 0626 06EB000E 		add	lr, r6, r0
 1864 062a 3056     		ldrsb	r0, [r6, r0]
 1865 062c 0428     		cmp	r0, #4
 1866 062e 05D1     		bne	.L122
 825:..\..\mruby_c2\Design01.cydsn/vm.c ****       return 0;
 1867              		.loc 1 825 0
 1868 0630 DEF80830 		ldr	r3, [lr, #8]
 1869              	.LVL335:
 1870 0634 BA68     		ldr	r2, [r7, #8]
 1871 0636 1344     		add	r3, r3, r2
 1872 0638 BB60     		str	r3, [r7, #8]
 1873 063a 90E0     		b	.L123
 1874              	.LVL336:
 1875              	.L122:
 829:..\..\mruby_c2\Design01.cydsn/vm.c ****       regs[ra].tt = MRB_TT_FLOAT;
 1876              		.loc 1 829 0
 1877 063c 0528     		cmp	r0, #5
 1878 063e 0DD1     		bne	.L121
ARM GAS  C:\Users\164\AppData\Local\Temp\cc4PZf78.s 			page 71


 830:..\..\mruby_c2\Design01.cydsn/vm.c ****       regs[ra].d = regs[ra].i + regs[ra+1].d;
 1879              		.loc 1 830 0
 1880 0640 0523     		movs	r3, #5
 1881              	.LVL337:
 1882 0642 B354     		strb	r3, [r6, r2]
 831:..\..\mruby_c2\Design01.cydsn/vm.c ****       return 0;
 1883              		.loc 1 831 0
 1884 0644 DEE90289 		ldrd	r8, [lr, #8]
 1885 0648 B868     		ldr	r0, [r7, #8]
 1886 064a FFF7FEFF 		bl	__aeabi_i2d
 1887              	.LVL338:
 1888 064e 4246     		mov	r2, r8
 1889 0650 4B46     		mov	r3, r9
 1890 0652 FFF7FEFF 		bl	__aeabi_dadd
 1891              	.LVL339:
 1892 0656 C7E90201 		strd	r0, [r7, #8]
 1893 065a 80E0     		b	.L123
 1894              	.LVL340:
 1895              	.L121:
 835:..\..\mruby_c2\Design01.cydsn/vm.c ****     if( regs[ra+1].tt == MRB_TT_FIXNUM ) {	// in case of Float, Fixnum
 1896              		.loc 1 835 0
 1897 065c 0529     		cmp	r1, #5
 1898 065e 1ED1     		bne	.L124
 836:..\..\mruby_c2\Design01.cydsn/vm.c ****       regs[ra].d += regs[ra+1].i;
 1899              		.loc 1 836 0
 1900 0660 0133     		adds	r3, r3, #1
 1901              	.LVL341:
 1902 0662 1B01     		lsls	r3, r3, #4
 1903              	.LVL342:
 1904 0664 F218     		adds	r2, r6, r3
 1905 0666 F356     		ldrsb	r3, [r6, r3]
 1906 0668 042B     		cmp	r3, #4
 1907 066a 0BD1     		bne	.L125
 837:..\..\mruby_c2\Design01.cydsn/vm.c ****       return 0;
 1908              		.loc 1 837 0
 1909 066c 9068     		ldr	r0, [r2, #8]
 1910 066e FFF7FEFF 		bl	__aeabi_i2d
 1911              	.LVL343:
 1912 0672 0246     		mov	r2, r0
 1913 0674 0B46     		mov	r3, r1
 1914 0676 D7E90201 		ldrd	r0, [r7, #8]
 1915 067a FFF7FEFF 		bl	__aeabi_dadd
 1916              	.LVL344:
 1917 067e C7E90201 		strd	r0, [r7, #8]
 1918 0682 6CE0     		b	.L123
 1919              	.L125:
 840:..\..\mruby_c2\Design01.cydsn/vm.c ****       regs[ra].d += regs[ra+1].d;
 1920              		.loc 1 840 0
 1921 0684 052B     		cmp	r3, #5
 1922 0686 0AD1     		bne	.L124
 841:..\..\mruby_c2\Design01.cydsn/vm.c ****       return 0;
 1923              		.loc 1 841 0
 1924 0688 02F10803 		add	r3, r2, #8
 1925 068c D3E90023 		ldrd	r2, [r3]
 1926 0690 D7E90201 		ldrd	r0, [r7, #8]
 1927 0694 FFF7FEFF 		bl	__aeabi_dadd
 1928              	.LVL345:
ARM GAS  C:\Users\164\AppData\Local\Temp\cc4PZf78.s 			page 72


 1929 0698 C7E90201 		strd	r0, [r7, #8]
 1930 069c 5FE0     		b	.L123
 1931              	.L124:
 1932              	.LVL346:
 1933              	.LBB241:
 1934              	.LBB242:
 626:..\..\mruby_c2\Design01.cydsn/vm.c ****   int rb = GETARG_B(code);  // index of method sym
 1935              		.loc 1 626 0
 1936 069e E70D     		lsrs	r7, r4, #23
 1937              	.LVL347:
 627:..\..\mruby_c2\Design01.cydsn/vm.c ****   int rc = GETARG_C(code);  // number of params
 1938              		.loc 1 627 0
 1939 06a0 C4F3883B 		ubfx	fp, r4, #14, #9
 1940              	.LVL348:
 628:..\..\mruby_c2\Design01.cydsn/vm.c ****   mrb_value recv = regs[ra];
 1941              		.loc 1 628 0
 1942 06a4 C4F3C61A 		ubfx	r10, r4, #7, #7
 1943              	.LVL349:
 629:..\..\mruby_c2\Design01.cydsn/vm.c **** 
 1944              		.loc 1 629 0
 1945 06a8 4FEA0719 		lsl	r9, r7, #4
 1946 06ac 06EB0908 		add	r8, r6, r9
 1947 06b0 98E80F00 		ldmia	r8, {r0, r1, r2, r3}
 1948 06b4 0DF1380E 		add	lr, sp, #56
 1949 06b8 0EE90F00 		stmdb	lr, {r0, r1, r2, r3}
 632:..\..\mruby_c2\Design01.cydsn/vm.c ****   switch( GET_OPCODE(code) ) {
 1950              		.loc 1 632 0
 1951 06bc 5744     		add	r7, r7, r10
 1952              	.LVL350:
 1953 06be 0137     		adds	r7, r7, #1
 1954              	.LVL351:
 633:..\..\mruby_c2\Design01.cydsn/vm.c ****   case OP_SEND:
 1955              		.loc 1 633 0
 1956 06c0 04F07F04 		and	r4, r4, #127
 1957              	.LVL352:
 1958 06c4 202C     		cmp	r4, #32
 1959 06c6 02D0     		beq	.L127
 1960 06c8 212C     		cmp	r4, #33
 1961 06ca 07D0     		beq	.L128
 1962 06cc 0CE0     		b	.L126
 1963              	.L127:
 636:..\..\mruby_c2\Design01.cydsn/vm.c ****     regs[bidx].tt = MRB_TT_NIL;
 1964              		.loc 1 636 0
 1965 06ce 3C01     		lsls	r4, r7, #4
 1966 06d0 3019     		adds	r0, r6, r4
 1967 06d2 FFF7FEFF 		bl	mrbc_release
 1968              	.LVL353:
 637:..\..\mruby_c2\Design01.cydsn/vm.c ****     break;
 1969              		.loc 1 637 0
 1970 06d6 0123     		movs	r3, #1
 1971 06d8 3355     		strb	r3, [r6, r4]
 1972 06da 05E0     		b	.L126
 1973              	.L128:
 642:..\..\mruby_c2\Design01.cydsn/vm.c ****       // TODO: fix the following behavior
 1974              		.loc 1 642 0
 1975 06dc 3B01     		lsls	r3, r7, #4
 1976 06de F356     		ldrsb	r3, [r6, r3]
ARM GAS  C:\Users\164\AppData\Local\Temp\cc4PZf78.s 			page 73


 1977 06e0 012B     		cmp	r3, #1
 1978 06e2 01D0     		beq	.L126
 1979 06e4 152B     		cmp	r3, #21
 1980 06e6 3AD1     		bne	.L123
 1981              	.L126:
 654:..\..\mruby_c2\Design01.cydsn/vm.c ****   mrb_sym sym_id = str_to_symid(sym_name);
 1982              		.loc 1 654 0
 1983 06e8 EB68     		ldr	r3, [r5, #12]
 1984 06ea 5946     		mov	r1, fp
 1985 06ec 5869     		ldr	r0, [r3, #20]
 1986 06ee FFF7FEFF 		bl	mrbc_get_irep_symbol
 1987              	.LVL354:
 1988 06f2 0646     		mov	r6, r0
 1989              	.LVL355:
 655:..\..\mruby_c2\Design01.cydsn/vm.c ****   mrb_proc *m = find_method(vm, recv, sym_id);
 1990              		.loc 1 655 0
 1991 06f4 FFF7FEFF 		bl	str_to_symid
 1992              	.LVL356:
 656:..\..\mruby_c2\Design01.cydsn/vm.c **** 
 1993              		.loc 1 656 0
 1994 06f8 0290     		str	r0, [sp, #8]
 1995 06fa 0EAB     		add	r3, sp, #56
 1996 06fc 13E90300 		ldmdb	r3, {r0, r1}
 1997              	.LVL357:
 1998 0700 8DE80300 		stmia	sp, {r0, r1}
 1999 0704 0AAB     		add	r3, sp, #40
 2000 0706 0CCB     		ldmia	r3, {r2, r3}
 2001 0708 2846     		mov	r0, r5
 2002 070a FFF7FEFF 		bl	find_method
 2003              	.LVL358:
 658:..\..\mruby_c2\Design01.cydsn/vm.c ****     console_printf("No method. vtype=%d method='%s'\n", recv.tt, sym_name);
 2004              		.loc 1 658 0
 2005 070e 0446     		mov	r4, r0
 2006 0710 30B9     		cbnz	r0, .L130
 659:..\..\mruby_c2\Design01.cydsn/vm.c ****     return 0;
 2007              		.loc 1 659 0
 2008 0712 3246     		mov	r2, r6
 2009 0714 9DF92810 		ldrsb	r1, [sp, #40]
 2010 0718 0948     		ldr	r0, .L287
 2011              	.LVL359:
 2012 071a FFF7FEFF 		bl	console_printf
 2013              	.LVL360:
 2014 071e 1EE0     		b	.L123
 2015              	.LVL361:
 2016              	.L130:
 664:..\..\mruby_c2\Design01.cydsn/vm.c ****     m->func(vm, regs + ra, rc);
 2017              		.loc 1 664 0
 2018 0720 C378     		ldrb	r3, [r0, #3]	@ zero_extendqisi2
 2019 0722 13F0010F 		tst	r3, #1
 2020 0726 0DD0     		beq	.L131
 2021              	.LBB243:
 665:..\..\mruby_c2\Design01.cydsn/vm.c **** 
 2022              		.loc 1 665 0
 2023 0728 C368     		ldr	r3, [r0, #12]
 2024 072a 5246     		mov	r2, r10
 2025 072c 4146     		mov	r1, r8
 2026 072e 2846     		mov	r0, r5
ARM GAS  C:\Users\164\AppData\Local\Temp\cc4PZf78.s 			page 74


 2027              	.LVL362:
 2028 0730 9847     		blx	r3
 2029              	.LVL363:
 667:..\..\mruby_c2\Design01.cydsn/vm.c ****     while( release_reg <= bidx ) {
 2030              		.loc 1 667 0
 2031 0732 3B46     		mov	r3, r7
 2032 0734 00E0     		b	.L132
 2033              	.LVL364:
 2034              	.L133:
 670:..\..\mruby_c2\Design01.cydsn/vm.c ****     }
 2035              		.loc 1 670 0
 2036 0736 0133     		adds	r3, r3, #1
 2037              	.LVL365:
 2038              	.L132:
 668:..\..\mruby_c2\Design01.cydsn/vm.c ****       // mrbc_release(&regs[release_reg]);
 2039              		.loc 1 668 0
 2040 0738 9F42     		cmp	r7, r3
 2041 073a FCDA     		bge	.L133
 2042 073c 0FE0     		b	.L123
 2043              	.L288:
 2044 073e 00BF     		.align	2
 2045              	.L287:
 2046 0740 4C000000 		.word	.LC3
 2047              	.LVL366:
 2048              	.L131:
 2049              	.LBE243:
 677:..\..\mruby_c2\Design01.cydsn/vm.c **** 
 2050              		.loc 1 677 0
 2051 0744 5146     		mov	r1, r10
 2052 0746 2846     		mov	r0, r5
 2053              	.LVL367:
 2054 0748 FFF7FEFF 		bl	mrbc_push_callinfo
 2055              	.LVL368:
 680:..\..\mruby_c2\Design01.cydsn/vm.c ****   vm->pc_irep = m->irep;
 2056              		.loc 1 680 0
 2057 074c 0023     		movs	r3, #0
 2058 074e 2B82     		strh	r3, [r5, #16]	@ movhi
 681:..\..\mruby_c2\Design01.cydsn/vm.c **** 
 2059              		.loc 1 681 0
 2060 0750 E368     		ldr	r3, [r4, #12]
 2061 0752 EB60     		str	r3, [r5, #12]
 684:..\..\mruby_c2\Design01.cydsn/vm.c **** 
 2062              		.loc 1 684 0
 2063 0754 D5F85836 		ldr	r3, [r5, #1624]
 2064 0758 4B44     		add	r3, r3, r9
 2065 075a C5F85836 		str	r3, [r5, #1624]
 2066              	.LVL369:
 2067              	.L123:
 2068              	.LBE242:
 2069              	.LBE241:
 2070              	.LBE240:
 2071              	.LBE239:
1781:..\..\mruby_c2\Design01.cydsn/vm.c ****     case OP_ADD:        ret = op_add       (vm, code, regs); break;
 2072              		.loc 1 1781 0
 2073 075e 0027     		movs	r7, #0
 2074 0760 00F040BF 		b	.L55
 2075              	.LVL370:
ARM GAS  C:\Users\164\AppData\Local\Temp\cc4PZf78.s 			page 75


 2076              	.L83:
 2077              	.LBB244:
 2078              	.LBB245:
 866:..\..\mruby_c2\Design01.cydsn/vm.c **** 
 2079              		.loc 1 866 0
 2080 0764 E30D     		lsrs	r3, r4, #23
 2081              	.LVL371:
 868:..\..\mruby_c2\Design01.cydsn/vm.c ****     regs[ra].i += GETARG_C(code);
 2082              		.loc 1 868 0
 2083 0766 1B01     		lsls	r3, r3, #4
 2084              	.LVL372:
 2085 0768 F718     		adds	r7, r6, r3
 2086              	.LVL373:
 2087 076a F356     		ldrsb	r3, [r6, r3]
 2088 076c 042B     		cmp	r3, #4
 2089 076e 05D1     		bne	.L134
 869:..\..\mruby_c2\Design01.cydsn/vm.c ****     return 0;
 2090              		.loc 1 869 0
 2091 0770 C4F3C614 		ubfx	r4, r4, #7, #7
 2092              	.LVL374:
 2093 0774 BB68     		ldr	r3, [r7, #8]
 2094 0776 2344     		add	r3, r3, r4
 2095 0778 BB60     		str	r3, [r7, #8]
 2096 077a 10E0     		b	.L135
 2097              	.LVL375:
 2098              	.L134:
 874:..\..\mruby_c2\Design01.cydsn/vm.c ****     regs[ra].d += GETARG_C(code);
 2099              		.loc 1 874 0
 2100 077c 052B     		cmp	r3, #5
 2101 077e 0CD1     		bne	.L136
 875:..\..\mruby_c2\Design01.cydsn/vm.c ****     return 0;
 2102              		.loc 1 875 0
 2103 0780 C4F3C610 		ubfx	r0, r4, #7, #7
 2104 0784 FFF7FEFF 		bl	__aeabi_ui2d
 2105              	.LVL376:
 2106 0788 0246     		mov	r2, r0
 2107 078a 0B46     		mov	r3, r1
 2108 078c D7E90201 		ldrd	r0, [r7, #8]
 2109 0790 FFF7FEFF 		bl	__aeabi_dadd
 2110              	.LVL377:
 2111 0794 C7E90201 		strd	r0, [r7, #8]
 2112 0798 01E0     		b	.L135
 2113              	.L136:
 880:..\..\mruby_c2\Design01.cydsn/vm.c ****   return 0;
 2114              		.loc 1 880 0
 2115 079a FFF7FEFF 		bl	not_supported
 2116              	.LVL378:
 2117              	.L135:
 2118              	.LBE245:
 2119              	.LBE244:
1782:..\..\mruby_c2\Design01.cydsn/vm.c ****     case OP_ADDI:       ret = op_addi      (vm, code, regs); break;
 2120              		.loc 1 1782 0
 2121 079e 0027     		movs	r7, #0
 2122 07a0 00F020BF 		b	.L55
 2123              	.LVL379:
 2124              	.L84:
 2125              	.LBB246:
ARM GAS  C:\Users\164\AppData\Local\Temp\cc4PZf78.s 			page 76


 2126              	.LBB247:
 898:..\..\mruby_c2\Design01.cydsn/vm.c **** 
 2127              		.loc 1 898 0
 2128 07a4 4FEAD458 		lsr	r8, r4, #23
 2129              	.LVL380:
 900:..\..\mruby_c2\Design01.cydsn/vm.c ****     if( regs[ra+1].tt == MRB_TT_FIXNUM ) {	// in case of Fixnum, Fixnum
 2130              		.loc 1 900 0
 2131 07a8 4FEA0813 		lsl	r3, r8, #4
 2132              	.LVL381:
 2133 07ac F718     		adds	r7, r6, r3
 2134              	.LVL382:
 2135 07ae F256     		ldrsb	r2, [r6, r3]
 2136 07b0 042A     		cmp	r2, #4
 2137 07b2 1BD1     		bne	.L137
 901:..\..\mruby_c2\Design01.cydsn/vm.c ****       regs[ra].i -= regs[ra+1].i;
 2138              		.loc 1 901 0
 2139 07b4 08F10101 		add	r1, r8, #1
 2140 07b8 0901     		lsls	r1, r1, #4
 2141 07ba 7018     		adds	r0, r6, r1
 2142 07bc 7156     		ldrsb	r1, [r6, r1]
 2143 07be 0429     		cmp	r1, #4
 2144 07c0 04D1     		bne	.L138
 902:..\..\mruby_c2\Design01.cydsn/vm.c ****       return 0;
 2145              		.loc 1 902 0
 2146 07c2 8268     		ldr	r2, [r0, #8]
 2147 07c4 BB68     		ldr	r3, [r7, #8]
 2148 07c6 9B1A     		subs	r3, r3, r2
 2149 07c8 BB60     		str	r3, [r7, #8]
 2150 07ca 95E0     		b	.L139
 2151              	.L138:
 906:..\..\mruby_c2\Design01.cydsn/vm.c ****       regs[ra].tt = MRB_TT_FLOAT;
 2152              		.loc 1 906 0
 2153 07cc 0529     		cmp	r1, #5
 2154 07ce 0DD1     		bne	.L137
 907:..\..\mruby_c2\Design01.cydsn/vm.c ****       regs[ra].d = regs[ra].i - regs[ra+1].d;
 2155              		.loc 1 907 0
 2156 07d0 0522     		movs	r2, #5
 2157 07d2 F254     		strb	r2, [r6, r3]
 908:..\..\mruby_c2\Design01.cydsn/vm.c ****       return 0;
 2158              		.loc 1 908 0
 2159 07d4 D0E90289 		ldrd	r8, [r0, #8]
 2160              	.LVL383:
 2161 07d8 B868     		ldr	r0, [r7, #8]
 2162 07da FFF7FEFF 		bl	__aeabi_i2d
 2163              	.LVL384:
 2164 07de 4246     		mov	r2, r8
 2165 07e0 4B46     		mov	r3, r9
 2166 07e2 FFF7FEFF 		bl	__aeabi_dsub
 2167              	.LVL385:
 2168 07e6 C7E90201 		strd	r0, [r7, #8]
 2169 07ea 85E0     		b	.L139
 2170              	.LVL386:
 2171              	.L137:
 912:..\..\mruby_c2\Design01.cydsn/vm.c ****     if( regs[ra+1].tt == MRB_TT_FIXNUM ) {	// in case of Float, Fixnum
 2172              		.loc 1 912 0
 2173 07ec 052A     		cmp	r2, #5
 2174 07ee 1FD1     		bne	.L140
ARM GAS  C:\Users\164\AppData\Local\Temp\cc4PZf78.s 			page 77


 913:..\..\mruby_c2\Design01.cydsn/vm.c ****       regs[ra].d -= regs[ra+1].i;
 2175              		.loc 1 913 0
 2176 07f0 08F10103 		add	r3, r8, #1
 2177 07f4 1B01     		lsls	r3, r3, #4
 2178 07f6 F218     		adds	r2, r6, r3
 2179 07f8 F356     		ldrsb	r3, [r6, r3]
 2180 07fa 042B     		cmp	r3, #4
 2181 07fc 0BD1     		bne	.L141
 914:..\..\mruby_c2\Design01.cydsn/vm.c ****       return 0;
 2182              		.loc 1 914 0
 2183 07fe 9068     		ldr	r0, [r2, #8]
 2184 0800 FFF7FEFF 		bl	__aeabi_i2d
 2185              	.LVL387:
 2186 0804 0246     		mov	r2, r0
 2187 0806 0B46     		mov	r3, r1
 2188 0808 D7E90201 		ldrd	r0, [r7, #8]
 2189 080c FFF7FEFF 		bl	__aeabi_dsub
 2190              	.LVL388:
 2191 0810 C7E90201 		strd	r0, [r7, #8]
 2192 0814 70E0     		b	.L139
 2193              	.L141:
 917:..\..\mruby_c2\Design01.cydsn/vm.c ****       regs[ra].d -= regs[ra+1].d;
 2194              		.loc 1 917 0
 2195 0816 052B     		cmp	r3, #5
 2196 0818 0AD1     		bne	.L140
 918:..\..\mruby_c2\Design01.cydsn/vm.c ****       return 0;
 2197              		.loc 1 918 0
 2198 081a 02F10803 		add	r3, r2, #8
 2199 081e D3E90023 		ldrd	r2, [r3]
 2200 0822 D7E90201 		ldrd	r0, [r7, #8]
 2201 0826 FFF7FEFF 		bl	__aeabi_dsub
 2202              	.LVL389:
 2203 082a C7E90201 		strd	r0, [r7, #8]
 2204 082e 63E0     		b	.L139
 2205              	.L140:
 2206              	.LVL390:
 2207              	.LBB248:
 2208              	.LBB249:
 626:..\..\mruby_c2\Design01.cydsn/vm.c ****   int rb = GETARG_B(code);  // index of method sym
 2209              		.loc 1 626 0
 2210 0830 E70D     		lsrs	r7, r4, #23
 2211              	.LVL391:
 627:..\..\mruby_c2\Design01.cydsn/vm.c ****   int rc = GETARG_C(code);  // number of params
 2212              		.loc 1 627 0
 2213 0832 C4F38833 		ubfx	r3, r4, #14, #9
 2214 0836 0593     		str	r3, [sp, #20]
 2215              	.LVL392:
 628:..\..\mruby_c2\Design01.cydsn/vm.c ****   mrb_value recv = regs[ra];
 2216              		.loc 1 628 0
 2217 0838 C4F3C61B 		ubfx	fp, r4, #7, #7
 2218              	.LVL393:
 629:..\..\mruby_c2\Design01.cydsn/vm.c **** 
 2219              		.loc 1 629 0
 2220 083c 4FEA071A 		lsl	r10, r7, #4
 2221 0840 06EB0A09 		add	r9, r6, r10
 2222 0844 99E80F00 		ldmia	r9, {r0, r1, r2, r3}
 2223              	.LVL394:
ARM GAS  C:\Users\164\AppData\Local\Temp\cc4PZf78.s 			page 78


 2224 0848 0DF1380E 		add	lr, sp, #56
 2225 084c 0EE90F00 		stmdb	lr, {r0, r1, r2, r3}
 632:..\..\mruby_c2\Design01.cydsn/vm.c ****   switch( GET_OPCODE(code) ) {
 2226              		.loc 1 632 0
 2227 0850 5F44     		add	r7, r7, fp
 2228              	.LVL395:
 2229 0852 0137     		adds	r7, r7, #1
 2230              	.LVL396:
 633:..\..\mruby_c2\Design01.cydsn/vm.c ****   case OP_SEND:
 2231              		.loc 1 633 0
 2232 0854 04F07F04 		and	r4, r4, #127
 2233              	.LVL397:
 2234 0858 202C     		cmp	r4, #32
 2235 085a 02D0     		beq	.L143
 2236 085c 212C     		cmp	r4, #33
 2237 085e 07D0     		beq	.L144
 2238 0860 0CE0     		b	.L142
 2239              	.L143:
 636:..\..\mruby_c2\Design01.cydsn/vm.c ****     regs[bidx].tt = MRB_TT_NIL;
 2240              		.loc 1 636 0
 2241 0862 3C01     		lsls	r4, r7, #4
 2242 0864 3019     		adds	r0, r6, r4
 2243 0866 FFF7FEFF 		bl	mrbc_release
 2244              	.LVL398:
 637:..\..\mruby_c2\Design01.cydsn/vm.c ****     break;
 2245              		.loc 1 637 0
 2246 086a 0123     		movs	r3, #1
 2247 086c 3355     		strb	r3, [r6, r4]
 2248 086e 05E0     		b	.L142
 2249              	.L144:
 642:..\..\mruby_c2\Design01.cydsn/vm.c ****       // TODO: fix the following behavior
 2250              		.loc 1 642 0
 2251 0870 3B01     		lsls	r3, r7, #4
 2252 0872 F356     		ldrsb	r3, [r6, r3]
 2253 0874 012B     		cmp	r3, #1
 2254 0876 01D0     		beq	.L142
 2255 0878 152B     		cmp	r3, #21
 2256 087a 37D1     		bne	.L145
 2257              	.L142:
 654:..\..\mruby_c2\Design01.cydsn/vm.c ****   mrb_sym sym_id = str_to_symid(sym_name);
 2258              		.loc 1 654 0
 2259 087c EB68     		ldr	r3, [r5, #12]
 2260 087e 0599     		ldr	r1, [sp, #20]
 2261 0880 5869     		ldr	r0, [r3, #20]
 2262 0882 FFF7FEFF 		bl	mrbc_get_irep_symbol
 2263              	.LVL399:
 2264 0886 0590     		str	r0, [sp, #20]
 2265              	.LVL400:
 655:..\..\mruby_c2\Design01.cydsn/vm.c ****   mrb_proc *m = find_method(vm, recv, sym_id);
 2266              		.loc 1 655 0
 2267 0888 FFF7FEFF 		bl	str_to_symid
 2268              	.LVL401:
 656:..\..\mruby_c2\Design01.cydsn/vm.c **** 
 2269              		.loc 1 656 0
 2270 088c 0290     		str	r0, [sp, #8]
 2271 088e 0EAB     		add	r3, sp, #56
 2272 0890 13E90300 		ldmdb	r3, {r0, r1}
ARM GAS  C:\Users\164\AppData\Local\Temp\cc4PZf78.s 			page 79


 2273              	.LVL402:
 2274 0894 8DE80300 		stmia	sp, {r0, r1}
 2275 0898 0AAB     		add	r3, sp, #40
 2276 089a 0CCB     		ldmia	r3, {r2, r3}
 2277 089c 2846     		mov	r0, r5
 2278 089e FFF7FEFF 		bl	find_method
 2279              	.LVL403:
 658:..\..\mruby_c2\Design01.cydsn/vm.c ****     console_printf("No method. vtype=%d method='%s'\n", recv.tt, sym_name);
 2280              		.loc 1 658 0
 2281 08a2 0446     		mov	r4, r0
 2282 08a4 30B9     		cbnz	r0, .L146
 659:..\..\mruby_c2\Design01.cydsn/vm.c ****     return 0;
 2283              		.loc 1 659 0
 2284 08a6 059A     		ldr	r2, [sp, #20]
 2285 08a8 9DF92810 		ldrsb	r1, [sp, #40]
 2286 08ac AE48     		ldr	r0, .L289
 2287              	.LVL404:
 2288 08ae FFF7FEFF 		bl	console_printf
 2289              	.LVL405:
 2290 08b2 1BE0     		b	.L145
 2291              	.LVL406:
 2292              	.L146:
 664:..\..\mruby_c2\Design01.cydsn/vm.c ****     m->func(vm, regs + ra, rc);
 2293              		.loc 1 664 0
 2294 08b4 C378     		ldrb	r3, [r0, #3]	@ zero_extendqisi2
 2295 08b6 13F0010F 		tst	r3, #1
 2296 08ba 0AD0     		beq	.L147
 2297              	.LBB250:
 665:..\..\mruby_c2\Design01.cydsn/vm.c **** 
 2298              		.loc 1 665 0
 2299 08bc C368     		ldr	r3, [r0, #12]
 2300 08be 5A46     		mov	r2, fp
 2301 08c0 4946     		mov	r1, r9
 2302 08c2 2846     		mov	r0, r5
 2303              	.LVL407:
 2304 08c4 9847     		blx	r3
 2305              	.LVL408:
 667:..\..\mruby_c2\Design01.cydsn/vm.c ****     while( release_reg <= bidx ) {
 2306              		.loc 1 667 0
 2307 08c6 3B46     		mov	r3, r7
 2308 08c8 00E0     		b	.L148
 2309              	.LVL409:
 2310              	.L149:
 670:..\..\mruby_c2\Design01.cydsn/vm.c ****     }
 2311              		.loc 1 670 0
 2312 08ca 0133     		adds	r3, r3, #1
 2313              	.LVL410:
 2314              	.L148:
 668:..\..\mruby_c2\Design01.cydsn/vm.c ****       // mrbc_release(&regs[release_reg]);
 2315              		.loc 1 668 0
 2316 08cc 9F42     		cmp	r7, r3
 2317 08ce FCDA     		bge	.L149
 2318 08d0 0CE0     		b	.L145
 2319              	.LVL411:
 2320              	.L147:
 2321              	.LBE250:
 677:..\..\mruby_c2\Design01.cydsn/vm.c **** 
ARM GAS  C:\Users\164\AppData\Local\Temp\cc4PZf78.s 			page 80


 2322              		.loc 1 677 0
 2323 08d2 5946     		mov	r1, fp
 2324 08d4 2846     		mov	r0, r5
 2325              	.LVL412:
 2326 08d6 FFF7FEFF 		bl	mrbc_push_callinfo
 2327              	.LVL413:
 680:..\..\mruby_c2\Design01.cydsn/vm.c ****   vm->pc_irep = m->irep;
 2328              		.loc 1 680 0
 2329 08da 0023     		movs	r3, #0
 2330 08dc 2B82     		strh	r3, [r5, #16]	@ movhi
 681:..\..\mruby_c2\Design01.cydsn/vm.c **** 
 2331              		.loc 1 681 0
 2332 08de E368     		ldr	r3, [r4, #12]
 2333 08e0 EB60     		str	r3, [r5, #12]
 684:..\..\mruby_c2\Design01.cydsn/vm.c **** 
 2334              		.loc 1 684 0
 2335 08e2 D5F85836 		ldr	r3, [r5, #1624]
 2336 08e6 5344     		add	r3, r3, r10
 2337 08e8 C5F85836 		str	r3, [r5, #1624]
 2338              	.LVL414:
 2339              	.L145:
 2340              	.LBE249:
 2341              	.LBE248:
 926:..\..\mruby_c2\Design01.cydsn/vm.c ****   return 0;
 2342              		.loc 1 926 0
 2343 08ec 08F10100 		add	r0, r8, #1
 2344 08f0 06EB0010 		add	r0, r6, r0, lsl #4
 2345 08f4 FFF7FEFF 		bl	mrbc_release
 2346              	.LVL415:
 2347              	.L139:
 2348              	.LBE247:
 2349              	.LBE246:
1783:..\..\mruby_c2\Design01.cydsn/vm.c ****     case OP_SUB:        ret = op_sub       (vm, code, regs); break;
 2350              		.loc 1 1783 0
 2351 08f8 0027     		movs	r7, #0
 2352 08fa 00F073BE 		b	.L55
 2353              	.LVL416:
 2354              	.L85:
 2355              	.LBB251:
 2356              	.LBB252:
 944:..\..\mruby_c2\Design01.cydsn/vm.c **** 
 2357              		.loc 1 944 0
 2358 08fe E30D     		lsrs	r3, r4, #23
 2359              	.LVL417:
 946:..\..\mruby_c2\Design01.cydsn/vm.c ****     regs[ra].i -= GETARG_C(code);
 2360              		.loc 1 946 0
 2361 0900 1B01     		lsls	r3, r3, #4
 2362              	.LVL418:
 2363 0902 F718     		adds	r7, r6, r3
 2364              	.LVL419:
 2365 0904 F356     		ldrsb	r3, [r6, r3]
 2366 0906 042B     		cmp	r3, #4
 2367 0908 05D1     		bne	.L150
 947:..\..\mruby_c2\Design01.cydsn/vm.c ****     return 0;
 2368              		.loc 1 947 0
 2369 090a C4F3C614 		ubfx	r4, r4, #7, #7
 2370              	.LVL420:
ARM GAS  C:\Users\164\AppData\Local\Temp\cc4PZf78.s 			page 81


 2371 090e BB68     		ldr	r3, [r7, #8]
 2372 0910 1B1B     		subs	r3, r3, r4
 2373 0912 BB60     		str	r3, [r7, #8]
 2374 0914 10E0     		b	.L151
 2375              	.LVL421:
 2376              	.L150:
 952:..\..\mruby_c2\Design01.cydsn/vm.c ****     regs[ra].d -= GETARG_C(code);
 2377              		.loc 1 952 0
 2378 0916 052B     		cmp	r3, #5
 2379 0918 0CD1     		bne	.L152
 953:..\..\mruby_c2\Design01.cydsn/vm.c ****     return 0;
 2380              		.loc 1 953 0
 2381 091a C4F3C610 		ubfx	r0, r4, #7, #7
 2382 091e FFF7FEFF 		bl	__aeabi_ui2d
 2383              	.LVL422:
 2384 0922 0246     		mov	r2, r0
 2385 0924 0B46     		mov	r3, r1
 2386 0926 D7E90201 		ldrd	r0, [r7, #8]
 2387 092a FFF7FEFF 		bl	__aeabi_dsub
 2388              	.LVL423:
 2389 092e C7E90201 		strd	r0, [r7, #8]
 2390 0932 01E0     		b	.L151
 2391              	.L152:
 958:..\..\mruby_c2\Design01.cydsn/vm.c ****   return 0;
 2392              		.loc 1 958 0
 2393 0934 FFF7FEFF 		bl	not_supported
 2394              	.LVL424:
 2395              	.L151:
 2396              	.LBE252:
 2397              	.LBE251:
1784:..\..\mruby_c2\Design01.cydsn/vm.c ****     case OP_SUBI:       ret = op_subi      (vm, code, regs); break;
 2398              		.loc 1 1784 0
 2399 0938 0027     		movs	r7, #0
 2400 093a 00F053BE 		b	.L55
 2401              	.LVL425:
 2402              	.L86:
 2403              	.LBB253:
 2404              	.LBB254:
 976:..\..\mruby_c2\Design01.cydsn/vm.c **** 
 2405              		.loc 1 976 0
 2406 093e 4FEAD458 		lsr	r8, r4, #23
 2407              	.LVL426:
 978:..\..\mruby_c2\Design01.cydsn/vm.c ****     if( regs[ra+1].tt == MRB_TT_FIXNUM ) {	// in case of Fixnum, Fixnum
 2408              		.loc 1 978 0
 2409 0942 4FEA0813 		lsl	r3, r8, #4
 2410              	.LVL427:
 2411 0946 F718     		adds	r7, r6, r3
 2412              	.LVL428:
 2413 0948 F256     		ldrsb	r2, [r6, r3]
 2414 094a 042A     		cmp	r2, #4
 2415 094c 1CD1     		bne	.L153
 979:..\..\mruby_c2\Design01.cydsn/vm.c ****       regs[ra].i *= regs[ra+1].i;
 2416              		.loc 1 979 0
 2417 094e 08F10101 		add	r1, r8, #1
 2418 0952 0901     		lsls	r1, r1, #4
 2419 0954 7018     		adds	r0, r6, r1
 2420 0956 7156     		ldrsb	r1, [r6, r1]
ARM GAS  C:\Users\164\AppData\Local\Temp\cc4PZf78.s 			page 82


 2421 0958 0429     		cmp	r1, #4
 2422 095a 05D1     		bne	.L154
 980:..\..\mruby_c2\Design01.cydsn/vm.c ****       return 0;
 2423              		.loc 1 980 0
 2424 095c 8368     		ldr	r3, [r0, #8]
 2425 095e BA68     		ldr	r2, [r7, #8]
 2426 0960 03FB02F3 		mul	r3, r3, r2
 2427 0964 BB60     		str	r3, [r7, #8]
 2428 0966 95E0     		b	.L155
 2429              	.L154:
 984:..\..\mruby_c2\Design01.cydsn/vm.c ****       regs[ra].tt = MRB_TT_FLOAT;
 2430              		.loc 1 984 0
 2431 0968 0529     		cmp	r1, #5
 2432 096a 0DD1     		bne	.L153
 985:..\..\mruby_c2\Design01.cydsn/vm.c ****       regs[ra].d = regs[ra].i * regs[ra+1].d;
 2433              		.loc 1 985 0
 2434 096c 0522     		movs	r2, #5
 2435 096e F254     		strb	r2, [r6, r3]
 986:..\..\mruby_c2\Design01.cydsn/vm.c ****       return 0;
 2436              		.loc 1 986 0
 2437 0970 D0E90289 		ldrd	r8, [r0, #8]
 2438              	.LVL429:
 2439 0974 B868     		ldr	r0, [r7, #8]
 2440 0976 FFF7FEFF 		bl	__aeabi_i2d
 2441              	.LVL430:
 2442 097a 4246     		mov	r2, r8
 2443 097c 4B46     		mov	r3, r9
 2444 097e FFF7FEFF 		bl	__aeabi_dmul
 2445              	.LVL431:
 2446 0982 C7E90201 		strd	r0, [r7, #8]
 2447 0986 85E0     		b	.L155
 2448              	.LVL432:
 2449              	.L153:
 990:..\..\mruby_c2\Design01.cydsn/vm.c ****     if( regs[ra+1].tt == MRB_TT_FIXNUM ) {	// in case of Float, Fixnum
 2450              		.loc 1 990 0
 2451 0988 052A     		cmp	r2, #5
 2452 098a 1FD1     		bne	.L156
 991:..\..\mruby_c2\Design01.cydsn/vm.c ****       regs[ra].d *= regs[ra+1].i;
 2453              		.loc 1 991 0
 2454 098c 08F10103 		add	r3, r8, #1
 2455 0990 1B01     		lsls	r3, r3, #4
 2456 0992 F218     		adds	r2, r6, r3
 2457 0994 F356     		ldrsb	r3, [r6, r3]
 2458 0996 042B     		cmp	r3, #4
 2459 0998 0BD1     		bne	.L157
 992:..\..\mruby_c2\Design01.cydsn/vm.c ****       return 0;
 2460              		.loc 1 992 0
 2461 099a 9068     		ldr	r0, [r2, #8]
 2462 099c FFF7FEFF 		bl	__aeabi_i2d
 2463              	.LVL433:
 2464 09a0 0246     		mov	r2, r0
 2465 09a2 0B46     		mov	r3, r1
 2466 09a4 D7E90201 		ldrd	r0, [r7, #8]
 2467 09a8 FFF7FEFF 		bl	__aeabi_dmul
 2468              	.LVL434:
 2469 09ac C7E90201 		strd	r0, [r7, #8]
 2470 09b0 70E0     		b	.L155
ARM GAS  C:\Users\164\AppData\Local\Temp\cc4PZf78.s 			page 83


 2471              	.L157:
 995:..\..\mruby_c2\Design01.cydsn/vm.c ****       regs[ra].d *= regs[ra+1].d;
 2472              		.loc 1 995 0
 2473 09b2 052B     		cmp	r3, #5
 2474 09b4 0AD1     		bne	.L156
 996:..\..\mruby_c2\Design01.cydsn/vm.c ****       return 0;
 2475              		.loc 1 996 0
 2476 09b6 02F10803 		add	r3, r2, #8
 2477 09ba D3E90023 		ldrd	r2, [r3]
 2478 09be D7E90201 		ldrd	r0, [r7, #8]
 2479 09c2 FFF7FEFF 		bl	__aeabi_dmul
 2480              	.LVL435:
 2481 09c6 C7E90201 		strd	r0, [r7, #8]
 2482 09ca 63E0     		b	.L155
 2483              	.L156:
 2484              	.LVL436:
 2485              	.LBB255:
 2486              	.LBB256:
 626:..\..\mruby_c2\Design01.cydsn/vm.c ****   int rb = GETARG_B(code);  // index of method sym
 2487              		.loc 1 626 0
 2488 09cc E70D     		lsrs	r7, r4, #23
 2489              	.LVL437:
 627:..\..\mruby_c2\Design01.cydsn/vm.c ****   int rc = GETARG_C(code);  // number of params
 2490              		.loc 1 627 0
 2491 09ce C4F38833 		ubfx	r3, r4, #14, #9
 2492 09d2 0593     		str	r3, [sp, #20]
 2493              	.LVL438:
 628:..\..\mruby_c2\Design01.cydsn/vm.c ****   mrb_value recv = regs[ra];
 2494              		.loc 1 628 0
 2495 09d4 C4F3C61B 		ubfx	fp, r4, #7, #7
 2496              	.LVL439:
 629:..\..\mruby_c2\Design01.cydsn/vm.c **** 
 2497              		.loc 1 629 0
 2498 09d8 4FEA071A 		lsl	r10, r7, #4
 2499 09dc 06EB0A09 		add	r9, r6, r10
 2500 09e0 99E80F00 		ldmia	r9, {r0, r1, r2, r3}
 2501              	.LVL440:
 2502 09e4 0DF1380E 		add	lr, sp, #56
 2503 09e8 0EE90F00 		stmdb	lr, {r0, r1, r2, r3}
 632:..\..\mruby_c2\Design01.cydsn/vm.c ****   switch( GET_OPCODE(code) ) {
 2504              		.loc 1 632 0
 2505 09ec 5F44     		add	r7, r7, fp
 2506              	.LVL441:
 2507 09ee 0137     		adds	r7, r7, #1
 2508              	.LVL442:
 633:..\..\mruby_c2\Design01.cydsn/vm.c ****   case OP_SEND:
 2509              		.loc 1 633 0
 2510 09f0 04F07F04 		and	r4, r4, #127
 2511              	.LVL443:
 2512 09f4 202C     		cmp	r4, #32
 2513 09f6 02D0     		beq	.L159
 2514 09f8 212C     		cmp	r4, #33
 2515 09fa 07D0     		beq	.L160
 2516 09fc 0CE0     		b	.L158
 2517              	.L159:
 636:..\..\mruby_c2\Design01.cydsn/vm.c ****     regs[bidx].tt = MRB_TT_NIL;
 2518              		.loc 1 636 0
ARM GAS  C:\Users\164\AppData\Local\Temp\cc4PZf78.s 			page 84


 2519 09fe 3C01     		lsls	r4, r7, #4
 2520 0a00 3019     		adds	r0, r6, r4
 2521 0a02 FFF7FEFF 		bl	mrbc_release
 2522              	.LVL444:
 637:..\..\mruby_c2\Design01.cydsn/vm.c ****     break;
 2523              		.loc 1 637 0
 2524 0a06 0123     		movs	r3, #1
 2525 0a08 3355     		strb	r3, [r6, r4]
 2526 0a0a 05E0     		b	.L158
 2527              	.L160:
 642:..\..\mruby_c2\Design01.cydsn/vm.c ****       // TODO: fix the following behavior
 2528              		.loc 1 642 0
 2529 0a0c 3B01     		lsls	r3, r7, #4
 2530 0a0e F356     		ldrsb	r3, [r6, r3]
 2531 0a10 012B     		cmp	r3, #1
 2532 0a12 01D0     		beq	.L158
 2533 0a14 152B     		cmp	r3, #21
 2534 0a16 37D1     		bne	.L161
 2535              	.L158:
 654:..\..\mruby_c2\Design01.cydsn/vm.c ****   mrb_sym sym_id = str_to_symid(sym_name);
 2536              		.loc 1 654 0
 2537 0a18 EB68     		ldr	r3, [r5, #12]
 2538 0a1a 0599     		ldr	r1, [sp, #20]
 2539 0a1c 5869     		ldr	r0, [r3, #20]
 2540 0a1e FFF7FEFF 		bl	mrbc_get_irep_symbol
 2541              	.LVL445:
 2542 0a22 0590     		str	r0, [sp, #20]
 2543              	.LVL446:
 655:..\..\mruby_c2\Design01.cydsn/vm.c ****   mrb_proc *m = find_method(vm, recv, sym_id);
 2544              		.loc 1 655 0
 2545 0a24 FFF7FEFF 		bl	str_to_symid
 2546              	.LVL447:
 656:..\..\mruby_c2\Design01.cydsn/vm.c **** 
 2547              		.loc 1 656 0
 2548 0a28 0290     		str	r0, [sp, #8]
 2549 0a2a 0EAB     		add	r3, sp, #56
 2550 0a2c 13E90300 		ldmdb	r3, {r0, r1}
 2551              	.LVL448:
 2552 0a30 8DE80300 		stmia	sp, {r0, r1}
 2553 0a34 0AAB     		add	r3, sp, #40
 2554 0a36 0CCB     		ldmia	r3, {r2, r3}
 2555 0a38 2846     		mov	r0, r5
 2556 0a3a FFF7FEFF 		bl	find_method
