ARM GAS  C:\Users\164\AppData\Local\Temp\ccd4XrSZ.s 			page 1


   1              		.syntax unified
   2              		.cpu cortex-m3
   3              		.fpu softvfp
   4              		.eabi_attribute 20, 1
   5              		.eabi_attribute 21, 1
   6              		.eabi_attribute 23, 3
   7              		.eabi_attribute 24, 1
   8              		.eabi_attribute 25, 1
   9              		.eabi_attribute 26, 1
  10              		.eabi_attribute 30, 1
  11              		.eabi_attribute 34, 1
  12              		.eabi_attribute 18, 4
  13              		.thumb
  14              		.syntax unified
  15              		.file	"vm.c"
  16              		.text
  17              	.Ltext0:
  18              		.cfi_sections	.debug_frame
  19              		.section	.text.not_supported,"ax",%progbits
  20              		.align	2
  21              		.thumb
  22              		.thumb_func
  23              		.type	not_supported, %function
  24              	not_supported:
  25              	.LFB98:
  26              		.file 1 "vm.c"
   1:vm.c          **** /*! @file
   2:vm.c          ****   @brief
   3:vm.c          ****   mruby bytecode executor.
   4:vm.c          **** 
   5:vm.c          ****   <pre>
   6:vm.c          ****   Copyright (C) 2015-2018 Kyushu Institute of Technology.
   7:vm.c          ****   Copyright (C) 2015-2018 Shimane IT Open-Innovation Center.
   8:vm.c          **** 
   9:vm.c          ****   This file is distributed under BSD 3-Clause License.
  10:vm.c          **** 
  11:vm.c          ****   Fetch mruby VM bytecodes, decode and execute.
  12:vm.c          **** 
  13:vm.c          ****   </pre>
  14:vm.c          **** */
  15:vm.c          **** 
  16:vm.c          **** #include "vm_config.h"
  17:vm.c          **** #include <stdint.h>
  18:vm.c          **** #include <stddef.h>
  19:vm.c          **** #include <string.h>
  20:vm.c          **** #include <assert.h>
  21:vm.c          **** #include "vm.h"
  22:vm.c          **** #include "alloc.h"
  23:vm.c          **** #include "static.h"
  24:vm.c          **** #include "opcode.h"
  25:vm.c          **** #include "class.h"
  26:vm.c          **** #include "symbol.h"
  27:vm.c          **** #include "console.h"
  28:vm.c          **** 
  29:vm.c          **** #include "c_string.h"
  30:vm.c          **** #include "c_range.h"
  31:vm.c          **** #include "c_array.h"
ARM GAS  C:\Users\164\AppData\Local\Temp\ccd4XrSZ.s 			page 2


  32:vm.c          **** #include "c_hash.h"
  33:vm.c          **** 
  34:vm.c          **** 
  35:vm.c          **** static uint32_t free_vm_bitmap[MAX_VM_COUNT / 32 + 1];
  36:vm.c          **** #define FREE_BITMAP_WIDTH 32
  37:vm.c          **** #define Num(n) (sizeof(n)/sizeof((n)[0]))
  38:vm.c          **** 
  39:vm.c          **** 
  40:vm.c          **** //================================================================
  41:vm.c          **** /*! Number of leading zeros.
  42:vm.c          **** 
  43:vm.c          ****   @param	x	target (32bit unsined)
  44:vm.c          ****   @retval	int	nlz value
  45:vm.c          **** */
  46:vm.c          **** static inline int nlz32(uint32_t x)
  47:vm.c          **** {
  48:vm.c          ****   if( x == 0 ) return 32;
  49:vm.c          **** 
  50:vm.c          ****   int n = 1;
  51:vm.c          ****   if((x >> 16) == 0 ) { n += 16; x <<= 16; }
  52:vm.c          ****   if((x >> 24) == 0 ) { n +=  8; x <<=  8; }
  53:vm.c          ****   if((x >> 28) == 0 ) { n +=  4; x <<=  4; }
  54:vm.c          ****   if((x >> 30) == 0 ) { n +=  2; x <<=  2; }
  55:vm.c          ****   return n - (x >> 31);
  56:vm.c          **** }
  57:vm.c          **** 
  58:vm.c          **** 
  59:vm.c          **** //================================================================
  60:vm.c          **** /*! get sym[n] from symbol table in irep
  61:vm.c          **** 
  62:vm.c          ****   @param  p	Pointer to IREP SYMS section.
  63:vm.c          ****   @param  n	n th
  64:vm.c          ****   @return	symbol name string
  65:vm.c          **** */
  66:vm.c          **** const char * mrbc_get_irep_symbol( const uint8_t *p, int n )
  67:vm.c          **** {
  68:vm.c          ****   int cnt = bin_to_uint32(p);
  69:vm.c          ****   if( n >= cnt ) return 0;
  70:vm.c          ****   p += 4;
  71:vm.c          ****   while( n > 0 ) {
  72:vm.c          ****     uint16_t s = bin_to_uint16(p);
  73:vm.c          ****     p += 2+s+1;   // size(2 bytes) + symbol len + '\0'
  74:vm.c          ****     n--;
  75:vm.c          ****   }
  76:vm.c          ****   return (char *)p+2;  // skip size(2 bytes)
  77:vm.c          **** }
  78:vm.c          **** 
  79:vm.c          **** 
  80:vm.c          **** //================================================================
  81:vm.c          **** /*! get callee name
  82:vm.c          **** 
  83:vm.c          ****   @param  vm	Pointer to VM
  84:vm.c          ****   @return	string
  85:vm.c          **** */
  86:vm.c          **** const char *mrbc_get_callee_name( struct VM *vm )
  87:vm.c          **** {
  88:vm.c          ****   uint32_t code = bin_to_uint32(vm->pc_irep->code + (vm->pc - 1) * 4);
ARM GAS  C:\Users\164\AppData\Local\Temp\ccd4XrSZ.s 			page 3


  89:vm.c          ****   int rb = GETARG_B(code);  // index of method sym
  90:vm.c          ****   return mrbc_get_irep_symbol(vm->pc_irep->ptr_to_sym, rb);
  91:vm.c          **** }
  92:vm.c          **** 
  93:vm.c          **** 
  94:vm.c          **** //================================================================
  95:vm.c          **** /*!@brief
  96:vm.c          **** 
  97:vm.c          **** */
  98:vm.c          **** static void not_supported(void)
  99:vm.c          **** {
  27              		.loc 1 99 0
  28              		.cfi_startproc
  29              		@ args = 0, pretend = 0, frame = 0
  30              		@ frame_needed = 0, uses_anonymous_args = 0
  31 0000 08B5     		push	{r3, lr}
  32              		.cfi_def_cfa_offset 8
  33              		.cfi_offset 3, -8
  34              		.cfi_offset 14, -4
 100:vm.c          ****   console_printf("Not supported!\n");
  35              		.loc 1 100 0
  36 0002 0248     		ldr	r0, .L3
  37 0004 FFF7FEFF 		bl	console_printf
  38              	.LVL0:
  39 0008 08BD     		pop	{r3, pc}
  40              	.L4:
  41 000a 00BF     		.align	2
  42              	.L3:
  43 000c 00000000 		.word	.LC0
  44              		.cfi_endproc
  45              	.LFE98:
  46              		.size	not_supported, .-not_supported
  47              		.section	.text.mrbc_get_irep_symbol,"ax",%progbits
  48              		.align	2
  49              		.global	mrbc_get_irep_symbol
  50              		.thumb
  51              		.thumb_func
  52              		.type	mrbc_get_irep_symbol, %function
  53              	mrbc_get_irep_symbol:
  54              	.LFB96:
  67:vm.c          ****   int cnt = bin_to_uint32(p);
  55              		.loc 1 67 0
  56              		.cfi_startproc
  57              		@ args = 0, pretend = 0, frame = 0
  58              		@ frame_needed = 0, uses_anonymous_args = 0
  59              		@ link register save eliminated.
  60              	.LVL1:
  61 0000 10B4     		push	{r4}
  62              		.cfi_def_cfa_offset 4
  63              		.cfi_offset 4, -4
  64              	.LVL2:
  65              	.LBB42:
  66              	.LBB43:
  67              		.file 2 "vm.h"
   1:vm.h          **** /*! @file
   2:vm.h          ****   @brief
   3:vm.h          ****   mruby bytecode executor.
ARM GAS  C:\Users\164\AppData\Local\Temp\ccd4XrSZ.s 			page 4


   4:vm.h          **** 
   5:vm.h          ****   <pre>
   6:vm.h          ****   Copyright (C) 2015-2017 Kyushu Institute of Technology.
   7:vm.h          ****   Copyright (C) 2015-2017 Shimane IT Open-Innovation Center.
   8:vm.h          **** 
   9:vm.h          ****   This file is distributed under BSD 3-Clause License.
  10:vm.h          **** 
  11:vm.h          ****   Fetch mruby VM bytecodes, decode and execute.
  12:vm.h          **** 
  13:vm.h          ****   </pre>
  14:vm.h          **** */
  15:vm.h          **** 
  16:vm.h          **** #ifndef MRBC_SRC_VM_H_
  17:vm.h          **** #define MRBC_SRC_VM_H_
  18:vm.h          **** 
  19:vm.h          **** #include <stdint.h>
  20:vm.h          **** #include "vm_config.h"
  21:vm.h          **** #include "value.h"
  22:vm.h          **** 
  23:vm.h          **** #ifdef __cplusplus
  24:vm.h          **** extern "C" {
  25:vm.h          **** #endif
  26:vm.h          **** 
  27:vm.h          **** 
  28:vm.h          **** //================================================================
  29:vm.h          **** /*!@brief
  30:vm.h          ****   IREP Internal REPresentation
  31:vm.h          **** */
  32:vm.h          **** typedef struct IREP {
  33:vm.h          ****   uint16_t nlocals;		//!< # of local variables
  34:vm.h          ****   uint16_t nregs;		//!< # of register variables
  35:vm.h          ****   uint16_t rlen;		//!< # of child IREP blocks
  36:vm.h          ****   uint16_t ilen;		//!< # of irep
  37:vm.h          ****   uint16_t plen;		//!< # of pool
  38:vm.h          **** 
  39:vm.h          ****   uint8_t     *code;		//!< ISEQ (code) BLOCK
  40:vm.h          ****   mrbc_object  **pools;          //!< array of POOL objects pointer.
  41:vm.h          ****   uint8_t     *ptr_to_sym;
  42:vm.h          ****   struct IREP **reps;		//!< array of child IREP's pointer.
  43:vm.h          **** 
  44:vm.h          **** } mrbc_irep;
  45:vm.h          **** typedef struct IREP mrb_irep;
  46:vm.h          **** 
  47:vm.h          **** 
  48:vm.h          **** //================================================================
  49:vm.h          **** /*!@brief
  50:vm.h          ****   Call information
  51:vm.h          **** */
  52:vm.h          **** typedef struct CALLINFO {
  53:vm.h          ****   struct CALLINFO *prev;
  54:vm.h          ****   mrbc_irep *pc_irep;
  55:vm.h          ****   uint16_t  pc;
  56:vm.h          ****   mrbc_value *current_regs;
  57:vm.h          ****   mrbc_class *target_class;
  58:vm.h          ****   uint8_t   n_args;     // num of args
  59:vm.h          **** } mrbc_callinfo;
  60:vm.h          **** typedef struct CALLINFO mrb_callinfo;
ARM GAS  C:\Users\164\AppData\Local\Temp\ccd4XrSZ.s 			page 5


  61:vm.h          **** 
  62:vm.h          **** 
  63:vm.h          **** //================================================================
  64:vm.h          **** /*!@brief
  65:vm.h          ****   Virtual Machine
  66:vm.h          **** */
  67:vm.h          **** typedef struct VM {
  68:vm.h          ****   mrbc_irep *irep;
  69:vm.h          **** 
  70:vm.h          ****   uint8_t        vm_id; // vm_id : 1..n
  71:vm.h          ****   const uint8_t *mrb;   // bytecode
  72:vm.h          **** 
  73:vm.h          ****   mrbc_irep *pc_irep;    // PC
  74:vm.h          ****   uint16_t  pc;         // PC
  75:vm.h          **** 
  76:vm.h          ****   //  uint16_t     reg_top;
  77:vm.h          ****   mrbc_value    regs[MAX_REGS_SIZE];
  78:vm.h          ****   mrbc_value   *current_regs;
  79:vm.h          ****   mrbc_callinfo *callinfo_tail;
  80:vm.h          **** 
  81:vm.h          ****   mrbc_class *target_class;
  82:vm.h          **** 
  83:vm.h          ****   int32_t error_code;
  84:vm.h          **** 
  85:vm.h          ****   volatile int8_t flag_preemption;
  86:vm.h          ****   int8_t flag_need_memfree;
  87:vm.h          **** } mrbc_vm;
  88:vm.h          **** typedef struct VM mrb_vm;
  89:vm.h          **** 
  90:vm.h          **** 
  91:vm.h          **** const char *mrbc_get_irep_symbol(const uint8_t *p, int n);
  92:vm.h          **** const char *mrbc_get_callee_name(struct VM *vm);
  93:vm.h          **** void mrbc_push_callinfo(struct VM *vm, int n_args);
  94:vm.h          **** void mrbc_pop_callinfo(struct VM *vm);
  95:vm.h          **** mrbc_vm *mrbc_vm_open(struct VM *vm_arg);
  96:vm.h          **** void mrbc_vm_close(struct VM *vm);
  97:vm.h          **** void mrbc_vm_begin(struct VM *vm);
  98:vm.h          **** void mrbc_vm_end(struct VM *vm);
  99:vm.h          **** int mrbc_vm_run(struct VM *vm);
 100:vm.h          **** 
 101:vm.h          **** 
 102:vm.h          **** //================================================================
 103:vm.h          **** /*! Get 32bit value from memory.
 104:vm.h          **** 
 105:vm.h          ****   @param  s	Pointer to memory.
 106:vm.h          ****   @return	32bit unsigned value.
 107:vm.h          **** */
 108:vm.h          **** static inline uint32_t bin_to_uint32( const void *s )
 109:vm.h          **** {
 110:vm.h          ****   // Little endian, no alignment.
 111:vm.h          ****   //  e.g. ARM Coretex-M4, Intel x86
 112:vm.h          **** #if defined(MRBC_LITTLE_ENDIAN) && !defined(MRBC_REQUIRE_32BIT_ALIGNMENT)
 113:vm.h          ****   uint32_t x = *((uint32_t *)s);
  68              		.loc 2 113 0
  69 0002 0468     		ldr	r4, [r0]
  70              	.LVL3:
 114:vm.h          ****   return (x << 24) | ((x & 0xff00) << 8) | ((x >> 8) & 0xff00) | (x >> 24);
ARM GAS  C:\Users\164\AppData\Local\Temp\ccd4XrSZ.s 			page 6


  71              		.loc 2 114 0
  72 0004 2302     		lsls	r3, r4, #8
  73 0006 03F47F03 		and	r3, r3, #16711680
  74 000a 43EA0463 		orr	r3, r3, r4, lsl #24
  75 000e 220A     		lsrs	r2, r4, #8
  76 0010 02F47F42 		and	r2, r2, #65280
  77 0014 1343     		orrs	r3, r3, r2
  78 0016 43EA1463 		orr	r3, r3, r4, lsr #24
  79              	.LVL4:
  80              	.LBE43:
  81              	.LBE42:
  69:vm.c          ****   p += 4;
  82              		.loc 1 69 0
  83 001a 8B42     		cmp	r3, r1
  84 001c 0DDD     		ble	.L9
  70:vm.c          ****   while( n > 0 ) {
  85              		.loc 1 70 0
  86 001e 0430     		adds	r0, r0, #4
  87              	.LVL5:
  71:vm.c          ****     uint16_t s = bin_to_uint16(p);
  88              		.loc 1 71 0
  89 0020 07E0     		b	.L7
  90              	.LVL6:
  91              	.L8:
  92              	.LBB44:
  93              	.LBB45:
  94              	.LBB46:
 115:vm.h          **** 
 116:vm.h          ****   // Big endian, no alignment.
 117:vm.h          ****   //  e.g. IBM PPC405
 118:vm.h          **** #elif defined(MRBC_BIG_ENDIAN) && !defined(MRBC_REQUIRE_32BIT_ALIGNMENT)
 119:vm.h          ****   uint32_t x = *((uint32_t *)s);
 120:vm.h          ****   return x;
 121:vm.h          **** 
 122:vm.h          ****   // 32bit alignment required.
 123:vm.h          ****   // Little endian
 124:vm.h          ****   //  e.g. ARM Coretex-M0
 125:vm.h          ****   // Big endian
 126:vm.h          ****   //  e.g. OpenRISC
 127:vm.h          **** #elif defined(MRBC_REQUIRE_32BIT_ALIGNMENT)
 128:vm.h          ****   uint8_t *p = (uint8_t *)s;
 129:vm.h          ****   uint32_t x = *p++;
 130:vm.h          ****   x <<= 8;
 131:vm.h          ****   x |= *p++;
 132:vm.h          ****   x <<= 8;
 133:vm.h          ****   x |= *p++;
 134:vm.h          ****   x <<= 8;
 135:vm.h          ****   x |= *p;
 136:vm.h          ****   return x;
 137:vm.h          **** 
 138:vm.h          **** #else
 139:vm.h          ****   #error "Specify MRBC_BIG_ENDIAN or MRBC_LITTLE_ENDIAN"
 140:vm.h          **** #endif
 141:vm.h          **** }
 142:vm.h          **** 
 143:vm.h          **** 
 144:vm.h          **** //================================================================
ARM GAS  C:\Users\164\AppData\Local\Temp\ccd4XrSZ.s 			page 7


 145:vm.h          **** /*! Get 16bit value from memory.
 146:vm.h          **** 
 147:vm.h          ****   @param  s	Pointer to memory.
 148:vm.h          ****   @return	16bit unsigned value.
 149:vm.h          **** */
 150:vm.h          **** static inline uint16_t bin_to_uint16( const void *s )
 151:vm.h          **** {
 152:vm.h          ****   // Little endian, no alignment.
 153:vm.h          **** #if defined(MRBC_LITTLE_ENDIAN) && !defined(MRBC_REQUIRE_32BIT_ALIGNMENT)
 154:vm.h          ****   uint16_t x = *((uint16_t *)s);
  95              		.loc 2 154 0
  96 0022 0288     		ldrh	r2, [r0]
  97              	.LVL7:
 155:vm.h          ****   return (x << 8) | (x >> 8);
  98              		.loc 2 155 0
  99 0024 130A     		lsrs	r3, r2, #8
 100 0026 43EA0223 		orr	r3, r3, r2, lsl #8
 101 002a 9BB2     		uxth	r3, r3
 102              	.LVL8:
 103              	.LBE46:
 104              	.LBE45:
  73:vm.c          ****     n--;
 105              		.loc 1 73 0
 106 002c 0333     		adds	r3, r3, #3
 107 002e 1844     		add	r0, r0, r3
 108              	.LVL9:
  74:vm.c          ****   }
 109              		.loc 1 74 0
 110 0030 0139     		subs	r1, r1, #1
 111              	.LVL10:
 112              	.L7:
 113              	.LBE44:
  71:vm.c          ****     uint16_t s = bin_to_uint16(p);
 114              		.loc 1 71 0
 115 0032 0029     		cmp	r1, #0
 116 0034 F5DC     		bgt	.L8
  76:vm.c          **** }
 117              		.loc 1 76 0
 118 0036 0230     		adds	r0, r0, #2
 119              	.LVL11:
 120 0038 00E0     		b	.L6
 121              	.LVL12:
 122              	.L9:
  69:vm.c          ****   p += 4;
 123              		.loc 1 69 0
 124 003a 0020     		movs	r0, #0
 125              	.LVL13:
 126              	.L6:
  77:vm.c          **** 
 127              		.loc 1 77 0
 128 003c 10BC     		pop	{r4}
 129              		.cfi_restore 4
 130              		.cfi_def_cfa_offset 0
 131              	.LVL14:
 132 003e 7047     		bx	lr
 133              		.cfi_endproc
 134              	.LFE96:
ARM GAS  C:\Users\164\AppData\Local\Temp\ccd4XrSZ.s 			page 8


 135              		.size	mrbc_get_irep_symbol, .-mrbc_get_irep_symbol
 136              		.section	.text.mrbc_get_callee_name,"ax",%progbits
 137              		.align	2
 138              		.global	mrbc_get_callee_name
 139              		.thumb
 140              		.thumb_func
 141              		.type	mrbc_get_callee_name, %function
 142              	mrbc_get_callee_name:
 143              	.LFB97:
  87:vm.c          ****   uint32_t code = bin_to_uint32(vm->pc_irep->code + (vm->pc - 1) * 4);
 144              		.loc 1 87 0
 145              		.cfi_startproc
 146              		@ args = 0, pretend = 0, frame = 0
 147              		@ frame_needed = 0, uses_anonymous_args = 0
 148              	.LVL15:
 149 0000 08B5     		push	{r3, lr}
 150              		.cfi_def_cfa_offset 8
 151              		.cfi_offset 3, -8
 152              		.cfi_offset 14, -4
  88:vm.c          ****   int rb = GETARG_B(code);  // index of method sym
 153              		.loc 1 88 0
 154 0002 C268     		ldr	r2, [r0, #12]
 155 0004 D168     		ldr	r1, [r2, #12]
 156 0006 038A     		ldrh	r3, [r0, #16]
 157 0008 013B     		subs	r3, r3, #1
 158              	.LVL16:
 159              	.LBB47:
 160              	.LBB48:
 113:vm.h          ****   return (x << 24) | ((x & 0xff00) << 8) | ((x >> 8) & 0xff00) | (x >> 24);
 161              		.loc 2 113 0
 162 000a 51F82330 		ldr	r3, [r1, r3, lsl #2]
 163              	.LVL17:
 114:vm.h          **** 
 164              		.loc 2 114 0
 165 000e 1902     		lsls	r1, r3, #8
 166              	.LVL18:
 167 0010 01F47F01 		and	r1, r1, #16711680
 168 0014 41EA0361 		orr	r1, r1, r3, lsl #24
 169 0018 1B0A     		lsrs	r3, r3, #8
 170              	.LVL19:
 171 001a 03F47F43 		and	r3, r3, #65280
 172 001e 1943     		orrs	r1, r1, r3
 173              	.LVL20:
 174              	.LBE48:
 175              	.LBE47:
  90:vm.c          **** }
 176              		.loc 1 90 0
 177 0020 C1F38831 		ubfx	r1, r1, #14, #9
 178              	.LVL21:
 179 0024 5069     		ldr	r0, [r2, #20]
 180              	.LVL22:
 181 0026 FFF7FEFF 		bl	mrbc_get_irep_symbol
 182              	.LVL23:
  91:vm.c          **** 
 183              		.loc 1 91 0
 184 002a 08BD     		pop	{r3, pc}
 185              		.cfi_endproc
ARM GAS  C:\Users\164\AppData\Local\Temp\ccd4XrSZ.s 			page 9


 186              	.LFE97:
 187              		.size	mrbc_get_callee_name, .-mrbc_get_callee_name
 188              		.section	.text.mrbc_push_callinfo,"ax",%progbits
 189              		.align	2
 190              		.global	mrbc_push_callinfo
 191              		.thumb
 192              		.thumb_func
 193              		.type	mrbc_push_callinfo, %function
 194              	mrbc_push_callinfo:
 195              	.LFB99:
 101:vm.c          **** }
 102:vm.c          **** 
 103:vm.c          **** 
 104:vm.c          **** 
 105:vm.c          **** //================================================================
 106:vm.c          **** /*!@brief
 107:vm.c          ****   Push current status to callinfo stack
 108:vm.c          **** 
 109:vm.c          **** */
 110:vm.c          **** void mrbc_push_callinfo( struct VM *vm, int n_args )
 111:vm.c          **** {
 196              		.loc 1 111 0
 197              		.cfi_startproc
 198              		@ args = 0, pretend = 0, frame = 0
 199              		@ frame_needed = 0, uses_anonymous_args = 0
 200              	.LVL24:
 201 0000 38B5     		push	{r3, r4, r5, lr}
 202              		.cfi_def_cfa_offset 16
 203              		.cfi_offset 3, -16
 204              		.cfi_offset 4, -12
 205              		.cfi_offset 5, -8
 206              		.cfi_offset 14, -4
 207 0002 0446     		mov	r4, r0
 208 0004 0D46     		mov	r5, r1
 112:vm.c          ****   mrbc_callinfo *callinfo = mrbc_alloc(vm, sizeof(mrbc_callinfo));
 209              		.loc 1 112 0
 210 0006 1821     		movs	r1, #24
 211              	.LVL25:
 212 0008 FFF7FEFF 		bl	mrbc_alloc
 213              	.LVL26:
 113:vm.c          ****   callinfo->current_regs = vm->current_regs;
 214              		.loc 1 113 0
 215 000c D4F85836 		ldr	r3, [r4, #1624]
 216 0010 C360     		str	r3, [r0, #12]
 114:vm.c          ****   callinfo->pc_irep = vm->pc_irep;
 217              		.loc 1 114 0
 218 0012 E368     		ldr	r3, [r4, #12]
 219 0014 4360     		str	r3, [r0, #4]
 115:vm.c          ****   callinfo->pc = vm->pc;
 220              		.loc 1 115 0
 221 0016 238A     		ldrh	r3, [r4, #16]
 222 0018 0381     		strh	r3, [r0, #8]	@ movhi
 116:vm.c          ****   callinfo->n_args = n_args;
 223              		.loc 1 116 0
 224 001a 0575     		strb	r5, [r0, #20]
 117:vm.c          ****   callinfo->target_class = vm->target_class;
 225              		.loc 1 117 0
ARM GAS  C:\Users\164\AppData\Local\Temp\ccd4XrSZ.s 			page 10


 226 001c D4F86036 		ldr	r3, [r4, #1632]
 227 0020 0361     		str	r3, [r0, #16]
 118:vm.c          ****   callinfo->prev = vm->callinfo_tail;
 228              		.loc 1 118 0
 229 0022 D4F85C36 		ldr	r3, [r4, #1628]
 230 0026 0360     		str	r3, [r0]
 119:vm.c          ****   vm->callinfo_tail = callinfo;
 231              		.loc 1 119 0
 232 0028 C4F85C06 		str	r0, [r4, #1628]
 233 002c 38BD     		pop	{r3, r4, r5, pc}
 234              		.cfi_endproc
 235              	.LFE99:
 236              		.size	mrbc_push_callinfo, .-mrbc_push_callinfo
 237 002e 00BF     		.section	.text.mrbc_pop_callinfo,"ax",%progbits
 238              		.align	2
 239              		.global	mrbc_pop_callinfo
 240              		.thumb
 241              		.thumb_func
 242              		.type	mrbc_pop_callinfo, %function
 243              	mrbc_pop_callinfo:
 244              	.LFB100:
 120:vm.c          **** }
 121:vm.c          **** 
 122:vm.c          **** 
 123:vm.c          **** 
 124:vm.c          **** //================================================================
 125:vm.c          **** /*!@brief
 126:vm.c          ****   Push current status to callinfo stack
 127:vm.c          **** 
 128:vm.c          **** */
 129:vm.c          **** void mrbc_pop_callinfo( struct VM *vm )
 130:vm.c          **** {
 245              		.loc 1 130 0
 246              		.cfi_startproc
 247              		@ args = 0, pretend = 0, frame = 0
 248              		@ frame_needed = 0, uses_anonymous_args = 0
 249              	.LVL27:
 250 0000 08B5     		push	{r3, lr}
 251              		.cfi_def_cfa_offset 8
 252              		.cfi_offset 3, -8
 253              		.cfi_offset 14, -4
 131:vm.c          ****   mrbc_callinfo *callinfo = vm->callinfo_tail;
 254              		.loc 1 131 0
 255 0002 D0F85C16 		ldr	r1, [r0, #1628]
 256              	.LVL28:
 132:vm.c          ****   vm->callinfo_tail = callinfo->prev;
 257              		.loc 1 132 0
 258 0006 0A68     		ldr	r2, [r1]
 259 0008 C0F85C26 		str	r2, [r0, #1628]
 133:vm.c          ****   vm->current_regs = callinfo->current_regs;
 260              		.loc 1 133 0
 261 000c CA68     		ldr	r2, [r1, #12]
 262 000e C0F85826 		str	r2, [r0, #1624]
 134:vm.c          ****   vm->pc_irep = callinfo->pc_irep;
 263              		.loc 1 134 0
 264 0012 4A68     		ldr	r2, [r1, #4]
 265 0014 C260     		str	r2, [r0, #12]
ARM GAS  C:\Users\164\AppData\Local\Temp\ccd4XrSZ.s 			page 11


 135:vm.c          ****   vm->pc = callinfo->pc;
 266              		.loc 1 135 0
 267 0016 0A89     		ldrh	r2, [r1, #8]
 268 0018 0282     		strh	r2, [r0, #16]	@ movhi
 136:vm.c          ****   vm->target_class = callinfo->target_class;
 269              		.loc 1 136 0
 270 001a 0A69     		ldr	r2, [r1, #16]
 271 001c C0F86026 		str	r2, [r0, #1632]
 137:vm.c          ****   // free callinfo
 138:vm.c          ****   mrbc_free(vm, callinfo);
 272              		.loc 1 138 0
 273 0020 FFF7FEFF 		bl	mrbc_free
 274              	.LVL29:
 275 0024 08BD     		pop	{r3, pc}
 276              		.cfi_endproc
 277              	.LFE100:
 278              		.size	mrbc_pop_callinfo, .-mrbc_pop_callinfo
 279 0026 00BF     		.section	.text.mrbc_vm_open,"ax",%progbits
 280              		.align	2
 281              		.global	mrbc_vm_open
 282              		.thumb
 283              		.thumb_func
 284              		.type	mrbc_vm_open, %function
 285              	mrbc_vm_open:
 286              	.LFB148:
 139:vm.c          **** }
 140:vm.c          **** 
 141:vm.c          **** 
 142:vm.c          **** 
 143:vm.c          **** //================================================================
 144:vm.c          **** /*!@brief
 145:vm.c          ****   Execute OP_NOP
 146:vm.c          **** 
 147:vm.c          ****   No operation
 148:vm.c          **** 
 149:vm.c          ****   @param  vm    A pointer of VM.
 150:vm.c          ****   @param  code  bytecode
 151:vm.c          ****   @param  regs  vm->regs + vm->reg_top
 152:vm.c          ****   @retval 0  No error.
 153:vm.c          **** */
 154:vm.c          **** static inline int op_nop( mrbc_vm *vm, uint32_t code, mrbc_value *regs )
 155:vm.c          **** {
 156:vm.c          ****   return 0;
 157:vm.c          **** }
 158:vm.c          **** 
 159:vm.c          **** 
 160:vm.c          **** //================================================================
 161:vm.c          **** /*!@brief
 162:vm.c          ****   Execute OP_MOVE
 163:vm.c          **** 
 164:vm.c          ****   R(A) := R(B)
 165:vm.c          **** 
 166:vm.c          ****   @param  vm    A pointer of VM.
 167:vm.c          ****   @param  code  bytecode
 168:vm.c          ****   @param  regs  vm->regs + vm->reg_top
 169:vm.c          ****   @retval 0  No error.
 170:vm.c          **** */
ARM GAS  C:\Users\164\AppData\Local\Temp\ccd4XrSZ.s 			page 12


 171:vm.c          **** static inline int op_move( mrbc_vm *vm, uint32_t code, mrbc_value *regs )
 172:vm.c          **** {
 173:vm.c          ****   int ra = GETARG_A(code);
 174:vm.c          ****   int rb = GETARG_B(code);
 175:vm.c          **** 
 176:vm.c          ****   mrbc_release(&regs[ra]);
 177:vm.c          ****   mrbc_dup(&regs[rb]);
 178:vm.c          ****   regs[ra] = regs[rb];
 179:vm.c          **** 
 180:vm.c          ****   return 0;
 181:vm.c          **** }
 182:vm.c          **** 
 183:vm.c          **** 
 184:vm.c          **** //================================================================
 185:vm.c          **** /*!@brief
 186:vm.c          ****   Execute OP_LOADL
 187:vm.c          **** 
 188:vm.c          ****   R(A) := Pool(Bx)
 189:vm.c          **** 
 190:vm.c          ****   @param  vm    A pointer of VM.
 191:vm.c          ****   @param  code  bytecode
 192:vm.c          ****   @param  regs  vm->regs + vm->reg_top
 193:vm.c          ****   @retval 0  No error.
 194:vm.c          **** */
 195:vm.c          **** static inline int op_loadl( mrbc_vm *vm, uint32_t code, mrbc_value *regs )
 196:vm.c          **** {
 197:vm.c          ****   int ra = GETARG_A(code);
 198:vm.c          ****   int rb = GETARG_Bx(code);
 199:vm.c          **** 
 200:vm.c          ****   mrbc_release(&regs[ra]);
 201:vm.c          **** 
 202:vm.c          ****   // regs[ra] = vm->pc_irep->pools[rb];
 203:vm.c          **** 
 204:vm.c          ****   mrbc_object *pool_obj = vm->pc_irep->pools[rb];
 205:vm.c          ****   regs[ra] = *pool_obj;
 206:vm.c          **** 
 207:vm.c          ****   return 0;
 208:vm.c          **** }
 209:vm.c          **** 
 210:vm.c          **** 
 211:vm.c          **** //================================================================
 212:vm.c          **** /*!@brief
 213:vm.c          ****   Execute OP_LOADI
 214:vm.c          **** 
 215:vm.c          ****   R(A) := sBx
 216:vm.c          **** 
 217:vm.c          ****   @param  vm    A pointer of VM.
 218:vm.c          ****   @param  code  bytecode
 219:vm.c          ****   @param  regs  vm->regs + vm->reg_top
 220:vm.c          ****   @retval 0  No error.
 221:vm.c          **** */
 222:vm.c          **** static inline int op_loadi( mrbc_vm *vm, uint32_t code, mrbc_value *regs )
 223:vm.c          **** {
 224:vm.c          ****   int ra = GETARG_A(code);
 225:vm.c          **** 
 226:vm.c          ****   mrbc_release(&regs[ra]);
 227:vm.c          ****   regs[ra].tt = MRBC_TT_FIXNUM;
ARM GAS  C:\Users\164\AppData\Local\Temp\ccd4XrSZ.s 			page 13


 228:vm.c          ****   regs[ra].i = GETARG_sBx(code);
 229:vm.c          **** 
 230:vm.c          ****   return 0;
 231:vm.c          **** }
 232:vm.c          **** 
 233:vm.c          **** 
 234:vm.c          **** //================================================================
 235:vm.c          **** /*!@brief
 236:vm.c          ****   Execute OP_LOADSYM
 237:vm.c          **** 
 238:vm.c          ****   R(A) := Syms(Bx)
 239:vm.c          **** 
 240:vm.c          ****   @param  vm    A pointer of VM.
 241:vm.c          ****   @param  code  bytecode
 242:vm.c          ****   @param  regs  vm->regs + vm->reg_top
 243:vm.c          ****   @retval 0  No error.
 244:vm.c          **** */
 245:vm.c          **** static inline int op_loadsym( mrbc_vm *vm, uint32_t code, mrbc_value *regs )
 246:vm.c          **** {
 247:vm.c          ****   int ra = GETARG_A(code);
 248:vm.c          ****   int rb = GETARG_Bx(code);
 249:vm.c          ****   const char *sym_name = mrbc_get_irep_symbol(vm->pc_irep->ptr_to_sym, rb);
 250:vm.c          ****   mrbc_sym sym_id = str_to_symid(sym_name);
 251:vm.c          **** 
 252:vm.c          ****   mrbc_release(&regs[ra]);
 253:vm.c          ****   regs[ra].tt = MRBC_TT_SYMBOL;
 254:vm.c          ****   regs[ra].i = sym_id;
 255:vm.c          **** 
 256:vm.c          ****   return 0;
 257:vm.c          **** }
 258:vm.c          **** 
 259:vm.c          **** 
 260:vm.c          **** //================================================================
 261:vm.c          **** /*!@brief
 262:vm.c          ****   Execute OP_LOADNIL
 263:vm.c          **** 
 264:vm.c          ****   R(A) := nil
 265:vm.c          **** 
 266:vm.c          ****   @param  vm    A pointer of VM.
 267:vm.c          ****   @param  code  bytecode
 268:vm.c          ****   @param  regs  vm->regs + vm->reg_top
 269:vm.c          ****   @retval 0  No error.
 270:vm.c          **** */
 271:vm.c          **** static inline int op_loadnil( mrbc_vm *vm, uint32_t code, mrbc_value *regs )
 272:vm.c          **** {
 273:vm.c          ****   int ra = GETARG_A(code);
 274:vm.c          **** 
 275:vm.c          ****   mrbc_release(&regs[ra]);
 276:vm.c          ****   regs[ra].tt = MRBC_TT_NIL;
 277:vm.c          **** 
 278:vm.c          ****   return 0;
 279:vm.c          **** }
 280:vm.c          **** 
 281:vm.c          **** 
 282:vm.c          **** //================================================================
 283:vm.c          **** /*!@brief
 284:vm.c          ****   Execute OP_LOADSELF
ARM GAS  C:\Users\164\AppData\Local\Temp\ccd4XrSZ.s 			page 14


 285:vm.c          **** 
 286:vm.c          ****   R(A) := self
 287:vm.c          **** 
 288:vm.c          ****   @param  vm    A pointer of VM.
 289:vm.c          ****   @param  code  bytecode
 290:vm.c          ****   @param  regs  vm->regs + vm->reg_top
 291:vm.c          ****   @retval 0  No error.
 292:vm.c          **** */
 293:vm.c          **** static inline int op_loadself( mrbc_vm *vm, uint32_t code, mrbc_value *regs )
 294:vm.c          **** {
 295:vm.c          ****   int ra = GETARG_A(code);
 296:vm.c          **** 
 297:vm.c          ****   mrbc_release(&regs[ra]);
 298:vm.c          ****   mrbc_dup(&regs[0]);       // TODO: Need?
 299:vm.c          ****   regs[ra] = regs[0];
 300:vm.c          **** 
 301:vm.c          ****   return 0;
 302:vm.c          **** }
 303:vm.c          **** 
 304:vm.c          **** 
 305:vm.c          **** //================================================================
 306:vm.c          **** /*!@brief
 307:vm.c          ****   Execute OP_LOADT
 308:vm.c          **** 
 309:vm.c          ****   R(A) := true
 310:vm.c          **** 
 311:vm.c          ****   @param  vm    A pointer of VM.
 312:vm.c          ****   @param  code  bytecode
 313:vm.c          ****   @param  regs  vm->regs + vm->reg_top
 314:vm.c          ****   @retval 0  No error.
 315:vm.c          **** */
 316:vm.c          **** static inline int op_loadt( mrbc_vm *vm, uint32_t code, mrbc_value *regs )
 317:vm.c          **** {
 318:vm.c          ****   int ra = GETARG_A(code);
 319:vm.c          **** 
 320:vm.c          ****   mrbc_release(&regs[ra]);
 321:vm.c          ****   regs[ra].tt = MRBC_TT_TRUE;
 322:vm.c          **** 
 323:vm.c          ****   return 0;
 324:vm.c          **** }
 325:vm.c          **** 
 326:vm.c          **** 
 327:vm.c          **** //================================================================
 328:vm.c          **** /*!@brief
 329:vm.c          ****   Execute OP_LOADF
 330:vm.c          **** 
 331:vm.c          ****   R(A) := false
 332:vm.c          **** 
 333:vm.c          ****   @param  vm    A pointer of VM.
 334:vm.c          ****   @param  code  bytecode
 335:vm.c          ****   @param  regs  vm->regs + vm->reg_top
 336:vm.c          ****   @retval 0  No error.
 337:vm.c          **** */
 338:vm.c          **** static inline int op_loadf( mrbc_vm *vm, uint32_t code, mrbc_value *regs )
 339:vm.c          **** {
 340:vm.c          ****   int ra = GETARG_A(code);
 341:vm.c          **** 
ARM GAS  C:\Users\164\AppData\Local\Temp\ccd4XrSZ.s 			page 15


 342:vm.c          ****   mrbc_release(&regs[ra]);
 343:vm.c          ****   regs[ra].tt = MRBC_TT_FALSE;
 344:vm.c          **** 
 345:vm.c          ****   return 0;
 346:vm.c          **** }
 347:vm.c          **** 
 348:vm.c          **** 
 349:vm.c          **** //================================================================
 350:vm.c          **** /*!@brief
 351:vm.c          ****   Execute OP_GETGLOBAL
 352:vm.c          **** 
 353:vm.c          ****   R(A) := getglobal(Syms(Bx))
 354:vm.c          **** 
 355:vm.c          ****   @param  vm    A pointer of VM.
 356:vm.c          ****   @param  code  bytecode
 357:vm.c          ****   @param  regs  vm->regs + vm->reg_top
 358:vm.c          ****   @retval 0  No error.
 359:vm.c          **** */
 360:vm.c          **** static inline int op_getglobal( mrbc_vm *vm, uint32_t code, mrbc_value *regs )
 361:vm.c          **** {
 362:vm.c          ****   int ra = GETARG_A(code);
 363:vm.c          ****   int rb = GETARG_Bx(code);
 364:vm.c          ****   const char *sym_name = mrbc_get_irep_symbol(vm->pc_irep->ptr_to_sym, rb);
 365:vm.c          ****   mrbc_sym sym_id = str_to_symid(sym_name);
 366:vm.c          **** 
 367:vm.c          ****   mrbc_release(&regs[ra]);
 368:vm.c          ****   regs[ra] = global_object_get(sym_id);
 369:vm.c          **** 
 370:vm.c          ****   return 0;
 371:vm.c          **** }
 372:vm.c          **** 
 373:vm.c          **** 
 374:vm.c          **** //================================================================
 375:vm.c          **** /*!@brief
 376:vm.c          ****   Execute OP_SETGLOBAL
 377:vm.c          **** 
 378:vm.c          ****   setglobal(Syms(Bx), R(A))
 379:vm.c          **** 
 380:vm.c          ****   @param  vm    A pointer of VM.
 381:vm.c          ****   @param  code  bytecode
 382:vm.c          ****   @param  regs  vm->regs + vm->reg_top
 383:vm.c          ****   @retval 0  No error.
 384:vm.c          **** */
 385:vm.c          **** static inline int op_setglobal( mrbc_vm *vm, uint32_t code, mrbc_value *regs )
 386:vm.c          **** {
 387:vm.c          ****   int ra = GETARG_A(code);
 388:vm.c          ****   int rb = GETARG_Bx(code);
 389:vm.c          ****   const char *sym_name = mrbc_get_irep_symbol(vm->pc_irep->ptr_to_sym, rb);
 390:vm.c          ****   mrbc_sym sym_id = str_to_symid(sym_name);
 391:vm.c          ****   global_object_add(sym_id, regs[ra]);
 392:vm.c          **** 
 393:vm.c          ****   return 0;
 394:vm.c          **** }
 395:vm.c          **** 
 396:vm.c          **** 
 397:vm.c          **** //================================================================
 398:vm.c          **** /*!@brief
ARM GAS  C:\Users\164\AppData\Local\Temp\ccd4XrSZ.s 			page 16


 399:vm.c          ****   Execute OP_GETIV
 400:vm.c          **** 
 401:vm.c          ****   R(A) := ivget(Syms(Bx))
 402:vm.c          **** 
 403:vm.c          ****   @param  vm    A pointer of VM.
 404:vm.c          ****   @param  code  bytecode
 405:vm.c          ****   @param  regs  vm->regs + vm->reg_top
 406:vm.c          ****   @retval 0  No error.
 407:vm.c          **** */
 408:vm.c          **** static inline int op_getiv( mrbc_vm *vm, uint32_t code, mrbc_value *regs )
 409:vm.c          **** {
 410:vm.c          ****   int ra = GETARG_A(code);
 411:vm.c          ****   int rb = GETARG_Bx(code);
 412:vm.c          **** 
 413:vm.c          ****   const char *sym_name = mrbc_get_irep_symbol(vm->pc_irep->ptr_to_sym, rb);
 414:vm.c          ****   mrbc_sym sym_id = str_to_symid(sym_name+1);	// skip '@'
 415:vm.c          **** 
 416:vm.c          ****   mrbc_value val = mrbc_instance_getiv(&regs[0], sym_id);
 417:vm.c          **** 
 418:vm.c          ****   mrbc_release(&regs[ra]);
 419:vm.c          ****   regs[ra] = val;
 420:vm.c          **** 
 421:vm.c          ****   return 0;
 422:vm.c          **** }
 423:vm.c          **** 
 424:vm.c          **** 
 425:vm.c          **** //================================================================
 426:vm.c          **** /*!@brief
 427:vm.c          ****   Execute OP_SETIV
 428:vm.c          **** 
 429:vm.c          ****   ivset(Syms(Bx),R(A))
 430:vm.c          **** 
 431:vm.c          ****   @param  vm    A pointer of VM.
 432:vm.c          ****   @param  code  bytecode
 433:vm.c          ****   @param  regs  vm->regs + vm->reg_top
 434:vm.c          ****   @retval 0  No error.
 435:vm.c          **** */
 436:vm.c          **** static inline int op_setiv( mrbc_vm *vm, uint32_t code, mrbc_value *regs )
 437:vm.c          **** {
 438:vm.c          ****   int ra = GETARG_A(code);
 439:vm.c          ****   int rb = GETARG_Bx(code);
 440:vm.c          **** 
 441:vm.c          ****   const char *sym_name = mrbc_get_irep_symbol(vm->pc_irep->ptr_to_sym, rb);
 442:vm.c          ****   mrbc_sym sym_id = str_to_symid(sym_name+1);	// skip '@'
 443:vm.c          **** 
 444:vm.c          ****   mrbc_instance_setiv(&regs[0], sym_id, &regs[ra]);
 445:vm.c          **** 
 446:vm.c          ****   return 0;
 447:vm.c          **** }
 448:vm.c          **** 
 449:vm.c          **** 
 450:vm.c          **** //================================================================
 451:vm.c          **** /*!@brief
 452:vm.c          ****   Execute OP_GETCONST
 453:vm.c          **** 
 454:vm.c          ****   R(A) := constget(Syms(Bx))
 455:vm.c          **** 
ARM GAS  C:\Users\164\AppData\Local\Temp\ccd4XrSZ.s 			page 17


 456:vm.c          ****   @param  vm    A pointer of VM.
 457:vm.c          ****   @param  code  bytecode
 458:vm.c          ****   @param  regs  vm->regs + vm->reg_top
 459:vm.c          ****   @retval 0  No error.
 460:vm.c          **** */
 461:vm.c          **** static inline int op_getconst( mrbc_vm *vm, uint32_t code, mrbc_value *regs )
 462:vm.c          **** {
 463:vm.c          ****   int ra = GETARG_A(code);
 464:vm.c          ****   int rb = GETARG_Bx(code);
 465:vm.c          ****   const char *sym_name = mrbc_get_irep_symbol(vm->pc_irep->ptr_to_sym, rb);
 466:vm.c          ****   mrbc_sym sym_id = str_to_symid(sym_name);
 467:vm.c          **** 
 468:vm.c          ****   mrbc_release(&regs[ra]);
 469:vm.c          ****   regs[ra] = const_object_get(sym_id);
 470:vm.c          **** 
 471:vm.c          ****   return 0;
 472:vm.c          **** }
 473:vm.c          **** 
 474:vm.c          **** 
 475:vm.c          **** //================================================================
 476:vm.c          **** /*!@brief
 477:vm.c          ****   Execute OP_SETCONST
 478:vm.c          **** 
 479:vm.c          ****   constset(Syms(Bx),R(A))
 480:vm.c          **** 
 481:vm.c          ****   @param  vm    A pointer of VM.
 482:vm.c          ****   @param  code  bytecode
 483:vm.c          ****   @param  regs  vm->regs + vm->reg_top
 484:vm.c          ****   @retval 0  No error.
 485:vm.c          **** */
 486:vm.c          **** 
 487:vm.c          **** static inline int op_setconst( mrbc_vm *vm, uint32_t code, mrbc_value *regs ) {
 488:vm.c          ****   int ra = GETARG_A(code);
 489:vm.c          ****   int rb = GETARG_Bx(code);
 490:vm.c          ****   const char *sym_name = mrbc_get_irep_symbol(vm->pc_irep->ptr_to_sym, rb);
 491:vm.c          ****   mrbc_sym sym_id = str_to_symid(sym_name);
 492:vm.c          ****   const_object_add(sym_id, &regs[ra]);
 493:vm.c          **** 
 494:vm.c          ****   return 0;
 495:vm.c          **** }
 496:vm.c          **** 
 497:vm.c          **** 
 498:vm.c          **** 
 499:vm.c          **** //================================================================
 500:vm.c          **** /*!@brief
 501:vm.c          ****   Execute OP_GETUPVAR
 502:vm.c          **** 
 503:vm.c          ****   R(A) := uvget(B,C)
 504:vm.c          **** 
 505:vm.c          ****   @param  vm    A pointer of VM.
 506:vm.c          ****   @param  code  bytecode
 507:vm.c          ****   @param  regs  vm->regs + vm->reg_top
 508:vm.c          ****   @retval 0  No error.
 509:vm.c          **** */
 510:vm.c          **** static inline int op_getupvar( mrbc_vm *vm, uint32_t code, mrbc_value *regs )
 511:vm.c          **** {
 512:vm.c          ****   int ra = GETARG_A(code);
ARM GAS  C:\Users\164\AppData\Local\Temp\ccd4XrSZ.s 			page 18


 513:vm.c          ****   int rb = GETARG_B(code);
 514:vm.c          ****   int rc = GETARG_C(code);   // UP
 515:vm.c          ****   mrbc_callinfo *callinfo = vm->callinfo_tail;
 516:vm.c          **** 
 517:vm.c          ****   // find callinfo
 518:vm.c          ****   int n = rc * 2 + 1;
 519:vm.c          ****   while( n > 0 ){
 520:vm.c          ****     callinfo = callinfo->prev;
 521:vm.c          ****     n--;
 522:vm.c          ****   }
 523:vm.c          **** 
 524:vm.c          ****   mrbc_value *up_regs = callinfo->current_regs;
 525:vm.c          **** 
 526:vm.c          ****   mrbc_release( &regs[ra] );
 527:vm.c          ****   mrbc_dup( &up_regs[rb] );
 528:vm.c          ****   regs[ra] = up_regs[rb];
 529:vm.c          **** 
 530:vm.c          ****   return 0;
 531:vm.c          **** }
 532:vm.c          **** 
 533:vm.c          **** 
 534:vm.c          **** 
 535:vm.c          **** //================================================================
 536:vm.c          **** /*!@brief
 537:vm.c          ****   Execute OP_SETUPVAR
 538:vm.c          **** 
 539:vm.c          ****   uvset(B,C,R(A))
 540:vm.c          **** 
 541:vm.c          ****   @param  vm    A pointer of VM.
 542:vm.c          ****   @param  code  bytecode
 543:vm.c          ****   @param  regs  vm->regs + vm->reg_top
 544:vm.c          ****   @retval 0  No error.
 545:vm.c          **** */
 546:vm.c          **** static inline int op_setupvar( mrbc_vm *vm, uint32_t code, mrbc_value *regs )
 547:vm.c          **** {
 548:vm.c          ****   int ra = GETARG_A(code);
 549:vm.c          ****   int rb = GETARG_B(code);
 550:vm.c          ****   int rc = GETARG_C(code);   // UP
 551:vm.c          ****   mrbc_callinfo *callinfo = vm->callinfo_tail;
 552:vm.c          **** 
 553:vm.c          ****   // find callinfo
 554:vm.c          ****   int n = rc * 2 + 1;
 555:vm.c          ****   while( n > 0 ){
 556:vm.c          ****     callinfo = callinfo->prev;
 557:vm.c          ****     n--;
 558:vm.c          ****   }
 559:vm.c          **** 
 560:vm.c          ****   mrbc_value *up_regs = callinfo->current_regs;
 561:vm.c          **** 
 562:vm.c          ****   mrbc_release( &up_regs[rb] );
 563:vm.c          ****   mrbc_dup( &regs[ra] );
 564:vm.c          ****   up_regs[rb] = regs[ra];
 565:vm.c          **** 
 566:vm.c          ****   return 0;
 567:vm.c          **** }
 568:vm.c          **** 
 569:vm.c          **** 
ARM GAS  C:\Users\164\AppData\Local\Temp\ccd4XrSZ.s 			page 19


 570:vm.c          **** 
 571:vm.c          **** //================================================================
 572:vm.c          **** /*!@brief
 573:vm.c          ****   Execute OP_JMP
 574:vm.c          **** 
 575:vm.c          ****   pc += sBx
 576:vm.c          **** 
 577:vm.c          ****   @param  vm    A pointer of VM.
 578:vm.c          ****   @param  code  bytecode
 579:vm.c          ****   @param  regs  vm->regs + vm->reg_top
 580:vm.c          ****   @retval 0  No error.
 581:vm.c          **** */
 582:vm.c          **** static inline int op_jmp( mrbc_vm *vm, uint32_t code, mrbc_value *regs )
 583:vm.c          **** {
 584:vm.c          ****   vm->pc += GETARG_sBx(code) - 1;
 585:vm.c          ****   return 0;
 586:vm.c          **** }
 587:vm.c          **** 
 588:vm.c          **** 
 589:vm.c          **** //================================================================
 590:vm.c          **** /*!@brief
 591:vm.c          ****   Execute OP_JMPIF
 592:vm.c          **** 
 593:vm.c          ****   if R(A) pc += sBx
 594:vm.c          **** 
 595:vm.c          ****   @param  vm    A pointer of VM.
 596:vm.c          ****   @param  code  bytecode
 597:vm.c          ****   @param  regs  vm->regs + vm->reg_top
 598:vm.c          ****   @retval 0  No error.
 599:vm.c          **** */
 600:vm.c          **** static inline int op_jmpif( mrbc_vm *vm, uint32_t code, mrbc_value *regs )
 601:vm.c          **** {
 602:vm.c          ****   if( regs[GETARG_A(code)].tt > MRBC_TT_FALSE ) {
 603:vm.c          ****     vm->pc += GETARG_sBx(code) - 1;
 604:vm.c          ****   }
 605:vm.c          ****   return 0;
 606:vm.c          **** }
 607:vm.c          **** 
 608:vm.c          **** 
 609:vm.c          **** //================================================================
 610:vm.c          **** /*!@brief
 611:vm.c          ****   Execute OP_JMPNOT
 612:vm.c          **** 
 613:vm.c          ****   if not R(A) pc += sBx
 614:vm.c          **** 
 615:vm.c          ****   @param  vm    A pointer of VM.
 616:vm.c          ****   @param  code  bytecode
 617:vm.c          ****   @param  regs  vm->regs + vm->reg_top
 618:vm.c          ****   @retval 0  No error.
 619:vm.c          **** */
 620:vm.c          **** static inline int op_jmpnot( mrbc_vm *vm, uint32_t code, mrbc_value *regs )
 621:vm.c          **** {
 622:vm.c          ****   if( regs[GETARG_A(code)].tt <= MRBC_TT_FALSE ) {
 623:vm.c          ****     vm->pc += GETARG_sBx(code) - 1;
 624:vm.c          ****   }
 625:vm.c          ****   return 0;
 626:vm.c          **** }
ARM GAS  C:\Users\164\AppData\Local\Temp\ccd4XrSZ.s 			page 20


 627:vm.c          **** 
 628:vm.c          **** 
 629:vm.c          **** //================================================================
 630:vm.c          **** /*!@brief
 631:vm.c          ****   Execute OP_SEND / OP_SENDB
 632:vm.c          **** 
 633:vm.c          ****   OP_SEND   R(A) := call(R(A),Syms(B),R(A+1),...,R(A+C))
 634:vm.c          ****   OP_SENDB  R(A) := call(R(A),Syms(B),R(A+1),...,R(A+C),&R(A+C+1))
 635:vm.c          **** 
 636:vm.c          ****   @param  vm    A pointer of VM.
 637:vm.c          ****   @param  code  bytecode
 638:vm.c          ****   @param  regs  vm->regs + vm->reg_top
 639:vm.c          ****   @retval 0  No error.
 640:vm.c          **** */
 641:vm.c          **** static inline int op_send( mrbc_vm *vm, uint32_t code, mrbc_value *regs )
 642:vm.c          **** {
 643:vm.c          ****   int ra = GETARG_A(code);
 644:vm.c          ****   int rb = GETARG_B(code);  // index of method sym
 645:vm.c          ****   int rc = GETARG_C(code);  // number of params
 646:vm.c          ****   mrbc_value recv = regs[ra];
 647:vm.c          **** 
 648:vm.c          ****   // Block param
 649:vm.c          ****   int bidx = ra + rc + 1;
 650:vm.c          ****   switch( GET_OPCODE(code) ) {
 651:vm.c          ****   case OP_SEND:
 652:vm.c          ****     // set nil
 653:vm.c          ****     mrbc_release( &regs[bidx] );
 654:vm.c          ****     regs[bidx].tt = MRBC_TT_NIL;
 655:vm.c          ****     break;
 656:vm.c          **** 
 657:vm.c          ****   case OP_SENDB:
 658:vm.c          ****     // set Proc object
 659:vm.c          ****     if( regs[bidx].tt != MRBC_TT_NIL && regs[bidx].tt != MRBC_TT_PROC ){
 660:vm.c          ****       // TODO: fix the following behavior
 661:vm.c          ****       // convert to Proc ?
 662:vm.c          ****       // raise exceprion in mruby/c ?
 663:vm.c          ****       return 0;
 664:vm.c          ****     }
 665:vm.c          ****     break;
 666:vm.c          **** 
 667:vm.c          ****   default:
 668:vm.c          ****     break;
 669:vm.c          ****   }
 670:vm.c          **** 
 671:vm.c          ****   const char *sym_name = mrbc_get_irep_symbol(vm->pc_irep->ptr_to_sym, rb);
 672:vm.c          ****   mrbc_sym sym_id = str_to_symid(sym_name);
 673:vm.c          ****   mrbc_proc *m = find_method(vm, &recv, sym_id);
 674:vm.c          **** 
 675:vm.c          ****   if( m == 0 ) {
 676:vm.c          ****     mrb_class *cls = find_class_by_object( vm, &recv );
 677:vm.c          ****     console_printf("No method. Class:%s Method:%s\n",
 678:vm.c          **** 		   symid_to_str(cls->sym_id), sym_name );
 679:vm.c          ****     return 0;
 680:vm.c          ****   }
 681:vm.c          **** 
 682:vm.c          ****   // m is C func
 683:vm.c          ****   if( m->c_func ) {
ARM GAS  C:\Users\164\AppData\Local\Temp\ccd4XrSZ.s 			page 21


 684:vm.c          ****     m->func(vm, regs + ra, rc);
 685:vm.c          **** 
 686:vm.c          ****     extern void c_proc_call(mrbc_vm *vm, mrbc_value v[], int argc);
 687:vm.c          ****     if( m->func == c_proc_call ) return 0;
 688:vm.c          **** 
 689:vm.c          ****     int release_reg = ra+1;
 690:vm.c          ****     while( release_reg <= bidx ) {
 691:vm.c          ****       mrbc_release(&regs[release_reg]);
 692:vm.c          ****       release_reg++;
 693:vm.c          ****     }
 694:vm.c          ****     return 0;
 695:vm.c          ****   }
 696:vm.c          **** 
 697:vm.c          ****   // m is Ruby method.
 698:vm.c          ****   // callinfo
 699:vm.c          ****   mrbc_push_callinfo(vm, rc);
 700:vm.c          **** 
 701:vm.c          ****   // target irep
 702:vm.c          ****   vm->pc = 0;
 703:vm.c          ****   vm->pc_irep = m->irep;
 704:vm.c          **** 
 705:vm.c          ****   // new regs
 706:vm.c          ****   vm->current_regs += ra;
 707:vm.c          **** 
 708:vm.c          ****   return 0;
 709:vm.c          **** }
 710:vm.c          **** 
 711:vm.c          **** 
 712:vm.c          **** //================================================================
 713:vm.c          **** /*!@brief
 714:vm.c          ****   Execute OP_CALL
 715:vm.c          **** 
 716:vm.c          ****   R(A) := self.call(frame.argc, frame.argv)
 717:vm.c          **** 
 718:vm.c          ****   @param  vm    A pointer of VM.
 719:vm.c          ****   @param  code  bytecode
 720:vm.c          ****   @param  regs  vm->regs + vm->reg_top
 721:vm.c          ****   @retval 0  No error.
 722:vm.c          **** */
 723:vm.c          **** static inline int op_call( mrbc_vm *vm, uint32_t code, mrbc_value *regs )
 724:vm.c          **** {
 725:vm.c          ****   mrbc_push_callinfo(vm, 0);
 726:vm.c          **** 
 727:vm.c          ****   // jump to proc
 728:vm.c          ****   vm->pc = 0;
 729:vm.c          ****   vm->pc_irep = regs[0].proc->irep;
 730:vm.c          **** 
 731:vm.c          ****   return 0;
 732:vm.c          **** }
 733:vm.c          **** 
 734:vm.c          **** 
 735:vm.c          **** 
 736:vm.c          **** //================================================================
 737:vm.c          **** /*!@brief
 738:vm.c          ****   Execute OP_ENTER
 739:vm.c          **** 
 740:vm.c          ****   arg setup according to flags (23=5:5:1:5:5:1:1)
ARM GAS  C:\Users\164\AppData\Local\Temp\ccd4XrSZ.s 			page 22


 741:vm.c          **** 
 742:vm.c          ****   @param  vm    A pointer of VM.
 743:vm.c          ****   @param  code  bytecode
 744:vm.c          ****   @param  regs  vm->regs + vm->reg_top
 745:vm.c          ****   @retval 0  No error.
 746:vm.c          **** */
 747:vm.c          **** static inline int op_enter( mrbc_vm *vm, uint32_t code, mrbc_value *regs )
 748:vm.c          **** {
 749:vm.c          ****   mrbc_callinfo *callinfo = vm->callinfo_tail;
 750:vm.c          ****   uint32_t enter_param = GETARG_Ax(code);
 751:vm.c          ****   int def_args = (enter_param >> 13) & 0x1f;  // default args
 752:vm.c          ****   int args = (enter_param >> 18) & 0x1f;      // given args
 753:vm.c          ****   if( def_args > 0 ){
 754:vm.c          ****     vm->pc += callinfo->n_args - args;
 755:vm.c          ****   }
 756:vm.c          ****   return 0;
 757:vm.c          **** }
 758:vm.c          **** 
 759:vm.c          **** 
 760:vm.c          **** //================================================================
 761:vm.c          **** /*!@brief
 762:vm.c          ****   Execute OP_RETURN
 763:vm.c          **** 
 764:vm.c          ****   return R(A) (B=normal,in-block return/break)
 765:vm.c          **** 
 766:vm.c          ****   @param  vm    A pointer of VM.
 767:vm.c          ****   @param  code  bytecode
 768:vm.c          ****   @param  regs  vm->regs + vm->reg_top
 769:vm.c          ****   @retval 0  No error.
 770:vm.c          **** */
 771:vm.c          **** static inline int op_return( mrbc_vm *vm, uint32_t code, mrbc_value *regs )
 772:vm.c          **** {
 773:vm.c          ****   // return value
 774:vm.c          ****   int ra = GETARG_A(code);
 775:vm.c          **** 
 776:vm.c          ****   mrbc_release(&regs[0]);
 777:vm.c          ****   regs[0] = regs[ra];
 778:vm.c          ****   regs[ra].tt = MRBC_TT_EMPTY;
 779:vm.c          **** 
 780:vm.c          ****   // nregs to release
 781:vm.c          ****   int nregs = vm->pc_irep->nregs;
 782:vm.c          **** 
 783:vm.c          ****   // restore irep,pc,regs
 784:vm.c          ****   mrbc_callinfo *callinfo = vm->callinfo_tail;
 785:vm.c          ****   vm->callinfo_tail = callinfo->prev;
 786:vm.c          ****   vm->current_regs = callinfo->current_regs;
 787:vm.c          ****   vm->pc_irep = callinfo->pc_irep;
 788:vm.c          ****   vm->pc = callinfo->pc;
 789:vm.c          ****   vm->target_class = callinfo->target_class;
 790:vm.c          **** 
 791:vm.c          ****   // clear stacked arguments
 792:vm.c          ****   int i;
 793:vm.c          ****   for( i = 1; i < nregs; i++ ) {
 794:vm.c          ****     mrbc_release( &regs[i] );
 795:vm.c          ****   }
 796:vm.c          **** 
 797:vm.c          ****   // release callinfo
ARM GAS  C:\Users\164\AppData\Local\Temp\ccd4XrSZ.s 			page 23


 798:vm.c          ****   mrbc_free(vm, callinfo);
 799:vm.c          **** 
 800:vm.c          ****   return 0;
 801:vm.c          **** }
 802:vm.c          **** 
 803:vm.c          **** 
 804:vm.c          **** //================================================================
 805:vm.c          **** /*!@brief
 806:vm.c          ****   Execute OP_BLKPUSH
 807:vm.c          **** 
 808:vm.c          ****   R(A) := block (16=6:1:5:4)
 809:vm.c          **** 
 810:vm.c          ****   @param  vm    A pointer of VM.
 811:vm.c          ****   @param  code  bytecode
 812:vm.c          ****   @param  regs  vm->regs + vm->reg_top
 813:vm.c          ****   @retval 0  No error.
 814:vm.c          **** */
 815:vm.c          **** static inline int op_blkpush( mrbc_vm *vm, uint32_t code, mrbc_value *regs )
 816:vm.c          **** {
 817:vm.c          ****   int ra = GETARG_A(code);
 818:vm.c          **** 
 819:vm.c          ****   mrbc_value *stack = regs + 1;
 820:vm.c          **** 
 821:vm.c          ****   if( stack[0].tt == MRBC_TT_NIL ){
 822:vm.c          ****     return -1;  // EYIELD
 823:vm.c          ****   }
 824:vm.c          **** 
 825:vm.c          ****   mrbc_release(&regs[ra]);
 826:vm.c          ****   mrbc_dup( stack );
 827:vm.c          ****   regs[ra] = stack[0];
 828:vm.c          **** 
 829:vm.c          ****   return 0;
 830:vm.c          **** }
 831:vm.c          **** 
 832:vm.c          **** 
 833:vm.c          **** 
 834:vm.c          **** //================================================================
 835:vm.c          **** /*!@brief
 836:vm.c          ****   Execute OP_ADD
 837:vm.c          **** 
 838:vm.c          ****   R(A) := R(A)+R(A+1) (Syms[B]=:+,C=1)
 839:vm.c          **** 
 840:vm.c          ****   @param  vm    A pointer of VM.
 841:vm.c          ****   @param  code  bytecode
 842:vm.c          ****   @param  regs  vm->regs + vm->reg_top
 843:vm.c          ****   @retval 0  No error.
 844:vm.c          **** */
 845:vm.c          **** static inline int op_add( mrbc_vm *vm, uint32_t code, mrbc_value *regs )
 846:vm.c          **** {
 847:vm.c          ****   int ra = GETARG_A(code);
 848:vm.c          **** 
 849:vm.c          ****   if( regs[ra].tt == MRBC_TT_FIXNUM ) {
 850:vm.c          ****     if( regs[ra+1].tt == MRBC_TT_FIXNUM ) {	// in case of Fixnum, Fixnum
 851:vm.c          ****       regs[ra].i += regs[ra+1].i;
 852:vm.c          ****       return 0;
 853:vm.c          ****     }
 854:vm.c          **** #if MRBC_USE_FLOAT
ARM GAS  C:\Users\164\AppData\Local\Temp\ccd4XrSZ.s 			page 24


 855:vm.c          ****     if( regs[ra+1].tt == MRBC_TT_FLOAT ) {	// in case of Fixnum, Float
 856:vm.c          ****       regs[ra].tt = MRBC_TT_FLOAT;
 857:vm.c          ****       regs[ra].d = regs[ra].i + regs[ra+1].d;
 858:vm.c          ****       return 0;
 859:vm.c          ****     }
 860:vm.c          ****   }
 861:vm.c          ****   if( regs[ra].tt == MRBC_TT_FLOAT ) {
 862:vm.c          ****     if( regs[ra+1].tt == MRBC_TT_FIXNUM ) {	// in case of Float, Fixnum
 863:vm.c          ****       regs[ra].d += regs[ra+1].i;
 864:vm.c          ****       return 0;
 865:vm.c          ****     }
 866:vm.c          ****     if( regs[ra+1].tt == MRBC_TT_FLOAT ) {	// in case of Float, Float
 867:vm.c          ****       regs[ra].d += regs[ra+1].d;
 868:vm.c          ****       return 0;
 869:vm.c          ****     }
 870:vm.c          **** #endif
 871:vm.c          ****   }
 872:vm.c          **** 
 873:vm.c          ****   // other case
 874:vm.c          ****   op_send(vm, code, regs);
 875:vm.c          ****   return 0;
 876:vm.c          **** }
 877:vm.c          **** 
 878:vm.c          **** 
 879:vm.c          **** //================================================================
 880:vm.c          **** /*!@brief
 881:vm.c          ****   Execute OP_ADDI
 882:vm.c          **** 
 883:vm.c          ****   R(A) := R(A)+C (Syms[B]=:+)
 884:vm.c          **** 
 885:vm.c          ****   @param  vm    A pointer of VM.
 886:vm.c          ****   @param  code  bytecode
 887:vm.c          ****   @param  regs  vm->regs + vm->reg_top
 888:vm.c          ****   @retval 0  No error.
 889:vm.c          **** */
 890:vm.c          **** static inline int op_addi( mrbc_vm *vm, uint32_t code, mrbc_value *regs )
 891:vm.c          **** {
 892:vm.c          ****   int ra = GETARG_A(code);
 893:vm.c          **** 
 894:vm.c          ****   if( regs[ra].tt == MRBC_TT_FIXNUM ) {
 895:vm.c          ****     regs[ra].i += GETARG_C(code);
 896:vm.c          ****     return 0;
 897:vm.c          ****   }
 898:vm.c          **** 
 899:vm.c          **** #if MRBC_USE_FLOAT
 900:vm.c          ****   if( regs[ra].tt == MRBC_TT_FLOAT ) {
 901:vm.c          ****     regs[ra].d += GETARG_C(code);
 902:vm.c          ****     return 0;
 903:vm.c          ****   }
 904:vm.c          **** #endif
 905:vm.c          **** 
 906:vm.c          ****   not_supported();
 907:vm.c          ****   return 0;
 908:vm.c          **** }
 909:vm.c          **** 
 910:vm.c          **** 
 911:vm.c          **** //================================================================
ARM GAS  C:\Users\164\AppData\Local\Temp\ccd4XrSZ.s 			page 25


 912:vm.c          **** /*!@brief
 913:vm.c          ****   Execute OP_SUB
 914:vm.c          **** 
 915:vm.c          ****   R(A) := R(A)-R(A+1) (Syms[B]=:-,C=1)
 916:vm.c          **** 
 917:vm.c          ****   @param  vm    A pointer of VM.
 918:vm.c          ****   @param  code  bytecode
 919:vm.c          ****   @param  regs  vm->regs + vm->reg_top
 920:vm.c          ****   @retval 0  No error.
 921:vm.c          **** */
 922:vm.c          **** static inline int op_sub( mrbc_vm *vm, uint32_t code, mrbc_value *regs )
 923:vm.c          **** {
 924:vm.c          ****   int ra = GETARG_A(code);
 925:vm.c          **** 
 926:vm.c          ****   if( regs[ra].tt == MRBC_TT_FIXNUM ) {
 927:vm.c          ****     if( regs[ra+1].tt == MRBC_TT_FIXNUM ) {	// in case of Fixnum, Fixnum
 928:vm.c          ****       regs[ra].i -= regs[ra+1].i;
 929:vm.c          ****       return 0;
 930:vm.c          ****     }
 931:vm.c          **** #if MRBC_USE_FLOAT
 932:vm.c          ****     if( regs[ra+1].tt == MRBC_TT_FLOAT ) {	// in case of Fixnum, Float
 933:vm.c          ****       regs[ra].tt = MRBC_TT_FLOAT;
 934:vm.c          ****       regs[ra].d = regs[ra].i - regs[ra+1].d;
 935:vm.c          ****       return 0;
 936:vm.c          ****     }
 937:vm.c          ****   }
 938:vm.c          ****   if( regs[ra].tt == MRBC_TT_FLOAT ) {
 939:vm.c          ****     if( regs[ra+1].tt == MRBC_TT_FIXNUM ) {	// in case of Float, Fixnum
 940:vm.c          ****       regs[ra].d -= regs[ra+1].i;
 941:vm.c          ****       return 0;
 942:vm.c          ****     }
 943:vm.c          ****     if( regs[ra+1].tt == MRBC_TT_FLOAT ) {	// in case of Float, Float
 944:vm.c          ****       regs[ra].d -= regs[ra+1].d;
 945:vm.c          ****       return 0;
 946:vm.c          ****     }
 947:vm.c          **** #endif
 948:vm.c          ****   }
 949:vm.c          **** 
 950:vm.c          ****   // other case
 951:vm.c          ****   op_send(vm, code, regs);
 952:vm.c          ****   mrbc_release(&regs[ra+1]);
 953:vm.c          ****   return 0;
 954:vm.c          **** }
 955:vm.c          **** 
 956:vm.c          **** 
 957:vm.c          **** //================================================================
 958:vm.c          **** /*!@brief
 959:vm.c          ****   Execute OP_SUBI
 960:vm.c          **** 
 961:vm.c          ****   R(A) := R(A)-C (Syms[B]=:-)
 962:vm.c          **** 
 963:vm.c          ****   @param  vm    A pointer of VM.
 964:vm.c          ****   @param  code  bytecode
 965:vm.c          ****   @param  regs  vm->regs + vm->reg_top
 966:vm.c          ****   @retval 0  No error.
 967:vm.c          **** */
 968:vm.c          **** static inline int op_subi( mrbc_vm *vm, uint32_t code, mrbc_value *regs )
ARM GAS  C:\Users\164\AppData\Local\Temp\ccd4XrSZ.s 			page 26


 969:vm.c          **** {
 970:vm.c          ****   int ra = GETARG_A(code);
 971:vm.c          **** 
 972:vm.c          ****   if( regs[ra].tt == MRBC_TT_FIXNUM ) {
 973:vm.c          ****     regs[ra].i -= GETARG_C(code);
 974:vm.c          ****     return 0;
 975:vm.c          ****   }
 976:vm.c          **** 
 977:vm.c          **** #if MRBC_USE_FLOAT
 978:vm.c          ****   if( regs[ra].tt == MRBC_TT_FLOAT ) {
 979:vm.c          ****     regs[ra].d -= GETARG_C(code);
 980:vm.c          ****     return 0;
 981:vm.c          ****   }
 982:vm.c          **** #endif
 983:vm.c          **** 
 984:vm.c          ****   not_supported();
 985:vm.c          ****   return 0;
 986:vm.c          **** }
 987:vm.c          **** 
 988:vm.c          **** 
 989:vm.c          **** //================================================================
 990:vm.c          **** /*!@brief
 991:vm.c          ****   Execute OP_MUL
 992:vm.c          **** 
 993:vm.c          ****   R(A) := R(A)*R(A+1) (Syms[B]=:*)
 994:vm.c          **** 
 995:vm.c          ****   @param  vm    A pointer of VM.
 996:vm.c          ****   @param  code  bytecode
 997:vm.c          ****   @param  regs  vm->regs + vm->reg_top
 998:vm.c          ****   @retval 0  No error.
 999:vm.c          **** */
1000:vm.c          **** static inline int op_mul( mrbc_vm *vm, uint32_t code, mrbc_value *regs )
1001:vm.c          **** {
1002:vm.c          ****   int ra = GETARG_A(code);
1003:vm.c          **** 
1004:vm.c          ****   if( regs[ra].tt == MRBC_TT_FIXNUM ) {
1005:vm.c          ****     if( regs[ra+1].tt == MRBC_TT_FIXNUM ) {	// in case of Fixnum, Fixnum
1006:vm.c          ****       regs[ra].i *= regs[ra+1].i;
1007:vm.c          ****       return 0;
1008:vm.c          ****     }
1009:vm.c          **** #if MRBC_USE_FLOAT
1010:vm.c          ****     if( regs[ra+1].tt == MRBC_TT_FLOAT ) {	// in case of Fixnum, Float
1011:vm.c          ****       regs[ra].tt = MRBC_TT_FLOAT;
1012:vm.c          ****       regs[ra].d = regs[ra].i * regs[ra+1].d;
1013:vm.c          ****       return 0;
1014:vm.c          ****     }
1015:vm.c          ****   }
1016:vm.c          ****   if( regs[ra].tt == MRBC_TT_FLOAT ) {
1017:vm.c          ****     if( regs[ra+1].tt == MRBC_TT_FIXNUM ) {	// in case of Float, Fixnum
1018:vm.c          ****       regs[ra].d *= regs[ra+1].i;
1019:vm.c          ****       return 0;
1020:vm.c          ****     }
1021:vm.c          ****     if( regs[ra+1].tt == MRBC_TT_FLOAT ) {	// in case of Float, Float
1022:vm.c          ****       regs[ra].d *= regs[ra+1].d;
1023:vm.c          ****       return 0;
1024:vm.c          ****     }
1025:vm.c          **** #endif
ARM GAS  C:\Users\164\AppData\Local\Temp\ccd4XrSZ.s 			page 27


1026:vm.c          ****   }
1027:vm.c          **** 
1028:vm.c          ****   // other case
1029:vm.c          ****   op_send(vm, code, regs);
1030:vm.c          ****   mrbc_release(&regs[ra+1]);
1031:vm.c          ****   return 0;
1032:vm.c          **** }
1033:vm.c          **** 
1034:vm.c          **** 
1035:vm.c          **** //================================================================
1036:vm.c          **** /*!@brief
1037:vm.c          ****   Execute OP_DIV
1038:vm.c          **** 
1039:vm.c          ****   R(A) := R(A)/R(A+1) (Syms[B]=:/)
1040:vm.c          **** 
1041:vm.c          ****   @param  vm    A pointer of VM.
1042:vm.c          ****   @param  code  bytecode
1043:vm.c          ****   @param  regs  vm->regs + vm->reg_top
1044:vm.c          ****   @retval 0  No error.
1045:vm.c          **** */
1046:vm.c          **** static inline int op_div( mrbc_vm *vm, uint32_t code, mrbc_value *regs )
1047:vm.c          **** {
1048:vm.c          ****   int ra = GETARG_A(code);
1049:vm.c          **** 
1050:vm.c          ****   if( regs[ra].tt == MRBC_TT_FIXNUM ) {
1051:vm.c          ****     if( regs[ra+1].tt == MRBC_TT_FIXNUM ) {	// in case of Fixnum, Fixnum
1052:vm.c          ****       regs[ra].i /= regs[ra+1].i;
1053:vm.c          ****       return 0;
1054:vm.c          ****     }
1055:vm.c          **** #if MRBC_USE_FLOAT
1056:vm.c          ****     if( regs[ra+1].tt == MRBC_TT_FLOAT ) {	// in case of Fixnum, Float
1057:vm.c          ****       regs[ra].tt = MRBC_TT_FLOAT;
1058:vm.c          ****       regs[ra].d = regs[ra].i / regs[ra+1].d;
1059:vm.c          ****       return 0;
1060:vm.c          ****     }
1061:vm.c          ****   }
1062:vm.c          ****   if( regs[ra].tt == MRBC_TT_FLOAT ) {
1063:vm.c          ****     if( regs[ra+1].tt == MRBC_TT_FIXNUM ) {	// in case of Float, Fixnum
1064:vm.c          ****       regs[ra].d /= regs[ra+1].i;
1065:vm.c          ****       return 0;
1066:vm.c          ****     }
1067:vm.c          ****     if( regs[ra+1].tt == MRBC_TT_FLOAT ) {	// in case of Float, Float
1068:vm.c          ****       regs[ra].d /= regs[ra+1].d;
1069:vm.c          ****       return 0;
1070:vm.c          ****     }
1071:vm.c          **** #endif
1072:vm.c          ****   }
1073:vm.c          **** 
1074:vm.c          ****   // other case
1075:vm.c          ****   op_send(vm, code, regs);
1076:vm.c          ****   mrbc_release(&regs[ra+1]);
1077:vm.c          ****   return 0;
1078:vm.c          **** }
1079:vm.c          **** 
1080:vm.c          **** 
1081:vm.c          **** //================================================================
1082:vm.c          **** /*!@brief
ARM GAS  C:\Users\164\AppData\Local\Temp\ccd4XrSZ.s 			page 28


1083:vm.c          ****   Execute OP_EQ
1084:vm.c          **** 
1085:vm.c          ****   R(A) := R(A)==R(A+1)  (Syms[B]=:==,C=1)
1086:vm.c          **** 
1087:vm.c          ****   @param  vm    A pointer of VM.
1088:vm.c          ****   @param  code  bytecode
1089:vm.c          ****   @param  regs  vm->regs + vm->reg_top
1090:vm.c          ****   @retval 0  No error.
1091:vm.c          **** */
1092:vm.c          **** static inline int op_eq( mrbc_vm *vm, uint32_t code, mrbc_value *regs )
1093:vm.c          **** {
1094:vm.c          ****   int ra = GETARG_A(code);
1095:vm.c          ****   int result = mrbc_compare(&regs[ra], &regs[ra+1]);
1096:vm.c          **** 
1097:vm.c          ****   mrbc_release(&regs[ra+1]);
1098:vm.c          ****   mrbc_release(&regs[ra]);
1099:vm.c          ****   regs[ra].tt = result ? MRBC_TT_FALSE : MRBC_TT_TRUE;
1100:vm.c          **** 
1101:vm.c          ****   return 0;
1102:vm.c          **** }
1103:vm.c          **** 
1104:vm.c          **** 
1105:vm.c          **** //================================================================
1106:vm.c          **** /*!@brief
1107:vm.c          ****   Execute OP_LT
1108:vm.c          **** 
1109:vm.c          ****   R(A) := R(A)<R(A+1)  (Syms[B]=:<,C=1)
1110:vm.c          **** 
1111:vm.c          ****   @param  vm    A pointer of VM.
1112:vm.c          ****   @param  code  bytecode
1113:vm.c          ****   @param  regs  vm->regs + vm->reg_top
1114:vm.c          ****   @retval 0  No error.
1115:vm.c          **** */
1116:vm.c          **** static inline int op_lt( mrbc_vm *vm, uint32_t code, mrbc_value *regs )
1117:vm.c          **** {
1118:vm.c          ****   int ra = GETARG_A(code);
1119:vm.c          ****   int result;
1120:vm.c          **** 
1121:vm.c          ****   if( regs[ra].tt == MRBC_TT_FIXNUM ) {
1122:vm.c          ****     if( regs[ra+1].tt == MRBC_TT_FIXNUM ) {
1123:vm.c          ****       result = regs[ra].i < regs[ra+1].i;	// in case of Fixnum, Fixnum
1124:vm.c          ****       goto DONE;
1125:vm.c          ****     }
1126:vm.c          **** #if MRBC_USE_FLOAT
1127:vm.c          ****     if( regs[ra+1].tt == MRBC_TT_FLOAT ) {
1128:vm.c          ****       result = regs[ra].i < regs[ra+1].d;	// in case of Fixnum, Float
1129:vm.c          ****       goto DONE;
1130:vm.c          ****     }
1131:vm.c          ****   }
1132:vm.c          ****   if( regs[ra].tt == MRBC_TT_FLOAT ) {
1133:vm.c          ****     if( regs[ra+1].tt == MRBC_TT_FIXNUM ) {
1134:vm.c          ****       result = regs[ra].d < regs[ra+1].i;	// in case of Float, Fixnum
1135:vm.c          ****       goto DONE;
1136:vm.c          ****     }
1137:vm.c          ****     if( regs[ra+1].tt == MRBC_TT_FLOAT ) {
1138:vm.c          ****       result = regs[ra].d < regs[ra+1].d;	// in case of Float, Float
1139:vm.c          ****       goto DONE;
ARM GAS  C:\Users\164\AppData\Local\Temp\ccd4XrSZ.s 			page 29


1140:vm.c          ****     }
1141:vm.c          **** #endif
1142:vm.c          ****   }
1143:vm.c          **** 
1144:vm.c          ****   // other case
1145:vm.c          ****   op_send(vm, code, regs);
1146:vm.c          ****   mrbc_release(&regs[ra+1]);
1147:vm.c          ****   return 0;
1148:vm.c          **** 
1149:vm.c          **** DONE:
1150:vm.c          ****   regs[ra].tt = result ? MRBC_TT_TRUE : MRBC_TT_FALSE;
1151:vm.c          ****   return 0;
1152:vm.c          **** }
1153:vm.c          **** 
1154:vm.c          **** 
1155:vm.c          **** //================================================================
1156:vm.c          **** /*!@brief
1157:vm.c          ****   Execute OP_LE
1158:vm.c          **** 
1159:vm.c          ****   R(A) := R(A)<=R(A+1)  (Syms[B]=:<=,C=1)
1160:vm.c          **** 
1161:vm.c          ****   @param  vm    A pointer of VM.
1162:vm.c          ****   @param  code  bytecode
1163:vm.c          ****   @param  regs  vm->regs + vm->reg_top
1164:vm.c          ****   @retval 0  No error.
1165:vm.c          **** */
1166:vm.c          **** static inline int op_le( mrbc_vm *vm, uint32_t code, mrbc_value *regs )
1167:vm.c          **** {
1168:vm.c          ****   int ra = GETARG_A(code);
1169:vm.c          ****   int result;
1170:vm.c          **** 
1171:vm.c          ****   if( regs[ra].tt == MRBC_TT_FIXNUM ) {
1172:vm.c          ****     if( regs[ra+1].tt == MRBC_TT_FIXNUM ) {
1173:vm.c          ****       result = regs[ra].i <= regs[ra+1].i;	// in case of Fixnum, Fixnum
1174:vm.c          ****       goto DONE;
1175:vm.c          ****     }
1176:vm.c          **** #if MRBC_USE_FLOAT
1177:vm.c          ****     if( regs[ra+1].tt == MRBC_TT_FLOAT ) {
1178:vm.c          ****       result = regs[ra].i <= regs[ra+1].d;	// in case of Fixnum, Float
1179:vm.c          ****       goto DONE;
1180:vm.c          ****     }
1181:vm.c          ****   }
1182:vm.c          ****   if( regs[ra].tt == MRBC_TT_FLOAT ) {
1183:vm.c          ****     if( regs[ra+1].tt == MRBC_TT_FIXNUM ) {
1184:vm.c          ****       result = regs[ra].d <= regs[ra+1].i;	// in case of Float, Fixnum
1185:vm.c          ****       goto DONE;
1186:vm.c          ****     }
1187:vm.c          ****     if( regs[ra+1].tt == MRBC_TT_FLOAT ) {
1188:vm.c          ****       result = regs[ra].d <= regs[ra+1].d;	// in case of Float, Float
1189:vm.c          ****       goto DONE;
1190:vm.c          ****     }
1191:vm.c          **** #endif
1192:vm.c          ****   }
1193:vm.c          **** 
1194:vm.c          ****   // other case
1195:vm.c          ****   op_send(vm, code, regs);
1196:vm.c          ****   mrbc_release(&regs[ra+1]);
ARM GAS  C:\Users\164\AppData\Local\Temp\ccd4XrSZ.s 			page 30


1197:vm.c          ****   return 0;
1198:vm.c          **** 
1199:vm.c          **** DONE:
1200:vm.c          ****   regs[ra].tt = result ? MRBC_TT_TRUE : MRBC_TT_FALSE;
1201:vm.c          ****   return 0;
1202:vm.c          **** }
1203:vm.c          **** 
1204:vm.c          **** 
1205:vm.c          **** //================================================================
1206:vm.c          **** /*!@brief
1207:vm.c          ****   Execute OP_GT
1208:vm.c          **** 
1209:vm.c          ****   R(A) := R(A)>=R(A+1) (Syms[B]=:>=,C=1)
1210:vm.c          **** 
1211:vm.c          ****   @param  vm    A pointer of VM.
1212:vm.c          ****   @param  code  bytecode
1213:vm.c          ****   @param  regs  vm->regs + vm->reg_top
1214:vm.c          ****   @retval 0  No error.
1215:vm.c          **** */
1216:vm.c          **** static inline int op_gt( mrbc_vm *vm, uint32_t code, mrbc_value *regs )
1217:vm.c          **** {
1218:vm.c          ****   int ra = GETARG_A(code);
1219:vm.c          ****   int result;
1220:vm.c          **** 
1221:vm.c          ****   if( regs[ra].tt == MRBC_TT_FIXNUM ) {
1222:vm.c          ****     if( regs[ra+1].tt == MRBC_TT_FIXNUM ) {
1223:vm.c          ****       result = regs[ra].i > regs[ra+1].i;	// in case of Fixnum, Fixnum
1224:vm.c          ****       goto DONE;
1225:vm.c          ****     }
1226:vm.c          **** #if MRBC_USE_FLOAT
1227:vm.c          ****     if( regs[ra+1].tt == MRBC_TT_FLOAT ) {
1228:vm.c          ****       result = regs[ra].i > regs[ra+1].d;	// in case of Fixnum, Float
1229:vm.c          ****       goto DONE;
1230:vm.c          ****     }
1231:vm.c          ****   }
1232:vm.c          ****   if( regs[ra].tt == MRBC_TT_FLOAT ) {
1233:vm.c          ****     if( regs[ra+1].tt == MRBC_TT_FIXNUM ) {
1234:vm.c          ****       result = regs[ra].d > regs[ra+1].i;	// in case of Float, Fixnum
1235:vm.c          ****       goto DONE;
1236:vm.c          ****     }
1237:vm.c          ****     if( regs[ra+1].tt == MRBC_TT_FLOAT ) {
1238:vm.c          ****       result = regs[ra].d > regs[ra+1].d;	// in case of Float, Float
1239:vm.c          ****       goto DONE;
1240:vm.c          ****     }
1241:vm.c          **** #endif
1242:vm.c          ****   }
1243:vm.c          **** 
1244:vm.c          ****   // other case
1245:vm.c          ****   op_send(vm, code, regs);
1246:vm.c          ****   mrbc_release(&regs[ra+1]);
1247:vm.c          ****   return 0;
1248:vm.c          **** 
1249:vm.c          **** DONE:
1250:vm.c          ****   regs[ra].tt = result ? MRBC_TT_TRUE : MRBC_TT_FALSE;
1251:vm.c          ****   return 0;
1252:vm.c          **** }
1253:vm.c          **** 
ARM GAS  C:\Users\164\AppData\Local\Temp\ccd4XrSZ.s 			page 31


1254:vm.c          **** 
1255:vm.c          **** //================================================================
1256:vm.c          **** /*!@brief
1257:vm.c          ****   Execute OP_GE
1258:vm.c          **** 
1259:vm.c          ****   R(A) := R(A)>=R(A+1) (Syms[B]=:>=,C=1)
1260:vm.c          **** 
1261:vm.c          ****   @param  vm    A pointer of VM.
1262:vm.c          ****   @param  code  bytecode
1263:vm.c          ****   @param  regs  vm->regs + vm->reg_top
1264:vm.c          ****   @retval 0  No error.
1265:vm.c          **** */
1266:vm.c          **** static inline int op_ge( mrbc_vm *vm, uint32_t code, mrbc_value *regs )
1267:vm.c          **** {
1268:vm.c          ****   int ra = GETARG_A(code);
1269:vm.c          ****   int result;
1270:vm.c          **** 
1271:vm.c          ****   if( regs[ra].tt == MRBC_TT_FIXNUM ) {
1272:vm.c          ****     if( regs[ra+1].tt == MRBC_TT_FIXNUM ) {
1273:vm.c          ****       result = regs[ra].i >= regs[ra+1].i;	// in case of Fixnum, Fixnum
1274:vm.c          ****       goto DONE;
1275:vm.c          ****     }
1276:vm.c          **** #if MRBC_USE_FLOAT
1277:vm.c          ****     if( regs[ra+1].tt == MRBC_TT_FLOAT ) {
1278:vm.c          ****       result = regs[ra].i >= regs[ra+1].d;	// in case of Fixnum, Float
1279:vm.c          ****       goto DONE;
1280:vm.c          ****     }
1281:vm.c          ****   }
1282:vm.c          ****   if( regs[ra].tt == MRBC_TT_FLOAT ) {
1283:vm.c          ****     if( regs[ra+1].tt == MRBC_TT_FIXNUM ) {
1284:vm.c          ****       result = regs[ra].d >= regs[ra+1].i;	// in case of Float, Fixnum
1285:vm.c          ****       goto DONE;
1286:vm.c          ****     }
1287:vm.c          ****     if( regs[ra+1].tt == MRBC_TT_FLOAT ) {
1288:vm.c          ****       result = regs[ra].d >= regs[ra+1].d;	// in case of Float, Float
1289:vm.c          ****       goto DONE;
1290:vm.c          ****     }
1291:vm.c          **** #endif
1292:vm.c          ****   }
1293:vm.c          **** 
1294:vm.c          ****   // other case
1295:vm.c          ****   op_send(vm, code, regs);
1296:vm.c          ****   mrbc_release(&regs[ra+1]);
1297:vm.c          ****   return 0;
1298:vm.c          **** 
1299:vm.c          **** DONE:
1300:vm.c          ****   regs[ra].tt = result ? MRBC_TT_TRUE : MRBC_TT_FALSE;
1301:vm.c          ****   return 0;
1302:vm.c          **** }
1303:vm.c          **** 
1304:vm.c          **** 
1305:vm.c          **** //================================================================
1306:vm.c          **** /*!@brief
1307:vm.c          ****   Create Array object
1308:vm.c          **** 
1309:vm.c          ****   R(A) := ary_new(R(B),R(B+1)..R(B+C))
1310:vm.c          **** 
ARM GAS  C:\Users\164\AppData\Local\Temp\ccd4XrSZ.s 			page 32


1311:vm.c          ****   @param  vm    A pointer of VM.
1312:vm.c          ****   @param  code  bytecode
1313:vm.c          ****   @param  regs  vm->regs + vm->reg_top
1314:vm.c          ****   @retval 0  No error.
1315:vm.c          **** */
1316:vm.c          **** static inline int op_array( mrbc_vm *vm, uint32_t code, mrbc_value *regs )
1317:vm.c          **** {
1318:vm.c          ****   int ra = GETARG_A(code);
1319:vm.c          ****   int rb = GETARG_B(code);
1320:vm.c          ****   int rc = GETARG_C(code);
1321:vm.c          **** 
1322:vm.c          ****   mrbc_value value = mrbc_array_new(vm, rc);
1323:vm.c          ****   if( value.array == NULL ) return -1;	// ENOMEM
1324:vm.c          **** 
1325:vm.c          ****   memcpy( value.array->data, &regs[rb], sizeof(mrbc_value) * rc );
1326:vm.c          ****   memset( &regs[rb], 0, sizeof(mrbc_value) * rc );
1327:vm.c          ****   value.array->n_stored = rc;
1328:vm.c          **** 
1329:vm.c          ****   mrbc_release(&regs[ra]);
1330:vm.c          ****   regs[ra] = value;
1331:vm.c          **** 
1332:vm.c          ****   return 0;
1333:vm.c          **** }
1334:vm.c          **** 
1335:vm.c          **** 
1336:vm.c          **** //================================================================
1337:vm.c          **** /*!@brief
1338:vm.c          ****   Create string object
1339:vm.c          **** 
1340:vm.c          ****   R(A) := str_dup(Lit(Bx))
1341:vm.c          **** 
1342:vm.c          ****   @param  vm    A pointer of VM.
1343:vm.c          ****   @param  code  bytecode
1344:vm.c          ****   @param  regs  vm->regs + vm->reg_top
1345:vm.c          ****   @retval 0  No error.
1346:vm.c          **** */
1347:vm.c          **** static inline int op_string( mrbc_vm *vm, uint32_t code, mrbc_value *regs )
1348:vm.c          **** {
1349:vm.c          **** #if MRBC_USE_STRING
1350:vm.c          ****   int ra = GETARG_A(code);
1351:vm.c          ****   int rb = GETARG_Bx(code);
1352:vm.c          ****   mrbc_object *pool_obj = vm->pc_irep->pools[rb];
1353:vm.c          **** 
1354:vm.c          ****   /* CAUTION: pool_obj->str - 2. see IREP POOL structure. */
1355:vm.c          ****   int len = bin_to_uint16(pool_obj->str - 2);
1356:vm.c          ****   mrbc_value value = mrbc_string_new(vm, pool_obj->str, len);
1357:vm.c          ****   if( value.string == NULL ) return -1;		// ENOMEM
1358:vm.c          **** 
1359:vm.c          ****   mrbc_release(&regs[ra]);
1360:vm.c          ****   regs[ra] = value;
1361:vm.c          **** 
1362:vm.c          **** #else
1363:vm.c          ****   not_supported();
1364:vm.c          **** #endif
1365:vm.c          ****   return 0;
1366:vm.c          **** }
1367:vm.c          **** 
ARM GAS  C:\Users\164\AppData\Local\Temp\ccd4XrSZ.s 			page 33


1368:vm.c          **** 
1369:vm.c          **** //================================================================
1370:vm.c          **** /*!@brief
1371:vm.c          ****   String Catination
1372:vm.c          **** 
1373:vm.c          ****   str_cat(R(A),R(B))
1374:vm.c          **** 
1375:vm.c          ****   @param  vm    A pointer of VM.
1376:vm.c          ****   @param  code  bytecode
1377:vm.c          ****   @param  regs  vm->regs + vm->reg_top
1378:vm.c          ****   @retval 0  No error.
1379:vm.c          **** */
1380:vm.c          **** static inline int op_strcat( mrbc_vm *vm, uint32_t code, mrbc_value *regs )
1381:vm.c          **** {
1382:vm.c          **** #if MRBC_USE_STRING
1383:vm.c          ****   int ra = GETARG_A(code);
1384:vm.c          ****   int rb = GETARG_B(code);
1385:vm.c          **** 
1386:vm.c          ****   // call "to_s"
1387:vm.c          ****   mrbc_sym sym_id = str_to_symid("to_s");
1388:vm.c          ****   mrbc_proc *m = find_method(vm, &regs[rb], sym_id);
1389:vm.c          ****   if( m && m->c_func ){
1390:vm.c          ****     m->func(vm, regs+rb, 0);
1391:vm.c          ****   }
1392:vm.c          **** 
1393:vm.c          ****   mrbc_value v = mrbc_string_add(vm, &regs[ra], &regs[rb]);
1394:vm.c          ****   mrbc_release(&regs[ra]);
1395:vm.c          ****   regs[ra] = v;
1396:vm.c          **** 
1397:vm.c          **** #else
1398:vm.c          ****   not_supported();
1399:vm.c          **** #endif
1400:vm.c          ****   return 0;
1401:vm.c          **** }
1402:vm.c          **** 
1403:vm.c          **** 
1404:vm.c          **** //================================================================
1405:vm.c          **** /*!@brief
1406:vm.c          ****   Create Hash object
1407:vm.c          **** 
1408:vm.c          ****   R(A) := hash_new(R(B),R(B+1)..R(B+C))
1409:vm.c          **** 
1410:vm.c          ****   @param  vm    A pointer of VM.
1411:vm.c          ****   @param  code  bytecode
1412:vm.c          ****   @param  regs  vm->regs + vm->reg_top
1413:vm.c          ****   @retval 0  No error.
1414:vm.c          **** */
1415:vm.c          **** static inline int op_hash( mrbc_vm *vm, uint32_t code, mrbc_value *regs )
1416:vm.c          **** {
1417:vm.c          ****   int ra = GETARG_A(code);
1418:vm.c          ****   int rb = GETARG_B(code);
1419:vm.c          ****   int rc = GETARG_C(code);
1420:vm.c          **** 
1421:vm.c          ****   mrbc_value value = mrbc_hash_new(vm, rc);
1422:vm.c          ****   if( value.hash == NULL ) return -1;	// ENOMEM
1423:vm.c          **** 
1424:vm.c          ****   rc *= 2;
ARM GAS  C:\Users\164\AppData\Local\Temp\ccd4XrSZ.s 			page 34


1425:vm.c          ****   memcpy( value.hash->data, &regs[rb], sizeof(mrbc_value) * rc );
1426:vm.c          ****   memset( &regs[rb], 0, sizeof(mrbc_value) * rc );
1427:vm.c          ****   value.hash->n_stored = rc;
1428:vm.c          **** 
1429:vm.c          ****   mrbc_release(&regs[ra]);
1430:vm.c          ****   regs[ra] = value;
1431:vm.c          **** 
1432:vm.c          ****   return 0;
1433:vm.c          **** }
1434:vm.c          **** 
1435:vm.c          **** 
1436:vm.c          **** //================================================================
1437:vm.c          **** /*!@brief
1438:vm.c          ****   Execute OP_LAMBDA
1439:vm.c          **** 
1440:vm.c          ****   R(A) := lambda(SEQ[Bz],Cz)
1441:vm.c          **** 
1442:vm.c          ****   @param  vm    A pointer of VM.
1443:vm.c          ****   @param  code  bytecode
1444:vm.c          ****   @param  regs  vm->regs + vm->reg_top
1445:vm.c          ****   @retval 0  No error.
1446:vm.c          **** */
1447:vm.c          **** static inline int op_lambda( mrbc_vm *vm, uint32_t code, mrbc_value *regs )
1448:vm.c          **** {
1449:vm.c          ****   int ra = GETARG_A(code);
1450:vm.c          ****   int rb = GETARG_Bz(code);      // sequence position in irep list
1451:vm.c          ****   // int c = GETARG_C(code);    // TODO: Add flags support for OP_LAMBDA
1452:vm.c          ****   mrbc_proc *proc = mrbc_rproc_alloc(vm, "(lambda)");
1453:vm.c          **** 
1454:vm.c          ****   proc->c_func = 0;
1455:vm.c          ****   proc->irep = vm->pc_irep->reps[rb];
1456:vm.c          **** 
1457:vm.c          ****   mrbc_release(&regs[ra]);
1458:vm.c          ****   regs[ra].tt = MRBC_TT_PROC;
1459:vm.c          ****   regs[ra].proc = proc;
1460:vm.c          **** 
1461:vm.c          ****   return 0;
1462:vm.c          **** }
1463:vm.c          **** 
1464:vm.c          **** 
1465:vm.c          **** //================================================================
1466:vm.c          **** /*!@brief
1467:vm.c          ****   Execute OP_RANGE
1468:vm.c          **** 
1469:vm.c          ****   R(A) := range_new(R(B),R(B+1),C)
1470:vm.c          **** 
1471:vm.c          ****   @param  vm    A pointer of VM.
1472:vm.c          ****   @param  code  bytecode
1473:vm.c          ****   @param  regs  vm->regs + vm->reg_top
1474:vm.c          ****   @retval 0  No error.
1475:vm.c          **** */
1476:vm.c          **** static inline int op_range( mrbc_vm *vm, uint32_t code, mrbc_value *regs )
1477:vm.c          **** {
1478:vm.c          ****   int ra = GETARG_A(code);
1479:vm.c          ****   int rb = GETARG_B(code);
1480:vm.c          ****   int rc = GETARG_C(code);
1481:vm.c          **** 
ARM GAS  C:\Users\164\AppData\Local\Temp\ccd4XrSZ.s 			page 35


1482:vm.c          ****   mrbc_dup(&regs[rb]);
1483:vm.c          ****   mrbc_dup(&regs[rb+1]);
1484:vm.c          **** 
1485:vm.c          ****   mrbc_value value = mrbc_range_new(vm, &regs[rb], &regs[rb+1], rc);
1486:vm.c          ****   if( value.range == NULL ) return -1;		// ENOMEM
1487:vm.c          **** 
1488:vm.c          ****   mrbc_release(&regs[ra]);
1489:vm.c          ****   regs[ra] = value;
1490:vm.c          **** 
1491:vm.c          ****   return 0;
1492:vm.c          **** }
1493:vm.c          **** 
1494:vm.c          **** 
1495:vm.c          **** //================================================================
1496:vm.c          **** /*!@brief
1497:vm.c          ****   Execute OP_CLASS
1498:vm.c          **** 
1499:vm.c          ****     R(A) := newclass(R(A),Syms(B),R(A+1))
1500:vm.c          ****     Syms(B): class name
1501:vm.c          ****     R(A+1): super class
1502:vm.c          **** 
1503:vm.c          ****   @param  vm    A pointer of VM.
1504:vm.c          ****   @param  code  bytecode
1505:vm.c          ****   @param  regs  vm->regs + vm->reg_top
1506:vm.c          ****   @retval 0  No error.
1507:vm.c          **** */
1508:vm.c          **** static inline int op_class( mrbc_vm *vm, uint32_t code, mrbc_value *regs )
1509:vm.c          **** {
1510:vm.c          ****   int ra = GETARG_A(code);
1511:vm.c          ****   int rb = GETARG_B(code);
1512:vm.c          **** 
1513:vm.c          ****   mrbc_irep *cur_irep = vm->pc_irep;
1514:vm.c          ****   const char *sym_name = mrbc_get_irep_symbol(cur_irep->ptr_to_sym, rb);
1515:vm.c          ****   mrbc_class *super = (regs[ra+1].tt == MRBC_TT_CLASS) ? regs[ra+1].cls : mrbc_class_object;
1516:vm.c          **** 
1517:vm.c          ****   mrbc_class *cls = mrbc_define_class(vm, sym_name, super);
1518:vm.c          **** 
1519:vm.c          ****   mrbc_value ret = {.tt = MRBC_TT_CLASS};
1520:vm.c          ****   ret.cls = cls;
1521:vm.c          **** 
1522:vm.c          ****   regs[ra] = ret;
1523:vm.c          **** 
1524:vm.c          ****   return 0;
1525:vm.c          **** }
1526:vm.c          **** 
1527:vm.c          **** 
1528:vm.c          **** //================================================================
1529:vm.c          **** /*!@brief
1530:vm.c          ****   Execute OP_EXEC
1531:vm.c          **** 
1532:vm.c          ****   R(A) := blockexec(R(A),SEQ[Bx])
1533:vm.c          **** 
1534:vm.c          ****   @param  vm    A pointer of VM.
1535:vm.c          ****   @param  code  bytecode
1536:vm.c          ****   @param  regs  vm->regs + vm->reg_top
1537:vm.c          ****   @retval 0  No error.
1538:vm.c          **** */
ARM GAS  C:\Users\164\AppData\Local\Temp\ccd4XrSZ.s 			page 36


1539:vm.c          **** static inline int op_exec( mrbc_vm *vm, uint32_t code, mrbc_value *regs )
1540:vm.c          **** {
1541:vm.c          ****   int ra = GETARG_A(code);
1542:vm.c          ****   int rb = GETARG_Bx(code);
1543:vm.c          **** 
1544:vm.c          ****   mrbc_value recv = regs[ra];
1545:vm.c          **** 
1546:vm.c          ****   // prepare callinfo
1547:vm.c          ****   mrbc_push_callinfo(vm, 0);
1548:vm.c          **** 
1549:vm.c          ****   // target irep
1550:vm.c          ****   vm->pc = 0;
1551:vm.c          ****   vm->pc_irep = vm->irep->reps[rb];
1552:vm.c          **** 
1553:vm.c          ****   // new regs
1554:vm.c          ****   vm->current_regs += ra;
1555:vm.c          **** 
1556:vm.c          ****   vm->target_class = find_class_by_object(vm, &recv);
1557:vm.c          **** 
1558:vm.c          ****   return 0;
1559:vm.c          **** }
1560:vm.c          **** 
1561:vm.c          **** 
1562:vm.c          **** 
1563:vm.c          **** //================================================================
1564:vm.c          **** /*!@brief
1565:vm.c          ****   Execute OP_METHOD
1566:vm.c          **** 
1567:vm.c          ****   R(A).newmethod(Syms(B),R(A+1))
1568:vm.c          **** 
1569:vm.c          ****   @param  vm    A pointer of VM.
1570:vm.c          ****   @param  code  bytecode
1571:vm.c          ****   @param  regs  vm->regs + vm->reg_top
1572:vm.c          ****   @retval 0  No error.
1573:vm.c          **** */
1574:vm.c          **** static inline int op_method( mrbc_vm *vm, uint32_t code, mrbc_value *regs )
1575:vm.c          **** {
1576:vm.c          ****   int ra = GETARG_A(code);
1577:vm.c          ****   int rb = GETARG_B(code);
1578:vm.c          ****   mrbc_proc *proc = regs[ra+1].proc;
1579:vm.c          **** 
1580:vm.c          ****   if( regs[ra].tt == MRBC_TT_CLASS ) {
1581:vm.c          ****     mrbc_class *cls = regs[ra].cls;
1582:vm.c          **** 
1583:vm.c          ****     // sym_id : method name
1584:vm.c          ****     mrbc_irep *cur_irep = vm->pc_irep;
1585:vm.c          ****     const char *sym_name = mrbc_get_irep_symbol(cur_irep->ptr_to_sym, rb);
1586:vm.c          ****     int sym_id = str_to_symid(sym_name);
1587:vm.c          **** 
1588:vm.c          ****     // check same name method
1589:vm.c          ****     mrbc_proc *p = cls->procs;
1590:vm.c          ****     void *pp = &cls->procs;
1591:vm.c          ****     while( p != NULL ) {
1592:vm.c          ****       if( p->sym_id == sym_id ) break;
1593:vm.c          ****       pp = &p->next;
1594:vm.c          ****       p = p->next;
1595:vm.c          ****     }
ARM GAS  C:\Users\164\AppData\Local\Temp\ccd4XrSZ.s 			page 37


1596:vm.c          ****     if( p ) {
1597:vm.c          ****       // found it.
1598:vm.c          ****       *((mrbc_proc**)pp) = p->next;
1599:vm.c          ****       if( !p->c_func ) {
1600:vm.c          **** 	mrbc_value v = {.tt = MRBC_TT_PROC};
1601:vm.c          **** 	v.proc = p;
1602:vm.c          **** 	mrbc_release(&v);
1603:vm.c          ****       }
1604:vm.c          ****     }
1605:vm.c          **** 
1606:vm.c          ****     // add proc to class
1607:vm.c          ****     proc->c_func = 0;
1608:vm.c          ****     proc->sym_id = sym_id;
1609:vm.c          **** #ifdef MRBC_DEBUG
1610:vm.c          ****     proc->names = sym_name;		// debug only.
1611:vm.c          **** #endif
1612:vm.c          ****     proc->next = cls->procs;
1613:vm.c          ****     cls->procs = proc;
1614:vm.c          **** 
1615:vm.c          ****     mrbc_set_vm_id(proc, 0);
1616:vm.c          ****     regs[ra+1].tt = MRBC_TT_EMPTY;
1617:vm.c          ****   }
1618:vm.c          **** 
1619:vm.c          ****   return 0;
1620:vm.c          **** }
1621:vm.c          **** 
1622:vm.c          **** 
1623:vm.c          **** //================================================================
1624:vm.c          **** /*!@brief
1625:vm.c          ****   Execute OP_TCLASS
1626:vm.c          **** 
1627:vm.c          ****   R(A) := target_class
1628:vm.c          **** 
1629:vm.c          ****   @param  vm    A pointer of VM.
1630:vm.c          ****   @param  code  bytecode
1631:vm.c          ****   @param  regs  vm->regs + vm->reg_top
1632:vm.c          ****   @retval 0  No error.
1633:vm.c          **** */
1634:vm.c          **** static inline int op_tclass( mrbc_vm *vm, uint32_t code, mrbc_value *regs )
1635:vm.c          **** {
1636:vm.c          ****   int ra = GETARG_A(code);
1637:vm.c          **** 
1638:vm.c          ****   mrbc_release(&regs[ra]);
1639:vm.c          ****   regs[ra].tt = MRBC_TT_CLASS;
1640:vm.c          ****   regs[ra].cls = vm->target_class;
1641:vm.c          **** 
1642:vm.c          ****   return 0;
1643:vm.c          **** }
1644:vm.c          **** 
1645:vm.c          **** 
1646:vm.c          **** //================================================================
1647:vm.c          **** /*!@brief
1648:vm.c          ****   Execute OP_STOP and OP_ABORT
1649:vm.c          **** 
1650:vm.c          ****   stop VM (OP_STOP)
1651:vm.c          ****   stop VM without release memory (OP_ABORT)
1652:vm.c          **** 
ARM GAS  C:\Users\164\AppData\Local\Temp\ccd4XrSZ.s 			page 38


1653:vm.c          ****   @param  vm    A pointer of VM.
1654:vm.c          ****   @param  code  bytecode
1655:vm.c          ****   @param  regs  vm->regs + vm->reg_top
1656:vm.c          ****   @retval -1  No error and exit from vm.
1657:vm.c          **** */
1658:vm.c          **** static inline int op_stop( mrbc_vm *vm, uint32_t code, mrbc_value *regs )
1659:vm.c          **** {
1660:vm.c          ****   if( GET_OPCODE(code) == OP_STOP ) {
1661:vm.c          ****     int i;
1662:vm.c          ****     for( i = 0; i < MAX_REGS_SIZE; i++ ) {
1663:vm.c          ****       mrbc_release(&vm->regs[i]);
1664:vm.c          ****     }
1665:vm.c          ****   }
1666:vm.c          **** 
1667:vm.c          ****   vm->flag_preemption = 1;
1668:vm.c          **** 
1669:vm.c          ****   return -1;
1670:vm.c          **** }
1671:vm.c          **** 
1672:vm.c          **** 
1673:vm.c          **** //================================================================
1674:vm.c          **** /*!@brief
1675:vm.c          ****   Open the VM.
1676:vm.c          **** 
1677:vm.c          ****   @param vm     Pointer to mrbc_vm or NULL.
1678:vm.c          ****   @return	Pointer to mrbc_vm.
1679:vm.c          ****   @retval NULL	error.
1680:vm.c          **** */
1681:vm.c          **** mrbc_vm *mrbc_vm_open( struct VM *vm_arg )
1682:vm.c          **** {
 287              		.loc 1 1682 0
 288              		.cfi_startproc
 289              		@ args = 0, pretend = 0, frame = 0
 290              		@ frame_needed = 0, uses_anonymous_args = 0
 291              	.LVL30:
 292 0000 70B5     		push	{r4, r5, r6, lr}
 293              		.cfi_def_cfa_offset 16
 294              		.cfi_offset 4, -16
 295              		.cfi_offset 5, -12
 296              		.cfi_offset 6, -8
 297              		.cfi_offset 14, -4
 298              	.LVL31:
1683:vm.c          ****   mrbc_vm *vm;
1684:vm.c          ****   if( (vm = vm_arg) == NULL ) {
 299              		.loc 1 1684 0
 300 0002 0646     		mov	r6, r0
 301 0004 30B9     		cbnz	r0, .L31
1685:vm.c          ****     // allocate memory.
1686:vm.c          ****     vm = (mrbc_vm *)mrbc_raw_alloc( sizeof(mrbc_vm) );
 302              		.loc 1 1686 0
 303 0006 4FF4CE60 		mov	r0, #1648
 304              	.LVL32:
 305 000a FFF7FEFF 		bl	mrbc_raw_alloc
 306              	.LVL33:
1687:vm.c          ****     if( vm == NULL ) return NULL;
 307              		.loc 1 1687 0
 308 000e 0546     		mov	r5, r0
ARM GAS  C:\Users\164\AppData\Local\Temp\ccd4XrSZ.s 			page 39


 309 0010 08B9     		cbnz	r0, .L18
 310 0012 43E0     		b	.L32
 311              	.LVL34:
 312              	.L31:
1684:vm.c          ****     // allocate memory.
 313              		.loc 1 1684 0
 314 0014 0546     		mov	r5, r0
 315              	.LVL35:
 316              	.L18:
1688:vm.c          ****   }
1689:vm.c          **** 
1690:vm.c          ****   // allocate vm id.
1691:vm.c          ****   int vm_id = 0;
1692:vm.c          ****   int i;
1693:vm.c          ****   for( i = 0; i < Num(free_vm_bitmap); i++ ) {
 317              		.loc 1 1693 0
 318 0016 0021     		movs	r1, #0
 319 0018 29E0     		b	.L20
 320              	.LVL36:
 321              	.L28:
 322              	.LBB52:
1694:vm.c          ****     int n = nlz32( ~free_vm_bitmap[i] );
 323              		.loc 1 1694 0
 324 001a 224B     		ldr	r3, .L37
 325 001c 53F82100 		ldr	r0, [r3, r1, lsl #2]
 326              	.LVL37:
 327              	.LBB53:
 328              	.LBB54:
  48:vm.c          **** 
 329              		.loc 1 48 0
 330 0020 C343     		mvns	r3, r0
 331              	.LVL38:
 332 0022 14D0     		beq	.L33
 333              	.LVL39:
  51:vm.c          ****   if((x >> 24) == 0 ) { n +=  8; x <<=  8; }
 334              		.loc 1 51 0
 335 0024 1A0C     		lsrs	r2, r3, #16
 336 0026 02D1     		bne	.L34
 337              	.LVL40:
 338 0028 1B04     		lsls	r3, r3, #16
 339              	.LVL41:
 340 002a 1122     		movs	r2, #17
 341 002c 00E0     		b	.L22
 342              	.LVL42:
 343              	.L34:
  50:vm.c          ****   if((x >> 16) == 0 ) { n += 16; x <<= 16; }
 344              		.loc 1 50 0
 345 002e 0122     		movs	r2, #1
 346              	.LVL43:
 347              	.L22:
  52:vm.c          ****   if((x >> 28) == 0 ) { n +=  4; x <<=  4; }
 348              		.loc 1 52 0
 349 0030 1C0E     		lsrs	r4, r3, #24
 350 0032 01D1     		bne	.L23
 351 0034 0832     		adds	r2, r2, #8
 352              	.LVL44:
 353 0036 1B02     		lsls	r3, r3, #8
ARM GAS  C:\Users\164\AppData\Local\Temp\ccd4XrSZ.s 			page 40


 354              	.LVL45:
 355              	.L23:
  53:vm.c          ****   if((x >> 30) == 0 ) { n +=  2; x <<=  2; }
 356              		.loc 1 53 0
 357 0038 1C0F     		lsrs	r4, r3, #28
 358 003a 01D1     		bne	.L24
 359 003c 0432     		adds	r2, r2, #4
 360              	.LVL46:
 361 003e 1B01     		lsls	r3, r3, #4
 362              	.LVL47:
 363              	.L24:
  54:vm.c          ****   return n - (x >> 31);
 364              		.loc 1 54 0
 365 0040 9C0F     		lsrs	r4, r3, #30
 366 0042 01D1     		bne	.L25
 367 0044 0232     		adds	r2, r2, #2
 368              	.LVL48:
 369 0046 9B00     		lsls	r3, r3, #2
 370              	.LVL49:
 371              	.L25:
  55:vm.c          **** }
 372              		.loc 1 55 0
 373 0048 02EBE373 		add	r3, r2, r3, asr #31
 374              	.LVL50:
 375 004c 00E0     		b	.L21
 376              	.LVL51:
 377              	.L33:
  48:vm.c          **** 
 378              		.loc 1 48 0
 379 004e 2023     		movs	r3, #32
 380              	.LVL52:
 381              	.L21:
 382              	.LBE54:
 383              	.LBE53:
1695:vm.c          ****     if( n < FREE_BITMAP_WIDTH ) {
 384              		.loc 1 1695 0
 385 0050 1F2B     		cmp	r3, #31
 386 0052 0BDC     		bgt	.L26
1696:vm.c          ****       free_vm_bitmap[i] |= (1 << (FREE_BITMAP_WIDTH - n - 1));
 387              		.loc 1 1696 0
 388 0054 C3F11F04 		rsb	r4, r3, #31
 389 0058 0122     		movs	r2, #1
 390 005a A240     		lsls	r2, r2, r4
 391 005c 1043     		orrs	r0, r0, r2
 392 005e 114A     		ldr	r2, .L37
 393 0060 42F82100 		str	r0, [r2, r1, lsl #2]
1697:vm.c          ****       vm_id = i * FREE_BITMAP_WIDTH + n + 1;
 394              		.loc 1 1697 0
 395 0064 03EB4114 		add	r4, r3, r1, lsl #5
 396 0068 0134     		adds	r4, r4, #1
 397              	.LVL53:
1698:vm.c          ****       break;
 398              		.loc 1 1698 0
 399 006a 03E0     		b	.L27
 400              	.LVL54:
 401              	.L26:
 402              	.LBE52:
ARM GAS  C:\Users\164\AppData\Local\Temp\ccd4XrSZ.s 			page 41


1693:vm.c          ****     int n = nlz32( ~free_vm_bitmap[i] );
 403              		.loc 1 1693 0 discriminator 2
 404 006c 0131     		adds	r1, r1, #1
 405              	.LVL55:
 406              	.L20:
1693:vm.c          ****     int n = nlz32( ~free_vm_bitmap[i] );
 407              		.loc 1 1693 0 is_stmt 0 discriminator 1
 408 006e 0029     		cmp	r1, #0
 409 0070 D3D0     		beq	.L28
1691:vm.c          ****   int i;
 410              		.loc 1 1691 0 is_stmt 1
 411 0072 0024     		movs	r4, #0
 412              	.LVL56:
 413              	.L27:
1699:vm.c          ****     }
1700:vm.c          ****   }
1701:vm.c          ****   if( vm_id == 0 ) {
 414              		.loc 1 1701 0
 415 0074 2CB9     		cbnz	r4, .L29
1702:vm.c          ****     if( vm_arg == NULL ) mrbc_raw_free(vm);
 416              		.loc 1 1702 0
 417 0076 9EB9     		cbnz	r6, .L35
 418              		.loc 1 1702 0 is_stmt 0 discriminator 1
 419 0078 2846     		mov	r0, r5
 420 007a FFF7FEFF 		bl	mrbc_raw_free
 421              	.LVL57:
1703:vm.c          ****     return NULL;
 422              		.loc 1 1703 0 is_stmt 1 discriminator 1
 423 007e 0020     		movs	r0, #0
 424 0080 70BD     		pop	{r4, r5, r6, pc}
 425              	.LVL58:
 426              	.L29:
1704:vm.c          ****   }
1705:vm.c          **** 
1706:vm.c          ****   // initialize attributes.
1707:vm.c          ****   memset(vm, 0, sizeof(mrbc_vm));	// caution: assume NULL is zero.
 427              		.loc 1 1707 0
 428 0082 4FF4CE62 		mov	r2, #1648
 429 0086 0021     		movs	r1, #0
 430              	.LVL59:
 431 0088 2846     		mov	r0, r5
 432 008a FFF7FEFF 		bl	memset
 433              	.LVL60:
1708:vm.c          ****   if( vm_arg == NULL ) vm->flag_need_memfree = 1;
 434              		.loc 1 1708 0
 435 008e 16B9     		cbnz	r6, .L30
 436              		.loc 1 1708 0 is_stmt 0 discriminator 1
 437 0090 0123     		movs	r3, #1
 438 0092 85F86936 		strb	r3, [r5, #1641]
 439              	.L30:
1709:vm.c          ****   vm->vm_id = vm_id;
 440              		.loc 1 1709 0 is_stmt 1
 441 0096 2C71     		strb	r4, [r5, #4]
1710:vm.c          **** 
1711:vm.c          ****   return vm;
 442              		.loc 1 1711 0
 443 0098 2846     		mov	r0, r5
ARM GAS  C:\Users\164\AppData\Local\Temp\ccd4XrSZ.s 			page 42


 444 009a 70BD     		pop	{r4, r5, r6, pc}
 445              	.LVL61:
 446              	.L32:
1687:vm.c          ****   }
 447              		.loc 1 1687 0
 448 009c 0020     		movs	r0, #0
 449              	.LVL62:
 450 009e 70BD     		pop	{r4, r5, r6, pc}
 451              	.LVL63:
 452              	.L35:
1703:vm.c          ****   }
 453              		.loc 1 1703 0
 454 00a0 0020     		movs	r0, #0
1712:vm.c          **** }
 455              		.loc 1 1712 0
 456 00a2 70BD     		pop	{r4, r5, r6, pc}
 457              	.LVL64:
 458              	.L38:
 459              		.align	2
 460              	.L37:
 461 00a4 00000000 		.word	.LANCHOR0
 462              		.cfi_endproc
 463              	.LFE148:
 464              		.size	mrbc_vm_open, .-mrbc_vm_open
 465              		.section	.text.mrbc_vm_close,"ax",%progbits
 466              		.align	2
 467              		.global	mrbc_vm_close
 468              		.thumb
 469              		.thumb_func
 470              		.type	mrbc_vm_close, %function
 471              	mrbc_vm_close:
 472              	.LFB149:
1713:vm.c          **** 
1714:vm.c          **** 
1715:vm.c          **** 
1716:vm.c          **** //================================================================
1717:vm.c          **** /*!@brief
1718:vm.c          ****   Close the VM.
1719:vm.c          **** 
1720:vm.c          ****   @param  vm  Pointer to VM
1721:vm.c          **** */
1722:vm.c          **** void mrbc_vm_close( struct VM *vm )
1723:vm.c          **** {
 473              		.loc 1 1723 0
 474              		.cfi_startproc
 475              		@ args = 0, pretend = 0, frame = 0
 476              		@ frame_needed = 0, uses_anonymous_args = 0
 477              	.LVL65:
 478 0000 10B5     		push	{r4, lr}
 479              		.cfi_def_cfa_offset 8
 480              		.cfi_offset 4, -8
 481              		.cfi_offset 14, -4
 482 0002 0446     		mov	r4, r0
1724:vm.c          ****   // free vm id.
1725:vm.c          ****   int i = (vm->vm_id-1) / FREE_BITMAP_WIDTH;
 483              		.loc 1 1725 0
 484 0004 0379     		ldrb	r3, [r0, #4]	@ zero_extendqisi2
ARM GAS  C:\Users\164\AppData\Local\Temp\ccd4XrSZ.s 			page 43


 485 0006 013B     		subs	r3, r3, #1
 486 0008 1A46     		mov	r2, r3
 487 000a 002B     		cmp	r3, #0
 488 000c 01DA     		bge	.L40
 489 000e 03F11F02 		add	r2, r3, #31
 490              	.L40:
 491 0012 5211     		asrs	r2, r2, #5
 492              	.LVL66:
1726:vm.c          ****   int n = (vm->vm_id-1) % FREE_BITMAP_WIDTH;
 493              		.loc 1 1726 0
 494 0014 1249     		ldr	r1, .L45
 495 0016 0B40     		ands	r3, r3, r1
 496 0018 03D5     		bpl	.L41
 497 001a 013B     		subs	r3, r3, #1
 498 001c 63F01F03 		orn	r3, r3, #31
 499 0020 0133     		adds	r3, r3, #1
 500              	.L41:
 501              	.LVL67:
1727:vm.c          ****   assert( i < Num(free_vm_bitmap) );
 502              		.loc 1 1727 0
 503 0022 32B1     		cbz	r2, .L42
 504              		.loc 1 1727 0 is_stmt 0 discriminator 1
 505 0024 0F4B     		ldr	r3, .L45+4
 506              	.LVL68:
 507 0026 104A     		ldr	r2, .L45+8
 508              	.LVL69:
 509 0028 40F2BF61 		movw	r1, #1727
 510 002c 0F48     		ldr	r0, .L45+12
 511              	.LVL70:
 512 002e FFF7FEFF 		bl	__assert_func
 513              	.LVL71:
 514              	.L42:
1728:vm.c          ****   free_vm_bitmap[i] &= ~(1 << (FREE_BITMAP_WIDTH - n - 1));
 515              		.loc 1 1728 0 is_stmt 1
 516 0032 C3F11F03 		rsb	r3, r3, #31
 517              	.LVL72:
 518 0036 0121     		movs	r1, #1
 519 0038 01FA03F3 		lsl	r3, r1, r3
 520 003c 0C48     		ldr	r0, .L45+16
 521              	.LVL73:
 522 003e 50F82210 		ldr	r1, [r0, r2, lsl #2]
 523 0042 21EA0301 		bic	r1, r1, r3
 524 0046 40F82210 		str	r1, [r0, r2, lsl #2]
1729:vm.c          **** 
1730:vm.c          ****   // free irep and vm
1731:vm.c          ****   mrbc_irep_free( vm->irep );
 525              		.loc 1 1731 0
 526 004a 2068     		ldr	r0, [r4]
 527 004c FFF7FEFF 		bl	mrbc_irep_free
 528              	.LVL74:
1732:vm.c          ****   if( vm->flag_need_memfree ) mrbc_raw_free(vm);
 529              		.loc 1 1732 0
 530 0050 94F96936 		ldrsb	r3, [r4, #1641]
 531 0054 13B1     		cbz	r3, .L39
 532              		.loc 1 1732 0 is_stmt 0 discriminator 1
 533 0056 2046     		mov	r0, r4
 534 0058 FFF7FEFF 		bl	mrbc_raw_free
ARM GAS  C:\Users\164\AppData\Local\Temp\ccd4XrSZ.s 			page 44


 535              	.LVL75:
 536              	.L39:
 537 005c 10BD     		pop	{r4, pc}
 538              	.LVL76:
 539              	.L46:
 540 005e 00BF     		.align	2
 541              	.L45:
 542 0060 1F000080 		.word	-2147483617
 543 0064 10000000 		.word	.LC1
 544 0068 00000000 		.word	.LANCHOR1
 545 006c 28000000 		.word	.LC2
 546 0070 00000000 		.word	.LANCHOR0
 547              		.cfi_endproc
 548              	.LFE149:
 549              		.size	mrbc_vm_close, .-mrbc_vm_close
 550              		.section	.text.mrbc_vm_begin,"ax",%progbits
 551              		.align	2
 552              		.global	mrbc_vm_begin
 553              		.thumb
 554              		.thumb_func
 555              		.type	mrbc_vm_begin, %function
 556              	mrbc_vm_begin:
 557              	.LFB150:
1733:vm.c          **** }
1734:vm.c          **** 
1735:vm.c          **** 
1736:vm.c          **** 
1737:vm.c          **** //================================================================
1738:vm.c          **** /*!@brief
1739:vm.c          ****   VM initializer.
1740:vm.c          **** 
1741:vm.c          ****   @param  vm  Pointer to VM
1742:vm.c          **** */
1743:vm.c          **** void mrbc_vm_begin( struct VM *vm )
1744:vm.c          **** {
 558              		.loc 1 1744 0 is_stmt 1
 559              		.cfi_startproc
 560              		@ args = 0, pretend = 0, frame = 0
 561              		@ frame_needed = 0, uses_anonymous_args = 0
 562              	.LVL77:
 563 0000 10B5     		push	{r4, lr}
 564              		.cfi_def_cfa_offset 8
 565              		.cfi_offset 4, -8
 566              		.cfi_offset 14, -4
 567 0002 0446     		mov	r4, r0
1745:vm.c          ****   vm->pc_irep = vm->irep;
 568              		.loc 1 1745 0
 569 0004 0368     		ldr	r3, [r0]
 570 0006 C360     		str	r3, [r0, #12]
1746:vm.c          ****   vm->pc = 0;
 571              		.loc 1 1746 0
 572 0008 0021     		movs	r1, #0
 573 000a 0182     		strh	r1, [r0, #16]	@ movhi
1747:vm.c          ****   vm->current_regs = vm->regs;
 574              		.loc 1 1747 0
 575 000c 1830     		adds	r0, r0, #24
 576              	.LVL78:
ARM GAS  C:\Users\164\AppData\Local\Temp\ccd4XrSZ.s 			page 45


 577 000e C4F85806 		str	r0, [r4, #1624]
1748:vm.c          ****   memset(vm->regs, 0, sizeof(vm->regs));
 578              		.loc 1 1748 0
 579 0012 4FF4C862 		mov	r2, #1600
 580 0016 FFF7FEFF 		bl	memset
 581              	.LVL79:
1749:vm.c          **** 
1750:vm.c          ****   // clear regs
1751:vm.c          ****   int i;
1752:vm.c          ****   for( i = 1; i < MAX_REGS_SIZE; i++ ) {
 582              		.loc 1 1752 0
 583 001a 0123     		movs	r3, #1
 584 001c 04E0     		b	.L48
 585              	.LVL80:
 586              	.L49:
1753:vm.c          ****     vm->regs[i].tt = MRBC_TT_NIL;
 587              		.loc 1 1753 0 discriminator 3
 588 001e 04EB0312 		add	r2, r4, r3, lsl #4
 589 0022 0121     		movs	r1, #1
 590 0024 1176     		strb	r1, [r2, #24]
1752:vm.c          ****     vm->regs[i].tt = MRBC_TT_NIL;
 591              		.loc 1 1752 0 discriminator 3
 592 0026 0B44     		add	r3, r3, r1
 593              	.LVL81:
 594              	.L48:
1752:vm.c          ****     vm->regs[i].tt = MRBC_TT_NIL;
 595              		.loc 1 1752 0 is_stmt 0 discriminator 1
 596 0028 632B     		cmp	r3, #99
 597 002a F8DD     		ble	.L49
1754:vm.c          ****   }
1755:vm.c          **** 
1756:vm.c          ****   // set self to reg[0]
1757:vm.c          ****   vm->regs[0].tt = MRBC_TT_CLASS;
 598              		.loc 1 1757 0 is_stmt 1
 599 002c 0723     		movs	r3, #7
 600              	.LVL82:
 601 002e 2376     		strb	r3, [r4, #24]
1758:vm.c          ****   vm->regs[0].cls = mrbc_class_object;
 602              		.loc 1 1758 0
 603 0030 064B     		ldr	r3, .L51
 604 0032 1A68     		ldr	r2, [r3]
 605 0034 2262     		str	r2, [r4, #32]
1759:vm.c          **** 
1760:vm.c          ****   vm->callinfo_tail = NULL;
 606              		.loc 1 1760 0
 607 0036 0023     		movs	r3, #0
 608 0038 C4F85C36 		str	r3, [r4, #1628]
1761:vm.c          **** 
1762:vm.c          ****   // target_class
1763:vm.c          ****   vm->target_class = mrbc_class_object;
 609              		.loc 1 1763 0
 610 003c C4F86026 		str	r2, [r4, #1632]
1764:vm.c          **** 
1765:vm.c          ****   vm->error_code = 0;
 611              		.loc 1 1765 0
 612 0040 C4F86436 		str	r3, [r4, #1636]
1766:vm.c          ****   vm->flag_preemption = 0;
ARM GAS  C:\Users\164\AppData\Local\Temp\ccd4XrSZ.s 			page 46


 613              		.loc 1 1766 0
 614 0044 84F86836 		strb	r3, [r4, #1640]
 615 0048 10BD     		pop	{r4, pc}
 616              	.LVL83:
 617              	.L52:
 618 004a 00BF     		.align	2
 619              	.L51:
 620 004c 00000000 		.word	mrbc_class_object
 621              		.cfi_endproc
 622              	.LFE150:
 623              		.size	mrbc_vm_begin, .-mrbc_vm_begin
 624              		.section	.text.mrbc_vm_end,"ax",%progbits
 625              		.align	2
 626              		.global	mrbc_vm_end
 627              		.thumb
 628              		.thumb_func
 629              		.type	mrbc_vm_end, %function
 630              	mrbc_vm_end:
 631              	.LFB151:
1767:vm.c          **** }
1768:vm.c          **** 
1769:vm.c          **** 
1770:vm.c          **** //================================================================
1771:vm.c          **** /*!@brief
1772:vm.c          ****   VM finalizer.
1773:vm.c          **** 
1774:vm.c          ****   @param  vm  Pointer to VM
1775:vm.c          **** */
1776:vm.c          **** void mrbc_vm_end( struct VM *vm )
1777:vm.c          **** {
 632              		.loc 1 1777 0
 633              		.cfi_startproc
 634              		@ args = 0, pretend = 0, frame = 0
 635              		@ frame_needed = 0, uses_anonymous_args = 0
 636              	.LVL84:
 637 0000 10B5     		push	{r4, lr}
 638              		.cfi_def_cfa_offset 8
 639              		.cfi_offset 4, -8
 640              		.cfi_offset 14, -4
 641 0002 0446     		mov	r4, r0
1778:vm.c          ****   mrbc_global_clear_vm_id();
 642              		.loc 1 1778 0
 643 0004 FFF7FEFF 		bl	mrbc_global_clear_vm_id
 644              	.LVL85:
1779:vm.c          ****   mrbc_free_all(vm);
 645              		.loc 1 1779 0
 646 0008 2046     		mov	r0, r4
 647 000a FFF7FEFF 		bl	mrbc_free_all
 648              	.LVL86:
 649 000e 10BD     		pop	{r4, pc}
 650              		.cfi_endproc
 651              	.LFE151:
 652              		.size	mrbc_vm_end, .-mrbc_vm_end
 653              		.global	__aeabi_i2d
 654              		.global	__aeabi_dadd
 655              		.global	__aeabi_ui2d
 656              		.global	__aeabi_dsub
ARM GAS  C:\Users\164\AppData\Local\Temp\ccd4XrSZ.s 			page 47


 657              		.global	__aeabi_dmul
 658              		.global	__aeabi_ddiv
 659              		.global	__aeabi_dcmplt
 660              		.global	__aeabi_dcmple
 661              		.global	__aeabi_dcmpgt
 662              		.global	__aeabi_dcmpge
 663              		.section	.text.mrbc_vm_run,"ax",%progbits
 664              		.align	2
 665              		.global	mrbc_vm_run
 666              		.thumb
 667              		.thumb_func
 668              		.type	mrbc_vm_run, %function
 669              	mrbc_vm_run:
 670              	.LFB152:
1780:vm.c          **** }
1781:vm.c          **** 
1782:vm.c          **** 
1783:vm.c          **** //================================================================
1784:vm.c          **** /*!@brief
1785:vm.c          ****   Fetch a bytecode and execute
1786:vm.c          **** 
1787:vm.c          ****   @param  vm    A pointer of VM.
1788:vm.c          ****   @retval 0  No error.
1789:vm.c          **** */
1790:vm.c          **** int mrbc_vm_run( struct VM *vm )
1791:vm.c          **** {
 671              		.loc 1 1791 0
 672              		.cfi_startproc
 673              		@ args = 0, pretend = 0, frame = 40
 674              		@ frame_needed = 0, uses_anonymous_args = 0
 675              	.LVL87:
 676 0000 2DE9F04F 		push	{r4, r5, r6, r7, r8, r9, r10, fp, lr}
 677              		.cfi_def_cfa_offset 36
 678              		.cfi_offset 4, -36
 679              		.cfi_offset 5, -32
 680              		.cfi_offset 6, -28
 681              		.cfi_offset 7, -24
 682              		.cfi_offset 8, -20
 683              		.cfi_offset 9, -16
 684              		.cfi_offset 10, -12
 685              		.cfi_offset 11, -8
 686              		.cfi_offset 14, -4
 687 0004 8DB0     		sub	sp, sp, #52
 688              		.cfi_def_cfa_offset 88
 689 0006 0546     		mov	r5, r0
 690              	.LVL88:
1792:vm.c          ****   int ret = 0;
 691              		.loc 1 1792 0
 692 0008 0027     		movs	r7, #0
 693              	.LVL89:
 694              	.L279:
 695              	.LBB196:
1793:vm.c          **** 
1794:vm.c          ****   do {
1795:vm.c          ****     // get one bytecode
1796:vm.c          ****     uint32_t code = bin_to_uint32(vm->pc_irep->code + vm->pc * 4);
 696              		.loc 1 1796 0
ARM GAS  C:\Users\164\AppData\Local\Temp\ccd4XrSZ.s 			page 48


 697 000a EB68     		ldr	r3, [r5, #12]
 698 000c DB68     		ldr	r3, [r3, #12]
 699 000e 2A8A     		ldrh	r2, [r5, #16]
 700              	.LVL90:
 701              	.LBB197:
 702              	.LBB198:
 113:vm.h          ****   return (x << 24) | ((x & 0xff00) << 8) | ((x >> 8) & 0xff00) | (x >> 24);
 703              		.loc 2 113 0
 704 0010 53F82210 		ldr	r1, [r3, r2, lsl #2]
 705              	.LVL91:
 114:vm.h          **** 
 706              		.loc 2 114 0
 707 0014 0B02     		lsls	r3, r1, #8
 708              	.LVL92:
 709 0016 03F47F03 		and	r3, r3, #16711680
 710 001a 43EA0164 		orr	r4, r3, r1, lsl #24
 711 001e 0B0A     		lsrs	r3, r1, #8
 712 0020 03F47F43 		and	r3, r3, #65280
 713 0024 2343     		orrs	r3, r3, r4
 714 0026 43EA1164 		orr	r4, r3, r1, lsr #24
 715              	.LVL93:
 716              	.LBE198:
 717              	.LBE197:
1797:vm.c          ****     vm->pc++;
 718              		.loc 1 1797 0
 719 002a 0132     		adds	r2, r2, #1
 720 002c 92B2     		uxth	r2, r2
 721 002e 2A82     		strh	r2, [r5, #16]	@ movhi
1798:vm.c          **** 
1799:vm.c          ****     // regs
1800:vm.c          ****     mrbc_value *regs = vm->current_regs;
 722              		.loc 1 1800 0
 723 0030 D5F85866 		ldr	r6, [r5, #1624]
 724              	.LVL94:
1801:vm.c          **** 
1802:vm.c          ****     // Dispatch
1803:vm.c          ****     int opcode = GET_OPCODE(code);
 725              		.loc 1 1803 0
 726 0034 04F07F03 		and	r3, r4, #127
 727              	.LVL95:
1804:vm.c          ****     switch( opcode ) {
 728              		.loc 1 1804 0
 729 0038 502B     		cmp	r3, #80
 730 003a 01F24583 		bhi	.L56
 731 003e DFE813F0 		tbh	[pc, r3, lsl #1]
 732              	.L58:
 733 0042 490B     		.2byte	(.L280-.L58)/2
 734 0044 5100     		.2byte	(.L59-.L58)/2
 735 0046 6500     		.2byte	(.L60-.L58)/2
 736 0048 7700     		.2byte	(.L61-.L58)/2
 737 004a 8A00     		.2byte	(.L62-.L58)/2
 738 004c A000     		.2byte	(.L63-.L58)/2
 739 004e AA00     		.2byte	(.L64-.L58)/2
 740 0050 BA00     		.2byte	(.L65-.L58)/2
 741 0052 C400     		.2byte	(.L66-.L58)/2
 742 0054 CE00     		.2byte	(.L67-.L58)/2
 743 0056 E900     		.2byte	(.L68-.L58)/2
ARM GAS  C:\Users\164\AppData\Local\Temp\ccd4XrSZ.s 			page 49


 744 0058 430B     		.2byte	(.L56-.L58)/2
 745 005a 430B     		.2byte	(.L56-.L58)/2
 746 005c 0301     		.2byte	(.L69-.L58)/2
 747 005e 1F01     		.2byte	(.L70-.L58)/2
 748 0060 430B     		.2byte	(.L56-.L58)/2
 749 0062 430B     		.2byte	(.L56-.L58)/2
 750 0064 3201     		.2byte	(.L71-.L58)/2
 751 0066 4D01     		.2byte	(.L72-.L58)/2
 752 0068 430B     		.2byte	(.L56-.L58)/2
 753 006a 430B     		.2byte	(.L56-.L58)/2
 754 006c 5D01     		.2byte	(.L73-.L58)/2
 755 006e 7D01     		.2byte	(.L74-.L58)/2
 756 0070 9D01     		.2byte	(.L75-.L58)/2
 757 0072 A501     		.2byte	(.L76-.L58)/2
 758 0074 B301     		.2byte	(.L77-.L58)/2
 759 0076 430B     		.2byte	(.L56-.L58)/2
 760 0078 430B     		.2byte	(.L56-.L58)/2
 761 007a 430B     		.2byte	(.L56-.L58)/2
 762 007c 430B     		.2byte	(.L56-.L58)/2
 763 007e 430B     		.2byte	(.L56-.L58)/2
 764 0080 430B     		.2byte	(.L56-.L58)/2
 765 0082 C101     		.2byte	(.L78-.L58)/2
 766 0084 2F02     		.2byte	(.L79-.L58)/2
 767 0086 430B     		.2byte	(.L56-.L58)/2
 768 0088 9D02     		.2byte	(.L80-.L58)/2
 769 008a 430B     		.2byte	(.L56-.L58)/2
 770 008c 430B     		.2byte	(.L56-.L58)/2
 771 008e A802     		.2byte	(.L81-.L58)/2
 772 0090 430B     		.2byte	(.L56-.L58)/2
 773 0092 430B     		.2byte	(.L56-.L58)/2
 774 0094 B702     		.2byte	(.L82-.L58)/2
 775 0096 430B     		.2byte	(.L56-.L58)/2
 776 0098 E802     		.2byte	(.L83-.L58)/2
 777 009a 0203     		.2byte	(.L84-.L58)/2
 778 009c B803     		.2byte	(.L85-.L58)/2
 779 009e D803     		.2byte	(.L86-.L58)/2
 780 00a0 9204     		.2byte	(.L87-.L58)/2
 781 00a2 B204     		.2byte	(.L88-.L58)/2
 782 00a4 7105     		.2byte	(.L89-.L58)/2
 783 00a6 2C06     		.2byte	(.L90-.L58)/2
 784 00a8 4A06     		.2byte	(.L91-.L58)/2
 785 00aa 1C07     		.2byte	(.L92-.L58)/2
 786 00ac E907     		.2byte	(.L93-.L58)/2
 787 00ae BA08     		.2byte	(.L94-.L58)/2
 788 00b0 8709     		.2byte	(.L95-.L58)/2
 789 00b2 430B     		.2byte	(.L56-.L58)/2
 790 00b4 430B     		.2byte	(.L56-.L58)/2
 791 00b6 430B     		.2byte	(.L56-.L58)/2
 792 00b8 430B     		.2byte	(.L56-.L58)/2
 793 00ba 430B     		.2byte	(.L56-.L58)/2
 794 00bc B309     		.2byte	(.L96-.L58)/2
 795 00be DB09     		.2byte	(.L97-.L58)/2
 796 00c0 040A     		.2byte	(.L98-.L58)/2
 797 00c2 340A     		.2byte	(.L99-.L58)/2
 798 00c4 530A     		.2byte	(.L100-.L58)/2
 799 00c6 430B     		.2byte	(.L56-.L58)/2
 800 00c8 7C0A     		.2byte	(.L101-.L58)/2
ARM GAS  C:\Users\164\AppData\Local\Temp\ccd4XrSZ.s 			page 50


 801 00ca 430B     		.2byte	(.L56-.L58)/2
 802 00cc A20A     		.2byte	(.L102-.L58)/2
 803 00ce C50A     		.2byte	(.L103-.L58)/2
 804 00d0 430B     		.2byte	(.L56-.L58)/2
 805 00d2 0C0B     		.2byte	(.L104-.L58)/2
 806 00d4 430B     		.2byte	(.L56-.L58)/2
 807 00d6 190B     		.2byte	(.L105-.L58)/2
 808 00d8 430B     		.2byte	(.L56-.L58)/2
 809 00da 430B     		.2byte	(.L56-.L58)/2
 810 00dc 430B     		.2byte	(.L56-.L58)/2
 811 00de 430B     		.2byte	(.L56-.L58)/2
 812 00e0 430B     		.2byte	(.L56-.L58)/2
 813 00e2 2E0B     		.2byte	(.L106-.L58)/2
 814              		.p2align 1
 815              	.L59:
 816              	.LVL96:
 817              	.LBB199:
 818              	.LBB200:
 173:vm.c          ****   int rb = GETARG_B(code);
 819              		.loc 1 173 0
 820 00e4 E70D     		lsrs	r7, r4, #23
 821              	.LVL97:
 174:vm.c          **** 
 822              		.loc 1 174 0
 823 00e6 C4F38834 		ubfx	r4, r4, #14, #9
 824              	.LVL98:
 176:vm.c          ****   mrbc_dup(&regs[rb]);
 825              		.loc 1 176 0
 826 00ea 06EB0717 		add	r7, r6, r7, lsl #4
 827              	.LVL99:
 828 00ee 3846     		mov	r0, r7
 829 00f0 FFF7FEFF 		bl	mrbc_release
 830              	.LVL100:
 177:vm.c          ****   regs[ra] = regs[rb];
 831              		.loc 1 177 0
 832 00f4 06EB0416 		add	r6, r6, r4, lsl #4
 833              	.LVL101:
 834 00f8 3046     		mov	r0, r6
 835 00fa FFF7FEFF 		bl	mrbc_dup
 836              	.LVL102:
 178:vm.c          **** 
 837              		.loc 1 178 0
 838 00fe 96E80F00 		ldmia	r6, {r0, r1, r2, r3}
 839 0102 87E80F00 		stmia	r7, {r0, r1, r2, r3}
 840              	.LVL103:
 841              	.LBE200:
 842              	.LBE199:
1805:vm.c          ****     case OP_NOP:        ret = op_nop       (vm, code, regs); break;
1806:vm.c          ****     case OP_MOVE:       ret = op_move      (vm, code, regs); break;
 843              		.loc 1 1806 0
 844 0106 0027     		movs	r7, #0
 845 0108 01F0EBBA 		b	.L57
 846              	.LVL104:
 847              	.L60:
 848              	.LBB201:
 849              	.LBB202:
 197:vm.c          ****   int rb = GETARG_Bx(code);
ARM GAS  C:\Users\164\AppData\Local\Temp\ccd4XrSZ.s 			page 51


 850              		.loc 1 197 0
 851 010c E30D     		lsrs	r3, r4, #23
 852              	.LVL105:
 198:vm.c          **** 
 853              		.loc 1 198 0
 854 010e C4F3CF14 		ubfx	r4, r4, #7, #16
 855              	.LVL106:
 200:vm.c          **** 
 856              		.loc 1 200 0
 857 0112 06EB0316 		add	r6, r6, r3, lsl #4
 858              	.LVL107:
 859 0116 3046     		mov	r0, r6
 860 0118 FFF7FEFF 		bl	mrbc_release
 861              	.LVL108:
 204:vm.c          ****   regs[ra] = *pool_obj;
 862              		.loc 1 204 0
 863 011c EB68     		ldr	r3, [r5, #12]
 864 011e 1B69     		ldr	r3, [r3, #16]
 865 0120 53F82430 		ldr	r3, [r3, r4, lsl #2]
 866              	.LVL109:
 205:vm.c          **** 
 867              		.loc 1 205 0
 868 0124 0FCB     		ldmia	r3, {r0, r1, r2, r3}
 869              	.LVL110:
 870 0126 86E80F00 		stmia	r6, {r0, r1, r2, r3}
 871              	.LVL111:
 872              	.LBE202:
 873              	.LBE201:
1807:vm.c          ****     case OP_LOADL:      ret = op_loadl     (vm, code, regs); break;
 874              		.loc 1 1807 0
 875 012a 0027     		movs	r7, #0
 876 012c 01F0D9BA 		b	.L57
 877              	.LVL112:
 878              	.L61:
 879              	.LBB203:
 880              	.LBB204:
 224:vm.c          **** 
 881              		.loc 1 224 0
 882 0130 E70D     		lsrs	r7, r4, #23
 883              	.LVL113:
 226:vm.c          ****   regs[ra].tt = MRBC_TT_FIXNUM;
 884              		.loc 1 226 0
 885 0132 3F01     		lsls	r7, r7, #4
 886              	.LVL114:
 887 0134 06EB0708 		add	r8, r6, r7
 888 0138 4046     		mov	r0, r8
 889 013a FFF7FEFF 		bl	mrbc_release
 890              	.LVL115:
 227:vm.c          ****   regs[ra].i = GETARG_sBx(code);
 891              		.loc 1 227 0
 892 013e 0423     		movs	r3, #4
 893 0140 F355     		strb	r3, [r6, r7]
 228:vm.c          **** 
 894              		.loc 1 228 0
 895 0142 C4F3CF14 		ubfx	r4, r4, #7, #16
 896              	.LVL116:
 897 0146 A4F5FF44 		sub	r4, r4, #32640
ARM GAS  C:\Users\164\AppData\Local\Temp\ccd4XrSZ.s 			page 52


 898 014a 7F3C     		subs	r4, r4, #127
 899 014c C8F80840 		str	r4, [r8, #8]
 900              	.LVL117:
 901              	.LBE204:
 902              	.LBE203:
1808:vm.c          ****     case OP_LOADI:      ret = op_loadi     (vm, code, regs); break;
 903              		.loc 1 1808 0
 904 0150 0027     		movs	r7, #0
 905 0152 01F0C6BA 		b	.L57
 906              	.LVL118:
 907              	.L62:
 908              	.LBB205:
 909              	.LBB206:
 247:vm.c          ****   int rb = GETARG_Bx(code);
 910              		.loc 1 247 0
 911 0156 E70D     		lsrs	r7, r4, #23
 912              	.LVL119:
 249:vm.c          ****   mrbc_sym sym_id = str_to_symid(sym_name);
 913              		.loc 1 249 0
 914 0158 EB68     		ldr	r3, [r5, #12]
 915              	.LVL120:
 916 015a C4F3CF11 		ubfx	r1, r4, #7, #16
 917              	.LVL121:
 918 015e 5869     		ldr	r0, [r3, #20]
 919 0160 FFF7FEFF 		bl	mrbc_get_irep_symbol
 920              	.LVL122:
 250:vm.c          **** 
 921              		.loc 1 250 0
 922 0164 FFF7FEFF 		bl	str_to_symid
 923              	.LVL123:
 924 0168 8046     		mov	r8, r0
 925              	.LVL124:
 252:vm.c          ****   regs[ra].tt = MRBC_TT_SYMBOL;
 926              		.loc 1 252 0
 927 016a 3C01     		lsls	r4, r7, #4
 928              	.LVL125:
 929 016c 3719     		adds	r7, r6, r4
 930              	.LVL126:
 931 016e 3846     		mov	r0, r7
 932 0170 FFF7FEFF 		bl	mrbc_release
 933              	.LVL127:
 253:vm.c          ****   regs[ra].i = sym_id;
 934              		.loc 1 253 0
 935 0174 0623     		movs	r3, #6
 936 0176 3355     		strb	r3, [r6, r4]
 254:vm.c          **** 
 937              		.loc 1 254 0
 938 0178 C7F80880 		str	r8, [r7, #8]
 939              	.LVL128:
 940              	.LBE206:
 941              	.LBE205:
1809:vm.c          ****     case OP_LOADSYM:    ret = op_loadsym   (vm, code, regs); break;
 942              		.loc 1 1809 0
 943 017c 0027     		movs	r7, #0
 944 017e 01F0B0BA 		b	.L57
 945              	.LVL129:
 946              	.L63:
ARM GAS  C:\Users\164\AppData\Local\Temp\ccd4XrSZ.s 			page 53


 947              	.LBB207:
 948              	.LBB208:
 273:vm.c          **** 
 949              		.loc 1 273 0
 950 0182 E40D     		lsrs	r4, r4, #23
 951              	.LVL130:
 275:vm.c          ****   regs[ra].tt = MRBC_TT_NIL;
 952              		.loc 1 275 0
 953 0184 2401     		lsls	r4, r4, #4
 954              	.LVL131:
 955 0186 3019     		adds	r0, r6, r4
 956 0188 FFF7FEFF 		bl	mrbc_release
 957              	.LVL132:
 276:vm.c          **** 
 958              		.loc 1 276 0
 959 018c 0123     		movs	r3, #1
 960 018e 3355     		strb	r3, [r6, r4]
 961              	.LVL133:
 962              	.LBE208:
 963              	.LBE207:
1810:vm.c          ****     case OP_LOADNIL:    ret = op_loadnil   (vm, code, regs); break;
 964              		.loc 1 1810 0
 965 0190 0027     		movs	r7, #0
 966 0192 01F0A6BA 		b	.L57
 967              	.LVL134:
 968              	.L64:
 969              	.LBB209:
 970              	.LBB210:
 295:vm.c          **** 
 971              		.loc 1 295 0
 972 0196 E40D     		lsrs	r4, r4, #23
 973              	.LVL135:
 297:vm.c          ****   mrbc_dup(&regs[0]);       // TODO: Need?
 974              		.loc 1 297 0
 975 0198 06EB0414 		add	r4, r6, r4, lsl #4
 976              	.LVL136:
 977 019c 2046     		mov	r0, r4
 978 019e FFF7FEFF 		bl	mrbc_release
 979              	.LVL137:
 298:vm.c          ****   regs[ra] = regs[0];
 980              		.loc 1 298 0
 981 01a2 3046     		mov	r0, r6
 982 01a4 FFF7FEFF 		bl	mrbc_dup
 983              	.LVL138:
 299:vm.c          **** 
 984              		.loc 1 299 0
 985 01a8 96E80F00 		ldmia	r6, {r0, r1, r2, r3}
 986 01ac 84E80F00 		stmia	r4, {r0, r1, r2, r3}
 987              	.LVL139:
 988              	.LBE210:
 989              	.LBE209:
1811:vm.c          ****     case OP_LOADSELF:   ret = op_loadself  (vm, code, regs); break;
 990              		.loc 1 1811 0
 991 01b0 0027     		movs	r7, #0
 992 01b2 01F096BA 		b	.L57
 993              	.LVL140:
 994              	.L65:
ARM GAS  C:\Users\164\AppData\Local\Temp\ccd4XrSZ.s 			page 54


 995              	.LBB211:
 996              	.LBB212:
 318:vm.c          **** 
 997              		.loc 1 318 0
 998 01b6 E40D     		lsrs	r4, r4, #23
 999              	.LVL141:
 320:vm.c          ****   regs[ra].tt = MRBC_TT_TRUE;
 1000              		.loc 1 320 0
 1001 01b8 2401     		lsls	r4, r4, #4
 1002              	.LVL142:
 1003 01ba 3019     		adds	r0, r6, r4
 1004 01bc FFF7FEFF 		bl	mrbc_release
 1005              	.LVL143:
 321:vm.c          **** 
 1006              		.loc 1 321 0
 1007 01c0 0323     		movs	r3, #3
 1008 01c2 3355     		strb	r3, [r6, r4]
 1009              	.LVL144:
 1010              	.LBE212:
 1011              	.LBE211:
1812:vm.c          ****     case OP_LOADT:      ret = op_loadt     (vm, code, regs); break;
 1012              		.loc 1 1812 0
 1013 01c4 0027     		movs	r7, #0
 1014 01c6 01F08CBA 		b	.L57
 1015              	.LVL145:
 1016              	.L66:
 1017              	.LBB213:
 1018              	.LBB214:
 340:vm.c          **** 
 1019              		.loc 1 340 0
 1020 01ca E40D     		lsrs	r4, r4, #23
 1021              	.LVL146:
 342:vm.c          ****   regs[ra].tt = MRBC_TT_FALSE;
 1022              		.loc 1 342 0
 1023 01cc 2401     		lsls	r4, r4, #4
 1024              	.LVL147:
 1025 01ce 3019     		adds	r0, r6, r4
 1026 01d0 FFF7FEFF 		bl	mrbc_release
 1027              	.LVL148:
 343:vm.c          **** 
 1028              		.loc 1 343 0
 1029 01d4 0223     		movs	r3, #2
 1030 01d6 3355     		strb	r3, [r6, r4]
 1031              	.LVL149:
 1032              	.LBE214:
 1033              	.LBE213:
1813:vm.c          ****     case OP_LOADF:      ret = op_loadf     (vm, code, regs); break;
 1034              		.loc 1 1813 0
 1035 01d8 0027     		movs	r7, #0
 1036 01da 01F082BA 		b	.L57
 1037              	.LVL150:
 1038              	.L67:
 1039              	.LBB215:
 1040              	.LBB216:
 362:vm.c          ****   int rb = GETARG_Bx(code);
 1041              		.loc 1 362 0
 1042 01de E70D     		lsrs	r7, r4, #23
ARM GAS  C:\Users\164\AppData\Local\Temp\ccd4XrSZ.s 			page 55


 1043              	.LVL151:
 364:vm.c          ****   mrbc_sym sym_id = str_to_symid(sym_name);
 1044              		.loc 1 364 0
 1045 01e0 EB68     		ldr	r3, [r5, #12]
 1046              	.LVL152:
 1047 01e2 C4F3CF11 		ubfx	r1, r4, #7, #16
 1048              	.LVL153:
 1049 01e6 5869     		ldr	r0, [r3, #20]
 1050 01e8 FFF7FEFF 		bl	mrbc_get_irep_symbol
 1051              	.LVL154:
 365:vm.c          **** 
 1052              		.loc 1 365 0
 1053 01ec FFF7FEFF 		bl	str_to_symid
 1054              	.LVL155:
 1055 01f0 8046     		mov	r8, r0
 1056              	.LVL156:
 367:vm.c          ****   regs[ra] = global_object_get(sym_id);
 1057              		.loc 1 367 0
 1058 01f2 06EB0716 		add	r6, r6, r7, lsl #4
 1059              	.LVL157:
 1060 01f6 3046     		mov	r0, r6
 1061 01f8 FFF7FEFF 		bl	mrbc_release
 1062              	.LVL158:
 368:vm.c          **** 
 1063              		.loc 1 368 0
 1064 01fc 04AC     		add	r4, sp, #16
 1065              	.LVL159:
 1066 01fe 4146     		mov	r1, r8
 1067 0200 2046     		mov	r0, r4
 1068 0202 FFF7FEFF 		bl	global_object_get
 1069              	.LVL160:
 1070 0206 94E80F00 		ldmia	r4, {r0, r1, r2, r3}
 1071 020a 86E80F00 		stmia	r6, {r0, r1, r2, r3}
 1072              	.LVL161:
 1073              	.LBE216:
 1074              	.LBE215:
1814:vm.c          ****     case OP_GETGLOBAL:  ret = op_getglobal (vm, code, regs); break;
 1075              		.loc 1 1814 0
 1076 020e 0027     		movs	r7, #0
 1077              	.LVL162:
 1078 0210 01F067BA 		b	.L57
 1079              	.LVL163:
 1080              	.L68:
 1081              	.LBB217:
 1082              	.LBB218:
 387:vm.c          ****   int rb = GETARG_Bx(code);
 1083              		.loc 1 387 0
 1084 0214 E70D     		lsrs	r7, r4, #23
 1085              	.LVL164:
 389:vm.c          ****   mrbc_sym sym_id = str_to_symid(sym_name);
 1086              		.loc 1 389 0
 1087 0216 EB68     		ldr	r3, [r5, #12]
 1088              	.LVL165:
 1089 0218 C4F3CF11 		ubfx	r1, r4, #7, #16
 1090              	.LVL166:
 1091 021c 5869     		ldr	r0, [r3, #20]
 1092 021e FFF7FEFF 		bl	mrbc_get_irep_symbol
ARM GAS  C:\Users\164\AppData\Local\Temp\ccd4XrSZ.s 			page 56


 1093              	.LVL167:
 390:vm.c          ****   global_object_add(sym_id, regs[ra]);
 1094              		.loc 1 390 0
 1095 0222 FFF7FEFF 		bl	str_to_symid
 1096              	.LVL168:
 1097 0226 0446     		mov	r4, r0
 1098              	.LVL169:
 391:vm.c          **** 
 1099              		.loc 1 391 0
 1100 0228 06EB0716 		add	r6, r6, r7, lsl #4
 1101              	.LVL170:
 1102 022c 06F10803 		add	r3, r6, #8
 1103 0230 93E80300 		ldmia	r3, {r0, r1}
 1104 0234 8DE80300 		stmia	sp, {r0, r1}
 1105 0238 96E80C00 		ldmia	r6, {r2, r3}
 1106 023c 2046     		mov	r0, r4
 1107 023e FFF7FEFF 		bl	global_object_add
 1108              	.LVL171:
 1109              	.LBE218:
 1110              	.LBE217:
1815:vm.c          ****     case OP_SETGLOBAL:  ret = op_setglobal (vm, code, regs); break;
 1111              		.loc 1 1815 0
 1112 0242 0027     		movs	r7, #0
 1113              	.LVL172:
 1114 0244 01F04DBA 		b	.L57
 1115              	.LVL173:
 1116              	.L69:
 1117              	.LBB219:
 1118              	.LBB220:
 410:vm.c          ****   int rb = GETARG_Bx(code);
 1119              		.loc 1 410 0
 1120 0248 E70D     		lsrs	r7, r4, #23
 1121              	.LVL174:
 413:vm.c          ****   mrbc_sym sym_id = str_to_symid(sym_name+1);	// skip '@'
 1122              		.loc 1 413 0
 1123 024a EB68     		ldr	r3, [r5, #12]
 1124              	.LVL175:
 1125 024c C4F3CF11 		ubfx	r1, r4, #7, #16
 1126              	.LVL176:
 1127 0250 5869     		ldr	r0, [r3, #20]
 1128 0252 FFF7FEFF 		bl	mrbc_get_irep_symbol
 1129              	.LVL177:
 414:vm.c          **** 
 1130              		.loc 1 414 0
 1131 0256 0130     		adds	r0, r0, #1
 1132              	.LVL178:
 1133 0258 FFF7FEFF 		bl	str_to_symid
 1134              	.LVL179:
 416:vm.c          **** 
 1135              		.loc 1 416 0
 1136 025c 08AC     		add	r4, sp, #32
 1137              	.LVL180:
 1138 025e 0246     		mov	r2, r0
 1139 0260 3146     		mov	r1, r6
 1140 0262 2046     		mov	r0, r4
 1141              	.LVL181:
 1142 0264 FFF7FEFF 		bl	mrbc_instance_getiv
ARM GAS  C:\Users\164\AppData\Local\Temp\ccd4XrSZ.s 			page 57


 1143              	.LVL182:
 418:vm.c          ****   regs[ra] = val;
 1144              		.loc 1 418 0
 1145 0268 06EB0716 		add	r6, r6, r7, lsl #4
 1146              	.LVL183:
 1147 026c 3046     		mov	r0, r6
 1148 026e FFF7FEFF 		bl	mrbc_release
 1149              	.LVL184:
 419:vm.c          **** 
 1150              		.loc 1 419 0
 1151 0272 94E80F00 		ldmia	r4, {r0, r1, r2, r3}
 1152 0276 86E80F00 		stmia	r6, {r0, r1, r2, r3}
 1153              	.LVL185:
 1154              	.LBE220:
 1155              	.LBE219:
1816:vm.c          ****     case OP_GETIV:      ret = op_getiv     (vm, code, regs); break;
 1156              		.loc 1 1816 0
 1157 027a 0027     		movs	r7, #0
 1158              	.LVL186:
 1159 027c 01F031BA 		b	.L57
 1160              	.LVL187:
 1161              	.L70:
 1162              	.LBB221:
 1163              	.LBB222:
 438:vm.c          ****   int rb = GETARG_Bx(code);
 1164              		.loc 1 438 0
 1165 0280 E70D     		lsrs	r7, r4, #23
 1166              	.LVL188:
 441:vm.c          ****   mrbc_sym sym_id = str_to_symid(sym_name+1);	// skip '@'
 1167              		.loc 1 441 0
 1168 0282 EB68     		ldr	r3, [r5, #12]
 1169              	.LVL189:
 1170 0284 C4F3CF11 		ubfx	r1, r4, #7, #16
 1171              	.LVL190:
 1172 0288 5869     		ldr	r0, [r3, #20]
 1173 028a FFF7FEFF 		bl	mrbc_get_irep_symbol
 1174              	.LVL191:
 442:vm.c          **** 
 1175              		.loc 1 442 0
 1176 028e 0130     		adds	r0, r0, #1
 1177              	.LVL192:
 1178 0290 FFF7FEFF 		bl	str_to_symid
 1179              	.LVL193:
 444:vm.c          **** 
 1180              		.loc 1 444 0
 1181 0294 06EB0712 		add	r2, r6, r7, lsl #4
 1182 0298 0146     		mov	r1, r0
 1183 029a 3046     		mov	r0, r6
 1184              	.LVL194:
 1185 029c FFF7FEFF 		bl	mrbc_instance_setiv
 1186              	.LVL195:
 1187              	.LBE222:
 1188              	.LBE221:
1817:vm.c          ****     case OP_SETIV:      ret = op_setiv     (vm, code, regs); break;
 1189              		.loc 1 1817 0
 1190 02a0 0027     		movs	r7, #0
 1191              	.LVL196:
ARM GAS  C:\Users\164\AppData\Local\Temp\ccd4XrSZ.s 			page 58


 1192 02a2 01F01EBA 		b	.L57
 1193              	.LVL197:
 1194              	.L71:
 1195              	.LBB223:
 1196              	.LBB224:
 463:vm.c          ****   int rb = GETARG_Bx(code);
 1197              		.loc 1 463 0
 1198 02a6 E70D     		lsrs	r7, r4, #23
 1199              	.LVL198:
 465:vm.c          ****   mrbc_sym sym_id = str_to_symid(sym_name);
 1200              		.loc 1 465 0
 1201 02a8 EB68     		ldr	r3, [r5, #12]
 1202              	.LVL199:
 1203 02aa C4F3CF11 		ubfx	r1, r4, #7, #16
 1204              	.LVL200:
 1205 02ae 5869     		ldr	r0, [r3, #20]
 1206 02b0 FFF7FEFF 		bl	mrbc_get_irep_symbol
 1207              	.LVL201:
 466:vm.c          **** 
 1208              		.loc 1 466 0
 1209 02b4 FFF7FEFF 		bl	str_to_symid
 1210              	.LVL202:
 1211 02b8 8046     		mov	r8, r0
 1212              	.LVL203:
 468:vm.c          ****   regs[ra] = const_object_get(sym_id);
 1213              		.loc 1 468 0
 1214 02ba 06EB0716 		add	r6, r6, r7, lsl #4
 1215              	.LVL204:
 1216 02be 3046     		mov	r0, r6
 1217 02c0 FFF7FEFF 		bl	mrbc_release
 1218              	.LVL205:
 469:vm.c          **** 
 1219              		.loc 1 469 0
 1220 02c4 04AC     		add	r4, sp, #16
 1221              	.LVL206:
 1222 02c6 4146     		mov	r1, r8
 1223 02c8 2046     		mov	r0, r4
 1224 02ca FFF7FEFF 		bl	const_object_get
 1225              	.LVL207:
 1226 02ce 94E80F00 		ldmia	r4, {r0, r1, r2, r3}
 1227 02d2 86E80F00 		stmia	r6, {r0, r1, r2, r3}
 1228              	.LVL208:
 1229              	.LBE224:
 1230              	.LBE223:
1818:vm.c          ****     case OP_GETCONST:   ret = op_getconst  (vm, code, regs); break;
 1231              		.loc 1 1818 0
 1232 02d6 0027     		movs	r7, #0
 1233              	.LVL209:
 1234 02d8 01F003BA 		b	.L57
 1235              	.LVL210:
 1236              	.L72:
 1237              	.LBB225:
 1238              	.LBB226:
 488:vm.c          ****   int rb = GETARG_Bx(code);
 1239              		.loc 1 488 0
 1240 02dc E70D     		lsrs	r7, r4, #23
 1241              	.LVL211:
ARM GAS  C:\Users\164\AppData\Local\Temp\ccd4XrSZ.s 			page 59


 490:vm.c          ****   mrbc_sym sym_id = str_to_symid(sym_name);
 1242              		.loc 1 490 0
 1243 02de EB68     		ldr	r3, [r5, #12]
 1244              	.LVL212:
 1245 02e0 C4F3CF11 		ubfx	r1, r4, #7, #16
 1246              	.LVL213:
 1247 02e4 5869     		ldr	r0, [r3, #20]
 1248 02e6 FFF7FEFF 		bl	mrbc_get_irep_symbol
 1249              	.LVL214:
 491:vm.c          ****   const_object_add(sym_id, &regs[ra]);
 1250              		.loc 1 491 0
 1251 02ea FFF7FEFF 		bl	str_to_symid
 1252              	.LVL215:
 492:vm.c          **** 
 1253              		.loc 1 492 0
 1254 02ee 06EB0711 		add	r1, r6, r7, lsl #4
 1255 02f2 FFF7FEFF 		bl	const_object_add
 1256              	.LVL216:
 1257              	.LBE226:
 1258              	.LBE225:
1819:vm.c          ****     case OP_SETCONST:   ret = op_setconst  (vm, code, regs); break;
 1259              		.loc 1 1819 0
 1260 02f6 0027     		movs	r7, #0
 1261              	.LVL217:
 1262 02f8 01F0F3B9 		b	.L57
 1263              	.LVL218:
 1264              	.L73:
 1265              	.LBB227:
 1266              	.LBB228:
 512:vm.c          ****   int rb = GETARG_B(code);
 1267              		.loc 1 512 0
 1268 02fc E10D     		lsrs	r1, r4, #23
 1269              	.LVL219:
 513:vm.c          ****   int rc = GETARG_C(code);   // UP
 1270              		.loc 1 513 0
 1271 02fe C4F38837 		ubfx	r7, r4, #14, #9
 1272              	.LVL220:
 514:vm.c          ****   mrbc_callinfo *callinfo = vm->callinfo_tail;
 1273              		.loc 1 514 0
 1274 0302 C4F3C613 		ubfx	r3, r4, #7, #7
 1275              	.LVL221:
 515:vm.c          **** 
 1276              		.loc 1 515 0
 1277 0306 D5F85C26 		ldr	r2, [r5, #1628]
 1278              	.LVL222:
 518:vm.c          ****   while( n > 0 ){
 1279              		.loc 1 518 0
 1280 030a 5B00     		lsls	r3, r3, #1
 1281              	.LVL223:
 1282 030c 0133     		adds	r3, r3, #1
 1283              	.LVL224:
 1284 030e 01E0     		b	.L107
 1285              	.L108:
 520:vm.c          ****     n--;
 1286              		.loc 1 520 0
 1287 0310 1268     		ldr	r2, [r2]
 1288              	.LVL225:
ARM GAS  C:\Users\164\AppData\Local\Temp\ccd4XrSZ.s 			page 60


 521:vm.c          ****   }
 1289              		.loc 1 521 0
 1290 0312 013B     		subs	r3, r3, #1
 1291              	.LVL226:
 1292              	.L107:
 519:vm.c          ****     callinfo = callinfo->prev;
 1293              		.loc 1 519 0
 1294 0314 002B     		cmp	r3, #0
 1295 0316 FBDC     		bgt	.L108
 524:vm.c          **** 
 1296              		.loc 1 524 0
 1297 0318 D468     		ldr	r4, [r2, #12]
 1298              	.LVL227:
 526:vm.c          ****   mrbc_dup( &up_regs[rb] );
 1299              		.loc 1 526 0
 1300 031a 06EB0116 		add	r6, r6, r1, lsl #4
 1301              	.LVL228:
 1302 031e 3046     		mov	r0, r6
 1303 0320 FFF7FEFF 		bl	mrbc_release
 1304              	.LVL229:
 527:vm.c          ****   regs[ra] = up_regs[rb];
 1305              		.loc 1 527 0
 1306 0324 04EB0717 		add	r7, r4, r7, lsl #4
 1307              	.LVL230:
 1308 0328 3846     		mov	r0, r7
 1309 032a FFF7FEFF 		bl	mrbc_dup
 1310              	.LVL231:
 528:vm.c          **** 
 1311              		.loc 1 528 0
 1312 032e 97E80F00 		ldmia	r7, {r0, r1, r2, r3}
 1313 0332 86E80F00 		stmia	r6, {r0, r1, r2, r3}
 1314              	.LVL232:
 1315              	.LBE228:
 1316              	.LBE227:
1820:vm.c          ****     case OP_GETUPVAR:   ret = op_getupvar  (vm, code, regs); break;
 1317              		.loc 1 1820 0
 1318 0336 0027     		movs	r7, #0
 1319 0338 01F0D3B9 		b	.L57
 1320              	.LVL233:
 1321              	.L74:
 1322              	.LBB229:
 1323              	.LBB230:
 548:vm.c          ****   int rb = GETARG_B(code);
 1324              		.loc 1 548 0
 1325 033c E70D     		lsrs	r7, r4, #23
 1326              	.LVL234:
 549:vm.c          ****   int rc = GETARG_C(code);   // UP
 1327              		.loc 1 549 0
 1328 033e C4F38831 		ubfx	r1, r4, #14, #9
 1329              	.LVL235:
 550:vm.c          ****   mrbc_callinfo *callinfo = vm->callinfo_tail;
 1330              		.loc 1 550 0
 1331 0342 C4F3C613 		ubfx	r3, r4, #7, #7
 1332              	.LVL236:
 551:vm.c          **** 
 1333              		.loc 1 551 0
 1334 0346 D5F85C26 		ldr	r2, [r5, #1628]
ARM GAS  C:\Users\164\AppData\Local\Temp\ccd4XrSZ.s 			page 61


 1335              	.LVL237:
 554:vm.c          ****   while( n > 0 ){
 1336              		.loc 1 554 0
 1337 034a 5B00     		lsls	r3, r3, #1
 1338              	.LVL238:
 1339 034c 0133     		adds	r3, r3, #1
 1340              	.LVL239:
 1341 034e 01E0     		b	.L109
 1342              	.L110:
 556:vm.c          ****     n--;
 1343              		.loc 1 556 0
 1344 0350 1268     		ldr	r2, [r2]
 1345              	.LVL240:
 557:vm.c          ****   }
 1346              		.loc 1 557 0
 1347 0352 013B     		subs	r3, r3, #1
 1348              	.LVL241:
 1349              	.L109:
 555:vm.c          ****     callinfo = callinfo->prev;
 1350              		.loc 1 555 0
 1351 0354 002B     		cmp	r3, #0
 1352 0356 FBDC     		bgt	.L110
 560:vm.c          **** 
 1353              		.loc 1 560 0
 1354 0358 D368     		ldr	r3, [r2, #12]
 1355              	.LVL242:
 562:vm.c          ****   mrbc_dup( &regs[ra] );
 1356              		.loc 1 562 0
 1357 035a 03EB0114 		add	r4, r3, r1, lsl #4
 1358              	.LVL243:
 1359 035e 2046     		mov	r0, r4
 1360 0360 FFF7FEFF 		bl	mrbc_release
 1361              	.LVL244:
 563:vm.c          ****   up_regs[rb] = regs[ra];
 1362              		.loc 1 563 0
 1363 0364 06EB0716 		add	r6, r6, r7, lsl #4
 1364              	.LVL245:
 1365 0368 3046     		mov	r0, r6
 1366 036a FFF7FEFF 		bl	mrbc_dup
 1367              	.LVL246:
 564:vm.c          **** 
 1368              		.loc 1 564 0
 1369 036e 96E80F00 		ldmia	r6, {r0, r1, r2, r3}
 1370 0372 84E80F00 		stmia	r4, {r0, r1, r2, r3}
 1371              	.LVL247:
 1372              	.LBE230:
 1373              	.LBE229:
1821:vm.c          ****     case OP_SETUPVAR:   ret = op_setupvar  (vm, code, regs); break;
 1374              		.loc 1 1821 0
 1375 0376 0027     		movs	r7, #0
 1376              	.LVL248:
 1377 0378 01F0B3B9 		b	.L57
 1378              	.LVL249:
 1379              	.L75:
 1380              	.LBB231:
 1381              	.LBB232:
 584:vm.c          ****   return 0;
ARM GAS  C:\Users\164\AppData\Local\Temp\ccd4XrSZ.s 			page 62


 1382              		.loc 1 584 0
 1383 037c 02EBD412 		add	r2, r2, r4, lsr #7
 1384 0380 A2F50042 		sub	r2, r2, #32768
 1385 0384 2A82     		strh	r2, [r5, #16]	@ movhi
 1386              	.LVL250:
 1387              	.LBE232:
 1388              	.LBE231:
1822:vm.c          ****     case OP_JMP:        ret = op_jmp       (vm, code, regs); break;
 1389              		.loc 1 1822 0
 1390 0386 0027     		movs	r7, #0
 1391 0388 01F0ABB9 		b	.L57
 1392              	.LVL251:
 1393              	.L76:
 1394              	.LBB233:
 1395              	.LBB234:
 602:vm.c          ****     vm->pc += GETARG_sBx(code) - 1;
 1396              		.loc 1 602 0
 1397 038c E30D     		lsrs	r3, r4, #23
 1398              	.LVL252:
 1399 038e 1B01     		lsls	r3, r3, #4
 1400 0390 F356     		ldrsb	r3, [r6, r3]
 1401 0392 022B     		cmp	r3, #2
 1402 0394 41F3A081 		ble	.L281
 603:vm.c          ****   }
 1403              		.loc 1 603 0
 1404 0398 02EBD413 		add	r3, r2, r4, lsr #7
 1405 039c A3F50043 		sub	r3, r3, #32768
 1406 03a0 2B82     		strh	r3, [r5, #16]	@ movhi
 1407              	.LBE234:
 1408              	.LBE233:
1823:vm.c          ****     case OP_JMPIF:      ret = op_jmpif     (vm, code, regs); break;
 1409              		.loc 1 1823 0
 1410 03a2 0027     		movs	r7, #0
 1411              	.LVL253:
 1412 03a4 01F09DB9 		b	.L57
 1413              	.LVL254:
 1414              	.L77:
 1415              	.LBB235:
 1416              	.LBB236:
 622:vm.c          ****     vm->pc += GETARG_sBx(code) - 1;
 1417              		.loc 1 622 0
 1418 03a8 E30D     		lsrs	r3, r4, #23
 1419              	.LVL255:
 1420 03aa 1B01     		lsls	r3, r3, #4
 1421 03ac F356     		ldrsb	r3, [r6, r3]
 1422 03ae 022B     		cmp	r3, #2
 1423 03b0 01F39481 		bgt	.L282
 623:vm.c          ****   }
 1424              		.loc 1 623 0
 1425 03b4 02EBD413 		add	r3, r2, r4, lsr #7
 1426 03b8 A3F50043 		sub	r3, r3, #32768
 1427 03bc 2B82     		strh	r3, [r5, #16]	@ movhi
 1428              	.LBE236:
 1429              	.LBE235:
1824:vm.c          ****     case OP_JMPNOT:     ret = op_jmpnot    (vm, code, regs); break;
 1430              		.loc 1 1824 0
 1431 03be 0027     		movs	r7, #0
ARM GAS  C:\Users\164\AppData\Local\Temp\ccd4XrSZ.s 			page 63


 1432              	.LVL256:
 1433 03c0 01F08FB9 		b	.L57
 1434              	.LVL257:
 1435              	.L78:
 1436              	.LBB237:
 1437              	.LBB238:
 643:vm.c          ****   int rb = GETARG_B(code);  // index of method sym
 1438              		.loc 1 643 0
 1439 03c4 E70D     		lsrs	r7, r4, #23
 1440              	.LVL258:
 644:vm.c          ****   int rc = GETARG_C(code);  // number of params
 1441              		.loc 1 644 0
 1442 03c6 C4F38833 		ubfx	r3, r4, #14, #9
 1443              	.LVL259:
 1444 03ca 0293     		str	r3, [sp, #8]
 1445              	.LVL260:
 645:vm.c          ****   mrbc_value recv = regs[ra];
 1446              		.loc 1 645 0
 1447 03cc C4F3C61B 		ubfx	fp, r4, #7, #7
 1448              	.LVL261:
 646:vm.c          **** 
 1449              		.loc 1 646 0
 1450 03d0 4FEA071A 		lsl	r10, r7, #4
 1451 03d4 06EB0A09 		add	r9, r6, r10
 1452 03d8 99E80F00 		ldmia	r9, {r0, r1, r2, r3}
 1453              	.LVL262:
 1454 03dc 0DF1300E 		add	lr, sp, #48
 1455 03e0 0EE90F00 		stmdb	lr, {r0, r1, r2, r3}
 649:vm.c          ****   switch( GET_OPCODE(code) ) {
 1456              		.loc 1 649 0
 1457 03e4 07EB0B08 		add	r8, r7, fp
 1458 03e8 08F10108 		add	r8, r8, #1
 1459              	.LVL263:
 650:vm.c          ****   case OP_SEND:
 1460              		.loc 1 650 0
 1461 03ec 04F07F04 		and	r4, r4, #127
 1462              	.LVL264:
 1463 03f0 202C     		cmp	r4, #32
 1464 03f2 02D0     		beq	.L112
 1465 03f4 212C     		cmp	r4, #33
 1466 03f6 08D0     		beq	.L113
 1467 03f8 0EE0     		b	.L111
 1468              	.L112:
 653:vm.c          ****     regs[bidx].tt = MRBC_TT_NIL;
 1469              		.loc 1 653 0
 1470 03fa 4FEA0814 		lsl	r4, r8, #4
 1471 03fe 3019     		adds	r0, r6, r4
 1472 0400 FFF7FEFF 		bl	mrbc_release
 1473              	.LVL265:
 654:vm.c          ****     break;
 1474              		.loc 1 654 0
 1475 0404 0123     		movs	r3, #1
 1476 0406 3355     		strb	r3, [r6, r4]
 1477 0408 06E0     		b	.L111
 1478              	.L113:
 659:vm.c          ****       // TODO: fix the following behavior
 1479              		.loc 1 659 0
ARM GAS  C:\Users\164\AppData\Local\Temp\ccd4XrSZ.s 			page 64


 1480 040a 4FEA0813 		lsl	r3, r8, #4
 1481 040e F356     		ldrsb	r3, [r6, r3]
 1482 0410 012B     		cmp	r3, #1
 1483 0412 01D0     		beq	.L111
 1484 0414 152B     		cmp	r3, #21
 1485 0416 40D1     		bne	.L114
 1486              	.L111:
 671:vm.c          ****   mrbc_sym sym_id = str_to_symid(sym_name);
 1487              		.loc 1 671 0
 1488 0418 EB68     		ldr	r3, [r5, #12]
 1489 041a 0299     		ldr	r1, [sp, #8]
 1490 041c 5869     		ldr	r0, [r3, #20]
 1491 041e FFF7FEFF 		bl	mrbc_get_irep_symbol
 1492              	.LVL266:
 1493 0422 0290     		str	r0, [sp, #8]
 1494              	.LVL267:
 672:vm.c          ****   mrbc_proc *m = find_method(vm, &recv, sym_id);
 1495              		.loc 1 672 0
 1496 0424 FFF7FEFF 		bl	str_to_symid
 1497              	.LVL268:
 673:vm.c          **** 
 1498              		.loc 1 673 0
 1499 0428 0246     		mov	r2, r0
 1500 042a 08A9     		add	r1, sp, #32
 1501 042c 2846     		mov	r0, r5
 1502              	.LVL269:
 1503 042e FFF7FEFF 		bl	find_method
 1504              	.LVL270:
 675:vm.c          ****     mrb_class *cls = find_class_by_object( vm, &recv );
 1505              		.loc 1 675 0
 1506 0432 0446     		mov	r4, r0
 1507 0434 68B9     		cbnz	r0, .L115
 1508              	.LBB239:
 676:vm.c          ****     console_printf("No method. Class:%s Method:%s\n",
 1509              		.loc 1 676 0
 1510 0436 08A9     		add	r1, sp, #32
 1511 0438 2846     		mov	r0, r5
 1512              	.LVL271:
 1513 043a FFF7FEFF 		bl	find_class_by_object
 1514              	.LVL272:
 677:vm.c          **** 		   symid_to_str(cls->sym_id), sym_name );
 1515              		.loc 1 677 0
 1516 043e B0F90000 		ldrsh	r0, [r0]
 1517              	.LVL273:
 1518 0442 FFF7FEFF 		bl	symid_to_str
 1519              	.LVL274:
 1520 0446 029A     		ldr	r2, [sp, #8]
 1521 0448 0146     		mov	r1, r0
 1522 044a C448     		ldr	r0, .L297
 1523 044c FFF7FEFF 		bl	console_printf
 1524              	.LVL275:
 1525 0450 23E0     		b	.L114
 1526              	.LVL276:
 1527              	.L115:
 1528              	.LBE239:
 683:vm.c          ****     m->func(vm, regs + ra, rc);
 1529              		.loc 1 683 0
ARM GAS  C:\Users\164\AppData\Local\Temp\ccd4XrSZ.s 			page 65


 1530 0452 C378     		ldrb	r3, [r0, #3]	@ zero_extendqisi2
 1531 0454 13F0010F 		tst	r3, #1
 1532 0458 12D0     		beq	.L116
 1533              	.LBB240:
 684:vm.c          **** 
 1534              		.loc 1 684 0
 1535 045a C368     		ldr	r3, [r0, #12]
 1536 045c 5A46     		mov	r2, fp
 1537 045e 4946     		mov	r1, r9
 1538 0460 2846     		mov	r0, r5
 1539              	.LVL277:
 1540 0462 9847     		blx	r3
 1541              	.LVL278:
 687:vm.c          **** 
 1542              		.loc 1 687 0
 1543 0464 E268     		ldr	r2, [r4, #12]
 1544 0466 BE4B     		ldr	r3, .L297+4
 1545 0468 9A42     		cmp	r2, r3
 1546 046a 16D0     		beq	.L114
 689:vm.c          ****     while( release_reg <= bidx ) {
 1547              		.loc 1 689 0
 1548 046c 0137     		adds	r7, r7, #1
 1549              	.LVL279:
 1550 046e 04E0     		b	.L117
 1551              	.LVL280:
 1552              	.L118:
 691:vm.c          ****       release_reg++;
 1553              		.loc 1 691 0
 1554 0470 06EB0710 		add	r0, r6, r7, lsl #4
 1555 0474 FFF7FEFF 		bl	mrbc_release
 1556              	.LVL281:
 692:vm.c          ****     }
 1557              		.loc 1 692 0
 1558 0478 0137     		adds	r7, r7, #1
 1559              	.LVL282:
 1560              	.L117:
 690:vm.c          ****       mrbc_release(&regs[release_reg]);
 1561              		.loc 1 690 0
 1562 047a B845     		cmp	r8, r7
 1563 047c F8DA     		bge	.L118
 1564 047e 0CE0     		b	.L114
 1565              	.LVL283:
 1566              	.L116:
 1567              	.LBE240:
 699:vm.c          **** 
 1568              		.loc 1 699 0
 1569 0480 5946     		mov	r1, fp
 1570 0482 2846     		mov	r0, r5
 1571              	.LVL284:
 1572 0484 FFF7FEFF 		bl	mrbc_push_callinfo
 1573              	.LVL285:
 702:vm.c          ****   vm->pc_irep = m->irep;
 1574              		.loc 1 702 0
 1575 0488 0023     		movs	r3, #0
 1576 048a 2B82     		strh	r3, [r5, #16]	@ movhi
 703:vm.c          **** 
 1577              		.loc 1 703 0
ARM GAS  C:\Users\164\AppData\Local\Temp\ccd4XrSZ.s 			page 66


 1578 048c E368     		ldr	r3, [r4, #12]
 1579 048e EB60     		str	r3, [r5, #12]
 706:vm.c          **** 
 1580              		.loc 1 706 0
 1581 0490 D5F85836 		ldr	r3, [r5, #1624]
 1582 0494 5344     		add	r3, r3, r10
 1583 0496 C5F85836 		str	r3, [r5, #1624]
 1584              	.LVL286:
 1585              	.L114:
 1586              	.LBE238:
 1587              	.LBE237:
1825:vm.c          ****     case OP_SEND:       ret = op_send      (vm, code, regs); break;
 1588              		.loc 1 1825 0
 1589 049a 0027     		movs	r7, #0
 1590 049c 01F021B9 		b	.L57
 1591              	.LVL287:
 1592              	.L79:
 1593              	.LBB241:
 1594              	.LBB242:
 643:vm.c          ****   int rb = GETARG_B(code);  // index of method sym
 1595              		.loc 1 643 0
 1596 04a0 E70D     		lsrs	r7, r4, #23
 1597              	.LVL288:
 644:vm.c          ****   int rc = GETARG_C(code);  // number of params
 1598              		.loc 1 644 0
 1599 04a2 C4F38833 		ubfx	r3, r4, #14, #9
 1600              	.LVL289:
 1601 04a6 0293     		str	r3, [sp, #8]
 1602              	.LVL290:
 645:vm.c          ****   mrbc_value recv = regs[ra];
 1603              		.loc 1 645 0
 1604 04a8 C4F3C61B 		ubfx	fp, r4, #7, #7
 1605              	.LVL291:
 646:vm.c          **** 
 1606              		.loc 1 646 0
 1607 04ac 4FEA071A 		lsl	r10, r7, #4
 1608 04b0 06EB0A09 		add	r9, r6, r10
 1609 04b4 99E80F00 		ldmia	r9, {r0, r1, r2, r3}
 1610              	.LVL292:
 1611 04b8 0DF1300E 		add	lr, sp, #48
 1612 04bc 0EE90F00 		stmdb	lr, {r0, r1, r2, r3}
 649:vm.c          ****   switch( GET_OPCODE(code) ) {
 1613              		.loc 1 649 0
 1614 04c0 07EB0B08 		add	r8, r7, fp
 1615 04c4 08F10108 		add	r8, r8, #1
 1616              	.LVL293:
 650:vm.c          ****   case OP_SEND:
 1617              		.loc 1 650 0
 1618 04c8 04F07F04 		and	r4, r4, #127
 1619              	.LVL294:
 1620 04cc 202C     		cmp	r4, #32
 1621 04ce 02D0     		beq	.L120
 1622 04d0 212C     		cmp	r4, #33
 1623 04d2 08D0     		beq	.L121
 1624 04d4 0EE0     		b	.L119
 1625              	.L120:
 653:vm.c          ****     regs[bidx].tt = MRBC_TT_NIL;
ARM GAS  C:\Users\164\AppData\Local\Temp\ccd4XrSZ.s 			page 67


 1626              		.loc 1 653 0
 1627 04d6 4FEA0814 		lsl	r4, r8, #4
 1628 04da 3019     		adds	r0, r6, r4
 1629 04dc FFF7FEFF 		bl	mrbc_release
 1630              	.LVL295:
 654:vm.c          ****     break;
 1631              		.loc 1 654 0
 1632 04e0 0123     		movs	r3, #1
 1633 04e2 3355     		strb	r3, [r6, r4]
 1634 04e4 06E0     		b	.L119
 1635              	.L121:
 659:vm.c          ****       // TODO: fix the following behavior
 1636              		.loc 1 659 0
 1637 04e6 4FEA0813 		lsl	r3, r8, #4
 1638 04ea F356     		ldrsb	r3, [r6, r3]
 1639 04ec 012B     		cmp	r3, #1
 1640 04ee 01D0     		beq	.L119
 1641 04f0 152B     		cmp	r3, #21
 1642 04f2 40D1     		bne	.L122
 1643              	.L119:
 671:vm.c          ****   mrbc_sym sym_id = str_to_symid(sym_name);
 1644              		.loc 1 671 0
 1645 04f4 EB68     		ldr	r3, [r5, #12]
 1646 04f6 0299     		ldr	r1, [sp, #8]
 1647 04f8 5869     		ldr	r0, [r3, #20]
 1648 04fa FFF7FEFF 		bl	mrbc_get_irep_symbol
 1649              	.LVL296:
 1650 04fe 0290     		str	r0, [sp, #8]
 1651              	.LVL297:
 672:vm.c          ****   mrbc_proc *m = find_method(vm, &recv, sym_id);
 1652              		.loc 1 672 0
 1653 0500 FFF7FEFF 		bl	str_to_symid
 1654              	.LVL298:
 673:vm.c          **** 
 1655              		.loc 1 673 0
 1656 0504 0246     		mov	r2, r0
 1657 0506 08A9     		add	r1, sp, #32
 1658 0508 2846     		mov	r0, r5
 1659              	.LVL299:
 1660 050a FFF7FEFF 		bl	find_method
 1661              	.LVL300:
 675:vm.c          ****     mrb_class *cls = find_class_by_object( vm, &recv );
 1662              		.loc 1 675 0
 1663 050e 0446     		mov	r4, r0
 1664 0510 68B9     		cbnz	r0, .L123
 1665              	.LBB243:
 676:vm.c          ****     console_printf("No method. Class:%s Method:%s\n",
 1666              		.loc 1 676 0
 1667 0512 08A9     		add	r1, sp, #32
 1668 0514 2846     		mov	r0, r5
 1669              	.LVL301:
 1670 0516 FFF7FEFF 		bl	find_class_by_object
 1671              	.LVL302:
 677:vm.c          **** 		   symid_to_str(cls->sym_id), sym_name );
 1672              		.loc 1 677 0
 1673 051a B0F90000 		ldrsh	r0, [r0]
 1674              	.LVL303:
ARM GAS  C:\Users\164\AppData\Local\Temp\ccd4XrSZ.s 			page 68


 1675 051e FFF7FEFF 		bl	symid_to_str
 1676              	.LVL304:
 1677 0522 029A     		ldr	r2, [sp, #8]
 1678 0524 0146     		mov	r1, r0
 1679 0526 8D48     		ldr	r0, .L297
 1680 0528 FFF7FEFF 		bl	console_printf
 1681              	.LVL305:
 1682 052c 23E0     		b	.L122
 1683              	.LVL306:
 1684              	.L123:
 1685              	.LBE243:
 683:vm.c          ****     m->func(vm, regs + ra, rc);
 1686              		.loc 1 683 0
 1687 052e C378     		ldrb	r3, [r0, #3]	@ zero_extendqisi2
 1688 0530 13F0010F 		tst	r3, #1
 1689 0534 12D0     		beq	.L124
 1690              	.LBB244:
 684:vm.c          **** 
 1691              		.loc 1 684 0
 1692 0536 C368     		ldr	r3, [r0, #12]
 1693 0538 5A46     		mov	r2, fp
 1694 053a 4946     		mov	r1, r9
 1695 053c 2846     		mov	r0, r5
 1696              	.LVL307:
 1697 053e 9847     		blx	r3
 1698              	.LVL308:
 687:vm.c          **** 
 1699              		.loc 1 687 0
 1700 0540 E268     		ldr	r2, [r4, #12]
 1701 0542 874B     		ldr	r3, .L297+4
 1702 0544 9A42     		cmp	r2, r3
 1703 0546 16D0     		beq	.L122
 689:vm.c          ****     while( release_reg <= bidx ) {
 1704              		.loc 1 689 0
 1705 0548 0137     		adds	r7, r7, #1
 1706              	.LVL309:
 1707 054a 04E0     		b	.L125
 1708              	.LVL310:
 1709              	.L126:
 691:vm.c          ****       release_reg++;
 1710              		.loc 1 691 0
 1711 054c 06EB0710 		add	r0, r6, r7, lsl #4
 1712 0550 FFF7FEFF 		bl	mrbc_release
 1713              	.LVL311:
 692:vm.c          ****     }
 1714              		.loc 1 692 0
 1715 0554 0137     		adds	r7, r7, #1
 1716              	.LVL312:
 1717              	.L125:
 690:vm.c          ****       mrbc_release(&regs[release_reg]);
 1718              		.loc 1 690 0
 1719 0556 B845     		cmp	r8, r7
 1720 0558 F8DA     		bge	.L126
 1721 055a 0CE0     		b	.L122
 1722              	.LVL313:
 1723              	.L124:
 1724              	.LBE244:
ARM GAS  C:\Users\164\AppData\Local\Temp\ccd4XrSZ.s 			page 69


 699:vm.c          **** 
 1725              		.loc 1 699 0
 1726 055c 5946     		mov	r1, fp
 1727 055e 2846     		mov	r0, r5
 1728              	.LVL314:
 1729 0560 FFF7FEFF 		bl	mrbc_push_callinfo
 1730              	.LVL315:
 702:vm.c          ****   vm->pc_irep = m->irep;
 1731              		.loc 1 702 0
 1732 0564 0023     		movs	r3, #0
 1733 0566 2B82     		strh	r3, [r5, #16]	@ movhi
 703:vm.c          **** 
 1734              		.loc 1 703 0
 1735 0568 E368     		ldr	r3, [r4, #12]
 1736 056a EB60     		str	r3, [r5, #12]
 706:vm.c          **** 
 1737              		.loc 1 706 0
 1738 056c D5F85836 		ldr	r3, [r5, #1624]
 1739 0570 5344     		add	r3, r3, r10
 1740 0572 C5F85836 		str	r3, [r5, #1624]
 1741              	.LVL316:
 1742              	.L122:
 1743              	.LBE242:
 1744              	.LBE241:
1826:vm.c          ****     case OP_SENDB:      ret = op_send      (vm, code, regs); break;  // reuse
 1745              		.loc 1 1826 0
 1746 0576 0027     		movs	r7, #0
 1747 0578 01F0B3B8 		b	.L57
 1748              	.LVL317:
 1749              	.L80:
 1750              	.LBB245:
 1751              	.LBB246:
 725:vm.c          **** 
 1752              		.loc 1 725 0
 1753 057c 0021     		movs	r1, #0
 1754 057e 2846     		mov	r0, r5
 1755 0580 FFF7FEFF 		bl	mrbc_push_callinfo
 1756              	.LVL318:
 728:vm.c          ****   vm->pc_irep = regs[0].proc->irep;
 1757              		.loc 1 728 0
 1758 0584 0027     		movs	r7, #0
 1759              	.LVL319:
 1760 0586 2F82     		strh	r7, [r5, #16]	@ movhi
 729:vm.c          **** 
 1761              		.loc 1 729 0
 1762 0588 B368     		ldr	r3, [r6, #8]
 1763 058a DB68     		ldr	r3, [r3, #12]
 1764 058c EB60     		str	r3, [r5, #12]
 1765              	.LVL320:
 1766              	.LBE246:
 1767              	.LBE245:
1827:vm.c          ****     case OP_CALL:       ret = op_call      (vm, code, regs); break;
 1768              		.loc 1 1827 0
 1769 058e 01F0A8B8 		b	.L57
 1770              	.LVL321:
 1771              	.L81:
 1772              	.LBB247:
ARM GAS  C:\Users\164\AppData\Local\Temp\ccd4XrSZ.s 			page 70


 1773              	.LBB248:
 749:vm.c          ****   uint32_t enter_param = GETARG_Ax(code);
 1774              		.loc 1 749 0
 1775 0592 D5F85C36 		ldr	r3, [r5, #1628]
 1776              	.LVL322:
 752:vm.c          ****   if( def_args > 0 ){
 1777              		.loc 1 752 0
 1778 0596 C4F34461 		ubfx	r1, r4, #25, #5
 1779              	.LVL323:
 753:vm.c          ****     vm->pc += callinfo->n_args - args;
 1780              		.loc 1 753 0
 1781 059a 14F0F87F 		tst	r4, #32505856
 1782 059e 01F09F80 		beq	.L283
 754:vm.c          ****   }
 1783              		.loc 1 754 0
 1784 05a2 1B7D     		ldrb	r3, [r3, #20]	@ zero_extendqisi2
 1785              	.LVL324:
 1786 05a4 5B1A     		subs	r3, r3, r1
 1787 05a6 1A44     		add	r2, r2, r3
 1788 05a8 2A82     		strh	r2, [r5, #16]	@ movhi
 1789              	.LBE248:
 1790              	.LBE247:
1828:vm.c          ****     case OP_ENTER:      ret = op_enter     (vm, code, regs); break;
 1791              		.loc 1 1828 0
 1792 05aa 0027     		movs	r7, #0
 1793              	.LVL325:
 1794 05ac 01F099B8 		b	.L57
 1795              	.LVL326:
 1796              	.L82:
 1797              	.LBB249:
 1798              	.LBB250:
 774:vm.c          **** 
 1799              		.loc 1 774 0
 1800 05b0 E40D     		lsrs	r4, r4, #23
 1801              	.LVL327:
 776:vm.c          ****   regs[0] = regs[ra];
 1802              		.loc 1 776 0
 1803 05b2 3046     		mov	r0, r6
 1804 05b4 FFF7FEFF 		bl	mrbc_release
 1805              	.LVL328:
 777:vm.c          ****   regs[ra].tt = MRBC_TT_EMPTY;
 1806              		.loc 1 777 0
 1807 05b8 2401     		lsls	r4, r4, #4
 1808              	.LVL329:
 1809 05ba 3319     		adds	r3, r6, r4
 1810 05bc 0FCB     		ldmia	r3, {r0, r1, r2, r3}
 1811 05be 86E80F00 		stmia	r6, {r0, r1, r2, r3}
 778:vm.c          **** 
 1812              		.loc 1 778 0
 1813 05c2 0023     		movs	r3, #0
 1814 05c4 3355     		strb	r3, [r6, r4]
 781:vm.c          **** 
 1815              		.loc 1 781 0
 1816 05c6 EB68     		ldr	r3, [r5, #12]
 1817 05c8 5F88     		ldrh	r7, [r3, #2]
 1818              	.LVL330:
 784:vm.c          ****   vm->callinfo_tail = callinfo->prev;
ARM GAS  C:\Users\164\AppData\Local\Temp\ccd4XrSZ.s 			page 71


 1819              		.loc 1 784 0
 1820 05ca D5F85C86 		ldr	r8, [r5, #1628]
 1821              	.LVL331:
 785:vm.c          ****   vm->current_regs = callinfo->current_regs;
 1822              		.loc 1 785 0
 1823 05ce D8F80030 		ldr	r3, [r8]
 1824 05d2 C5F85C36 		str	r3, [r5, #1628]
 786:vm.c          ****   vm->pc_irep = callinfo->pc_irep;
 1825              		.loc 1 786 0
 1826 05d6 D8F80C30 		ldr	r3, [r8, #12]
 1827 05da C5F85836 		str	r3, [r5, #1624]
 787:vm.c          ****   vm->pc = callinfo->pc;
 1828              		.loc 1 787 0
 1829 05de D8F80430 		ldr	r3, [r8, #4]
 1830 05e2 EB60     		str	r3, [r5, #12]
 788:vm.c          ****   vm->target_class = callinfo->target_class;
 1831              		.loc 1 788 0
 1832 05e4 B8F80830 		ldrh	r3, [r8, #8]
 1833 05e8 2B82     		strh	r3, [r5, #16]	@ movhi
 789:vm.c          **** 
 1834              		.loc 1 789 0
 1835 05ea D8F81030 		ldr	r3, [r8, #16]
 1836 05ee C5F86036 		str	r3, [r5, #1632]
 1837              	.LVL332:
 793:vm.c          ****     mrbc_release( &regs[i] );
 1838              		.loc 1 793 0
 1839 05f2 0124     		movs	r4, #1
 1840 05f4 04E0     		b	.L127
 1841              	.LVL333:
 1842              	.L128:
 794:vm.c          ****   }
 1843              		.loc 1 794 0
 1844 05f6 06EB0410 		add	r0, r6, r4, lsl #4
 1845 05fa FFF7FEFF 		bl	mrbc_release
 1846              	.LVL334:
 793:vm.c          ****     mrbc_release( &regs[i] );
 1847              		.loc 1 793 0
 1848 05fe 0134     		adds	r4, r4, #1
 1849              	.LVL335:
 1850              	.L127:
 1851 0600 A742     		cmp	r7, r4
 1852 0602 F8DC     		bgt	.L128
 798:vm.c          **** 
 1853              		.loc 1 798 0
 1854 0604 4146     		mov	r1, r8
 1855 0606 2846     		mov	r0, r5
 1856 0608 FFF7FEFF 		bl	mrbc_free
 1857              	.LVL336:
 1858              	.LBE250:
 1859              	.LBE249:
1829:vm.c          ****     case OP_RETURN:     ret = op_return    (vm, code, regs); break;
 1860              		.loc 1 1829 0
 1861 060c 0027     		movs	r7, #0
 1862 060e 01F068B8 		b	.L57
 1863              	.LVL337:
 1864              	.L83:
 1865              	.LBB251:
ARM GAS  C:\Users\164\AppData\Local\Temp\ccd4XrSZ.s 			page 72


 1866              	.LBB252:
 817:vm.c          **** 
 1867              		.loc 1 817 0
 1868 0612 E40D     		lsrs	r4, r4, #23
 1869              	.LVL338:
 819:vm.c          **** 
 1870              		.loc 1 819 0
 1871 0614 06F11007 		add	r7, r6, #16
 1872              	.LVL339:
 821:vm.c          ****     return -1;  // EYIELD
 1873              		.loc 1 821 0
 1874 0618 96F91030 		ldrsb	r3, [r6, #16]
 1875              	.LVL340:
 1876 061c 012B     		cmp	r3, #1
 1877 061e 0ED0     		beq	.L284
 825:vm.c          ****   mrbc_dup( stack );
 1878              		.loc 1 825 0
 1879 0620 06EB0414 		add	r4, r6, r4, lsl #4
 1880              	.LVL341:
 1881 0624 2046     		mov	r0, r4
 1882 0626 FFF7FEFF 		bl	mrbc_release
 1883              	.LVL342:
 826:vm.c          ****   regs[ra] = stack[0];
 1884              		.loc 1 826 0
 1885 062a 3846     		mov	r0, r7
 1886 062c FFF7FEFF 		bl	mrbc_dup
 1887              	.LVL343:
 827:vm.c          **** 
 1888              		.loc 1 827 0
 1889 0630 97E80F00 		ldmia	r7, {r0, r1, r2, r3}
 1890 0634 84E80F00 		stmia	r4, {r0, r1, r2, r3}
 829:vm.c          **** }
 1891              		.loc 1 829 0
 1892 0638 0027     		movs	r7, #0
 1893              	.LVL344:
 1894 063a 01F052B8 		b	.L57
 1895              	.LVL345:
 1896              	.L284:
 822:vm.c          ****   }
 1897              		.loc 1 822 0
 1898 063e 4FF0FF37 		mov	r7, #-1
 1899              	.LVL346:
 1900              	.LBE252:
 1901              	.LBE251:
1830:vm.c          ****     case OP_BLKPUSH:    ret = op_blkpush   (vm, code, regs); break;
 1902              		.loc 1 1830 0
 1903 0642 01F04EB8 		b	.L57
 1904              	.LVL347:
 1905              	.L84:
 1906              	.LBB253:
 1907              	.LBB254:
 847:vm.c          **** 
 1908              		.loc 1 847 0
 1909 0646 E30D     		lsrs	r3, r4, #23
 1910              	.LVL348:
 849:vm.c          ****     if( regs[ra+1].tt == MRBC_TT_FIXNUM ) {	// in case of Fixnum, Fixnum
 1911              		.loc 1 849 0
ARM GAS  C:\Users\164\AppData\Local\Temp\ccd4XrSZ.s 			page 73


 1912 0648 1A01     		lsls	r2, r3, #4
 1913 064a B718     		adds	r7, r6, r2
 1914              	.LVL349:
 1915 064c B156     		ldrsb	r1, [r6, r2]
 1916 064e 0429     		cmp	r1, #4
 1917 0650 1CD1     		bne	.L130
 850:vm.c          ****       regs[ra].i += regs[ra+1].i;
 1918              		.loc 1 850 0
 1919 0652 581C     		adds	r0, r3, #1
 1920 0654 0001     		lsls	r0, r0, #4
 1921 0656 06EB000E 		add	lr, r6, r0
 1922 065a 3056     		ldrsb	r0, [r6, r0]
 1923 065c 0428     		cmp	r0, #4
 1924 065e 05D1     		bne	.L131
 851:vm.c          ****       return 0;
 1925              		.loc 1 851 0
 1926 0660 DEF80830 		ldr	r3, [lr, #8]
 1927              	.LVL350:
 1928 0664 BA68     		ldr	r2, [r7, #8]
 1929 0666 1344     		add	r3, r3, r2
 1930 0668 BB60     		str	r3, [r7, #8]
 1931 066a 9FE0     		b	.L132
 1932              	.LVL351:
 1933              	.L131:
 855:vm.c          ****       regs[ra].tt = MRBC_TT_FLOAT;
 1934              		.loc 1 855 0
 1935 066c 0528     		cmp	r0, #5
 1936 066e 0DD1     		bne	.L130
 856:vm.c          ****       regs[ra].d = regs[ra].i + regs[ra+1].d;
 1937              		.loc 1 856 0
 1938 0670 0523     		movs	r3, #5
 1939              	.LVL352:
 1940 0672 B354     		strb	r3, [r6, r2]
 857:vm.c          ****       return 0;
 1941              		.loc 1 857 0
 1942 0674 DEE90289 		ldrd	r8, [lr, #8]
 1943 0678 B868     		ldr	r0, [r7, #8]
 1944 067a FFF7FEFF 		bl	__aeabi_i2d
 1945              	.LVL353:
 1946 067e 4246     		mov	r2, r8
 1947 0680 4B46     		mov	r3, r9
 1948 0682 FFF7FEFF 		bl	__aeabi_dadd
 1949              	.LVL354:
 1950 0686 C7E90201 		strd	r0, [r7, #8]
 1951 068a 8FE0     		b	.L132
 1952              	.LVL355:
 1953              	.L130:
 861:vm.c          ****     if( regs[ra+1].tt == MRBC_TT_FIXNUM ) {	// in case of Float, Fixnum
 1954              		.loc 1 861 0
 1955 068c 0529     		cmp	r1, #5
 1956 068e 1ED1     		bne	.L133
 862:vm.c          ****       regs[ra].d += regs[ra+1].i;
 1957              		.loc 1 862 0
 1958 0690 0133     		adds	r3, r3, #1
 1959              	.LVL356:
 1960 0692 1B01     		lsls	r3, r3, #4
 1961              	.LVL357:
ARM GAS  C:\Users\164\AppData\Local\Temp\ccd4XrSZ.s 			page 74


 1962 0694 F218     		adds	r2, r6, r3
 1963 0696 F356     		ldrsb	r3, [r6, r3]
 1964 0698 042B     		cmp	r3, #4
 1965 069a 0BD1     		bne	.L134
 863:vm.c          ****       return 0;
 1966              		.loc 1 863 0
 1967 069c 9068     		ldr	r0, [r2, #8]
 1968 069e FFF7FEFF 		bl	__aeabi_i2d
 1969              	.LVL358:
 1970 06a2 0246     		mov	r2, r0
 1971 06a4 0B46     		mov	r3, r1
 1972 06a6 D7E90201 		ldrd	r0, [r7, #8]
 1973 06aa FFF7FEFF 		bl	__aeabi_dadd
 1974              	.LVL359:
 1975 06ae C7E90201 		strd	r0, [r7, #8]
 1976 06b2 7BE0     		b	.L132
 1977              	.L134:
 866:vm.c          ****       regs[ra].d += regs[ra+1].d;
 1978              		.loc 1 866 0
 1979 06b4 052B     		cmp	r3, #5
 1980 06b6 0AD1     		bne	.L133
 867:vm.c          ****       return 0;
 1981              		.loc 1 867 0
 1982 06b8 02F10803 		add	r3, r2, #8
 1983 06bc D3E90023 		ldrd	r2, [r3]
 1984 06c0 D7E90201 		ldrd	r0, [r7, #8]
 1985 06c4 FFF7FEFF 		bl	__aeabi_dadd
 1986              	.LVL360:
 1987 06c8 C7E90201 		strd	r0, [r7, #8]
 1988 06cc 6EE0     		b	.L132
 1989              	.L133:
 1990              	.LVL361:
 1991              	.LBB255:
 1992              	.LBB256:
 643:vm.c          ****   int rb = GETARG_B(code);  // index of method sym
 1993              		.loc 1 643 0
 1994 06ce E70D     		lsrs	r7, r4, #23
 1995              	.LVL362:
 644:vm.c          ****   int rc = GETARG_C(code);  // number of params
 1996              		.loc 1 644 0
 1997 06d0 C4F38833 		ubfx	r3, r4, #14, #9
 1998 06d4 0293     		str	r3, [sp, #8]
 1999              	.LVL363:
 645:vm.c          ****   mrbc_value recv = regs[ra];
 2000              		.loc 1 645 0
 2001 06d6 C4F3C61B 		ubfx	fp, r4, #7, #7
 2002              	.LVL364:
 646:vm.c          **** 
 2003              		.loc 1 646 0
 2004 06da 4FEA071A 		lsl	r10, r7, #4
 2005 06de 06EB0A09 		add	r9, r6, r10
 2006 06e2 99E80F00 		ldmia	r9, {r0, r1, r2, r3}
 2007              	.LVL365:
 2008 06e6 0DF1300E 		add	lr, sp, #48
 2009 06ea 0EE90F00 		stmdb	lr, {r0, r1, r2, r3}
 649:vm.c          ****   switch( GET_OPCODE(code) ) {
 2010              		.loc 1 649 0
ARM GAS  C:\Users\164\AppData\Local\Temp\ccd4XrSZ.s 			page 75


 2011 06ee 07EB0B08 		add	r8, r7, fp
 2012 06f2 08F10108 		add	r8, r8, #1
 2013              	.LVL366:
 650:vm.c          ****   case OP_SEND:
 2014              		.loc 1 650 0
 2015 06f6 04F07F04 		and	r4, r4, #127
 2016              	.LVL367:
 2017 06fa 202C     		cmp	r4, #32
 2018 06fc 02D0     		beq	.L136
 2019 06fe 212C     		cmp	r4, #33
 2020 0700 08D0     		beq	.L137
 2021 0702 0EE0     		b	.L135
 2022              	.L136:
 653:vm.c          ****     regs[bidx].tt = MRBC_TT_NIL;
 2023              		.loc 1 653 0
 2024 0704 4FEA0814 		lsl	r4, r8, #4
 2025 0708 3019     		adds	r0, r6, r4
 2026 070a FFF7FEFF 		bl	mrbc_release
 2027              	.LVL368:
 654:vm.c          ****     break;
 2028              		.loc 1 654 0
 2029 070e 0123     		movs	r3, #1
 2030 0710 3355     		strb	r3, [r6, r4]
 2031 0712 06E0     		b	.L135
 2032              	.L137:
 659:vm.c          ****       // TODO: fix the following behavior
 2033              		.loc 1 659 0
 2034 0714 4FEA0813 		lsl	r3, r8, #4
 2035 0718 F356     		ldrsb	r3, [r6, r3]
 2036 071a 012B     		cmp	r3, #1
 2037 071c 01D0     		beq	.L135
 2038 071e 152B     		cmp	r3, #21
 2039 0720 44D1     		bne	.L132
 2040              	.L135:
 671:vm.c          ****   mrbc_sym sym_id = str_to_symid(sym_name);
 2041              		.loc 1 671 0
 2042 0722 EB68     		ldr	r3, [r5, #12]
 2043 0724 0299     		ldr	r1, [sp, #8]
 2044 0726 5869     		ldr	r0, [r3, #20]
 2045 0728 FFF7FEFF 		bl	mrbc_get_irep_symbol
 2046              	.LVL369:
 2047 072c 0290     		str	r0, [sp, #8]
 2048              	.LVL370:
 672:vm.c          ****   mrbc_proc *m = find_method(vm, &recv, sym_id);
 2049              		.loc 1 672 0
 2050 072e FFF7FEFF 		bl	str_to_symid
 2051              	.LVL371:
 673:vm.c          **** 
 2052              		.loc 1 673 0
 2053 0732 0246     		mov	r2, r0
 2054 0734 08A9     		add	r1, sp, #32
 2055 0736 2846     		mov	r0, r5
 2056              	.LVL372:
 2057 0738 FFF7FEFF 		bl	find_method
 2058              	.LVL373:
 675:vm.c          ****     mrb_class *cls = find_class_by_object( vm, &recv );
 2059              		.loc 1 675 0
ARM GAS  C:\Users\164\AppData\Local\Temp\ccd4XrSZ.s 			page 76


 2060 073c 0446     		mov	r4, r0
 2061 073e 88B9     		cbnz	r0, .L139
 2062              	.LBB257:
 676:vm.c          ****     console_printf("No method. Class:%s Method:%s\n",
 2063              		.loc 1 676 0
 2064 0740 08A9     		add	r1, sp, #32
 2065 0742 2846     		mov	r0, r5
 2066              	.LVL374:
 2067 0744 FFF7FEFF 		bl	find_class_by_object
 2068              	.LVL375:
 677:vm.c          **** 		   symid_to_str(cls->sym_id), sym_name );
 2069              		.loc 1 677 0
 2070 0748 B0F90000 		ldrsh	r0, [r0]
 2071              	.LVL376:
 2072 074c FFF7FEFF 		bl	symid_to_str
 2073              	.LVL377:
 2074 0750 029A     		ldr	r2, [sp, #8]
 2075 0752 0146     		mov	r1, r0
 2076 0754 0148     		ldr	r0, .L297
 2077 0756 FFF7FEFF 		bl	console_printf
 2078              	.LVL378:
 2079 075a 27E0     		b	.L132
 2080              	.L298:
 2081              		.align	2
 2082              	.L297:
 2083 075c 30000000 		.word	.LC3
 2084 0760 00000000 		.word	c_proc_call
 2085              	.LVL379:
 2086              	.L139:
 2087              	.LBE257:
 683:vm.c          ****     m->func(vm, regs + ra, rc);
 2088              		.loc 1 683 0
 2089 0764 C378     		ldrb	r3, [r0, #3]	@ zero_extendqisi2
 2090 0766 13F0010F 		tst	r3, #1
 2091 076a 12D0     		beq	.L140
 2092              	.LBB258:
 684:vm.c          **** 
 2093              		.loc 1 684 0
 2094 076c C368     		ldr	r3, [r0, #12]
 2095 076e 5A46     		mov	r2, fp
 2096 0770 4946     		mov	r1, r9
 2097 0772 2846     		mov	r0, r5
 2098              	.LVL380:
 2099 0774 9847     		blx	r3
 2100              	.LVL381:
 687:vm.c          **** 
 2101              		.loc 1 687 0
 2102 0776 E268     		ldr	r2, [r4, #12]
 2103 0778 AE4B     		ldr	r3, .L299
 2104 077a 9A42     		cmp	r2, r3
 2105 077c 16D0     		beq	.L132
 689:vm.c          ****     while( release_reg <= bidx ) {
 2106              		.loc 1 689 0
 2107 077e 0137     		adds	r7, r7, #1
 2108              	.LVL382:
 2109 0780 04E0     		b	.L141
 2110              	.LVL383:
ARM GAS  C:\Users\164\AppData\Local\Temp\ccd4XrSZ.s 			page 77


 2111              	.L142:
 691:vm.c          ****       release_reg++;
 2112              		.loc 1 691 0
 2113 0782 06EB0710 		add	r0, r6, r7, lsl #4
 2114 0786 FFF7FEFF 		bl	mrbc_release
 2115              	.LVL384:
 692:vm.c          ****     }
 2116              		.loc 1 692 0
 2117 078a 0137     		adds	r7, r7, #1
 2118              	.LVL385:
 2119              	.L141:
 690:vm.c          ****       mrbc_release(&regs[release_reg]);
 2120              		.loc 1 690 0
 2121 078c B845     		cmp	r8, r7
 2122 078e F8DA     		bge	.L142
 2123 0790 0CE0     		b	.L132
 2124              	.LVL386:
 2125              	.L140:
 2126              	.LBE258:
 699:vm.c          **** 
 2127              		.loc 1 699 0
 2128 0792 5946     		mov	r1, fp
 2129 0794 2846     		mov	r0, r5
 2130              	.LVL387:
 2131 0796 FFF7FEFF 		bl	mrbc_push_callinfo
 2132              	.LVL388:
 702:vm.c          ****   vm->pc_irep = m->irep;
 2133              		.loc 1 702 0
 2134 079a 0023     		movs	r3, #0
 2135 079c 2B82     		strh	r3, [r5, #16]	@ movhi
 703:vm.c          **** 
 2136              		.loc 1 703 0
 2137 079e E368     		ldr	r3, [r4, #12]
 2138 07a0 EB60     		str	r3, [r5, #12]
 706:vm.c          **** 
 2139              		.loc 1 706 0
 2140 07a2 D5F85836 		ldr	r3, [r5, #1624]
 2141 07a6 5344     		add	r3, r3, r10
 2142 07a8 C5F85836 		str	r3, [r5, #1624]
 2143              	.LVL389:
 2144              	.L132:
 2145              	.LBE256:
 2146              	.LBE255:
 2147              	.LBE254:
 2148              	.LBE253:
1831:vm.c          ****     case OP_ADD:        ret = op_add       (vm, code, regs); break;
 2149              		.loc 1 1831 0
 2150 07ac 0027     		movs	r7, #0
 2151 07ae 00F098BF 		b	.L57
 2152              	.LVL390:
 2153              	.L85:
 2154              	.LBB259:
 2155              	.LBB260:
 892:vm.c          **** 
 2156              		.loc 1 892 0
 2157 07b2 E30D     		lsrs	r3, r4, #23
 2158              	.LVL391:
ARM GAS  C:\Users\164\AppData\Local\Temp\ccd4XrSZ.s 			page 78


 894:vm.c          ****     regs[ra].i += GETARG_C(code);
 2159              		.loc 1 894 0
 2160 07b4 1B01     		lsls	r3, r3, #4
 2161              	.LVL392:
 2162 07b6 F718     		adds	r7, r6, r3
 2163              	.LVL393:
 2164 07b8 F356     		ldrsb	r3, [r6, r3]
 2165 07ba 042B     		cmp	r3, #4
 2166 07bc 05D1     		bne	.L143
 895:vm.c          ****     return 0;
 2167              		.loc 1 895 0
 2168 07be C4F3C614 		ubfx	r4, r4, #7, #7
 2169              	.LVL394:
 2170 07c2 BB68     		ldr	r3, [r7, #8]
 2171 07c4 2344     		add	r3, r3, r4
 2172 07c6 BB60     		str	r3, [r7, #8]
 2173 07c8 10E0     		b	.L144
 2174              	.LVL395:
 2175              	.L143:
 900:vm.c          ****     regs[ra].d += GETARG_C(code);
 2176              		.loc 1 900 0
 2177 07ca 052B     		cmp	r3, #5
 2178 07cc 0CD1     		bne	.L145
 901:vm.c          ****     return 0;
 2179              		.loc 1 901 0
 2180 07ce C4F3C610 		ubfx	r0, r4, #7, #7
 2181 07d2 FFF7FEFF 		bl	__aeabi_ui2d
 2182              	.LVL396:
 2183 07d6 0246     		mov	r2, r0
 2184 07d8 0B46     		mov	r3, r1
 2185 07da D7E90201 		ldrd	r0, [r7, #8]
 2186 07de FFF7FEFF 		bl	__aeabi_dadd
 2187              	.LVL397:
 2188 07e2 C7E90201 		strd	r0, [r7, #8]
 2189 07e6 01E0     		b	.L144
 2190              	.L145:
 906:vm.c          ****   return 0;
 2191              		.loc 1 906 0
 2192 07e8 FFF7FEFF 		bl	not_supported
 2193              	.LVL398:
 2194              	.L144:
 2195              	.LBE260:
 2196              	.LBE259:
1832:vm.c          ****     case OP_ADDI:       ret = op_addi      (vm, code, regs); break;
 2197              		.loc 1 1832 0
 2198 07ec 0027     		movs	r7, #0
 2199 07ee 00F078BF 		b	.L57
 2200              	.LVL399:
 2201              	.L86:
 2202              	.LBB261:
 2203              	.LBB262:
 924:vm.c          **** 
 2204              		.loc 1 924 0
 2205 07f2 4FEAD459 		lsr	r9, r4, #23
 2206              	.LVL400:
 926:vm.c          ****     if( regs[ra+1].tt == MRBC_TT_FIXNUM ) {	// in case of Fixnum, Fixnum
 2207              		.loc 1 926 0
ARM GAS  C:\Users\164\AppData\Local\Temp\ccd4XrSZ.s 			page 79


 2208 07f6 4FEA0913 		lsl	r3, r9, #4
 2209              	.LVL401:
 2210 07fa F718     		adds	r7, r6, r3
 2211              	.LVL402:
 2212 07fc F256     		ldrsb	r2, [r6, r3]
 2213 07fe 042A     		cmp	r2, #4
 2214 0800 1BD1     		bne	.L146
 927:vm.c          ****       regs[ra].i -= regs[ra+1].i;
 2215              		.loc 1 927 0
 2216 0802 09F10101 		add	r1, r9, #1
 2217 0806 0901     		lsls	r1, r1, #4
 2218 0808 7018     		adds	r0, r6, r1
 2219 080a 7156     		ldrsb	r1, [r6, r1]
 2220 080c 0429     		cmp	r1, #4
 2221 080e 04D1     		bne	.L147
 928:vm.c          ****       return 0;
 2222              		.loc 1 928 0
 2223 0810 8268     		ldr	r2, [r0, #8]
 2224 0812 BB68     		ldr	r3, [r7, #8]
 2225 0814 9B1A     		subs	r3, r3, r2
 2226 0816 BB60     		str	r3, [r7, #8]
 2227 0818 A2E0     		b	.L148
 2228              	.L147:
 932:vm.c          ****       regs[ra].tt = MRBC_TT_FLOAT;
 2229              		.loc 1 932 0
 2230 081a 0529     		cmp	r1, #5
 2231 081c 0DD1     		bne	.L146
 933:vm.c          ****       regs[ra].d = regs[ra].i - regs[ra+1].d;
 2232              		.loc 1 933 0
 2233 081e 0522     		movs	r2, #5
 2234 0820 F254     		strb	r2, [r6, r3]
 934:vm.c          ****       return 0;
 2235              		.loc 1 934 0
 2236 0822 D0E90289 		ldrd	r8, [r0, #8]
 2237 0826 B868     		ldr	r0, [r7, #8]
 2238 0828 FFF7FEFF 		bl	__aeabi_i2d
 2239              	.LVL403:
 2240 082c 4246     		mov	r2, r8
 2241 082e 4B46     		mov	r3, r9
 2242 0830 FFF7FEFF 		bl	__aeabi_dsub
 2243              	.LVL404:
 2244 0834 C7E90201 		strd	r0, [r7, #8]
 2245 0838 92E0     		b	.L148
 2246              	.L146:
 938:vm.c          ****     if( regs[ra+1].tt == MRBC_TT_FIXNUM ) {	// in case of Float, Fixnum
 2247              		.loc 1 938 0
 2248 083a 052A     		cmp	r2, #5
 2249 083c 1FD1     		bne	.L149
 939:vm.c          ****       regs[ra].d -= regs[ra+1].i;
 2250              		.loc 1 939 0
 2251 083e 09F10103 		add	r3, r9, #1
 2252 0842 1B01     		lsls	r3, r3, #4
 2253 0844 F218     		adds	r2, r6, r3
 2254 0846 F356     		ldrsb	r3, [r6, r3]
 2255 0848 042B     		cmp	r3, #4
 2256 084a 0BD1     		bne	.L150
 940:vm.c          ****       return 0;
ARM GAS  C:\Users\164\AppData\Local\Temp\ccd4XrSZ.s 			page 80


 2257              		.loc 1 940 0
 2258 084c 9068     		ldr	r0, [r2, #8]
 2259 084e FFF7FEFF 		bl	__aeabi_i2d
 2260              	.LVL405:
 2261 0852 0246     		mov	r2, r0
 2262 0854 0B46     		mov	r3, r1
 2263 0856 D7E90201 		ldrd	r0, [r7, #8]
 2264 085a FFF7FEFF 		bl	__aeabi_dsub
 2265              	.LVL406:
 2266 085e C7E90201 		strd	r0, [r7, #8]
 2267 0862 7DE0     		b	.L148
 2268              	.L150:
 943:vm.c          ****       regs[ra].d -= regs[ra+1].d;
 2269              		.loc 1 943 0
 2270 0864 052B     		cmp	r3, #5
 2271 0866 0AD1     		bne	.L149
 944:vm.c          ****       return 0;
 2272              		.loc 1 944 0
 2273 0868 02F10803 		add	r3, r2, #8
 2274 086c D3E90023 		ldrd	r2, [r3]
 2275 0870 D7E90201 		ldrd	r0, [r7, #8]
 2276 0874 FFF7FEFF 		bl	__aeabi_dsub
 2277              	.LVL407:
 2278 0878 C7E90201 		strd	r0, [r7, #8]
 2279 087c 70E0     		b	.L148
 2280              	.L149:
 2281              	.LVL408:
 2282              	.LBB263:
 2283              	.LBB264:
 643:vm.c          ****   int rb = GETARG_B(code);  // index of method sym
 2284              		.loc 1 643 0
 2285 087e E70D     		lsrs	r7, r4, #23
 2286              	.LVL409:
 644:vm.c          ****   int rc = GETARG_C(code);  // number of params
 2287              		.loc 1 644 0
 2288 0880 C4F38833 		ubfx	r3, r4, #14, #9
 2289 0884 0293     		str	r3, [sp, #8]
 2290              	.LVL410:
 645:vm.c          ****   mrbc_value recv = regs[ra];
 2291              		.loc 1 645 0
 2292 0886 C4F3C61B 		ubfx	fp, r4, #7, #7
 2293              	.LVL411:
 646:vm.c          **** 
 2294              		.loc 1 646 0
 2295 088a 4FEA071A 		lsl	r10, r7, #4
 2296 088e 06EB0A03 		add	r3, r6, r10
 2297              	.LVL412:
 2298 0892 0393     		str	r3, [sp, #12]
 2299 0894 0FCB     		ldmia	r3, {r0, r1, r2, r3}
 2300 0896 0DF1300E 		add	lr, sp, #48
 2301 089a 0EE90F00 		stmdb	lr, {r0, r1, r2, r3}
 649:vm.c          ****   switch( GET_OPCODE(code) ) {
 2302              		.loc 1 649 0
 2303 089e 07EB0B08 		add	r8, r7, fp
 2304 08a2 08F10108 		add	r8, r8, #1
 2305              	.LVL413:
 650:vm.c          ****   case OP_SEND:
ARM GAS  C:\Users\164\AppData\Local\Temp\ccd4XrSZ.s 			page 81


 2306              		.loc 1 650 0
 2307 08a6 04F07F04 		and	r4, r4, #127
 2308              	.LVL414:
 2309 08aa 202C     		cmp	r4, #32
 2310 08ac 02D0     		beq	.L152
 2311 08ae 212C     		cmp	r4, #33
 2312 08b0 08D0     		beq	.L153
 2313 08b2 0EE0     		b	.L151
 2314              	.L152:
 653:vm.c          ****     regs[bidx].tt = MRBC_TT_NIL;
 2315              		.loc 1 653 0
 2316 08b4 4FEA0814 		lsl	r4, r8, #4
 2317 08b8 3019     		adds	r0, r6, r4
 2318 08ba FFF7FEFF 		bl	mrbc_release
 2319              	.LVL415:
 654:vm.c          ****     break;
 2320              		.loc 1 654 0
 2321 08be 0123     		movs	r3, #1
 2322 08c0 3355     		strb	r3, [r6, r4]
 2323 08c2 06E0     		b	.L151
 2324              	.L153:
 659:vm.c          ****       // TODO: fix the following behavior
 2325              		.loc 1 659 0
 2326 08c4 4FEA0813 		lsl	r3, r8, #4
 2327 08c8 F356     		ldrsb	r3, [r6, r3]
 2328 08ca 012B     		cmp	r3, #1
 2329 08cc 01D0     		beq	.L151
 2330 08ce 152B     		cmp	r3, #21
 2331 08d0 40D1     		bne	.L154
 2332              	.L151:
 671:vm.c          ****   mrbc_sym sym_id = str_to_symid(sym_name);
 2333              		.loc 1 671 0
 2334 08d2 EB68     		ldr	r3, [r5, #12]
 2335 08d4 0299     		ldr	r1, [sp, #8]
 2336 08d6 5869     		ldr	r0, [r3, #20]
 2337 08d8 FFF7FEFF 		bl	mrbc_get_irep_symbol
 2338              	.LVL416:
 2339 08dc 0290     		str	r0, [sp, #8]
 2340              	.LVL417:
 672:vm.c          ****   mrbc_proc *m = find_method(vm, &recv, sym_id);
 2341              		.loc 1 672 0
 2342 08de FFF7FEFF 		bl	str_to_symid
 2343              	.LVL418:
 673:vm.c          **** 
 2344              		.loc 1 673 0
 2345 08e2 0246     		mov	r2, r0
 2346 08e4 08A9     		add	r1, sp, #32
 2347 08e6 2846     		mov	r0, r5
 2348              	.LVL419:
 2349 08e8 FFF7FEFF 		bl	find_method
 2350              	.LVL420:
 675:vm.c          ****     mrb_class *cls = find_class_by_object( vm, &recv );
 2351              		.loc 1 675 0
 2352 08ec 0446     		mov	r4, r0
 2353 08ee 68B9     		cbnz	r0, .L155
 2354              	.LBB265:
 676:vm.c          ****     console_printf("No method. Class:%s Method:%s\n",
ARM GAS  C:\Users\164\AppData\Local\Temp\ccd4XrSZ.s 			page 82


 2355              		.loc 1 676 0
 2356 08f0 08A9     		add	r1, sp, #32
 2357 08f2 2846     		mov	r0, r5
 2358              	.LVL421:
 2359 08f4 FFF7FEFF 		bl	find_class_by_object
 2360              	.LVL422:
 677:vm.c          **** 		   symid_to_str(cls->sym_id), sym_name );
 2361              		.loc 1 677 0
 2362 08f8 B0F90000 		ldrsh	r0, [r0]
 2363              	.LVL423:
 2364 08fc FFF7FEFF 		bl	symid_to_str
 2365              	.LVL424:
 2366 0900 029A     		ldr	r2, [sp, #8]
 2367 0902 0146     		mov	r1, r0
 2368 0904 4C48     		ldr	r0, .L299+4
 2369 0906 FFF7FEFF 		bl	console_printf
 2370              	.LVL425:
 2371 090a 23E0     		b	.L154
 2372              	.LVL426:
 2373              	.L155:
 2374              	.LBE265:
 683:vm.c          ****     m->func(vm, regs + ra, rc);
 2375              		.loc 1 683 0
 2376 090c C378     		ldrb	r3, [r0, #3]	@ zero_extendqisi2
 2377 090e 13F0010F 		tst	r3, #1
 2378 0912 12D0     		beq	.L156
 2379              	.LBB266:
 684:vm.c          **** 
 2380              		.loc 1 684 0
 2381 0914 C368     		ldr	r3, [r0, #12]
 2382 0916 5A46     		mov	r2, fp
 2383 0918 0399     		ldr	r1, [sp, #12]
 2384 091a 2846     		mov	r0, r5
 2385              	.LVL427:
 2386 091c 9847     		blx	r3
 2387              	.LVL428:
 687:vm.c          **** 
 2388              		.loc 1 687 0
 2389 091e E268     		ldr	r2, [r4, #12]
 2390 0920 444B     		ldr	r3, .L299
 2391 0922 9A42     		cmp	r2, r3
 2392 0924 16D0     		beq	.L154
 689:vm.c          ****     while( release_reg <= bidx ) {
 2393              		.loc 1 689 0
 2394 0926 0137     		adds	r7, r7, #1
 2395              	.LVL429:
 2396 0928 04E0     		b	.L157
 2397              	.LVL430:
 2398              	.L158:
 691:vm.c          ****       release_reg++;
 2399              		.loc 1 691 0
 2400 092a 06EB0710 		add	r0, r6, r7, lsl #4
 2401 092e FFF7FEFF 		bl	mrbc_release
 2402              	.LVL431:
 692:vm.c          ****     }
 2403              		.loc 1 692 0
 2404 0932 0137     		adds	r7, r7, #1
ARM GAS  C:\Users\164\AppData\Local\Temp\ccd4XrSZ.s 			page 83


 2405              	.LVL432:
 2406              	.L157:
 690:vm.c          ****       mrbc_release(&regs[release_reg]);
 2407              		.loc 1 690 0
 2408 0934 B845     		cmp	r8, r7
 2409 0936 F8DA     		bge	.L158
 2410 0938 0CE0     		b	.L154
 2411              	.LVL433:
 2412              	.L156:
 2413              	.LBE266:
 699:vm.c          **** 
 2414              		.loc 1 699 0
 2415 093a 5946     		mov	r1, fp
 2416 093c 2846     		mov	r0, r5
 2417              	.LVL434:
 2418 093e FFF7FEFF 		bl	mrbc_push_callinfo
 2419              	.LVL435:
 702:vm.c          ****   vm->pc_irep = m->irep;
 2420              		.loc 1 702 0
 2421 0942 0023     		movs	r3, #0
 2422 0944 2B82     		strh	r3, [r5, #16]	@ movhi
 703:vm.c          **** 
 2423              		.loc 1 703 0
 2424 0946 E368     		ldr	r3, [r4, #12]
 2425 0948 EB60     		str	r3, [r5, #12]
 706:vm.c          **** 
 2426              		.loc 1 706 0
 2427 094a D5F85836 		ldr	r3, [r5, #1624]
 2428 094e 5344     		add	r3, r3, r10
 2429 0950 C5F85836 		str	r3, [r5, #1624]
 2430              	.LVL436:
 2431              	.L154:
 2432              	.LBE264:
 2433              	.LBE263:
 952:vm.c          ****   return 0;
 2434              		.loc 1 952 0
 2435 0954 09F10100 		add	r0, r9, #1
 2436 0958 06EB0010 		add	r0, r6, r0, lsl #4
 2437 095c FFF7FEFF 		bl	mrbc_release
 2438              	.LVL437:
 2439              	.L148:
 2440              	.LBE262:
 2441              	.LBE261:
1833:vm.c          ****     case OP_SUB:        ret = op_sub       (vm, code, regs); break;
 2442              		.loc 1 1833 0
 2443 0960 0027     		movs	r7, #0
 2444 0962 00F0BEBE 		b	.L57
 2445              	.LVL438:
 2446              	.L87:
 2447              	.LBB267:
 2448              	.LBB268:
 970:vm.c          **** 
 2449              		.loc 1 970 0
 2450 0966 E30D     		lsrs	r3, r4, #23
 2451              	.LVL439:
 972:vm.c          ****     regs[ra].i -= GETARG_C(code);
 2452              		.loc 1 972 0
ARM GAS  C:\Users\164\AppData\Local\Temp\ccd4XrSZ.s 			page 84


 2453 0968 1B01     		lsls	r3, r3, #4
 2454              	.LVL440:
 2455 096a F718     		adds	r7, r6, r3
 2456              	.LVL441:
 2457 096c F356     		ldrsb	r3, [r6, r3]
 2458 096e 042B     		cmp	r3, #4
 2459 0970 05D1     		bne	.L159
 973:vm.c          ****     return 0;
 2460              		.loc 1 973 0
 2461 0972 C4F3C614 		ubfx	r4, r4, #7, #7
 2462              	.LVL442:
 2463 0976 BB68     		ldr	r3, [r7, #8]
 2464 0978 1B1B     		subs	r3, r3, r4
 2465 097a BB60     		str	r3, [r7, #8]
 2466 097c 10E0     		b	.L160
 2467              	.LVL443:
 2468              	.L159:
 978:vm.c          ****     regs[ra].d -= GETARG_C(code);
 2469              		.loc 1 978 0
 2470 097e 052B     		cmp	r3, #5
 2471 0980 0CD1     		bne	.L161
 979:vm.c          ****     return 0;
 2472              		.loc 1 979 0
 2473 0982 C4F3C610 		ubfx	r0, r4, #7, #7
 2474 0986 FFF7FEFF 		bl	__aeabi_ui2d
 2475              	.LVL444:
 2476 098a 0246     		mov	r2, r0
 2477 098c 0B46     		mov	r3, r1
 2478 098e D7E90201 		ldrd	r0, [r7, #8]
 2479 0992 FFF7FEFF 		bl	__aeabi_dsub
 2480              	.LVL445:
 2481 0996 C7E90201 		strd	r0, [r7, #8]
 2482 099a 01E0     		b	.L160
 2483              	.L161:
 984:vm.c          ****   return 0;
 2484              		.loc 1 984 0
 2485 099c FFF7FEFF 		bl	not_supported
 2486              	.LVL446:
 2487              	.L160:
 2488              	.LBE268:
 2489              	.LBE267:
1834:vm.c          ****     case OP_SUBI:       ret = op_subi      (vm, code, regs); break;
 2490              		.loc 1 1834 0
 2491 09a0 0027     		movs	r7, #0
 2492 09a2 00F09EBE 		b	.L57
 2493              	.LVL447:
 2494              	.L88:
 2495              	.LBB269:
 2496              	.LBB270:
1002:vm.c          **** 
 2497              		.loc 1 1002 0
 2498 09a6 4FEAD459 		lsr	r9, r4, #23
 2499              	.LVL448:
1004:vm.c          ****     if( regs[ra+1].tt == MRBC_TT_FIXNUM ) {	// in case of Fixnum, Fixnum
 2500              		.loc 1 1004 0
 2501 09aa 4FEA0913 		lsl	r3, r9, #4
 2502              	.LVL449:
ARM GAS  C:\Users\164\AppData\Local\Temp\ccd4XrSZ.s 			page 85


 2503 09ae F718     		adds	r7, r6, r3
 2504              	.LVL450:
 2505 09b0 F256     		ldrsb	r2, [r6, r3]
 2506 09b2 042A     		cmp	r2, #4
 2507 09b4 1CD1     		bne	.L162
1005:vm.c          ****       regs[ra].i *= regs[ra+1].i;
 2508              		.loc 1 1005 0
 2509 09b6 09F10101 		add	r1, r9, #1
 2510 09ba 0901     		lsls	r1, r1, #4
 2511 09bc 7018     		adds	r0, r6, r1
 2512 09be 7156     		ldrsb	r1, [r6, r1]
 2513 09c0 0429     		cmp	r1, #4
 2514 09c2 05D1     		bne	.L163
1006:vm.c          ****       return 0;
 2515              		.loc 1 1006 0
 2516 09c4 8368     		ldr	r3, [r0, #8]
 2517 09c6 BA68     		ldr	r2, [r7, #8]
 2518 09c8 03FB02F3 		mul	r3, r3, r2
 2519 09cc BB60     		str	r3, [r7, #8]
 2520 09ce A6E0     		b	.L164
 2521              	.L163:
1010:vm.c          ****       regs[ra].tt = MRBC_TT_FLOAT;
 2522              		.loc 1 1010 0
 2523 09d0 0529     		cmp	r1, #5
 2524 09d2 0DD1     		bne	.L162
1011:vm.c          ****       regs[ra].d = regs[ra].i * regs[ra+1].d;
 2525              		.loc 1 1011 0
 2526 09d4 0522     		movs	r2, #5
 2527 09d6 F254     		strb	r2, [r6, r3]
1012:vm.c          ****       return 0;
 2528              		.loc 1 1012 0
 2529 09d8 D0E90289 		ldrd	r8, [r0, #8]
 2530 09dc B868     		ldr	r0, [r7, #8]
 2531 09de FFF7FEFF 		bl	__aeabi_i2d
 2532              	.LVL451:
 2533 09e2 4246     		mov	r2, r8
 2534 09e4 4B46     		mov	r3, r9
 2535 09e6 FFF7FEFF 		bl	__aeabi_dmul
 2536              	.LVL452:
 2537 09ea C7E90201 		strd	r0, [r7, #8]
 2538 09ee 96E0     		b	.L164
 2539              	.L162:
1016:vm.c          ****     if( regs[ra+1].tt == MRBC_TT_FIXNUM ) {	// in case of Float, Fixnum
 2540              		.loc 1 1016 0
 2541 09f0 052A     		cmp	r2, #5
 2542 09f2 23D1     		bne	.L165
1017:vm.c          ****       regs[ra].d *= regs[ra+1].i;
 2543              		.loc 1 1017 0
 2544 09f4 09F10103 		add	r3, r9, #1
 2545 09f8 1B01     		lsls	r3, r3, #4
 2546 09fa F218     		adds	r2, r6, r3
 2547 09fc F356     		ldrsb	r3, [r6, r3]
 2548 09fe 042B     		cmp	r3, #4
 2549 0a00 0BD1     		bne	.L166
1018:vm.c          ****       return 0;
 2550              		.loc 1 1018 0
 2551 0a02 9068     		ldr	r0, [r2, #8]
ARM GAS  C:\Users\164\AppData\Local\Temp\ccd4XrSZ.s 			page 86


 2552 0a04 FFF7FEFF 		bl	__aeabi_i2d
 2553              	.LVL453:
 2554 0a08 0246     		mov	r2, r0
 2555 0a0a 0B46     		mov	r3, r1
 2556 0a0c D7E90201 		ldrd	r0, [r7, #8]
 2557 0a10 FFF7FEFF 		bl	__aeabi_dmul
 2558              	.LVL454:
 2559 0a14 C7E90201 		strd	r0, [r7, #8]
 2560 0a18 81E0     		b	.L164
 2561              	.L166:
1021:vm.c          ****       regs[ra].d *= regs[ra+1].d;
 2562              		.loc 1 1021 0
 2563 0a1a 052B     		cmp	r3, #5
 2564 0a1c 0ED1     		bne	.L165
1022:vm.c          ****       return 0;
 2565              		.loc 1 1022 0
 2566 0a1e 02F10803 		add	r3, r2, #8
 2567 0a22 D3E90023 		ldrd	r2, [r3]
 2568 0a26 D7E90201 		ldrd	r0, [r7, #8]
 2569 0a2a FFF7FEFF 		bl	__aeabi_dmul
 2570              	.LVL455:
 2571 0a2e C7E90201 		strd	r0, [r7, #8]
 2572 0a32 74E0     		b	.L164
 2573              	.L300:
 2574              		.align	2
 2575              	.L299:
 2576 0a34 00000000 		.word	c_proc_call
 2577 0a38 30000000 		.word	.LC3
 2578              	.L165:
 2579              	.LVL456:
 2580              	.LBB271:
 2581              	.LBB272:
 643:vm.c          ****   int rb = GETARG_B(code);  // index of method sym
 2582              		.loc 1 643 0
 2583 0a3c E70D     		lsrs	r7, r4, #23
 2584              	.LVL457:
 644:vm.c          ****   int rc = GETARG_C(code);  // number of params
 2585              		.loc 1 644 0
 2586 0a3e C4F38833 		ubfx	r3, r4, #14, #9
 2587 0a42 0293     		str	r3, [sp, #8]
 2588              	.LVL458:
 645:vm.c          ****   mrbc_value recv = regs[ra];
 2589              		.loc 1 645 0
 2590 0a44 C4F3C61B 		ubfx	fp, r4, #7, #7
 2591              	.LVL459:
 646:vm.c          **** 
 2592              		.loc 1 646 0
 2593 0a48 4FEA071A 		lsl	r10, r7, #4
 2594 0a4c 06EB0A03 		add	r3, r6, r10
 2595              	.LVL460:
 2596 0a50 0393     		str	r3, [sp, #12]
 2597 0a52 0FCB     		ldmia	r3, {r0, r1, r2, r3}
 2598 0a54 0DF1300E 		add	lr, sp, #48
 2599 0a58 0EE90F00 		stmdb	lr, {r0, r1, r2, r3}
 649:vm.c          ****   switch( GET_OPCODE(code) ) {
 2600              		.loc 1 649 0
 2601 0a5c 07EB0B08 		add	r8, r7, fp
ARM GAS  C:\Users\164\AppData\Local\Temp\ccd4XrSZ.s 			page 87


 2602 0a60 08F10108 		add	r8, r8, #1
 2603              	.LVL461:
 650:vm.c          ****   case OP_SEND:
 2604              		.loc 1 650 0
 2605 0a64 04F07F04 		and	r4, r4, #127
 2606              	.LVL462:
 2607 0a68 202C     		cmp	r4, #32
 2608 0a6a 02D0     		beq	.L168
 2609 0a6c 212C     		cmp	r4, #33
 2610 0a6e 08D0     		beq	.L169
 2611 0a70 0EE0     		b	.L167
 2612              	.L168:
 653:vm.c          ****     regs[bidx].tt = MRBC_TT_NIL;
 2613              		.loc 1 653 0
 2614 0a72 4FEA0814 		lsl	r4, r8, #4
 2615 0a76 3019     		adds	r0, r6, r4
 2616 0a78 FFF7FEFF 		bl	mrbc_release
 2617              	.LVL463:
 654:vm.c          ****     break;
 2618              		.loc 1 654 0
 2619 0a7c 0123     		movs	r3, #1
 2620 0a7e 3355     		strb	r3, [r6, r4]
 2621 0a80 06E0     		b	.L167
 2622              	.L169:
 659:vm.c          ****       // TODO: fix the following behavior
 2623              		.loc 1 659 0
 2624 0a82 4FEA0813 		lsl	r3, r8, #4
 2625 0a86 F356     		ldrsb	r3, [r6, r3]
 2626 0a88 012B     		cmp	r3, #1
 2627 0a8a 01D0     		beq	.L167
 2628 0a8c 152B     		cmp	r3, #21
 2629 0a8e 40D1     		bne	.L170
 2630              	.L167:
 671:vm.c          ****   mrbc_sym sym_id = str_to_symid(sym_name);
 2631              		.loc 1 671 0
 2632 0a90 EB68     		ldr	r3, [r5, #12]
 2633 0a92 0299     		ldr	r1, [sp, #8]
 2634 0a94 5869     		ldr	r0, [r3, #20]
 2635 0a96 FFF7FEFF 		bl	mrbc_get_irep_symbol
 2636              	.LVL464:
 2637 0a9a 0290     		str	r0, [sp, #8]
 2638              	.LVL465:
 672:vm.c          ****   mrbc_proc *m = find_method(vm, &recv, sym_id);
 2639              		.loc 1 672 0
 2640 0a9c FFF7FEFF 		bl	str_to_symid
 2641              	.LVL466:
 673:vm.c          **** 
 2642              		.loc 1 673 0
 2643 0aa0 0246     		mov	r2, r0
 2644 0aa2 08A9     		add	r1, sp, #32
 2645 0aa4 2846     		mov	r0, r5
 2646              	.LVL467:
 2647 0aa6 FFF7FEFF 		bl	find_method
 2648              	.LVL468:
 675:vm.c          ****     mrb_class *cls = find_class_by_object( vm, &recv );
 2649              		.loc 1 675 0
 2650 0aaa 0446     		mov	r4, r0
ARM GAS  C:\Users\164\AppData\Local\Temp\ccd4XrSZ.s 			page 88


 2651 0aac 68B9     		cbnz	r0, .L171
 2652              	.LBB273:
 676:vm.c          ****     console_printf("No method. Class:%s Method:%s\n",
 2653              		.loc 1 676 0
 2654 0aae 08A9     		add	r1, sp, #32
 2655 0ab0 2846     		mov	r0, r5
 2656              	.LVL469:
 2657 0ab2 FFF7FEFF 		bl	find_class_by_object
 2658              	.LVL470:
 677:vm.c          **** 		   symid_to_str(cls->sym_id), sym_name );
 2659              		.loc 1 677 0
 2660 0ab6 B0F90000 		ldrsh	r0, [r0]
 2661              	.LVL471:
 2662 0aba FFF7FEFF 		bl	symid_to_str
 2663              	.LVL472:
 2664 0abe 029A     		ldr	r2, [sp, #8]
 2665 0ac0 0146     		mov	r1, r0
 2666 0ac2 BC48     		ldr	r0, .L301
 2667 0ac4 FFF7FEFF 		bl	console_printf
 2668              	.LVL473:
 2669 0ac8 23E0     		b	.L170
 2670              	.LVL474:
 2671              	.L171:
 2672              	.LBE273:
 683:vm.c          ****     m->func(vm, regs + ra, rc);
 2673              		.loc 1 683 0
 2674 0aca C378     		ldrb	r3, [r0, #3]	@ zero_extendqisi2
 2675 0acc 13F0010F 		tst	r3, #1
 2676 0ad0 12D0     		beq	.L172
 2677              	.LBB274:
 684:vm.c          **** 
 2678              		.loc 1 684 0
 2679 0ad2 C368     		ldr	r3, [r0, #12]
 2680 0ad4 5A46     		mov	r2, fp
 2681 0ad6 0399     		ldr	r1, [sp, #12]
 2682 0ad8 2846     		mov	r0, r5
 2683              	.LVL475:
 2684 0ada 9847     		blx	r3
 2685              	.LVL476:
 687:vm.c          **** 
 2686              		.loc 1 687 0
 2687 0adc E268     		ldr	r2, [r4, #12]
 2688 0ade B64B     		ldr	r3, .L301+4
 2689 0ae0 9A42     		cmp	r2, r3
 2690 0ae2 16D0     		beq	.L170
 689:vm.c          ****     while( release_reg <= bidx ) {
 2691              		.loc 1 689 0
 2692 0ae4 0137     		adds	r7, r7, #1
 2693              	.LVL477:
 2694 0ae6 04E0     		b	.L173
 2695              	.LVL478:
 2696              	.L174:
 691:vm.c          ****       release_reg++;
 2697              		.loc 1 691 0
 2698 0ae8 06EB0710 		add	r0, r6, r7, lsl #4
 2699 0aec FFF7FEFF 		bl	mrbc_release
 2700              	.LVL479:
ARM GAS  C:\Users\164\AppData\Local\Temp\ccd4XrSZ.s 			page 89


 692:vm.c          ****     }
 2701              		.loc 1 692 0
 2702 0af0 0137     		adds	r7, r7, #1
 2703              	.LVL480:
 2704              	.L173:
 690:vm.c          ****       mrbc_release(&regs[release_reg]);
 2705              		.loc 1 690 0
 2706 0af2 B845     		cmp	r8, r7
 2707 0af4 F8DA     		bge	.L174
 2708 0af6 0CE0     		b	.L170
 2709              	.LVL481:
 2710              	.L172:
 2711              	.LBE274:
 699:vm.c          **** 
 2712              		.loc 1 699 0
 2713 0af8 5946     		mov	r1, fp
 2714 0afa 2846     		mov	r0, r5
 2715              	.LVL482:
 2716 0afc FFF7FEFF 		bl	mrbc_push_callinfo
 2717              	.LVL483:
 702:vm.c          ****   vm->pc_irep = m->irep;
 2718              		.loc 1 702 0
 2719 0b00 0023     		movs	r3, #0
 2720 0b02 2B82     		strh	r3, [r5, #16]	@ movhi
 703:vm.c          **** 
 2721              		.loc 1 703 0
 2722 0b04 E368     		ldr	r3, [r4, #12]
 2723 0b06 EB60     		str	r3, [r5, #12]
 706:vm.c          **** 
 2724              		.loc 1 706 0
 2725 0b08 D5F85836 		ldr	r3, [r5, #1624]
 2726 0b0c 5344     		add	r3, r3, r10
 2727 0b0e C5F85836 		str	r3, [r5, #1624]
 2728              	.LVL484:
 2729              	.L170:
 2730              	.LBE272:
 2731              	.LBE271:
1030:vm.c          ****   return 0;
 2732              		.loc 1 1030 0
 2733 0b12 09F10100 		add	r0, r9, #1
 2734 0b16 06EB0010 		add	r0, r6, r0, lsl #4
 2735 0b1a FFF7FEFF 		bl	mrbc_release
 2736              	.LVL485:
 2737              	.L164:
 2738              	.LBE270:
 2739              	.LBE269:
1835:vm.c          ****     case OP_MUL:        ret = op_mul       (vm, code, regs); break;
 2740              		.loc 1 1835 0
 2741 0b1e 0027     		movs	r7, #0
 2742 0b20 00F0DFBD 		b	.L57
 2743              	.LVL486:
 2744              	.L89:
 2745              	.LBB275:
 2746              	.LBB276:
1048:vm.c          **** 
 2747              		.loc 1 1048 0
 2748 0b24 4FEAD459 		lsr	r9, r4, #23
ARM GAS  C:\Users\164\AppData\Local\Temp\ccd4XrSZ.s 			page 90


 2749              	.LVL487:
1050:vm.c          ****     if( regs[ra+1].tt == MRBC_TT_FIXNUM ) {	// in case of Fixnum, Fixnum
 2750              		.loc 1 1050 0
 2751 0b28 4FEA0913 		lsl	r3, r9, #4
 2752              	.LVL488:
 2753 0b2c F718     		adds	r7, r6, r3
 2754              	.LVL489:
 2755 0b2e F256     		ldrsb	r2, [r6, r3]
 2756 0b30 042A     		cmp	r2, #4
 2757 0b32 1CD1     		bne	.L175
1051:vm.c          ****       regs[ra].i /= regs[ra+1].i;
 2758              		.loc 1 1051 0
 2759 0b34 09F10101 		add	r1, r9, #1
 2760 0b38 0901     		lsls	r1, r1, #4
 2761 0b3a 7018     		adds	r0, r6, r1
 2762 0b3c 7156     		ldrsb	r1, [r6, r1]
 2763 0b3e 0429     		cmp	r1, #4
 2764 0b40 05D1     		bne	.L176
1052:vm.c          ****       return 0;
 2765              		.loc 1 1052 0
 2766 0b42 8268     		ldr	r2, [r0, #8]
 2767 0b44 BB68     		ldr	r3, [r7, #8]
 2768 0b46 93FBF2F3 		sdiv	r3, r3, r2
 2769 0b4a BB60     		str	r3, [r7, #8]
 2770 0b4c A2E0     		b	.L177
 2771              	.L176:
1056:vm.c          ****       regs[ra].tt = MRBC_TT_FLOAT;
 2772              		.loc 1 1056 0
 2773 0b4e 0529     		cmp	r1, #5
 2774 0b50 0DD1     		bne	.L175
1057:vm.c          ****       regs[ra].d = regs[ra].i / regs[ra+1].d;
 2775              		.loc 1 1057 0
 2776 0b52 0522     		movs	r2, #5
 2777 0b54 F254     		strb	r2, [r6, r3]
1058:vm.c          ****       return 0;
 2778              		.loc 1 1058 0
 2779 0b56 D0E90289 		ldrd	r8, [r0, #8]
 2780 0b5a B868     		ldr	r0, [r7, #8]
 2781 0b5c FFF7FEFF 		bl	__aeabi_i2d
 2782              	.LVL490:
 2783 0b60 4246     		mov	r2, r8
 2784 0b62 4B46     		mov	r3, r9
 2785 0b64 FFF7FEFF 		bl	__aeabi_ddiv
 2786              	.LVL491:
 2787 0b68 C7E90201 		strd	r0, [r7, #8]
 2788 0b6c 92E0     		b	.L177
 2789              	.L175:
1062:vm.c          ****     if( regs[ra+1].tt == MRBC_TT_FIXNUM ) {	// in case of Float, Fixnum
 2790              		.loc 1 1062 0
 2791 0b6e 052A     		cmp	r2, #5
 2792 0b70 1FD1     		bne	.L178
1063:vm.c          ****       regs[ra].d /= regs[ra+1].i;
 2793              		.loc 1 1063 0
 2794 0b72 09F10103 		add	r3, r9, #1
 2795 0b76 1B01     		lsls	r3, r3, #4
 2796 0b78 F218     		adds	r2, r6, r3
 2797 0b7a F356     		ldrsb	r3, [r6, r3]
ARM GAS  C:\Users\164\AppData\Local\Temp\ccd4XrSZ.s 			page 91


 2798 0b7c 042B     		cmp	r3, #4
 2799 0b7e 0BD1     		bne	.L179
1064:vm.c          ****       return 0;
 2800              		.loc 1 1064 0
 2801 0b80 9068     		ldr	r0, [r2, #8]
 2802 0b82 FFF7FEFF 		bl	__aeabi_i2d
 2803              	.LVL492:
 2804 0b86 0246     		mov	r2, r0
 2805 0b88 0B46     		mov	r3, r1
 2806 0b8a D7E90201 		ldrd	r0, [r7, #8]
 2807 0b8e FFF7FEFF 		bl	__aeabi_ddiv
 2808              	.LVL493:
 2809 0b92 C7E90201 		strd	r0, [r7, #8]
 2810 0b96 7DE0     		b	.L177
 2811              	.L179:
1067:vm.c          ****       regs[ra].d /= regs[ra+1].d;
 2812              		.loc 1 1067 0
 2813 0b98 052B     		cmp	r3, #5
 2814 0b9a 0AD1     		bne	.L178
1068:vm.c          ****       return 0;
 2815              		.loc 1 1068 0
 2816 0b9c 02F10803 		add	r3, r2, #8
 2817 0ba0 D3E90023 		ldrd	r2, [r3]
 2818 0ba4 D7E90201 		ldrd	r0, [r7, #8]
 2819 0ba8 FFF7FEFF 		bl	__aeabi_ddiv
 2820              	.LVL494:
 2821 0bac C7E90201 		strd	r0, [r7, #8]
 2822 0bb0 70E0     		b	.L177
 2823              	.L178:
 2824              	.LVL495:
 2825              	.LBB277:
 2826              	.LBB278:
 643:vm.c          ****   int rb = GETARG_B(code);  // index of method sym
 2827              		.loc 1 643 0
 2828 0bb2 E70D     		lsrs	r7, r4, #23
 2829              	.LVL496:
 644:vm.c          ****   int rc = GETARG_C(code);  // number of params
 2830              		.loc 1 644 0
 2831 0bb4 C4F38833 		ubfx	r3, r4, #14, #9
 2832 0bb8 0293     		str	r3, [sp, #8]
 2833              	.LVL497:
 645:vm.c          ****   mrbc_value recv = regs[ra];
 2834              		.loc 1 645 0
 2835 0bba C4F3C61B 		ubfx	fp, r4, #7, #7
 2836              	.LVL498:
 646:vm.c          **** 
 2837              		.loc 1 646 0
 2838 0bbe 4FEA071A 		lsl	r10, r7, #4
 2839 0bc2 06EB0A03 		add	r3, r6, r10
 2840              	.LVL499:
 2841 0bc6 0393     		str	r3, [sp, #12]
 2842 0bc8 0FCB     		ldmia	r3, {r0, r1, r2, r3}
 2843 0bca 0DF1300E 		add	lr, sp, #48
 2844 0bce 0EE90F00 		stmdb	lr, {r0, r1, r2, r3}
 649:vm.c          ****   switch( GET_OPCODE(code) ) {
 2845              		.loc 1 649 0
 2846 0bd2 07EB0B08 		add	r8, r7, fp
ARM GAS  C:\Users\164\AppData\Local\Temp\ccd4XrSZ.s 			page 92


 2847 0bd6 08F10108 		add	r8, r8, #1
 2848              	.LVL500:
 650:vm.c          ****   case OP_SEND:
 2849              		.loc 1 650 0
 2850 0bda 04F07F04 		and	r4, r4, #127
 2851              	.LVL501:
 2852 0bde 202C     		cmp	r4, #32
 2853 0be0 02D0     		beq	.L181
 2854 0be2 212C     		cmp	r4, #33
 2855 0be4 08D0     		beq	.L182
 2856 0be6 0EE0     		b	.L180
 2857              	.L181:
 653:vm.c          ****     regs[bidx].tt = MRBC_TT_NIL;
 2858              		.loc 1 653 0
 2859 0be8 4FEA0814 		lsl	r4, r8, #4
 2860 0bec 3019     		adds	r0, r6, r4
 2861 0bee FFF7FEFF 		bl	mrbc_release
 2862              	.LVL502:
 654:vm.c          ****     break;
 2863              		.loc 1 654 0
 2864 0bf2 0123     		movs	r3, #1
 2865 0bf4 3355     		strb	r3, [r6, r4]
 2866 0bf6 06E0     		b	.L180
 2867              	.L182:
 659:vm.c          ****       // TODO: fix the following behavior
 2868              		.loc 1 659 0
 2869 0bf8 4FEA0813 		lsl	r3, r8, #4
 2870 0bfc F356     		ldrsb	r3, [r6, r3]
 2871 0bfe 012B     		cmp	r3, #1
 2872 0c00 01D0     		beq	.L180
 2873 0c02 152B     		cmp	r3, #21
 2874 0c04 40D1     		bne	.L183
 2875              	.L180:
 671:vm.c          ****   mrbc_sym sym_id = str_to_symid(sym_name);
 2876              		.loc 1 671 0
 2877 0c06 EB68     		ldr	r3, [r5, #12]
 2878 0c08 0299     		ldr	r1, [sp, #8]
 2879 0c0a 5869     		ldr	r0, [r3, #20]
 2880 0c0c FFF7FEFF 		bl	mrbc_get_irep_symbol
 2881              	.LVL503:
 2882 0c10 0290     		str	r0, [sp, #8]
 2883              	.LVL504:
 672:vm.c          ****   mrbc_proc *m = find_method(vm, &recv, sym_id);
 2884              		.loc 1 672 0
 2885 0c12 FFF7FEFF 		bl	str_to_symid
 2886              	.LVL505:
 673:vm.c          **** 
 2887              		.loc 1 673 0
 2888 0c16 0246     		mov	r2, r0
 2889 0c18 08A9     		add	r1, sp, #32
 2890 0c1a 2846     		mov	r0, r5
 2891              	.LVL506:
 2892 0c1c FFF7FEFF 		bl	find_method
 2893              	.LVL507:
 675:vm.c          ****     mrb_class *cls = find_class_by_object( vm, &recv );
 2894              		.loc 1 675 0
 2895 0c20 0446     		mov	r4, r0
ARM GAS  C:\Users\164\AppData\Local\Temp\ccd4XrSZ.s 			page 93


 2896 0c22 68B9     		cbnz	r0, .L184
 2897              	.LBB279:
 676:vm.c          ****     console_printf("No method. Class:%s Method:%s\n",
 2898              		.loc 1 676 0
 2899 0c24 08A9     		add	r1, sp, #32
 2900 0c26 2846     		mov	r0, r5
 2901              	.LVL508:
 2902 0c28 FFF7FEFF 		bl	find_class_by_object
 2903              	.LVL509:
 677:vm.c          **** 		   symid_to_str(cls->sym_id), sym_name );
 2904              		.loc 1 677 0
 2905 0c2c B0F90000 		ldrsh	r0, [r0]
 2906              	.LVL510:
 2907 0c30 FFF7FEFF 		bl	symid_to_str
 2908              	.LVL511:
 2909 0c34 029A     		ldr	r2, [sp, #8]
 2910 0c36 0146     		mov	r1, r0
 2911 0c38 5E48     		ldr	r0, .L301
 2912 0c3a FFF7FEFF 		bl	console_printf
 2913              	.LVL512:
 2914 0c3e 23E0     		b	.L183
 2915              	.LVL513:
 2916              	.L184:
 2917              	.LBE279:
 683:vm.c          ****     m->func(vm, regs + ra, rc);
 2918              		.loc 1 683 0
 2919 0c40 C378     		ldrb	r3, [r0, #3]	@ zero_extendqisi2
 2920 0c42 13F0010F 		tst	r3, #1
 2921 0c46 12D0     		beq	.L185
 2922              	.LBB280:
 684:vm.c          **** 
 2923              		.loc 1 684 0
 2924 0c48 C368     		ldr	r3, [r0, #12]
 2925 0c4a 5A46     		mov	r2, fp
 2926 0c4c 0399     		ldr	r1, [sp, #12]
 2927 0c4e 2846     		mov	r0, r5
 2928              	.LVL514:
 2929 0c50 9847     		blx	r3
 2930              	.LVL515:
 687:vm.c          **** 
 2931              		.loc 1 687 0
 2932 0c52 E268     		ldr	r2, [r4, #12]
 2933 0c54 584B     		ldr	r3, .L301+4
 2934 0c56 9A42     		cmp	r2, r3
 2935 0c58 16D0     		beq	.L183
 689:vm.c          ****     while( release_reg <= bidx ) {
 2936              		.loc 1 689 0
 2937 0c5a 0137     		adds	r7, r7, #1
 2938              	.LVL516:
 2939 0c5c 04E0     		b	.L186
 2940              	.LVL517:
 2941              	.L187:
 691:vm.c          ****       release_reg++;
 2942              		.loc 1 691 0
 2943 0c5e 06EB0710 		add	r0, r6, r7, lsl #4
 2944 0c62 FFF7FEFF 		bl	mrbc_release
 2945              	.LVL518:
ARM GAS  C:\Users\164\AppData\Local\Temp\ccd4XrSZ.s 			page 94


 692:vm.c          ****     }
 2946              		.loc 1 692 0
 2947 0c66 0137     		adds	r7, r7, #1
 2948              	.LVL519:
 2949              	.L186:
 690:vm.c          ****       mrbc_release(&regs[release_reg]);
 2950              		.loc 1 690 0
 2951 0c68 B845     		cmp	r8, r7
 2952 0c6a F8DA     		bge	.L187
 2953 0c6c 0CE0     		b	.L183
 2954              	.LVL520:
 2955              	.L185:
 2956              	.LBE280:
 699:vm.c          **** 
 2957              		.loc 1 699 0
 2958 0c6e 5946     		mov	r1, fp
 2959 0c70 2846     		mov	r0, r5
 2960              	.LVL521:
 2961 0c72 FFF7FEFF 		bl	mrbc_push_callinfo
 2962              	.LVL522:
 702:vm.c          ****   vm->pc_irep = m->irep;
 2963              		.loc 1 702 0
 2964 0c76 0023     		movs	r3, #0
 2965 0c78 2B82     		strh	r3, [r5, #16]	@ movhi
 703:vm.c          **** 
 2966              		.loc 1 703 0
 2967 0c7a E368     		ldr	r3, [r4, #12]
 2968 0c7c EB60     		str	r3, [r5, #12]
 706:vm.c          **** 
 2969              		.loc 1 706 0
 2970 0c7e D5F85836 		ldr	r3, [r5, #1624]
 2971 0c82 5344     		add	r3, r3, r10
 2972 0c84 C5F85836 		str	r3, [r5, #1624]
 2973              	.LVL523:
 2974              	.L183:
 2975              	.LBE278:
 2976              	.LBE277:
1076:vm.c          ****   return 0;
 2977              		.loc 1 1076 0
 2978 0c88 09F10100 		add	r0, r9, #1
 2979 0c8c 06EB0010 		add	r0, r6, r0, lsl #4
 2980 0c90 FFF7FEFF 		bl	mrbc_release
 2981              	.LVL524:
 2982              	.L177:
 2983              	.LBE276:
 2984              	.LBE275:
1836:vm.c          ****     case OP_DIV:        ret = op_div       (vm, code, regs); break;
 2985              		.loc 1 1836 0
 2986 0c94 0027     		movs	r7, #0
 2987 0c96 00F024BD 		b	.L57
 2988              	.LVL525:
 2989              	.L90:
 2990              	.LBB281:
 2991              	.LBB282:
1094:vm.c          ****   int result = mrbc_compare(&regs[ra], &regs[ra+1]);
 2992              		.loc 1 1094 0
 2993 0c9a E40D     		lsrs	r4, r4, #23
ARM GAS  C:\Users\164\AppData\Local\Temp\ccd4XrSZ.s 			page 95


 2994              	.LVL526:
1095:vm.c          **** 
 2995              		.loc 1 1095 0
 2996 0c9c 4FEA0419 		lsl	r9, r4, #4
 2997 0ca0 06EB0907 		add	r7, r6, r9
 2998              	.LVL527:
 2999 0ca4 0134     		adds	r4, r4, #1
 3000              	.LVL528:
 3001 0ca6 06EB0414 		add	r4, r6, r4, lsl #4
 3002              	.LVL529:
 3003 0caa 2146     		mov	r1, r4
 3004 0cac 3846     		mov	r0, r7
 3005 0cae FFF7FEFF 		bl	mrbc_compare
 3006              	.LVL530:
 3007 0cb2 8046     		mov	r8, r0
 3008              	.LVL531:
1097:vm.c          ****   mrbc_release(&regs[ra]);
 3009              		.loc 1 1097 0
 3010 0cb4 2046     		mov	r0, r4
 3011              	.LVL532:
 3012 0cb6 FFF7FEFF 		bl	mrbc_release
 3013              	.LVL533:
1098:vm.c          ****   regs[ra].tt = result ? MRBC_TT_FALSE : MRBC_TT_TRUE;
 3014              		.loc 1 1098 0
 3015 0cba 3846     		mov	r0, r7
 3016 0cbc FFF7FEFF 		bl	mrbc_release
 3017              	.LVL534:
1099:vm.c          **** 
 3018              		.loc 1 1099 0
 3019 0cc0 B8F1000F 		cmp	r8, #0
 3020 0cc4 01D0     		beq	.L285
 3021 0cc6 0223     		movs	r3, #2
 3022 0cc8 00E0     		b	.L188
 3023              	.L285:
 3024 0cca 0323     		movs	r3, #3
 3025              	.L188:
 3026 0ccc 06F80930 		strb	r3, [r6, r9]
 3027              	.LVL535:
 3028              	.LBE282:
 3029              	.LBE281:
1837:vm.c          ****     case OP_EQ:         ret = op_eq        (vm, code, regs); break;
 3030              		.loc 1 1837 0
 3031 0cd0 0027     		movs	r7, #0
 3032 0cd2 00F006BD 		b	.L57
 3033              	.LVL536:
 3034              	.L91:
 3035              	.LBB283:
 3036              	.LBB284:
1118:vm.c          ****   int result;
 3037              		.loc 1 1118 0
 3038 0cd6 4FEAD458 		lsr	r8, r4, #23
 3039              	.LVL537:
1121:vm.c          ****     if( regs[ra+1].tt == MRBC_TT_FIXNUM ) {
 3040              		.loc 1 1121 0
 3041 0cda 4FEA0817 		lsl	r7, r8, #4
 3042              	.LVL538:
 3043 0cde F119     		adds	r1, r6, r7
ARM GAS  C:\Users\164\AppData\Local\Temp\ccd4XrSZ.s 			page 96


 3044 0ce0 F357     		ldrsb	r3, [r6, r7]
 3045              	.LVL539:
 3046 0ce2 042B     		cmp	r3, #4
 3047 0ce4 1FD1     		bne	.L189
1122:vm.c          ****       result = regs[ra].i < regs[ra+1].i;	// in case of Fixnum, Fixnum
 3048              		.loc 1 1122 0
 3049 0ce6 08F10102 		add	r2, r8, #1
 3050 0cea 1201     		lsls	r2, r2, #4
 3051 0cec B018     		adds	r0, r6, r2
 3052 0cee B256     		ldrsb	r2, [r6, r2]
 3053 0cf0 042A     		cmp	r2, #4
 3054 0cf2 06D1     		bne	.L190
1123:vm.c          ****       goto DONE;
 3055              		.loc 1 1123 0
 3056 0cf4 8B68     		ldr	r3, [r1, #8]
 3057 0cf6 8268     		ldr	r2, [r0, #8]
 3058 0cf8 9342     		cmp	r3, r2
 3059 0cfa ACBF     		ite	ge
 3060 0cfc 0023     		movge	r3, #0
 3061 0cfe 0123     		movlt	r3, #1
 3062              	.LVL540:
 3063 0d00 B3E0     		b	.L191
 3064              	.LVL541:
 3065              	.L190:
1127:vm.c          ****       result = regs[ra].i < regs[ra+1].d;	// in case of Fixnum, Float
 3066              		.loc 1 1127 0
 3067 0d02 052A     		cmp	r2, #5
 3068 0d04 0FD1     		bne	.L189
1128:vm.c          ****       goto DONE;
 3069              		.loc 1 1128 0
 3070 0d06 D0E90289 		ldrd	r8, [r0, #8]
 3071              	.LVL542:
 3072 0d0a 8868     		ldr	r0, [r1, #8]
 3073 0d0c FFF7FEFF 		bl	__aeabi_i2d
 3074              	.LVL543:
 3075 0d10 4FF00104 		mov	r4, #1
 3076              	.LVL544:
 3077 0d14 4246     		mov	r2, r8
 3078 0d16 4B46     		mov	r3, r9
 3079 0d18 FFF7FEFF 		bl	__aeabi_dcmplt
 3080              	.LVL545:
 3081 0d1c 08B9     		cbnz	r0, .L192
 3082 0d1e 4FF00004 		mov	r4, #0
 3083              	.L192:
 3084 0d22 E3B2     		uxtb	r3, r4
 3085              	.LVL546:
 3086 0d24 A1E0     		b	.L191
 3087              	.LVL547:
 3088              	.L189:
1132:vm.c          ****     if( regs[ra+1].tt == MRBC_TT_FIXNUM ) {
 3089              		.loc 1 1132 0
 3090 0d26 052B     		cmp	r3, #5
 3091 0d28 29D1     		bne	.L193
1133:vm.c          ****       result = regs[ra].d < regs[ra+1].i;	// in case of Float, Fixnum
 3092              		.loc 1 1133 0
 3093 0d2a 08F10103 		add	r3, r8, #1
 3094 0d2e 1B01     		lsls	r3, r3, #4
ARM GAS  C:\Users\164\AppData\Local\Temp\ccd4XrSZ.s 			page 97


 3095 0d30 F218     		adds	r2, r6, r3
 3096 0d32 F356     		ldrsb	r3, [r6, r3]
 3097 0d34 042B     		cmp	r3, #4
 3098 0d36 11D1     		bne	.L194
1134:vm.c          ****       goto DONE;
 3099              		.loc 1 1134 0
 3100 0d38 D1E90289 		ldrd	r8, [r1, #8]
 3101              	.LVL548:
 3102 0d3c 9068     		ldr	r0, [r2, #8]
 3103 0d3e FFF7FEFF 		bl	__aeabi_i2d
 3104              	.LVL549:
 3105 0d42 4FF00104 		mov	r4, #1
 3106              	.LVL550:
 3107 0d46 0246     		mov	r2, r0
 3108 0d48 0B46     		mov	r3, r1
 3109 0d4a 4046     		mov	r0, r8
 3110 0d4c 4946     		mov	r1, r9
 3111 0d4e FFF7FEFF 		bl	__aeabi_dcmplt
 3112              	.LVL551:
 3113 0d52 08B9     		cbnz	r0, .L195
 3114 0d54 4FF00004 		mov	r4, #0
 3115              	.L195:
 3116 0d58 E3B2     		uxtb	r3, r4
 3117              	.LVL552:
 3118 0d5a 86E0     		b	.L191
 3119              	.LVL553:
 3120              	.L194:
1137:vm.c          ****       result = regs[ra].d < regs[ra+1].d;	// in case of Float, Float
 3121              		.loc 1 1137 0
 3122 0d5c 052B     		cmp	r3, #5
 3123 0d5e 0ED1     		bne	.L193
1138:vm.c          ****       goto DONE;
 3124              		.loc 1 1138 0
 3125 0d60 4FF00104 		mov	r4, #1
 3126              	.LVL554:
 3127 0d64 02F10803 		add	r3, r2, #8
 3128 0d68 D3E90023 		ldrd	r2, [r3]
 3129 0d6c D1E90201 		ldrd	r0, [r1, #8]
 3130 0d70 FFF7FEFF 		bl	__aeabi_dcmplt
 3131              	.LVL555:
 3132 0d74 08B9     		cbnz	r0, .L196
 3133 0d76 4FF00004 		mov	r4, #0
 3134              	.L196:
 3135 0d7a E3B2     		uxtb	r3, r4
 3136              	.LVL556:
 3137 0d7c 75E0     		b	.L191
 3138              	.LVL557:
 3139              	.L193:
 3140              	.LBB285:
 3141              	.LBB286:
 643:vm.c          ****   int rb = GETARG_B(code);  // index of method sym
 3142              		.loc 1 643 0
 3143 0d7e E70D     		lsrs	r7, r4, #23
 3144              	.LVL558:
 644:vm.c          ****   int rc = GETARG_C(code);  // number of params
 3145              		.loc 1 644 0
 3146 0d80 C4F38833 		ubfx	r3, r4, #14, #9
ARM GAS  C:\Users\164\AppData\Local\Temp\ccd4XrSZ.s 			page 98


 3147 0d84 0293     		str	r3, [sp, #8]
 3148              	.LVL559:
 645:vm.c          ****   mrbc_value recv = regs[ra];
 3149              		.loc 1 645 0
 3150 0d86 C4F3C61B 		ubfx	fp, r4, #7, #7
 3151              	.LVL560:
 646:vm.c          **** 
 3152              		.loc 1 646 0
 3153 0d8a 4FEA071A 		lsl	r10, r7, #4
 3154 0d8e 06EB0A03 		add	r3, r6, r10
 3155              	.LVL561:
 3156 0d92 0393     		str	r3, [sp, #12]
 3157 0d94 0FCB     		ldmia	r3, {r0, r1, r2, r3}
 3158 0d96 0DF1300E 		add	lr, sp, #48
 3159 0d9a 0EE90F00 		stmdb	lr, {r0, r1, r2, r3}
 649:vm.c          ****   switch( GET_OPCODE(code) ) {
 3160              		.loc 1 649 0
 3161 0d9e 07EB0B09 		add	r9, r7, fp
 3162 0da2 09F10109 		add	r9, r9, #1
 3163              	.LVL562:
 650:vm.c          ****   case OP_SEND:
 3164              		.loc 1 650 0
 3165 0da6 04F07F04 		and	r4, r4, #127
 3166              	.LVL563:
 3167 0daa 202C     		cmp	r4, #32
 3168 0dac 06D0     		beq	.L198
 3169 0dae 212C     		cmp	r4, #33
 3170 0db0 0CD0     		beq	.L199
 3171 0db2 12E0     		b	.L197
 3172              	.L302:
 3173              		.align	2
 3174              	.L301:
 3175 0db4 30000000 		.word	.LC3
 3176 0db8 00000000 		.word	c_proc_call
 3177              	.L198:
 653:vm.c          ****     regs[bidx].tt = MRBC_TT_NIL;
 3178              		.loc 1 653 0
 3179 0dbc 4FEA0914 		lsl	r4, r9, #4
 3180 0dc0 3019     		adds	r0, r6, r4
 3181 0dc2 FFF7FEFF 		bl	mrbc_release
 3182              	.LVL564:
 654:vm.c          ****     break;
 3183              		.loc 1 654 0
 3184 0dc6 0123     		movs	r3, #1
 3185 0dc8 3355     		strb	r3, [r6, r4]
 3186 0dca 06E0     		b	.L197
 3187              	.L199:
 659:vm.c          ****       // TODO: fix the following behavior
 3188              		.loc 1 659 0
 3189 0dcc 4FEA0913 		lsl	r3, r9, #4
 3190 0dd0 F356     		ldrsb	r3, [r6, r3]
 3191 0dd2 012B     		cmp	r3, #1
 3192 0dd4 01D0     		beq	.L197
 3193 0dd6 152B     		cmp	r3, #21
 3194 0dd8 40D1     		bne	.L200
 3195              	.L197:
 671:vm.c          ****   mrbc_sym sym_id = str_to_symid(sym_name);
ARM GAS  C:\Users\164\AppData\Local\Temp\ccd4XrSZ.s 			page 99


 3196              		.loc 1 671 0
 3197 0dda EB68     		ldr	r3, [r5, #12]
 3198 0ddc 0299     		ldr	r1, [sp, #8]
 3199 0dde 5869     		ldr	r0, [r3, #20]
 3200 0de0 FFF7FEFF 		bl	mrbc_get_irep_symbol
 3201              	.LVL565:
 3202 0de4 0290     		str	r0, [sp, #8]
 3203              	.LVL566:
 672:vm.c          ****   mrbc_proc *m = find_method(vm, &recv, sym_id);
 3204              		.loc 1 672 0
 3205 0de6 FFF7FEFF 		bl	str_to_symid
 3206              	.LVL567:
 673:vm.c          **** 
 3207              		.loc 1 673 0
 3208 0dea 0246     		mov	r2, r0
 3209 0dec 08A9     		add	r1, sp, #32
 3210 0dee 2846     		mov	r0, r5
 3211              	.LVL568:
 3212 0df0 FFF7FEFF 		bl	find_method
 3213              	.LVL569:
 675:vm.c          ****     mrb_class *cls = find_class_by_object( vm, &recv );
 3214              		.loc 1 675 0
 3215 0df4 0446     		mov	r4, r0
 3216 0df6 68B9     		cbnz	r0, .L201
 3217              	.LBB287:
 676:vm.c          ****     console_printf("No method. Class:%s Method:%s\n",
 3218              		.loc 1 676 0
 3219 0df8 08A9     		add	r1, sp, #32
 3220 0dfa 2846     		mov	r0, r5
 3221              	.LVL570:
 3222 0dfc FFF7FEFF 		bl	find_class_by_object
 3223              	.LVL571:
 677:vm.c          **** 		   symid_to_str(cls->sym_id), sym_name );
 3224              		.loc 1 677 0
 3225 0e00 B0F90000 		ldrsh	r0, [r0]
 3226              	.LVL572:
 3227 0e04 FFF7FEFF 		bl	symid_to_str
 3228              	.LVL573:
 3229 0e08 029A     		ldr	r2, [sp, #8]
 3230 0e0a 0146     		mov	r1, r0
 3231 0e0c AB48     		ldr	r0, .L303
 3232 0e0e FFF7FEFF 		bl	console_printf
 3233              	.LVL574:
 3234 0e12 23E0     		b	.L200
 3235              	.LVL575:
 3236              	.L201:
 3237              	.LBE287:
 683:vm.c          ****     m->func(vm, regs + ra, rc);
 3238              		.loc 1 683 0
 3239 0e14 C378     		ldrb	r3, [r0, #3]	@ zero_extendqisi2
 3240 0e16 13F0010F 		tst	r3, #1
 3241 0e1a 12D0     		beq	.L202
 3242              	.LBB288:
 684:vm.c          **** 
 3243              		.loc 1 684 0
 3244 0e1c C368     		ldr	r3, [r0, #12]
 3245 0e1e 5A46     		mov	r2, fp
ARM GAS  C:\Users\164\AppData\Local\Temp\ccd4XrSZ.s 			page 100


 3246 0e20 0399     		ldr	r1, [sp, #12]
 3247 0e22 2846     		mov	r0, r5
 3248              	.LVL576:
 3249 0e24 9847     		blx	r3
 3250              	.LVL577:
 687:vm.c          **** 
 3251              		.loc 1 687 0
 3252 0e26 E268     		ldr	r2, [r4, #12]
 3253 0e28 A54B     		ldr	r3, .L303+4
 3254 0e2a 9A42     		cmp	r2, r3
 3255 0e2c 16D0     		beq	.L200
 689:vm.c          ****     while( release_reg <= bidx ) {
 3256              		.loc 1 689 0
 3257 0e2e 0137     		adds	r7, r7, #1
 3258              	.LVL578:
 3259 0e30 04E0     		b	.L203
 3260              	.LVL579:
 3261              	.L204:
 691:vm.c          ****       release_reg++;
 3262              		.loc 1 691 0
 3263 0e32 06EB0710 		add	r0, r6, r7, lsl #4
 3264 0e36 FFF7FEFF 		bl	mrbc_release
 3265              	.LVL580:
 692:vm.c          ****     }
 3266              		.loc 1 692 0
 3267 0e3a 0137     		adds	r7, r7, #1
 3268              	.LVL581:
 3269              	.L203:
 690:vm.c          ****       mrbc_release(&regs[release_reg]);
 3270              		.loc 1 690 0
 3271 0e3c B945     		cmp	r9, r7
 3272 0e3e F8DA     		bge	.L204
 3273 0e40 0CE0     		b	.L200
 3274              	.LVL582:
 3275              	.L202:
 3276              	.LBE288:
 699:vm.c          **** 
 3277              		.loc 1 699 0
 3278 0e42 5946     		mov	r1, fp
 3279 0e44 2846     		mov	r0, r5
 3280              	.LVL583:
 3281 0e46 FFF7FEFF 		bl	mrbc_push_callinfo
 3282              	.LVL584:
 702:vm.c          ****   vm->pc_irep = m->irep;
 3283              		.loc 1 702 0
 3284 0e4a 0023     		movs	r3, #0
 3285 0e4c 2B82     		strh	r3, [r5, #16]	@ movhi
 703:vm.c          **** 
 3286              		.loc 1 703 0
 3287 0e4e E368     		ldr	r3, [r4, #12]
 3288 0e50 EB60     		str	r3, [r5, #12]
 706:vm.c          **** 
 3289              		.loc 1 706 0
 3290 0e52 D5F85836 		ldr	r3, [r5, #1624]
 3291 0e56 5344     		add	r3, r3, r10
 3292 0e58 C5F85836 		str	r3, [r5, #1624]
 3293              	.LVL585:
ARM GAS  C:\Users\164\AppData\Local\Temp\ccd4XrSZ.s 			page 101


 3294              	.L200:
 3295              	.LBE286:
 3296              	.LBE285:
1146:vm.c          ****   return 0;
 3297              		.loc 1 1146 0
 3298 0e5c 08F10100 		add	r0, r8, #1
 3299 0e60 06EB0010 		add	r0, r6, r0, lsl #4
 3300 0e64 FFF7FEFF 		bl	mrbc_release
 3301              	.LVL586:
 3302 0e68 04E0     		b	.L205
 3303              	.LVL587:
 3304              	.L191:
1150:vm.c          ****   return 0;
 3305              		.loc 1 1150 0
 3306 0e6a 0BB1     		cbz	r3, .L286
 3307 0e6c 0323     		movs	r3, #3
 3308              	.LVL588:
 3309 0e6e 00E0     		b	.L206
 3310              	.LVL589:
 3311              	.L286:
 3312 0e70 0223     		movs	r3, #2
 3313              	.LVL590:
 3314              	.L206:
 3315 0e72 F355     		strb	r3, [r6, r7]
 3316              	.L205:
 3317              	.LVL591:
 3318              	.LBE284:
 3319              	.LBE283:
1838:vm.c          ****     case OP_LT:         ret = op_lt        (vm, code, regs); break;
 3320              		.loc 1 1838 0
 3321 0e74 0027     		movs	r7, #0
 3322 0e76 00F034BC 		b	.L57
 3323              	.LVL592:
 3324              	.L92:
 3325              	.LBB289:
 3326              	.LBB290:
1168:vm.c          ****   int result;
 3327              		.loc 1 1168 0
 3328 0e7a 4FEAD458 		lsr	r8, r4, #23
 3329              	.LVL593:
1171:vm.c          ****     if( regs[ra+1].tt == MRBC_TT_FIXNUM ) {
 3330              		.loc 1 1171 0
 3331 0e7e 4FEA0817 		lsl	r7, r8, #4
 3332              	.LVL594:
 3333 0e82 F119     		adds	r1, r6, r7
 3334 0e84 F357     		ldrsb	r3, [r6, r7]
 3335              	.LVL595:
 3336 0e86 042B     		cmp	r3, #4
 3337 0e88 1FD1     		bne	.L207
1172:vm.c          ****       result = regs[ra].i <= regs[ra+1].i;	// in case of Fixnum, Fixnum
 3338              		.loc 1 1172 0
 3339 0e8a 08F10102 		add	r2, r8, #1
 3340 0e8e 1201     		lsls	r2, r2, #4
 3341 0e90 B018     		adds	r0, r6, r2
 3342 0e92 B256     		ldrsb	r2, [r6, r2]
 3343 0e94 042A     		cmp	r2, #4
 3344 0e96 06D1     		bne	.L208
ARM GAS  C:\Users\164\AppData\Local\Temp\ccd4XrSZ.s 			page 102


1173:vm.c          ****       goto DONE;
 3345              		.loc 1 1173 0
 3346 0e98 8B68     		ldr	r3, [r1, #8]
 3347 0e9a 8268     		ldr	r2, [r0, #8]
 3348 0e9c 9342     		cmp	r3, r2
 3349 0e9e CCBF     		ite	gt
 3350 0ea0 0023     		movgt	r3, #0
 3351 0ea2 0123     		movle	r3, #1
 3352              	.LVL596:
 3353 0ea4 AFE0     		b	.L209
 3354              	.LVL597:
 3355              	.L208:
1177:vm.c          ****       result = regs[ra].i <= regs[ra+1].d;	// in case of Fixnum, Float
 3356              		.loc 1 1177 0
 3357 0ea6 052A     		cmp	r2, #5
 3358 0ea8 0FD1     		bne	.L207
1178:vm.c          ****       goto DONE;
 3359              		.loc 1 1178 0
 3360 0eaa D0E90289 		ldrd	r8, [r0, #8]
 3361              	.LVL598:
 3362 0eae 8868     		ldr	r0, [r1, #8]
 3363 0eb0 FFF7FEFF 		bl	__aeabi_i2d
 3364              	.LVL599:
 3365 0eb4 4FF00104 		mov	r4, #1
 3366              	.LVL600:
 3367 0eb8 4246     		mov	r2, r8
 3368 0eba 4B46     		mov	r3, r9
 3369 0ebc FFF7FEFF 		bl	__aeabi_dcmple
 3370              	.LVL601:
 3371 0ec0 08B9     		cbnz	r0, .L210
 3372 0ec2 4FF00004 		mov	r4, #0
 3373              	.L210:
 3374 0ec6 E3B2     		uxtb	r3, r4
 3375              	.LVL602:
 3376 0ec8 9DE0     		b	.L209
 3377              	.LVL603:
 3378              	.L207:
1182:vm.c          ****     if( regs[ra+1].tt == MRBC_TT_FIXNUM ) {
 3379              		.loc 1 1182 0
 3380 0eca 052B     		cmp	r3, #5
 3381 0ecc 29D1     		bne	.L211
1183:vm.c          ****       result = regs[ra].d <= regs[ra+1].i;	// in case of Float, Fixnum
 3382              		.loc 1 1183 0
 3383 0ece 08F10103 		add	r3, r8, #1
 3384 0ed2 1B01     		lsls	r3, r3, #4
 3385 0ed4 F218     		adds	r2, r6, r3
 3386 0ed6 F356     		ldrsb	r3, [r6, r3]
 3387 0ed8 042B     		cmp	r3, #4
 3388 0eda 11D1     		bne	.L212
1184:vm.c          ****       goto DONE;
 3389              		.loc 1 1184 0
 3390 0edc D1E90289 		ldrd	r8, [r1, #8]
 3391              	.LVL604:
 3392 0ee0 9068     		ldr	r0, [r2, #8]
 3393 0ee2 FFF7FEFF 		bl	__aeabi_i2d
 3394              	.LVL605:
 3395 0ee6 4FF00104 		mov	r4, #1
ARM GAS  C:\Users\164\AppData\Local\Temp\ccd4XrSZ.s 			page 103


 3396              	.LVL606:
 3397 0eea 0246     		mov	r2, r0
 3398 0eec 0B46     		mov	r3, r1
 3399 0eee 4046     		mov	r0, r8
 3400 0ef0 4946     		mov	r1, r9
 3401 0ef2 FFF7FEFF 		bl	__aeabi_dcmple
 3402              	.LVL607:
 3403 0ef6 08B9     		cbnz	r0, .L213
 3404 0ef8 4FF00004 		mov	r4, #0
 3405              	.L213:
 3406 0efc E3B2     		uxtb	r3, r4
 3407              	.LVL608:
 3408 0efe 82E0     		b	.L209
 3409              	.LVL609:
 3410              	.L212:
1187:vm.c          ****       result = regs[ra].d <= regs[ra+1].d;	// in case of Float, Float
 3411              		.loc 1 1187 0
 3412 0f00 052B     		cmp	r3, #5
 3413 0f02 0ED1     		bne	.L211
1188:vm.c          ****       goto DONE;
 3414              		.loc 1 1188 0
 3415 0f04 4FF00104 		mov	r4, #1
 3416              	.LVL610:
 3417 0f08 02F10803 		add	r3, r2, #8
 3418 0f0c D3E90023 		ldrd	r2, [r3]
 3419 0f10 D1E90201 		ldrd	r0, [r1, #8]
 3420 0f14 FFF7FEFF 		bl	__aeabi_dcmple
 3421              	.LVL611:
 3422 0f18 08B9     		cbnz	r0, .L214
 3423 0f1a 4FF00004 		mov	r4, #0
 3424              	.L214:
 3425 0f1e E3B2     		uxtb	r3, r4
 3426              	.LVL612:
 3427 0f20 71E0     		b	.L209
 3428              	.LVL613:
 3429              	.L211:
 3430              	.LBB291:
 3431              	.LBB292:
 643:vm.c          ****   int rb = GETARG_B(code);  // index of method sym
 3432              		.loc 1 643 0
 3433 0f22 E70D     		lsrs	r7, r4, #23
 3434              	.LVL614:
 644:vm.c          ****   int rc = GETARG_C(code);  // number of params
 3435              		.loc 1 644 0
 3436 0f24 C4F38833 		ubfx	r3, r4, #14, #9
 3437 0f28 0293     		str	r3, [sp, #8]
 3438              	.LVL615:
 645:vm.c          ****   mrbc_value recv = regs[ra];
 3439              		.loc 1 645 0
 3440 0f2a C4F3C61B 		ubfx	fp, r4, #7, #7
 3441              	.LVL616:
 646:vm.c          **** 
 3442              		.loc 1 646 0
 3443 0f2e 4FEA071A 		lsl	r10, r7, #4
 3444 0f32 06EB0A03 		add	r3, r6, r10
 3445              	.LVL617:
 3446 0f36 0393     		str	r3, [sp, #12]
ARM GAS  C:\Users\164\AppData\Local\Temp\ccd4XrSZ.s 			page 104


 3447 0f38 0FCB     		ldmia	r3, {r0, r1, r2, r3}
 3448 0f3a 0DF1300E 		add	lr, sp, #48
 3449 0f3e 0EE90F00 		stmdb	lr, {r0, r1, r2, r3}
 649:vm.c          ****   switch( GET_OPCODE(code) ) {
 3450              		.loc 1 649 0
 3451 0f42 07EB0B09 		add	r9, r7, fp
 3452 0f46 09F10109 		add	r9, r9, #1
 3453              	.LVL618:
 650:vm.c          ****   case OP_SEND:
 3454              		.loc 1 650 0
 3455 0f4a 04F07F04 		and	r4, r4, #127
 3456              	.LVL619:
 3457 0f4e 202C     		cmp	r4, #32
 3458 0f50 02D0     		beq	.L216
 3459 0f52 212C     		cmp	r4, #33
 3460 0f54 08D0     		beq	.L217
 3461 0f56 0EE0     		b	.L215
 3462              	.L216:
 653:vm.c          ****     regs[bidx].tt = MRBC_TT_NIL;
 3463              		.loc 1 653 0
 3464 0f58 4FEA0914 		lsl	r4, r9, #4
 3465 0f5c 3019     		adds	r0, r6, r4
 3466 0f5e FFF7FEFF 		bl	mrbc_release
 3467              	.LVL620:
 654:vm.c          ****     break;
 3468              		.loc 1 654 0
 3469 0f62 0123     		movs	r3, #1
 3470 0f64 3355     		strb	r3, [r6, r4]
 3471 0f66 06E0     		b	.L215
 3472              	.L217:
 659:vm.c          ****       // TODO: fix the following behavior
 3473              		.loc 1 659 0
 3474 0f68 4FEA0913 		lsl	r3, r9, #4
 3475 0f6c F356     		ldrsb	r3, [r6, r3]
 3476 0f6e 012B     		cmp	r3, #1
 3477 0f70 01D0     		beq	.L215
 3478 0f72 152B     		cmp	r3, #21
 3479 0f74 40D1     		bne	.L218
 3480              	.L215:
 671:vm.c          ****   mrbc_sym sym_id = str_to_symid(sym_name);
 3481              		.loc 1 671 0
 3482 0f76 EB68     		ldr	r3, [r5, #12]
 3483 0f78 0299     		ldr	r1, [sp, #8]
 3484 0f7a 5869     		ldr	r0, [r3, #20]
 3485 0f7c FFF7FEFF 		bl	mrbc_get_irep_symbol
 3486              	.LVL621:
 3487 0f80 0290     		str	r0, [sp, #8]
 3488              	.LVL622:
 672:vm.c          ****   mrbc_proc *m = find_method(vm, &recv, sym_id);
 3489              		.loc 1 672 0
 3490 0f82 FFF7FEFF 		bl	str_to_symid
 3491              	.LVL623:
 673:vm.c          **** 
 3492              		.loc 1 673 0
 3493 0f86 0246     		mov	r2, r0
 3494 0f88 08A9     		add	r1, sp, #32
 3495 0f8a 2846     		mov	r0, r5
ARM GAS  C:\Users\164\AppData\Local\Temp\ccd4XrSZ.s 			page 105


 3496              	.LVL624:
 3497 0f8c FFF7FEFF 		bl	find_method
 3498              	.LVL625:
 675:vm.c          ****     mrb_class *cls = find_class_by_object( vm, &recv );
 3499              		.loc 1 675 0
 3500 0f90 0446     		mov	r4, r0
 3501 0f92 68B9     		cbnz	r0, .L219
 3502              	.LBB293:
 676:vm.c          ****     console_printf("No method. Class:%s Method:%s\n",
 3503              		.loc 1 676 0
 3504 0f94 08A9     		add	r1, sp, #32
 3505 0f96 2846     		mov	r0, r5
 3506              	.LVL626:
 3507 0f98 FFF7FEFF 		bl	find_class_by_object
 3508              	.LVL627:
 677:vm.c          **** 		   symid_to_str(cls->sym_id), sym_name );
 3509              		.loc 1 677 0
 3510 0f9c B0F90000 		ldrsh	r0, [r0]
 3511              	.LVL628:
 3512 0fa0 FFF7FEFF 		bl	symid_to_str
 3513              	.LVL629:
 3514 0fa4 029A     		ldr	r2, [sp, #8]
 3515 0fa6 0146     		mov	r1, r0
 3516 0fa8 4448     		ldr	r0, .L303
 3517 0faa FFF7FEFF 		bl	console_printf
 3518              	.LVL630:
 3519 0fae 23E0     		b	.L218
 3520              	.LVL631:
 3521              	.L219:
 3522              	.LBE293:
 683:vm.c          ****     m->func(vm, regs + ra, rc);
 3523              		.loc 1 683 0
 3524 0fb0 C378     		ldrb	r3, [r0, #3]	@ zero_extendqisi2
 3525 0fb2 13F0010F 		tst	r3, #1
 3526 0fb6 12D0     		beq	.L220
 3527              	.LBB294:
 684:vm.c          **** 
 3528              		.loc 1 684 0
 3529 0fb8 C368     		ldr	r3, [r0, #12]
 3530 0fba 5A46     		mov	r2, fp
 3531 0fbc 0399     		ldr	r1, [sp, #12]
 3532 0fbe 2846     		mov	r0, r5
 3533              	.LVL632:
 3534 0fc0 9847     		blx	r3
 3535              	.LVL633:
 687:vm.c          **** 
 3536              		.loc 1 687 0
 3537 0fc2 E268     		ldr	r2, [r4, #12]
 3538 0fc4 3E4B     		ldr	r3, .L303+4
 3539 0fc6 9A42     		cmp	r2, r3
 3540 0fc8 16D0     		beq	.L218
 689:vm.c          ****     while( release_reg <= bidx ) {
 3541              		.loc 1 689 0
 3542 0fca 0137     		adds	r7, r7, #1
 3543              	.LVL634:
 3544 0fcc 04E0     		b	.L221
 3545              	.LVL635:
ARM GAS  C:\Users\164\AppData\Local\Temp\ccd4XrSZ.s 			page 106


 3546              	.L222:
 691:vm.c          ****       release_reg++;
 3547              		.loc 1 691 0
 3548 0fce 06EB0710 		add	r0, r6, r7, lsl #4
 3549 0fd2 FFF7FEFF 		bl	mrbc_release
 3550              	.LVL636:
 692:vm.c          ****     }
 3551              		.loc 1 692 0
 3552 0fd6 0137     		adds	r7, r7, #1
 3553              	.LVL637:
 3554              	.L221:
 690:vm.c          ****       mrbc_release(&regs[release_reg]);
 3555              		.loc 1 690 0
 3556 0fd8 B945     		cmp	r9, r7
 3557 0fda F8DA     		bge	.L222
 3558 0fdc 0CE0     		b	.L218
 3559              	.LVL638:
 3560              	.L220:
 3561              	.LBE294:
 699:vm.c          **** 
 3562              		.loc 1 699 0
 3563 0fde 5946     		mov	r1, fp
 3564 0fe0 2846     		mov	r0, r5
 3565              	.LVL639:
 3566 0fe2 FFF7FEFF 		bl	mrbc_push_callinfo
 3567              	.LVL640:
 702:vm.c          ****   vm->pc_irep = m->irep;
 3568              		.loc 1 702 0
 3569 0fe6 0023     		movs	r3, #0
 3570 0fe8 2B82     		strh	r3, [r5, #16]	@ movhi
 703:vm.c          **** 
 3571              		.loc 1 703 0
 3572 0fea E368     		ldr	r3, [r4, #12]
 3573 0fec EB60     		str	r3, [r5, #12]
 706:vm.c          **** 
 3574              		.loc 1 706 0
 3575 0fee D5F85836 		ldr	r3, [r5, #1624]
 3576 0ff2 5344     		add	r3, r3, r10
 3577 0ff4 C5F85836 		str	r3, [r5, #1624]
 3578              	.LVL641:
 3579              	.L218:
 3580              	.LBE292:
 3581              	.LBE291:
1196:vm.c          ****   return 0;
 3582              		.loc 1 1196 0
 3583 0ff8 08F10100 		add	r0, r8, #1
 3584 0ffc 06EB0010 		add	r0, r6, r0, lsl #4
 3585 1000 FFF7FEFF 		bl	mrbc_release
 3586              	.LVL642:
 3587 1004 04E0     		b	.L223
 3588              	.LVL643:
 3589              	.L209:
1200:vm.c          ****   return 0;
 3590              		.loc 1 1200 0
 3591 1006 0BB1     		cbz	r3, .L287
 3592 1008 0323     		movs	r3, #3
 3593              	.LVL644:
ARM GAS  C:\Users\164\AppData\Local\Temp\ccd4XrSZ.s 			page 107


 3594 100a 00E0     		b	.L224
 3595              	.LVL645:
 3596              	.L287:
 3597 100c 0223     		movs	r3, #2
 3598              	.LVL646:
 3599              	.L224:
 3600 100e F355     		strb	r3, [r6, r7]
 3601              	.L223:
 3602              	.LVL647:
 3603              	.LBE290:
 3604              	.LBE289:
1839:vm.c          ****     case OP_LE:         ret = op_le        (vm, code, regs); break;
 3605              		.loc 1 1839 0
 3606 1010 0027     		movs	r7, #0
 3607 1012 66E3     		b	.L57
 3608              	.LVL648:
 3609              	.L93:
 3610              	.LBB295:
 3611              	.LBB296:
1218:vm.c          ****   int result;
 3612              		.loc 1 1218 0
 3613 1014 4FEAD458 		lsr	r8, r4, #23
 3614              	.LVL649:
1221:vm.c          ****     if( regs[ra+1].tt == MRBC_TT_FIXNUM ) {
 3615              		.loc 1 1221 0
 3616 1018 4FEA0817 		lsl	r7, r8, #4
 3617              	.LVL650:
 3618 101c F119     		adds	r1, r6, r7
 3619 101e F357     		ldrsb	r3, [r6, r7]
 3620              	.LVL651:
 3621 1020 042B     		cmp	r3, #4
 3622 1022 1FD1     		bne	.L225
1222:vm.c          ****       result = regs[ra].i > regs[ra+1].i;	// in case of Fixnum, Fixnum
 3623              		.loc 1 1222 0
 3624 1024 08F10102 		add	r2, r8, #1
 3625 1028 1201     		lsls	r2, r2, #4
 3626 102a B018     		adds	r0, r6, r2
 3627 102c B256     		ldrsb	r2, [r6, r2]
 3628 102e 042A     		cmp	r2, #4
 3629 1030 06D1     		bne	.L226
1223:vm.c          ****       goto DONE;
 3630              		.loc 1 1223 0
 3631 1032 8B68     		ldr	r3, [r1, #8]
 3632 1034 8268     		ldr	r2, [r0, #8]
 3633 1036 9342     		cmp	r3, r2
 3634 1038 D4BF     		ite	le
 3635 103a 0023     		movle	r3, #0
 3636 103c 0123     		movgt	r3, #1
 3637              	.LVL652:
 3638 103e B3E0     		b	.L227
 3639              	.LVL653:
 3640              	.L226:
1227:vm.c          ****       result = regs[ra].i > regs[ra+1].d;	// in case of Fixnum, Float
 3641              		.loc 1 1227 0
 3642 1040 052A     		cmp	r2, #5
 3643 1042 0FD1     		bne	.L225
1228:vm.c          ****       goto DONE;
ARM GAS  C:\Users\164\AppData\Local\Temp\ccd4XrSZ.s 			page 108


 3644              		.loc 1 1228 0
 3645 1044 D0E90289 		ldrd	r8, [r0, #8]
 3646              	.LVL654:
 3647 1048 8868     		ldr	r0, [r1, #8]
 3648 104a FFF7FEFF 		bl	__aeabi_i2d
 3649              	.LVL655:
 3650 104e 4FF00104 		mov	r4, #1
 3651              	.LVL656:
 3652 1052 4246     		mov	r2, r8
 3653 1054 4B46     		mov	r3, r9
 3654 1056 FFF7FEFF 		bl	__aeabi_dcmpgt
 3655              	.LVL657:
 3656 105a 08B9     		cbnz	r0, .L228
 3657 105c 4FF00004 		mov	r4, #0
 3658              	.L228:
 3659 1060 E3B2     		uxtb	r3, r4
 3660              	.LVL658:
 3661 1062 A1E0     		b	.L227
 3662              	.LVL659:
 3663              	.L225:
1232:vm.c          ****     if( regs[ra+1].tt == MRBC_TT_FIXNUM ) {
 3664              		.loc 1 1232 0
 3665 1064 052B     		cmp	r3, #5
 3666 1066 2DD1     		bne	.L229
1233:vm.c          ****       result = regs[ra].d > regs[ra+1].i;	// in case of Float, Fixnum
 3667              		.loc 1 1233 0
 3668 1068 08F10103 		add	r3, r8, #1
 3669 106c 1B01     		lsls	r3, r3, #4
 3670 106e F218     		adds	r2, r6, r3
 3671 1070 F356     		ldrsb	r3, [r6, r3]
 3672 1072 042B     		cmp	r3, #4
 3673 1074 11D1     		bne	.L230
1234:vm.c          ****       goto DONE;
 3674              		.loc 1 1234 0
 3675 1076 D1E90289 		ldrd	r8, [r1, #8]
 3676              	.LVL660:
 3677 107a 9068     		ldr	r0, [r2, #8]
 3678 107c FFF7FEFF 		bl	__aeabi_i2d
 3679              	.LVL661:
 3680 1080 4FF00104 		mov	r4, #1
 3681              	.LVL662:
 3682 1084 0246     		mov	r2, r0
 3683 1086 0B46     		mov	r3, r1
 3684 1088 4046     		mov	r0, r8
 3685 108a 4946     		mov	r1, r9
 3686 108c FFF7FEFF 		bl	__aeabi_dcmpgt
 3687              	.LVL663:
 3688 1090 08B9     		cbnz	r0, .L231
 3689 1092 4FF00004 		mov	r4, #0
 3690              	.L231:
 3691 1096 E3B2     		uxtb	r3, r4
 3692              	.LVL664:
 3693 1098 86E0     		b	.L227
 3694              	.LVL665:
 3695              	.L230:
1237:vm.c          ****       result = regs[ra].d > regs[ra+1].d;	// in case of Float, Float
 3696              		.loc 1 1237 0
ARM GAS  C:\Users\164\AppData\Local\Temp\ccd4XrSZ.s 			page 109


 3697 109a 052B     		cmp	r3, #5
 3698 109c 12D1     		bne	.L229
1238:vm.c          ****       goto DONE;
 3699              		.loc 1 1238 0
 3700 109e 4FF00104 		mov	r4, #1
 3701              	.LVL666:
 3702 10a2 02F10803 		add	r3, r2, #8
 3703 10a6 D3E90023 		ldrd	r2, [r3]
 3704 10aa D1E90201 		ldrd	r0, [r1, #8]
 3705 10ae FFF7FEFF 		bl	__aeabi_dcmpgt
 3706              	.LVL667:
 3707 10b2 08B9     		cbnz	r0, .L232
 3708 10b4 4FF00004 		mov	r4, #0
 3709              	.L232:
 3710 10b8 E3B2     		uxtb	r3, r4
 3711              	.LVL668:
 3712 10ba 75E0     		b	.L227
 3713              	.L304:
 3714              		.align	2
 3715              	.L303:
 3716 10bc 30000000 		.word	.LC3
 3717 10c0 00000000 		.word	c_proc_call
 3718              	.LVL669:
 3719              	.L229:
 3720              	.LBB297:
 3721              	.LBB298:
 643:vm.c          ****   int rb = GETARG_B(code);  // index of method sym
 3722              		.loc 1 643 0
 3723 10c4 E70D     		lsrs	r7, r4, #23
 3724              	.LVL670:
 644:vm.c          ****   int rc = GETARG_C(code);  // number of params
 3725              		.loc 1 644 0
 3726 10c6 C4F38833 		ubfx	r3, r4, #14, #9
 3727 10ca 0293     		str	r3, [sp, #8]
 3728              	.LVL671:
 645:vm.c          ****   mrbc_value recv = regs[ra];
 3729              		.loc 1 645 0
 3730 10cc C4F3C61B 		ubfx	fp, r4, #7, #7
 3731              	.LVL672:
 646:vm.c          **** 
 3732              		.loc 1 646 0
 3733 10d0 4FEA071A 		lsl	r10, r7, #4
 3734 10d4 06EB0A03 		add	r3, r6, r10
 3735              	.LVL673:
 3736 10d8 0393     		str	r3, [sp, #12]
 3737 10da 0FCB     		ldmia	r3, {r0, r1, r2, r3}
 3738 10dc 0DF1300E 		add	lr, sp, #48
 3739 10e0 0EE90F00 		stmdb	lr, {r0, r1, r2, r3}
 649:vm.c          ****   switch( GET_OPCODE(code) ) {
 3740              		.loc 1 649 0
 3741 10e4 07EB0B09 		add	r9, r7, fp
 3742 10e8 09F10109 		add	r9, r9, #1
 3743              	.LVL674:
 650:vm.c          ****   case OP_SEND:
 3744              		.loc 1 650 0
 3745 10ec 04F07F04 		and	r4, r4, #127
 3746              	.LVL675:
ARM GAS  C:\Users\164\AppData\Local\Temp\ccd4XrSZ.s 			page 110


 3747 10f0 202C     		cmp	r4, #32
 3748 10f2 02D0     		beq	.L234
 3749 10f4 212C     		cmp	r4, #33
 3750 10f6 08D0     		beq	.L235
 3751 10f8 0EE0     		b	.L233
 3752              	.L234:
 653:vm.c          ****     regs[bidx].tt = MRBC_TT_NIL;
 3753              		.loc 1 653 0
 3754 10fa 4FEA0914 		lsl	r4, r9, #4
 3755 10fe 3019     		adds	r0, r6, r4
 3756 1100 FFF7FEFF 		bl	mrbc_release
 3757              	.LVL676:
 654:vm.c          ****     break;
 3758              		.loc 1 654 0
 3759 1104 0123     		movs	r3, #1
 3760 1106 3355     		strb	r3, [r6, r4]
 3761 1108 06E0     		b	.L233
 3762              	.L235:
 659:vm.c          ****       // TODO: fix the following behavior
 3763              		.loc 1 659 0
 3764 110a 4FEA0913 		lsl	r3, r9, #4
 3765 110e F356     		ldrsb	r3, [r6, r3]
 3766 1110 012B     		cmp	r3, #1
 3767 1112 01D0     		beq	.L233
 3768 1114 152B     		cmp	r3, #21
 3769 1116 40D1     		bne	.L236
 3770              	.L233:
 671:vm.c          ****   mrbc_sym sym_id = str_to_symid(sym_name);
 3771              		.loc 1 671 0
 3772 1118 EB68     		ldr	r3, [r5, #12]
 3773 111a 0299     		ldr	r1, [sp, #8]
 3774 111c 5869     		ldr	r0, [r3, #20]
 3775 111e FFF7FEFF 		bl	mrbc_get_irep_symbol
 3776              	.LVL677:
 3777 1122 0290     		str	r0, [sp, #8]
 3778              	.LVL678:
 672:vm.c          ****   mrbc_proc *m = find_method(vm, &recv, sym_id);
 3779              		.loc 1 672 0
 3780 1124 FFF7FEFF 		bl	str_to_symid
 3781              	.LVL679:
 673:vm.c          **** 
 3782              		.loc 1 673 0
 3783 1128 0246     		mov	r2, r0
 3784 112a 08A9     		add	r1, sp, #32
 3785 112c 2846     		mov	r0, r5
 3786              	.LVL680:
 3787 112e FFF7FEFF 		bl	find_method
 3788              	.LVL681:
 675:vm.c          ****     mrb_class *cls = find_class_by_object( vm, &recv );
 3789              		.loc 1 675 0
 3790 1132 0446     		mov	r4, r0
 3791 1134 68B9     		cbnz	r0, .L237
 3792              	.LBB299:
 676:vm.c          ****     console_printf("No method. Class:%s Method:%s\n",
 3793              		.loc 1 676 0
 3794 1136 08A9     		add	r1, sp, #32
 3795 1138 2846     		mov	r0, r5
ARM GAS  C:\Users\164\AppData\Local\Temp\ccd4XrSZ.s 			page 111


 3796              	.LVL682:
 3797 113a FFF7FEFF 		bl	find_class_by_object
 3798              	.LVL683:
 677:vm.c          **** 		   symid_to_str(cls->sym_id), sym_name );
 3799              		.loc 1 677 0
 3800 113e B0F90000 		ldrsh	r0, [r0]
 3801              	.LVL684:
 3802 1142 FFF7FEFF 		bl	symid_to_str
 3803              	.LVL685:
 3804 1146 029A     		ldr	r2, [sp, #8]
 3805 1148 0146     		mov	r1, r0
 3806 114a A948     		ldr	r0, .L305
 3807 114c FFF7FEFF 		bl	console_printf
 3808              	.LVL686:
 3809 1150 23E0     		b	.L236
 3810              	.LVL687:
 3811              	.L237:
 3812              	.LBE299:
 683:vm.c          ****     m->func(vm, regs + ra, rc);
 3813              		.loc 1 683 0
 3814 1152 C378     		ldrb	r3, [r0, #3]	@ zero_extendqisi2
 3815 1154 13F0010F 		tst	r3, #1
 3816 1158 12D0     		beq	.L238
 3817              	.LBB300:
 684:vm.c          **** 
 3818              		.loc 1 684 0
 3819 115a C368     		ldr	r3, [r0, #12]
 3820 115c 5A46     		mov	r2, fp
 3821 115e 0399     		ldr	r1, [sp, #12]
 3822 1160 2846     		mov	r0, r5
 3823              	.LVL688:
 3824 1162 9847     		blx	r3
 3825              	.LVL689:
 687:vm.c          **** 
 3826              		.loc 1 687 0
 3827 1164 E268     		ldr	r2, [r4, #12]
 3828 1166 A34B     		ldr	r3, .L305+4
 3829 1168 9A42     		cmp	r2, r3
 3830 116a 16D0     		beq	.L236
 689:vm.c          ****     while( release_reg <= bidx ) {
 3831              		.loc 1 689 0
 3832 116c 0137     		adds	r7, r7, #1
 3833              	.LVL690:
 3834 116e 04E0     		b	.L239
 3835              	.LVL691:
 3836              	.L240:
 691:vm.c          ****       release_reg++;
 3837              		.loc 1 691 0
 3838 1170 06EB0710 		add	r0, r6, r7, lsl #4
 3839 1174 FFF7FEFF 		bl	mrbc_release
 3840              	.LVL692:
 692:vm.c          ****     }
 3841              		.loc 1 692 0
 3842 1178 0137     		adds	r7, r7, #1
 3843              	.LVL693:
 3844              	.L239:
 690:vm.c          ****       mrbc_release(&regs[release_reg]);
ARM GAS  C:\Users\164\AppData\Local\Temp\ccd4XrSZ.s 			page 112


 3845              		.loc 1 690 0
 3846 117a B945     		cmp	r9, r7
 3847 117c F8DA     		bge	.L240
 3848 117e 0CE0     		b	.L236
 3849              	.LVL694:
 3850              	.L238:
 3851              	.LBE300:
 699:vm.c          **** 
 3852              		.loc 1 699 0
 3853 1180 5946     		mov	r1, fp
 3854 1182 2846     		mov	r0, r5
 3855              	.LVL695:
 3856 1184 FFF7FEFF 		bl	mrbc_push_callinfo
 3857              	.LVL696:
 702:vm.c          ****   vm->pc_irep = m->irep;
 3858              		.loc 1 702 0
 3859 1188 0023     		movs	r3, #0
 3860 118a 2B82     		strh	r3, [r5, #16]	@ movhi
 703:vm.c          **** 
 3861              		.loc 1 703 0
 3862 118c E368     		ldr	r3, [r4, #12]
 3863 118e EB60     		str	r3, [r5, #12]
 706:vm.c          **** 
 3864              		.loc 1 706 0
 3865 1190 D5F85836 		ldr	r3, [r5, #1624]
 3866 1194 5344     		add	r3, r3, r10
 3867 1196 C5F85836 		str	r3, [r5, #1624]
 3868              	.LVL697:
 3869              	.L236:
 3870              	.LBE298:
 3871              	.LBE297:
1246:vm.c          ****   return 0;
 3872              		.loc 1 1246 0
 3873 119a 08F10100 		add	r0, r8, #1
 3874 119e 06EB0010 		add	r0, r6, r0, lsl #4
 3875 11a2 FFF7FEFF 		bl	mrbc_release
 3876              	.LVL698:
 3877 11a6 04E0     		b	.L241
 3878              	.LVL699:
 3879              	.L227:
1250:vm.c          ****   return 0;
 3880              		.loc 1 1250 0
 3881 11a8 0BB1     		cbz	r3, .L288
 3882 11aa 0323     		movs	r3, #3
 3883              	.LVL700:
 3884 11ac 00E0     		b	.L242
 3885              	.LVL701:
 3886              	.L288:
 3887 11ae 0223     		movs	r3, #2
 3888              	.LVL702:
 3889              	.L242:
 3890 11b0 F355     		strb	r3, [r6, r7]
 3891              	.L241:
 3892              	.LVL703:
 3893              	.LBE296:
 3894              	.LBE295:
1840:vm.c          ****     case OP_GT:         ret = op_gt        (vm, code, regs); break;
ARM GAS  C:\Users\164\AppData\Local\Temp\ccd4XrSZ.s 			page 113


 3895              		.loc 1 1840 0
 3896 11b2 0027     		movs	r7, #0
 3897 11b4 95E2     		b	.L57
 3898              	.LVL704:
 3899              	.L94:
 3900              	.LBB301:
 3901              	.LBB302:
1268:vm.c          ****   int result;
 3902              		.loc 1 1268 0
 3903 11b6 4FEAD458 		lsr	r8, r4, #23
 3904              	.LVL705:
1271:vm.c          ****     if( regs[ra+1].tt == MRBC_TT_FIXNUM ) {
 3905              		.loc 1 1271 0
 3906 11ba 4FEA0817 		lsl	r7, r8, #4
 3907              	.LVL706:
 3908 11be F119     		adds	r1, r6, r7
 3909 11c0 F357     		ldrsb	r3, [r6, r7]
 3910              	.LVL707:
 3911 11c2 042B     		cmp	r3, #4
 3912 11c4 1FD1     		bne	.L243
1272:vm.c          ****       result = regs[ra].i >= regs[ra+1].i;	// in case of Fixnum, Fixnum
 3913              		.loc 1 1272 0
 3914 11c6 08F10102 		add	r2, r8, #1
 3915 11ca 1201     		lsls	r2, r2, #4
 3916 11cc B018     		adds	r0, r6, r2
 3917 11ce B256     		ldrsb	r2, [r6, r2]
 3918 11d0 042A     		cmp	r2, #4
 3919 11d2 06D1     		bne	.L244
1273:vm.c          ****       goto DONE;
 3920              		.loc 1 1273 0
 3921 11d4 8B68     		ldr	r3, [r1, #8]
 3922 11d6 8268     		ldr	r2, [r0, #8]
 3923 11d8 9342     		cmp	r3, r2
 3924 11da B4BF     		ite	lt
 3925 11dc 0023     		movlt	r3, #0
 3926 11de 0123     		movge	r3, #1
 3927              	.LVL708:
 3928 11e0 AFE0     		b	.L245
 3929              	.LVL709:
 3930              	.L244:
1277:vm.c          ****       result = regs[ra].i >= regs[ra+1].d;	// in case of Fixnum, Float
 3931              		.loc 1 1277 0
 3932 11e2 052A     		cmp	r2, #5
 3933 11e4 0FD1     		bne	.L243
1278:vm.c          ****       goto DONE;
 3934              		.loc 1 1278 0
 3935 11e6 D0E90289 		ldrd	r8, [r0, #8]
 3936              	.LVL710:
 3937 11ea 8868     		ldr	r0, [r1, #8]
 3938 11ec FFF7FEFF 		bl	__aeabi_i2d
 3939              	.LVL711:
 3940 11f0 4FF00104 		mov	r4, #1
 3941              	.LVL712:
 3942 11f4 4246     		mov	r2, r8
 3943 11f6 4B46     		mov	r3, r9
 3944 11f8 FFF7FEFF 		bl	__aeabi_dcmpge
 3945              	.LVL713:
ARM GAS  C:\Users\164\AppData\Local\Temp\ccd4XrSZ.s 			page 114


 3946 11fc 08B9     		cbnz	r0, .L246
 3947 11fe 4FF00004 		mov	r4, #0
 3948              	.L246:
 3949 1202 E3B2     		uxtb	r3, r4
 3950              	.LVL714:
 3951 1204 9DE0     		b	.L245
 3952              	.LVL715:
 3953              	.L243:
1282:vm.c          ****     if( regs[ra+1].tt == MRBC_TT_FIXNUM ) {
 3954              		.loc 1 1282 0
 3955 1206 052B     		cmp	r3, #5
 3956 1208 29D1     		bne	.L247
1283:vm.c          ****       result = regs[ra].d >= regs[ra+1].i;	// in case of Float, Fixnum
 3957              		.loc 1 1283 0
 3958 120a 08F10103 		add	r3, r8, #1
 3959 120e 1B01     		lsls	r3, r3, #4
 3960 1210 F218     		adds	r2, r6, r3
 3961 1212 F356     		ldrsb	r3, [r6, r3]
 3962 1214 042B     		cmp	r3, #4
 3963 1216 11D1     		bne	.L248
1284:vm.c          ****       goto DONE;
 3964              		.loc 1 1284 0
 3965 1218 D1E90289 		ldrd	r8, [r1, #8]
 3966              	.LVL716:
 3967 121c 9068     		ldr	r0, [r2, #8]
 3968 121e FFF7FEFF 		bl	__aeabi_i2d
 3969              	.LVL717:
 3970 1222 4FF00104 		mov	r4, #1
 3971              	.LVL718:
 3972 1226 0246     		mov	r2, r0
 3973 1228 0B46     		mov	r3, r1
 3974 122a 4046     		mov	r0, r8
 3975 122c 4946     		mov	r1, r9
 3976 122e FFF7FEFF 		bl	__aeabi_dcmpge
 3977              	.LVL719:
 3978 1232 08B9     		cbnz	r0, .L249
 3979 1234 4FF00004 		mov	r4, #0
 3980              	.L249:
 3981 1238 E3B2     		uxtb	r3, r4
 3982              	.LVL720:
 3983 123a 82E0     		b	.L245
 3984              	.LVL721:
 3985              	.L248:
1287:vm.c          ****       result = regs[ra].d >= regs[ra+1].d;	// in case of Float, Float
 3986              		.loc 1 1287 0
 3987 123c 052B     		cmp	r3, #5
 3988 123e 0ED1     		bne	.L247
1288:vm.c          ****       goto DONE;
 3989              		.loc 1 1288 0
 3990 1240 4FF00104 		mov	r4, #1
 3991              	.LVL722:
 3992 1244 02F10803 		add	r3, r2, #8
 3993 1248 D3E90023 		ldrd	r2, [r3]
 3994 124c D1E90201 		ldrd	r0, [r1, #8]
 3995 1250 FFF7FEFF 		bl	__aeabi_dcmpge
 3996              	.LVL723:
 3997 1254 08B9     		cbnz	r0, .L250
ARM GAS  C:\Users\164\AppData\Local\Temp\ccd4XrSZ.s 			page 115


 3998 1256 4FF00004 		mov	r4, #0
 3999              	.L250:
 4000 125a E3B2     		uxtb	r3, r4
 4001              	.LVL724:
 4002 125c 71E0     		b	.L245
 4003              	.LVL725:
 4004              	.L247:
 4005              	.LBB303:
 4006              	.LBB304:
 643:vm.c          ****   int rb = GETARG_B(code);  // index of method sym
 4007              		.loc 1 643 0
 4008 125e E70D     		lsrs	r7, r4, #23
 4009              	.LVL726:
 644:vm.c          ****   int rc = GETARG_C(code);  // number of params
 4010              		.loc 1 644 0
 4011 1260 C4F38833 		ubfx	r3, r4, #14, #9
 4012 1264 0293     		str	r3, [sp, #8]
 4013              	.LVL727:
 645:vm.c          ****   mrbc_value recv = regs[ra];
 4014              		.loc 1 645 0
 4015 1266 C4F3C61B 		ubfx	fp, r4, #7, #7
 4016              	.LVL728:
 646:vm.c          **** 
 4017              		.loc 1 646 0
 4018 126a 4FEA071A 		lsl	r10, r7, #4
 4019 126e 06EB0A03 		add	r3, r6, r10
 4020              	.LVL729:
 4021 1272 0393     		str	r3, [sp, #12]
 4022 1274 0FCB     		ldmia	r3, {r0, r1, r2, r3}
 4023 1276 0DF1300E 		add	lr, sp, #48
 4024 127a 0EE90F00 		stmdb	lr, {r0, r1, r2, r3}
 649:vm.c          ****   switch( GET_OPCODE(code) ) {
 4025              		.loc 1 649 0
 4026 127e 07EB0B09 		add	r9, r7, fp
 4027 1282 09F10109 		add	r9, r9, #1
 4028              	.LVL730:
 650:vm.c          ****   case OP_SEND:
 4029              		.loc 1 650 0
 4030 1286 04F07F04 		and	r4, r4, #127
 4031              	.LVL731:
 4032 128a 202C     		cmp	r4, #32
 4033 128c 02D0     		beq	.L252
 4034 128e 212C     		cmp	r4, #33
 4035 1290 08D0     		beq	.L253
 4036 1292 0EE0     		b	.L251
 4037              	.L252:
 653:vm.c          ****     regs[bidx].tt = MRBC_TT_NIL;
 4038              		.loc 1 653 0
 4039 1294 4FEA0914 		lsl	r4, r9, #4
 4040 1298 3019     		adds	r0, r6, r4
 4041 129a FFF7FEFF 		bl	mrbc_release
 4042              	.LVL732:
 654:vm.c          ****     break;
 4043              		.loc 1 654 0
 4044 129e 0123     		movs	r3, #1
 4045 12a0 3355     		strb	r3, [r6, r4]
 4046 12a2 06E0     		b	.L251
ARM GAS  C:\Users\164\AppData\Local\Temp\ccd4XrSZ.s 			page 116


 4047              	.L253:
 659:vm.c          ****       // TODO: fix the following behavior
 4048              		.loc 1 659 0
 4049 12a4 4FEA0913 		lsl	r3, r9, #4
 4050 12a8 F356     		ldrsb	r3, [r6, r3]
 4051 12aa 012B     		cmp	r3, #1
 4052 12ac 01D0     		beq	.L251
 4053 12ae 152B     		cmp	r3, #21
 4054 12b0 40D1     		bne	.L254
 4055              	.L251:
 671:vm.c          ****   mrbc_sym sym_id = str_to_symid(sym_name);
 4056              		.loc 1 671 0
 4057 12b2 EB68     		ldr	r3, [r5, #12]
 4058 12b4 0299     		ldr	r1, [sp, #8]
 4059 12b6 5869     		ldr	r0, [r3, #20]
 4060 12b8 FFF7FEFF 		bl	mrbc_get_irep_symbol
 4061              	.LVL733:
 4062 12bc 0290     		str	r0, [sp, #8]
 4063              	.LVL734:
 672:vm.c          ****   mrbc_proc *m = find_method(vm, &recv, sym_id);
 4064              		.loc 1 672 0
 4065 12be FFF7FEFF 		bl	str_to_symid
 4066              	.LVL735:
 673:vm.c          **** 
 4067              		.loc 1 673 0
 4068 12c2 0246     		mov	r2, r0
 4069 12c4 08A9     		add	r1, sp, #32
 4070 12c6 2846     		mov	r0, r5
 4071              	.LVL736:
 4072 12c8 FFF7FEFF 		bl	find_method
 4073              	.LVL737:
 675:vm.c          ****     mrb_class *cls = find_class_by_object( vm, &recv );
 4074              		.loc 1 675 0
 4075 12cc 0446     		mov	r4, r0
 4076 12ce 68B9     		cbnz	r0, .L255
 4077              	.LBB305:
 676:vm.c          ****     console_printf("No method. Class:%s Method:%s\n",
 4078              		.loc 1 676 0
 4079 12d0 08A9     		add	r1, sp, #32
 4080 12d2 2846     		mov	r0, r5
 4081              	.LVL738:
 4082 12d4 FFF7FEFF 		bl	find_class_by_object
 4083              	.LVL739:
 677:vm.c          **** 		   symid_to_str(cls->sym_id), sym_name );
 4084              		.loc 1 677 0
 4085 12d8 B0F90000 		ldrsh	r0, [r0]
 4086              	.LVL740:
 4087 12dc FFF7FEFF 		bl	symid_to_str
 4088              	.LVL741:
 4089 12e0 029A     		ldr	r2, [sp, #8]
 4090 12e2 0146     		mov	r1, r0
 4091 12e4 4248     		ldr	r0, .L305
 4092 12e6 FFF7FEFF 		bl	console_printf
 4093              	.LVL742:
 4094 12ea 23E0     		b	.L254
 4095              	.LVL743:
 4096              	.L255:
ARM GAS  C:\Users\164\AppData\Local\Temp\ccd4XrSZ.s 			page 117


 4097              	.LBE305:
 683:vm.c          ****     m->func(vm, regs + ra, rc);
 4098              		.loc 1 683 0
 4099 12ec C378     		ldrb	r3, [r0, #3]	@ zero_extendqisi2
 4100 12ee 13F0010F 		tst	r3, #1
 4101 12f2 12D0     		beq	.L256
 4102              	.LBB306:
 684:vm.c          **** 
 4103              		.loc 1 684 0
 4104 12f4 C368     		ldr	r3, [r0, #12]
 4105 12f6 5A46     		mov	r2, fp
 4106 12f8 0399     		ldr	r1, [sp, #12]
 4107 12fa 2846     		mov	r0, r5
 4108              	.LVL744:
 4109 12fc 9847     		blx	r3
 4110              	.LVL745:
 687:vm.c          **** 
 4111              		.loc 1 687 0
 4112 12fe E268     		ldr	r2, [r4, #12]
 4113 1300 3C4B     		ldr	r3, .L305+4
 4114 1302 9A42     		cmp	r2, r3
 4115 1304 16D0     		beq	.L254
 689:vm.c          ****     while( release_reg <= bidx ) {
 4116              		.loc 1 689 0
 4117 1306 0137     		adds	r7, r7, #1
 4118              	.LVL746:
 4119 1308 04E0     		b	.L257
 4120              	.LVL747:
 4121              	.L258:
 691:vm.c          ****       release_reg++;
 4122              		.loc 1 691 0
 4123 130a 06EB0710 		add	r0, r6, r7, lsl #4
 4124 130e FFF7FEFF 		bl	mrbc_release
 4125              	.LVL748:
 692:vm.c          ****     }
 4126              		.loc 1 692 0
 4127 1312 0137     		adds	r7, r7, #1
 4128              	.LVL749:
 4129              	.L257:
 690:vm.c          ****       mrbc_release(&regs[release_reg]);
 4130              		.loc 1 690 0
 4131 1314 B945     		cmp	r9, r7
 4132 1316 F8DA     		bge	.L258
 4133 1318 0CE0     		b	.L254
 4134              	.LVL750:
 4135              	.L256:
 4136              	.LBE306:
 699:vm.c          **** 
 4137              		.loc 1 699 0
 4138 131a 5946     		mov	r1, fp
 4139 131c 2846     		mov	r0, r5
 4140              	.LVL751:
 4141 131e FFF7FEFF 		bl	mrbc_push_callinfo
 4142              	.LVL752:
 702:vm.c          ****   vm->pc_irep = m->irep;
 4143              		.loc 1 702 0
 4144 1322 0023     		movs	r3, #0
ARM GAS  C:\Users\164\AppData\Local\Temp\ccd4XrSZ.s 			page 118


 4145 1324 2B82     		strh	r3, [r5, #16]	@ movhi
 703:vm.c          **** 
 4146              		.loc 1 703 0
 4147 1326 E368     		ldr	r3, [r4, #12]
 4148 1328 EB60     		str	r3, [r5, #12]
 706:vm.c          **** 
 4149              		.loc 1 706 0
 4150 132a D5F85836 		ldr	r3, [r5, #1624]
 4151 132e 5344     		add	r3, r3, r10
 4152 1330 C5F85836 		str	r3, [r5, #1624]
 4153              	.LVL753:
 4154              	.L254:
 4155              	.LBE304:
 4156              	.LBE303:
1296:vm.c          ****   return 0;
 4157              		.loc 1 1296 0
 4158 1334 08F10100 		add	r0, r8, #1
 4159 1338 06EB0010 		add	r0, r6, r0, lsl #4
 4160 133c FFF7FEFF 		bl	mrbc_release
 4161              	.LVL754:
 4162 1340 04E0     		b	.L259
 4163              	.LVL755:
 4164              	.L245:
1300:vm.c          ****   return 0;
 4165              		.loc 1 1300 0
 4166 1342 0BB1     		cbz	r3, .L289
 4167 1344 0323     		movs	r3, #3
 4168              	.LVL756:
 4169 1346 00E0     		b	.L260
 4170              	.LVL757:
 4171              	.L289:
 4172 1348 0223     		movs	r3, #2
 4173              	.LVL758:
 4174              	.L260:
 4175 134a F355     		strb	r3, [r6, r7]
 4176              	.L259:
 4177              	.LVL759:
 4178              	.LBE302:
 4179              	.LBE301:
1841:vm.c          ****     case OP_GE:         ret = op_ge        (vm, code, regs); break;
 4180              		.loc 1 1841 0
 4181 134c 0027     		movs	r7, #0
 4182 134e C8E1     		b	.L57
 4183              	.LVL760:
 4184              	.L95:
 4185              	.LBB307:
 4186              	.LBB308:
1318:vm.c          ****   int rb = GETARG_B(code);
 4187              		.loc 1 1318 0
 4188 1350 4FEAD458 		lsr	r8, r4, #23
 4189              	.LVL761:
1319:vm.c          ****   int rc = GETARG_C(code);
 4190              		.loc 1 1319 0
 4191 1354 C4F38837 		ubfx	r7, r4, #14, #9
 4192              	.LVL762:
1320:vm.c          **** 
 4193              		.loc 1 1320 0
ARM GAS  C:\Users\164\AppData\Local\Temp\ccd4XrSZ.s 			page 119


 4194 1358 C4F3C619 		ubfx	r9, r4, #7, #7
 4195              	.LVL763:
1322:vm.c          ****   if( value.array == NULL ) return -1;	// ENOMEM
 4196              		.loc 1 1322 0
 4197 135c 4A46     		mov	r2, r9
 4198 135e 2946     		mov	r1, r5
 4199 1360 08A8     		add	r0, sp, #32
 4200 1362 FFF7FEFF 		bl	mrbc_array_new
 4201              	.LVL764:
1323:vm.c          **** 
 4202              		.loc 1 1323 0
 4203 1366 0A9C     		ldr	r4, [sp, #40]
 4204              	.LVL765:
 4205 1368 DCB1     		cbz	r4, .L290
1325:vm.c          ****   memset( &regs[rb], 0, sizeof(mrbc_value) * rc );
 4206              		.loc 1 1325 0
 4207 136a 06EB0717 		add	r7, r6, r7, lsl #4
 4208              	.LVL766:
 4209 136e 4FEA091A 		lsl	r10, r9, #4
 4210 1372 5246     		mov	r2, r10
 4211 1374 3946     		mov	r1, r7
 4212 1376 A068     		ldr	r0, [r4, #8]
 4213 1378 FFF7FEFF 		bl	memcpy
 4214              	.LVL767:
1326:vm.c          ****   value.array->n_stored = rc;
 4215              		.loc 1 1326 0
 4216 137c 5246     		mov	r2, r10
 4217 137e 0021     		movs	r1, #0
 4218 1380 3846     		mov	r0, r7
 4219 1382 FFF7FEFF 		bl	memset
 4220              	.LVL768:
1327:vm.c          **** 
 4221              		.loc 1 1327 0
 4222 1386 A4F80690 		strh	r9, [r4, #6]	@ movhi
1329:vm.c          ****   regs[ra] = value;
 4223              		.loc 1 1329 0
 4224 138a 06EB0816 		add	r6, r6, r8, lsl #4
 4225              	.LVL769:
 4226 138e 3046     		mov	r0, r6
 4227 1390 FFF7FEFF 		bl	mrbc_release
 4228              	.LVL770:
1330:vm.c          **** 
 4229              		.loc 1 1330 0
 4230 1394 0CAB     		add	r3, sp, #48
 4231 1396 13E90F00 		ldmdb	r3, {r0, r1, r2, r3}
 4232 139a 86E80F00 		stmia	r6, {r0, r1, r2, r3}
1332:vm.c          **** }
 4233              		.loc 1 1332 0
 4234 139e 0027     		movs	r7, #0
 4235 13a0 9FE1     		b	.L57
 4236              	.LVL771:
 4237              	.L290:
1323:vm.c          **** 
 4238              		.loc 1 1323 0
 4239 13a2 4FF0FF37 		mov	r7, #-1
 4240              	.LVL772:
 4241              	.LBE308:
ARM GAS  C:\Users\164\AppData\Local\Temp\ccd4XrSZ.s 			page 120


 4242              	.LBE307:
1842:vm.c          ****     case OP_ARRAY:      ret = op_array     (vm, code, regs); break;
 4243              		.loc 1 1842 0
 4244 13a6 9CE1     		b	.L57
 4245              	.LVL773:
 4246              	.L96:
 4247              	.LBB309:
 4248              	.LBB310:
1350:vm.c          ****   int rb = GETARG_Bx(code);
 4249              		.loc 1 1350 0
 4250 13a8 E70D     		lsrs	r7, r4, #23
 4251              	.LVL774:
1351:vm.c          ****   mrbc_object *pool_obj = vm->pc_irep->pools[rb];
 4252              		.loc 1 1351 0
 4253 13aa C4F3CF14 		ubfx	r4, r4, #7, #16
 4254              	.LVL775:
1352:vm.c          **** 
 4255              		.loc 1 1352 0
 4256 13ae EB68     		ldr	r3, [r5, #12]
 4257              	.LVL776:
 4258 13b0 1B69     		ldr	r3, [r3, #16]
 4259 13b2 53F82430 		ldr	r3, [r3, r4, lsl #2]
 4260              	.LVL777:
1355:vm.c          ****   mrbc_value value = mrbc_string_new(vm, pool_obj->str, len);
 4261              		.loc 1 1355 0
 4262 13b6 9A68     		ldr	r2, [r3, #8]
 4263              	.LVL778:
 4264              	.LBB311:
 4265              	.LBB312:
 154:vm.h          ****   return (x << 8) | (x >> 8);
 4266              		.loc 2 154 0
 4267 13b8 32F8021C 		ldrh	r1, [r2, #-2]
 4268              	.LVL779:
 4269              		.loc 2 155 0
 4270 13bc 0B0A     		lsrs	r3, r1, #8
 4271              	.LVL780:
 4272 13be 43EA0123 		orr	r3, r3, r1, lsl #8
 4273              	.LVL781:
 4274              	.LBE312:
 4275              	.LBE311:
1356:vm.c          ****   if( value.string == NULL ) return -1;		// ENOMEM
 4276              		.loc 1 1356 0
 4277 13c2 9BB2     		uxth	r3, r3
 4278              	.LVL782:
 4279 13c4 2946     		mov	r1, r5
 4280 13c6 08A8     		add	r0, sp, #32
 4281 13c8 FFF7FEFF 		bl	mrbc_string_new
 4282              	.LVL783:
1357:vm.c          **** 
 4283              		.loc 1 1357 0
 4284 13cc 0A9B     		ldr	r3, [sp, #40]
 4285 13ce 5BB1     		cbz	r3, .L291
1359:vm.c          ****   regs[ra] = value;
 4286              		.loc 1 1359 0
 4287 13d0 06EB0716 		add	r6, r6, r7, lsl #4
 4288              	.LVL784:
 4289 13d4 3046     		mov	r0, r6
ARM GAS  C:\Users\164\AppData\Local\Temp\ccd4XrSZ.s 			page 121


 4290 13d6 FFF7FEFF 		bl	mrbc_release
 4291              	.LVL785:
1360:vm.c          **** 
 4292              		.loc 1 1360 0
 4293 13da 0CAB     		add	r3, sp, #48
 4294 13dc 13E90F00 		ldmdb	r3, {r0, r1, r2, r3}
 4295 13e0 86E80F00 		stmia	r6, {r0, r1, r2, r3}
1365:vm.c          **** }
 4296              		.loc 1 1365 0
 4297 13e4 0027     		movs	r7, #0
 4298              	.LVL786:
 4299 13e6 7CE1     		b	.L57
 4300              	.LVL787:
 4301              	.L291:
1357:vm.c          **** 
 4302              		.loc 1 1357 0
 4303 13e8 4FF0FF37 		mov	r7, #-1
 4304              	.LVL788:
 4305              	.LBE310:
 4306              	.LBE309:
1843:vm.c          ****     case OP_STRING:     ret = op_string    (vm, code, regs); break;
 4307              		.loc 1 1843 0
 4308 13ec 79E1     		b	.L57
 4309              	.L306:
 4310 13ee 00BF     		.align	2
 4311              	.L305:
 4312 13f0 30000000 		.word	.LC3
 4313 13f4 00000000 		.word	c_proc_call
 4314              	.LVL789:
 4315              	.L97:
 4316              	.LBB313:
 4317              	.LBB314:
1383:vm.c          ****   int rb = GETARG_B(code);
 4318              		.loc 1 1383 0
 4319 13f8 E70D     		lsrs	r7, r4, #23
 4320              	.LVL790:
1384:vm.c          **** 
 4321              		.loc 1 1384 0
 4322 13fa C4F38834 		ubfx	r4, r4, #14, #9
 4323              	.LVL791:
1387:vm.c          ****   mrbc_proc *m = find_method(vm, &regs[rb], sym_id);
 4324              		.loc 1 1387 0
 4325 13fe BF48     		ldr	r0, .L307
 4326 1400 FFF7FEFF 		bl	str_to_symid
 4327              	.LVL792:
1388:vm.c          ****   if( m && m->c_func ){
 4328              		.loc 1 1388 0
 4329 1404 06EB0414 		add	r4, r6, r4, lsl #4
 4330              	.LVL793:
 4331 1408 0246     		mov	r2, r0
 4332 140a 2146     		mov	r1, r4
 4333 140c 2846     		mov	r0, r5
 4334              	.LVL794:
 4335 140e FFF7FEFF 		bl	find_method
 4336              	.LVL795:
1389:vm.c          ****     m->func(vm, regs+rb, 0);
 4337              		.loc 1 1389 0
ARM GAS  C:\Users\164\AppData\Local\Temp\ccd4XrSZ.s 			page 122


 4338 1412 40B1     		cbz	r0, .L263
 4339 1414 C278     		ldrb	r2, [r0, #3]	@ zero_extendqisi2
 4340 1416 12F0010F 		tst	r2, #1
 4341 141a 04D0     		beq	.L263
1390:vm.c          ****   }
 4342              		.loc 1 1390 0
 4343 141c C368     		ldr	r3, [r0, #12]
 4344 141e 0022     		movs	r2, #0
 4345 1420 2146     		mov	r1, r4
 4346 1422 2846     		mov	r0, r5
 4347              	.LVL796:
 4348 1424 9847     		blx	r3
 4349              	.LVL797:
 4350              	.L263:
1393:vm.c          ****   mrbc_release(&regs[ra]);
 4351              		.loc 1 1393 0
 4352 1426 06EB0716 		add	r6, r6, r7, lsl #4
 4353              	.LVL798:
 4354 142a 08AF     		add	r7, sp, #32
 4355              	.LVL799:
 4356 142c 2346     		mov	r3, r4
 4357 142e 3246     		mov	r2, r6
 4358 1430 2946     		mov	r1, r5
 4359 1432 3846     		mov	r0, r7
 4360 1434 FFF7FEFF 		bl	mrbc_string_add
 4361              	.LVL800:
1394:vm.c          ****   regs[ra] = v;
 4362              		.loc 1 1394 0
 4363 1438 3046     		mov	r0, r6
 4364 143a FFF7FEFF 		bl	mrbc_release
 4365              	.LVL801:
1395:vm.c          **** 
 4366              		.loc 1 1395 0
 4367 143e 97E80F00 		ldmia	r7, {r0, r1, r2, r3}
 4368 1442 86E80F00 		stmia	r6, {r0, r1, r2, r3}
 4369              	.LVL802:
 4370              	.LBE314:
 4371              	.LBE313:
1844:vm.c          ****     case OP_STRCAT:     ret = op_strcat    (vm, code, regs); break;
 4372              		.loc 1 1844 0
 4373 1446 0027     		movs	r7, #0
 4374 1448 4BE1     		b	.L57
 4375              	.LVL803:
 4376              	.L98:
 4377              	.LBB315:
 4378              	.LBB316:
1417:vm.c          ****   int rb = GETARG_B(code);
 4379              		.loc 1 1417 0
 4380 144a E70D     		lsrs	r7, r4, #23
 4381              	.LVL804:
1418:vm.c          ****   int rc = GETARG_C(code);
 4382              		.loc 1 1418 0
 4383 144c C4F38838 		ubfx	r8, r4, #14, #9
 4384              	.LVL805:
1419:vm.c          **** 
 4385              		.loc 1 1419 0
 4386 1450 C4F3C614 		ubfx	r4, r4, #7, #7
ARM GAS  C:\Users\164\AppData\Local\Temp\ccd4XrSZ.s 			page 123


 4387              	.LVL806:
1421:vm.c          ****   if( value.hash == NULL ) return -1;	// ENOMEM
 4388              		.loc 1 1421 0
 4389 1454 2246     		mov	r2, r4
 4390 1456 2946     		mov	r1, r5
 4391 1458 08A8     		add	r0, sp, #32
 4392 145a FFF7FEFF 		bl	mrbc_hash_new
 4393              	.LVL807:
1422:vm.c          **** 
 4394              		.loc 1 1422 0
 4395 145e DDF82890 		ldr	r9, [sp, #40]
 4396 1462 B9F1000F 		cmp	r9, #0
 4397 1466 1DD0     		beq	.L292
1424:vm.c          ****   memcpy( value.hash->data, &regs[rb], sizeof(mrbc_value) * rc );
 4398              		.loc 1 1424 0
 4399 1468 4FEA440A 		lsl	r10, r4, #1
 4400              	.LVL808:
1425:vm.c          ****   memset( &regs[rb], 0, sizeof(mrbc_value) * rc );
 4401              		.loc 1 1425 0
 4402 146c 06EB0818 		add	r8, r6, r8, lsl #4
 4403              	.LVL809:
 4404 1470 6401     		lsls	r4, r4, #5
 4405 1472 2246     		mov	r2, r4
 4406 1474 4146     		mov	r1, r8
 4407 1476 D9F80800 		ldr	r0, [r9, #8]
 4408 147a FFF7FEFF 		bl	memcpy
 4409              	.LVL810:
1426:vm.c          ****   value.hash->n_stored = rc;
 4410              		.loc 1 1426 0
 4411 147e 2246     		mov	r2, r4
 4412 1480 0021     		movs	r1, #0
 4413 1482 4046     		mov	r0, r8
 4414 1484 FFF7FEFF 		bl	memset
 4415              	.LVL811:
1427:vm.c          **** 
 4416              		.loc 1 1427 0
 4417 1488 A9F806A0 		strh	r10, [r9, #6]	@ movhi
1429:vm.c          ****   regs[ra] = value;
 4418              		.loc 1 1429 0
 4419 148c 06EB0716 		add	r6, r6, r7, lsl #4
 4420              	.LVL812:
 4421 1490 3046     		mov	r0, r6
 4422 1492 FFF7FEFF 		bl	mrbc_release
 4423              	.LVL813:
1430:vm.c          **** 
 4424              		.loc 1 1430 0
 4425 1496 0CAB     		add	r3, sp, #48
 4426 1498 13E90F00 		ldmdb	r3, {r0, r1, r2, r3}
 4427 149c 86E80F00 		stmia	r6, {r0, r1, r2, r3}
1432:vm.c          **** }
 4428              		.loc 1 1432 0
 4429 14a0 0027     		movs	r7, #0
 4430              	.LVL814:
 4431 14a2 1EE1     		b	.L57
 4432              	.LVL815:
 4433              	.L292:
1422:vm.c          **** 
ARM GAS  C:\Users\164\AppData\Local\Temp\ccd4XrSZ.s 			page 124


 4434              		.loc 1 1422 0
 4435 14a4 4FF0FF37 		mov	r7, #-1
 4436              	.LVL816:
 4437              	.LBE316:
 4438              	.LBE315:
1845:vm.c          ****     case OP_HASH:       ret = op_hash      (vm, code, regs); break;
 4439              		.loc 1 1845 0
 4440 14a8 1BE1     		b	.L57
 4441              	.LVL817:
 4442              	.L99:
 4443              	.LBB317:
 4444              	.LBB318:
1449:vm.c          ****   int rb = GETARG_Bz(code);      // sequence position in irep list
 4445              		.loc 1 1449 0
 4446 14aa 4FEAD458 		lsr	r8, r4, #23
 4447              	.LVL818:
1450:vm.c          ****   // int c = GETARG_C(code);    // TODO: Add flags support for OP_LAMBDA
 4448              		.loc 1 1450 0
 4449 14ae C4F34D24 		ubfx	r4, r4, #9, #14
 4450              	.LVL819:
1452:vm.c          **** 
 4451              		.loc 1 1452 0
 4452 14b2 9349     		ldr	r1, .L307+4
 4453 14b4 2846     		mov	r0, r5
 4454 14b6 FFF7FEFF 		bl	mrbc_rproc_alloc
 4455              	.LVL820:
 4456 14ba 0746     		mov	r7, r0
 4457              	.LVL821:
1454:vm.c          ****   proc->irep = vm->pc_irep->reps[rb];
 4458              		.loc 1 1454 0
 4459 14bc C378     		ldrb	r3, [r0, #3]	@ zero_extendqisi2
 4460 14be 6FF30003 		bfc	r3, #0, #1
 4461 14c2 C370     		strb	r3, [r0, #3]
1455:vm.c          **** 
 4462              		.loc 1 1455 0
 4463 14c4 EB68     		ldr	r3, [r5, #12]
 4464 14c6 9B69     		ldr	r3, [r3, #24]
 4465 14c8 53F82430 		ldr	r3, [r3, r4, lsl #2]
 4466 14cc C360     		str	r3, [r0, #12]
1457:vm.c          ****   regs[ra].tt = MRBC_TT_PROC;
 4467              		.loc 1 1457 0
 4468 14ce 4FEA0814 		lsl	r4, r8, #4
 4469              	.LVL822:
 4470 14d2 06EB0408 		add	r8, r6, r4
 4471              	.LVL823:
 4472 14d6 4046     		mov	r0, r8
 4473              	.LVL824:
 4474 14d8 FFF7FEFF 		bl	mrbc_release
 4475              	.LVL825:
1458:vm.c          ****   regs[ra].proc = proc;
 4476              		.loc 1 1458 0
 4477 14dc 1523     		movs	r3, #21
 4478 14de 3355     		strb	r3, [r6, r4]
1459:vm.c          **** 
 4479              		.loc 1 1459 0
 4480 14e0 C8F80870 		str	r7, [r8, #8]
 4481              	.LVL826:
ARM GAS  C:\Users\164\AppData\Local\Temp\ccd4XrSZ.s 			page 125


 4482              	.LBE318:
 4483              	.LBE317:
1846:vm.c          ****     case OP_LAMBDA:     ret = op_lambda    (vm, code, regs); break;
 4484              		.loc 1 1846 0
 4485 14e4 0027     		movs	r7, #0
 4486 14e6 FCE0     		b	.L57
 4487              	.LVL827:
 4488              	.L100:
 4489              	.LBB319:
 4490              	.LBB320:
1478:vm.c          ****   int rb = GETARG_B(code);
 4491              		.loc 1 1478 0
 4492 14e8 4FEAD458 		lsr	r8, r4, #23
 4493              	.LVL828:
1479:vm.c          ****   int rc = GETARG_C(code);
 4494              		.loc 1 1479 0
 4495 14ec C4F38837 		ubfx	r7, r4, #14, #9
 4496              	.LVL829:
1480:vm.c          **** 
 4497              		.loc 1 1480 0
 4498 14f0 C4F3C614 		ubfx	r4, r4, #7, #7
 4499              	.LVL830:
1482:vm.c          ****   mrbc_dup(&regs[rb+1]);
 4500              		.loc 1 1482 0
 4501 14f4 06EB0719 		add	r9, r6, r7, lsl #4
 4502 14f8 4846     		mov	r0, r9
 4503 14fa FFF7FEFF 		bl	mrbc_dup
 4504              	.LVL831:
1483:vm.c          **** 
 4505              		.loc 1 1483 0
 4506 14fe 0137     		adds	r7, r7, #1
 4507              	.LVL832:
 4508 1500 06EB0717 		add	r7, r6, r7, lsl #4
 4509              	.LVL833:
 4510 1504 3846     		mov	r0, r7
 4511 1506 FFF7FEFF 		bl	mrbc_dup
 4512              	.LVL834:
1485:vm.c          ****   if( value.range == NULL ) return -1;		// ENOMEM
 4513              		.loc 1 1485 0
 4514 150a 0094     		str	r4, [sp]
 4515 150c 3B46     		mov	r3, r7
 4516 150e 4A46     		mov	r2, r9
 4517 1510 2946     		mov	r1, r5
 4518 1512 08A8     		add	r0, sp, #32
 4519 1514 FFF7FEFF 		bl	mrbc_range_new
 4520              	.LVL835:
1486:vm.c          **** 
 4521              		.loc 1 1486 0
 4522 1518 0A9B     		ldr	r3, [sp, #40]
 4523 151a 5BB1     		cbz	r3, .L293
1488:vm.c          ****   regs[ra] = value;
 4524              		.loc 1 1488 0
 4525 151c 06EB0816 		add	r6, r6, r8, lsl #4
 4526              	.LVL836:
 4527 1520 3046     		mov	r0, r6
 4528 1522 FFF7FEFF 		bl	mrbc_release
 4529              	.LVL837:
ARM GAS  C:\Users\164\AppData\Local\Temp\ccd4XrSZ.s 			page 126


1489:vm.c          **** 
 4530              		.loc 1 1489 0
 4531 1526 0CAB     		add	r3, sp, #48
 4532 1528 13E90F00 		ldmdb	r3, {r0, r1, r2, r3}
 4533 152c 86E80F00 		stmia	r6, {r0, r1, r2, r3}
1491:vm.c          **** }
 4534              		.loc 1 1491 0
 4535 1530 0027     		movs	r7, #0
 4536 1532 D6E0     		b	.L57
 4537              	.LVL838:
 4538              	.L293:
1486:vm.c          **** 
 4539              		.loc 1 1486 0
 4540 1534 4FF0FF37 		mov	r7, #-1
 4541              	.LVL839:
 4542              	.LBE320:
 4543              	.LBE319:
1847:vm.c          ****     case OP_RANGE:      ret = op_range     (vm, code, regs); break;
 4544              		.loc 1 1847 0
 4545 1538 D3E0     		b	.L57
 4546              	.LVL840:
 4547              	.L101:
 4548              	.LBB321:
 4549              	.LBB322:
1510:vm.c          ****   int rb = GETARG_B(code);
 4550              		.loc 1 1510 0
 4551 153a 4FEAD458 		lsr	r8, r4, #23
 4552              	.LVL841:
1513:vm.c          ****   const char *sym_name = mrbc_get_irep_symbol(cur_irep->ptr_to_sym, rb);
 4553              		.loc 1 1513 0
 4554 153e EB68     		ldr	r3, [r5, #12]
 4555              	.LVL842:
1514:vm.c          ****   mrbc_class *super = (regs[ra+1].tt == MRBC_TT_CLASS) ? regs[ra+1].cls : mrbc_class_object;
 4556              		.loc 1 1514 0
 4557 1540 C4F38831 		ubfx	r1, r4, #14, #9
 4558              	.LVL843:
 4559 1544 5869     		ldr	r0, [r3, #20]
 4560 1546 FFF7FEFF 		bl	mrbc_get_irep_symbol
 4561              	.LVL844:
 4562 154a 0146     		mov	r1, r0
 4563              	.LVL845:
1515:vm.c          **** 
 4564              		.loc 1 1515 0
 4565 154c 08F10103 		add	r3, r8, #1
 4566 1550 1B01     		lsls	r3, r3, #4
 4567 1552 F218     		adds	r2, r6, r3
 4568 1554 F356     		ldrsb	r3, [r6, r3]
 4569 1556 072B     		cmp	r3, #7
 4570 1558 01D1     		bne	.L266
 4571 155a 9268     		ldr	r2, [r2, #8]
 4572 155c 01E0     		b	.L267
 4573              	.L266:
 4574 155e 694B     		ldr	r3, .L307+8
 4575 1560 1A68     		ldr	r2, [r3]
 4576              	.L267:
 4577              	.LVL846:
1517:vm.c          **** 
ARM GAS  C:\Users\164\AppData\Local\Temp\ccd4XrSZ.s 			page 127


 4578              		.loc 1 1517 0
 4579 1562 2846     		mov	r0, r5
 4580              	.LVL847:
 4581 1564 FFF7FEFF 		bl	mrbc_define_class
 4582              	.LVL848:
1519:vm.c          ****   ret.cls = cls;
 4583              		.loc 1 1519 0
 4584 1568 08AB     		add	r3, sp, #32
 4585 156a 0027     		movs	r7, #0
 4586              	.LVL849:
 4587 156c 0897     		str	r7, [sp, #32]
 4588 156e 0997     		str	r7, [sp, #36]
 4589 1570 0B97     		str	r7, [sp, #44]
 4590 1572 0722     		movs	r2, #7
 4591 1574 8DF82020 		strb	r2, [sp, #32]
1520:vm.c          **** 
 4592              		.loc 1 1520 0
 4593 1578 0A90     		str	r0, [sp, #40]
1522:vm.c          **** 
 4594              		.loc 1 1522 0
 4595 157a 06EB0816 		add	r6, r6, r8, lsl #4
 4596              	.LVL850:
 4597 157e 0FCB     		ldmia	r3, {r0, r1, r2, r3}
 4598              	.LVL851:
 4599 1580 86E80F00 		stmia	r6, {r0, r1, r2, r3}
 4600              	.LVL852:
 4601              	.LBE322:
 4602              	.LBE321:
1848:vm.c          ****     case OP_CLASS:      ret = op_class     (vm, code, regs); break;
 4603              		.loc 1 1848 0
 4604 1584 ADE0     		b	.L57
 4605              	.LVL853:
 4606              	.L102:
 4607              	.LBB323:
 4608              	.LBB324:
1541:vm.c          ****   int rb = GETARG_Bx(code);
 4609              		.loc 1 1541 0
 4610 1586 E30D     		lsrs	r3, r4, #23
 4611              	.LVL854:
1542:vm.c          **** 
 4612              		.loc 1 1542 0
 4613 1588 C4F3CF14 		ubfx	r4, r4, #7, #16
 4614              	.LVL855:
1544:vm.c          **** 
 4615              		.loc 1 1544 0
 4616 158c 4FEA0318 		lsl	r8, r3, #4
 4617 1590 4644     		add	r6, r6, r8
 4618              	.LVL856:
 4619 1592 0DF12009 		add	r9, sp, #32
 4620 1596 96E80F00 		ldmia	r6, {r0, r1, r2, r3}
 4621              	.LVL857:
 4622 159a 89E80F00 		stmia	r9, {r0, r1, r2, r3}
 4623              	.LVL858:
1547:vm.c          **** 
 4624              		.loc 1 1547 0
 4625 159e 0021     		movs	r1, #0
 4626 15a0 2846     		mov	r0, r5
ARM GAS  C:\Users\164\AppData\Local\Temp\ccd4XrSZ.s 			page 128


 4627 15a2 FFF7FEFF 		bl	mrbc_push_callinfo
 4628              	.LVL859:
1550:vm.c          ****   vm->pc_irep = vm->irep->reps[rb];
 4629              		.loc 1 1550 0
 4630 15a6 0027     		movs	r7, #0
 4631              	.LVL860:
 4632 15a8 2F82     		strh	r7, [r5, #16]	@ movhi
1551:vm.c          **** 
 4633              		.loc 1 1551 0
 4634 15aa 2B68     		ldr	r3, [r5]
 4635 15ac 9B69     		ldr	r3, [r3, #24]
 4636 15ae 53F82430 		ldr	r3, [r3, r4, lsl #2]
 4637 15b2 EB60     		str	r3, [r5, #12]
1554:vm.c          **** 
 4638              		.loc 1 1554 0
 4639 15b4 D5F85836 		ldr	r3, [r5, #1624]
 4640 15b8 4344     		add	r3, r3, r8
 4641 15ba C5F85836 		str	r3, [r5, #1624]
1556:vm.c          **** 
 4642              		.loc 1 1556 0
 4643 15be 4946     		mov	r1, r9
 4644 15c0 2846     		mov	r0, r5
 4645 15c2 FFF7FEFF 		bl	find_class_by_object
 4646              	.LVL861:
 4647 15c6 C5F86006 		str	r0, [r5, #1632]
 4648              	.LVL862:
 4649              	.LBE324:
 4650              	.LBE323:
1849:vm.c          ****     case OP_EXEC:       ret = op_exec      (vm, code, regs); break;
 4651              		.loc 1 1849 0
 4652 15ca 8AE0     		b	.L57
 4653              	.LVL863:
 4654              	.L103:
 4655              	.LBB325:
 4656              	.LBB326:
1576:vm.c          ****   int rb = GETARG_B(code);
 4657              		.loc 1 1576 0
 4658 15cc E30D     		lsrs	r3, r4, #23
 4659              	.LVL864:
1577:vm.c          ****   mrbc_proc *proc = regs[ra+1].proc;
 4660              		.loc 1 1577 0
 4661 15ce C4F38831 		ubfx	r1, r4, #14, #9
 4662              	.LVL865:
1578:vm.c          **** 
 4663              		.loc 1 1578 0
 4664 15d2 5F1C     		adds	r7, r3, #1
 4665              	.LVL866:
 4666 15d4 3F01     		lsls	r7, r7, #4
 4667 15d6 F219     		adds	r2, r6, r7
 4668 15d8 9468     		ldr	r4, [r2, #8]
 4669              	.LVL867:
1580:vm.c          ****     mrbc_class *cls = regs[ra].cls;
 4670              		.loc 1 1580 0
 4671 15da 1B01     		lsls	r3, r3, #4
 4672              	.LVL868:
 4673 15dc F218     		adds	r2, r6, r3
 4674 15de F356     		ldrsb	r3, [r6, r3]
ARM GAS  C:\Users\164\AppData\Local\Temp\ccd4XrSZ.s 			page 129


 4675 15e0 072B     		cmp	r3, #7
 4676 15e2 38D1     		bne	.L268
 4677              	.LBB327:
1581:vm.c          **** 
 4678              		.loc 1 1581 0
 4679 15e4 D2F80880 		ldr	r8, [r2, #8]
 4680              	.LVL869:
1584:vm.c          ****     const char *sym_name = mrbc_get_irep_symbol(cur_irep->ptr_to_sym, rb);
 4681              		.loc 1 1584 0
 4682 15e8 EB68     		ldr	r3, [r5, #12]
 4683              	.LVL870:
1585:vm.c          ****     int sym_id = str_to_symid(sym_name);
 4684              		.loc 1 1585 0
 4685 15ea 5869     		ldr	r0, [r3, #20]
 4686 15ec FFF7FEFF 		bl	mrbc_get_irep_symbol
 4687              	.LVL871:
1586:vm.c          **** 
 4688              		.loc 1 1586 0
 4689 15f0 FFF7FEFF 		bl	str_to_symid
 4690              	.LVL872:
 4691 15f4 8146     		mov	r9, r0
 4692              	.LVL873:
1589:vm.c          ****     void *pp = &cls->procs;
 4693              		.loc 1 1589 0
 4694 15f6 4146     		mov	r1, r8
 4695 15f8 51F8083F 		ldr	r3, [r1, #8]!
 4696              	.LVL874:
 4697 15fc 06E0     		b	.L269
 4698              	.L271:
1592:vm.c          ****       pp = &p->next;
 4699              		.loc 1 1592 0
 4700 15fe B3F90420 		ldrsh	r2, [r3, #4]
 4701 1602 9042     		cmp	r0, r2
 4702 1604 04D0     		beq	.L270
1593:vm.c          ****       p = p->next;
 4703              		.loc 1 1593 0
 4704 1606 03F10801 		add	r1, r3, #8
 4705              	.LVL875:
1594:vm.c          ****     }
 4706              		.loc 1 1594 0
 4707 160a 9B68     		ldr	r3, [r3, #8]
 4708              	.LVL876:
 4709              	.L269:
1591:vm.c          ****       if( p->sym_id == sym_id ) break;
 4710              		.loc 1 1591 0
 4711 160c 002B     		cmp	r3, #0
 4712 160e F6D1     		bne	.L271
 4713              	.L270:
1596:vm.c          ****       // found it.
 4714              		.loc 1 1596 0
 4715 1610 83B1     		cbz	r3, .L272
1598:vm.c          ****       if( !p->c_func ) {
 4716              		.loc 1 1598 0
 4717 1612 9A68     		ldr	r2, [r3, #8]
 4718 1614 0A60     		str	r2, [r1]
1599:vm.c          **** 	mrbc_value v = {.tt = MRBC_TT_PROC};
 4719              		.loc 1 1599 0
ARM GAS  C:\Users\164\AppData\Local\Temp\ccd4XrSZ.s 			page 130


 4720 1616 DA78     		ldrb	r2, [r3, #3]	@ zero_extendqisi2
 4721 1618 12F0010F 		tst	r2, #1
 4722 161c 0AD1     		bne	.L272
 4723              	.LBB328:
1600:vm.c          **** 	v.proc = p;
 4724              		.loc 1 1600 0
 4725 161e 0022     		movs	r2, #0
 4726 1620 0892     		str	r2, [sp, #32]
 4727 1622 0992     		str	r2, [sp, #36]
 4728 1624 0B92     		str	r2, [sp, #44]
 4729 1626 1522     		movs	r2, #21
 4730 1628 8DF82020 		strb	r2, [sp, #32]
1601:vm.c          **** 	mrbc_release(&v);
 4731              		.loc 1 1601 0
 4732 162c 0A93     		str	r3, [sp, #40]
1602:vm.c          ****       }
 4733              		.loc 1 1602 0
 4734 162e 08A8     		add	r0, sp, #32
 4735              	.LVL877:
 4736 1630 FFF7FEFF 		bl	mrbc_release
 4737              	.LVL878:
 4738              	.L272:
 4739              	.LBE328:
1607:vm.c          ****     proc->sym_id = sym_id;
 4740              		.loc 1 1607 0
 4741 1634 E378     		ldrb	r3, [r4, #3]	@ zero_extendqisi2
 4742 1636 6FF30003 		bfc	r3, #0, #1
 4743 163a E370     		strb	r3, [r4, #3]
1608:vm.c          **** #ifdef MRBC_DEBUG
 4744              		.loc 1 1608 0
 4745 163c A4F80490 		strh	r9, [r4, #4]	@ movhi
1612:vm.c          ****     cls->procs = proc;
 4746              		.loc 1 1612 0
 4747 1640 D8F80830 		ldr	r3, [r8, #8]
 4748 1644 A360     		str	r3, [r4, #8]
1613:vm.c          **** 
 4749              		.loc 1 1613 0
 4750 1646 C8F80840 		str	r4, [r8, #8]
1615:vm.c          ****     regs[ra+1].tt = MRBC_TT_EMPTY;
 4751              		.loc 1 1615 0
 4752 164a 0021     		movs	r1, #0
 4753 164c 2046     		mov	r0, r4
 4754 164e FFF7FEFF 		bl	mrbc_set_vm_id
 4755              	.LVL879:
1616:vm.c          ****   }
 4756              		.loc 1 1616 0
 4757 1652 0023     		movs	r3, #0
 4758 1654 F355     		strb	r3, [r6, r7]
 4759              	.LVL880:
 4760              	.L268:
 4761              	.LBE327:
 4762              	.LBE326:
 4763              	.LBE325:
1850:vm.c          ****     case OP_METHOD:     ret = op_method    (vm, code, regs); break;
 4764              		.loc 1 1850 0
 4765 1656 0027     		movs	r7, #0
 4766 1658 43E0     		b	.L57
ARM GAS  C:\Users\164\AppData\Local\Temp\ccd4XrSZ.s 			page 131


 4767              	.LVL881:
 4768              	.L104:
 4769              	.LBB329:
 4770              	.LBB330:
1636:vm.c          **** 
 4771              		.loc 1 1636 0
 4772 165a E40D     		lsrs	r4, r4, #23
 4773              	.LVL882:
1638:vm.c          ****   regs[ra].tt = MRBC_TT_CLASS;
 4774              		.loc 1 1638 0
 4775 165c 2401     		lsls	r4, r4, #4
 4776              	.LVL883:
 4777 165e 3719     		adds	r7, r6, r4
 4778              	.LVL884:
 4779 1660 3846     		mov	r0, r7
 4780 1662 FFF7FEFF 		bl	mrbc_release
 4781              	.LVL885:
1639:vm.c          ****   regs[ra].cls = vm->target_class;
 4782              		.loc 1 1639 0
 4783 1666 0723     		movs	r3, #7
 4784 1668 3355     		strb	r3, [r6, r4]
1640:vm.c          **** 
 4785              		.loc 1 1640 0
 4786 166a D5F86036 		ldr	r3, [r5, #1632]
 4787 166e BB60     		str	r3, [r7, #8]
 4788              	.LVL886:
 4789              	.LBE330:
 4790              	.LBE329:
1851:vm.c          ****     case OP_TCLASS:     ret = op_tclass    (vm, code, regs); break;
 4791              		.loc 1 1851 0
 4792 1670 0027     		movs	r7, #0
 4793 1672 36E0     		b	.L57
 4794              	.LVL887:
 4795              	.L105:
 4796              	.LBB331:
 4797              	.LBB332:
1660:vm.c          ****     int i;
 4798              		.loc 1 1660 0
 4799 1674 04F07F04 		and	r4, r4, #127
 4800              	.LVL888:
 4801 1678 4A2C     		cmp	r4, #74
 4802 167a 0AD1     		bne	.L274
 4803 167c 06E0     		b	.L294
 4804              	.LVL889:
 4805              	.L275:
 4806              	.LBB333:
1663:vm.c          ****     }
 4807              		.loc 1 1663 0
 4808 167e 2001     		lsls	r0, r4, #4
 4809 1680 1830     		adds	r0, r0, #24
 4810 1682 2844     		add	r0, r0, r5
 4811 1684 FFF7FEFF 		bl	mrbc_release
 4812              	.LVL890:
1662:vm.c          ****       mrbc_release(&vm->regs[i]);
 4813              		.loc 1 1662 0
 4814 1688 0134     		adds	r4, r4, #1
 4815              	.LVL891:
ARM GAS  C:\Users\164\AppData\Local\Temp\ccd4XrSZ.s 			page 132


 4816 168a 00E0     		b	.L273
 4817              	.LVL892:
 4818              	.L294:
 4819              	.LBE333:
1660:vm.c          ****     int i;
 4820              		.loc 1 1660 0
 4821 168c 0024     		movs	r4, #0
 4822              	.LVL893:
 4823              	.L273:
 4824              	.LBB334:
1662:vm.c          ****       mrbc_release(&vm->regs[i]);
 4825              		.loc 1 1662 0
 4826 168e 632C     		cmp	r4, #99
 4827 1690 F5DD     		ble	.L275
 4828              	.LVL894:
 4829              	.L274:
 4830              	.LBE334:
1667:vm.c          **** 
 4831              		.loc 1 1667 0
 4832 1692 0123     		movs	r3, #1
 4833 1694 85F86836 		strb	r3, [r5, #1640]
 4834              	.LVL895:
 4835              	.LBE332:
 4836              	.LBE331:
1852:vm.c          ****     case OP_STOP:       ret = op_stop      (vm, code, regs); break;
 4837              		.loc 1 1852 0
 4838 1698 4FF0FF37 		mov	r7, #-1
 4839 169c 21E0     		b	.L57
 4840              	.LVL896:
 4841              	.L106:
 4842              	.LBB335:
 4843              	.LBB336:
1660:vm.c          ****     int i;
 4844              		.loc 1 1660 0
 4845 169e 04F07F04 		and	r4, r4, #127
 4846              	.LVL897:
 4847 16a2 4A2C     		cmp	r4, #74
 4848 16a4 0AD1     		bne	.L277
 4849 16a6 06E0     		b	.L295
 4850              	.LVL898:
 4851              	.L278:
 4852              	.LBB337:
1663:vm.c          ****     }
 4853              		.loc 1 1663 0
 4854 16a8 2001     		lsls	r0, r4, #4
 4855 16aa 1830     		adds	r0, r0, #24
 4856 16ac 2844     		add	r0, r0, r5
 4857 16ae FFF7FEFF 		bl	mrbc_release
 4858              	.LVL899:
1662:vm.c          ****       mrbc_release(&vm->regs[i]);
 4859              		.loc 1 1662 0
 4860 16b2 0134     		adds	r4, r4, #1
 4861              	.LVL900:
 4862 16b4 00E0     		b	.L276
 4863              	.LVL901:
 4864              	.L295:
 4865              	.LBE337:
ARM GAS  C:\Users\164\AppData\Local\Temp\ccd4XrSZ.s 			page 133


1660:vm.c          ****     int i;
 4866              		.loc 1 1660 0
 4867 16b6 0024     		movs	r4, #0
 4868              	.LVL902:
 4869              	.L276:
 4870              	.LBB338:
1662:vm.c          ****       mrbc_release(&vm->regs[i]);
 4871              		.loc 1 1662 0
 4872 16b8 632C     		cmp	r4, #99
 4873 16ba F5DD     		ble	.L278
 4874              	.LVL903:
 4875              	.L277:
 4876              	.LBE338:
1667:vm.c          **** 
 4877              		.loc 1 1667 0
 4878 16bc 0123     		movs	r3, #1
 4879 16be 85F86836 		strb	r3, [r5, #1640]
 4880              	.LVL904:
 4881              	.LBE336:
 4882              	.LBE335:
1853:vm.c          ****     case OP_ABORT:      ret = op_stop      (vm, code, regs); break;  // reuse
 4883              		.loc 1 1853 0
 4884 16c2 4FF0FF37 		mov	r7, #-1
 4885 16c6 0CE0     		b	.L57
 4886              	.LVL905:
 4887              	.L56:
1854:vm.c          ****     default:
1855:vm.c          ****       console_printf("Skip OP=%02x\n", GET_OPCODE(code));
 4888              		.loc 1 1855 0
 4889 16c8 04F07F01 		and	r1, r4, #127
 4890 16cc 0E48     		ldr	r0, .L307+12
 4891 16ce FFF7FEFF 		bl	console_printf
 4892              	.LVL906:
1856:vm.c          ****       break;
 4893              		.loc 1 1856 0
 4894 16d2 06E0     		b	.L57
 4895              	.LVL907:
 4896              	.L280:
1805:vm.c          ****     case OP_MOVE:       ret = op_move      (vm, code, regs); break;
 4897              		.loc 1 1805 0
 4898 16d4 0027     		movs	r7, #0
 4899              	.LVL908:
 4900 16d6 04E0     		b	.L57
 4901              	.LVL909:
 4902              	.L281:
1823:vm.c          ****     case OP_JMPNOT:     ret = op_jmpnot    (vm, code, regs); break;
 4903              		.loc 1 1823 0
 4904 16d8 0027     		movs	r7, #0
 4905              	.LVL910:
 4906 16da 02E0     		b	.L57
 4907              	.LVL911:
 4908              	.L282:
1824:vm.c          ****     case OP_SEND:       ret = op_send      (vm, code, regs); break;
 4909              		.loc 1 1824 0
 4910 16dc 0027     		movs	r7, #0
 4911              	.LVL912:
 4912 16de 00E0     		b	.L57
ARM GAS  C:\Users\164\AppData\Local\Temp\ccd4XrSZ.s 			page 134


 4913              	.LVL913:
 4914              	.L283:
1828:vm.c          ****     case OP_RETURN:     ret = op_return    (vm, code, regs); break;
 4915              		.loc 1 1828 0
 4916 16e0 0027     		movs	r7, #0
 4917              	.LVL914:
 4918              	.L57:
 4919              	.LBE196:
1857:vm.c          ****     }
1858:vm.c          ****   } while( !vm->flag_preemption );
 4920              		.loc 1 1858 0
 4921 16e2 95F86836 		ldrb	r3, [r5, #1640]	@ zero_extendqisi2
 4922 16e6 5BB2     		sxtb	r3, r3
 4923 16e8 002B     		cmp	r3, #0
 4924 16ea 3EF48EAC 		beq	.L279
1859:vm.c          **** 
1860:vm.c          ****   vm->flag_preemption = 0;
 4925              		.loc 1 1860 0
 4926 16ee 0023     		movs	r3, #0
 4927 16f0 85F86836 		strb	r3, [r5, #1640]
1861:vm.c          **** 
1862:vm.c          ****   return ret;
1863:vm.c          **** }
 4928              		.loc 1 1863 0
 4929 16f4 3846     		mov	r0, r7
 4930 16f6 0DB0     		add	sp, sp, #52
 4931              		.cfi_def_cfa_offset 36
 4932              		@ sp needed
 4933 16f8 BDE8F08F 		pop	{r4, r5, r6, r7, r8, r9, r10, fp, pc}
 4934              	.LVL915:
 4935              	.L308:
 4936              		.align	2
 4937              	.L307:
 4938 16fc 50000000 		.word	.LC4
 4939 1700 58000000 		.word	.LC5
 4940 1704 00000000 		.word	mrbc_class_object
 4941 1708 64000000 		.word	.LC6
 4942              		.cfi_endproc
 4943              	.LFE152:
 4944              		.size	mrbc_vm_run, .-mrbc_vm_run
 4945              		.section	.rodata
 4946              		.align	2
 4947              		.set	.LANCHOR1,. + 0
 4948              		.type	__func__.7714, %object
 4949              		.size	__func__.7714, 14
 4950              	__func__.7714:
 4951 0000 6D726263 		.ascii	"mrbc_vm_close\000"
 4951      5F766D5F 
 4951      636C6F73 
 4951      6500
 4952              		.section	.rodata.str1.4,"aMS",%progbits,1
 4953              		.align	2
 4954              	.LC0:
 4955 0000 4E6F7420 		.ascii	"Not supported!\012\000"
 4955      73757070 
 4955      6F727465 
 4955      64210A00 
ARM GAS  C:\Users\164\AppData\Local\Temp\ccd4XrSZ.s 			page 135


 4956              	.LC1:
 4957 0010 69203C20 		.ascii	"i < Num(free_vm_bitmap)\000"
 4957      4E756D28 
 4957      66726565 
 4957      5F766D5F 
 4957      6269746D 
 4958              	.LC2:
 4959 0028 766D2E63 		.ascii	"vm.c\000"
 4959      00
 4960 002d 000000   		.space	3
 4961              	.LC3:
 4962 0030 4E6F206D 		.ascii	"No method. Class:%s Method:%s\012\000"
 4962      6574686F 
 4962      642E2043 
 4962      6C617373 
 4962      3A257320 
 4963 004f 00       		.space	1
 4964              	.LC4:
 4965 0050 746F5F73 		.ascii	"to_s\000"
 4965      00
 4966 0055 000000   		.space	3
 4967              	.LC5:
 4968 0058 286C616D 		.ascii	"(lambda)\000"
 4968      62646129 
 4968      00
 4969 0061 000000   		.space	3
 4970              	.LC6:
 4971 0064 536B6970 		.ascii	"Skip OP=%02x\012\000"
 4971      204F503D 
 4971      25303278 
 4971      0A00
 4972              		.bss
 4973              		.align	2
 4974              		.set	.LANCHOR0,. + 0
 4975              		.type	free_vm_bitmap, %object
 4976              		.size	free_vm_bitmap, 4
 4977              	free_vm_bitmap:
 4978 0000 00000000 		.space	4
 4979              		.text
 4980              	.Letext0:
 4981              		.file 3 "c:\\program files (x86)\\cypress\\psoc creator\\4.2\\psoc creator\\import\\gnu\\arm\\5.4.
 4982              		.file 4 "c:\\program files (x86)\\cypress\\psoc creator\\4.2\\psoc creator\\import\\gnu\\arm\\5.4.
 4983              		.file 5 "value.h"
 4984              		.file 6 "c_array.h"
 4985              		.file 7 "c_string.h"
 4986              		.file 8 "c_range.h"
 4987              		.file 9 "c_hash.h"
 4988              		.file 10 "static.h"
 4989              		.file 11 "Generated_Source\\PSoC5/core_cm3.h"
 4990              		.file 12 "console.h"
 4991              		.file 13 "alloc.h"
 4992              		.file 14 "c:\\program files (x86)\\cypress\\psoc creator\\4.2\\psoc creator\\import\\gnu\\arm\\5.4
 4993              		.file 15 "global.h"
 4994              		.file 16 "symbol.h"
 4995              		.file 17 "class.h"
 4996              		.file 18 "opcode.h"
 4997              		.section	.debug_info,"",%progbits
ARM GAS  C:\Users\164\AppData\Local\Temp\ccd4XrSZ.s 			page 136


 4998              	.Ldebug_info0:
 4999 0000 7B440000 		.4byte	0x447b
 5000 0004 0400     		.2byte	0x4
 5001 0006 00000000 		.4byte	.Ldebug_abbrev0
 5002 000a 04       		.byte	0x4
 5003 000b 01       		.uleb128 0x1
 5004 000c F4010000 		.4byte	.LASF268
 5005 0010 0C       		.byte	0xc
 5006 0011 EA050000 		.4byte	.LASF269
 5007 0015 9E0A0000 		.4byte	.LASF270
 5008 0019 30000000 		.4byte	.Ldebug_ranges0+0x30
 5009 001d 00000000 		.4byte	0
 5010 0021 00000000 		.4byte	.Ldebug_line0
 5011 0025 02       		.uleb128 0x2
 5012 0026 C6070000 		.4byte	.LASF0
 5013 002a 03       		.byte	0x3
 5014 002b 1B       		.byte	0x1b
 5015 002c 30000000 		.4byte	0x30
 5016 0030 03       		.uleb128 0x3
 5017 0031 01       		.byte	0x1
 5018 0032 06       		.byte	0x6
 5019 0033 98020000 		.4byte	.LASF2
 5020 0037 02       		.uleb128 0x2
 5021 0038 3D010000 		.4byte	.LASF1
 5022 003c 03       		.byte	0x3
 5023 003d 1D       		.byte	0x1d
 5024 003e 42000000 		.4byte	0x42
 5025 0042 03       		.uleb128 0x3
 5026 0043 01       		.byte	0x1
 5027 0044 08       		.byte	0x8
 5028 0045 CE020000 		.4byte	.LASF3
 5029 0049 02       		.uleb128 0x2
 5030 004a D5080000 		.4byte	.LASF4
 5031 004e 03       		.byte	0x3
 5032 004f 29       		.byte	0x29
 5033 0050 54000000 		.4byte	0x54
 5034 0054 03       		.uleb128 0x3
 5035 0055 02       		.byte	0x2
 5036 0056 05       		.byte	0x5
 5037 0057 7E090000 		.4byte	.LASF5
 5038 005b 02       		.uleb128 0x2
 5039 005c 9B030000 		.4byte	.LASF6
 5040 0060 03       		.byte	0x3
 5041 0061 2B       		.byte	0x2b
 5042 0062 66000000 		.4byte	0x66
 5043 0066 03       		.uleb128 0x3
 5044 0067 02       		.byte	0x2
 5045 0068 07       		.byte	0x7
 5046 0069 7D0A0000 		.4byte	.LASF7
 5047 006d 02       		.uleb128 0x2
 5048 006e E90A0000 		.4byte	.LASF8
 5049 0072 03       		.byte	0x3
 5050 0073 3F       		.byte	0x3f
 5051 0074 78000000 		.4byte	0x78
 5052 0078 03       		.uleb128 0x3
 5053 0079 04       		.byte	0x4
 5054 007a 05       		.byte	0x5
ARM GAS  C:\Users\164\AppData\Local\Temp\ccd4XrSZ.s 			page 137


 5055 007b B6010000 		.4byte	.LASF9
 5056 007f 02       		.uleb128 0x2
 5057 0080 A0050000 		.4byte	.LASF10
 5058 0084 03       		.byte	0x3
 5059 0085 41       		.byte	0x41
 5060 0086 8A000000 		.4byte	0x8a
 5061 008a 03       		.uleb128 0x3
 5062 008b 04       		.byte	0x4
 5063 008c 07       		.byte	0x7
 5064 008d BD040000 		.4byte	.LASF11
 5065 0091 03       		.uleb128 0x3
 5066 0092 08       		.byte	0x8
 5067 0093 05       		.byte	0x5
 5068 0094 C1050000 		.4byte	.LASF12
 5069 0098 03       		.uleb128 0x3
 5070 0099 08       		.byte	0x8
 5071 009a 07       		.byte	0x7
 5072 009b F1070000 		.4byte	.LASF13
 5073 009f 04       		.uleb128 0x4
 5074 00a0 04       		.byte	0x4
 5075 00a1 05       		.byte	0x5
 5076 00a2 696E7400 		.ascii	"int\000"
 5077 00a6 03       		.uleb128 0x3
 5078 00a7 04       		.byte	0x4
 5079 00a8 07       		.byte	0x7
 5080 00a9 60060000 		.4byte	.LASF14
 5081 00ad 02       		.uleb128 0x2
 5082 00ae 09000000 		.4byte	.LASF15
 5083 00b2 04       		.byte	0x4
 5084 00b3 14       		.byte	0x14
 5085 00b4 25000000 		.4byte	0x25
 5086 00b8 02       		.uleb128 0x2
 5087 00b9 A4020000 		.4byte	.LASF16
 5088 00bd 04       		.byte	0x4
 5089 00be 18       		.byte	0x18
 5090 00bf 37000000 		.4byte	0x37
 5091 00c3 02       		.uleb128 0x2
 5092 00c4 B0090000 		.4byte	.LASF17
 5093 00c8 04       		.byte	0x4
 5094 00c9 20       		.byte	0x20
 5095 00ca 49000000 		.4byte	0x49
 5096 00ce 02       		.uleb128 0x2
 5097 00cf 39080000 		.4byte	.LASF18
 5098 00d3 04       		.byte	0x4
 5099 00d4 24       		.byte	0x24
 5100 00d5 5B000000 		.4byte	0x5b
 5101 00d9 02       		.uleb128 0x2
 5102 00da 4E000000 		.4byte	.LASF19
 5103 00de 04       		.byte	0x4
 5104 00df 2C       		.byte	0x2c
 5105 00e0 6D000000 		.4byte	0x6d
 5106 00e4 02       		.uleb128 0x2
 5107 00e5 660A0000 		.4byte	.LASF20
 5108 00e9 04       		.byte	0x4
 5109 00ea 30       		.byte	0x30
 5110 00eb 7F000000 		.4byte	0x7f
 5111 00ef 03       		.uleb128 0x3
ARM GAS  C:\Users\164\AppData\Local\Temp\ccd4XrSZ.s 			page 138


 5112 00f0 08       		.byte	0x8
 5113 00f1 04       		.byte	0x4
 5114 00f2 61070000 		.4byte	.LASF21
 5115 00f6 03       		.uleb128 0x3
 5116 00f7 04       		.byte	0x4
 5117 00f8 07       		.byte	0x7
 5118 00f9 10000000 		.4byte	.LASF22
 5119 00fd 05       		.uleb128 0x5
 5120 00fe 04       		.byte	0x4
 5121 00ff 03       		.uleb128 0x3
 5122 0100 01       		.byte	0x1
 5123 0101 08       		.byte	0x8
 5124 0102 65030000 		.4byte	.LASF23
 5125 0106 06       		.uleb128 0x6
 5126 0107 04       		.byte	0x4
 5127 0108 0C010000 		.4byte	0x10c
 5128 010c 07       		.uleb128 0x7
 5129 010d FF000000 		.4byte	0xff
 5130 0111 02       		.uleb128 0x2
 5131 0112 29080000 		.4byte	.LASF24
 5132 0116 05       		.byte	0x5
 5133 0117 1A       		.byte	0x1a
 5134 0118 D9000000 		.4byte	0xd9
 5135 011c 02       		.uleb128 0x2
 5136 011d F30A0000 		.4byte	.LASF25
 5137 0121 05       		.byte	0x5
 5138 0122 1B       		.byte	0x1b
 5139 0123 27010000 		.4byte	0x127
 5140 0127 03       		.uleb128 0x3
 5141 0128 08       		.byte	0x8
 5142 0129 04       		.byte	0x4
 5143 012a 00060000 		.4byte	.LASF26
 5144 012e 02       		.uleb128 0x2
 5145 012f BA000000 		.4byte	.LASF27
 5146 0133 05       		.byte	0x5
 5147 0134 1C       		.byte	0x1c
 5148 0135 C3000000 		.4byte	0xc3
 5149 0139 02       		.uleb128 0x2
 5150 013a 2A0A0000 		.4byte	.LASF28
 5151 013e 05       		.byte	0x5
 5152 013f 2C       		.byte	0x2c
 5153 0140 44010000 		.4byte	0x144
 5154 0144 06       		.uleb128 0x6
 5155 0145 04       		.byte	0x4
 5156 0146 4A010000 		.4byte	0x14a
 5157 014a 08       		.uleb128 0x8
 5158 014b 5F010000 		.4byte	0x15f
 5159 014f 09       		.uleb128 0x9
 5160 0150 5F010000 		.4byte	0x15f
 5161 0154 09       		.uleb128 0x9
 5162 0155 07020000 		.4byte	0x207
 5163 0159 09       		.uleb128 0x9
 5164 015a 9F000000 		.4byte	0x9f
 5165 015e 00       		.byte	0
 5166 015f 06       		.uleb128 0x6
 5167 0160 04       		.byte	0x4
 5168 0161 65010000 		.4byte	0x165
ARM GAS  C:\Users\164\AppData\Local\Temp\ccd4XrSZ.s 			page 139


 5169 0165 0A       		.uleb128 0xa
 5170 0166 564D00   		.ascii	"VM\000"
 5171 0169 7006     		.2byte	0x670
 5172 016b 02       		.byte	0x2
 5173 016c 43       		.byte	0x43
 5174 016d 07020000 		.4byte	0x207
 5175 0171 0B       		.uleb128 0xb
 5176 0172 2C050000 		.4byte	.LASF29
 5177 0176 02       		.byte	0x2
 5178 0177 44       		.byte	0x44
 5179 0178 A4060000 		.4byte	0x6a4
 5180 017c 00       		.byte	0
 5181 017d 0B       		.uleb128 0xb
 5182 017e C8030000 		.4byte	.LASF30
 5183 0182 02       		.byte	0x2
 5184 0183 46       		.byte	0x46
 5185 0184 B8000000 		.4byte	0xb8
 5186 0188 04       		.byte	0x4
 5187 0189 0C       		.uleb128 0xc
 5188 018a 6D726200 		.ascii	"mrb\000"
 5189 018e 02       		.byte	0x2
 5190 018f 47       		.byte	0x47
 5191 0190 C1060000 		.4byte	0x6c1
 5192 0194 08       		.byte	0x8
 5193 0195 0B       		.uleb128 0xb
 5194 0196 6A030000 		.4byte	.LASF31
 5195 019a 02       		.byte	0x2
 5196 019b 49       		.byte	0x49
 5197 019c A4060000 		.4byte	0x6a4
 5198 01a0 0C       		.byte	0xc
 5199 01a1 0C       		.uleb128 0xc
 5200 01a2 706300   		.ascii	"pc\000"
 5201 01a5 02       		.byte	0x2
 5202 01a6 4A       		.byte	0x4a
 5203 01a7 CE000000 		.4byte	0xce
 5204 01ab 10       		.byte	0x10
 5205 01ac 0B       		.uleb128 0xb
 5206 01ad E7080000 		.4byte	.LASF32
 5207 01b1 02       		.byte	0x2
 5208 01b2 4D       		.byte	0x4d
 5209 01b3 CC060000 		.4byte	0x6cc
 5210 01b7 18       		.byte	0x18
 5211 01b8 0D       		.uleb128 0xd
 5212 01b9 B4050000 		.4byte	.LASF33
 5213 01bd 02       		.byte	0x2
 5214 01be 4E       		.byte	0x4e
 5215 01bf AA060000 		.4byte	0x6aa
 5216 01c3 5806     		.2byte	0x658
 5217 01c5 0D       		.uleb128 0xd
 5218 01c6 4D0B0000 		.4byte	.LASF34
 5219 01ca 02       		.byte	0x2
 5220 01cb 4F       		.byte	0x4f
 5221 01cc DC060000 		.4byte	0x6dc
 5222 01d0 5C06     		.2byte	0x65c
 5223 01d2 0D       		.uleb128 0xd
 5224 01d3 CE0A0000 		.4byte	.LASF35
 5225 01d7 02       		.byte	0x2
ARM GAS  C:\Users\164\AppData\Local\Temp\ccd4XrSZ.s 			page 140


 5226 01d8 51       		.byte	0x51
 5227 01d9 B0060000 		.4byte	0x6b0
 5228 01dd 6006     		.2byte	0x660
 5229 01df 0D       		.uleb128 0xd
 5230 01e0 B1080000 		.4byte	.LASF36
 5231 01e4 02       		.byte	0x2
 5232 01e5 53       		.byte	0x53
 5233 01e6 D9000000 		.4byte	0xd9
 5234 01ea 6406     		.2byte	0x664
 5235 01ec 0D       		.uleb128 0xd
 5236 01ed F2060000 		.4byte	.LASF37
 5237 01f1 02       		.byte	0x2
 5238 01f2 55       		.byte	0x55
 5239 01f3 E2060000 		.4byte	0x6e2
 5240 01f7 6806     		.2byte	0x668
 5241 01f9 0D       		.uleb128 0xd
 5242 01fa 83080000 		.4byte	.LASF38
 5243 01fe 02       		.byte	0x2
 5244 01ff 56       		.byte	0x56
 5245 0200 AD000000 		.4byte	0xad
 5246 0204 6906     		.2byte	0x669
 5247 0206 00       		.byte	0
 5248 0207 06       		.uleb128 0x6
 5249 0208 04       		.byte	0x4
 5250 0209 0D020000 		.4byte	0x20d
 5251 020d 0E       		.uleb128 0xe
 5252 020e C6020000 		.4byte	.LASF39
 5253 0212 10       		.byte	0x10
 5254 0213 05       		.byte	0x5
 5255 0214 68       		.byte	0x68
 5256 0215 2E020000 		.4byte	0x22e
 5257 0219 0F       		.uleb128 0xf
 5258 021a 747400   		.ascii	"tt\000"
 5259 021d 05       		.byte	0x5
 5260 021e 69       		.byte	0x69
 5261 021f 95020000 		.4byte	0x295
 5262 0223 01       		.byte	0x1
 5263 0224 08       		.byte	0x8
 5264 0225 00       		.byte	0
 5265 0226 00       		.byte	0
 5266 0227 10       		.uleb128 0x10
 5267 0228 A0020000 		.4byte	0x2a0
 5268 022c 08       		.byte	0x8
 5269 022d 00       		.byte	0
 5270 022e 11       		.uleb128 0x11
 5271 022f 01       		.byte	0x1
 5272 0230 30000000 		.4byte	0x30
 5273 0234 05       		.byte	0x5
 5274 0235 33       		.byte	0x33
 5275 0236 95020000 		.4byte	0x295
 5276 023a 12       		.uleb128 0x12
 5277 023b 89050000 		.4byte	.LASF40
 5278 023f 7F       		.sleb128 -1
 5279 0240 13       		.uleb128 0x13
 5280 0241 280B0000 		.4byte	.LASF41
 5281 0245 00       		.byte	0
 5282 0246 13       		.uleb128 0x13
ARM GAS  C:\Users\164\AppData\Local\Temp\ccd4XrSZ.s 			page 141


 5283 0247 A4090000 		.4byte	.LASF42
 5284 024b 01       		.byte	0x1
 5285 024c 13       		.uleb128 0x13
 5286 024d AF040000 		.4byte	.LASF43
 5287 0251 02       		.byte	0x2
 5288 0252 13       		.uleb128 0x13
 5289 0253 DF070000 		.4byte	.LASF44
 5290 0257 03       		.byte	0x3
 5291 0258 13       		.uleb128 0x13
 5292 0259 6E000000 		.4byte	.LASF45
 5293 025d 04       		.byte	0x4
 5294 025e 13       		.uleb128 0x13
 5295 025f 600B0000 		.4byte	.LASF46
 5296 0263 05       		.byte	0x5
 5297 0264 13       		.uleb128 0x13
 5298 0265 19000000 		.4byte	.LASF47
 5299 0269 06       		.byte	0x6
 5300 026a 13       		.uleb128 0x13
 5301 026b 55010000 		.4byte	.LASF48
 5302 026f 07       		.byte	0x7
 5303 0270 13       		.uleb128 0x13
 5304 0271 C8010000 		.4byte	.LASF49
 5305 0275 14       		.byte	0x14
 5306 0276 13       		.uleb128 0x13
 5307 0277 54050000 		.4byte	.LASF50
 5308 027b 15       		.byte	0x15
 5309 027c 13       		.uleb128 0x13
 5310 027d 8E040000 		.4byte	.LASF51
 5311 0281 16       		.byte	0x16
 5312 0282 13       		.uleb128 0x13
 5313 0283 1A080000 		.4byte	.LASF52
 5314 0287 17       		.byte	0x17
 5315 0288 13       		.uleb128 0x13
 5316 0289 7F060000 		.4byte	.LASF53
 5317 028d 18       		.byte	0x18
 5318 028e 13       		.uleb128 0x13
 5319 028f 6D010000 		.4byte	.LASF54
 5320 0293 19       		.byte	0x19
 5321 0294 00       		.byte	0
 5322 0295 02       		.uleb128 0x2
 5323 0296 29040000 		.4byte	.LASF55
 5324 029a 05       		.byte	0x5
 5325 029b 49       		.byte	0x49
 5326 029c 2E020000 		.4byte	0x22e
 5327 02a0 14       		.uleb128 0x14
 5328 02a1 08       		.byte	0x8
 5329 02a2 05       		.byte	0x5
 5330 02a3 6A       		.byte	0x6a
 5331 02a4 1E030000 		.4byte	0x31e
 5332 02a8 15       		.uleb128 0x15
 5333 02a9 6900     		.ascii	"i\000"
 5334 02ab 05       		.byte	0x5
 5335 02ac 6B       		.byte	0x6b
 5336 02ad 11010000 		.4byte	0x111
 5337 02b1 15       		.uleb128 0x15
 5338 02b2 6400     		.ascii	"d\000"
 5339 02b4 05       		.byte	0x5
ARM GAS  C:\Users\164\AppData\Local\Temp\ccd4XrSZ.s 			page 142


 5340 02b5 6D       		.byte	0x6d
 5341 02b6 1C010000 		.4byte	0x11c
 5342 02ba 15       		.uleb128 0x15
 5343 02bb 636C7300 		.ascii	"cls\000"
 5344 02bf 05       		.byte	0x5
 5345 02c0 6F       		.byte	0x6f
 5346 02c1 4F030000 		.4byte	0x34f
 5347 02c5 16       		.uleb128 0x16
 5348 02c6 79070000 		.4byte	.LASF56
 5349 02ca 05       		.byte	0x5
 5350 02cb 70       		.byte	0x70
 5351 02cc 07020000 		.4byte	0x207
 5352 02d0 16       		.uleb128 0x16
 5353 02d1 65000000 		.4byte	.LASF57
 5354 02d5 05       		.byte	0x5
 5355 02d6 71       		.byte	0x71
 5356 02d7 A0030000 		.4byte	0x3a0
 5357 02db 16       		.uleb128 0x16
 5358 02dc C3030000 		.4byte	.LASF58
 5359 02e0 05       		.byte	0x5
 5360 02e1 72       		.byte	0x72
 5361 02e2 FA030000 		.4byte	0x3fa
 5362 02e6 16       		.uleb128 0x16
 5363 02e7 34040000 		.4byte	.LASF59
 5364 02eb 05       		.byte	0x5
 5365 02ec 73       		.byte	0x73
 5366 02ed 4B040000 		.4byte	0x44b
 5367 02f1 16       		.uleb128 0x16
 5368 02f2 59060000 		.4byte	.LASF60
 5369 02f6 05       		.byte	0x5
 5370 02f7 74       		.byte	0x74
 5371 02f8 90040000 		.4byte	0x490
 5372 02fc 15       		.uleb128 0x15
 5373 02fd 73747200 		.ascii	"str\000"
 5374 0301 05       		.byte	0x5
 5375 0302 75       		.byte	0x75
 5376 0303 06010000 		.4byte	0x106
 5377 0307 16       		.uleb128 0x16
 5378 0308 9E090000 		.4byte	.LASF61
 5379 030c 05       		.byte	0x5
 5380 030d 76       		.byte	0x76
 5381 030e E1040000 		.4byte	0x4e1
 5382 0312 16       		.uleb128 0x16
 5383 0313 230B0000 		.4byte	.LASF62
 5384 0317 05       		.byte	0x5
 5385 0318 77       		.byte	0x77
 5386 0319 32050000 		.4byte	0x532
 5387 031d 00       		.byte	0
 5388 031e 0E       		.uleb128 0xe
 5389 031f 36010000 		.4byte	.LASF63
 5390 0323 0C       		.byte	0xc
 5391 0324 05       		.byte	0x5
 5392 0325 84       		.byte	0x84
 5393 0326 4F030000 		.4byte	0x34f
 5394 032a 0B       		.uleb128 0xb
 5395 032b CB000000 		.4byte	.LASF64
 5396 032f 05       		.byte	0x5
ARM GAS  C:\Users\164\AppData\Local\Temp\ccd4XrSZ.s 			page 143


 5397 0330 85       		.byte	0x85
 5398 0331 2E010000 		.4byte	0x12e
 5399 0335 00       		.byte	0
 5400 0336 0B       		.uleb128 0xb
 5401 0337 2B010000 		.4byte	.LASF65
 5402 033b 05       		.byte	0x5
 5403 033c 89       		.byte	0x89
 5404 033d 4F030000 		.4byte	0x34f
 5405 0341 04       		.byte	0x4
 5406 0342 0B       		.uleb128 0xb
 5407 0343 79050000 		.4byte	.LASF66
 5408 0347 05       		.byte	0x5
 5409 0348 8A       		.byte	0x8a
 5410 0349 FA030000 		.4byte	0x3fa
 5411 034d 08       		.byte	0x8
 5412 034e 00       		.byte	0
 5413 034f 06       		.uleb128 0x6
 5414 0350 04       		.byte	0x4
 5415 0351 1E030000 		.4byte	0x31e
 5416 0355 0E       		.uleb128 0xe
 5417 0356 42060000 		.4byte	.LASF67
 5418 035a 0C       		.byte	0xc
 5419 035b 05       		.byte	0x5
 5420 035c 93       		.byte	0x93
 5421 035d A0030000 		.4byte	0x3a0
 5422 0361 0B       		.uleb128 0xb
 5423 0362 08030000 		.4byte	.LASF68
 5424 0366 05       		.byte	0x5
 5425 0367 94       		.byte	0x94
 5426 0368 CE000000 		.4byte	0xce
 5427 036c 00       		.byte	0
 5428 036d 0F       		.uleb128 0xf
 5429 036e 747400   		.ascii	"tt\000"
 5430 0371 05       		.byte	0x5
 5431 0372 94       		.byte	0x94
 5432 0373 95020000 		.4byte	0x295
 5433 0377 01       		.byte	0x1
 5434 0378 08       		.byte	0x8
 5435 0379 00       		.byte	0
 5436 037a 02       		.byte	0x2
 5437 037b 0C       		.uleb128 0xc
 5438 037c 636C7300 		.ascii	"cls\000"
 5439 0380 05       		.byte	0x5
 5440 0381 96       		.byte	0x96
 5441 0382 4F030000 		.4byte	0x34f
 5442 0386 04       		.byte	0x4
 5443 0387 0B       		.uleb128 0xb
 5444 0388 31010000 		.4byte	.LASF69
 5445 038c 05       		.byte	0x5
 5446 038d 97       		.byte	0x97
 5447 038e 69050000 		.4byte	0x569
 5448 0392 08       		.byte	0x8
 5449 0393 0B       		.uleb128 0xb
 5450 0394 82020000 		.4byte	.LASF70
 5451 0398 05       		.byte	0x5
 5452 0399 98       		.byte	0x98
 5453 039a 6F050000 		.4byte	0x56f
ARM GAS  C:\Users\164\AppData\Local\Temp\ccd4XrSZ.s 			page 144


 5454 039e 0C       		.byte	0xc
 5455 039f 00       		.byte	0
 5456 03a0 06       		.uleb128 0x6
 5457 03a1 04       		.byte	0x4
 5458 03a2 55030000 		.4byte	0x355
 5459 03a6 0E       		.uleb128 0xe
 5460 03a7 DB0A0000 		.4byte	.LASF71
 5461 03ab 10       		.byte	0x10
 5462 03ac 05       		.byte	0x5
 5463 03ad A1       		.byte	0xa1
 5464 03ae FA030000 		.4byte	0x3fa
 5465 03b2 0B       		.uleb128 0xb
 5466 03b3 08030000 		.4byte	.LASF68
 5467 03b7 05       		.byte	0x5
 5468 03b8 A2       		.byte	0xa2
 5469 03b9 CE000000 		.4byte	0xce
 5470 03bd 00       		.byte	0
 5471 03be 0F       		.uleb128 0xf
 5472 03bf 747400   		.ascii	"tt\000"
 5473 03c2 05       		.byte	0x5
 5474 03c3 A2       		.byte	0xa2
 5475 03c4 95020000 		.4byte	0x295
 5476 03c8 01       		.byte	0x1
 5477 03c9 08       		.byte	0x8
 5478 03ca 00       		.byte	0
 5479 03cb 02       		.byte	0x2
 5480 03cc 17       		.uleb128 0x17
 5481 03cd 32080000 		.4byte	.LASF72
 5482 03d1 05       		.byte	0x5
 5483 03d2 A4       		.byte	0xa4
 5484 03d3 A6000000 		.4byte	0xa6
 5485 03d7 04       		.byte	0x4
 5486 03d8 01       		.byte	0x1
 5487 03d9 07       		.byte	0x7
 5488 03da 00       		.byte	0
 5489 03db 0B       		.uleb128 0xb
 5490 03dc CB000000 		.4byte	.LASF64
 5491 03e0 05       		.byte	0x5
 5492 03e1 A5       		.byte	0xa5
 5493 03e2 2E010000 		.4byte	0x12e
 5494 03e6 04       		.byte	0x4
 5495 03e7 0B       		.uleb128 0xb
 5496 03e8 480B0000 		.4byte	.LASF73
 5497 03ec 05       		.byte	0x5
 5498 03ed A9       		.byte	0xa9
 5499 03ee FA030000 		.4byte	0x3fa
 5500 03f2 08       		.byte	0x8
 5501 03f3 10       		.uleb128 0x10
 5502 03f4 7E050000 		.4byte	0x57e
 5503 03f8 0C       		.byte	0xc
 5504 03f9 00       		.byte	0
 5505 03fa 06       		.uleb128 0x6
 5506 03fb 04       		.byte	0x4
 5507 03fc A6030000 		.4byte	0x3a6
 5508 0400 0E       		.uleb128 0xe
 5509 0401 BC030000 		.4byte	.LASF74
 5510 0405 0C       		.byte	0xc
ARM GAS  C:\Users\164\AppData\Local\Temp\ccd4XrSZ.s 			page 145


 5511 0406 06       		.byte	0x6
 5512 0407 1B       		.byte	0x1b
 5513 0408 4B040000 		.4byte	0x44b
 5514 040c 0B       		.uleb128 0xb
 5515 040d 08030000 		.4byte	.LASF68
 5516 0411 06       		.byte	0x6
 5517 0412 1C       		.byte	0x1c
 5518 0413 CE000000 		.4byte	0xce
 5519 0417 00       		.byte	0
 5520 0418 0F       		.uleb128 0xf
 5521 0419 747400   		.ascii	"tt\000"
 5522 041c 06       		.byte	0x6
 5523 041d 1C       		.byte	0x1c
 5524 041e 95020000 		.4byte	0x295
 5525 0422 01       		.byte	0x1
 5526 0423 08       		.byte	0x8
 5527 0424 00       		.byte	0
 5528 0425 02       		.byte	0x2
 5529 0426 0B       		.uleb128 0xb
 5530 0427 36050000 		.4byte	.LASF75
 5531 042b 06       		.byte	0x6
 5532 042c 1E       		.byte	0x1e
 5533 042d CE000000 		.4byte	0xce
 5534 0431 04       		.byte	0x4
 5535 0432 0B       		.uleb128 0xb
 5536 0433 F4040000 		.4byte	.LASF76
 5537 0437 06       		.byte	0x6
 5538 0438 1F       		.byte	0x1f
 5539 0439 CE000000 		.4byte	0xce
 5540 043d 06       		.byte	0x6
 5541 043e 0B       		.uleb128 0xb
 5542 043f 82020000 		.4byte	.LASF70
 5543 0443 06       		.byte	0x6
 5544 0444 20       		.byte	0x20
 5545 0445 AA060000 		.4byte	0x6aa
 5546 0449 08       		.byte	0x8
 5547 044a 00       		.byte	0
 5548 044b 06       		.uleb128 0x6
 5549 044c 04       		.byte	0x4
 5550 044d 00040000 		.4byte	0x400
 5551 0451 0E       		.uleb128 0xe
 5552 0452 EC040000 		.4byte	.LASF77
 5553 0456 0C       		.byte	0xc
 5554 0457 07       		.byte	0x7
 5555 0458 1D       		.byte	0x1d
 5556 0459 90040000 		.4byte	0x490
 5557 045d 0B       		.uleb128 0xb
 5558 045e 08030000 		.4byte	.LASF68
 5559 0462 07       		.byte	0x7
 5560 0463 1E       		.byte	0x1e
 5561 0464 CE000000 		.4byte	0xce
 5562 0468 00       		.byte	0
 5563 0469 0F       		.uleb128 0xf
 5564 046a 747400   		.ascii	"tt\000"
 5565 046d 07       		.byte	0x7
 5566 046e 1E       		.byte	0x1e
 5567 046f 95020000 		.4byte	0x295
ARM GAS  C:\Users\164\AppData\Local\Temp\ccd4XrSZ.s 			page 146


 5568 0473 01       		.byte	0x1
 5569 0474 08       		.byte	0x8
 5570 0475 00       		.byte	0
 5571 0476 02       		.byte	0x2
 5572 0477 0B       		.uleb128 0xb
 5573 0478 EC070000 		.4byte	.LASF78
 5574 047c 07       		.byte	0x7
 5575 047d 20       		.byte	0x20
 5576 047e CE000000 		.4byte	0xce
 5577 0482 04       		.byte	0x4
 5578 0483 0B       		.uleb128 0xb
 5579 0484 82020000 		.4byte	.LASF70
 5580 0488 07       		.byte	0x7
 5581 0489 21       		.byte	0x21
 5582 048a 27060000 		.4byte	0x627
 5583 048e 08       		.byte	0x8
 5584 048f 00       		.byte	0
 5585 0490 06       		.uleb128 0x6
 5586 0491 04       		.byte	0x4
 5587 0492 51040000 		.4byte	0x451
 5588 0496 0E       		.uleb128 0xe
 5589 0497 40050000 		.4byte	.LASF79
 5590 049b 28       		.byte	0x28
 5591 049c 08       		.byte	0x8
 5592 049d 1C       		.byte	0x1c
 5593 049e E1040000 		.4byte	0x4e1
 5594 04a2 0B       		.uleb128 0xb
 5595 04a3 08030000 		.4byte	.LASF68
 5596 04a7 08       		.byte	0x8
 5597 04a8 1D       		.byte	0x1d
 5598 04a9 CE000000 		.4byte	0xce
 5599 04ad 00       		.byte	0
 5600 04ae 0F       		.uleb128 0xf
 5601 04af 747400   		.ascii	"tt\000"
 5602 04b2 08       		.byte	0x8
 5603 04b3 1D       		.byte	0x1d
 5604 04b4 95020000 		.4byte	0x295
 5605 04b8 01       		.byte	0x1
 5606 04b9 08       		.byte	0x8
 5607 04ba 00       		.byte	0
 5608 04bb 02       		.byte	0x2
 5609 04bc 0B       		.uleb128 0xb
 5610 04bd 22070000 		.4byte	.LASF80
 5611 04c1 08       		.byte	0x8
 5612 04c2 1F       		.byte	0x1f
 5613 04c3 B8000000 		.4byte	0xb8
 5614 04c7 03       		.byte	0x3
 5615 04c8 0B       		.uleb128 0xb
 5616 04c9 EC060000 		.4byte	.LASF81
 5617 04cd 08       		.byte	0x8
 5618 04ce 20       		.byte	0x20
 5619 04cf 43050000 		.4byte	0x543
 5620 04d3 08       		.byte	0x8
 5621 04d4 0B       		.uleb128 0xb
 5622 04d5 6E0B0000 		.4byte	.LASF82
 5623 04d9 08       		.byte	0x8
 5624 04da 21       		.byte	0x21
ARM GAS  C:\Users\164\AppData\Local\Temp\ccd4XrSZ.s 			page 147


 5625 04db 43050000 		.4byte	0x543
 5626 04df 18       		.byte	0x18
 5627 04e0 00       		.byte	0
 5628 04e1 06       		.uleb128 0x6
 5629 04e2 04       		.byte	0x4
 5630 04e3 96040000 		.4byte	0x496
 5631 04e7 0E       		.uleb128 0xe
 5632 04e8 E6060000 		.4byte	.LASF83
 5633 04ec 0C       		.byte	0xc
 5634 04ed 09       		.byte	0x9
 5635 04ee 1C       		.byte	0x1c
 5636 04ef 32050000 		.4byte	0x532
 5637 04f3 0B       		.uleb128 0xb
 5638 04f4 08030000 		.4byte	.LASF68
 5639 04f8 09       		.byte	0x9
 5640 04f9 1F       		.byte	0x1f
 5641 04fa CE000000 		.4byte	0xce
 5642 04fe 00       		.byte	0
 5643 04ff 0F       		.uleb128 0xf
 5644 0500 747400   		.ascii	"tt\000"
 5645 0503 09       		.byte	0x9
 5646 0504 1F       		.byte	0x1f
 5647 0505 95020000 		.4byte	0x295
 5648 0509 01       		.byte	0x1
 5649 050a 08       		.byte	0x8
 5650 050b 00       		.byte	0
 5651 050c 02       		.byte	0x2
 5652 050d 0B       		.uleb128 0xb
 5653 050e 36050000 		.4byte	.LASF75
 5654 0512 09       		.byte	0x9
 5655 0513 21       		.byte	0x21
 5656 0514 CE000000 		.4byte	0xce
 5657 0518 04       		.byte	0x4
 5658 0519 0B       		.uleb128 0xb
 5659 051a F4040000 		.4byte	.LASF76
 5660 051e 09       		.byte	0x9
 5661 051f 22       		.byte	0x22
 5662 0520 CE000000 		.4byte	0xce
 5663 0524 06       		.byte	0x6
 5664 0525 0B       		.uleb128 0xb
 5665 0526 82020000 		.4byte	.LASF70
 5666 052a 09       		.byte	0x9
 5667 052b 23       		.byte	0x23
 5668 052c AA060000 		.4byte	0x6aa
 5669 0530 08       		.byte	0x8
 5670 0531 00       		.byte	0
 5671 0532 06       		.uleb128 0x6
 5672 0533 04       		.byte	0x4
 5673 0534 E7040000 		.4byte	0x4e7
 5674 0538 02       		.uleb128 0x2
 5675 0539 D3090000 		.4byte	.LASF84
 5676 053d 05       		.byte	0x5
 5677 053e 7C       		.byte	0x7c
 5678 053f 0D020000 		.4byte	0x20d
 5679 0543 02       		.uleb128 0x2
 5680 0544 A6030000 		.4byte	.LASF85
 5681 0548 05       		.byte	0x5
ARM GAS  C:\Users\164\AppData\Local\Temp\ccd4XrSZ.s 			page 148


 5682 0549 7D       		.byte	0x7d
 5683 054a 0D020000 		.4byte	0x20d
 5684 054e 02       		.uleb128 0x2
 5685 054f 8D020000 		.4byte	.LASF86
 5686 0553 05       		.byte	0x5
 5687 0554 8B       		.byte	0x8b
 5688 0555 1E030000 		.4byte	0x31e
 5689 0559 02       		.uleb128 0x2
 5690 055a 95010000 		.4byte	.LASF87
 5691 055e 05       		.byte	0x5
 5692 055f 8C       		.byte	0x8c
 5693 0560 1E030000 		.4byte	0x31e
 5694 0564 18       		.uleb128 0x18
 5695 0565 F6000000 		.4byte	.LASF271
 5696 0569 06       		.uleb128 0x6
 5697 056a 04       		.byte	0x4
 5698 056b 64050000 		.4byte	0x564
 5699 056f 19       		.uleb128 0x19
 5700 0570 B8000000 		.4byte	0xb8
 5701 0574 7E050000 		.4byte	0x57e
 5702 0578 1A       		.uleb128 0x1a
 5703 0579 F6000000 		.4byte	0xf6
 5704 057d 00       		.byte	0
 5705 057e 14       		.uleb128 0x14
 5706 057f 04       		.byte	0x4
 5707 0580 05       		.byte	0x5
 5708 0581 AA       		.byte	0xaa
 5709 0582 9D050000 		.4byte	0x59d
 5710 0586 16       		.uleb128 0x16
 5711 0587 2C050000 		.4byte	.LASF29
 5712 058b 05       		.byte	0x5
 5713 058c AB       		.byte	0xab
 5714 058d 16060000 		.4byte	0x616
 5715 0591 16       		.uleb128 0x16
 5716 0592 99090000 		.4byte	.LASF88
 5717 0596 05       		.byte	0x5
 5718 0597 AC       		.byte	0xac
 5719 0598 39010000 		.4byte	0x139
 5720 059c 00       		.byte	0
 5721 059d 0E       		.uleb128 0xe
 5722 059e FE080000 		.4byte	.LASF89
 5723 05a2 1C       		.byte	0x1c
 5724 05a3 02       		.byte	0x2
 5725 05a4 20       		.byte	0x20
 5726 05a5 16060000 		.4byte	0x616
 5727 05a9 0B       		.uleb128 0xb
 5728 05aa 360B0000 		.4byte	.LASF90
 5729 05ae 02       		.byte	0x2
 5730 05af 21       		.byte	0x21
 5731 05b0 CE000000 		.4byte	0xce
 5732 05b4 00       		.byte	0
 5733 05b5 0B       		.uleb128 0xb
 5734 05b6 FE0A0000 		.4byte	.LASF91
 5735 05ba 02       		.byte	0x2
 5736 05bb 22       		.byte	0x22
 5737 05bc CE000000 		.4byte	0xce
 5738 05c0 02       		.byte	0x2
ARM GAS  C:\Users\164\AppData\Local\Temp\ccd4XrSZ.s 			page 149


 5739 05c1 0B       		.uleb128 0xb
 5740 05c2 26010000 		.4byte	.LASF92
 5741 05c6 02       		.byte	0x2
 5742 05c7 23       		.byte	0x23
 5743 05c8 CE000000 		.4byte	0xce
 5744 05cc 04       		.byte	0x4
 5745 05cd 0B       		.uleb128 0xb
 5746 05ce 31050000 		.4byte	.LASF93
 5747 05d2 02       		.byte	0x2
 5748 05d3 24       		.byte	0x24
 5749 05d4 CE000000 		.4byte	0xce
 5750 05d8 06       		.byte	0x6
 5751 05d9 0B       		.uleb128 0xb
 5752 05da 15090000 		.4byte	.LASF94
 5753 05de 02       		.byte	0x2
 5754 05df 25       		.byte	0x25
 5755 05e0 CE000000 		.4byte	0xce
 5756 05e4 08       		.byte	0x8
 5757 05e5 0B       		.uleb128 0xb
 5758 05e6 1A090000 		.4byte	.LASF95
 5759 05ea 02       		.byte	0x2
 5760 05eb 27       		.byte	0x27
 5761 05ec 27060000 		.4byte	0x627
 5762 05f0 0C       		.byte	0xc
 5763 05f1 0B       		.uleb128 0xb
 5764 05f2 59030000 		.4byte	.LASF96
 5765 05f6 02       		.byte	0x2
 5766 05f7 28       		.byte	0x28
 5767 05f8 2D060000 		.4byte	0x62d
 5768 05fc 10       		.byte	0x10
 5769 05fd 0B       		.uleb128 0xb
 5770 05fe CE030000 		.4byte	.LASF97
 5771 0602 02       		.byte	0x2
 5772 0603 29       		.byte	0x29
 5773 0604 27060000 		.4byte	0x627
 5774 0608 14       		.byte	0x14
 5775 0609 0B       		.uleb128 0xb
 5776 060a 95000000 		.4byte	.LASF98
 5777 060e 02       		.byte	0x2
 5778 060f 2A       		.byte	0x2a
 5779 0610 39060000 		.4byte	0x639
 5780 0614 18       		.byte	0x18
 5781 0615 00       		.byte	0
 5782 0616 06       		.uleb128 0x6
 5783 0617 04       		.byte	0x4
 5784 0618 9D050000 		.4byte	0x59d
 5785 061c 02       		.uleb128 0x2
 5786 061d 030A0000 		.4byte	.LASF99
 5787 0621 05       		.byte	0x5
 5788 0622 AE       		.byte	0xae
 5789 0623 A6030000 		.4byte	0x3a6
 5790 0627 06       		.uleb128 0x6
 5791 0628 04       		.byte	0x4
 5792 0629 B8000000 		.4byte	0xb8
 5793 062d 06       		.uleb128 0x6
 5794 062e 04       		.byte	0x4
 5795 062f 33060000 		.4byte	0x633
ARM GAS  C:\Users\164\AppData\Local\Temp\ccd4XrSZ.s 			page 150


 5796 0633 06       		.uleb128 0x6
 5797 0634 04       		.byte	0x4
 5798 0635 38050000 		.4byte	0x538
 5799 0639 06       		.uleb128 0x6
 5800 063a 04       		.byte	0x4
 5801 063b 16060000 		.4byte	0x616
 5802 063f 02       		.uleb128 0x2
 5803 0640 970B0000 		.4byte	.LASF100
 5804 0644 02       		.byte	0x2
 5805 0645 2C       		.byte	0x2c
 5806 0646 9D050000 		.4byte	0x59d
 5807 064a 0E       		.uleb128 0xe
 5808 064b 50090000 		.4byte	.LASF101
 5809 064f 18       		.byte	0x18
 5810 0650 02       		.byte	0x2
 5811 0651 34       		.byte	0x34
 5812 0652 9E060000 		.4byte	0x69e
 5813 0656 0B       		.uleb128 0xb
 5814 0657 5B0B0000 		.4byte	.LASF102
 5815 065b 02       		.byte	0x2
 5816 065c 35       		.byte	0x35
 5817 065d 9E060000 		.4byte	0x69e
 5818 0661 00       		.byte	0
 5819 0662 0B       		.uleb128 0xb
 5820 0663 6A030000 		.4byte	.LASF31
 5821 0667 02       		.byte	0x2
 5822 0668 36       		.byte	0x36
 5823 0669 A4060000 		.4byte	0x6a4
 5824 066d 04       		.byte	0x4
 5825 066e 0C       		.uleb128 0xc
 5826 066f 706300   		.ascii	"pc\000"
 5827 0672 02       		.byte	0x2
 5828 0673 37       		.byte	0x37
 5829 0674 CE000000 		.4byte	0xce
 5830 0678 08       		.byte	0x8
 5831 0679 0B       		.uleb128 0xb
 5832 067a B4050000 		.4byte	.LASF33
 5833 067e 02       		.byte	0x2
 5834 067f 38       		.byte	0x38
 5835 0680 AA060000 		.4byte	0x6aa
 5836 0684 0C       		.byte	0xc
 5837 0685 0B       		.uleb128 0xb
 5838 0686 CE0A0000 		.4byte	.LASF35
 5839 068a 02       		.byte	0x2
 5840 068b 39       		.byte	0x39
 5841 068c B0060000 		.4byte	0x6b0
 5842 0690 10       		.byte	0x10
 5843 0691 0B       		.uleb128 0xb
 5844 0692 06010000 		.4byte	.LASF103
 5845 0696 02       		.byte	0x2
 5846 0697 3A       		.byte	0x3a
 5847 0698 B8000000 		.4byte	0xb8
 5848 069c 14       		.byte	0x14
 5849 069d 00       		.byte	0
 5850 069e 06       		.uleb128 0x6
 5851 069f 04       		.byte	0x4
 5852 06a0 4A060000 		.4byte	0x64a
ARM GAS  C:\Users\164\AppData\Local\Temp\ccd4XrSZ.s 			page 151


 5853 06a4 06       		.uleb128 0x6
 5854 06a5 04       		.byte	0x4
 5855 06a6 3F060000 		.4byte	0x63f
 5856 06aa 06       		.uleb128 0x6
 5857 06ab 04       		.byte	0x4
 5858 06ac 43050000 		.4byte	0x543
 5859 06b0 06       		.uleb128 0x6
 5860 06b1 04       		.byte	0x4
 5861 06b2 4E050000 		.4byte	0x54e
 5862 06b6 02       		.uleb128 0x2
 5863 06b7 41040000 		.4byte	.LASF104
 5864 06bb 02       		.byte	0x2
 5865 06bc 3B       		.byte	0x3b
 5866 06bd 4A060000 		.4byte	0x64a
 5867 06c1 06       		.uleb128 0x6
 5868 06c2 04       		.byte	0x4
 5869 06c3 C7060000 		.4byte	0x6c7
 5870 06c7 07       		.uleb128 0x7
 5871 06c8 B8000000 		.4byte	0xb8
 5872 06cc 19       		.uleb128 0x19
 5873 06cd 43050000 		.4byte	0x543
 5874 06d1 DC060000 		.4byte	0x6dc
 5875 06d5 1B       		.uleb128 0x1b
 5876 06d6 F6000000 		.4byte	0xf6
 5877 06da 63       		.byte	0x63
 5878 06db 00       		.byte	0
 5879 06dc 06       		.uleb128 0x6
 5880 06dd 04       		.byte	0x4
 5881 06de B6060000 		.4byte	0x6b6
 5882 06e2 1C       		.uleb128 0x1c
 5883 06e3 AD000000 		.4byte	0xad
 5884 06e7 02       		.uleb128 0x2
 5885 06e8 490A0000 		.4byte	.LASF105
 5886 06ec 02       		.byte	0x2
 5887 06ed 57       		.byte	0x57
 5888 06ee 65010000 		.4byte	0x165
 5889 06f2 1D       		.uleb128 0x1d
 5890 06f3 3D000000 		.4byte	.LASF272
 5891 06f7 01       		.byte	0x1
 5892 06f8 42000000 		.4byte	0x42
 5893 06fc 12       		.byte	0x12
 5894 06fd 35       		.byte	0x35
 5895 06fe 29080000 		.4byte	0x829
 5896 0702 13       		.uleb128 0x13
 5897 0703 22040000 		.4byte	.LASF106
 5898 0707 00       		.byte	0
 5899 0708 13       		.uleb128 0x13
 5900 0709 91090000 		.4byte	.LASF107
 5901 070d 01       		.byte	0x1
 5902 070e 13       		.uleb128 0x13
 5903 070f 8C010000 		.4byte	.LASF108
 5904 0713 02       		.byte	0x2
 5905 0714 13       		.uleb128 0x13
 5906 0715 83010000 		.4byte	.LASF109
 5907 0719 03       		.byte	0x3
 5908 071a 13       		.uleb128 0x13
 5909 071b 21030000 		.4byte	.LASF110
ARM GAS  C:\Users\164\AppData\Local\Temp\ccd4XrSZ.s 			page 152


 5910 071f 04       		.byte	0x4
 5911 0720 13       		.uleb128 0x13
 5912 0721 6F080000 		.4byte	.LASF111
 5913 0725 05       		.byte	0x5
 5914 0726 13       		.uleb128 0x13
 5915 0727 360A0000 		.4byte	.LASF112
 5916 072b 06       		.byte	0x6
 5917 072c 13       		.uleb128 0x13
 5918 072d 9F010000 		.4byte	.LASF113
 5919 0731 07       		.byte	0x7
 5920 0732 13       		.uleb128 0x13
 5921 0733 7A010000 		.4byte	.LASF114
 5922 0737 08       		.byte	0x8
 5923 0738 13       		.uleb128 0x13
 5924 0739 B9070000 		.4byte	.LASF115
 5925 073d 09       		.byte	0x9
 5926 073e 13       		.uleb128 0x13
 5927 073f FD030000 		.4byte	.LASF116
 5928 0743 0A       		.byte	0xa
 5929 0744 13       		.uleb128 0x13
 5930 0745 170A0000 		.4byte	.LASF117
 5931 0749 0D       		.byte	0xd
 5932 074a 13       		.uleb128 0x13
 5933 074b 00000000 		.4byte	.LASF118
 5934 074f 0E       		.byte	0xe
 5935 0750 13       		.uleb128 0x13
 5936 0751 0E080000 		.4byte	.LASF119
 5937 0755 11       		.byte	0x11
 5938 0756 13       		.uleb128 0x13
 5939 0757 6D070000 		.4byte	.LASF120
 5940 075b 12       		.byte	0x12
 5941 075c 13       		.uleb128 0x13
 5942 075d FD040000 		.4byte	.LASF121
 5943 0761 15       		.byte	0x15
 5944 0762 13       		.uleb128 0x13
 5945 0763 74040000 		.4byte	.LASF122
 5946 0767 16       		.byte	0x16
 5947 0768 13       		.uleb128 0x13
 5948 0769 4D050000 		.4byte	.LASF123
 5949 076d 17       		.byte	0x17
 5950 076e 13       		.uleb128 0x13
 5951 076f 2F070000 		.4byte	.LASF124
 5952 0773 18       		.byte	0x18
 5953 0774 13       		.uleb128 0x13
 5954 0775 61050000 		.4byte	.LASF125
 5955 0779 19       		.byte	0x19
 5956 077a 13       		.uleb128 0x13
 5957 077b 6C040000 		.4byte	.LASF126
 5958 077f 20       		.byte	0x20
 5959 0780 13       		.uleb128 0x13
 5960 0781 19070000 		.4byte	.LASF127
 5961 0785 21       		.byte	0x21
 5962 0786 13       		.uleb128 0x13
 5963 0787 E4040000 		.4byte	.LASF128
 5964 078b 23       		.byte	0x23
 5965 078c 13       		.uleb128 0x13
 5966 078d C2060000 		.4byte	.LASF129
ARM GAS  C:\Users\164\AppData\Local\Temp\ccd4XrSZ.s 			page 153


 5967 0791 26       		.byte	0x26
 5968 0792 13       		.uleb128 0x13
 5969 0793 63010000 		.4byte	.LASF130
 5970 0797 29       		.byte	0x29
 5971 0798 13       		.uleb128 0x13
 5972 0799 B1030000 		.4byte	.LASF131
 5973 079d 2B       		.byte	0x2b
 5974 079e 13       		.uleb128 0x13
 5975 079f 3A040000 		.4byte	.LASF132
 5976 07a3 2C       		.byte	0x2c
 5977 07a4 13       		.uleb128 0x13
 5978 07a5 DF080000 		.4byte	.LASF133
 5979 07a9 2D       		.byte	0x2d
 5980 07aa 13       		.uleb128 0x13
 5981 07ab 3B060000 		.4byte	.LASF134
 5982 07af 2E       		.byte	0x2e
 5983 07b0 13       		.uleb128 0x13
 5984 07b1 AC020000 		.4byte	.LASF135
 5985 07b5 2F       		.byte	0x2f
 5986 07b6 13       		.uleb128 0x13
 5987 07b7 E6030000 		.4byte	.LASF136
 5988 07bb 30       		.byte	0x30
 5989 07bc 13       		.uleb128 0x13
 5990 07bd 47010000 		.4byte	.LASF137
 5991 07c1 31       		.byte	0x31
 5992 07c2 13       		.uleb128 0x13
 5993 07c3 87020000 		.4byte	.LASF138
 5994 07c7 32       		.byte	0x32
 5995 07c8 13       		.uleb128 0x13
 5996 07c9 DE040000 		.4byte	.LASF139
 5997 07cd 33       		.byte	0x33
 5998 07ce 13       		.uleb128 0x13
 5999 07cf A9040000 		.4byte	.LASF140
 6000 07d3 34       		.byte	0x34
 6001 07d4 13       		.uleb128 0x13
 6002 07d5 49030000 		.4byte	.LASF141
 6003 07d9 35       		.byte	0x35
 6004 07da 13       		.uleb128 0x13
 6005 07db 35030000 		.4byte	.LASF142
 6006 07df 36       		.byte	0x36
 6007 07e0 13       		.uleb128 0x13
 6008 07e1 7A080000 		.4byte	.LASF143
 6009 07e5 37       		.byte	0x37
 6010 07e6 13       		.uleb128 0x13
 6011 07e7 0D0A0000 		.4byte	.LASF144
 6012 07eb 3D       		.byte	0x3d
 6013 07ec 13       		.uleb128 0x13
 6014 07ed ED020000 		.4byte	.LASF145
 6015 07f1 3E       		.byte	0x3e
 6016 07f2 13       		.uleb128 0x13
 6017 07f3 D7010000 		.4byte	.LASF146
 6018 07f7 3F       		.byte	0x3f
 6019 07f8 13       		.uleb128 0x13
 6020 07f9 AD060000 		.4byte	.LASF147
 6021 07fd 40       		.byte	0x40
 6022 07fe 13       		.uleb128 0x13
 6023 07ff FA090000 		.4byte	.LASF148
ARM GAS  C:\Users\164\AppData\Local\Temp\ccd4XrSZ.s 			page 154


 6024 0803 41       		.byte	0x41
 6025 0804 13       		.uleb128 0x13
 6026 0805 BD020000 		.4byte	.LASF149
 6027 0809 43       		.byte	0x43
 6028 080a 13       		.uleb128 0x13
 6029 080b B8090000 		.4byte	.LASF150
 6030 080f 45       		.byte	0x45
 6031 0810 13       		.uleb128 0x13
 6032 0811 CF070000 		.4byte	.LASF151
 6033 0815 46       		.byte	0x46
 6034 0816 13       		.uleb128 0x13
 6035 0817 57070000 		.4byte	.LASF152
 6036 081b 48       		.byte	0x48
 6037 081c 13       		.uleb128 0x13
 6038 081d 09050000 		.4byte	.LASF153
 6039 0821 4A       		.byte	0x4a
 6040 0822 13       		.uleb128 0x13
 6041 0823 8D060000 		.4byte	.LASF154
 6042 0827 50       		.byte	0x50
 6043 0828 00       		.byte	0
 6044 0829 03       		.uleb128 0x3
 6045 082a 04       		.byte	0x4
 6046 082b 04       		.byte	0x4
 6047 082c 4C060000 		.4byte	.LASF155
 6048 0830 06       		.uleb128 0x6
 6049 0831 04       		.byte	0x4
 6050 0832 36080000 		.4byte	0x836
 6051 0836 1E       		.uleb128 0x1e
 6052 0837 19       		.uleb128 0x19
 6053 0838 E4000000 		.4byte	0xe4
 6054 083c 47080000 		.4byte	0x847
 6055 0840 1B       		.uleb128 0x1b
 6056 0841 F6000000 		.4byte	0xf6
 6057 0845 00       		.byte	0
 6058 0846 00       		.byte	0
 6059 0847 1F       		.uleb128 0x1f
 6060 0848 11050000 		.4byte	.LASF156
 6061 084c 02       		.byte	0x2
 6062 084d 96       		.byte	0x96
 6063 084e CE000000 		.4byte	0xce
 6064 0852 03       		.byte	0x3
 6065 0853 6A080000 		.4byte	0x86a
 6066 0857 20       		.uleb128 0x20
 6067 0858 7300     		.ascii	"s\000"
 6068 085a 02       		.byte	0x2
 6069 085b 96       		.byte	0x96
 6070 085c 30080000 		.4byte	0x830
 6071 0860 21       		.uleb128 0x21
 6072 0861 7800     		.ascii	"x\000"
 6073 0863 02       		.byte	0x2
 6074 0864 9A       		.byte	0x9a
 6075 0865 CE000000 		.4byte	0xce
 6076 0869 00       		.byte	0
 6077 086a 1F       		.uleb128 0x1f
 6078 086b CF050000 		.4byte	.LASF157
 6079 086f 02       		.byte	0x2
 6080 0870 6C       		.byte	0x6c
ARM GAS  C:\Users\164\AppData\Local\Temp\ccd4XrSZ.s 			page 155


 6081 0871 E4000000 		.4byte	0xe4
 6082 0875 03       		.byte	0x3
 6083 0876 8D080000 		.4byte	0x88d
 6084 087a 20       		.uleb128 0x20
 6085 087b 7300     		.ascii	"s\000"
 6086 087d 02       		.byte	0x2
 6087 087e 6C       		.byte	0x6c
 6088 087f 30080000 		.4byte	0x830
 6089 0883 21       		.uleb128 0x21
 6090 0884 7800     		.ascii	"x\000"
 6091 0886 02       		.byte	0x2
 6092 0887 71       		.byte	0x71
 6093 0888 E4000000 		.4byte	0xe4
 6094 088c 00       		.byte	0
 6095 088d 1F       		.uleb128 0x1f
 6096 088e CC090000 		.4byte	.LASF158
 6097 0892 01       		.byte	0x1
 6098 0893 9A       		.byte	0x9a
 6099 0894 9F000000 		.4byte	0x9f
 6100 0898 03       		.byte	0x3
 6101 0899 BE080000 		.4byte	0x8be
 6102 089d 20       		.uleb128 0x20
 6103 089e 766D00   		.ascii	"vm\000"
 6104 08a1 01       		.byte	0x1
 6105 08a2 9A       		.byte	0x9a
 6106 08a3 BE080000 		.4byte	0x8be
 6107 08a7 22       		.uleb128 0x22
 6108 08a8 1A090000 		.4byte	.LASF95
 6109 08ac 01       		.byte	0x1
 6110 08ad 9A       		.byte	0x9a
 6111 08ae E4000000 		.4byte	0xe4
 6112 08b2 22       		.uleb128 0x22
 6113 08b3 E7080000 		.4byte	.LASF32
 6114 08b7 01       		.byte	0x1
 6115 08b8 9A       		.byte	0x9a
 6116 08b9 AA060000 		.4byte	0x6aa
 6117 08bd 00       		.byte	0
 6118 08be 06       		.uleb128 0x6
 6119 08bf 04       		.byte	0x4
 6120 08c0 E7060000 		.4byte	0x6e7
 6121 08c4 1F       		.uleb128 0x1f
 6122 08c5 F5080000 		.4byte	.LASF159
 6123 08c9 01       		.byte	0x1
 6124 08ca DE       		.byte	0xde
 6125 08cb 9F000000 		.4byte	0x9f
 6126 08cf 03       		.byte	0x3
 6127 08d0 FF080000 		.4byte	0x8ff
 6128 08d4 20       		.uleb128 0x20
 6129 08d5 766D00   		.ascii	"vm\000"
 6130 08d8 01       		.byte	0x1
 6131 08d9 DE       		.byte	0xde
 6132 08da BE080000 		.4byte	0x8be
 6133 08de 22       		.uleb128 0x22
 6134 08df 1A090000 		.4byte	.LASF95
 6135 08e3 01       		.byte	0x1
 6136 08e4 DE       		.byte	0xde
 6137 08e5 E4000000 		.4byte	0xe4
ARM GAS  C:\Users\164\AppData\Local\Temp\ccd4XrSZ.s 			page 156


 6138 08e9 22       		.uleb128 0x22
 6139 08ea E7080000 		.4byte	.LASF32
 6140 08ee 01       		.byte	0x1
 6141 08ef DE       		.byte	0xde
 6142 08f0 AA060000 		.4byte	0x6aa
 6143 08f4 21       		.uleb128 0x21
 6144 08f5 726100   		.ascii	"ra\000"
 6145 08f8 01       		.byte	0x1
 6146 08f9 E0       		.byte	0xe0
 6147 08fa 9F000000 		.4byte	0x9f
 6148 08fe 00       		.byte	0
 6149 08ff 23       		.uleb128 0x23
 6150 0900 72030000 		.4byte	.LASF160
 6151 0904 01       		.byte	0x1
 6152 0905 0F01     		.2byte	0x10f
 6153 0907 9F000000 		.4byte	0x9f
 6154 090b 03       		.byte	0x3
 6155 090c 3F090000 		.4byte	0x93f
 6156 0910 24       		.uleb128 0x24
 6157 0911 766D00   		.ascii	"vm\000"
 6158 0914 01       		.byte	0x1
 6159 0915 0F01     		.2byte	0x10f
 6160 0917 BE080000 		.4byte	0x8be
 6161 091b 25       		.uleb128 0x25
 6162 091c 1A090000 		.4byte	.LASF95
 6163 0920 01       		.byte	0x1
 6164 0921 0F01     		.2byte	0x10f
 6165 0923 E4000000 		.4byte	0xe4
 6166 0927 25       		.uleb128 0x25
 6167 0928 E7080000 		.4byte	.LASF32
 6168 092c 01       		.byte	0x1
 6169 092d 0F01     		.2byte	0x10f
 6170 092f AA060000 		.4byte	0x6aa
 6171 0933 26       		.uleb128 0x26
 6172 0934 726100   		.ascii	"ra\000"
 6173 0937 01       		.byte	0x1
 6174 0938 1101     		.2byte	0x111
 6175 093a 9F000000 		.4byte	0x9f
 6176 093e 00       		.byte	0
 6177 093f 23       		.uleb128 0x23
 6178 0940 0C090000 		.4byte	.LASF161
 6179 0944 01       		.byte	0x1
 6180 0945 3C01     		.2byte	0x13c
 6181 0947 9F000000 		.4byte	0x9f
 6182 094b 03       		.byte	0x3
 6183 094c 7F090000 		.4byte	0x97f
 6184 0950 24       		.uleb128 0x24
 6185 0951 766D00   		.ascii	"vm\000"
 6186 0954 01       		.byte	0x1
 6187 0955 3C01     		.2byte	0x13c
 6188 0957 BE080000 		.4byte	0x8be
 6189 095b 25       		.uleb128 0x25
 6190 095c 1A090000 		.4byte	.LASF95
 6191 0960 01       		.byte	0x1
 6192 0961 3C01     		.2byte	0x13c
 6193 0963 E4000000 		.4byte	0xe4
 6194 0967 25       		.uleb128 0x25
ARM GAS  C:\Users\164\AppData\Local\Temp\ccd4XrSZ.s 			page 157


 6195 0968 E7080000 		.4byte	.LASF32
 6196 096c 01       		.byte	0x1
 6197 096d 3C01     		.2byte	0x13c
 6198 096f AA060000 		.4byte	0x6aa
 6199 0973 26       		.uleb128 0x26
 6200 0974 726100   		.ascii	"ra\000"
 6201 0977 01       		.byte	0x1
 6202 0978 3E01     		.2byte	0x13e
 6203 097a 9F000000 		.4byte	0x9f
 6204 097e 00       		.byte	0
 6205 097f 23       		.uleb128 0x23
 6206 0980 EC080000 		.4byte	.LASF162
 6207 0984 01       		.byte	0x1
 6208 0985 5201     		.2byte	0x152
 6209 0987 9F000000 		.4byte	0x9f
 6210 098b 03       		.byte	0x3
 6211 098c BF090000 		.4byte	0x9bf
 6212 0990 24       		.uleb128 0x24
 6213 0991 766D00   		.ascii	"vm\000"
 6214 0994 01       		.byte	0x1
 6215 0995 5201     		.2byte	0x152
 6216 0997 BE080000 		.4byte	0x8be
 6217 099b 25       		.uleb128 0x25
 6218 099c 1A090000 		.4byte	.LASF95
 6219 09a0 01       		.byte	0x1
 6220 09a1 5201     		.2byte	0x152
 6221 09a3 E4000000 		.4byte	0xe4
 6222 09a7 25       		.uleb128 0x25
 6223 09a8 E7080000 		.4byte	.LASF32
 6224 09ac 01       		.byte	0x1
 6225 09ad 5201     		.2byte	0x152
 6226 09af AA060000 		.4byte	0x6aa
 6227 09b3 26       		.uleb128 0x26
 6228 09b4 726100   		.ascii	"ra\000"
 6229 09b7 01       		.byte	0x1
 6230 09b8 5401     		.2byte	0x154
 6231 09ba 9F000000 		.4byte	0x9f
 6232 09be 00       		.byte	0
 6233 09bf 23       		.uleb128 0x23
 6234 09c0 100B0000 		.4byte	.LASF163
 6235 09c4 01       		.byte	0x1
 6236 09c5 4602     		.2byte	0x246
 6237 09c7 9F000000 		.4byte	0x9f
 6238 09cb 03       		.byte	0x3
 6239 09cc F4090000 		.4byte	0x9f4
 6240 09d0 24       		.uleb128 0x24
 6241 09d1 766D00   		.ascii	"vm\000"
 6242 09d4 01       		.byte	0x1
 6243 09d5 4602     		.2byte	0x246
 6244 09d7 BE080000 		.4byte	0x8be
 6245 09db 25       		.uleb128 0x25
 6246 09dc 1A090000 		.4byte	.LASF95
 6247 09e0 01       		.byte	0x1
 6248 09e1 4602     		.2byte	0x246
 6249 09e3 E4000000 		.4byte	0xe4
 6250 09e7 25       		.uleb128 0x25
 6251 09e8 E7080000 		.4byte	.LASF32
ARM GAS  C:\Users\164\AppData\Local\Temp\ccd4XrSZ.s 			page 158


 6252 09ec 01       		.byte	0x1
 6253 09ed 4602     		.2byte	0x246
 6254 09ef AA060000 		.4byte	0x6aa
 6255 09f3 00       		.byte	0
 6256 09f4 23       		.uleb128 0x23
 6257 09f5 2C030000 		.4byte	.LASF164
 6258 09f9 01       		.byte	0x1
 6259 09fa 5802     		.2byte	0x258
 6260 09fc 9F000000 		.4byte	0x9f
 6261 0a00 03       		.byte	0x3
 6262 0a01 290A0000 		.4byte	0xa29
 6263 0a05 24       		.uleb128 0x24
 6264 0a06 766D00   		.ascii	"vm\000"
 6265 0a09 01       		.byte	0x1
 6266 0a0a 5802     		.2byte	0x258
 6267 0a0c BE080000 		.4byte	0x8be
 6268 0a10 25       		.uleb128 0x25
 6269 0a11 1A090000 		.4byte	.LASF95
 6270 0a15 01       		.byte	0x1
 6271 0a16 5802     		.2byte	0x258
 6272 0a18 E4000000 		.4byte	0xe4
 6273 0a1c 25       		.uleb128 0x25
 6274 0a1d E7080000 		.4byte	.LASF32
 6275 0a21 01       		.byte	0x1
 6276 0a22 5802     		.2byte	0x258
 6277 0a24 AA060000 		.4byte	0x6aa
 6278 0a28 00       		.byte	0
 6279 0a29 23       		.uleb128 0x23
 6280 0a2a 200A0000 		.4byte	.LASF165
 6281 0a2e 01       		.byte	0x1
 6282 0a2f 6C02     		.2byte	0x26c
 6283 0a31 9F000000 		.4byte	0x9f
 6284 0a35 03       		.byte	0x3
 6285 0a36 5E0A0000 		.4byte	0xa5e
 6286 0a3a 24       		.uleb128 0x24
 6287 0a3b 766D00   		.ascii	"vm\000"
 6288 0a3e 01       		.byte	0x1
 6289 0a3f 6C02     		.2byte	0x26c
 6290 0a41 BE080000 		.4byte	0x8be
 6291 0a45 25       		.uleb128 0x25
 6292 0a46 1A090000 		.4byte	.LASF95
 6293 0a4a 01       		.byte	0x1
 6294 0a4b 6C02     		.2byte	0x26c
 6295 0a4d E4000000 		.4byte	0xe4
 6296 0a51 25       		.uleb128 0x25
 6297 0a52 E7080000 		.4byte	.LASF32
 6298 0a56 01       		.byte	0x1
 6299 0a57 6C02     		.2byte	0x26c
 6300 0a59 AA060000 		.4byte	0x6aa
 6301 0a5d 00       		.byte	0
 6302 0a5e 23       		.uleb128 0x23
 6303 0a5f 96060000 		.4byte	.LASF166
 6304 0a63 01       		.byte	0x1
 6305 0a64 D302     		.2byte	0x2d3
 6306 0a66 9F000000 		.4byte	0x9f
 6307 0a6a 03       		.byte	0x3
 6308 0a6b 930A0000 		.4byte	0xa93
ARM GAS  C:\Users\164\AppData\Local\Temp\ccd4XrSZ.s 			page 159


 6309 0a6f 24       		.uleb128 0x24
 6310 0a70 766D00   		.ascii	"vm\000"
 6311 0a73 01       		.byte	0x1
 6312 0a74 D302     		.2byte	0x2d3
 6313 0a76 BE080000 		.4byte	0x8be
 6314 0a7a 25       		.uleb128 0x25
 6315 0a7b 1A090000 		.4byte	.LASF95
 6316 0a7f 01       		.byte	0x1
 6317 0a80 D302     		.2byte	0x2d3
 6318 0a82 E4000000 		.4byte	0xe4
 6319 0a86 25       		.uleb128 0x25
 6320 0a87 E7080000 		.4byte	.LASF32
 6321 0a8b 01       		.byte	0x1
 6322 0a8c D302     		.2byte	0x2d3
 6323 0a8e AA060000 		.4byte	0x6aa
 6324 0a92 00       		.byte	0
 6325 0a93 23       		.uleb128 0x23
 6326 0a94 510A0000 		.4byte	.LASF167
 6327 0a98 01       		.byte	0x1
 6328 0a99 EB02     		.2byte	0x2eb
 6329 0a9b 9F000000 		.4byte	0x9f
 6330 0a9f 03       		.byte	0x3
 6331 0aa0 F80A0000 		.4byte	0xaf8
 6332 0aa4 24       		.uleb128 0x24
 6333 0aa5 766D00   		.ascii	"vm\000"
 6334 0aa8 01       		.byte	0x1
 6335 0aa9 EB02     		.2byte	0x2eb
 6336 0aab BE080000 		.4byte	0x8be
 6337 0aaf 25       		.uleb128 0x25
 6338 0ab0 1A090000 		.4byte	.LASF95
 6339 0ab4 01       		.byte	0x1
 6340 0ab5 EB02     		.2byte	0x2eb
 6341 0ab7 E4000000 		.4byte	0xe4
 6342 0abb 25       		.uleb128 0x25
 6343 0abc E7080000 		.4byte	.LASF32
 6344 0ac0 01       		.byte	0x1
 6345 0ac1 EB02     		.2byte	0x2eb
 6346 0ac3 AA060000 		.4byte	0x6aa
 6347 0ac7 27       		.uleb128 0x27
 6348 0ac8 63040000 		.4byte	.LASF168
 6349 0acc 01       		.byte	0x1
 6350 0acd ED02     		.2byte	0x2ed
 6351 0acf DC060000 		.4byte	0x6dc
 6352 0ad3 27       		.uleb128 0x27
 6353 0ad4 170B0000 		.4byte	.LASF169
 6354 0ad8 01       		.byte	0x1
 6355 0ad9 EE02     		.2byte	0x2ee
 6356 0adb E4000000 		.4byte	0xe4
 6357 0adf 27       		.uleb128 0x27
 6358 0ae0 7C0B0000 		.4byte	.LASF170
 6359 0ae4 01       		.byte	0x1
 6360 0ae5 EF02     		.2byte	0x2ef
 6361 0ae7 9F000000 		.4byte	0x9f
 6362 0aeb 27       		.uleb128 0x27
 6363 0aec 6B050000 		.4byte	.LASF171
 6364 0af0 01       		.byte	0x1
 6365 0af1 F002     		.2byte	0x2f0
ARM GAS  C:\Users\164\AppData\Local\Temp\ccd4XrSZ.s 			page 160


 6366 0af3 9F000000 		.4byte	0x9f
 6367 0af7 00       		.byte	0
 6368 0af8 23       		.uleb128 0x23
 6369 0af9 44000000 		.4byte	.LASF172
 6370 0afd 01       		.byte	0x1
 6371 0afe 6206     		.2byte	0x662
 6372 0b00 9F000000 		.4byte	0x9f
 6373 0b04 03       		.byte	0x3
 6374 0b05 380B0000 		.4byte	0xb38
 6375 0b09 24       		.uleb128 0x24
 6376 0b0a 766D00   		.ascii	"vm\000"
 6377 0b0d 01       		.byte	0x1
 6378 0b0e 6206     		.2byte	0x662
 6379 0b10 BE080000 		.4byte	0x8be
 6380 0b14 25       		.uleb128 0x25
 6381 0b15 1A090000 		.4byte	.LASF95
 6382 0b19 01       		.byte	0x1
 6383 0b1a 6206     		.2byte	0x662
 6384 0b1c E4000000 		.4byte	0xe4
 6385 0b20 25       		.uleb128 0x25
 6386 0b21 E7080000 		.4byte	.LASF32
 6387 0b25 01       		.byte	0x1
 6388 0b26 6206     		.2byte	0x662
 6389 0b28 AA060000 		.4byte	0x6aa
 6390 0b2c 26       		.uleb128 0x26
 6391 0b2d 726100   		.ascii	"ra\000"
 6392 0b30 01       		.byte	0x1
 6393 0b31 6406     		.2byte	0x664
 6394 0b33 9F000000 		.4byte	0x9f
 6395 0b37 00       		.byte	0
 6396 0b38 23       		.uleb128 0x23
 6397 0b39 E10A0000 		.4byte	.LASF173
 6398 0b3d 01       		.byte	0x1
 6399 0b3e 7A06     		.2byte	0x67a
 6400 0b40 9F000000 		.4byte	0x9f
 6401 0b44 03       		.byte	0x3
 6402 0b45 790B0000 		.4byte	0xb79
 6403 0b49 24       		.uleb128 0x24
 6404 0b4a 766D00   		.ascii	"vm\000"
 6405 0b4d 01       		.byte	0x1
 6406 0b4e 7A06     		.2byte	0x67a
 6407 0b50 BE080000 		.4byte	0x8be
 6408 0b54 25       		.uleb128 0x25
 6409 0b55 1A090000 		.4byte	.LASF95
 6410 0b59 01       		.byte	0x1
 6411 0b5a 7A06     		.2byte	0x67a
 6412 0b5c E4000000 		.4byte	0xe4
 6413 0b60 25       		.uleb128 0x25
 6414 0b61 E7080000 		.4byte	.LASF32
 6415 0b65 01       		.byte	0x1
 6416 0b66 7A06     		.2byte	0x67a
 6417 0b68 AA060000 		.4byte	0x6aa
 6418 0b6c 28       		.uleb128 0x28
 6419 0b6d 26       		.uleb128 0x26
 6420 0b6e 6900     		.ascii	"i\000"
 6421 0b70 01       		.byte	0x1
 6422 0b71 7D06     		.2byte	0x67d
ARM GAS  C:\Users\164\AppData\Local\Temp\ccd4XrSZ.s 			page 161


 6423 0b73 9F000000 		.4byte	0x9f
 6424 0b77 00       		.byte	0
 6425 0b78 00       		.byte	0
 6426 0b79 29       		.uleb128 0x29
 6427 0b7a 95080000 		.4byte	.LASF273
 6428 0b7e 01       		.byte	0x1
 6429 0b7f 62       		.byte	0x62
 6430 0b80 00000000 		.4byte	.LFB98
 6431 0b84 10000000 		.4byte	.LFE98-.LFB98
 6432 0b88 01       		.uleb128 0x1
 6433 0b89 9C       		.byte	0x9c
 6434 0b8a A20B0000 		.4byte	0xba2
 6435 0b8e 2A       		.uleb128 0x2a
 6436 0b8f 08000000 		.4byte	.LVL0
 6437 0b93 22430000 		.4byte	0x4322
 6438 0b97 2B       		.uleb128 0x2b
 6439 0b98 01       		.uleb128 0x1
 6440 0b99 50       		.byte	0x50
 6441 0b9a 05       		.uleb128 0x5
 6442 0b9b 03       		.byte	0x3
 6443 0b9c 00000000 		.4byte	.LC0
 6444 0ba0 00       		.byte	0
 6445 0ba1 00       		.byte	0
 6446 0ba2 2C       		.uleb128 0x2c
 6447 0ba3 80070000 		.4byte	.LASF174
 6448 0ba7 01       		.byte	0x1
 6449 0ba8 42       		.byte	0x42
 6450 0ba9 06010000 		.4byte	0x106
 6451 0bad 00000000 		.4byte	.LFB96
 6452 0bb1 40000000 		.4byte	.LFE96-.LFB96
 6453 0bb5 01       		.uleb128 0x1
 6454 0bb6 9C       		.byte	0x9c
 6455 0bb7 540C0000 		.4byte	0xc54
 6456 0bbb 2D       		.uleb128 0x2d
 6457 0bbc 7000     		.ascii	"p\000"
 6458 0bbe 01       		.byte	0x1
 6459 0bbf 42       		.byte	0x42
 6460 0bc0 C1060000 		.4byte	0x6c1
 6461 0bc4 00000000 		.4byte	.LLST0
 6462 0bc8 2D       		.uleb128 0x2d
 6463 0bc9 6E00     		.ascii	"n\000"
 6464 0bcb 01       		.byte	0x1
 6465 0bcc 42       		.byte	0x42
 6466 0bcd 9F000000 		.4byte	0x9f
 6467 0bd1 36000000 		.4byte	.LLST1
 6468 0bd5 2E       		.uleb128 0x2e
 6469 0bd6 636E7400 		.ascii	"cnt\000"
 6470 0bda 01       		.byte	0x1
 6471 0bdb 44       		.byte	0x44
 6472 0bdc 9F000000 		.4byte	0x9f
 6473 0be0 54000000 		.4byte	.LLST2
 6474 0be4 2F       		.uleb128 0x2f
 6475 0be5 6A080000 		.4byte	0x86a
 6476 0be9 02000000 		.4byte	.LBB42
 6477 0bed 18000000 		.4byte	.LBE42-.LBB42
 6478 0bf1 01       		.byte	0x1
 6479 0bf2 44       		.byte	0x44
ARM GAS  C:\Users\164\AppData\Local\Temp\ccd4XrSZ.s 			page 162


 6480 0bf3 140C0000 		.4byte	0xc14
 6481 0bf7 30       		.uleb128 0x30
 6482 0bf8 7A080000 		.4byte	0x87a
 6483 0bfc EF000000 		.4byte	.LLST3
 6484 0c00 31       		.uleb128 0x31
 6485 0c01 02000000 		.4byte	.LBB43
 6486 0c05 18000000 		.4byte	.LBE43-.LBB43
 6487 0c09 32       		.uleb128 0x32
 6488 0c0a 83080000 		.4byte	0x883
 6489 0c0e 02010000 		.4byte	.LLST4
 6490 0c12 00       		.byte	0
 6491 0c13 00       		.byte	0
 6492 0c14 31       		.uleb128 0x31
 6493 0c15 22000000 		.4byte	.LBB44
 6494 0c19 10000000 		.4byte	.LBE44-.LBB44
 6495 0c1d 21       		.uleb128 0x21
 6496 0c1e 7300     		.ascii	"s\000"
 6497 0c20 01       		.byte	0x1
 6498 0c21 48       		.byte	0x48
 6499 0c22 CE000000 		.4byte	0xce
 6500 0c26 33       		.uleb128 0x33
 6501 0c27 47080000 		.4byte	0x847
 6502 0c2b 22000000 		.4byte	.LBB45
 6503 0c2f 0A000000 		.4byte	.LBE45-.LBB45
 6504 0c33 01       		.byte	0x1
 6505 0c34 48       		.byte	0x48
 6506 0c35 30       		.uleb128 0x30
 6507 0c36 57080000 		.4byte	0x857
 6508 0c3a 15010000 		.4byte	.LLST5
 6509 0c3e 31       		.uleb128 0x31
 6510 0c3f 22000000 		.4byte	.LBB46
 6511 0c43 0A000000 		.4byte	.LBE46-.LBB46
 6512 0c47 32       		.uleb128 0x32
 6513 0c48 60080000 		.4byte	0x860
 6514 0c4c 28010000 		.4byte	.LLST6
 6515 0c50 00       		.byte	0
 6516 0c51 00       		.byte	0
 6517 0c52 00       		.byte	0
 6518 0c53 00       		.byte	0
 6519 0c54 2C       		.uleb128 0x2c
 6520 0c55 DF010000 		.4byte	.LASF175
 6521 0c59 01       		.byte	0x1
 6522 0c5a 56       		.byte	0x56
 6523 0c5b 06010000 		.4byte	0x106
 6524 0c5f 00000000 		.4byte	.LFB97
 6525 0c63 2C000000 		.4byte	.LFE97-.LFB97
 6526 0c67 01       		.uleb128 0x1
 6527 0c68 9C       		.byte	0x9c
 6528 0c69 CE0C0000 		.4byte	0xcce
 6529 0c6d 2D       		.uleb128 0x2d
 6530 0c6e 766D00   		.ascii	"vm\000"
 6531 0c71 01       		.byte	0x1
 6532 0c72 56       		.byte	0x56
 6533 0c73 5F010000 		.4byte	0x15f
 6534 0c77 3B010000 		.4byte	.LLST7
 6535 0c7b 34       		.uleb128 0x34
 6536 0c7c 1A090000 		.4byte	.LASF95
ARM GAS  C:\Users\164\AppData\Local\Temp\ccd4XrSZ.s 			page 163


 6537 0c80 01       		.byte	0x1
 6538 0c81 58       		.byte	0x58
 6539 0c82 E4000000 		.4byte	0xe4
 6540 0c86 2E       		.uleb128 0x2e
 6541 0c87 726200   		.ascii	"rb\000"
 6542 0c8a 01       		.byte	0x1
 6543 0c8b 59       		.byte	0x59
 6544 0c8c 9F000000 		.4byte	0x9f
 6545 0c90 5C010000 		.4byte	.LLST8
 6546 0c94 2F       		.uleb128 0x2f
 6547 0c95 6A080000 		.4byte	0x86a
 6548 0c99 0A000000 		.4byte	.LBB47
 6549 0c9d 16000000 		.4byte	.LBE47-.LBB47
 6550 0ca1 01       		.byte	0x1
 6551 0ca2 58       		.byte	0x58
 6552 0ca3 C40C0000 		.4byte	0xcc4
 6553 0ca7 30       		.uleb128 0x30
 6554 0ca8 7A080000 		.4byte	0x87a
 6555 0cac 82010000 		.4byte	.LLST9
 6556 0cb0 31       		.uleb128 0x31
 6557 0cb1 0A000000 		.4byte	.LBB48
 6558 0cb5 16000000 		.4byte	.LBE48-.LBB48
 6559 0cb9 32       		.uleb128 0x32
 6560 0cba 83080000 		.4byte	0x883
 6561 0cbe D1010000 		.4byte	.LLST10
 6562 0cc2 00       		.byte	0
 6563 0cc3 00       		.byte	0
 6564 0cc4 35       		.uleb128 0x35
 6565 0cc5 2A000000 		.4byte	.LVL23
 6566 0cc9 A20B0000 		.4byte	0xba2
 6567 0ccd 00       		.byte	0
 6568 0cce 36       		.uleb128 0x36
 6569 0ccf 5C080000 		.4byte	.LASF176
 6570 0cd3 01       		.byte	0x1
 6571 0cd4 6E       		.byte	0x6e
 6572 0cd5 00000000 		.4byte	.LFB99
 6573 0cd9 2E000000 		.4byte	.LFE99-.LFB99
 6574 0cdd 01       		.uleb128 0x1
 6575 0cde 9C       		.byte	0x9c
 6576 0cdf 230D0000 		.4byte	0xd23
 6577 0ce3 2D       		.uleb128 0x2d
 6578 0ce4 766D00   		.ascii	"vm\000"
 6579 0ce7 01       		.byte	0x1
 6580 0ce8 6E       		.byte	0x6e
 6581 0ce9 5F010000 		.4byte	0x15f
 6582 0ced FE010000 		.4byte	.LLST11
 6583 0cf1 37       		.uleb128 0x37
 6584 0cf2 06010000 		.4byte	.LASF103
 6585 0cf6 01       		.byte	0x1
 6586 0cf7 6E       		.byte	0x6e
 6587 0cf8 9F000000 		.4byte	0x9f
 6588 0cfc 1C020000 		.4byte	.LLST12
 6589 0d00 38       		.uleb128 0x38
 6590 0d01 63040000 		.4byte	.LASF168
 6591 0d05 01       		.byte	0x1
 6592 0d06 70       		.byte	0x70
 6593 0d07 DC060000 		.4byte	0x6dc
ARM GAS  C:\Users\164\AppData\Local\Temp\ccd4XrSZ.s 			page 164


 6594 0d0b 01       		.uleb128 0x1
 6595 0d0c 50       		.byte	0x50
 6596 0d0d 2A       		.uleb128 0x2a
 6597 0d0e 0C000000 		.4byte	.LVL26
 6598 0d12 2D430000 		.4byte	0x432d
 6599 0d16 2B       		.uleb128 0x2b
 6600 0d17 01       		.uleb128 0x1
 6601 0d18 50       		.byte	0x50
 6602 0d19 02       		.uleb128 0x2
 6603 0d1a 74       		.byte	0x74
 6604 0d1b 00       		.sleb128 0
 6605 0d1c 2B       		.uleb128 0x2b
 6606 0d1d 01       		.uleb128 0x1
 6607 0d1e 51       		.byte	0x51
 6608 0d1f 01       		.uleb128 0x1
 6609 0d20 48       		.byte	0x48
 6610 0d21 00       		.byte	0
 6611 0d22 00       		.byte	0
 6612 0d23 36       		.uleb128 0x36
 6613 0d24 42080000 		.4byte	.LASF177
 6614 0d28 01       		.byte	0x1
 6615 0d29 81       		.byte	0x81
 6616 0d2a 00000000 		.4byte	.LFB100
 6617 0d2e 26000000 		.4byte	.LFE100-.LFB100
 6618 0d32 01       		.uleb128 0x1
 6619 0d33 9C       		.byte	0x9c
 6620 0d34 670D0000 		.4byte	0xd67
 6621 0d38 2D       		.uleb128 0x2d
 6622 0d39 766D00   		.ascii	"vm\000"
 6623 0d3c 01       		.byte	0x1
 6624 0d3d 81       		.byte	0x81
 6625 0d3e 5F010000 		.4byte	0x15f
 6626 0d42 3A020000 		.4byte	.LLST13
 6627 0d46 39       		.uleb128 0x39
 6628 0d47 63040000 		.4byte	.LASF168
 6629 0d4b 01       		.byte	0x1
 6630 0d4c 83       		.byte	0x83
 6631 0d4d DC060000 		.4byte	0x6dc
 6632 0d51 5B020000 		.4byte	.LLST14
 6633 0d55 2A       		.uleb128 0x2a
 6634 0d56 24000000 		.4byte	.LVL29
 6635 0d5a 38430000 		.4byte	0x4338
 6636 0d5e 2B       		.uleb128 0x2b
 6637 0d5f 01       		.uleb128 0x1
 6638 0d60 50       		.byte	0x50
 6639 0d61 03       		.uleb128 0x3
 6640 0d62 F3       		.byte	0xf3
 6641 0d63 01       		.uleb128 0x1
 6642 0d64 50       		.byte	0x50
 6643 0d65 00       		.byte	0
 6644 0d66 00       		.byte	0
 6645 0d67 1F       		.uleb128 0x1f
 6646 0d68 5D040000 		.4byte	.LASF178
 6647 0d6c 01       		.byte	0x1
 6648 0d6d 2E       		.byte	0x2e
 6649 0d6e 9F000000 		.4byte	0x9f
 6650 0d72 03       		.byte	0x3
ARM GAS  C:\Users\164\AppData\Local\Temp\ccd4XrSZ.s 			page 165


 6651 0d73 8A0D0000 		.4byte	0xd8a
 6652 0d77 20       		.uleb128 0x20
 6653 0d78 7800     		.ascii	"x\000"
 6654 0d7a 01       		.byte	0x1
 6655 0d7b 2E       		.byte	0x2e
 6656 0d7c E4000000 		.4byte	0xe4
 6657 0d80 21       		.uleb128 0x21
 6658 0d81 6E00     		.ascii	"n\000"
 6659 0d83 01       		.byte	0x1
 6660 0d84 32       		.byte	0x32
 6661 0d85 9F000000 		.4byte	0x9f
 6662 0d89 00       		.byte	0
 6663 0d8a 3A       		.uleb128 0x3a
 6664 0d8b 0D010000 		.4byte	.LASF179
 6665 0d8f 01       		.byte	0x1
 6666 0d90 9106     		.2byte	0x691
 6667 0d92 BE080000 		.4byte	0x8be
 6668 0d96 00000000 		.4byte	.LFB148
 6669 0d9a A8000000 		.4byte	.LFE148-.LFB148
 6670 0d9e 01       		.uleb128 0x1
 6671 0d9f 9C       		.byte	0x9c
 6672 0da0 6C0E0000 		.4byte	0xe6c
 6673 0da4 3B       		.uleb128 0x3b
 6674 0da5 A3080000 		.4byte	.LASF180
 6675 0da9 01       		.byte	0x1
 6676 0daa 9106     		.2byte	0x691
 6677 0dac 5F010000 		.4byte	0x15f
 6678 0db0 6E020000 		.4byte	.LLST15
 6679 0db4 3C       		.uleb128 0x3c
 6680 0db5 766D00   		.ascii	"vm\000"
 6681 0db8 01       		.byte	0x1
 6682 0db9 9306     		.2byte	0x693
 6683 0dbb BE080000 		.4byte	0x8be
 6684 0dbf B0020000 		.4byte	.LLST16
 6685 0dc3 3D       		.uleb128 0x3d
 6686 0dc4 C8030000 		.4byte	.LASF30
 6687 0dc8 01       		.byte	0x1
 6688 0dc9 9B06     		.2byte	0x69b
 6689 0dcb 9F000000 		.4byte	0x9f
 6690 0dcf FA020000 		.4byte	.LLST17
 6691 0dd3 3C       		.uleb128 0x3c
 6692 0dd4 6900     		.ascii	"i\000"
 6693 0dd6 01       		.byte	0x1
 6694 0dd7 9C06     		.2byte	0x69c
 6695 0dd9 9F000000 		.4byte	0x9f
 6696 0ddd 3B030000 		.4byte	.LLST18
 6697 0de1 3E       		.uleb128 0x3e
 6698 0de2 1A000000 		.4byte	.LBB52
 6699 0de6 52000000 		.4byte	.LBE52-.LBB52
 6700 0dea 260E0000 		.4byte	0xe26
 6701 0dee 26       		.uleb128 0x26
 6702 0def 6E00     		.ascii	"n\000"
 6703 0df1 01       		.byte	0x1
 6704 0df2 9E06     		.2byte	0x69e
 6705 0df4 9F000000 		.4byte	0x9f
 6706 0df8 3F       		.uleb128 0x3f
 6707 0df9 670D0000 		.4byte	0xd67
ARM GAS  C:\Users\164\AppData\Local\Temp\ccd4XrSZ.s 			page 166


 6708 0dfd 20000000 		.4byte	.LBB53
 6709 0e01 30000000 		.4byte	.LBE53-.LBB53
 6710 0e05 01       		.byte	0x1
 6711 0e06 9E06     		.2byte	0x69e
 6712 0e08 30       		.uleb128 0x30
 6713 0e09 770D0000 		.4byte	0xd77
 6714 0e0d 70030000 		.4byte	.LLST19
 6715 0e11 31       		.uleb128 0x31
 6716 0e12 20000000 		.4byte	.LBB54
 6717 0e16 30000000 		.4byte	.LBE54-.LBB54
 6718 0e1a 32       		.uleb128 0x32
 6719 0e1b 800D0000 		.4byte	0xd80
 6720 0e1f 9C030000 		.4byte	.LLST20
 6721 0e23 00       		.byte	0
 6722 0e24 00       		.byte	0
 6723 0e25 00       		.byte	0
 6724 0e26 40       		.uleb128 0x40
 6725 0e27 0E000000 		.4byte	.LVL33
 6726 0e2b 43430000 		.4byte	0x4343
 6727 0e2f 3B0E0000 		.4byte	0xe3b
 6728 0e33 2B       		.uleb128 0x2b
 6729 0e34 01       		.uleb128 0x1
 6730 0e35 50       		.byte	0x50
 6731 0e36 03       		.uleb128 0x3
 6732 0e37 0A       		.byte	0xa
 6733 0e38 7006     		.2byte	0x670
 6734 0e3a 00       		.byte	0
 6735 0e3b 40       		.uleb128 0x40
 6736 0e3c 7E000000 		.4byte	.LVL57
 6737 0e40 4E430000 		.4byte	0x434e
 6738 0e44 4F0E0000 		.4byte	0xe4f
 6739 0e48 2B       		.uleb128 0x2b
 6740 0e49 01       		.uleb128 0x1
 6741 0e4a 50       		.byte	0x50
 6742 0e4b 02       		.uleb128 0x2
 6743 0e4c 75       		.byte	0x75
 6744 0e4d 00       		.sleb128 0
 6745 0e4e 00       		.byte	0
 6746 0e4f 2A       		.uleb128 0x2a
 6747 0e50 8E000000 		.4byte	.LVL60
 6748 0e54 59430000 		.4byte	0x4359
 6749 0e58 2B       		.uleb128 0x2b
 6750 0e59 01       		.uleb128 0x1
 6751 0e5a 50       		.byte	0x50
 6752 0e5b 02       		.uleb128 0x2
 6753 0e5c 75       		.byte	0x75
 6754 0e5d 00       		.sleb128 0
 6755 0e5e 2B       		.uleb128 0x2b
 6756 0e5f 01       		.uleb128 0x1
 6757 0e60 51       		.byte	0x51
 6758 0e61 01       		.uleb128 0x1
 6759 0e62 30       		.byte	0x30
 6760 0e63 2B       		.uleb128 0x2b
 6761 0e64 01       		.uleb128 0x1
 6762 0e65 52       		.byte	0x52
 6763 0e66 03       		.uleb128 0x3
 6764 0e67 0A       		.byte	0xa
ARM GAS  C:\Users\164\AppData\Local\Temp\ccd4XrSZ.s 			page 167


 6765 0e68 7006     		.2byte	0x670
 6766 0e6a 00       		.byte	0
 6767 0e6b 00       		.byte	0
 6768 0e6c 41       		.uleb128 0x41
 6769 0e6d 3B030000 		.4byte	.LASF181
 6770 0e71 01       		.byte	0x1
 6771 0e72 BA06     		.2byte	0x6ba
 6772 0e74 00000000 		.4byte	.LFB149
 6773 0e78 74000000 		.4byte	.LFE149-.LFB149
 6774 0e7c 01       		.uleb128 0x1
 6775 0e7d 9C       		.byte	0x9c
 6776 0e7e 060F0000 		.4byte	0xf06
 6777 0e82 42       		.uleb128 0x42
 6778 0e83 766D00   		.ascii	"vm\000"
 6779 0e86 01       		.byte	0x1
 6780 0e87 BA06     		.2byte	0x6ba
 6781 0e89 5F010000 		.4byte	0x15f
 6782 0e8d D3030000 		.4byte	.LLST21
 6783 0e91 3C       		.uleb128 0x3c
 6784 0e92 6900     		.ascii	"i\000"
 6785 0e94 01       		.byte	0x1
 6786 0e95 BD06     		.2byte	0x6bd
 6787 0e97 9F000000 		.4byte	0x9f
 6788 0e9b 15040000 		.4byte	.LLST22
 6789 0e9f 3C       		.uleb128 0x3c
 6790 0ea0 6E00     		.ascii	"n\000"
 6791 0ea2 01       		.byte	0x1
 6792 0ea3 BE06     		.2byte	0x6be
 6793 0ea5 9F000000 		.4byte	0x9f
 6794 0ea9 33040000 		.4byte	.LLST23
 6795 0ead 43       		.uleb128 0x43
 6796 0eae 8C000000 		.4byte	.LASF182
 6797 0eb2 160F0000 		.4byte	0xf16
 6798 0eb6 05       		.uleb128 0x5
 6799 0eb7 03       		.byte	0x3
 6800 0eb8 00000000 		.4byte	__func__.7714
 6801 0ebc 40       		.uleb128 0x40
 6802 0ebd 32000000 		.4byte	.LVL71
 6803 0ec1 62430000 		.4byte	0x4362
 6804 0ec5 EC0E0000 		.4byte	0xeec
 6805 0ec9 2B       		.uleb128 0x2b
 6806 0eca 01       		.uleb128 0x1
 6807 0ecb 50       		.byte	0x50
 6808 0ecc 05       		.uleb128 0x5
 6809 0ecd 03       		.byte	0x3
 6810 0ece 28000000 		.4byte	.LC2
 6811 0ed2 2B       		.uleb128 0x2b
 6812 0ed3 01       		.uleb128 0x1
 6813 0ed4 51       		.byte	0x51
 6814 0ed5 03       		.uleb128 0x3
 6815 0ed6 0A       		.byte	0xa
 6816 0ed7 BF06     		.2byte	0x6bf
 6817 0ed9 2B       		.uleb128 0x2b
 6818 0eda 01       		.uleb128 0x1
 6819 0edb 52       		.byte	0x52
 6820 0edc 05       		.uleb128 0x5
 6821 0edd 03       		.byte	0x3
ARM GAS  C:\Users\164\AppData\Local\Temp\ccd4XrSZ.s 			page 168


 6822 0ede 00000000 		.4byte	.LANCHOR1
 6823 0ee2 2B       		.uleb128 0x2b
 6824 0ee3 01       		.uleb128 0x1
 6825 0ee4 53       		.byte	0x53
 6826 0ee5 05       		.uleb128 0x5
 6827 0ee6 03       		.byte	0x3
 6828 0ee7 10000000 		.4byte	.LC1
 6829 0eeb 00       		.byte	0
 6830 0eec 35       		.uleb128 0x35
 6831 0eed 50000000 		.4byte	.LVL74
 6832 0ef1 6D430000 		.4byte	0x436d
 6833 0ef5 2A       		.uleb128 0x2a
 6834 0ef6 5C000000 		.4byte	.LVL75
 6835 0efa 4E430000 		.4byte	0x434e
 6836 0efe 2B       		.uleb128 0x2b
 6837 0eff 01       		.uleb128 0x1
 6838 0f00 50       		.byte	0x50
 6839 0f01 02       		.uleb128 0x2
 6840 0f02 74       		.byte	0x74
 6841 0f03 00       		.sleb128 0
 6842 0f04 00       		.byte	0
 6843 0f05 00       		.byte	0
 6844 0f06 19       		.uleb128 0x19
 6845 0f07 0C010000 		.4byte	0x10c
 6846 0f0b 160F0000 		.4byte	0xf16
 6847 0f0f 1B       		.uleb128 0x1b
 6848 0f10 F6000000 		.4byte	0xf6
 6849 0f14 0D       		.byte	0xd
 6850 0f15 00       		.byte	0
 6851 0f16 07       		.uleb128 0x7
 6852 0f17 060F0000 		.4byte	0xf06
 6853 0f1b 41       		.uleb128 0x41
 6854 0f1c 900A0000 		.4byte	.LASF183
 6855 0f20 01       		.byte	0x1
 6856 0f21 CF06     		.2byte	0x6cf
 6857 0f23 00000000 		.4byte	.LFB150
 6858 0f27 50000000 		.4byte	.LFE150-.LFB150
 6859 0f2b 01       		.uleb128 0x1
 6860 0f2c 9C       		.byte	0x9c
 6861 0f2d 6B0F0000 		.4byte	0xf6b
 6862 0f31 42       		.uleb128 0x42
 6863 0f32 766D00   		.ascii	"vm\000"
 6864 0f35 01       		.byte	0x1
 6865 0f36 CF06     		.2byte	0x6cf
 6866 0f38 5F010000 		.4byte	0x15f
 6867 0f3c 51040000 		.4byte	.LLST24
 6868 0f40 3C       		.uleb128 0x3c
 6869 0f41 6900     		.ascii	"i\000"
 6870 0f43 01       		.byte	0x1
 6871 0f44 D706     		.2byte	0x6d7
 6872 0f46 9F000000 		.4byte	0x9f
 6873 0f4a 7D040000 		.4byte	.LLST25
 6874 0f4e 2A       		.uleb128 0x2a
 6875 0f4f 1A000000 		.4byte	.LVL79
 6876 0f53 59430000 		.4byte	0x4359
 6877 0f57 2B       		.uleb128 0x2b
 6878 0f58 01       		.uleb128 0x1
ARM GAS  C:\Users\164\AppData\Local\Temp\ccd4XrSZ.s 			page 169


 6879 0f59 50       		.byte	0x50
 6880 0f5a 02       		.uleb128 0x2
 6881 0f5b 74       		.byte	0x74
 6882 0f5c 18       		.sleb128 24
 6883 0f5d 2B       		.uleb128 0x2b
 6884 0f5e 01       		.uleb128 0x1
 6885 0f5f 51       		.byte	0x51
 6886 0f60 01       		.uleb128 0x1
 6887 0f61 30       		.byte	0x30
 6888 0f62 2B       		.uleb128 0x2b
 6889 0f63 01       		.uleb128 0x1
 6890 0f64 52       		.byte	0x52
 6891 0f65 03       		.uleb128 0x3
 6892 0f66 0A       		.byte	0xa
 6893 0f67 4006     		.2byte	0x640
 6894 0f69 00       		.byte	0
 6895 0f6a 00       		.byte	0
 6896 0f6b 41       		.uleb128 0x41
 6897 0f6c 5A0A0000 		.4byte	.LASF184
 6898 0f70 01       		.byte	0x1
 6899 0f71 F006     		.2byte	0x6f0
 6900 0f73 00000000 		.4byte	.LFB151
 6901 0f77 10000000 		.4byte	.LFE151-.LFB151
 6902 0f7b 01       		.uleb128 0x1
 6903 0f7c 9C       		.byte	0x9c
 6904 0f7d AA0F0000 		.4byte	0xfaa
 6905 0f81 42       		.uleb128 0x42
 6906 0f82 766D00   		.ascii	"vm\000"
 6907 0f85 01       		.byte	0x1
 6908 0f86 F006     		.2byte	0x6f0
 6909 0f88 5F010000 		.4byte	0x15f
 6910 0f8c 9C040000 		.4byte	.LLST26
 6911 0f90 35       		.uleb128 0x35
 6912 0f91 08000000 		.4byte	.LVL85
 6913 0f95 78430000 		.4byte	0x4378
 6914 0f99 2A       		.uleb128 0x2a
 6915 0f9a 0E000000 		.4byte	.LVL86
 6916 0f9e 83430000 		.4byte	0x4383
 6917 0fa2 2B       		.uleb128 0x2b
 6918 0fa3 01       		.uleb128 0x1
 6919 0fa4 50       		.byte	0x50
 6920 0fa5 02       		.uleb128 0x2
 6921 0fa6 74       		.byte	0x74
 6922 0fa7 00       		.sleb128 0
 6923 0fa8 00       		.byte	0
 6924 0fa9 00       		.byte	0
 6925 0faa 1F       		.uleb128 0x1f
 6926 0fab 98050000 		.4byte	.LASF185
 6927 0faf 01       		.byte	0x1
 6928 0fb0 AB       		.byte	0xab
 6929 0fb1 9F000000 		.4byte	0x9f
 6930 0fb5 03       		.byte	0x3
 6931 0fb6 EF0F0000 		.4byte	0xfef
 6932 0fba 20       		.uleb128 0x20
 6933 0fbb 766D00   		.ascii	"vm\000"
 6934 0fbe 01       		.byte	0x1
 6935 0fbf AB       		.byte	0xab
ARM GAS  C:\Users\164\AppData\Local\Temp\ccd4XrSZ.s 			page 170


 6936 0fc0 BE080000 		.4byte	0x8be
 6937 0fc4 22       		.uleb128 0x22
 6938 0fc5 1A090000 		.4byte	.LASF95
 6939 0fc9 01       		.byte	0x1
 6940 0fca AB       		.byte	0xab
 6941 0fcb E4000000 		.4byte	0xe4
 6942 0fcf 22       		.uleb128 0x22
 6943 0fd0 E7080000 		.4byte	.LASF32
 6944 0fd4 01       		.byte	0x1
 6945 0fd5 AB       		.byte	0xab
 6946 0fd6 AA060000 		.4byte	0x6aa
 6947 0fda 21       		.uleb128 0x21
 6948 0fdb 726100   		.ascii	"ra\000"
 6949 0fde 01       		.byte	0x1
 6950 0fdf AD       		.byte	0xad
 6951 0fe0 9F000000 		.4byte	0x9f
 6952 0fe4 21       		.uleb128 0x21
 6953 0fe5 726200   		.ascii	"rb\000"
 6954 0fe8 01       		.byte	0x1
 6955 0fe9 AE       		.byte	0xae
 6956 0fea 9F000000 		.4byte	0x9f
 6957 0fee 00       		.byte	0
 6958 0fef 1F       		.uleb128 0x1f
 6959 0ff0 03090000 		.4byte	.LASF186
 6960 0ff4 01       		.byte	0x1
 6961 0ff5 C3       		.byte	0xc3
 6962 0ff6 9F000000 		.4byte	0x9f
 6963 0ffa 03       		.byte	0x3
 6964 0ffb 3F100000 		.4byte	0x103f
 6965 0fff 20       		.uleb128 0x20
 6966 1000 766D00   		.ascii	"vm\000"
 6967 1003 01       		.byte	0x1
 6968 1004 C3       		.byte	0xc3
 6969 1005 BE080000 		.4byte	0x8be
 6970 1009 22       		.uleb128 0x22
 6971 100a 1A090000 		.4byte	.LASF95
 6972 100e 01       		.byte	0x1
 6973 100f C3       		.byte	0xc3
 6974 1010 E4000000 		.4byte	0xe4
 6975 1014 22       		.uleb128 0x22
 6976 1015 E7080000 		.4byte	.LASF32
 6977 1019 01       		.byte	0x1
 6978 101a C3       		.byte	0xc3
 6979 101b AA060000 		.4byte	0x6aa
 6980 101f 21       		.uleb128 0x21
 6981 1020 726100   		.ascii	"ra\000"
 6982 1023 01       		.byte	0x1
 6983 1024 C5       		.byte	0xc5
 6984 1025 9F000000 		.4byte	0x9f
 6985 1029 21       		.uleb128 0x21
 6986 102a 726200   		.ascii	"rb\000"
 6987 102d 01       		.byte	0x1
 6988 102e C6       		.byte	0xc6
 6989 102f 9F000000 		.4byte	0x9f
 6990 1033 34       		.uleb128 0x34
 6991 1034 AB050000 		.4byte	.LASF187
 6992 1038 01       		.byte	0x1
ARM GAS  C:\Users\164\AppData\Local\Temp\ccd4XrSZ.s 			page 171


 6993 1039 CC       		.byte	0xcc
 6994 103a 33060000 		.4byte	0x633
 6995 103e 00       		.byte	0
 6996 103f 1F       		.uleb128 0x1f
 6997 1040 61090000 		.4byte	.LASF188
 6998 1044 01       		.byte	0x1
 6999 1045 F5       		.byte	0xf5
 7000 1046 9F000000 		.4byte	0x9f
 7001 104a 03       		.byte	0x3
 7002 104b 9A100000 		.4byte	0x109a
 7003 104f 20       		.uleb128 0x20
 7004 1050 766D00   		.ascii	"vm\000"
 7005 1053 01       		.byte	0x1
 7006 1054 F5       		.byte	0xf5
 7007 1055 BE080000 		.4byte	0x8be
 7008 1059 22       		.uleb128 0x22
 7009 105a 1A090000 		.4byte	.LASF95
 7010 105e 01       		.byte	0x1
 7011 105f F5       		.byte	0xf5
 7012 1060 E4000000 		.4byte	0xe4
 7013 1064 22       		.uleb128 0x22
 7014 1065 E7080000 		.4byte	.LASF32
 7015 1069 01       		.byte	0x1
 7016 106a F5       		.byte	0xf5
 7017 106b AA060000 		.4byte	0x6aa
 7018 106f 21       		.uleb128 0x21
 7019 1070 726100   		.ascii	"ra\000"
 7020 1073 01       		.byte	0x1
 7021 1074 F7       		.byte	0xf7
 7022 1075 9F000000 		.4byte	0x9f
 7023 1079 21       		.uleb128 0x21
 7024 107a 726200   		.ascii	"rb\000"
 7025 107d 01       		.byte	0x1
 7026 107e F8       		.byte	0xf8
 7027 107f 9F000000 		.4byte	0x9f
 7028 1083 34       		.uleb128 0x34
 7029 1084 47090000 		.4byte	.LASF189
 7030 1088 01       		.byte	0x1
 7031 1089 F9       		.byte	0xf9
 7032 108a 06010000 		.4byte	0x106
 7033 108e 34       		.uleb128 0x34
 7034 108f CB000000 		.4byte	.LASF64
 7035 1093 01       		.byte	0x1
 7036 1094 FA       		.byte	0xfa
 7037 1095 2E010000 		.4byte	0x12e
 7038 1099 00       		.byte	0
 7039 109a 23       		.uleb128 0x23
 7040 109b 7D030000 		.4byte	.LASF190
 7041 109f 01       		.byte	0x1
 7042 10a0 2501     		.2byte	0x125
 7043 10a2 9F000000 		.4byte	0x9f
 7044 10a6 03       		.byte	0x3
 7045 10a7 DA100000 		.4byte	0x10da
 7046 10ab 24       		.uleb128 0x24
 7047 10ac 766D00   		.ascii	"vm\000"
 7048 10af 01       		.byte	0x1
 7049 10b0 2501     		.2byte	0x125
ARM GAS  C:\Users\164\AppData\Local\Temp\ccd4XrSZ.s 			page 172


 7050 10b2 BE080000 		.4byte	0x8be
 7051 10b6 25       		.uleb128 0x25
 7052 10b7 1A090000 		.4byte	.LASF95
 7053 10bb 01       		.byte	0x1
 7054 10bc 2501     		.2byte	0x125
 7055 10be E4000000 		.4byte	0xe4
 7056 10c2 25       		.uleb128 0x25
 7057 10c3 E7080000 		.4byte	.LASF32
 7058 10c7 01       		.byte	0x1
 7059 10c8 2501     		.2byte	0x125
 7060 10ca AA060000 		.4byte	0x6aa
 7061 10ce 26       		.uleb128 0x26
 7062 10cf 726100   		.ascii	"ra\000"
 7063 10d2 01       		.byte	0x1
 7064 10d3 2701     		.2byte	0x127
 7065 10d5 9F000000 		.4byte	0x9f
 7066 10d9 00       		.byte	0
 7067 10da 23       		.uleb128 0x23
 7068 10db 2E090000 		.4byte	.LASF191
 7069 10df 01       		.byte	0x1
 7070 10e0 6801     		.2byte	0x168
 7071 10e2 9F000000 		.4byte	0x9f
 7072 10e6 03       		.byte	0x3
 7073 10e7 3D110000 		.4byte	0x113d
 7074 10eb 24       		.uleb128 0x24
 7075 10ec 766D00   		.ascii	"vm\000"
 7076 10ef 01       		.byte	0x1
 7077 10f0 6801     		.2byte	0x168
 7078 10f2 BE080000 		.4byte	0x8be
 7079 10f6 25       		.uleb128 0x25
 7080 10f7 1A090000 		.4byte	.LASF95
 7081 10fb 01       		.byte	0x1
 7082 10fc 6801     		.2byte	0x168
 7083 10fe E4000000 		.4byte	0xe4
 7084 1102 25       		.uleb128 0x25
 7085 1103 E7080000 		.4byte	.LASF32
 7086 1107 01       		.byte	0x1
 7087 1108 6801     		.2byte	0x168
 7088 110a AA060000 		.4byte	0x6aa
 7089 110e 26       		.uleb128 0x26
 7090 110f 726100   		.ascii	"ra\000"
 7091 1112 01       		.byte	0x1
 7092 1113 6A01     		.2byte	0x16a
 7093 1115 9F000000 		.4byte	0x9f
 7094 1119 26       		.uleb128 0x26
 7095 111a 726200   		.ascii	"rb\000"
 7096 111d 01       		.byte	0x1
 7097 111e 6B01     		.2byte	0x16b
 7098 1120 9F000000 		.4byte	0x9f
 7099 1124 27       		.uleb128 0x27
 7100 1125 47090000 		.4byte	.LASF189
 7101 1129 01       		.byte	0x1
 7102 112a 6C01     		.2byte	0x16c
 7103 112c 06010000 		.4byte	0x106
 7104 1130 27       		.uleb128 0x27
 7105 1131 CB000000 		.4byte	.LASF64
 7106 1135 01       		.byte	0x1
ARM GAS  C:\Users\164\AppData\Local\Temp\ccd4XrSZ.s 			page 173


 7107 1136 6D01     		.2byte	0x16d
 7108 1138 2E010000 		.4byte	0x12e
 7109 113c 00       		.byte	0
 7110 113d 23       		.uleb128 0x23
 7111 113e 1F050000 		.4byte	.LASF192
 7112 1142 01       		.byte	0x1
 7113 1143 8101     		.2byte	0x181
 7114 1145 9F000000 		.4byte	0x9f
 7115 1149 03       		.byte	0x3
 7116 114a A0110000 		.4byte	0x11a0
 7117 114e 24       		.uleb128 0x24
 7118 114f 766D00   		.ascii	"vm\000"
 7119 1152 01       		.byte	0x1
 7120 1153 8101     		.2byte	0x181
 7121 1155 BE080000 		.4byte	0x8be
 7122 1159 25       		.uleb128 0x25
 7123 115a 1A090000 		.4byte	.LASF95
 7124 115e 01       		.byte	0x1
 7125 115f 8101     		.2byte	0x181
 7126 1161 E4000000 		.4byte	0xe4
 7127 1165 25       		.uleb128 0x25
 7128 1166 E7080000 		.4byte	.LASF32
 7129 116a 01       		.byte	0x1
 7130 116b 8101     		.2byte	0x181
 7131 116d AA060000 		.4byte	0x6aa
 7132 1171 26       		.uleb128 0x26
 7133 1172 726100   		.ascii	"ra\000"
 7134 1175 01       		.byte	0x1
 7135 1176 8301     		.2byte	0x183
 7136 1178 9F000000 		.4byte	0x9f
 7137 117c 26       		.uleb128 0x26
 7138 117d 726200   		.ascii	"rb\000"
 7139 1180 01       		.byte	0x1
 7140 1181 8401     		.2byte	0x184
 7141 1183 9F000000 		.4byte	0x9f
 7142 1187 27       		.uleb128 0x27
 7143 1188 47090000 		.4byte	.LASF189
 7144 118c 01       		.byte	0x1
 7145 118d 8501     		.2byte	0x185
 7146 118f 06010000 		.4byte	0x106
 7147 1193 27       		.uleb128 0x27
 7148 1194 CB000000 		.4byte	.LASF64
 7149 1198 01       		.byte	0x1
 7150 1199 8601     		.2byte	0x186
 7151 119b 2E010000 		.4byte	0x12e
 7152 119f 00       		.byte	0
 7153 11a0 23       		.uleb128 0x23
 7154 11a1 BF010000 		.4byte	.LASF193
 7155 11a5 01       		.byte	0x1
 7156 11a6 9801     		.2byte	0x198
 7157 11a8 9F000000 		.4byte	0x9f
 7158 11ac 03       		.byte	0x3
 7159 11ad 0F120000 		.4byte	0x120f
 7160 11b1 24       		.uleb128 0x24
 7161 11b2 766D00   		.ascii	"vm\000"
 7162 11b5 01       		.byte	0x1
 7163 11b6 9801     		.2byte	0x198
ARM GAS  C:\Users\164\AppData\Local\Temp\ccd4XrSZ.s 			page 174


 7164 11b8 BE080000 		.4byte	0x8be
 7165 11bc 25       		.uleb128 0x25
 7166 11bd 1A090000 		.4byte	.LASF95
 7167 11c1 01       		.byte	0x1
 7168 11c2 9801     		.2byte	0x198
 7169 11c4 E4000000 		.4byte	0xe4
 7170 11c8 25       		.uleb128 0x25
 7171 11c9 E7080000 		.4byte	.LASF32
 7172 11cd 01       		.byte	0x1
 7173 11ce 9801     		.2byte	0x198
 7174 11d0 AA060000 		.4byte	0x6aa
 7175 11d4 26       		.uleb128 0x26
 7176 11d5 726100   		.ascii	"ra\000"
 7177 11d8 01       		.byte	0x1
 7178 11d9 9A01     		.2byte	0x19a
 7179 11db 9F000000 		.4byte	0x9f
 7180 11df 26       		.uleb128 0x26
 7181 11e0 726200   		.ascii	"rb\000"
 7182 11e3 01       		.byte	0x1
 7183 11e4 9B01     		.2byte	0x19b
 7184 11e6 9F000000 		.4byte	0x9f
 7185 11ea 27       		.uleb128 0x27
 7186 11eb 47090000 		.4byte	.LASF189
 7187 11ef 01       		.byte	0x1
 7188 11f0 9D01     		.2byte	0x19d
 7189 11f2 06010000 		.4byte	0x106
 7190 11f6 27       		.uleb128 0x27
 7191 11f7 CB000000 		.4byte	.LASF64
 7192 11fb 01       		.byte	0x1
 7193 11fc 9E01     		.2byte	0x19e
 7194 11fe 2E010000 		.4byte	0x12e
 7195 1202 26       		.uleb128 0x26
 7196 1203 76616C00 		.ascii	"val\000"
 7197 1207 01       		.byte	0x1
 7198 1208 A001     		.2byte	0x1a0
 7199 120a 43050000 		.4byte	0x543
 7200 120e 00       		.byte	0
 7201 120f 23       		.uleb128 0x23
 7202 1210 4E070000 		.4byte	.LASF194
 7203 1214 01       		.byte	0x1
 7204 1215 B401     		.2byte	0x1b4
 7205 1217 9F000000 		.4byte	0x9f
 7206 121b 03       		.byte	0x3
 7207 121c 72120000 		.4byte	0x1272
 7208 1220 24       		.uleb128 0x24
 7209 1221 766D00   		.ascii	"vm\000"
 7210 1224 01       		.byte	0x1
 7211 1225 B401     		.2byte	0x1b4
 7212 1227 BE080000 		.4byte	0x8be
 7213 122b 25       		.uleb128 0x25
 7214 122c 1A090000 		.4byte	.LASF95
 7215 1230 01       		.byte	0x1
 7216 1231 B401     		.2byte	0x1b4
 7217 1233 E4000000 		.4byte	0xe4
 7218 1237 25       		.uleb128 0x25
 7219 1238 E7080000 		.4byte	.LASF32
 7220 123c 01       		.byte	0x1
ARM GAS  C:\Users\164\AppData\Local\Temp\ccd4XrSZ.s 			page 175


 7221 123d B401     		.2byte	0x1b4
 7222 123f AA060000 		.4byte	0x6aa
 7223 1243 26       		.uleb128 0x26
 7224 1244 726100   		.ascii	"ra\000"
 7225 1247 01       		.byte	0x1
 7226 1248 B601     		.2byte	0x1b6
 7227 124a 9F000000 		.4byte	0x9f
 7228 124e 26       		.uleb128 0x26
 7229 124f 726200   		.ascii	"rb\000"
 7230 1252 01       		.byte	0x1
 7231 1253 B701     		.2byte	0x1b7
 7232 1255 9F000000 		.4byte	0x9f
 7233 1259 27       		.uleb128 0x27
 7234 125a 47090000 		.4byte	.LASF189
 7235 125e 01       		.byte	0x1
 7236 125f B901     		.2byte	0x1b9
 7237 1261 06010000 		.4byte	0x106
 7238 1265 27       		.uleb128 0x27
 7239 1266 CB000000 		.4byte	.LASF64
 7240 126a 01       		.byte	0x1
 7241 126b BA01     		.2byte	0x1ba
 7242 126d 2E010000 		.4byte	0x12e
 7243 1271 00       		.byte	0
 7244 1272 23       		.uleb128 0x23
 7245 1273 1A010000 		.4byte	.LASF195
 7246 1277 01       		.byte	0x1
 7247 1278 CD01     		.2byte	0x1cd
 7248 127a 9F000000 		.4byte	0x9f
 7249 127e 03       		.byte	0x3
 7250 127f D5120000 		.4byte	0x12d5
 7251 1283 24       		.uleb128 0x24
 7252 1284 766D00   		.ascii	"vm\000"
 7253 1287 01       		.byte	0x1
 7254 1288 CD01     		.2byte	0x1cd
 7255 128a BE080000 		.4byte	0x8be
 7256 128e 25       		.uleb128 0x25
 7257 128f 1A090000 		.4byte	.LASF95
 7258 1293 01       		.byte	0x1
 7259 1294 CD01     		.2byte	0x1cd
 7260 1296 E4000000 		.4byte	0xe4
 7261 129a 25       		.uleb128 0x25
 7262 129b E7080000 		.4byte	.LASF32
 7263 129f 01       		.byte	0x1
 7264 12a0 CD01     		.2byte	0x1cd
 7265 12a2 AA060000 		.4byte	0x6aa
 7266 12a6 26       		.uleb128 0x26
 7267 12a7 726100   		.ascii	"ra\000"
 7268 12aa 01       		.byte	0x1
 7269 12ab CF01     		.2byte	0x1cf
 7270 12ad 9F000000 		.4byte	0x9f
 7271 12b1 26       		.uleb128 0x26
 7272 12b2 726200   		.ascii	"rb\000"
 7273 12b5 01       		.byte	0x1
 7274 12b6 D001     		.2byte	0x1d0
 7275 12b8 9F000000 		.4byte	0x9f
 7276 12bc 27       		.uleb128 0x27
 7277 12bd 47090000 		.4byte	.LASF189
ARM GAS  C:\Users\164\AppData\Local\Temp\ccd4XrSZ.s 			page 176


 7278 12c1 01       		.byte	0x1
 7279 12c2 D101     		.2byte	0x1d1
 7280 12c4 06010000 		.4byte	0x106
 7281 12c8 27       		.uleb128 0x27
 7282 12c9 CB000000 		.4byte	.LASF64
 7283 12cd 01       		.byte	0x1
 7284 12ce D201     		.2byte	0x1d2
 7285 12d0 2E010000 		.4byte	0x12e
 7286 12d4 00       		.byte	0
 7287 12d5 23       		.uleb128 0x23
 7288 12d6 9A000000 		.4byte	.LASF196
 7289 12da 01       		.byte	0x1
 7290 12db E701     		.2byte	0x1e7
 7291 12dd 9F000000 		.4byte	0x9f
 7292 12e1 03       		.byte	0x3
 7293 12e2 38130000 		.4byte	0x1338
 7294 12e6 24       		.uleb128 0x24
 7295 12e7 766D00   		.ascii	"vm\000"
 7296 12ea 01       		.byte	0x1
 7297 12eb E701     		.2byte	0x1e7
 7298 12ed BE080000 		.4byte	0x8be
 7299 12f1 25       		.uleb128 0x25
 7300 12f2 1A090000 		.4byte	.LASF95
 7301 12f6 01       		.byte	0x1
 7302 12f7 E701     		.2byte	0x1e7
 7303 12f9 E4000000 		.4byte	0xe4
 7304 12fd 25       		.uleb128 0x25
 7305 12fe E7080000 		.4byte	.LASF32
 7306 1302 01       		.byte	0x1
 7307 1303 E701     		.2byte	0x1e7
 7308 1305 AA060000 		.4byte	0x6aa
 7309 1309 26       		.uleb128 0x26
 7310 130a 726100   		.ascii	"ra\000"
 7311 130d 01       		.byte	0x1
 7312 130e E801     		.2byte	0x1e8
 7313 1310 9F000000 		.4byte	0x9f
 7314 1314 26       		.uleb128 0x26
 7315 1315 726200   		.ascii	"rb\000"
 7316 1318 01       		.byte	0x1
 7317 1319 E901     		.2byte	0x1e9
 7318 131b 9F000000 		.4byte	0x9f
 7319 131f 27       		.uleb128 0x27
 7320 1320 47090000 		.4byte	.LASF189
 7321 1324 01       		.byte	0x1
 7322 1325 EA01     		.2byte	0x1ea
 7323 1327 06010000 		.4byte	0x106
 7324 132b 27       		.uleb128 0x27
 7325 132c CB000000 		.4byte	.LASF64
 7326 1330 01       		.byte	0x1
 7327 1331 EB01     		.2byte	0x1eb
 7328 1333 2E010000 		.4byte	0x12e
 7329 1337 00       		.byte	0
 7330 1338 23       		.uleb128 0x23
 7331 1339 C0090000 		.4byte	.LASF197
 7332 133d 01       		.byte	0x1
 7333 133e FE01     		.2byte	0x1fe
 7334 1340 9F000000 		.4byte	0x9f
ARM GAS  C:\Users\164\AppData\Local\Temp\ccd4XrSZ.s 			page 177


 7335 1344 03       		.byte	0x3
 7336 1345 B0130000 		.4byte	0x13b0
 7337 1349 24       		.uleb128 0x24
 7338 134a 766D00   		.ascii	"vm\000"
 7339 134d 01       		.byte	0x1
 7340 134e FE01     		.2byte	0x1fe
 7341 1350 BE080000 		.4byte	0x8be
 7342 1354 25       		.uleb128 0x25
 7343 1355 1A090000 		.4byte	.LASF95
 7344 1359 01       		.byte	0x1
 7345 135a FE01     		.2byte	0x1fe
 7346 135c E4000000 		.4byte	0xe4
 7347 1360 25       		.uleb128 0x25
 7348 1361 E7080000 		.4byte	.LASF32
 7349 1365 01       		.byte	0x1
 7350 1366 FE01     		.2byte	0x1fe
 7351 1368 AA060000 		.4byte	0x6aa
 7352 136c 26       		.uleb128 0x26
 7353 136d 726100   		.ascii	"ra\000"
 7354 1370 01       		.byte	0x1
 7355 1371 0002     		.2byte	0x200
 7356 1373 9F000000 		.4byte	0x9f
 7357 1377 26       		.uleb128 0x26
 7358 1378 726200   		.ascii	"rb\000"
 7359 137b 01       		.byte	0x1
 7360 137c 0102     		.2byte	0x201
 7361 137e 9F000000 		.4byte	0x9f
 7362 1382 26       		.uleb128 0x26
 7363 1383 726300   		.ascii	"rc\000"
 7364 1386 01       		.byte	0x1
 7365 1387 0202     		.2byte	0x202
 7366 1389 9F000000 		.4byte	0x9f
 7367 138d 27       		.uleb128 0x27
 7368 138e 63040000 		.4byte	.LASF168
 7369 1392 01       		.byte	0x1
 7370 1393 0302     		.2byte	0x203
 7371 1395 DC060000 		.4byte	0x6dc
 7372 1399 26       		.uleb128 0x26
 7373 139a 6E00     		.ascii	"n\000"
 7374 139c 01       		.byte	0x1
 7375 139d 0602     		.2byte	0x206
 7376 139f 9F000000 		.4byte	0x9f
 7377 13a3 27       		.uleb128 0x27
 7378 13a4 59090000 		.4byte	.LASF198
 7379 13a8 01       		.byte	0x1
 7380 13a9 0C02     		.2byte	0x20c
 7381 13ab AA060000 		.4byte	0x6aa
 7382 13af 00       		.byte	0
 7383 13b0 23       		.uleb128 0x23
 7384 13b1 3B090000 		.4byte	.LASF199
 7385 13b5 01       		.byte	0x1
 7386 13b6 2202     		.2byte	0x222
 7387 13b8 9F000000 		.4byte	0x9f
 7388 13bc 03       		.byte	0x3
 7389 13bd 28140000 		.4byte	0x1428
 7390 13c1 24       		.uleb128 0x24
 7391 13c2 766D00   		.ascii	"vm\000"
ARM GAS  C:\Users\164\AppData\Local\Temp\ccd4XrSZ.s 			page 178


 7392 13c5 01       		.byte	0x1
 7393 13c6 2202     		.2byte	0x222
 7394 13c8 BE080000 		.4byte	0x8be
 7395 13cc 25       		.uleb128 0x25
 7396 13cd 1A090000 		.4byte	.LASF95
 7397 13d1 01       		.byte	0x1
 7398 13d2 2202     		.2byte	0x222
 7399 13d4 E4000000 		.4byte	0xe4
 7400 13d8 25       		.uleb128 0x25
 7401 13d9 E7080000 		.4byte	.LASF32
 7402 13dd 01       		.byte	0x1
 7403 13de 2202     		.2byte	0x222
 7404 13e0 AA060000 		.4byte	0x6aa
 7405 13e4 26       		.uleb128 0x26
 7406 13e5 726100   		.ascii	"ra\000"
 7407 13e8 01       		.byte	0x1
 7408 13e9 2402     		.2byte	0x224
 7409 13eb 9F000000 		.4byte	0x9f
 7410 13ef 26       		.uleb128 0x26
 7411 13f0 726200   		.ascii	"rb\000"
 7412 13f3 01       		.byte	0x1
 7413 13f4 2502     		.2byte	0x225
 7414 13f6 9F000000 		.4byte	0x9f
 7415 13fa 26       		.uleb128 0x26
 7416 13fb 726300   		.ascii	"rc\000"
 7417 13fe 01       		.byte	0x1
 7418 13ff 2602     		.2byte	0x226
 7419 1401 9F000000 		.4byte	0x9f
 7420 1405 27       		.uleb128 0x27
 7421 1406 63040000 		.4byte	.LASF168
 7422 140a 01       		.byte	0x1
 7423 140b 2702     		.2byte	0x227
 7424 140d DC060000 		.4byte	0x6dc
 7425 1411 26       		.uleb128 0x26
 7426 1412 6E00     		.ascii	"n\000"
 7427 1414 01       		.byte	0x1
 7428 1415 2A02     		.2byte	0x22a
 7429 1417 9F000000 		.4byte	0x9f
 7430 141b 27       		.uleb128 0x27
 7431 141c 59090000 		.4byte	.LASF198
 7432 1420 01       		.byte	0x1
 7433 1421 3002     		.2byte	0x230
 7434 1423 AA060000 		.4byte	0x6aa
 7435 1427 00       		.byte	0
 7436 1428 23       		.uleb128 0x23
 7437 1429 12030000 		.4byte	.LASF200
 7438 142d 01       		.byte	0x1
 7439 142e 8102     		.2byte	0x281
 7440 1430 9F000000 		.4byte	0x9f
 7441 1434 03       		.byte	0x3
 7442 1435 E1140000 		.4byte	0x14e1
 7443 1439 24       		.uleb128 0x24
 7444 143a 766D00   		.ascii	"vm\000"
 7445 143d 01       		.byte	0x1
 7446 143e 8102     		.2byte	0x281
 7447 1440 BE080000 		.4byte	0x8be
 7448 1444 25       		.uleb128 0x25
ARM GAS  C:\Users\164\AppData\Local\Temp\ccd4XrSZ.s 			page 179


 7449 1445 1A090000 		.4byte	.LASF95
 7450 1449 01       		.byte	0x1
 7451 144a 8102     		.2byte	0x281
 7452 144c E4000000 		.4byte	0xe4
 7453 1450 25       		.uleb128 0x25
 7454 1451 E7080000 		.4byte	.LASF32
 7455 1455 01       		.byte	0x1
 7456 1456 8102     		.2byte	0x281
 7457 1458 AA060000 		.4byte	0x6aa
 7458 145c 26       		.uleb128 0x26
 7459 145d 726100   		.ascii	"ra\000"
 7460 1460 01       		.byte	0x1
 7461 1461 8302     		.2byte	0x283
 7462 1463 9F000000 		.4byte	0x9f
 7463 1467 26       		.uleb128 0x26
 7464 1468 726200   		.ascii	"rb\000"
 7465 146b 01       		.byte	0x1
 7466 146c 8402     		.2byte	0x284
 7467 146e 9F000000 		.4byte	0x9f
 7468 1472 26       		.uleb128 0x26
 7469 1473 726300   		.ascii	"rc\000"
 7470 1476 01       		.byte	0x1
 7471 1477 8502     		.2byte	0x285
 7472 1479 9F000000 		.4byte	0x9f
 7473 147d 27       		.uleb128 0x27
 7474 147e 49070000 		.4byte	.LASF201
 7475 1482 01       		.byte	0x1
 7476 1483 8602     		.2byte	0x286
 7477 1485 43050000 		.4byte	0x543
 7478 1489 27       		.uleb128 0x27
 7479 148a A6000000 		.4byte	.LASF202
 7480 148e 01       		.byte	0x1
 7481 148f 8902     		.2byte	0x289
 7482 1491 9F000000 		.4byte	0x9f
 7483 1495 27       		.uleb128 0x27
 7484 1496 47090000 		.4byte	.LASF189
 7485 149a 01       		.byte	0x1
 7486 149b 9F02     		.2byte	0x29f
 7487 149d 06010000 		.4byte	0x106
 7488 14a1 27       		.uleb128 0x27
 7489 14a2 CB000000 		.4byte	.LASF64
 7490 14a6 01       		.byte	0x1
 7491 14a7 A002     		.2byte	0x2a0
 7492 14a9 2E010000 		.4byte	0x12e
 7493 14ad 26       		.uleb128 0x26
 7494 14ae 6D00     		.ascii	"m\000"
 7495 14b0 01       		.byte	0x1
 7496 14b1 A102     		.2byte	0x2a1
 7497 14b3 E1140000 		.4byte	0x14e1
 7498 14b7 44       		.uleb128 0x44
 7499 14b8 C9140000 		.4byte	0x14c9
 7500 14bc 26       		.uleb128 0x26
 7501 14bd 636C7300 		.ascii	"cls\000"
 7502 14c1 01       		.byte	0x1
 7503 14c2 A402     		.2byte	0x2a4
 7504 14c4 E7140000 		.4byte	0x14e7
 7505 14c8 00       		.byte	0
ARM GAS  C:\Users\164\AppData\Local\Temp\ccd4XrSZ.s 			page 180


 7506 14c9 28       		.uleb128 0x28
 7507 14ca 45       		.uleb128 0x45
 7508 14cb 040B0000 		.4byte	.LASF274
 7509 14cf 01       		.byte	0x1
 7510 14d0 AE02     		.2byte	0x2ae
 7511 14d2 00       		.byte	0
 7512 14d3 27       		.uleb128 0x27
 7513 14d4 DC000000 		.4byte	.LASF203
 7514 14d8 01       		.byte	0x1
 7515 14d9 B102     		.2byte	0x2b1
 7516 14db 9F000000 		.4byte	0x9f
 7517 14df 00       		.byte	0
 7518 14e0 00       		.byte	0
 7519 14e1 06       		.uleb128 0x6
 7520 14e2 04       		.byte	0x4
 7521 14e3 1C060000 		.4byte	0x61c
 7522 14e7 06       		.uleb128 0x6
 7523 14e8 04       		.byte	0x4
 7524 14e9 59050000 		.4byte	0x559
 7525 14ed 23       		.uleb128 0x23
 7526 14ee 19060000 		.4byte	.LASF204
 7527 14f2 01       		.byte	0x1
 7528 14f3 0303     		.2byte	0x303
 7529 14f5 9F000000 		.4byte	0x9f
 7530 14f9 03       		.byte	0x3
 7531 14fa 4F150000 		.4byte	0x154f
 7532 14fe 24       		.uleb128 0x24
 7533 14ff 766D00   		.ascii	"vm\000"
 7534 1502 01       		.byte	0x1
 7535 1503 0303     		.2byte	0x303
 7536 1505 BE080000 		.4byte	0x8be
 7537 1509 25       		.uleb128 0x25
 7538 150a 1A090000 		.4byte	.LASF95
 7539 150e 01       		.byte	0x1
 7540 150f 0303     		.2byte	0x303
 7541 1511 E4000000 		.4byte	0xe4
 7542 1515 25       		.uleb128 0x25
 7543 1516 E7080000 		.4byte	.LASF32
 7544 151a 01       		.byte	0x1
 7545 151b 0303     		.2byte	0x303
 7546 151d AA060000 		.4byte	0x6aa
 7547 1521 26       		.uleb128 0x26
 7548 1522 726100   		.ascii	"ra\000"
 7549 1525 01       		.byte	0x1
 7550 1526 0603     		.2byte	0x306
 7551 1528 9F000000 		.4byte	0x9f
 7552 152c 27       		.uleb128 0x27
 7553 152d FE0A0000 		.4byte	.LASF91
 7554 1531 01       		.byte	0x1
 7555 1532 0D03     		.2byte	0x30d
 7556 1534 9F000000 		.4byte	0x9f
 7557 1538 27       		.uleb128 0x27
 7558 1539 63040000 		.4byte	.LASF168
 7559 153d 01       		.byte	0x1
 7560 153e 1003     		.2byte	0x310
 7561 1540 DC060000 		.4byte	0x6dc
 7562 1544 26       		.uleb128 0x26
ARM GAS  C:\Users\164\AppData\Local\Temp\ccd4XrSZ.s 			page 181


 7563 1545 6900     		.ascii	"i\000"
 7564 1547 01       		.byte	0x1
 7565 1548 1803     		.2byte	0x318
 7566 154a 9F000000 		.4byte	0x9f
 7567 154e 00       		.byte	0
 7568 154f 23       		.uleb128 0x23
 7569 1550 23060000 		.4byte	.LASF205
 7570 1554 01       		.byte	0x1
 7571 1555 2F03     		.2byte	0x32f
 7572 1557 9F000000 		.4byte	0x9f
 7573 155b 03       		.byte	0x3
 7574 155c 9B150000 		.4byte	0x159b
 7575 1560 24       		.uleb128 0x24
 7576 1561 766D00   		.ascii	"vm\000"
 7577 1564 01       		.byte	0x1
 7578 1565 2F03     		.2byte	0x32f
 7579 1567 BE080000 		.4byte	0x8be
 7580 156b 25       		.uleb128 0x25
 7581 156c 1A090000 		.4byte	.LASF95
 7582 1570 01       		.byte	0x1
 7583 1571 2F03     		.2byte	0x32f
 7584 1573 E4000000 		.4byte	0xe4
 7585 1577 25       		.uleb128 0x25
 7586 1578 E7080000 		.4byte	.LASF32
 7587 157c 01       		.byte	0x1
 7588 157d 2F03     		.2byte	0x32f
 7589 157f AA060000 		.4byte	0x6aa
 7590 1583 26       		.uleb128 0x26
 7591 1584 726100   		.ascii	"ra\000"
 7592 1587 01       		.byte	0x1
 7593 1588 3103     		.2byte	0x331
 7594 158a 9F000000 		.4byte	0x9f
 7595 158e 27       		.uleb128 0x27
 7596 158f 07060000 		.4byte	.LASF206
 7597 1593 01       		.byte	0x1
 7598 1594 3303     		.2byte	0x333
 7599 1596 AA060000 		.4byte	0x6aa
 7600 159a 00       		.byte	0
 7601 159b 23       		.uleb128 0x23
 7602 159c F3090000 		.4byte	.LASF207
 7603 15a0 01       		.byte	0x1
 7604 15a1 4D03     		.2byte	0x34d
 7605 15a3 9F000000 		.4byte	0x9f
 7606 15a7 03       		.byte	0x3
 7607 15a8 DB150000 		.4byte	0x15db
 7608 15ac 24       		.uleb128 0x24
 7609 15ad 766D00   		.ascii	"vm\000"
 7610 15b0 01       		.byte	0x1
 7611 15b1 4D03     		.2byte	0x34d
 7612 15b3 BE080000 		.4byte	0x8be
 7613 15b7 25       		.uleb128 0x25
 7614 15b8 1A090000 		.4byte	.LASF95
 7615 15bc 01       		.byte	0x1
 7616 15bd 4D03     		.2byte	0x34d
 7617 15bf E4000000 		.4byte	0xe4
 7618 15c3 25       		.uleb128 0x25
 7619 15c4 E7080000 		.4byte	.LASF32
ARM GAS  C:\Users\164\AppData\Local\Temp\ccd4XrSZ.s 			page 182


 7620 15c8 01       		.byte	0x1
 7621 15c9 4D03     		.2byte	0x34d
 7622 15cb AA060000 		.4byte	0x6aa
 7623 15cf 26       		.uleb128 0x26
 7624 15d0 726100   		.ascii	"ra\000"
 7625 15d3 01       		.byte	0x1
 7626 15d4 4F03     		.2byte	0x34f
 7627 15d6 9F000000 		.4byte	0x9f
 7628 15da 00       		.byte	0
 7629 15db 23       		.uleb128 0x23
 7630 15dc 02070000 		.4byte	.LASF208
 7631 15e0 01       		.byte	0x1
 7632 15e1 7A03     		.2byte	0x37a
 7633 15e3 9F000000 		.4byte	0x9f
 7634 15e7 03       		.byte	0x3
 7635 15e8 1B160000 		.4byte	0x161b
 7636 15ec 24       		.uleb128 0x24
 7637 15ed 766D00   		.ascii	"vm\000"
 7638 15f0 01       		.byte	0x1
 7639 15f1 7A03     		.2byte	0x37a
 7640 15f3 BE080000 		.4byte	0x8be
 7641 15f7 25       		.uleb128 0x25
 7642 15f8 1A090000 		.4byte	.LASF95
 7643 15fc 01       		.byte	0x1
 7644 15fd 7A03     		.2byte	0x37a
 7645 15ff E4000000 		.4byte	0xe4
 7646 1603 25       		.uleb128 0x25
 7647 1604 E7080000 		.4byte	.LASF32
 7648 1608 01       		.byte	0x1
 7649 1609 7A03     		.2byte	0x37a
 7650 160b AA060000 		.4byte	0x6aa
 7651 160f 26       		.uleb128 0x26
 7652 1610 726100   		.ascii	"ra\000"
 7653 1613 01       		.byte	0x1
 7654 1614 7C03     		.2byte	0x37c
 7655 1616 9F000000 		.4byte	0x9f
 7656 161a 00       		.byte	0
 7657 161b 23       		.uleb128 0x23
 7658 161c 56000000 		.4byte	.LASF209
 7659 1620 01       		.byte	0x1
 7660 1621 9A03     		.2byte	0x39a
 7661 1623 9F000000 		.4byte	0x9f
 7662 1627 03       		.byte	0x3
 7663 1628 5B160000 		.4byte	0x165b
 7664 162c 24       		.uleb128 0x24
 7665 162d 766D00   		.ascii	"vm\000"
 7666 1630 01       		.byte	0x1
 7667 1631 9A03     		.2byte	0x39a
 7668 1633 BE080000 		.4byte	0x8be
 7669 1637 25       		.uleb128 0x25
 7670 1638 1A090000 		.4byte	.LASF95
 7671 163c 01       		.byte	0x1
 7672 163d 9A03     		.2byte	0x39a
 7673 163f E4000000 		.4byte	0xe4
 7674 1643 25       		.uleb128 0x25
 7675 1644 E7080000 		.4byte	.LASF32
 7676 1648 01       		.byte	0x1
ARM GAS  C:\Users\164\AppData\Local\Temp\ccd4XrSZ.s 			page 183


 7677 1649 9A03     		.2byte	0x39a
 7678 164b AA060000 		.4byte	0x6aa
 7679 164f 26       		.uleb128 0x26
 7680 1650 726100   		.ascii	"ra\000"
 7681 1653 01       		.byte	0x1
 7682 1654 9C03     		.2byte	0x39c
 7683 1656 9F000000 		.4byte	0x9f
 7684 165a 00       		.byte	0
 7685 165b 23       		.uleb128 0x23
 7686 165c C3000000 		.4byte	.LASF210
 7687 1660 01       		.byte	0x1
 7688 1661 C803     		.2byte	0x3c8
 7689 1663 9F000000 		.4byte	0x9f
 7690 1667 03       		.byte	0x3
 7691 1668 9B160000 		.4byte	0x169b
 7692 166c 24       		.uleb128 0x24
 7693 166d 766D00   		.ascii	"vm\000"
 7694 1670 01       		.byte	0x1
 7695 1671 C803     		.2byte	0x3c8
 7696 1673 BE080000 		.4byte	0x8be
 7697 1677 25       		.uleb128 0x25
 7698 1678 1A090000 		.4byte	.LASF95
 7699 167c 01       		.byte	0x1
 7700 167d C803     		.2byte	0x3c8
 7701 167f E4000000 		.4byte	0xe4
 7702 1683 25       		.uleb128 0x25
 7703 1684 E7080000 		.4byte	.LASF32
 7704 1688 01       		.byte	0x1
 7705 1689 C803     		.2byte	0x3c8
 7706 168b AA060000 		.4byte	0x6aa
 7707 168f 26       		.uleb128 0x26
 7708 1690 726100   		.ascii	"ra\000"
 7709 1693 01       		.byte	0x1
 7710 1694 CA03     		.2byte	0x3ca
 7711 1696 9F000000 		.4byte	0x9f
 7712 169a 00       		.byte	0
 7713 169b 23       		.uleb128 0x23
 7714 169c 1A030000 		.4byte	.LASF211
 7715 16a0 01       		.byte	0x1
 7716 16a1 E803     		.2byte	0x3e8
 7717 16a3 9F000000 		.4byte	0x9f
 7718 16a7 03       		.byte	0x3
 7719 16a8 DB160000 		.4byte	0x16db
 7720 16ac 24       		.uleb128 0x24
 7721 16ad 766D00   		.ascii	"vm\000"
 7722 16b0 01       		.byte	0x1
 7723 16b1 E803     		.2byte	0x3e8
 7724 16b3 BE080000 		.4byte	0x8be
 7725 16b7 25       		.uleb128 0x25
 7726 16b8 1A090000 		.4byte	.LASF95
 7727 16bc 01       		.byte	0x1
 7728 16bd E803     		.2byte	0x3e8
 7729 16bf E4000000 		.4byte	0xe4
 7730 16c3 25       		.uleb128 0x25
 7731 16c4 E7080000 		.4byte	.LASF32
 7732 16c8 01       		.byte	0x1
 7733 16c9 E803     		.2byte	0x3e8
ARM GAS  C:\Users\164\AppData\Local\Temp\ccd4XrSZ.s 			page 184


 7734 16cb AA060000 		.4byte	0x6aa
 7735 16cf 26       		.uleb128 0x26
 7736 16d0 726100   		.ascii	"ra\000"
 7737 16d3 01       		.byte	0x1
 7738 16d4 EA03     		.2byte	0x3ea
 7739 16d6 9F000000 		.4byte	0x9f
 7740 16da 00       		.byte	0
 7741 16db 23       		.uleb128 0x23
 7742 16dc 42070000 		.4byte	.LASF212
 7743 16e0 01       		.byte	0x1
 7744 16e1 1604     		.2byte	0x416
 7745 16e3 9F000000 		.4byte	0x9f
 7746 16e7 03       		.byte	0x3
 7747 16e8 1B170000 		.4byte	0x171b
 7748 16ec 24       		.uleb128 0x24
 7749 16ed 766D00   		.ascii	"vm\000"
 7750 16f0 01       		.byte	0x1
 7751 16f1 1604     		.2byte	0x416
 7752 16f3 BE080000 		.4byte	0x8be
 7753 16f7 25       		.uleb128 0x25
 7754 16f8 1A090000 		.4byte	.LASF95
 7755 16fc 01       		.byte	0x1
 7756 16fd 1604     		.2byte	0x416
 7757 16ff E4000000 		.4byte	0xe4
 7758 1703 25       		.uleb128 0x25
 7759 1704 E7080000 		.4byte	.LASF32
 7760 1708 01       		.byte	0x1
 7761 1709 1604     		.2byte	0x416
 7762 170b AA060000 		.4byte	0x6aa
 7763 170f 26       		.uleb128 0x26
 7764 1710 726100   		.ascii	"ra\000"
 7765 1713 01       		.byte	0x1
 7766 1714 1804     		.2byte	0x418
 7767 1716 9F000000 		.4byte	0x9f
 7768 171a 00       		.byte	0
 7769 171b 23       		.uleb128 0x23
 7770 171c 47050000 		.4byte	.LASF213
 7771 1720 01       		.byte	0x1
 7772 1721 4404     		.2byte	0x444
 7773 1723 9F000000 		.4byte	0x9f
 7774 1727 03       		.byte	0x3
 7775 1728 67170000 		.4byte	0x1767
 7776 172c 24       		.uleb128 0x24
 7777 172d 766D00   		.ascii	"vm\000"
 7778 1730 01       		.byte	0x1
 7779 1731 4404     		.2byte	0x444
 7780 1733 BE080000 		.4byte	0x8be
 7781 1737 25       		.uleb128 0x25
 7782 1738 1A090000 		.4byte	.LASF95
 7783 173c 01       		.byte	0x1
 7784 173d 4404     		.2byte	0x444
 7785 173f E4000000 		.4byte	0xe4
 7786 1743 25       		.uleb128 0x25
 7787 1744 E7080000 		.4byte	.LASF32
 7788 1748 01       		.byte	0x1
 7789 1749 4404     		.2byte	0x444
 7790 174b AA060000 		.4byte	0x6aa
ARM GAS  C:\Users\164\AppData\Local\Temp\ccd4XrSZ.s 			page 185


 7791 174f 26       		.uleb128 0x26
 7792 1750 726100   		.ascii	"ra\000"
 7793 1753 01       		.byte	0x1
 7794 1754 4604     		.2byte	0x446
 7795 1756 9F000000 		.4byte	0x9f
 7796 175a 27       		.uleb128 0x27
 7797 175b 4E010000 		.4byte	.LASF214
 7798 175f 01       		.byte	0x1
 7799 1760 4704     		.2byte	0x447
 7800 1762 9F000000 		.4byte	0x9f
 7801 1766 00       		.byte	0
 7802 1767 23       		.uleb128 0x23
 7803 1768 08080000 		.4byte	.LASF215
 7804 176c 01       		.byte	0x1
 7805 176d 5C04     		.2byte	0x45c
 7806 176f 9F000000 		.4byte	0x9f
 7807 1773 03       		.byte	0x3
 7808 1774 BB170000 		.4byte	0x17bb
 7809 1778 24       		.uleb128 0x24
 7810 1779 766D00   		.ascii	"vm\000"
 7811 177c 01       		.byte	0x1
 7812 177d 5C04     		.2byte	0x45c
 7813 177f BE080000 		.4byte	0x8be
 7814 1783 25       		.uleb128 0x25
 7815 1784 1A090000 		.4byte	.LASF95
 7816 1788 01       		.byte	0x1
 7817 1789 5C04     		.2byte	0x45c
 7818 178b E4000000 		.4byte	0xe4
 7819 178f 25       		.uleb128 0x25
 7820 1790 E7080000 		.4byte	.LASF32
 7821 1794 01       		.byte	0x1
 7822 1795 5C04     		.2byte	0x45c
 7823 1797 AA060000 		.4byte	0x6aa
 7824 179b 26       		.uleb128 0x26
 7825 179c 726100   		.ascii	"ra\000"
 7826 179f 01       		.byte	0x1
 7827 17a0 5E04     		.2byte	0x45e
 7828 17a2 9F000000 		.4byte	0x9f
 7829 17a6 27       		.uleb128 0x27
 7830 17a7 4E010000 		.4byte	.LASF214
 7831 17ab 01       		.byte	0x1
 7832 17ac 5F04     		.2byte	0x45f
 7833 17ae 9F000000 		.4byte	0x9f
 7834 17b2 46       		.uleb128 0x46
 7835 17b3 780A0000 		.4byte	.LASF217
 7836 17b7 01       		.byte	0x1
 7837 17b8 7D04     		.2byte	0x47d
 7838 17ba 00       		.byte	0
 7839 17bb 23       		.uleb128 0x23
 7840 17bc D9070000 		.4byte	.LASF216
 7841 17c0 01       		.byte	0x1
 7842 17c1 8E04     		.2byte	0x48e
 7843 17c3 9F000000 		.4byte	0x9f
 7844 17c7 03       		.byte	0x3
 7845 17c8 0F180000 		.4byte	0x180f
 7846 17cc 24       		.uleb128 0x24
 7847 17cd 766D00   		.ascii	"vm\000"
ARM GAS  C:\Users\164\AppData\Local\Temp\ccd4XrSZ.s 			page 186


 7848 17d0 01       		.byte	0x1
 7849 17d1 8E04     		.2byte	0x48e
 7850 17d3 BE080000 		.4byte	0x8be
 7851 17d7 25       		.uleb128 0x25
 7852 17d8 1A090000 		.4byte	.LASF95
 7853 17dc 01       		.byte	0x1
 7854 17dd 8E04     		.2byte	0x48e
 7855 17df E4000000 		.4byte	0xe4
 7856 17e3 25       		.uleb128 0x25
 7857 17e4 E7080000 		.4byte	.LASF32
 7858 17e8 01       		.byte	0x1
 7859 17e9 8E04     		.2byte	0x48e
 7860 17eb AA060000 		.4byte	0x6aa
 7861 17ef 26       		.uleb128 0x26
 7862 17f0 726100   		.ascii	"ra\000"
 7863 17f3 01       		.byte	0x1
 7864 17f4 9004     		.2byte	0x490
 7865 17f6 9F000000 		.4byte	0x9f
 7866 17fa 27       		.uleb128 0x27
 7867 17fb 4E010000 		.4byte	.LASF214
 7868 17ff 01       		.byte	0x1
 7869 1800 9104     		.2byte	0x491
 7870 1802 9F000000 		.4byte	0x9f
 7871 1806 46       		.uleb128 0x46
 7872 1807 780A0000 		.4byte	.LASF217
 7873 180b 01       		.byte	0x1
 7874 180c AF04     		.2byte	0x4af
 7875 180e 00       		.byte	0
 7876 180f 23       		.uleb128 0x23
 7877 1810 13060000 		.4byte	.LASF218
 7878 1814 01       		.byte	0x1
 7879 1815 C004     		.2byte	0x4c0
 7880 1817 9F000000 		.4byte	0x9f
 7881 181b 03       		.byte	0x3
 7882 181c 63180000 		.4byte	0x1863
 7883 1820 24       		.uleb128 0x24
 7884 1821 766D00   		.ascii	"vm\000"
 7885 1824 01       		.byte	0x1
 7886 1825 C004     		.2byte	0x4c0
 7887 1827 BE080000 		.4byte	0x8be
 7888 182b 25       		.uleb128 0x25
 7889 182c 1A090000 		.4byte	.LASF95
 7890 1830 01       		.byte	0x1
 7891 1831 C004     		.2byte	0x4c0
 7892 1833 E4000000 		.4byte	0xe4
 7893 1837 25       		.uleb128 0x25
 7894 1838 E7080000 		.4byte	.LASF32
 7895 183c 01       		.byte	0x1
 7896 183d C004     		.2byte	0x4c0
 7897 183f AA060000 		.4byte	0x6aa
 7898 1843 26       		.uleb128 0x26
 7899 1844 726100   		.ascii	"ra\000"
 7900 1847 01       		.byte	0x1
 7901 1848 C204     		.2byte	0x4c2
 7902 184a 9F000000 		.4byte	0x9f
 7903 184e 27       		.uleb128 0x27
 7904 184f 4E010000 		.4byte	.LASF214
ARM GAS  C:\Users\164\AppData\Local\Temp\ccd4XrSZ.s 			page 187


 7905 1853 01       		.byte	0x1
 7906 1854 C304     		.2byte	0x4c3
 7907 1856 9F000000 		.4byte	0x9f
 7908 185a 46       		.uleb128 0x46
 7909 185b 780A0000 		.4byte	.LASF217
 7910 185f 01       		.byte	0x1
 7911 1860 E104     		.2byte	0x4e1
 7912 1862 00       		.byte	0
 7913 1863 23       		.uleb128 0x23
 7914 1864 0D060000 		.4byte	.LASF219
 7915 1868 01       		.byte	0x1
 7916 1869 F204     		.2byte	0x4f2
 7917 186b 9F000000 		.4byte	0x9f
 7918 186f 03       		.byte	0x3
 7919 1870 B7180000 		.4byte	0x18b7
 7920 1874 24       		.uleb128 0x24
 7921 1875 766D00   		.ascii	"vm\000"
 7922 1878 01       		.byte	0x1
 7923 1879 F204     		.2byte	0x4f2
 7924 187b BE080000 		.4byte	0x8be
 7925 187f 25       		.uleb128 0x25
 7926 1880 1A090000 		.4byte	.LASF95
 7927 1884 01       		.byte	0x1
 7928 1885 F204     		.2byte	0x4f2
 7929 1887 E4000000 		.4byte	0xe4
 7930 188b 25       		.uleb128 0x25
 7931 188c E7080000 		.4byte	.LASF32
 7932 1890 01       		.byte	0x1
 7933 1891 F204     		.2byte	0x4f2
 7934 1893 AA060000 		.4byte	0x6aa
 7935 1897 26       		.uleb128 0x26
 7936 1898 726100   		.ascii	"ra\000"
 7937 189b 01       		.byte	0x1
 7938 189c F404     		.2byte	0x4f4
 7939 189e 9F000000 		.4byte	0x9f
 7940 18a2 27       		.uleb128 0x27
 7941 18a3 4E010000 		.4byte	.LASF214
 7942 18a7 01       		.byte	0x1
 7943 18a8 F504     		.2byte	0x4f5
 7944 18aa 9F000000 		.4byte	0x9f
 7945 18ae 46       		.uleb128 0x46
 7946 18af 780A0000 		.4byte	.LASF217
 7947 18b3 01       		.byte	0x1
 7948 18b4 1305     		.2byte	0x513
 7949 18b6 00       		.byte	0
 7950 18b7 23       		.uleb128 0x23
 7951 18b8 730B0000 		.4byte	.LASF220
 7952 18bc 01       		.byte	0x1
 7953 18bd 2405     		.2byte	0x524
 7954 18bf 9F000000 		.4byte	0x9f
 7955 18c3 03       		.byte	0x3
 7956 18c4 19190000 		.4byte	0x1919
 7957 18c8 24       		.uleb128 0x24
 7958 18c9 766D00   		.ascii	"vm\000"
 7959 18cc 01       		.byte	0x1
 7960 18cd 2405     		.2byte	0x524
 7961 18cf BE080000 		.4byte	0x8be
ARM GAS  C:\Users\164\AppData\Local\Temp\ccd4XrSZ.s 			page 188


 7962 18d3 25       		.uleb128 0x25
 7963 18d4 1A090000 		.4byte	.LASF95
 7964 18d8 01       		.byte	0x1
 7965 18d9 2405     		.2byte	0x524
 7966 18db E4000000 		.4byte	0xe4
 7967 18df 25       		.uleb128 0x25
 7968 18e0 E7080000 		.4byte	.LASF32
 7969 18e4 01       		.byte	0x1
 7970 18e5 2405     		.2byte	0x524
 7971 18e7 AA060000 		.4byte	0x6aa
 7972 18eb 26       		.uleb128 0x26
 7973 18ec 726100   		.ascii	"ra\000"
 7974 18ef 01       		.byte	0x1
 7975 18f0 2605     		.2byte	0x526
 7976 18f2 9F000000 		.4byte	0x9f
 7977 18f6 26       		.uleb128 0x26
 7978 18f7 726200   		.ascii	"rb\000"
 7979 18fa 01       		.byte	0x1
 7980 18fb 2705     		.2byte	0x527
 7981 18fd 9F000000 		.4byte	0x9f
 7982 1901 26       		.uleb128 0x26
 7983 1902 726300   		.ascii	"rc\000"
 7984 1905 01       		.byte	0x1
 7985 1906 2805     		.2byte	0x528
 7986 1908 9F000000 		.4byte	0x9f
 7987 190c 27       		.uleb128 0x27
 7988 190d 5F030000 		.4byte	.LASF221
 7989 1911 01       		.byte	0x1
 7990 1912 2A05     		.2byte	0x52a
 7991 1914 43050000 		.4byte	0x543
 7992 1918 00       		.byte	0
 7993 1919 23       		.uleb128 0x23
 7994 191a 4F030000 		.4byte	.LASF222
 7995 191e 01       		.byte	0x1
 7996 191f 4305     		.2byte	0x543
 7997 1921 9F000000 		.4byte	0x9f
 7998 1925 03       		.byte	0x3
 7999 1926 88190000 		.4byte	0x1988
 8000 192a 24       		.uleb128 0x24
 8001 192b 766D00   		.ascii	"vm\000"
 8002 192e 01       		.byte	0x1
 8003 192f 4305     		.2byte	0x543
 8004 1931 BE080000 		.4byte	0x8be
 8005 1935 25       		.uleb128 0x25
 8006 1936 1A090000 		.4byte	.LASF95
 8007 193a 01       		.byte	0x1
 8008 193b 4305     		.2byte	0x543
 8009 193d E4000000 		.4byte	0xe4
 8010 1941 25       		.uleb128 0x25
 8011 1942 E7080000 		.4byte	.LASF32
 8012 1946 01       		.byte	0x1
 8013 1947 4305     		.2byte	0x543
 8014 1949 AA060000 		.4byte	0x6aa
 8015 194d 26       		.uleb128 0x26
 8016 194e 726100   		.ascii	"ra\000"
 8017 1951 01       		.byte	0x1
 8018 1952 4605     		.2byte	0x546
ARM GAS  C:\Users\164\AppData\Local\Temp\ccd4XrSZ.s 			page 189


 8019 1954 9F000000 		.4byte	0x9f
 8020 1958 26       		.uleb128 0x26
 8021 1959 726200   		.ascii	"rb\000"
 8022 195c 01       		.byte	0x1
 8023 195d 4705     		.2byte	0x547
 8024 195f 9F000000 		.4byte	0x9f
 8025 1963 27       		.uleb128 0x27
 8026 1964 AB050000 		.4byte	.LASF187
 8027 1968 01       		.byte	0x1
 8028 1969 4805     		.2byte	0x548
 8029 196b 33060000 		.4byte	0x633
 8030 196f 26       		.uleb128 0x26
 8031 1970 6C656E00 		.ascii	"len\000"
 8032 1974 01       		.byte	0x1
 8033 1975 4B05     		.2byte	0x54b
 8034 1977 9F000000 		.4byte	0x9f
 8035 197b 27       		.uleb128 0x27
 8036 197c 5F030000 		.4byte	.LASF221
 8037 1980 01       		.byte	0x1
 8038 1981 4C05     		.2byte	0x54c
 8039 1983 43050000 		.4byte	0x543
 8040 1987 00       		.byte	0
 8041 1988 23       		.uleb128 0x23
 8042 1989 38070000 		.4byte	.LASF223
 8043 198d 01       		.byte	0x1
 8044 198e 6405     		.2byte	0x564
 8045 1990 9F000000 		.4byte	0x9f
 8046 1994 03       		.byte	0x3
 8047 1995 F3190000 		.4byte	0x19f3
 8048 1999 24       		.uleb128 0x24
 8049 199a 766D00   		.ascii	"vm\000"
 8050 199d 01       		.byte	0x1
 8051 199e 6405     		.2byte	0x564
 8052 19a0 BE080000 		.4byte	0x8be
 8053 19a4 25       		.uleb128 0x25
 8054 19a5 1A090000 		.4byte	.LASF95
 8055 19a9 01       		.byte	0x1
 8056 19aa 6405     		.2byte	0x564
 8057 19ac E4000000 		.4byte	0xe4
 8058 19b0 25       		.uleb128 0x25
 8059 19b1 E7080000 		.4byte	.LASF32
 8060 19b5 01       		.byte	0x1
 8061 19b6 6405     		.2byte	0x564
 8062 19b8 AA060000 		.4byte	0x6aa
 8063 19bc 26       		.uleb128 0x26
 8064 19bd 726100   		.ascii	"ra\000"
 8065 19c0 01       		.byte	0x1
 8066 19c1 6705     		.2byte	0x567
 8067 19c3 9F000000 		.4byte	0x9f
 8068 19c7 26       		.uleb128 0x26
 8069 19c8 726200   		.ascii	"rb\000"
 8070 19cb 01       		.byte	0x1
 8071 19cc 6805     		.2byte	0x568
 8072 19ce 9F000000 		.4byte	0x9f
 8073 19d2 27       		.uleb128 0x27
 8074 19d3 CB000000 		.4byte	.LASF64
 8075 19d7 01       		.byte	0x1
ARM GAS  C:\Users\164\AppData\Local\Temp\ccd4XrSZ.s 			page 190


 8076 19d8 6B05     		.2byte	0x56b
 8077 19da 2E010000 		.4byte	0x12e
 8078 19de 26       		.uleb128 0x26
 8079 19df 6D00     		.ascii	"m\000"
 8080 19e1 01       		.byte	0x1
 8081 19e2 6C05     		.2byte	0x56c
 8082 19e4 E1140000 		.4byte	0x14e1
 8083 19e8 26       		.uleb128 0x26
 8084 19e9 7600     		.ascii	"v\000"
 8085 19eb 01       		.byte	0x1
 8086 19ec 7105     		.2byte	0x571
 8087 19ee 43050000 		.4byte	0x543
 8088 19f2 00       		.byte	0
 8089 19f3 23       		.uleb128 0x23
 8090 19f4 5D000000 		.4byte	.LASF224
 8091 19f8 01       		.byte	0x1
 8092 19f9 8705     		.2byte	0x587
 8093 19fb 9F000000 		.4byte	0x9f
 8094 19ff 03       		.byte	0x3
 8095 1a00 551A0000 		.4byte	0x1a55
 8096 1a04 24       		.uleb128 0x24
 8097 1a05 766D00   		.ascii	"vm\000"
 8098 1a08 01       		.byte	0x1
 8099 1a09 8705     		.2byte	0x587
 8100 1a0b BE080000 		.4byte	0x8be
 8101 1a0f 25       		.uleb128 0x25
 8102 1a10 1A090000 		.4byte	.LASF95
 8103 1a14 01       		.byte	0x1
 8104 1a15 8705     		.2byte	0x587
 8105 1a17 E4000000 		.4byte	0xe4
 8106 1a1b 25       		.uleb128 0x25
 8107 1a1c E7080000 		.4byte	.LASF32
 8108 1a20 01       		.byte	0x1
 8109 1a21 8705     		.2byte	0x587
 8110 1a23 AA060000 		.4byte	0x6aa
 8111 1a27 26       		.uleb128 0x26
 8112 1a28 726100   		.ascii	"ra\000"
 8113 1a2b 01       		.byte	0x1
 8114 1a2c 8905     		.2byte	0x589
 8115 1a2e 9F000000 		.4byte	0x9f
 8116 1a32 26       		.uleb128 0x26
 8117 1a33 726200   		.ascii	"rb\000"
 8118 1a36 01       		.byte	0x1
 8119 1a37 8A05     		.2byte	0x58a
 8120 1a39 9F000000 		.4byte	0x9f
 8121 1a3d 26       		.uleb128 0x26
 8122 1a3e 726300   		.ascii	"rc\000"
 8123 1a41 01       		.byte	0x1
 8124 1a42 8B05     		.2byte	0x58b
 8125 1a44 9F000000 		.4byte	0x9f
 8126 1a48 27       		.uleb128 0x27
 8127 1a49 5F030000 		.4byte	.LASF221
 8128 1a4d 01       		.byte	0x1
 8129 1a4e 8D05     		.2byte	0x58d
 8130 1a50 43050000 		.4byte	0x543
 8131 1a54 00       		.byte	0
 8132 1a55 23       		.uleb128 0x23
ARM GAS  C:\Users\164\AppData\Local\Temp\ccd4XrSZ.s 			page 191


 8133 1a56 3E0B0000 		.4byte	.LASF225
 8134 1a5a 01       		.byte	0x1
 8135 1a5b A705     		.2byte	0x5a7
 8136 1a5d 9F000000 		.4byte	0x9f
 8137 1a61 03       		.byte	0x3
 8138 1a62 AC1A0000 		.4byte	0x1aac
 8139 1a66 24       		.uleb128 0x24
 8140 1a67 766D00   		.ascii	"vm\000"
 8141 1a6a 01       		.byte	0x1
 8142 1a6b A705     		.2byte	0x5a7
 8143 1a6d BE080000 		.4byte	0x8be
 8144 1a71 25       		.uleb128 0x25
 8145 1a72 1A090000 		.4byte	.LASF95
 8146 1a76 01       		.byte	0x1
 8147 1a77 A705     		.2byte	0x5a7
 8148 1a79 E4000000 		.4byte	0xe4
 8149 1a7d 25       		.uleb128 0x25
 8150 1a7e E7080000 		.4byte	.LASF32
 8151 1a82 01       		.byte	0x1
 8152 1a83 A705     		.2byte	0x5a7
 8153 1a85 AA060000 		.4byte	0x6aa
 8154 1a89 26       		.uleb128 0x26
 8155 1a8a 726100   		.ascii	"ra\000"
 8156 1a8d 01       		.byte	0x1
 8157 1a8e A905     		.2byte	0x5a9
 8158 1a90 9F000000 		.4byte	0x9f
 8159 1a94 26       		.uleb128 0x26
 8160 1a95 726200   		.ascii	"rb\000"
 8161 1a98 01       		.byte	0x1
 8162 1a99 AA05     		.2byte	0x5aa
 8163 1a9b 9F000000 		.4byte	0x9f
 8164 1a9f 27       		.uleb128 0x27
 8165 1aa0 C3030000 		.4byte	.LASF58
 8166 1aa4 01       		.byte	0x1
 8167 1aa5 AC05     		.2byte	0x5ac
 8168 1aa7 E1140000 		.4byte	0x14e1
 8169 1aab 00       		.byte	0
 8170 1aac 23       		.uleb128 0x23
 8171 1aad 70050000 		.4byte	.LASF226
 8172 1ab1 01       		.byte	0x1
 8173 1ab2 C405     		.2byte	0x5c4
 8174 1ab4 9F000000 		.4byte	0x9f
 8175 1ab8 03       		.byte	0x3
 8176 1ab9 0E1B0000 		.4byte	0x1b0e
 8177 1abd 24       		.uleb128 0x24
 8178 1abe 766D00   		.ascii	"vm\000"
 8179 1ac1 01       		.byte	0x1
 8180 1ac2 C405     		.2byte	0x5c4
 8181 1ac4 BE080000 		.4byte	0x8be
 8182 1ac8 25       		.uleb128 0x25
 8183 1ac9 1A090000 		.4byte	.LASF95
 8184 1acd 01       		.byte	0x1
 8185 1ace C405     		.2byte	0x5c4
 8186 1ad0 E4000000 		.4byte	0xe4
 8187 1ad4 25       		.uleb128 0x25
 8188 1ad5 E7080000 		.4byte	.LASF32
 8189 1ad9 01       		.byte	0x1
ARM GAS  C:\Users\164\AppData\Local\Temp\ccd4XrSZ.s 			page 192


 8190 1ada C405     		.2byte	0x5c4
 8191 1adc AA060000 		.4byte	0x6aa
 8192 1ae0 26       		.uleb128 0x26
 8193 1ae1 726100   		.ascii	"ra\000"
 8194 1ae4 01       		.byte	0x1
 8195 1ae5 C605     		.2byte	0x5c6
 8196 1ae7 9F000000 		.4byte	0x9f
 8197 1aeb 26       		.uleb128 0x26
 8198 1aec 726200   		.ascii	"rb\000"
 8199 1aef 01       		.byte	0x1
 8200 1af0 C705     		.2byte	0x5c7
 8201 1af2 9F000000 		.4byte	0x9f
 8202 1af6 26       		.uleb128 0x26
 8203 1af7 726300   		.ascii	"rc\000"
 8204 1afa 01       		.byte	0x1
 8205 1afb C805     		.2byte	0x5c8
 8206 1afd 9F000000 		.4byte	0x9f
 8207 1b01 27       		.uleb128 0x27
 8208 1b02 5F030000 		.4byte	.LASF221
 8209 1b06 01       		.byte	0x1
 8210 1b07 CD05     		.2byte	0x5cd
 8211 1b09 43050000 		.4byte	0x543
 8212 1b0d 00       		.byte	0
 8213 1b0e 23       		.uleb128 0x23
 8214 1b0f 88090000 		.4byte	.LASF227
 8215 1b13 01       		.byte	0x1
 8216 1b14 E405     		.2byte	0x5e4
 8217 1b16 9F000000 		.4byte	0x9f
 8218 1b1a 03       		.byte	0x3
 8219 1b1b 951B0000 		.4byte	0x1b95
 8220 1b1f 24       		.uleb128 0x24
 8221 1b20 766D00   		.ascii	"vm\000"
 8222 1b23 01       		.byte	0x1
 8223 1b24 E405     		.2byte	0x5e4
 8224 1b26 BE080000 		.4byte	0x8be
 8225 1b2a 25       		.uleb128 0x25
 8226 1b2b 1A090000 		.4byte	.LASF95
 8227 1b2f 01       		.byte	0x1
 8228 1b30 E405     		.2byte	0x5e4
 8229 1b32 E4000000 		.4byte	0xe4
 8230 1b36 25       		.uleb128 0x25
 8231 1b37 E7080000 		.4byte	.LASF32
 8232 1b3b 01       		.byte	0x1
 8233 1b3c E405     		.2byte	0x5e4
 8234 1b3e AA060000 		.4byte	0x6aa
 8235 1b42 26       		.uleb128 0x26
 8236 1b43 726100   		.ascii	"ra\000"
 8237 1b46 01       		.byte	0x1
 8238 1b47 E605     		.2byte	0x5e6
 8239 1b49 9F000000 		.4byte	0x9f
 8240 1b4d 26       		.uleb128 0x26
 8241 1b4e 726200   		.ascii	"rb\000"
 8242 1b51 01       		.byte	0x1
 8243 1b52 E705     		.2byte	0x5e7
 8244 1b54 9F000000 		.4byte	0x9f
 8245 1b58 27       		.uleb128 0x27
 8246 1b59 B4020000 		.4byte	.LASF228
ARM GAS  C:\Users\164\AppData\Local\Temp\ccd4XrSZ.s 			page 193


 8247 1b5d 01       		.byte	0x1
 8248 1b5e E905     		.2byte	0x5e9
 8249 1b60 A4060000 		.4byte	0x6a4
 8250 1b64 27       		.uleb128 0x27
 8251 1b65 47090000 		.4byte	.LASF189
 8252 1b69 01       		.byte	0x1
 8253 1b6a EA05     		.2byte	0x5ea
 8254 1b6c 06010000 		.4byte	0x106
 8255 1b70 27       		.uleb128 0x27
 8256 1b71 2B010000 		.4byte	.LASF65
 8257 1b75 01       		.byte	0x1
 8258 1b76 EB05     		.2byte	0x5eb
 8259 1b78 B0060000 		.4byte	0x6b0
 8260 1b7c 26       		.uleb128 0x26
 8261 1b7d 636C7300 		.ascii	"cls\000"
 8262 1b81 01       		.byte	0x1
 8263 1b82 ED05     		.2byte	0x5ed
 8264 1b84 B0060000 		.4byte	0x6b0
 8265 1b88 26       		.uleb128 0x26
 8266 1b89 72657400 		.ascii	"ret\000"
 8267 1b8d 01       		.byte	0x1
 8268 1b8e EF05     		.2byte	0x5ef
 8269 1b90 43050000 		.4byte	0x543
 8270 1b94 00       		.byte	0
 8271 1b95 23       		.uleb128 0x23
 8272 1b96 54080000 		.4byte	.LASF229
 8273 1b9a 01       		.byte	0x1
 8274 1b9b 0306     		.2byte	0x603
 8275 1b9d 9F000000 		.4byte	0x9f
 8276 1ba1 03       		.byte	0x3
 8277 1ba2 EC1B0000 		.4byte	0x1bec
 8278 1ba6 24       		.uleb128 0x24
 8279 1ba7 766D00   		.ascii	"vm\000"
 8280 1baa 01       		.byte	0x1
 8281 1bab 0306     		.2byte	0x603
 8282 1bad BE080000 		.4byte	0x8be
 8283 1bb1 25       		.uleb128 0x25
 8284 1bb2 1A090000 		.4byte	.LASF95
 8285 1bb6 01       		.byte	0x1
 8286 1bb7 0306     		.2byte	0x603
 8287 1bb9 E4000000 		.4byte	0xe4
 8288 1bbd 25       		.uleb128 0x25
 8289 1bbe E7080000 		.4byte	.LASF32
 8290 1bc2 01       		.byte	0x1
 8291 1bc3 0306     		.2byte	0x603
 8292 1bc5 AA060000 		.4byte	0x6aa
 8293 1bc9 26       		.uleb128 0x26
 8294 1bca 726100   		.ascii	"ra\000"
 8295 1bcd 01       		.byte	0x1
 8296 1bce 0506     		.2byte	0x605
 8297 1bd0 9F000000 		.4byte	0x9f
 8298 1bd4 26       		.uleb128 0x26
 8299 1bd5 726200   		.ascii	"rb\000"
 8300 1bd8 01       		.byte	0x1
 8301 1bd9 0606     		.2byte	0x606
 8302 1bdb 9F000000 		.4byte	0x9f
 8303 1bdf 27       		.uleb128 0x27
ARM GAS  C:\Users\164\AppData\Local\Temp\ccd4XrSZ.s 			page 194


 8304 1be0 49070000 		.4byte	.LASF201
 8305 1be4 01       		.byte	0x1
 8306 1be5 0806     		.2byte	0x608
 8307 1be7 43050000 		.4byte	0x543
 8308 1beb 00       		.byte	0
 8309 1bec 23       		.uleb128 0x23
 8310 1bed D2000000 		.4byte	.LASF230
 8311 1bf1 01       		.byte	0x1
 8312 1bf2 2606     		.2byte	0x626
 8313 1bf4 9F000000 		.4byte	0x9f
 8314 1bf8 03       		.byte	0x3
 8315 1bf9 961C0000 		.4byte	0x1c96
 8316 1bfd 24       		.uleb128 0x24
 8317 1bfe 766D00   		.ascii	"vm\000"
 8318 1c01 01       		.byte	0x1
 8319 1c02 2606     		.2byte	0x626
 8320 1c04 BE080000 		.4byte	0x8be
 8321 1c08 25       		.uleb128 0x25
 8322 1c09 1A090000 		.4byte	.LASF95
 8323 1c0d 01       		.byte	0x1
 8324 1c0e 2606     		.2byte	0x626
 8325 1c10 E4000000 		.4byte	0xe4
 8326 1c14 25       		.uleb128 0x25
 8327 1c15 E7080000 		.4byte	.LASF32
 8328 1c19 01       		.byte	0x1
 8329 1c1a 2606     		.2byte	0x626
 8330 1c1c AA060000 		.4byte	0x6aa
 8331 1c20 26       		.uleb128 0x26
 8332 1c21 726100   		.ascii	"ra\000"
 8333 1c24 01       		.byte	0x1
 8334 1c25 2806     		.2byte	0x628
 8335 1c27 9F000000 		.4byte	0x9f
 8336 1c2b 26       		.uleb128 0x26
 8337 1c2c 726200   		.ascii	"rb\000"
 8338 1c2f 01       		.byte	0x1
 8339 1c30 2906     		.2byte	0x629
 8340 1c32 9F000000 		.4byte	0x9f
 8341 1c36 27       		.uleb128 0x27
 8342 1c37 C3030000 		.4byte	.LASF58
 8343 1c3b 01       		.byte	0x1
 8344 1c3c 2A06     		.2byte	0x62a
 8345 1c3e E1140000 		.4byte	0x14e1
 8346 1c42 28       		.uleb128 0x28
 8347 1c43 26       		.uleb128 0x26
 8348 1c44 636C7300 		.ascii	"cls\000"
 8349 1c48 01       		.byte	0x1
 8350 1c49 2D06     		.2byte	0x62d
 8351 1c4b B0060000 		.4byte	0x6b0
 8352 1c4f 27       		.uleb128 0x27
 8353 1c50 B4020000 		.4byte	.LASF228
 8354 1c54 01       		.byte	0x1
 8355 1c55 3006     		.2byte	0x630
 8356 1c57 A4060000 		.4byte	0x6a4
 8357 1c5b 27       		.uleb128 0x27
 8358 1c5c 47090000 		.4byte	.LASF189
 8359 1c60 01       		.byte	0x1
 8360 1c61 3106     		.2byte	0x631
ARM GAS  C:\Users\164\AppData\Local\Temp\ccd4XrSZ.s 			page 195


 8361 1c63 06010000 		.4byte	0x106
 8362 1c67 27       		.uleb128 0x27
 8363 1c68 CB000000 		.4byte	.LASF64
 8364 1c6c 01       		.byte	0x1
 8365 1c6d 3206     		.2byte	0x632
 8366 1c6f 9F000000 		.4byte	0x9f
 8367 1c73 26       		.uleb128 0x26
 8368 1c74 7000     		.ascii	"p\000"
 8369 1c76 01       		.byte	0x1
 8370 1c77 3506     		.2byte	0x635
 8371 1c79 E1140000 		.4byte	0x14e1
 8372 1c7d 26       		.uleb128 0x26
 8373 1c7e 707000   		.ascii	"pp\000"
 8374 1c81 01       		.byte	0x1
 8375 1c82 3606     		.2byte	0x636
 8376 1c84 FD000000 		.4byte	0xfd
 8377 1c88 28       		.uleb128 0x28
 8378 1c89 26       		.uleb128 0x26
 8379 1c8a 7600     		.ascii	"v\000"
 8380 1c8c 01       		.byte	0x1
 8381 1c8d 4006     		.2byte	0x640
 8382 1c8f 43050000 		.4byte	0x543
 8383 1c93 00       		.byte	0
 8384 1c94 00       		.byte	0
 8385 1c95 00       		.byte	0
 8386 1c96 47       		.uleb128 0x47
 8387 1c97 BC080000 		.4byte	.LASF231
 8388 1c9b 01       		.byte	0x1
 8389 1c9c FE06     		.2byte	0x6fe
 8390 1c9e 9F000000 		.4byte	0x9f
 8391 1ca2 00000000 		.4byte	.LFB152
 8392 1ca6 0C170000 		.4byte	.LFE152-.LFB152
 8393 1caa 01       		.uleb128 0x1
 8394 1cab 9C       		.byte	0x9c
 8395 1cac F5420000 		.4byte	0x42f5
 8396 1cb0 42       		.uleb128 0x42
 8397 1cb1 766D00   		.ascii	"vm\000"
 8398 1cb4 01       		.byte	0x1
 8399 1cb5 FE06     		.2byte	0x6fe
 8400 1cb7 5F010000 		.4byte	0x15f
 8401 1cbb BA040000 		.4byte	.LLST27
 8402 1cbf 3C       		.uleb128 0x3c
 8403 1cc0 72657400 		.ascii	"ret\000"
 8404 1cc4 01       		.byte	0x1
 8405 1cc5 0007     		.2byte	0x700
 8406 1cc7 9F000000 		.4byte	0x9f
 8407 1ccb E6040000 		.4byte	.LLST28
 8408 1ccf 31       		.uleb128 0x31
 8409 1cd0 0A000000 		.4byte	.LBB196
 8410 1cd4 D8160000 		.4byte	.LBE196-.LBB196
 8411 1cd8 27       		.uleb128 0x27
 8412 1cd9 1A090000 		.4byte	.LASF95
 8413 1cdd 01       		.byte	0x1
 8414 1cde 0407     		.2byte	0x704
 8415 1ce0 E4000000 		.4byte	0xe4
 8416 1ce4 3D       		.uleb128 0x3d
 8417 1ce5 E7080000 		.4byte	.LASF32
ARM GAS  C:\Users\164\AppData\Local\Temp\ccd4XrSZ.s 			page 196


 8418 1ce9 01       		.byte	0x1
 8419 1cea 0807     		.2byte	0x708
 8420 1cec AA060000 		.4byte	0x6aa
 8421 1cf0 41070000 		.4byte	.LLST29
 8422 1cf4 3D       		.uleb128 0x3d
 8423 1cf5 52060000 		.4byte	.LASF232
 8424 1cf9 01       		.byte	0x1
 8425 1cfa 0B07     		.2byte	0x70b
 8426 1cfc 9F000000 		.4byte	0x9f
 8427 1d00 20080000 		.4byte	.LLST30
 8428 1d04 48       		.uleb128 0x48
 8429 1d05 6A080000 		.4byte	0x86a
 8430 1d09 10000000 		.4byte	.LBB197
 8431 1d0d 1A000000 		.4byte	.LBE197-.LBB197
 8432 1d11 01       		.byte	0x1
 8433 1d12 0407     		.2byte	0x704
 8434 1d14 351D0000 		.4byte	0x1d35
 8435 1d18 30       		.uleb128 0x30
 8436 1d19 7A080000 		.4byte	0x87a
 8437 1d1d 490D0000 		.4byte	.LLST31
 8438 1d21 31       		.uleb128 0x31
 8439 1d22 10000000 		.4byte	.LBB198
 8440 1d26 1A000000 		.4byte	.LBE198-.LBB198
 8441 1d2a 32       		.uleb128 0x32
 8442 1d2b 83080000 		.4byte	0x883
 8443 1d2f 790D0000 		.4byte	.LLST32
 8444 1d33 00       		.byte	0
 8445 1d34 00       		.byte	0
 8446 1d35 48       		.uleb128 0x48
 8447 1d36 AA0F0000 		.4byte	0xfaa
 8448 1d3a E4000000 		.4byte	.LBB199
 8449 1d3e 22000000 		.4byte	.LBE199-.LBB199
 8450 1d42 01       		.byte	0x1
 8451 1d43 0E07     		.2byte	0x70e
 8452 1d45 A51D0000 		.4byte	0x1da5
 8453 1d49 30       		.uleb128 0x30
 8454 1d4a CF0F0000 		.4byte	0xfcf
 8455 1d4e 8C0D0000 		.4byte	.LLST33
 8456 1d52 30       		.uleb128 0x30
 8457 1d53 C40F0000 		.4byte	0xfc4
 8458 1d57 9F0D0000 		.4byte	.LLST34
 8459 1d5b 30       		.uleb128 0x30
 8460 1d5c BA0F0000 		.4byte	0xfba
 8461 1d60 B20D0000 		.4byte	.LLST35
 8462 1d64 31       		.uleb128 0x31
 8463 1d65 E4000000 		.4byte	.LBB200
 8464 1d69 22000000 		.4byte	.LBE200-.LBB200
 8465 1d6d 32       		.uleb128 0x32
 8466 1d6e DA0F0000 		.4byte	0xfda
 8467 1d72 C50D0000 		.4byte	.LLST36
 8468 1d76 32       		.uleb128 0x32
 8469 1d77 E40F0000 		.4byte	0xfe4
 8470 1d7b D80D0000 		.4byte	.LLST37
 8471 1d7f 40       		.uleb128 0x40
 8472 1d80 F4000000 		.4byte	.LVL100
 8473 1d84 8E430000 		.4byte	0x438e
 8474 1d88 931D0000 		.4byte	0x1d93
ARM GAS  C:\Users\164\AppData\Local\Temp\ccd4XrSZ.s 			page 197


 8475 1d8c 2B       		.uleb128 0x2b
 8476 1d8d 01       		.uleb128 0x1
 8477 1d8e 50       		.byte	0x50
 8478 1d8f 02       		.uleb128 0x2
 8479 1d90 77       		.byte	0x77
 8480 1d91 00       		.sleb128 0
 8481 1d92 00       		.byte	0
 8482 1d93 2A       		.uleb128 0x2a
 8483 1d94 FE000000 		.4byte	.LVL102
 8484 1d98 99430000 		.4byte	0x4399
 8485 1d9c 2B       		.uleb128 0x2b
 8486 1d9d 01       		.uleb128 0x1
 8487 1d9e 50       		.byte	0x50
 8488 1d9f 02       		.uleb128 0x2
 8489 1da0 76       		.byte	0x76
 8490 1da1 00       		.sleb128 0
 8491 1da2 00       		.byte	0
 8492 1da3 00       		.byte	0
 8493 1da4 00       		.byte	0
 8494 1da5 48       		.uleb128 0x48
 8495 1da6 EF0F0000 		.4byte	0xfef
 8496 1daa 0C010000 		.4byte	.LBB201
 8497 1dae 1E000000 		.4byte	.LBE201-.LBB201
 8498 1db2 01       		.byte	0x1
 8499 1db3 0F07     		.2byte	0x70f
 8500 1db5 0A1E0000 		.4byte	0x1e0a
 8501 1db9 30       		.uleb128 0x30
 8502 1dba 14100000 		.4byte	0x1014
 8503 1dbe EB0D0000 		.4byte	.LLST38
 8504 1dc2 30       		.uleb128 0x30
 8505 1dc3 09100000 		.4byte	0x1009
 8506 1dc7 0B0E0000 		.4byte	.LLST39
 8507 1dcb 30       		.uleb128 0x30
 8508 1dcc FF0F0000 		.4byte	0xfff
 8509 1dd0 1E0E0000 		.4byte	.LLST40
 8510 1dd4 31       		.uleb128 0x31
 8511 1dd5 0C010000 		.4byte	.LBB202
 8512 1dd9 1E000000 		.4byte	.LBE202-.LBB202
 8513 1ddd 32       		.uleb128 0x32
 8514 1dde 1F100000 		.4byte	0x101f
 8515 1de2 310E0000 		.4byte	.LLST41
 8516 1de6 32       		.uleb128 0x32
 8517 1de7 29100000 		.4byte	0x1029
 8518 1deb 440E0000 		.4byte	.LLST42
 8519 1def 32       		.uleb128 0x32
 8520 1df0 33100000 		.4byte	0x1033
 8521 1df4 570E0000 		.4byte	.LLST43
 8522 1df8 2A       		.uleb128 0x2a
 8523 1df9 1C010000 		.4byte	.LVL108
 8524 1dfd 8E430000 		.4byte	0x438e
 8525 1e01 2B       		.uleb128 0x2b
 8526 1e02 01       		.uleb128 0x1
 8527 1e03 50       		.byte	0x50
 8528 1e04 02       		.uleb128 0x2
 8529 1e05 76       		.byte	0x76
 8530 1e06 00       		.sleb128 0
 8531 1e07 00       		.byte	0
ARM GAS  C:\Users\164\AppData\Local\Temp\ccd4XrSZ.s 			page 198


 8532 1e08 00       		.byte	0
 8533 1e09 00       		.byte	0
 8534 1e0a 48       		.uleb128 0x48
 8535 1e0b C4080000 		.4byte	0x8c4
 8536 1e0f 30010000 		.4byte	.LBB203
 8537 1e13 20000000 		.4byte	.LBE203-.LBB203
 8538 1e17 01       		.byte	0x1
 8539 1e18 1007     		.2byte	0x710
 8540 1e1a 5D1E0000 		.4byte	0x1e5d
 8541 1e1e 30       		.uleb128 0x30
 8542 1e1f E9080000 		.4byte	0x8e9
 8543 1e23 7F0E0000 		.4byte	.LLST44
 8544 1e27 30       		.uleb128 0x30
 8545 1e28 DE080000 		.4byte	0x8de
 8546 1e2c 920E0000 		.4byte	.LLST45
 8547 1e30 30       		.uleb128 0x30
 8548 1e31 D4080000 		.4byte	0x8d4
 8549 1e35 A50E0000 		.4byte	.LLST46
 8550 1e39 31       		.uleb128 0x31
 8551 1e3a 30010000 		.4byte	.LBB204
 8552 1e3e 20000000 		.4byte	.LBE204-.LBB204
 8553 1e42 32       		.uleb128 0x32
 8554 1e43 F4080000 		.4byte	0x8f4
 8555 1e47 B80E0000 		.4byte	.LLST47
 8556 1e4b 2A       		.uleb128 0x2a
 8557 1e4c 3E010000 		.4byte	.LVL115
 8558 1e50 8E430000 		.4byte	0x438e
 8559 1e54 2B       		.uleb128 0x2b
 8560 1e55 01       		.uleb128 0x1
 8561 1e56 50       		.byte	0x50
 8562 1e57 02       		.uleb128 0x2
 8563 1e58 78       		.byte	0x78
 8564 1e59 00       		.sleb128 0
 8565 1e5a 00       		.byte	0
 8566 1e5b 00       		.byte	0
 8567 1e5c 00       		.byte	0
 8568 1e5d 48       		.uleb128 0x48
 8569 1e5e 3F100000 		.4byte	0x103f
 8570 1e62 56010000 		.4byte	.LBB205
 8571 1e66 26000000 		.4byte	.LBE205-.LBB205
 8572 1e6a 01       		.byte	0x1
 8573 1e6b 1107     		.2byte	0x711
 8574 1e6d EE1E0000 		.4byte	0x1eee
 8575 1e71 30       		.uleb128 0x30
 8576 1e72 64100000 		.4byte	0x1064
 8577 1e76 DA0E0000 		.4byte	.LLST48
 8578 1e7a 30       		.uleb128 0x30
 8579 1e7b 59100000 		.4byte	0x1059
 8580 1e7f ED0E0000 		.4byte	.LLST49
 8581 1e83 30       		.uleb128 0x30
 8582 1e84 4F100000 		.4byte	0x104f
 8583 1e88 000F0000 		.4byte	.LLST50
 8584 1e8c 31       		.uleb128 0x31
 8585 1e8d 56010000 		.4byte	.LBB206
 8586 1e91 26000000 		.4byte	.LBE206-.LBB206
 8587 1e95 32       		.uleb128 0x32
 8588 1e96 6F100000 		.4byte	0x106f
ARM GAS  C:\Users\164\AppData\Local\Temp\ccd4XrSZ.s 			page 199


 8589 1e9a 130F0000 		.4byte	.LLST51
 8590 1e9e 32       		.uleb128 0x32
 8591 1e9f 79100000 		.4byte	0x1079
 8592 1ea3 260F0000 		.4byte	.LLST52
 8593 1ea7 32       		.uleb128 0x32
 8594 1ea8 83100000 		.4byte	0x1083
 8595 1eac 5F0F0000 		.4byte	.LLST53
 8596 1eb0 32       		.uleb128 0x32
 8597 1eb1 8E100000 		.4byte	0x108e
 8598 1eb5 720F0000 		.4byte	.LLST54
 8599 1eb9 40       		.uleb128 0x40
 8600 1eba 64010000 		.4byte	.LVL122
 8601 1ebe A20B0000 		.4byte	0xba2
 8602 1ec2 D31E0000 		.4byte	0x1ed3
 8603 1ec6 2B       		.uleb128 0x2b
 8604 1ec7 01       		.uleb128 0x1
 8605 1ec8 51       		.byte	0x51
 8606 1ec9 08       		.uleb128 0x8
 8607 1eca 74       		.byte	0x74
 8608 1ecb 00       		.sleb128 0
 8609 1ecc 09       		.byte	0x9
 8610 1ecd ED       		.byte	0xed
 8611 1ece 24       		.byte	0x24
 8612 1ecf 09       		.byte	0x9
 8613 1ed0 F4       		.byte	0xf4
 8614 1ed1 25       		.byte	0x25
 8615 1ed2 00       		.byte	0
 8616 1ed3 35       		.uleb128 0x35
 8617 1ed4 68010000 		.4byte	.LVL123
 8618 1ed8 A4430000 		.4byte	0x43a4
 8619 1edc 2A       		.uleb128 0x2a
 8620 1edd 74010000 		.4byte	.LVL127
 8621 1ee1 8E430000 		.4byte	0x438e
 8622 1ee5 2B       		.uleb128 0x2b
 8623 1ee6 01       		.uleb128 0x1
 8624 1ee7 50       		.byte	0x50
 8625 1ee8 02       		.uleb128 0x2
 8626 1ee9 77       		.byte	0x77
 8627 1eea 00       		.sleb128 0
 8628 1eeb 00       		.byte	0
 8629 1eec 00       		.byte	0
 8630 1eed 00       		.byte	0
 8631 1eee 48       		.uleb128 0x48
 8632 1eef FF080000 		.4byte	0x8ff
 8633 1ef3 82010000 		.4byte	.LBB207
 8634 1ef7 0E000000 		.4byte	.LBE207-.LBB207
 8635 1efb 01       		.byte	0x1
 8636 1efc 1207     		.2byte	0x712
 8637 1efe 441F0000 		.4byte	0x1f44
 8638 1f02 30       		.uleb128 0x30
 8639 1f03 27090000 		.4byte	0x927
 8640 1f07 850F0000 		.4byte	.LLST55
 8641 1f0b 30       		.uleb128 0x30
 8642 1f0c 1B090000 		.4byte	0x91b
 8643 1f10 980F0000 		.4byte	.LLST56
 8644 1f14 30       		.uleb128 0x30
 8645 1f15 10090000 		.4byte	0x910
ARM GAS  C:\Users\164\AppData\Local\Temp\ccd4XrSZ.s 			page 200


 8646 1f19 AB0F0000 		.4byte	.LLST57
 8647 1f1d 31       		.uleb128 0x31
 8648 1f1e 82010000 		.4byte	.LBB208
 8649 1f22 0E000000 		.4byte	.LBE208-.LBB208
 8650 1f26 32       		.uleb128 0x32
 8651 1f27 33090000 		.4byte	0x933
 8652 1f2b BE0F0000 		.4byte	.LLST58
 8653 1f2f 2A       		.uleb128 0x2a
 8654 1f30 8C010000 		.4byte	.LVL132
 8655 1f34 8E430000 		.4byte	0x438e
 8656 1f38 2B       		.uleb128 0x2b
 8657 1f39 01       		.uleb128 0x1
 8658 1f3a 50       		.byte	0x50
 8659 1f3b 05       		.uleb128 0x5
 8660 1f3c 76       		.byte	0x76
 8661 1f3d 00       		.sleb128 0
 8662 1f3e 74       		.byte	0x74
 8663 1f3f 00       		.sleb128 0
 8664 1f40 22       		.byte	0x22
 8665 1f41 00       		.byte	0
 8666 1f42 00       		.byte	0
 8667 1f43 00       		.byte	0
 8668 1f44 48       		.uleb128 0x48
 8669 1f45 9A100000 		.4byte	0x109a
 8670 1f49 96010000 		.4byte	.LBB209
 8671 1f4d 1A000000 		.4byte	.LBE209-.LBB209
 8672 1f51 01       		.byte	0x1
 8673 1f52 1307     		.2byte	0x713
 8674 1f54 AB1F0000 		.4byte	0x1fab
 8675 1f58 30       		.uleb128 0x30
 8676 1f59 C2100000 		.4byte	0x10c2
 8677 1f5d D10F0000 		.4byte	.LLST59
 8678 1f61 30       		.uleb128 0x30
 8679 1f62 B6100000 		.4byte	0x10b6
 8680 1f66 E40F0000 		.4byte	.LLST60
 8681 1f6a 30       		.uleb128 0x30
 8682 1f6b AB100000 		.4byte	0x10ab
 8683 1f6f F70F0000 		.4byte	.LLST61
 8684 1f73 31       		.uleb128 0x31
 8685 1f74 96010000 		.4byte	.LBB210
 8686 1f78 1A000000 		.4byte	.LBE210-.LBB210
 8687 1f7c 32       		.uleb128 0x32
 8688 1f7d CE100000 		.4byte	0x10ce
 8689 1f81 0A100000 		.4byte	.LLST62
 8690 1f85 40       		.uleb128 0x40
 8691 1f86 A2010000 		.4byte	.LVL137
 8692 1f8a 8E430000 		.4byte	0x438e
 8693 1f8e 991F0000 		.4byte	0x1f99
 8694 1f92 2B       		.uleb128 0x2b
 8695 1f93 01       		.uleb128 0x1
 8696 1f94 50       		.byte	0x50
 8697 1f95 02       		.uleb128 0x2
 8698 1f96 74       		.byte	0x74
 8699 1f97 00       		.sleb128 0
 8700 1f98 00       		.byte	0
 8701 1f99 2A       		.uleb128 0x2a
 8702 1f9a A8010000 		.4byte	.LVL138
ARM GAS  C:\Users\164\AppData\Local\Temp\ccd4XrSZ.s 			page 201


 8703 1f9e 99430000 		.4byte	0x4399
 8704 1fa2 2B       		.uleb128 0x2b
 8705 1fa3 01       		.uleb128 0x1
 8706 1fa4 50       		.byte	0x50
 8707 1fa5 02       		.uleb128 0x2
 8708 1fa6 76       		.byte	0x76
 8709 1fa7 00       		.sleb128 0
 8710 1fa8 00       		.byte	0
 8711 1fa9 00       		.byte	0
 8712 1faa 00       		.byte	0
 8713 1fab 48       		.uleb128 0x48
 8714 1fac 3F090000 		.4byte	0x93f
 8715 1fb0 B6010000 		.4byte	.LBB211
 8716 1fb4 0E000000 		.4byte	.LBE211-.LBB211
 8717 1fb8 01       		.byte	0x1
 8718 1fb9 1407     		.2byte	0x714
 8719 1fbb 01200000 		.4byte	0x2001
 8720 1fbf 30       		.uleb128 0x30
 8721 1fc0 67090000 		.4byte	0x967
 8722 1fc4 1D100000 		.4byte	.LLST63
 8723 1fc8 30       		.uleb128 0x30
 8724 1fc9 5B090000 		.4byte	0x95b
 8725 1fcd 30100000 		.4byte	.LLST64
 8726 1fd1 30       		.uleb128 0x30
 8727 1fd2 50090000 		.4byte	0x950
 8728 1fd6 43100000 		.4byte	.LLST65
 8729 1fda 31       		.uleb128 0x31
 8730 1fdb B6010000 		.4byte	.LBB212
 8731 1fdf 0E000000 		.4byte	.LBE212-.LBB212
 8732 1fe3 32       		.uleb128 0x32
 8733 1fe4 73090000 		.4byte	0x973
 8734 1fe8 56100000 		.4byte	.LLST66
 8735 1fec 2A       		.uleb128 0x2a
 8736 1fed C0010000 		.4byte	.LVL143
 8737 1ff1 8E430000 		.4byte	0x438e
 8738 1ff5 2B       		.uleb128 0x2b
 8739 1ff6 01       		.uleb128 0x1
 8740 1ff7 50       		.byte	0x50
 8741 1ff8 05       		.uleb128 0x5
 8742 1ff9 76       		.byte	0x76
 8743 1ffa 00       		.sleb128 0
 8744 1ffb 74       		.byte	0x74
 8745 1ffc 00       		.sleb128 0
 8746 1ffd 22       		.byte	0x22
 8747 1ffe 00       		.byte	0
 8748 1fff 00       		.byte	0
 8749 2000 00       		.byte	0
 8750 2001 48       		.uleb128 0x48
 8751 2002 7F090000 		.4byte	0x97f
 8752 2006 CA010000 		.4byte	.LBB213
 8753 200a 0E000000 		.4byte	.LBE213-.LBB213
 8754 200e 01       		.byte	0x1
 8755 200f 1507     		.2byte	0x715
 8756 2011 57200000 		.4byte	0x2057
 8757 2015 30       		.uleb128 0x30
 8758 2016 A7090000 		.4byte	0x9a7
 8759 201a 69100000 		.4byte	.LLST67
ARM GAS  C:\Users\164\AppData\Local\Temp\ccd4XrSZ.s 			page 202


 8760 201e 30       		.uleb128 0x30
 8761 201f 9B090000 		.4byte	0x99b
 8762 2023 7C100000 		.4byte	.LLST68
 8763 2027 30       		.uleb128 0x30
 8764 2028 90090000 		.4byte	0x990
 8765 202c 8F100000 		.4byte	.LLST69
 8766 2030 31       		.uleb128 0x31
 8767 2031 CA010000 		.4byte	.LBB214
 8768 2035 0E000000 		.4byte	.LBE214-.LBB214
 8769 2039 32       		.uleb128 0x32
 8770 203a B3090000 		.4byte	0x9b3
 8771 203e A2100000 		.4byte	.LLST70
 8772 2042 2A       		.uleb128 0x2a
 8773 2043 D4010000 		.4byte	.LVL148
 8774 2047 8E430000 		.4byte	0x438e
 8775 204b 2B       		.uleb128 0x2b
 8776 204c 01       		.uleb128 0x1
 8777 204d 50       		.byte	0x50
 8778 204e 05       		.uleb128 0x5
 8779 204f 76       		.byte	0x76
 8780 2050 00       		.sleb128 0
 8781 2051 74       		.byte	0x74
 8782 2052 00       		.sleb128 0
 8783 2053 22       		.byte	0x22
 8784 2054 00       		.byte	0
 8785 2055 00       		.byte	0
 8786 2056 00       		.byte	0
 8787 2057 48       		.uleb128 0x48
 8788 2058 DA100000 		.4byte	0x10da
 8789 205c DE010000 		.4byte	.LBB215
 8790 2060 30000000 		.4byte	.LBE215-.LBB215
 8791 2064 01       		.byte	0x1
 8792 2065 1607     		.2byte	0x716
 8793 2067 02210000 		.4byte	0x2102
 8794 206b 30       		.uleb128 0x30
 8795 206c 02110000 		.4byte	0x1102
 8796 2070 B5100000 		.4byte	.LLST71
 8797 2074 30       		.uleb128 0x30
 8798 2075 F6100000 		.4byte	0x10f6
 8799 2079 C8100000 		.4byte	.LLST72
 8800 207d 30       		.uleb128 0x30
 8801 207e EB100000 		.4byte	0x10eb
 8802 2082 DB100000 		.4byte	.LLST73
 8803 2086 31       		.uleb128 0x31
 8804 2087 DE010000 		.4byte	.LBB216
 8805 208b 30000000 		.4byte	.LBE216-.LBB216
 8806 208f 32       		.uleb128 0x32
 8807 2090 0E110000 		.4byte	0x110e
 8808 2094 EE100000 		.4byte	.LLST74
 8809 2098 32       		.uleb128 0x32
 8810 2099 19110000 		.4byte	0x1119
 8811 209d 01110000 		.4byte	.LLST75
 8812 20a1 32       		.uleb128 0x32
 8813 20a2 24110000 		.4byte	0x1124
 8814 20a6 3A110000 		.4byte	.LLST76
 8815 20aa 32       		.uleb128 0x32
 8816 20ab 30110000 		.4byte	0x1130
ARM GAS  C:\Users\164\AppData\Local\Temp\ccd4XrSZ.s 			page 203


 8817 20af 4D110000 		.4byte	.LLST77
 8818 20b3 40       		.uleb128 0x40
 8819 20b4 EC010000 		.4byte	.LVL154
 8820 20b8 A20B0000 		.4byte	0xba2
 8821 20bc CD200000 		.4byte	0x20cd
 8822 20c0 2B       		.uleb128 0x2b
 8823 20c1 01       		.uleb128 0x1
 8824 20c2 51       		.byte	0x51
 8825 20c3 08       		.uleb128 0x8
 8826 20c4 74       		.byte	0x74
 8827 20c5 00       		.sleb128 0
 8828 20c6 09       		.byte	0x9
 8829 20c7 ED       		.byte	0xed
 8830 20c8 24       		.byte	0x24
 8831 20c9 09       		.byte	0x9
 8832 20ca F4       		.byte	0xf4
 8833 20cb 25       		.byte	0x25
 8834 20cc 00       		.byte	0
 8835 20cd 35       		.uleb128 0x35
 8836 20ce F0010000 		.4byte	.LVL155
 8837 20d2 A4430000 		.4byte	0x43a4
 8838 20d6 40       		.uleb128 0x40
 8839 20d7 FC010000 		.4byte	.LVL158
 8840 20db 8E430000 		.4byte	0x438e
 8841 20df EA200000 		.4byte	0x20ea
 8842 20e3 2B       		.uleb128 0x2b
 8843 20e4 01       		.uleb128 0x1
 8844 20e5 50       		.byte	0x50
 8845 20e6 02       		.uleb128 0x2
 8846 20e7 76       		.byte	0x76
 8847 20e8 00       		.sleb128 0
 8848 20e9 00       		.byte	0
 8849 20ea 2A       		.uleb128 0x2a
 8850 20eb 06020000 		.4byte	.LVL160
 8851 20ef AF430000 		.4byte	0x43af
 8852 20f3 2B       		.uleb128 0x2b
 8853 20f4 01       		.uleb128 0x1
 8854 20f5 50       		.byte	0x50
 8855 20f6 02       		.uleb128 0x2
 8856 20f7 74       		.byte	0x74
 8857 20f8 00       		.sleb128 0
 8858 20f9 2B       		.uleb128 0x2b
 8859 20fa 01       		.uleb128 0x1
 8860 20fb 51       		.byte	0x51
 8861 20fc 02       		.uleb128 0x2
 8862 20fd 78       		.byte	0x78
 8863 20fe 00       		.sleb128 0
 8864 20ff 00       		.byte	0
 8865 2100 00       		.byte	0
 8866 2101 00       		.byte	0
 8867 2102 48       		.uleb128 0x48
 8868 2103 3D110000 		.4byte	0x113d
 8869 2107 14020000 		.4byte	.LBB217
 8870 210b 2E000000 		.4byte	.LBE217-.LBB217
 8871 210f 01       		.byte	0x1
 8872 2110 1707     		.2byte	0x717
 8873 2112 93210000 		.4byte	0x2193
ARM GAS  C:\Users\164\AppData\Local\Temp\ccd4XrSZ.s 			page 204


 8874 2116 30       		.uleb128 0x30
 8875 2117 65110000 		.4byte	0x1165
 8876 211b 60110000 		.4byte	.LLST78
 8877 211f 30       		.uleb128 0x30
 8878 2120 59110000 		.4byte	0x1159
 8879 2124 73110000 		.4byte	.LLST79
 8880 2128 30       		.uleb128 0x30
 8881 2129 4E110000 		.4byte	0x114e
 8882 212d 86110000 		.4byte	.LLST80
 8883 2131 31       		.uleb128 0x31
 8884 2132 14020000 		.4byte	.LBB218
 8885 2136 2E000000 		.4byte	.LBE218-.LBB218
 8886 213a 32       		.uleb128 0x32
 8887 213b 71110000 		.4byte	0x1171
 8888 213f 99110000 		.4byte	.LLST81
 8889 2143 32       		.uleb128 0x32
 8890 2144 7C110000 		.4byte	0x117c
 8891 2148 AC110000 		.4byte	.LLST82
 8892 214c 32       		.uleb128 0x32
 8893 214d 87110000 		.4byte	0x1187
 8894 2151 E5110000 		.4byte	.LLST83
 8895 2155 32       		.uleb128 0x32
 8896 2156 93110000 		.4byte	0x1193
 8897 215a F8110000 		.4byte	.LLST84
 8898 215e 40       		.uleb128 0x40
 8899 215f 22020000 		.4byte	.LVL167
 8900 2163 A20B0000 		.4byte	0xba2
 8901 2167 78210000 		.4byte	0x2178
 8902 216b 2B       		.uleb128 0x2b
 8903 216c 01       		.uleb128 0x1
 8904 216d 51       		.byte	0x51
 8905 216e 08       		.uleb128 0x8
 8906 216f 74       		.byte	0x74
 8907 2170 00       		.sleb128 0
 8908 2171 09       		.byte	0x9
 8909 2172 ED       		.byte	0xed
 8910 2173 24       		.byte	0x24
 8911 2174 09       		.byte	0x9
 8912 2175 F4       		.byte	0xf4
 8913 2176 25       		.byte	0x25
 8914 2177 00       		.byte	0
 8915 2178 35       		.uleb128 0x35
 8916 2179 26020000 		.4byte	.LVL168
 8917 217d A4430000 		.4byte	0x43a4
 8918 2181 2A       		.uleb128 0x2a
 8919 2182 42020000 		.4byte	.LVL171
 8920 2186 BA430000 		.4byte	0x43ba
 8921 218a 2B       		.uleb128 0x2b
 8922 218b 01       		.uleb128 0x1
 8923 218c 50       		.byte	0x50
 8924 218d 02       		.uleb128 0x2
 8925 218e 74       		.byte	0x74
 8926 218f 00       		.sleb128 0
 8927 2190 00       		.byte	0
 8928 2191 00       		.byte	0
 8929 2192 00       		.byte	0
 8930 2193 48       		.uleb128 0x48
ARM GAS  C:\Users\164\AppData\Local\Temp\ccd4XrSZ.s 			page 205


 8931 2194 A0110000 		.4byte	0x11a0
 8932 2198 48020000 		.4byte	.LBB219
 8933 219c 32000000 		.4byte	.LBE219-.LBB219
 8934 21a0 01       		.byte	0x1
 8935 21a1 1807     		.2byte	0x718
 8936 21a3 46220000 		.4byte	0x2246
 8937 21a7 30       		.uleb128 0x30
 8938 21a8 C8110000 		.4byte	0x11c8
 8939 21ac 0B120000 		.4byte	.LLST85
 8940 21b0 30       		.uleb128 0x30
 8941 21b1 BC110000 		.4byte	0x11bc
 8942 21b5 1E120000 		.4byte	.LLST86
 8943 21b9 30       		.uleb128 0x30
 8944 21ba B1110000 		.4byte	0x11b1
 8945 21be 31120000 		.4byte	.LLST87
 8946 21c2 31       		.uleb128 0x31
 8947 21c3 48020000 		.4byte	.LBB220
 8948 21c7 32000000 		.4byte	.LBE220-.LBB220
 8949 21cb 32       		.uleb128 0x32
 8950 21cc D4110000 		.4byte	0x11d4
 8951 21d0 44120000 		.4byte	.LLST88
 8952 21d4 32       		.uleb128 0x32
 8953 21d5 DF110000 		.4byte	0x11df
 8954 21d9 57120000 		.4byte	.LLST89
 8955 21dd 32       		.uleb128 0x32
 8956 21de EA110000 		.4byte	0x11ea
 8957 21e2 90120000 		.4byte	.LLST90
 8958 21e6 32       		.uleb128 0x32
 8959 21e7 F6110000 		.4byte	0x11f6
 8960 21eb B0120000 		.4byte	.LLST91
 8961 21ef 49       		.uleb128 0x49
 8962 21f0 02120000 		.4byte	0x1202
 8963 21f4 02       		.uleb128 0x2
 8964 21f5 91       		.byte	0x91
 8965 21f6 48       		.sleb128 -56
 8966 21f7 40       		.uleb128 0x40
 8967 21f8 56020000 		.4byte	.LVL177
 8968 21fc A20B0000 		.4byte	0xba2
 8969 2200 11220000 		.4byte	0x2211
 8970 2204 2B       		.uleb128 0x2b
 8971 2205 01       		.uleb128 0x1
 8972 2206 51       		.byte	0x51
 8973 2207 08       		.uleb128 0x8
 8974 2208 74       		.byte	0x74
 8975 2209 00       		.sleb128 0
 8976 220a 09       		.byte	0x9
 8977 220b ED       		.byte	0xed
 8978 220c 24       		.byte	0x24
 8979 220d 09       		.byte	0x9
 8980 220e F4       		.byte	0xf4
 8981 220f 25       		.byte	0x25
 8982 2210 00       		.byte	0
 8983 2211 35       		.uleb128 0x35
 8984 2212 5C020000 		.4byte	.LVL179
 8985 2216 A4430000 		.4byte	0x43a4
 8986 221a 40       		.uleb128 0x40
 8987 221b 68020000 		.4byte	.LVL182
ARM GAS  C:\Users\164\AppData\Local\Temp\ccd4XrSZ.s 			page 206


 8988 221f C5430000 		.4byte	0x43c5
 8989 2223 34220000 		.4byte	0x2234
 8990 2227 2B       		.uleb128 0x2b
 8991 2228 01       		.uleb128 0x1
 8992 2229 50       		.byte	0x50
 8993 222a 02       		.uleb128 0x2
 8994 222b 74       		.byte	0x74
 8995 222c 00       		.sleb128 0
 8996 222d 2B       		.uleb128 0x2b
 8997 222e 01       		.uleb128 0x1
 8998 222f 51       		.byte	0x51
 8999 2230 02       		.uleb128 0x2
 9000 2231 76       		.byte	0x76
 9001 2232 00       		.sleb128 0
 9002 2233 00       		.byte	0
 9003 2234 2A       		.uleb128 0x2a
 9004 2235 72020000 		.4byte	.LVL184
 9005 2239 8E430000 		.4byte	0x438e
 9006 223d 2B       		.uleb128 0x2b
 9007 223e 01       		.uleb128 0x1
 9008 223f 50       		.byte	0x50
 9009 2240 02       		.uleb128 0x2
 9010 2241 76       		.byte	0x76
 9011 2242 00       		.sleb128 0
 9012 2243 00       		.byte	0
 9013 2244 00       		.byte	0
 9014 2245 00       		.byte	0
 9015 2246 48       		.uleb128 0x48
 9016 2247 0F120000 		.4byte	0x120f
 9017 224b 80020000 		.4byte	.LBB221
 9018 224f 20000000 		.4byte	.LBE221-.LBB221
 9019 2253 01       		.byte	0x1
 9020 2254 1907     		.2byte	0x719
 9021 2256 E2220000 		.4byte	0x22e2
 9022 225a 30       		.uleb128 0x30
 9023 225b 37120000 		.4byte	0x1237
 9024 225f C3120000 		.4byte	.LLST92
 9025 2263 30       		.uleb128 0x30
 9026 2264 2B120000 		.4byte	0x122b
 9027 2268 D6120000 		.4byte	.LLST93
 9028 226c 30       		.uleb128 0x30
 9029 226d 20120000 		.4byte	0x1220
 9030 2271 E9120000 		.4byte	.LLST94
 9031 2275 31       		.uleb128 0x31
 9032 2276 80020000 		.4byte	.LBB222
 9033 227a 20000000 		.4byte	.LBE222-.LBB222
 9034 227e 32       		.uleb128 0x32
 9035 227f 43120000 		.4byte	0x1243
 9036 2283 FC120000 		.4byte	.LLST95
 9037 2287 32       		.uleb128 0x32
 9038 2288 4E120000 		.4byte	0x124e
 9039 228c 1E130000 		.4byte	.LLST96
 9040 2290 32       		.uleb128 0x32
 9041 2291 59120000 		.4byte	0x1259
 9042 2295 57130000 		.4byte	.LLST97
 9043 2299 32       		.uleb128 0x32
 9044 229a 65120000 		.4byte	0x1265
ARM GAS  C:\Users\164\AppData\Local\Temp\ccd4XrSZ.s 			page 207


 9045 229e 77130000 		.4byte	.LLST98
 9046 22a2 40       		.uleb128 0x40
 9047 22a3 8E020000 		.4byte	.LVL191
 9048 22a7 A20B0000 		.4byte	0xba2
 9049 22ab BC220000 		.4byte	0x22bc
 9050 22af 2B       		.uleb128 0x2b
 9051 22b0 01       		.uleb128 0x1
 9052 22b1 51       		.byte	0x51
 9053 22b2 08       		.uleb128 0x8
 9054 22b3 74       		.byte	0x74
 9055 22b4 00       		.sleb128 0
 9056 22b5 09       		.byte	0x9
 9057 22b6 ED       		.byte	0xed
 9058 22b7 24       		.byte	0x24
 9059 22b8 09       		.byte	0x9
 9060 22b9 F4       		.byte	0xf4
 9061 22ba 25       		.byte	0x25
 9062 22bb 00       		.byte	0
 9063 22bc 35       		.uleb128 0x35
 9064 22bd 94020000 		.4byte	.LVL193
 9065 22c1 A4430000 		.4byte	0x43a4
 9066 22c5 2A       		.uleb128 0x2a
 9067 22c6 A0020000 		.4byte	.LVL195
 9068 22ca D0430000 		.4byte	0x43d0
 9069 22ce 2B       		.uleb128 0x2b
 9070 22cf 01       		.uleb128 0x1
 9071 22d0 50       		.byte	0x50
 9072 22d1 02       		.uleb128 0x2
 9073 22d2 76       		.byte	0x76
 9074 22d3 00       		.sleb128 0
 9075 22d4 2B       		.uleb128 0x2b
 9076 22d5 01       		.uleb128 0x1
 9077 22d6 52       		.byte	0x52
 9078 22d7 07       		.uleb128 0x7
 9079 22d8 77       		.byte	0x77
 9080 22d9 00       		.sleb128 0
 9081 22da 34       		.byte	0x34
 9082 22db 24       		.byte	0x24
 9083 22dc 76       		.byte	0x76
 9084 22dd 00       		.sleb128 0
 9085 22de 22       		.byte	0x22
 9086 22df 00       		.byte	0
 9087 22e0 00       		.byte	0
 9088 22e1 00       		.byte	0
 9089 22e2 48       		.uleb128 0x48
 9090 22e3 72120000 		.4byte	0x1272
 9091 22e7 A6020000 		.4byte	.LBB223
 9092 22eb 30000000 		.4byte	.LBE223-.LBB223
 9093 22ef 01       		.byte	0x1
 9094 22f0 1A07     		.2byte	0x71a
 9095 22f2 8D230000 		.4byte	0x238d
 9096 22f6 30       		.uleb128 0x30
 9097 22f7 9A120000 		.4byte	0x129a
 9098 22fb 8A130000 		.4byte	.LLST99
 9099 22ff 30       		.uleb128 0x30
 9100 2300 8E120000 		.4byte	0x128e
 9101 2304 9D130000 		.4byte	.LLST100
ARM GAS  C:\Users\164\AppData\Local\Temp\ccd4XrSZ.s 			page 208


 9102 2308 30       		.uleb128 0x30
 9103 2309 83120000 		.4byte	0x1283
 9104 230d B0130000 		.4byte	.LLST101
 9105 2311 31       		.uleb128 0x31
 9106 2312 A6020000 		.4byte	.LBB224
 9107 2316 30000000 		.4byte	.LBE224-.LBB224
 9108 231a 32       		.uleb128 0x32
 9109 231b A6120000 		.4byte	0x12a6
 9110 231f C3130000 		.4byte	.LLST102
 9111 2323 32       		.uleb128 0x32
 9112 2324 B1120000 		.4byte	0x12b1
 9113 2328 D6130000 		.4byte	.LLST103
 9114 232c 32       		.uleb128 0x32
 9115 232d BC120000 		.4byte	0x12bc
 9116 2331 0F140000 		.4byte	.LLST104
 9117 2335 32       		.uleb128 0x32
 9118 2336 C8120000 		.4byte	0x12c8
 9119 233a 22140000 		.4byte	.LLST105
 9120 233e 40       		.uleb128 0x40
 9121 233f B4020000 		.4byte	.LVL201
 9122 2343 A20B0000 		.4byte	0xba2
 9123 2347 58230000 		.4byte	0x2358
 9124 234b 2B       		.uleb128 0x2b
 9125 234c 01       		.uleb128 0x1
 9126 234d 51       		.byte	0x51
 9127 234e 08       		.uleb128 0x8
 9128 234f 74       		.byte	0x74
 9129 2350 00       		.sleb128 0
 9130 2351 09       		.byte	0x9
 9131 2352 ED       		.byte	0xed
 9132 2353 24       		.byte	0x24
 9133 2354 09       		.byte	0x9
 9134 2355 F4       		.byte	0xf4
 9135 2356 25       		.byte	0x25
 9136 2357 00       		.byte	0
 9137 2358 35       		.uleb128 0x35
 9138 2359 B8020000 		.4byte	.LVL202
 9139 235d A4430000 		.4byte	0x43a4
 9140 2361 40       		.uleb128 0x40
 9141 2362 C4020000 		.4byte	.LVL205
 9142 2366 8E430000 		.4byte	0x438e
 9143 236a 75230000 		.4byte	0x2375
 9144 236e 2B       		.uleb128 0x2b
 9145 236f 01       		.uleb128 0x1
 9146 2370 50       		.byte	0x50
 9147 2371 02       		.uleb128 0x2
 9148 2372 76       		.byte	0x76
 9149 2373 00       		.sleb128 0
 9150 2374 00       		.byte	0
 9151 2375 2A       		.uleb128 0x2a
 9152 2376 CE020000 		.4byte	.LVL207
 9153 237a DB430000 		.4byte	0x43db
 9154 237e 2B       		.uleb128 0x2b
 9155 237f 01       		.uleb128 0x1
 9156 2380 50       		.byte	0x50
 9157 2381 02       		.uleb128 0x2
 9158 2382 74       		.byte	0x74
ARM GAS  C:\Users\164\AppData\Local\Temp\ccd4XrSZ.s 			page 209


 9159 2383 00       		.sleb128 0
 9160 2384 2B       		.uleb128 0x2b
 9161 2385 01       		.uleb128 0x1
 9162 2386 51       		.byte	0x51
 9163 2387 02       		.uleb128 0x2
 9164 2388 78       		.byte	0x78
 9165 2389 00       		.sleb128 0
 9166 238a 00       		.byte	0
 9167 238b 00       		.byte	0
 9168 238c 00       		.byte	0
 9169 238d 48       		.uleb128 0x48
 9170 238e D5120000 		.4byte	0x12d5
 9171 2392 DC020000 		.4byte	.LBB225
 9172 2396 1A000000 		.4byte	.LBE225-.LBB225
 9173 239a 01       		.byte	0x1
 9174 239b 1B07     		.2byte	0x71b
 9175 239d 23240000 		.4byte	0x2423
 9176 23a1 30       		.uleb128 0x30
 9177 23a2 FD120000 		.4byte	0x12fd
 9178 23a6 35140000 		.4byte	.LLST106
 9179 23aa 30       		.uleb128 0x30
 9180 23ab F1120000 		.4byte	0x12f1
 9181 23af 48140000 		.4byte	.LLST107
 9182 23b3 30       		.uleb128 0x30
 9183 23b4 E6120000 		.4byte	0x12e6
 9184 23b8 5B140000 		.4byte	.LLST108
 9185 23bc 31       		.uleb128 0x31
 9186 23bd DC020000 		.4byte	.LBB226
 9187 23c1 1A000000 		.4byte	.LBE226-.LBB226
 9188 23c5 32       		.uleb128 0x32
 9189 23c6 09130000 		.4byte	0x1309
 9190 23ca 6E140000 		.4byte	.LLST109
 9191 23ce 32       		.uleb128 0x32
 9192 23cf 14130000 		.4byte	0x1314
 9193 23d3 90140000 		.4byte	.LLST110
 9194 23d7 32       		.uleb128 0x32
 9195 23d8 1F130000 		.4byte	0x131f
 9196 23dc C9140000 		.4byte	.LLST111
 9197 23e0 32       		.uleb128 0x32
 9198 23e1 2B130000 		.4byte	0x132b
 9199 23e5 DC140000 		.4byte	.LLST112
 9200 23e9 40       		.uleb128 0x40
 9201 23ea EA020000 		.4byte	.LVL214
 9202 23ee A20B0000 		.4byte	0xba2
 9203 23f2 03240000 		.4byte	0x2403
 9204 23f6 2B       		.uleb128 0x2b
 9205 23f7 01       		.uleb128 0x1
 9206 23f8 51       		.byte	0x51
 9207 23f9 08       		.uleb128 0x8
 9208 23fa 74       		.byte	0x74
 9209 23fb 00       		.sleb128 0
 9210 23fc 09       		.byte	0x9
 9211 23fd ED       		.byte	0xed
 9212 23fe 24       		.byte	0x24
 9213 23ff 09       		.byte	0x9
 9214 2400 F4       		.byte	0xf4
 9215 2401 25       		.byte	0x25
ARM GAS  C:\Users\164\AppData\Local\Temp\ccd4XrSZ.s 			page 210


 9216 2402 00       		.byte	0
 9217 2403 35       		.uleb128 0x35
 9218 2404 EE020000 		.4byte	.LVL215
 9219 2408 A4430000 		.4byte	0x43a4
 9220 240c 2A       		.uleb128 0x2a
 9221 240d F6020000 		.4byte	.LVL216
 9222 2411 E6430000 		.4byte	0x43e6
 9223 2415 2B       		.uleb128 0x2b
 9224 2416 01       		.uleb128 0x1
 9225 2417 51       		.byte	0x51
 9226 2418 07       		.uleb128 0x7
 9227 2419 77       		.byte	0x77
 9228 241a 00       		.sleb128 0
 9229 241b 34       		.byte	0x34
 9230 241c 24       		.byte	0x24
 9231 241d 76       		.byte	0x76
 9232 241e 00       		.sleb128 0
 9233 241f 22       		.byte	0x22
 9234 2420 00       		.byte	0
 9235 2421 00       		.byte	0
 9236 2422 00       		.byte	0
 9237 2423 48       		.uleb128 0x48
 9238 2424 38130000 		.4byte	0x1338
 9239 2428 FC020000 		.4byte	.LBB227
 9240 242c 3A000000 		.4byte	.LBE227-.LBB227
 9241 2430 01       		.byte	0x1
 9242 2431 1C07     		.2byte	0x71c
 9243 2433 B7240000 		.4byte	0x24b7
 9244 2437 30       		.uleb128 0x30
 9245 2438 60130000 		.4byte	0x1360
 9246 243c EF140000 		.4byte	.LLST113
 9247 2440 30       		.uleb128 0x30
 9248 2441 54130000 		.4byte	0x1354
 9249 2445 0F150000 		.4byte	.LLST114
 9250 2449 30       		.uleb128 0x30
 9251 244a 49130000 		.4byte	0x1349
 9252 244e 22150000 		.4byte	.LLST115
 9253 2452 31       		.uleb128 0x31
 9254 2453 FC020000 		.4byte	.LBB228
 9255 2457 3A000000 		.4byte	.LBE228-.LBB228
 9256 245b 32       		.uleb128 0x32
 9257 245c 6C130000 		.4byte	0x136c
 9258 2460 35150000 		.4byte	.LLST116
 9259 2464 32       		.uleb128 0x32
 9260 2465 77130000 		.4byte	0x1377
 9261 2469 48150000 		.4byte	.LLST117
 9262 246d 32       		.uleb128 0x32
 9263 246e 82130000 		.4byte	0x1382
 9264 2472 5B150000 		.4byte	.LLST118
 9265 2476 32       		.uleb128 0x32
 9266 2477 8D130000 		.4byte	0x138d
 9267 247b 81150000 		.4byte	.LLST119
 9268 247f 32       		.uleb128 0x32
 9269 2480 99130000 		.4byte	0x1399
 9270 2484 94150000 		.4byte	.LLST120
 9271 2488 32       		.uleb128 0x32
 9272 2489 A3130000 		.4byte	0x13a3
ARM GAS  C:\Users\164\AppData\Local\Temp\ccd4XrSZ.s 			page 211


 9273 248d A7150000 		.4byte	.LLST121
 9274 2491 40       		.uleb128 0x40
 9275 2492 24030000 		.4byte	.LVL229
 9276 2496 8E430000 		.4byte	0x438e
 9277 249a A5240000 		.4byte	0x24a5
 9278 249e 2B       		.uleb128 0x2b
 9279 249f 01       		.uleb128 0x1
 9280 24a0 50       		.byte	0x50
 9281 24a1 02       		.uleb128 0x2
 9282 24a2 76       		.byte	0x76
 9283 24a3 00       		.sleb128 0
 9284 24a4 00       		.byte	0
 9285 24a5 2A       		.uleb128 0x2a
 9286 24a6 2E030000 		.4byte	.LVL231
 9287 24aa 99430000 		.4byte	0x4399
 9288 24ae 2B       		.uleb128 0x2b
 9289 24af 01       		.uleb128 0x1
 9290 24b0 50       		.byte	0x50
 9291 24b1 02       		.uleb128 0x2
 9292 24b2 77       		.byte	0x77
 9293 24b3 00       		.sleb128 0
 9294 24b4 00       		.byte	0
 9295 24b5 00       		.byte	0
 9296 24b6 00       		.byte	0
 9297 24b7 48       		.uleb128 0x48
 9298 24b8 B0130000 		.4byte	0x13b0
 9299 24bc 3C030000 		.4byte	.LBB229
 9300 24c0 3A000000 		.4byte	.LBE229-.LBB229
 9301 24c4 01       		.byte	0x1
 9302 24c5 1D07     		.2byte	0x71d
 9303 24c7 4B250000 		.4byte	0x254b
 9304 24cb 30       		.uleb128 0x30
 9305 24cc D8130000 		.4byte	0x13d8
 9306 24d0 BA150000 		.4byte	.LLST122
 9307 24d4 30       		.uleb128 0x30
 9308 24d5 CC130000 		.4byte	0x13cc
 9309 24d9 CD150000 		.4byte	.LLST123
 9310 24dd 30       		.uleb128 0x30
 9311 24de C1130000 		.4byte	0x13c1
 9312 24e2 E0150000 		.4byte	.LLST124
 9313 24e6 31       		.uleb128 0x31
 9314 24e7 3C030000 		.4byte	.LBB230
 9315 24eb 3A000000 		.4byte	.LBE230-.LBB230
 9316 24ef 32       		.uleb128 0x32
 9317 24f0 E4130000 		.4byte	0x13e4
 9318 24f4 F3150000 		.4byte	.LLST125
 9319 24f8 32       		.uleb128 0x32
 9320 24f9 EF130000 		.4byte	0x13ef
 9321 24fd 06160000 		.4byte	.LLST126
 9322 2501 32       		.uleb128 0x32
 9323 2502 FA130000 		.4byte	0x13fa
 9324 2506 19160000 		.4byte	.LLST127
 9325 250a 32       		.uleb128 0x32
 9326 250b 05140000 		.4byte	0x1405
 9327 250f 3F160000 		.4byte	.LLST128
 9328 2513 32       		.uleb128 0x32
 9329 2514 11140000 		.4byte	0x1411
ARM GAS  C:\Users\164\AppData\Local\Temp\ccd4XrSZ.s 			page 212


 9330 2518 52160000 		.4byte	.LLST129
 9331 251c 32       		.uleb128 0x32
 9332 251d 1B140000 		.4byte	0x141b
 9333 2521 65160000 		.4byte	.LLST130
 9334 2525 40       		.uleb128 0x40
 9335 2526 64030000 		.4byte	.LVL244
 9336 252a 8E430000 		.4byte	0x438e
 9337 252e 39250000 		.4byte	0x2539
 9338 2532 2B       		.uleb128 0x2b
 9339 2533 01       		.uleb128 0x1
 9340 2534 50       		.byte	0x50
 9341 2535 02       		.uleb128 0x2
 9342 2536 74       		.byte	0x74
 9343 2537 00       		.sleb128 0
 9344 2538 00       		.byte	0
 9345 2539 2A       		.uleb128 0x2a
 9346 253a 6E030000 		.4byte	.LVL246
 9347 253e 99430000 		.4byte	0x4399
 9348 2542 2B       		.uleb128 0x2b
 9349 2543 01       		.uleb128 0x1
 9350 2544 50       		.byte	0x50
 9351 2545 02       		.uleb128 0x2
 9352 2546 76       		.byte	0x76
 9353 2547 00       		.sleb128 0
 9354 2548 00       		.byte	0
 9355 2549 00       		.byte	0
 9356 254a 00       		.byte	0
 9357 254b 48       		.uleb128 0x48
 9358 254c BF090000 		.4byte	0x9bf
 9359 2550 7C030000 		.4byte	.LBB231
 9360 2554 0A000000 		.4byte	.LBE231-.LBB231
 9361 2558 01       		.byte	0x1
 9362 2559 1E07     		.2byte	0x71e
 9363 255b 7B250000 		.4byte	0x257b
 9364 255f 30       		.uleb128 0x30
 9365 2560 E7090000 		.4byte	0x9e7
 9366 2564 78160000 		.4byte	.LLST131
 9367 2568 30       		.uleb128 0x30
 9368 2569 DB090000 		.4byte	0x9db
 9369 256d 8B160000 		.4byte	.LLST132
 9370 2571 30       		.uleb128 0x30
 9371 2572 D0090000 		.4byte	0x9d0
 9372 2576 9E160000 		.4byte	.LLST133
 9373 257a 00       		.byte	0
 9374 257b 48       		.uleb128 0x48
 9375 257c F4090000 		.4byte	0x9f4
 9376 2580 8C030000 		.4byte	.LBB233
 9377 2584 16000000 		.4byte	.LBE233-.LBB233
 9378 2588 01       		.byte	0x1
 9379 2589 1F07     		.2byte	0x71f
 9380 258b AB250000 		.4byte	0x25ab
 9381 258f 30       		.uleb128 0x30
 9382 2590 1C0A0000 		.4byte	0xa1c
 9383 2594 B1160000 		.4byte	.LLST134
 9384 2598 30       		.uleb128 0x30
 9385 2599 100A0000 		.4byte	0xa10
 9386 259d CF160000 		.4byte	.LLST135
ARM GAS  C:\Users\164\AppData\Local\Temp\ccd4XrSZ.s 			page 213


 9387 25a1 30       		.uleb128 0x30
 9388 25a2 050A0000 		.4byte	0xa05
 9389 25a6 ED160000 		.4byte	.LLST136
 9390 25aa 00       		.byte	0
 9391 25ab 48       		.uleb128 0x48
 9392 25ac 290A0000 		.4byte	0xa29
 9393 25b0 A8030000 		.4byte	.LBB235
 9394 25b4 16000000 		.4byte	.LBE235-.LBB235
 9395 25b8 01       		.byte	0x1
 9396 25b9 2007     		.2byte	0x720
 9397 25bb DB250000 		.4byte	0x25db
 9398 25bf 30       		.uleb128 0x30
 9399 25c0 510A0000 		.4byte	0xa51
 9400 25c4 0B170000 		.4byte	.LLST137
 9401 25c8 30       		.uleb128 0x30
 9402 25c9 450A0000 		.4byte	0xa45
 9403 25cd 29170000 		.4byte	.LLST138
 9404 25d1 30       		.uleb128 0x30
 9405 25d2 3A0A0000 		.4byte	0xa3a
 9406 25d6 47170000 		.4byte	.LLST139
 9407 25da 00       		.byte	0
 9408 25db 48       		.uleb128 0x48
 9409 25dc 28140000 		.4byte	0x1428
 9410 25e0 C4030000 		.4byte	.LBB237
 9411 25e4 D6000000 		.4byte	.LBE237-.LBB237
 9412 25e8 01       		.byte	0x1
 9413 25e9 2107     		.2byte	0x721
 9414 25eb 6C270000 		.4byte	0x276c
 9415 25ef 30       		.uleb128 0x30
 9416 25f0 50140000 		.4byte	0x1450
 9417 25f4 65170000 		.4byte	.LLST140
 9418 25f8 30       		.uleb128 0x30
 9419 25f9 44140000 		.4byte	0x1444
 9420 25fd 78170000 		.4byte	.LLST141
 9421 2601 30       		.uleb128 0x30
 9422 2602 39140000 		.4byte	0x1439
 9423 2606 8B170000 		.4byte	.LLST142
 9424 260a 31       		.uleb128 0x31
 9425 260b C4030000 		.4byte	.LBB238
 9426 260f D6000000 		.4byte	.LBE238-.LBB238
 9427 2613 32       		.uleb128 0x32
 9428 2614 5C140000 		.4byte	0x145c
 9429 2618 9E170000 		.4byte	.LLST143
 9430 261c 32       		.uleb128 0x32
 9431 261d 67140000 		.4byte	0x1467
 9432 2621 C9170000 		.4byte	.LLST144
 9433 2625 32       		.uleb128 0x32
 9434 2626 72140000 		.4byte	0x1472
 9435 262a E9170000 		.4byte	.LLST145
 9436 262e 49       		.uleb128 0x49
 9437 262f 7D140000 		.4byte	0x147d
 9438 2633 02       		.uleb128 0x2
 9439 2634 91       		.byte	0x91
 9440 2635 48       		.sleb128 -56
 9441 2636 32       		.uleb128 0x32
 9442 2637 89140000 		.4byte	0x1489
 9443 263b FC170000 		.4byte	.LLST146
ARM GAS  C:\Users\164\AppData\Local\Temp\ccd4XrSZ.s 			page 214


 9444 263f 32       		.uleb128 0x32
 9445 2640 95140000 		.4byte	0x1495
 9446 2644 0F180000 		.4byte	.LLST147
 9447 2648 32       		.uleb128 0x32
 9448 2649 A1140000 		.4byte	0x14a1
 9449 264d 2F180000 		.4byte	.LLST148
 9450 2651 32       		.uleb128 0x32
 9451 2652 AD140000 		.4byte	0x14ad
 9452 2656 42180000 		.4byte	.LLST149
 9453 265a 3E       		.uleb128 0x3e
 9454 265b 36040000 		.4byte	.LBB239
 9455 265f 1C000000 		.4byte	.LBE239-.LBB239
 9456 2663 AF260000 		.4byte	0x26af
 9457 2667 32       		.uleb128 0x32
 9458 2668 BC140000 		.4byte	0x14bc
 9459 266c 8C180000 		.4byte	.LLST150
 9460 2670 40       		.uleb128 0x40
 9461 2671 3E040000 		.4byte	.LVL272
 9462 2675 F1430000 		.4byte	0x43f1
 9463 2679 8A260000 		.4byte	0x268a
 9464 267d 2B       		.uleb128 0x2b
 9465 267e 01       		.uleb128 0x1
 9466 267f 50       		.byte	0x50
 9467 2680 02       		.uleb128 0x2
 9468 2681 75       		.byte	0x75
 9469 2682 00       		.sleb128 0
 9470 2683 2B       		.uleb128 0x2b
 9471 2684 01       		.uleb128 0x1
 9472 2685 51       		.byte	0x51
 9473 2686 02       		.uleb128 0x2
 9474 2687 91       		.byte	0x91
 9475 2688 48       		.sleb128 -56
 9476 2689 00       		.byte	0
 9477 268a 35       		.uleb128 0x35
 9478 268b 46040000 		.4byte	.LVL274
 9479 268f FC430000 		.4byte	0x43fc
 9480 2693 2A       		.uleb128 0x2a
 9481 2694 50040000 		.4byte	.LVL275
 9482 2698 22430000 		.4byte	0x4322
 9483 269c 2B       		.uleb128 0x2b
 9484 269d 01       		.uleb128 0x1
 9485 269e 50       		.byte	0x50
 9486 269f 05       		.uleb128 0x5
 9487 26a0 03       		.byte	0x3
 9488 26a1 30000000 		.4byte	.LC3
 9489 26a5 2B       		.uleb128 0x2b
 9490 26a6 01       		.uleb128 0x1
 9491 26a7 52       		.byte	0x52
 9492 26a8 04       		.uleb128 0x4
 9493 26a9 91       		.byte	0x91
 9494 26aa B07F     		.sleb128 -80
 9495 26ac 06       		.byte	0x6
 9496 26ad 00       		.byte	0
 9497 26ae 00       		.byte	0
 9498 26af 3E       		.uleb128 0x3e
 9499 26b0 5A040000 		.4byte	.LBB240
 9500 26b4 26000000 		.4byte	.LBE240-.LBB240
ARM GAS  C:\Users\164\AppData\Local\Temp\ccd4XrSZ.s 			page 215


 9501 26b8 F7260000 		.4byte	0x26f7
 9502 26bc 32       		.uleb128 0x32
 9503 26bd D3140000 		.4byte	0x14d3
 9504 26c1 9F180000 		.4byte	.LLST151
 9505 26c5 4A       		.uleb128 0x4a
 9506 26c6 64040000 		.4byte	.LVL278
 9507 26ca E1260000 		.4byte	0x26e1
 9508 26ce 2B       		.uleb128 0x2b
 9509 26cf 01       		.uleb128 0x1
 9510 26d0 50       		.byte	0x50
 9511 26d1 02       		.uleb128 0x2
 9512 26d2 75       		.byte	0x75
 9513 26d3 00       		.sleb128 0
 9514 26d4 2B       		.uleb128 0x2b
 9515 26d5 01       		.uleb128 0x1
 9516 26d6 51       		.byte	0x51
 9517 26d7 02       		.uleb128 0x2
 9518 26d8 79       		.byte	0x79
 9519 26d9 00       		.sleb128 0
 9520 26da 2B       		.uleb128 0x2b
 9521 26db 01       		.uleb128 0x1
 9522 26dc 52       		.byte	0x52
 9523 26dd 02       		.uleb128 0x2
 9524 26de 7B       		.byte	0x7b
 9525 26df 00       		.sleb128 0
 9526 26e0 00       		.byte	0
 9527 26e1 2A       		.uleb128 0x2a
 9528 26e2 78040000 		.4byte	.LVL281
 9529 26e6 8E430000 		.4byte	0x438e
 9530 26ea 2B       		.uleb128 0x2b
 9531 26eb 01       		.uleb128 0x1
 9532 26ec 50       		.byte	0x50
 9533 26ed 07       		.uleb128 0x7
 9534 26ee 77       		.byte	0x77
 9535 26ef 00       		.sleb128 0
 9536 26f0 34       		.byte	0x34
 9537 26f1 24       		.byte	0x24
 9538 26f2 76       		.byte	0x76
 9539 26f3 00       		.sleb128 0
 9540 26f4 22       		.byte	0x22
 9541 26f5 00       		.byte	0
 9542 26f6 00       		.byte	0
 9543 26f7 40       		.uleb128 0x40
 9544 26f8 04040000 		.4byte	.LVL265
 9545 26fc 8E430000 		.4byte	0x438e
 9546 2700 0E270000 		.4byte	0x270e
 9547 2704 2B       		.uleb128 0x2b
 9548 2705 01       		.uleb128 0x1
 9549 2706 50       		.byte	0x50
 9550 2707 05       		.uleb128 0x5
 9551 2708 76       		.byte	0x76
 9552 2709 00       		.sleb128 0
 9553 270a 74       		.byte	0x74
 9554 270b 00       		.sleb128 0
 9555 270c 22       		.byte	0x22
 9556 270d 00       		.byte	0
 9557 270e 40       		.uleb128 0x40
ARM GAS  C:\Users\164\AppData\Local\Temp\ccd4XrSZ.s 			page 216


 9558 270f 22040000 		.4byte	.LVL266
 9559 2713 A20B0000 		.4byte	0xba2
 9560 2717 24270000 		.4byte	0x2724
 9561 271b 2B       		.uleb128 0x2b
 9562 271c 01       		.uleb128 0x1
 9563 271d 51       		.byte	0x51
 9564 271e 04       		.uleb128 0x4
 9565 271f 91       		.byte	0x91
 9566 2720 B07F     		.sleb128 -80
 9567 2722 06       		.byte	0x6
 9568 2723 00       		.byte	0
 9569 2724 40       		.uleb128 0x40
 9570 2725 28040000 		.4byte	.LVL268
 9571 2729 A4430000 		.4byte	0x43a4
 9572 272d 3A270000 		.4byte	0x273a
 9573 2731 2B       		.uleb128 0x2b
 9574 2732 01       		.uleb128 0x1
 9575 2733 50       		.byte	0x50
 9576 2734 04       		.uleb128 0x4
 9577 2735 91       		.byte	0x91
 9578 2736 B07F     		.sleb128 -80
 9579 2738 06       		.byte	0x6
 9580 2739 00       		.byte	0
 9581 273a 40       		.uleb128 0x40
 9582 273b 32040000 		.4byte	.LVL270
 9583 273f 07440000 		.4byte	0x4407
 9584 2743 54270000 		.4byte	0x2754
 9585 2747 2B       		.uleb128 0x2b
 9586 2748 01       		.uleb128 0x1
 9587 2749 50       		.byte	0x50
 9588 274a 02       		.uleb128 0x2
 9589 274b 75       		.byte	0x75
 9590 274c 00       		.sleb128 0
 9591 274d 2B       		.uleb128 0x2b
 9592 274e 01       		.uleb128 0x1
 9593 274f 51       		.byte	0x51
 9594 2750 02       		.uleb128 0x2
 9595 2751 91       		.byte	0x91
 9596 2752 48       		.sleb128 -56
 9597 2753 00       		.byte	0
 9598 2754 2A       		.uleb128 0x2a
 9599 2755 88040000 		.4byte	.LVL285
 9600 2759 CE0C0000 		.4byte	0xcce
 9601 275d 2B       		.uleb128 0x2b
 9602 275e 01       		.uleb128 0x1
 9603 275f 50       		.byte	0x50
 9604 2760 02       		.uleb128 0x2
 9605 2761 75       		.byte	0x75
 9606 2762 00       		.sleb128 0
 9607 2763 2B       		.uleb128 0x2b
 9608 2764 01       		.uleb128 0x1
 9609 2765 51       		.byte	0x51
 9610 2766 02       		.uleb128 0x2
 9611 2767 7B       		.byte	0x7b
 9612 2768 00       		.sleb128 0
 9613 2769 00       		.byte	0
 9614 276a 00       		.byte	0
ARM GAS  C:\Users\164\AppData\Local\Temp\ccd4XrSZ.s 			page 217


 9615 276b 00       		.byte	0
 9616 276c 48       		.uleb128 0x48
 9617 276d 28140000 		.4byte	0x1428
 9618 2771 A0040000 		.4byte	.LBB241
 9619 2775 D6000000 		.4byte	.LBE241-.LBB241
 9620 2779 01       		.byte	0x1
 9621 277a 2207     		.2byte	0x722
 9622 277c FD280000 		.4byte	0x28fd
 9623 2780 30       		.uleb128 0x30
 9624 2781 50140000 		.4byte	0x1450
 9625 2785 B2180000 		.4byte	.LLST152
 9626 2789 30       		.uleb128 0x30
 9627 278a 44140000 		.4byte	0x1444
 9628 278e C5180000 		.4byte	.LLST153
 9629 2792 30       		.uleb128 0x30
 9630 2793 39140000 		.4byte	0x1439
 9631 2797 D8180000 		.4byte	.LLST154
 9632 279b 31       		.uleb128 0x31
 9633 279c A0040000 		.4byte	.LBB242
 9634 27a0 D6000000 		.4byte	.LBE242-.LBB242
 9635 27a4 32       		.uleb128 0x32
 9636 27a5 5C140000 		.4byte	0x145c
 9637 27a9 EB180000 		.4byte	.LLST155
 9638 27ad 32       		.uleb128 0x32
 9639 27ae 67140000 		.4byte	0x1467
 9640 27b2 16190000 		.4byte	.LLST156
 9641 27b6 32       		.uleb128 0x32
 9642 27b7 72140000 		.4byte	0x1472
 9643 27bb 36190000 		.4byte	.LLST157
 9644 27bf 49       		.uleb128 0x49
 9645 27c0 7D140000 		.4byte	0x147d
 9646 27c4 02       		.uleb128 0x2
 9647 27c5 91       		.byte	0x91
 9648 27c6 48       		.sleb128 -56
 9649 27c7 32       		.uleb128 0x32
 9650 27c8 89140000 		.4byte	0x1489
 9651 27cc 49190000 		.4byte	.LLST158
 9652 27d0 32       		.uleb128 0x32
 9653 27d1 95140000 		.4byte	0x1495
 9654 27d5 5C190000 		.4byte	.LLST159
 9655 27d9 32       		.uleb128 0x32
 9656 27da A1140000 		.4byte	0x14a1
 9657 27de 7C190000 		.4byte	.LLST160
 9658 27e2 32       		.uleb128 0x32
 9659 27e3 AD140000 		.4byte	0x14ad
 9660 27e7 8F190000 		.4byte	.LLST161
 9661 27eb 3E       		.uleb128 0x3e
 9662 27ec 12050000 		.4byte	.LBB243
 9663 27f0 1C000000 		.4byte	.LBE243-.LBB243
 9664 27f4 40280000 		.4byte	0x2840
 9665 27f8 32       		.uleb128 0x32
 9666 27f9 BC140000 		.4byte	0x14bc
 9667 27fd D9190000 		.4byte	.LLST162
 9668 2801 40       		.uleb128 0x40
 9669 2802 1A050000 		.4byte	.LVL302
 9670 2806 F1430000 		.4byte	0x43f1
 9671 280a 1B280000 		.4byte	0x281b
ARM GAS  C:\Users\164\AppData\Local\Temp\ccd4XrSZ.s 			page 218


 9672 280e 2B       		.uleb128 0x2b
 9673 280f 01       		.uleb128 0x1
 9674 2810 50       		.byte	0x50
 9675 2811 02       		.uleb128 0x2
 9676 2812 75       		.byte	0x75
 9677 2813 00       		.sleb128 0
 9678 2814 2B       		.uleb128 0x2b
 9679 2815 01       		.uleb128 0x1
 9680 2816 51       		.byte	0x51
 9681 2817 02       		.uleb128 0x2
 9682 2818 91       		.byte	0x91
 9683 2819 48       		.sleb128 -56
 9684 281a 00       		.byte	0
 9685 281b 35       		.uleb128 0x35
 9686 281c 22050000 		.4byte	.LVL304
 9687 2820 FC430000 		.4byte	0x43fc
 9688 2824 2A       		.uleb128 0x2a
 9689 2825 2C050000 		.4byte	.LVL305
 9690 2829 22430000 		.4byte	0x4322
 9691 282d 2B       		.uleb128 0x2b
 9692 282e 01       		.uleb128 0x1
 9693 282f 50       		.byte	0x50
 9694 2830 05       		.uleb128 0x5
 9695 2831 03       		.byte	0x3
 9696 2832 30000000 		.4byte	.LC3
 9697 2836 2B       		.uleb128 0x2b
 9698 2837 01       		.uleb128 0x1
 9699 2838 52       		.byte	0x52
 9700 2839 04       		.uleb128 0x4
 9701 283a 91       		.byte	0x91
 9702 283b B07F     		.sleb128 -80
 9703 283d 06       		.byte	0x6
 9704 283e 00       		.byte	0
 9705 283f 00       		.byte	0
 9706 2840 3E       		.uleb128 0x3e
 9707 2841 36050000 		.4byte	.LBB244
 9708 2845 26000000 		.4byte	.LBE244-.LBB244
 9709 2849 88280000 		.4byte	0x2888
 9710 284d 32       		.uleb128 0x32
 9711 284e D3140000 		.4byte	0x14d3
 9712 2852 EC190000 		.4byte	.LLST163
 9713 2856 4A       		.uleb128 0x4a
 9714 2857 40050000 		.4byte	.LVL308
 9715 285b 72280000 		.4byte	0x2872
 9716 285f 2B       		.uleb128 0x2b
 9717 2860 01       		.uleb128 0x1
 9718 2861 50       		.byte	0x50
 9719 2862 02       		.uleb128 0x2
 9720 2863 75       		.byte	0x75
 9721 2864 00       		.sleb128 0
 9722 2865 2B       		.uleb128 0x2b
 9723 2866 01       		.uleb128 0x1
 9724 2867 51       		.byte	0x51
 9725 2868 02       		.uleb128 0x2
 9726 2869 79       		.byte	0x79
 9727 286a 00       		.sleb128 0
 9728 286b 2B       		.uleb128 0x2b
ARM GAS  C:\Users\164\AppData\Local\Temp\ccd4XrSZ.s 			page 219


 9729 286c 01       		.uleb128 0x1
 9730 286d 52       		.byte	0x52
 9731 286e 02       		.uleb128 0x2
 9732 286f 7B       		.byte	0x7b
 9733 2870 00       		.sleb128 0
 9734 2871 00       		.byte	0
 9735 2872 2A       		.uleb128 0x2a
 9736 2873 54050000 		.4byte	.LVL311
 9737 2877 8E430000 		.4byte	0x438e
 9738 287b 2B       		.uleb128 0x2b
 9739 287c 01       		.uleb128 0x1
 9740 287d 50       		.byte	0x50
 9741 287e 07       		.uleb128 0x7
 9742 287f 77       		.byte	0x77
 9743 2880 00       		.sleb128 0
 9744 2881 34       		.byte	0x34
 9745 2882 24       		.byte	0x24
 9746 2883 76       		.byte	0x76
 9747 2884 00       		.sleb128 0
 9748 2885 22       		.byte	0x22
 9749 2886 00       		.byte	0
 9750 2887 00       		.byte	0
 9751 2888 40       		.uleb128 0x40
 9752 2889 E0040000 		.4byte	.LVL295
 9753 288d 8E430000 		.4byte	0x438e
 9754 2891 9F280000 		.4byte	0x289f
 9755 2895 2B       		.uleb128 0x2b
 9756 2896 01       		.uleb128 0x1
 9757 2897 50       		.byte	0x50
 9758 2898 05       		.uleb128 0x5
 9759 2899 76       		.byte	0x76
 9760 289a 00       		.sleb128 0
 9761 289b 74       		.byte	0x74
 9762 289c 00       		.sleb128 0
 9763 289d 22       		.byte	0x22
 9764 289e 00       		.byte	0
 9765 289f 40       		.uleb128 0x40
 9766 28a0 FE040000 		.4byte	.LVL296
 9767 28a4 A20B0000 		.4byte	0xba2
 9768 28a8 B5280000 		.4byte	0x28b5
 9769 28ac 2B       		.uleb128 0x2b
 9770 28ad 01       		.uleb128 0x1
 9771 28ae 51       		.byte	0x51
 9772 28af 04       		.uleb128 0x4
 9773 28b0 91       		.byte	0x91
 9774 28b1 B07F     		.sleb128 -80
 9775 28b3 06       		.byte	0x6
 9776 28b4 00       		.byte	0
 9777 28b5 40       		.uleb128 0x40
 9778 28b6 04050000 		.4byte	.LVL298
 9779 28ba A4430000 		.4byte	0x43a4
 9780 28be CB280000 		.4byte	0x28cb
 9781 28c2 2B       		.uleb128 0x2b
 9782 28c3 01       		.uleb128 0x1
 9783 28c4 50       		.byte	0x50
 9784 28c5 04       		.uleb128 0x4
 9785 28c6 91       		.byte	0x91
ARM GAS  C:\Users\164\AppData\Local\Temp\ccd4XrSZ.s 			page 220


 9786 28c7 B07F     		.sleb128 -80
 9787 28c9 06       		.byte	0x6
 9788 28ca 00       		.byte	0
 9789 28cb 40       		.uleb128 0x40
 9790 28cc 0E050000 		.4byte	.LVL300
 9791 28d0 07440000 		.4byte	0x4407
 9792 28d4 E5280000 		.4byte	0x28e5
 9793 28d8 2B       		.uleb128 0x2b
 9794 28d9 01       		.uleb128 0x1
 9795 28da 50       		.byte	0x50
 9796 28db 02       		.uleb128 0x2
 9797 28dc 75       		.byte	0x75
 9798 28dd 00       		.sleb128 0
 9799 28de 2B       		.uleb128 0x2b
 9800 28df 01       		.uleb128 0x1
 9801 28e0 51       		.byte	0x51
 9802 28e1 02       		.uleb128 0x2
 9803 28e2 91       		.byte	0x91
 9804 28e3 48       		.sleb128 -56
 9805 28e4 00       		.byte	0
 9806 28e5 2A       		.uleb128 0x2a
 9807 28e6 64050000 		.4byte	.LVL315
 9808 28ea CE0C0000 		.4byte	0xcce
 9809 28ee 2B       		.uleb128 0x2b
 9810 28ef 01       		.uleb128 0x1
 9811 28f0 50       		.byte	0x50
 9812 28f1 02       		.uleb128 0x2
 9813 28f2 75       		.byte	0x75
 9814 28f3 00       		.sleb128 0
 9815 28f4 2B       		.uleb128 0x2b
 9816 28f5 01       		.uleb128 0x1
 9817 28f6 51       		.byte	0x51
 9818 28f7 02       		.uleb128 0x2
 9819 28f8 7B       		.byte	0x7b
 9820 28f9 00       		.sleb128 0
 9821 28fa 00       		.byte	0
 9822 28fb 00       		.byte	0
 9823 28fc 00       		.byte	0
 9824 28fd 48       		.uleb128 0x48
 9825 28fe 5E0A0000 		.4byte	0xa5e
 9826 2902 7C050000 		.4byte	.LBB245
 9827 2906 12000000 		.4byte	.LBE245-.LBB245
 9828 290a 01       		.byte	0x1
 9829 290b 2307     		.2byte	0x723
 9830 290d 42290000 		.4byte	0x2942
 9831 2911 30       		.uleb128 0x30
 9832 2912 860A0000 		.4byte	0xa86
 9833 2916 FF190000 		.4byte	.LLST164
 9834 291a 30       		.uleb128 0x30
 9835 291b 7A0A0000 		.4byte	0xa7a
 9836 291f 121A0000 		.4byte	.LLST165
 9837 2923 30       		.uleb128 0x30
 9838 2924 6F0A0000 		.4byte	0xa6f
 9839 2928 251A0000 		.4byte	.LLST166
 9840 292c 2A       		.uleb128 0x2a
 9841 292d 84050000 		.4byte	.LVL318
 9842 2931 CE0C0000 		.4byte	0xcce
ARM GAS  C:\Users\164\AppData\Local\Temp\ccd4XrSZ.s 			page 221


 9843 2935 2B       		.uleb128 0x2b
 9844 2936 01       		.uleb128 0x1
 9845 2937 50       		.byte	0x50
 9846 2938 02       		.uleb128 0x2
 9847 2939 75       		.byte	0x75
 9848 293a 00       		.sleb128 0
 9849 293b 2B       		.uleb128 0x2b
 9850 293c 01       		.uleb128 0x1
 9851 293d 51       		.byte	0x51
 9852 293e 01       		.uleb128 0x1
 9853 293f 30       		.byte	0x30
 9854 2940 00       		.byte	0
 9855 2941 00       		.byte	0
 9856 2942 48       		.uleb128 0x48
 9857 2943 930A0000 		.4byte	0xa93
 9858 2947 92050000 		.4byte	.LBB247
 9859 294b 18000000 		.4byte	.LBE247-.LBB247
 9860 294f 01       		.byte	0x1
 9861 2950 2407     		.2byte	0x724
 9862 2952 A0290000 		.4byte	0x29a0
 9863 2956 30       		.uleb128 0x30
 9864 2957 BB0A0000 		.4byte	0xabb
 9865 295b 381A0000 		.4byte	.LLST167
 9866 295f 30       		.uleb128 0x30
 9867 2960 AF0A0000 		.4byte	0xaaf
 9868 2964 561A0000 		.4byte	.LLST168
 9869 2968 30       		.uleb128 0x30
 9870 2969 A40A0000 		.4byte	0xaa4
 9871 296d 741A0000 		.4byte	.LLST169
 9872 2971 31       		.uleb128 0x31
 9873 2972 92050000 		.4byte	.LBB248
 9874 2976 18000000 		.4byte	.LBE248-.LBB248
 9875 297a 32       		.uleb128 0x32
 9876 297b C70A0000 		.4byte	0xac7
 9877 297f 921A0000 		.4byte	.LLST170
 9878 2983 32       		.uleb128 0x32
 9879 2984 D30A0000 		.4byte	0xad3
 9880 2988 BD1A0000 		.4byte	.LLST171
 9881 298c 32       		.uleb128 0x32
 9882 298d DF0A0000 		.4byte	0xadf
 9883 2991 E31A0000 		.4byte	.LLST172
 9884 2995 32       		.uleb128 0x32
 9885 2996 EB0A0000 		.4byte	0xaeb
 9886 299a 111B0000 		.4byte	.LLST173
 9887 299e 00       		.byte	0
 9888 299f 00       		.byte	0
 9889 29a0 48       		.uleb128 0x48
 9890 29a1 ED140000 		.4byte	0x14ed
 9891 29a5 B0050000 		.4byte	.LBB249
 9892 29a9 5C000000 		.4byte	.LBE249-.LBB249
 9893 29ad 01       		.byte	0x1
 9894 29ae 2507     		.2byte	0x725
 9895 29b0 412A0000 		.4byte	0x2a41
 9896 29b4 30       		.uleb128 0x30
 9897 29b5 15150000 		.4byte	0x1515
 9898 29b9 2F1B0000 		.4byte	.LLST174
 9899 29bd 30       		.uleb128 0x30
ARM GAS  C:\Users\164\AppData\Local\Temp\ccd4XrSZ.s 			page 222


 9900 29be 09150000 		.4byte	0x1509
 9901 29c2 421B0000 		.4byte	.LLST175
 9902 29c6 30       		.uleb128 0x30
 9903 29c7 FE140000 		.4byte	0x14fe
 9904 29cb 551B0000 		.4byte	.LLST176
 9905 29cf 31       		.uleb128 0x31
 9906 29d0 B0050000 		.4byte	.LBB250
 9907 29d4 5C000000 		.4byte	.LBE250-.LBB250
 9908 29d8 32       		.uleb128 0x32
 9909 29d9 21150000 		.4byte	0x1521
 9910 29dd 681B0000 		.4byte	.LLST177
 9911 29e1 32       		.uleb128 0x32
 9912 29e2 2C150000 		.4byte	0x152c
 9913 29e6 7B1B0000 		.4byte	.LLST178
 9914 29ea 32       		.uleb128 0x32
 9915 29eb 38150000 		.4byte	0x1538
 9916 29ef 8E1B0000 		.4byte	.LLST179
 9917 29f3 32       		.uleb128 0x32
 9918 29f4 44150000 		.4byte	0x1544
 9919 29f8 A11B0000 		.4byte	.LLST180
 9920 29fc 40       		.uleb128 0x40
 9921 29fd B8050000 		.4byte	.LVL328
 9922 2a01 8E430000 		.4byte	0x438e
 9923 2a05 102A0000 		.4byte	0x2a10
 9924 2a09 2B       		.uleb128 0x2b
 9925 2a0a 01       		.uleb128 0x1
 9926 2a0b 50       		.byte	0x50
 9927 2a0c 02       		.uleb128 0x2
 9928 2a0d 76       		.byte	0x76
 9929 2a0e 00       		.sleb128 0
 9930 2a0f 00       		.byte	0
 9931 2a10 40       		.uleb128 0x40
 9932 2a11 FE050000 		.4byte	.LVL334
 9933 2a15 8E430000 		.4byte	0x438e
 9934 2a19 292A0000 		.4byte	0x2a29
 9935 2a1d 2B       		.uleb128 0x2b
 9936 2a1e 01       		.uleb128 0x1
 9937 2a1f 50       		.byte	0x50
 9938 2a20 07       		.uleb128 0x7
 9939 2a21 74       		.byte	0x74
 9940 2a22 00       		.sleb128 0
 9941 2a23 34       		.byte	0x34
 9942 2a24 24       		.byte	0x24
 9943 2a25 76       		.byte	0x76
 9944 2a26 00       		.sleb128 0
 9945 2a27 22       		.byte	0x22
 9946 2a28 00       		.byte	0
 9947 2a29 2A       		.uleb128 0x2a
 9948 2a2a 0C060000 		.4byte	.LVL336
 9949 2a2e 38430000 		.4byte	0x4338
 9950 2a32 2B       		.uleb128 0x2b
 9951 2a33 01       		.uleb128 0x1
 9952 2a34 50       		.byte	0x50
 9953 2a35 02       		.uleb128 0x2
 9954 2a36 75       		.byte	0x75
 9955 2a37 00       		.sleb128 0
 9956 2a38 2B       		.uleb128 0x2b
ARM GAS  C:\Users\164\AppData\Local\Temp\ccd4XrSZ.s 			page 223


 9957 2a39 01       		.uleb128 0x1
 9958 2a3a 51       		.byte	0x51
 9959 2a3b 02       		.uleb128 0x2
 9960 2a3c 78       		.byte	0x78
 9961 2a3d 00       		.sleb128 0
 9962 2a3e 00       		.byte	0
 9963 2a3f 00       		.byte	0
 9964 2a40 00       		.byte	0
 9965 2a41 48       		.uleb128 0x48
 9966 2a42 4F150000 		.4byte	0x154f
 9967 2a46 12060000 		.4byte	.LBB251
 9968 2a4a 30000000 		.4byte	.LBE251-.LBB251
 9969 2a4e 01       		.byte	0x1
 9970 2a4f 2607     		.2byte	0x726
 9971 2a51 B12A0000 		.4byte	0x2ab1
 9972 2a55 30       		.uleb128 0x30
 9973 2a56 77150000 		.4byte	0x1577
 9974 2a5a C01B0000 		.4byte	.LLST181
 9975 2a5e 30       		.uleb128 0x30
 9976 2a5f 6B150000 		.4byte	0x156b
 9977 2a63 D31B0000 		.4byte	.LLST182
 9978 2a67 30       		.uleb128 0x30
 9979 2a68 60150000 		.4byte	0x1560
 9980 2a6c E61B0000 		.4byte	.LLST183
 9981 2a70 31       		.uleb128 0x31
 9982 2a71 12060000 		.4byte	.LBB252
 9983 2a75 30000000 		.4byte	.LBE252-.LBB252
 9984 2a79 32       		.uleb128 0x32
 9985 2a7a 83150000 		.4byte	0x1583
 9986 2a7e F91B0000 		.4byte	.LLST184
 9987 2a82 32       		.uleb128 0x32
 9988 2a83 8E150000 		.4byte	0x158e
 9989 2a87 171C0000 		.4byte	.LLST185
 9990 2a8b 40       		.uleb128 0x40
 9991 2a8c 2A060000 		.4byte	.LVL342
 9992 2a90 8E430000 		.4byte	0x438e
 9993 2a94 9F2A0000 		.4byte	0x2a9f
 9994 2a98 2B       		.uleb128 0x2b
 9995 2a99 01       		.uleb128 0x1
 9996 2a9a 50       		.byte	0x50
 9997 2a9b 02       		.uleb128 0x2
 9998 2a9c 74       		.byte	0x74
 9999 2a9d 00       		.sleb128 0
 10000 2a9e 00       		.byte	0
 10001 2a9f 2A       		.uleb128 0x2a
 10002 2aa0 30060000 		.4byte	.LVL343
 10003 2aa4 99430000 		.4byte	0x4399
 10004 2aa8 2B       		.uleb128 0x2b
 10005 2aa9 01       		.uleb128 0x1
 10006 2aaa 50       		.byte	0x50
 10007 2aab 02       		.uleb128 0x2
 10008 2aac 77       		.byte	0x77
 10009 2aad 00       		.sleb128 0
 10010 2aae 00       		.byte	0
 10011 2aaf 00       		.byte	0
 10012 2ab0 00       		.byte	0
 10013 2ab1 48       		.uleb128 0x48
ARM GAS  C:\Users\164\AppData\Local\Temp\ccd4XrSZ.s 			page 224


 10014 2ab2 9B150000 		.4byte	0x159b
 10015 2ab6 46060000 		.4byte	.LBB253
 10016 2aba 66010000 		.4byte	.LBE253-.LBB253
 10017 2abe 01       		.byte	0x1
 10018 2abf 2707     		.2byte	0x727
 10019 2ac1 812C0000 		.4byte	0x2c81
 10020 2ac5 30       		.uleb128 0x30
 10021 2ac6 C3150000 		.4byte	0x15c3
 10022 2aca 421C0000 		.4byte	.LLST186
 10023 2ace 30       		.uleb128 0x30
 10024 2acf B7150000 		.4byte	0x15b7
 10025 2ad3 551C0000 		.4byte	.LLST187
 10026 2ad7 30       		.uleb128 0x30
 10027 2ad8 AC150000 		.4byte	0x15ac
 10028 2adc 681C0000 		.4byte	.LLST188
 10029 2ae0 31       		.uleb128 0x31
 10030 2ae1 46060000 		.4byte	.LBB254
 10031 2ae5 66010000 		.4byte	.LBE254-.LBB254
 10032 2ae9 32       		.uleb128 0x32
 10033 2aea CF150000 		.4byte	0x15cf
 10034 2aee 7B1C0000 		.4byte	.LLST189
 10035 2af2 3F       		.uleb128 0x3f
 10036 2af3 28140000 		.4byte	0x1428
 10037 2af7 CE060000 		.4byte	.LBB255
 10038 2afb DE000000 		.4byte	.LBE255-.LBB255
 10039 2aff 01       		.byte	0x1
 10040 2b00 6A03     		.2byte	0x36a
 10041 2b02 30       		.uleb128 0x30
 10042 2b03 50140000 		.4byte	0x1450
 10043 2b07 DE1C0000 		.4byte	.LLST190
 10044 2b0b 30       		.uleb128 0x30
 10045 2b0c 44140000 		.4byte	0x1444
 10046 2b10 F11C0000 		.4byte	.LLST191
 10047 2b14 30       		.uleb128 0x30
 10048 2b15 39140000 		.4byte	0x1439
 10049 2b19 041D0000 		.4byte	.LLST192
 10050 2b1d 31       		.uleb128 0x31
 10051 2b1e CE060000 		.4byte	.LBB256
 10052 2b22 DE000000 		.4byte	.LBE256-.LBB256
 10053 2b26 32       		.uleb128 0x32
 10054 2b27 5C140000 		.4byte	0x145c
 10055 2b2b 171D0000 		.4byte	.LLST193
 10056 2b2f 32       		.uleb128 0x32
 10057 2b30 67140000 		.4byte	0x1467
 10058 2b34 421D0000 		.4byte	.LLST194
 10059 2b38 32       		.uleb128 0x32
 10060 2b39 72140000 		.4byte	0x1472
 10061 2b3d 621D0000 		.4byte	.LLST195
 10062 2b41 49       		.uleb128 0x49
 10063 2b42 7D140000 		.4byte	0x147d
 10064 2b46 02       		.uleb128 0x2
 10065 2b47 91       		.byte	0x91
 10066 2b48 48       		.sleb128 -56
 10067 2b49 32       		.uleb128 0x32
 10068 2b4a 89140000 		.4byte	0x1489
 10069 2b4e 751D0000 		.4byte	.LLST196
 10070 2b52 32       		.uleb128 0x32
ARM GAS  C:\Users\164\AppData\Local\Temp\ccd4XrSZ.s 			page 225


 10071 2b53 95140000 		.4byte	0x1495
 10072 2b57 881D0000 		.4byte	.LLST197
 10073 2b5b 32       		.uleb128 0x32
 10074 2b5c A1140000 		.4byte	0x14a1
 10075 2b60 A81D0000 		.4byte	.LLST198
 10076 2b64 32       		.uleb128 0x32
 10077 2b65 AD140000 		.4byte	0x14ad
 10078 2b69 BB1D0000 		.4byte	.LLST199
 10079 2b6d 3E       		.uleb128 0x3e
 10080 2b6e 40070000 		.4byte	.LBB257
 10081 2b72 24000000 		.4byte	.LBE257-.LBB257
 10082 2b76 C22B0000 		.4byte	0x2bc2
 10083 2b7a 32       		.uleb128 0x32
 10084 2b7b BC140000 		.4byte	0x14bc
 10085 2b7f 051E0000 		.4byte	.LLST200
 10086 2b83 40       		.uleb128 0x40
 10087 2b84 48070000 		.4byte	.LVL375
 10088 2b88 F1430000 		.4byte	0x43f1
 10089 2b8c 9D2B0000 		.4byte	0x2b9d
 10090 2b90 2B       		.uleb128 0x2b
 10091 2b91 01       		.uleb128 0x1
 10092 2b92 50       		.byte	0x50
 10093 2b93 02       		.uleb128 0x2
 10094 2b94 75       		.byte	0x75
 10095 2b95 00       		.sleb128 0
 10096 2b96 2B       		.uleb128 0x2b
 10097 2b97 01       		.uleb128 0x1
 10098 2b98 51       		.byte	0x51
 10099 2b99 02       		.uleb128 0x2
 10100 2b9a 91       		.byte	0x91
 10101 2b9b 48       		.sleb128 -56
 10102 2b9c 00       		.byte	0
 10103 2b9d 35       		.uleb128 0x35
 10104 2b9e 50070000 		.4byte	.LVL377
 10105 2ba2 FC430000 		.4byte	0x43fc
 10106 2ba6 2A       		.uleb128 0x2a
 10107 2ba7 5A070000 		.4byte	.LVL378
 10108 2bab 22430000 		.4byte	0x4322
 10109 2baf 2B       		.uleb128 0x2b
 10110 2bb0 01       		.uleb128 0x1
 10111 2bb1 50       		.byte	0x50
 10112 2bb2 05       		.uleb128 0x5
 10113 2bb3 03       		.byte	0x3
 10114 2bb4 30000000 		.4byte	.LC3
 10115 2bb8 2B       		.uleb128 0x2b
 10116 2bb9 01       		.uleb128 0x1
 10117 2bba 52       		.byte	0x52
 10118 2bbb 04       		.uleb128 0x4
 10119 2bbc 91       		.byte	0x91
 10120 2bbd B07F     		.sleb128 -80
 10121 2bbf 06       		.byte	0x6
 10122 2bc0 00       		.byte	0
 10123 2bc1 00       		.byte	0
 10124 2bc2 3E       		.uleb128 0x3e
 10125 2bc3 6C070000 		.4byte	.LBB258
 10126 2bc7 26000000 		.4byte	.LBE258-.LBB258
 10127 2bcb 0A2C0000 		.4byte	0x2c0a
ARM GAS  C:\Users\164\AppData\Local\Temp\ccd4XrSZ.s 			page 226


 10128 2bcf 32       		.uleb128 0x32
 10129 2bd0 D3140000 		.4byte	0x14d3
 10130 2bd4 181E0000 		.4byte	.LLST201
 10131 2bd8 4A       		.uleb128 0x4a
 10132 2bd9 76070000 		.4byte	.LVL381
 10133 2bdd F42B0000 		.4byte	0x2bf4
 10134 2be1 2B       		.uleb128 0x2b
 10135 2be2 01       		.uleb128 0x1
 10136 2be3 50       		.byte	0x50
 10137 2be4 02       		.uleb128 0x2
 10138 2be5 75       		.byte	0x75
 10139 2be6 00       		.sleb128 0
 10140 2be7 2B       		.uleb128 0x2b
 10141 2be8 01       		.uleb128 0x1
 10142 2be9 51       		.byte	0x51
 10143 2bea 02       		.uleb128 0x2
 10144 2beb 79       		.byte	0x79
 10145 2bec 00       		.sleb128 0
 10146 2bed 2B       		.uleb128 0x2b
 10147 2bee 01       		.uleb128 0x1
 10148 2bef 52       		.byte	0x52
 10149 2bf0 02       		.uleb128 0x2
 10150 2bf1 7B       		.byte	0x7b
 10151 2bf2 00       		.sleb128 0
 10152 2bf3 00       		.byte	0
 10153 2bf4 2A       		.uleb128 0x2a
 10154 2bf5 8A070000 		.4byte	.LVL384
 10155 2bf9 8E430000 		.4byte	0x438e
 10156 2bfd 2B       		.uleb128 0x2b
 10157 2bfe 01       		.uleb128 0x1
 10158 2bff 50       		.byte	0x50
 10159 2c00 07       		.uleb128 0x7
 10160 2c01 77       		.byte	0x77
 10161 2c02 00       		.sleb128 0
 10162 2c03 34       		.byte	0x34
 10163 2c04 24       		.byte	0x24
 10164 2c05 76       		.byte	0x76
 10165 2c06 00       		.sleb128 0
 10166 2c07 22       		.byte	0x22
 10167 2c08 00       		.byte	0
 10168 2c09 00       		.byte	0
 10169 2c0a 40       		.uleb128 0x40
 10170 2c0b 0E070000 		.4byte	.LVL368
 10171 2c0f 8E430000 		.4byte	0x438e
 10172 2c13 212C0000 		.4byte	0x2c21
 10173 2c17 2B       		.uleb128 0x2b
 10174 2c18 01       		.uleb128 0x1
 10175 2c19 50       		.byte	0x50
 10176 2c1a 05       		.uleb128 0x5
 10177 2c1b 76       		.byte	0x76
 10178 2c1c 00       		.sleb128 0
 10179 2c1d 74       		.byte	0x74
 10180 2c1e 00       		.sleb128 0
 10181 2c1f 22       		.byte	0x22
 10182 2c20 00       		.byte	0
 10183 2c21 40       		.uleb128 0x40
 10184 2c22 2C070000 		.4byte	.LVL369
ARM GAS  C:\Users\164\AppData\Local\Temp\ccd4XrSZ.s 			page 227


 10185 2c26 A20B0000 		.4byte	0xba2
 10186 2c2a 372C0000 		.4byte	0x2c37
 10187 2c2e 2B       		.uleb128 0x2b
 10188 2c2f 01       		.uleb128 0x1
 10189 2c30 51       		.byte	0x51
 10190 2c31 04       		.uleb128 0x4
 10191 2c32 91       		.byte	0x91
 10192 2c33 B07F     		.sleb128 -80
 10193 2c35 06       		.byte	0x6
 10194 2c36 00       		.byte	0
 10195 2c37 40       		.uleb128 0x40
 10196 2c38 32070000 		.4byte	.LVL371
 10197 2c3c A4430000 		.4byte	0x43a4
 10198 2c40 4D2C0000 		.4byte	0x2c4d
 10199 2c44 2B       		.uleb128 0x2b
 10200 2c45 01       		.uleb128 0x1
 10201 2c46 50       		.byte	0x50
 10202 2c47 04       		.uleb128 0x4
 10203 2c48 91       		.byte	0x91
 10204 2c49 B07F     		.sleb128 -80
 10205 2c4b 06       		.byte	0x6
 10206 2c4c 00       		.byte	0
 10207 2c4d 40       		.uleb128 0x40
 10208 2c4e 3C070000 		.4byte	.LVL373
 10209 2c52 07440000 		.4byte	0x4407
 10210 2c56 672C0000 		.4byte	0x2c67
 10211 2c5a 2B       		.uleb128 0x2b
 10212 2c5b 01       		.uleb128 0x1
 10213 2c5c 50       		.byte	0x50
 10214 2c5d 02       		.uleb128 0x2
 10215 2c5e 75       		.byte	0x75
 10216 2c5f 00       		.sleb128 0
 10217 2c60 2B       		.uleb128 0x2b
 10218 2c61 01       		.uleb128 0x1
 10219 2c62 51       		.byte	0x51
 10220 2c63 02       		.uleb128 0x2
 10221 2c64 91       		.byte	0x91
 10222 2c65 48       		.sleb128 -56
 10223 2c66 00       		.byte	0
 10224 2c67 2A       		.uleb128 0x2a
 10225 2c68 9A070000 		.4byte	.LVL388
 10226 2c6c CE0C0000 		.4byte	0xcce
 10227 2c70 2B       		.uleb128 0x2b
 10228 2c71 01       		.uleb128 0x1
 10229 2c72 50       		.byte	0x50
 10230 2c73 02       		.uleb128 0x2
 10231 2c74 75       		.byte	0x75
 10232 2c75 00       		.sleb128 0
 10233 2c76 2B       		.uleb128 0x2b
 10234 2c77 01       		.uleb128 0x1
 10235 2c78 51       		.byte	0x51
 10236 2c79 02       		.uleb128 0x2
 10237 2c7a 7B       		.byte	0x7b
 10238 2c7b 00       		.sleb128 0
 10239 2c7c 00       		.byte	0
 10240 2c7d 00       		.byte	0
 10241 2c7e 00       		.byte	0
ARM GAS  C:\Users\164\AppData\Local\Temp\ccd4XrSZ.s 			page 228


 10242 2c7f 00       		.byte	0
 10243 2c80 00       		.byte	0
 10244 2c81 48       		.uleb128 0x48
 10245 2c82 DB150000 		.4byte	0x15db
 10246 2c86 B2070000 		.4byte	.LBB259
 10247 2c8a 3A000000 		.4byte	.LBE259-.LBB259
 10248 2c8e 01       		.byte	0x1
 10249 2c8f 2807     		.2byte	0x728
 10250 2c91 CD2C0000 		.4byte	0x2ccd
 10251 2c95 30       		.uleb128 0x30
 10252 2c96 03160000 		.4byte	0x1603
 10253 2c9a 2B1E0000 		.4byte	.LLST202
 10254 2c9e 30       		.uleb128 0x30
 10255 2c9f F7150000 		.4byte	0x15f7
 10256 2ca3 3E1E0000 		.4byte	.LLST203
 10257 2ca7 30       		.uleb128 0x30
 10258 2ca8 EC150000 		.4byte	0x15ec
 10259 2cac 5C1E0000 		.4byte	.LLST204
 10260 2cb0 31       		.uleb128 0x31
 10261 2cb1 B2070000 		.4byte	.LBB260
 10262 2cb5 3A000000 		.4byte	.LBE260-.LBB260
 10263 2cb9 32       		.uleb128 0x32
 10264 2cba 0F160000 		.4byte	0x160f
 10265 2cbe 6F1E0000 		.4byte	.LLST205
 10266 2cc2 35       		.uleb128 0x35
 10267 2cc3 EC070000 		.4byte	.LVL398
 10268 2cc7 790B0000 		.4byte	0xb79
 10269 2ccb 00       		.byte	0
 10270 2ccc 00       		.byte	0
 10271 2ccd 48       		.uleb128 0x48
 10272 2cce 1B160000 		.4byte	0x161b
 10273 2cd2 F2070000 		.4byte	.LBB261
 10274 2cd6 6E010000 		.4byte	.LBE261-.LBB261
 10275 2cda 01       		.byte	0x1
 10276 2cdb 2907     		.2byte	0x729
 10277 2cdd B82E0000 		.4byte	0x2eb8
 10278 2ce1 30       		.uleb128 0x30
 10279 2ce2 43160000 		.4byte	0x1643
 10280 2ce6 A01E0000 		.4byte	.LLST206
 10281 2cea 30       		.uleb128 0x30
 10282 2ceb 37160000 		.4byte	0x1637
 10283 2cef B31E0000 		.4byte	.LLST207
 10284 2cf3 30       		.uleb128 0x30
 10285 2cf4 2C160000 		.4byte	0x162c
 10286 2cf8 C61E0000 		.4byte	.LLST208
 10287 2cfc 31       		.uleb128 0x31
 10288 2cfd F2070000 		.4byte	.LBB262
 10289 2d01 6E010000 		.4byte	.LBE262-.LBB262
 10290 2d05 32       		.uleb128 0x32
 10291 2d06 4F160000 		.4byte	0x164f
 10292 2d0a D91E0000 		.4byte	.LLST209
 10293 2d0e 48       		.uleb128 0x48
 10294 2d0f 28140000 		.4byte	0x1428
 10295 2d13 7E080000 		.4byte	.LBB263
 10296 2d17 D6000000 		.4byte	.LBE263-.LBB263
 10297 2d1b 01       		.byte	0x1
 10298 2d1c B703     		.2byte	0x3b7
ARM GAS  C:\Users\164\AppData\Local\Temp\ccd4XrSZ.s 			page 229


 10299 2d1e A12E0000 		.4byte	0x2ea1
 10300 2d22 30       		.uleb128 0x30
 10301 2d23 50140000 		.4byte	0x1450
 10302 2d27 EC1E0000 		.4byte	.LLST210
 10303 2d2b 30       		.uleb128 0x30
 10304 2d2c 44140000 		.4byte	0x1444
 10305 2d30 FF1E0000 		.4byte	.LLST211
 10306 2d34 30       		.uleb128 0x30
 10307 2d35 39140000 		.4byte	0x1439
 10308 2d39 121F0000 		.4byte	.LLST212
 10309 2d3d 31       		.uleb128 0x31
 10310 2d3e 7E080000 		.4byte	.LBB264
 10311 2d42 D6000000 		.4byte	.LBE264-.LBB264
 10312 2d46 32       		.uleb128 0x32
 10313 2d47 5C140000 		.4byte	0x145c
 10314 2d4b 251F0000 		.4byte	.LLST213
 10315 2d4f 32       		.uleb128 0x32
 10316 2d50 67140000 		.4byte	0x1467
 10317 2d54 501F0000 		.4byte	.LLST214
 10318 2d58 32       		.uleb128 0x32
 10319 2d59 72140000 		.4byte	0x1472
 10320 2d5d 701F0000 		.4byte	.LLST215
 10321 2d61 49       		.uleb128 0x49
 10322 2d62 7D140000 		.4byte	0x147d
 10323 2d66 02       		.uleb128 0x2
 10324 2d67 91       		.byte	0x91
 10325 2d68 48       		.sleb128 -56
 10326 2d69 32       		.uleb128 0x32
 10327 2d6a 89140000 		.4byte	0x1489
 10328 2d6e 831F0000 		.4byte	.LLST216
 10329 2d72 32       		.uleb128 0x32
 10330 2d73 95140000 		.4byte	0x1495
 10331 2d77 961F0000 		.4byte	.LLST217
 10332 2d7b 32       		.uleb128 0x32
 10333 2d7c A1140000 		.4byte	0x14a1
 10334 2d80 B61F0000 		.4byte	.LLST218
 10335 2d84 32       		.uleb128 0x32
 10336 2d85 AD140000 		.4byte	0x14ad
 10337 2d89 C91F0000 		.4byte	.LLST219
 10338 2d8d 3E       		.uleb128 0x3e
 10339 2d8e F0080000 		.4byte	.LBB265
 10340 2d92 1C000000 		.4byte	.LBE265-.LBB265
 10341 2d96 E22D0000 		.4byte	0x2de2
 10342 2d9a 32       		.uleb128 0x32
 10343 2d9b BC140000 		.4byte	0x14bc
 10344 2d9f 13200000 		.4byte	.LLST220
 10345 2da3 40       		.uleb128 0x40
 10346 2da4 F8080000 		.4byte	.LVL422
 10347 2da8 F1430000 		.4byte	0x43f1
 10348 2dac BD2D0000 		.4byte	0x2dbd
 10349 2db0 2B       		.uleb128 0x2b
 10350 2db1 01       		.uleb128 0x1
 10351 2db2 50       		.byte	0x50
 10352 2db3 02       		.uleb128 0x2
 10353 2db4 75       		.byte	0x75
 10354 2db5 00       		.sleb128 0
 10355 2db6 2B       		.uleb128 0x2b
ARM GAS  C:\Users\164\AppData\Local\Temp\ccd4XrSZ.s 			page 230


 10356 2db7 01       		.uleb128 0x1
 10357 2db8 51       		.byte	0x51
 10358 2db9 02       		.uleb128 0x2
 10359 2dba 91       		.byte	0x91
 10360 2dbb 48       		.sleb128 -56
 10361 2dbc 00       		.byte	0
 10362 2dbd 35       		.uleb128 0x35
 10363 2dbe 00090000 		.4byte	.LVL424
 10364 2dc2 FC430000 		.4byte	0x43fc
 10365 2dc6 2A       		.uleb128 0x2a
 10366 2dc7 0A090000 		.4byte	.LVL425
 10367 2dcb 22430000 		.4byte	0x4322
 10368 2dcf 2B       		.uleb128 0x2b
 10369 2dd0 01       		.uleb128 0x1
 10370 2dd1 50       		.byte	0x50
 10371 2dd2 05       		.uleb128 0x5
 10372 2dd3 03       		.byte	0x3
 10373 2dd4 30000000 		.4byte	.LC3
 10374 2dd8 2B       		.uleb128 0x2b
 10375 2dd9 01       		.uleb128 0x1
 10376 2dda 52       		.byte	0x52
 10377 2ddb 04       		.uleb128 0x4
 10378 2ddc 91       		.byte	0x91
 10379 2ddd B07F     		.sleb128 -80
 10380 2ddf 06       		.byte	0x6
 10381 2de0 00       		.byte	0
 10382 2de1 00       		.byte	0
 10383 2de2 3E       		.uleb128 0x3e
 10384 2de3 14090000 		.4byte	.LBB266
 10385 2de7 26000000 		.4byte	.LBE266-.LBB266
 10386 2deb 2C2E0000 		.4byte	0x2e2c
 10387 2def 32       		.uleb128 0x32
 10388 2df0 D3140000 		.4byte	0x14d3
 10389 2df4 26200000 		.4byte	.LLST221
 10390 2df8 4A       		.uleb128 0x4a
 10391 2df9 1E090000 		.4byte	.LVL428
 10392 2dfd 162E0000 		.4byte	0x2e16
 10393 2e01 2B       		.uleb128 0x2b
 10394 2e02 01       		.uleb128 0x1
 10395 2e03 50       		.byte	0x50
 10396 2e04 02       		.uleb128 0x2
 10397 2e05 75       		.byte	0x75
 10398 2e06 00       		.sleb128 0
 10399 2e07 2B       		.uleb128 0x2b
 10400 2e08 01       		.uleb128 0x1
 10401 2e09 51       		.byte	0x51
 10402 2e0a 04       		.uleb128 0x4
 10403 2e0b 91       		.byte	0x91
 10404 2e0c B47F     		.sleb128 -76
 10405 2e0e 06       		.byte	0x6
 10406 2e0f 2B       		.uleb128 0x2b
 10407 2e10 01       		.uleb128 0x1
 10408 2e11 52       		.byte	0x52
 10409 2e12 02       		.uleb128 0x2
 10410 2e13 7B       		.byte	0x7b
 10411 2e14 00       		.sleb128 0
 10412 2e15 00       		.byte	0
ARM GAS  C:\Users\164\AppData\Local\Temp\ccd4XrSZ.s 			page 231


 10413 2e16 2A       		.uleb128 0x2a
 10414 2e17 32090000 		.4byte	.LVL431
 10415 2e1b 8E430000 		.4byte	0x438e
 10416 2e1f 2B       		.uleb128 0x2b
 10417 2e20 01       		.uleb128 0x1
 10418 2e21 50       		.byte	0x50
 10419 2e22 07       		.uleb128 0x7
 10420 2e23 77       		.byte	0x77
 10421 2e24 00       		.sleb128 0
 10422 2e25 34       		.byte	0x34
 10423 2e26 24       		.byte	0x24
 10424 2e27 76       		.byte	0x76
 10425 2e28 00       		.sleb128 0
 10426 2e29 22       		.byte	0x22
 10427 2e2a 00       		.byte	0
 10428 2e2b 00       		.byte	0
 10429 2e2c 40       		.uleb128 0x40
 10430 2e2d BE080000 		.4byte	.LVL415
 10431 2e31 8E430000 		.4byte	0x438e
 10432 2e35 432E0000 		.4byte	0x2e43
 10433 2e39 2B       		.uleb128 0x2b
 10434 2e3a 01       		.uleb128 0x1
 10435 2e3b 50       		.byte	0x50
 10436 2e3c 05       		.uleb128 0x5
 10437 2e3d 76       		.byte	0x76
 10438 2e3e 00       		.sleb128 0
 10439 2e3f 74       		.byte	0x74
 10440 2e40 00       		.sleb128 0
 10441 2e41 22       		.byte	0x22
 10442 2e42 00       		.byte	0
 10443 2e43 40       		.uleb128 0x40
 10444 2e44 DC080000 		.4byte	.LVL416
 10445 2e48 A20B0000 		.4byte	0xba2
 10446 2e4c 592E0000 		.4byte	0x2e59
 10447 2e50 2B       		.uleb128 0x2b
 10448 2e51 01       		.uleb128 0x1
 10449 2e52 51       		.byte	0x51
 10450 2e53 04       		.uleb128 0x4
 10451 2e54 91       		.byte	0x91
 10452 2e55 B07F     		.sleb128 -80
 10453 2e57 06       		.byte	0x6
 10454 2e58 00       		.byte	0
 10455 2e59 40       		.uleb128 0x40
 10456 2e5a E2080000 		.4byte	.LVL418
 10457 2e5e A4430000 		.4byte	0x43a4
 10458 2e62 6F2E0000 		.4byte	0x2e6f
 10459 2e66 2B       		.uleb128 0x2b
 10460 2e67 01       		.uleb128 0x1
 10461 2e68 50       		.byte	0x50
 10462 2e69 04       		.uleb128 0x4
 10463 2e6a 91       		.byte	0x91
 10464 2e6b B07F     		.sleb128 -80
 10465 2e6d 06       		.byte	0x6
 10466 2e6e 00       		.byte	0
 10467 2e6f 40       		.uleb128 0x40
 10468 2e70 EC080000 		.4byte	.LVL420
 10469 2e74 07440000 		.4byte	0x4407
ARM GAS  C:\Users\164\AppData\Local\Temp\ccd4XrSZ.s 			page 232


 10470 2e78 892E0000 		.4byte	0x2e89
 10471 2e7c 2B       		.uleb128 0x2b
 10472 2e7d 01       		.uleb128 0x1
 10473 2e7e 50       		.byte	0x50
 10474 2e7f 02       		.uleb128 0x2
 10475 2e80 75       		.byte	0x75
 10476 2e81 00       		.sleb128 0
 10477 2e82 2B       		.uleb128 0x2b
 10478 2e83 01       		.uleb128 0x1
 10479 2e84 51       		.byte	0x51
 10480 2e85 02       		.uleb128 0x2
 10481 2e86 91       		.byte	0x91
 10482 2e87 48       		.sleb128 -56
 10483 2e88 00       		.byte	0
 10484 2e89 2A       		.uleb128 0x2a
 10485 2e8a 42090000 		.4byte	.LVL435
 10486 2e8e CE0C0000 		.4byte	0xcce
 10487 2e92 2B       		.uleb128 0x2b
 10488 2e93 01       		.uleb128 0x1
 10489 2e94 50       		.byte	0x50
 10490 2e95 02       		.uleb128 0x2
 10491 2e96 75       		.byte	0x75
 10492 2e97 00       		.sleb128 0
 10493 2e98 2B       		.uleb128 0x2b
 10494 2e99 01       		.uleb128 0x1
 10495 2e9a 51       		.byte	0x51
 10496 2e9b 02       		.uleb128 0x2
 10497 2e9c 7B       		.byte	0x7b
 10498 2e9d 00       		.sleb128 0
 10499 2e9e 00       		.byte	0
 10500 2e9f 00       		.byte	0
 10501 2ea0 00       		.byte	0
 10502 2ea1 2A       		.uleb128 0x2a
 10503 2ea2 60090000 		.4byte	.LVL437
 10504 2ea6 8E430000 		.4byte	0x438e
 10505 2eaa 2B       		.uleb128 0x2b
 10506 2eab 01       		.uleb128 0x1
 10507 2eac 50       		.byte	0x50
 10508 2ead 07       		.uleb128 0x7
 10509 2eae 79       		.byte	0x79
 10510 2eaf 01       		.sleb128 1
 10511 2eb0 34       		.byte	0x34
 10512 2eb1 24       		.byte	0x24
 10513 2eb2 76       		.byte	0x76
 10514 2eb3 00       		.sleb128 0
 10515 2eb4 22       		.byte	0x22
 10516 2eb5 00       		.byte	0
 10517 2eb6 00       		.byte	0
 10518 2eb7 00       		.byte	0
 10519 2eb8 48       		.uleb128 0x48
 10520 2eb9 5B160000 		.4byte	0x165b
 10521 2ebd 66090000 		.4byte	.LBB267
 10522 2ec1 3A000000 		.4byte	.LBE267-.LBB267
 10523 2ec5 01       		.byte	0x1
 10524 2ec6 2A07     		.2byte	0x72a
 10525 2ec8 042F0000 		.4byte	0x2f04
 10526 2ecc 30       		.uleb128 0x30
ARM GAS  C:\Users\164\AppData\Local\Temp\ccd4XrSZ.s 			page 233


 10527 2ecd 83160000 		.4byte	0x1683
 10528 2ed1 39200000 		.4byte	.LLST222
 10529 2ed5 30       		.uleb128 0x30
 10530 2ed6 77160000 		.4byte	0x1677
 10531 2eda 4C200000 		.4byte	.LLST223
 10532 2ede 30       		.uleb128 0x30
 10533 2edf 6C160000 		.4byte	0x166c
 10534 2ee3 6A200000 		.4byte	.LLST224
 10535 2ee7 31       		.uleb128 0x31
 10536 2ee8 66090000 		.4byte	.LBB268
 10537 2eec 3A000000 		.4byte	.LBE268-.LBB268
 10538 2ef0 32       		.uleb128 0x32
 10539 2ef1 8F160000 		.4byte	0x168f
 10540 2ef5 7D200000 		.4byte	.LLST225
 10541 2ef9 35       		.uleb128 0x35
 10542 2efa A0090000 		.4byte	.LVL446
 10543 2efe 790B0000 		.4byte	0xb79
 10544 2f02 00       		.byte	0
 10545 2f03 00       		.byte	0
 10546 2f04 48       		.uleb128 0x48
 10547 2f05 9B160000 		.4byte	0x169b
 10548 2f09 A6090000 		.4byte	.LBB269
 10549 2f0d 78010000 		.4byte	.LBE269-.LBB269
 10550 2f11 01       		.byte	0x1
 10551 2f12 2B07     		.2byte	0x72b
 10552 2f14 EF300000 		.4byte	0x30ef
 10553 2f18 30       		.uleb128 0x30
 10554 2f19 C3160000 		.4byte	0x16c3
 10555 2f1d AE200000 		.4byte	.LLST226
 10556 2f21 30       		.uleb128 0x30
 10557 2f22 B7160000 		.4byte	0x16b7
 10558 2f26 C1200000 		.4byte	.LLST227
 10559 2f2a 30       		.uleb128 0x30
 10560 2f2b AC160000 		.4byte	0x16ac
 10561 2f2f D4200000 		.4byte	.LLST228
 10562 2f33 31       		.uleb128 0x31
 10563 2f34 A6090000 		.4byte	.LBB270
 10564 2f38 78010000 		.4byte	.LBE270-.LBB270
 10565 2f3c 32       		.uleb128 0x32
 10566 2f3d CF160000 		.4byte	0x16cf
 10567 2f41 E7200000 		.4byte	.LLST229
 10568 2f45 48       		.uleb128 0x48
 10569 2f46 28140000 		.4byte	0x1428
 10570 2f4a 3C0A0000 		.4byte	.LBB271
 10571 2f4e D6000000 		.4byte	.LBE271-.LBB271
 10572 2f52 01       		.byte	0x1
 10573 2f53 0504     		.2byte	0x405
 10574 2f55 D8300000 		.4byte	0x30d8
 10575 2f59 30       		.uleb128 0x30
 10576 2f5a 50140000 		.4byte	0x1450
 10577 2f5e FA200000 		.4byte	.LLST230
 10578 2f62 30       		.uleb128 0x30
 10579 2f63 44140000 		.4byte	0x1444
 10580 2f67 0D210000 		.4byte	.LLST231
 10581 2f6b 30       		.uleb128 0x30
 10582 2f6c 39140000 		.4byte	0x1439
 10583 2f70 20210000 		.4byte	.LLST232
ARM GAS  C:\Users\164\AppData\Local\Temp\ccd4XrSZ.s 			page 234


 10584 2f74 31       		.uleb128 0x31
 10585 2f75 3C0A0000 		.4byte	.LBB272
 10586 2f79 D6000000 		.4byte	.LBE272-.LBB272
 10587 2f7d 32       		.uleb128 0x32
 10588 2f7e 5C140000 		.4byte	0x145c
 10589 2f82 33210000 		.4byte	.LLST233
 10590 2f86 32       		.uleb128 0x32
 10591 2f87 67140000 		.4byte	0x1467
 10592 2f8b 5E210000 		.4byte	.LLST234
 10593 2f8f 32       		.uleb128 0x32
 10594 2f90 72140000 		.4byte	0x1472
 10595 2f94 7E210000 		.4byte	.LLST235
 10596 2f98 49       		.uleb128 0x49
 10597 2f99 7D140000 		.4byte	0x147d
 10598 2f9d 02       		.uleb128 0x2
 10599 2f9e 91       		.byte	0x91
 10600 2f9f 48       		.sleb128 -56
 10601 2fa0 32       		.uleb128 0x32
 10602 2fa1 89140000 		.4byte	0x1489
 10603 2fa5 91210000 		.4byte	.LLST236
 10604 2fa9 32       		.uleb128 0x32
 10605 2faa 95140000 		.4byte	0x1495
 10606 2fae A4210000 		.4byte	.LLST237
 10607 2fb2 32       		.uleb128 0x32
 10608 2fb3 A1140000 		.4byte	0x14a1
 10609 2fb7 C4210000 		.4byte	.LLST238
 10610 2fbb 32       		.uleb128 0x32
 10611 2fbc AD140000 		.4byte	0x14ad
 10612 2fc0 D7210000 		.4byte	.LLST239
 10613 2fc4 3E       		.uleb128 0x3e
 10614 2fc5 AE0A0000 		.4byte	.LBB273
 10615 2fc9 1C000000 		.4byte	.LBE273-.LBB273
 10616 2fcd 19300000 		.4byte	0x3019
 10617 2fd1 32       		.uleb128 0x32
 10618 2fd2 BC140000 		.4byte	0x14bc
 10619 2fd6 21220000 		.4byte	.LLST240
 10620 2fda 40       		.uleb128 0x40
 10621 2fdb B60A0000 		.4byte	.LVL470
 10622 2fdf F1430000 		.4byte	0x43f1
 10623 2fe3 F42F0000 		.4byte	0x2ff4
 10624 2fe7 2B       		.uleb128 0x2b
 10625 2fe8 01       		.uleb128 0x1
 10626 2fe9 50       		.byte	0x50
 10627 2fea 02       		.uleb128 0x2
 10628 2feb 75       		.byte	0x75
 10629 2fec 00       		.sleb128 0
 10630 2fed 2B       		.uleb128 0x2b
 10631 2fee 01       		.uleb128 0x1
 10632 2fef 51       		.byte	0x51
 10633 2ff0 02       		.uleb128 0x2
 10634 2ff1 91       		.byte	0x91
 10635 2ff2 48       		.sleb128 -56
 10636 2ff3 00       		.byte	0
 10637 2ff4 35       		.uleb128 0x35
 10638 2ff5 BE0A0000 		.4byte	.LVL472
 10639 2ff9 FC430000 		.4byte	0x43fc
 10640 2ffd 2A       		.uleb128 0x2a
ARM GAS  C:\Users\164\AppData\Local\Temp\ccd4XrSZ.s 			page 235


 10641 2ffe C80A0000 		.4byte	.LVL473
 10642 3002 22430000 		.4byte	0x4322
 10643 3006 2B       		.uleb128 0x2b
 10644 3007 01       		.uleb128 0x1
 10645 3008 50       		.byte	0x50
 10646 3009 05       		.uleb128 0x5
 10647 300a 03       		.byte	0x3
 10648 300b 30000000 		.4byte	.LC3
 10649 300f 2B       		.uleb128 0x2b
 10650 3010 01       		.uleb128 0x1
 10651 3011 52       		.byte	0x52
 10652 3012 04       		.uleb128 0x4
 10653 3013 91       		.byte	0x91
 10654 3014 B07F     		.sleb128 -80
 10655 3016 06       		.byte	0x6
 10656 3017 00       		.byte	0
 10657 3018 00       		.byte	0
 10658 3019 3E       		.uleb128 0x3e
 10659 301a D20A0000 		.4byte	.LBB274
 10660 301e 26000000 		.4byte	.LBE274-.LBB274
 10661 3022 63300000 		.4byte	0x3063
 10662 3026 32       		.uleb128 0x32
 10663 3027 D3140000 		.4byte	0x14d3
 10664 302b 34220000 		.4byte	.LLST241
 10665 302f 4A       		.uleb128 0x4a
 10666 3030 DC0A0000 		.4byte	.LVL476
 10667 3034 4D300000 		.4byte	0x304d
 10668 3038 2B       		.uleb128 0x2b
 10669 3039 01       		.uleb128 0x1
 10670 303a 50       		.byte	0x50
 10671 303b 02       		.uleb128 0x2
 10672 303c 75       		.byte	0x75
 10673 303d 00       		.sleb128 0
 10674 303e 2B       		.uleb128 0x2b
 10675 303f 01       		.uleb128 0x1
 10676 3040 51       		.byte	0x51
 10677 3041 04       		.uleb128 0x4
 10678 3042 91       		.byte	0x91
 10679 3043 B47F     		.sleb128 -76
 10680 3045 06       		.byte	0x6
 10681 3046 2B       		.uleb128 0x2b
 10682 3047 01       		.uleb128 0x1
 10683 3048 52       		.byte	0x52
 10684 3049 02       		.uleb128 0x2
 10685 304a 7B       		.byte	0x7b
 10686 304b 00       		.sleb128 0
 10687 304c 00       		.byte	0
 10688 304d 2A       		.uleb128 0x2a
 10689 304e F00A0000 		.4byte	.LVL479
 10690 3052 8E430000 		.4byte	0x438e
 10691 3056 2B       		.uleb128 0x2b
 10692 3057 01       		.uleb128 0x1
 10693 3058 50       		.byte	0x50
 10694 3059 07       		.uleb128 0x7
 10695 305a 77       		.byte	0x77
 10696 305b 00       		.sleb128 0
 10697 305c 34       		.byte	0x34
ARM GAS  C:\Users\164\AppData\Local\Temp\ccd4XrSZ.s 			page 236


 10698 305d 24       		.byte	0x24
 10699 305e 76       		.byte	0x76
 10700 305f 00       		.sleb128 0
 10701 3060 22       		.byte	0x22
 10702 3061 00       		.byte	0
 10703 3062 00       		.byte	0
 10704 3063 40       		.uleb128 0x40
 10705 3064 7C0A0000 		.4byte	.LVL463
 10706 3068 8E430000 		.4byte	0x438e
 10707 306c 7A300000 		.4byte	0x307a
 10708 3070 2B       		.uleb128 0x2b
 10709 3071 01       		.uleb128 0x1
 10710 3072 50       		.byte	0x50
 10711 3073 05       		.uleb128 0x5
 10712 3074 76       		.byte	0x76
 10713 3075 00       		.sleb128 0
 10714 3076 74       		.byte	0x74
 10715 3077 00       		.sleb128 0
 10716 3078 22       		.byte	0x22
 10717 3079 00       		.byte	0
 10718 307a 40       		.uleb128 0x40
 10719 307b 9A0A0000 		.4byte	.LVL464
 10720 307f A20B0000 		.4byte	0xba2
 10721 3083 90300000 		.4byte	0x3090
 10722 3087 2B       		.uleb128 0x2b
 10723 3088 01       		.uleb128 0x1
 10724 3089 51       		.byte	0x51
 10725 308a 04       		.uleb128 0x4
 10726 308b 91       		.byte	0x91
 10727 308c B07F     		.sleb128 -80
 10728 308e 06       		.byte	0x6
 10729 308f 00       		.byte	0
 10730 3090 40       		.uleb128 0x40
 10731 3091 A00A0000 		.4byte	.LVL466
 10732 3095 A4430000 		.4byte	0x43a4
 10733 3099 A6300000 		.4byte	0x30a6
 10734 309d 2B       		.uleb128 0x2b
 10735 309e 01       		.uleb128 0x1
 10736 309f 50       		.byte	0x50
 10737 30a0 04       		.uleb128 0x4
 10738 30a1 91       		.byte	0x91
 10739 30a2 B07F     		.sleb128 -80
 10740 30a4 06       		.byte	0x6
 10741 30a5 00       		.byte	0
 10742 30a6 40       		.uleb128 0x40
 10743 30a7 AA0A0000 		.4byte	.LVL468
 10744 30ab 07440000 		.4byte	0x4407
 10745 30af C0300000 		.4byte	0x30c0
 10746 30b3 2B       		.uleb128 0x2b
 10747 30b4 01       		.uleb128 0x1
 10748 30b5 50       		.byte	0x50
 10749 30b6 02       		.uleb128 0x2
 10750 30b7 75       		.byte	0x75
 10751 30b8 00       		.sleb128 0
 10752 30b9 2B       		.uleb128 0x2b
 10753 30ba 01       		.uleb128 0x1
 10754 30bb 51       		.byte	0x51
ARM GAS  C:\Users\164\AppData\Local\Temp\ccd4XrSZ.s 			page 237


 10755 30bc 02       		.uleb128 0x2
 10756 30bd 91       		.byte	0x91
 10757 30be 48       		.sleb128 -56
 10758 30bf 00       		.byte	0
 10759 30c0 2A       		.uleb128 0x2a
 10760 30c1 000B0000 		.4byte	.LVL483
 10761 30c5 CE0C0000 		.4byte	0xcce
 10762 30c9 2B       		.uleb128 0x2b
 10763 30ca 01       		.uleb128 0x1
 10764 30cb 50       		.byte	0x50
 10765 30cc 02       		.uleb128 0x2
 10766 30cd 75       		.byte	0x75
 10767 30ce 00       		.sleb128 0
 10768 30cf 2B       		.uleb128 0x2b
 10769 30d0 01       		.uleb128 0x1
 10770 30d1 51       		.byte	0x51
 10771 30d2 02       		.uleb128 0x2
 10772 30d3 7B       		.byte	0x7b
 10773 30d4 00       		.sleb128 0
 10774 30d5 00       		.byte	0
 10775 30d6 00       		.byte	0
 10776 30d7 00       		.byte	0
 10777 30d8 2A       		.uleb128 0x2a
 10778 30d9 1E0B0000 		.4byte	.LVL485
 10779 30dd 8E430000 		.4byte	0x438e
 10780 30e1 2B       		.uleb128 0x2b
 10781 30e2 01       		.uleb128 0x1
 10782 30e3 50       		.byte	0x50
 10783 30e4 07       		.uleb128 0x7
 10784 30e5 79       		.byte	0x79
 10785 30e6 01       		.sleb128 1
 10786 30e7 34       		.byte	0x34
 10787 30e8 24       		.byte	0x24
 10788 30e9 76       		.byte	0x76
 10789 30ea 00       		.sleb128 0
 10790 30eb 22       		.byte	0x22
 10791 30ec 00       		.byte	0
 10792 30ed 00       		.byte	0
 10793 30ee 00       		.byte	0
 10794 30ef 48       		.uleb128 0x48
 10795 30f0 DB160000 		.4byte	0x16db
 10796 30f4 240B0000 		.4byte	.LBB275
 10797 30f8 70010000 		.4byte	.LBE275-.LBB275
 10798 30fc 01       		.byte	0x1
 10799 30fd 2C07     		.2byte	0x72c
 10800 30ff DA320000 		.4byte	0x32da
 10801 3103 30       		.uleb128 0x30
 10802 3104 03170000 		.4byte	0x1703
 10803 3108 47220000 		.4byte	.LLST242
 10804 310c 30       		.uleb128 0x30
 10805 310d F7160000 		.4byte	0x16f7
 10806 3111 5A220000 		.4byte	.LLST243
 10807 3115 30       		.uleb128 0x30
 10808 3116 EC160000 		.4byte	0x16ec
 10809 311a 6D220000 		.4byte	.LLST244
 10810 311e 31       		.uleb128 0x31
 10811 311f 240B0000 		.4byte	.LBB276
ARM GAS  C:\Users\164\AppData\Local\Temp\ccd4XrSZ.s 			page 238


 10812 3123 70010000 		.4byte	.LBE276-.LBB276
 10813 3127 32       		.uleb128 0x32
 10814 3128 0F170000 		.4byte	0x170f
 10815 312c 80220000 		.4byte	.LLST245
 10816 3130 48       		.uleb128 0x48
 10817 3131 28140000 		.4byte	0x1428
 10818 3135 B20B0000 		.4byte	.LBB277
 10819 3139 D6000000 		.4byte	.LBE277-.LBB277
 10820 313d 01       		.byte	0x1
 10821 313e 3304     		.2byte	0x433
 10822 3140 C3320000 		.4byte	0x32c3
 10823 3144 30       		.uleb128 0x30
 10824 3145 50140000 		.4byte	0x1450
 10825 3149 93220000 		.4byte	.LLST246
 10826 314d 30       		.uleb128 0x30
 10827 314e 44140000 		.4byte	0x1444
 10828 3152 A6220000 		.4byte	.LLST247
 10829 3156 30       		.uleb128 0x30
 10830 3157 39140000 		.4byte	0x1439
 10831 315b B9220000 		.4byte	.LLST248
 10832 315f 31       		.uleb128 0x31
 10833 3160 B20B0000 		.4byte	.LBB278
 10834 3164 D6000000 		.4byte	.LBE278-.LBB278
 10835 3168 32       		.uleb128 0x32
 10836 3169 5C140000 		.4byte	0x145c
 10837 316d CC220000 		.4byte	.LLST249
 10838 3171 32       		.uleb128 0x32
 10839 3172 67140000 		.4byte	0x1467
 10840 3176 F7220000 		.4byte	.LLST250
 10841 317a 32       		.uleb128 0x32
 10842 317b 72140000 		.4byte	0x1472
 10843 317f 17230000 		.4byte	.LLST251
 10844 3183 49       		.uleb128 0x49
 10845 3184 7D140000 		.4byte	0x147d
 10846 3188 02       		.uleb128 0x2
 10847 3189 91       		.byte	0x91
 10848 318a 48       		.sleb128 -56
 10849 318b 32       		.uleb128 0x32
 10850 318c 89140000 		.4byte	0x1489
 10851 3190 2A230000 		.4byte	.LLST252
 10852 3194 32       		.uleb128 0x32
 10853 3195 95140000 		.4byte	0x1495
 10854 3199 3D230000 		.4byte	.LLST253
 10855 319d 32       		.uleb128 0x32
 10856 319e A1140000 		.4byte	0x14a1
 10857 31a2 5D230000 		.4byte	.LLST254
 10858 31a6 32       		.uleb128 0x32
 10859 31a7 AD140000 		.4byte	0x14ad
 10860 31ab 70230000 		.4byte	.LLST255
 10861 31af 3E       		.uleb128 0x3e
 10862 31b0 240C0000 		.4byte	.LBB279
 10863 31b4 1C000000 		.4byte	.LBE279-.LBB279
 10864 31b8 04320000 		.4byte	0x3204
 10865 31bc 32       		.uleb128 0x32
 10866 31bd BC140000 		.4byte	0x14bc
 10867 31c1 BA230000 		.4byte	.LLST256
 10868 31c5 40       		.uleb128 0x40
ARM GAS  C:\Users\164\AppData\Local\Temp\ccd4XrSZ.s 			page 239


 10869 31c6 2C0C0000 		.4byte	.LVL509
 10870 31ca F1430000 		.4byte	0x43f1
 10871 31ce DF310000 		.4byte	0x31df
 10872 31d2 2B       		.uleb128 0x2b
 10873 31d3 01       		.uleb128 0x1
 10874 31d4 50       		.byte	0x50
 10875 31d5 02       		.uleb128 0x2
 10876 31d6 75       		.byte	0x75
 10877 31d7 00       		.sleb128 0
 10878 31d8 2B       		.uleb128 0x2b
 10879 31d9 01       		.uleb128 0x1
 10880 31da 51       		.byte	0x51
 10881 31db 02       		.uleb128 0x2
 10882 31dc 91       		.byte	0x91
 10883 31dd 48       		.sleb128 -56
 10884 31de 00       		.byte	0
 10885 31df 35       		.uleb128 0x35
 10886 31e0 340C0000 		.4byte	.LVL511
 10887 31e4 FC430000 		.4byte	0x43fc
 10888 31e8 2A       		.uleb128 0x2a
 10889 31e9 3E0C0000 		.4byte	.LVL512
 10890 31ed 22430000 		.4byte	0x4322
 10891 31f1 2B       		.uleb128 0x2b
 10892 31f2 01       		.uleb128 0x1
 10893 31f3 50       		.byte	0x50
 10894 31f4 05       		.uleb128 0x5
 10895 31f5 03       		.byte	0x3
 10896 31f6 30000000 		.4byte	.LC3
 10897 31fa 2B       		.uleb128 0x2b
 10898 31fb 01       		.uleb128 0x1
 10899 31fc 52       		.byte	0x52
 10900 31fd 04       		.uleb128 0x4
 10901 31fe 91       		.byte	0x91
 10902 31ff B07F     		.sleb128 -80
 10903 3201 06       		.byte	0x6
 10904 3202 00       		.byte	0
 10905 3203 00       		.byte	0
 10906 3204 3E       		.uleb128 0x3e
 10907 3205 480C0000 		.4byte	.LBB280
 10908 3209 26000000 		.4byte	.LBE280-.LBB280
 10909 320d 4E320000 		.4byte	0x324e
 10910 3211 32       		.uleb128 0x32
 10911 3212 D3140000 		.4byte	0x14d3
 10912 3216 CD230000 		.4byte	.LLST257
 10913 321a 4A       		.uleb128 0x4a
 10914 321b 520C0000 		.4byte	.LVL515
 10915 321f 38320000 		.4byte	0x3238
 10916 3223 2B       		.uleb128 0x2b
 10917 3224 01       		.uleb128 0x1
 10918 3225 50       		.byte	0x50
 10919 3226 02       		.uleb128 0x2
 10920 3227 75       		.byte	0x75
 10921 3228 00       		.sleb128 0
 10922 3229 2B       		.uleb128 0x2b
 10923 322a 01       		.uleb128 0x1
 10924 322b 51       		.byte	0x51
 10925 322c 04       		.uleb128 0x4
ARM GAS  C:\Users\164\AppData\Local\Temp\ccd4XrSZ.s 			page 240


 10926 322d 91       		.byte	0x91
 10927 322e B47F     		.sleb128 -76
 10928 3230 06       		.byte	0x6
 10929 3231 2B       		.uleb128 0x2b
 10930 3232 01       		.uleb128 0x1
 10931 3233 52       		.byte	0x52
 10932 3234 02       		.uleb128 0x2
 10933 3235 7B       		.byte	0x7b
 10934 3236 00       		.sleb128 0
 10935 3237 00       		.byte	0
 10936 3238 2A       		.uleb128 0x2a
 10937 3239 660C0000 		.4byte	.LVL518
 10938 323d 8E430000 		.4byte	0x438e
 10939 3241 2B       		.uleb128 0x2b
 10940 3242 01       		.uleb128 0x1
 10941 3243 50       		.byte	0x50
 10942 3244 07       		.uleb128 0x7
 10943 3245 77       		.byte	0x77
 10944 3246 00       		.sleb128 0
 10945 3247 34       		.byte	0x34
 10946 3248 24       		.byte	0x24
 10947 3249 76       		.byte	0x76
 10948 324a 00       		.sleb128 0
 10949 324b 22       		.byte	0x22
 10950 324c 00       		.byte	0
 10951 324d 00       		.byte	0
 10952 324e 40       		.uleb128 0x40
 10953 324f F20B0000 		.4byte	.LVL502
 10954 3253 8E430000 		.4byte	0x438e
 10955 3257 65320000 		.4byte	0x3265
 10956 325b 2B       		.uleb128 0x2b
 10957 325c 01       		.uleb128 0x1
 10958 325d 50       		.byte	0x50
 10959 325e 05       		.uleb128 0x5
 10960 325f 76       		.byte	0x76
 10961 3260 00       		.sleb128 0
 10962 3261 74       		.byte	0x74
 10963 3262 00       		.sleb128 0
 10964 3263 22       		.byte	0x22
 10965 3264 00       		.byte	0
 10966 3265 40       		.uleb128 0x40
 10967 3266 100C0000 		.4byte	.LVL503
 10968 326a A20B0000 		.4byte	0xba2
 10969 326e 7B320000 		.4byte	0x327b
 10970 3272 2B       		.uleb128 0x2b
 10971 3273 01       		.uleb128 0x1
 10972 3274 51       		.byte	0x51
 10973 3275 04       		.uleb128 0x4
 10974 3276 91       		.byte	0x91
 10975 3277 B07F     		.sleb128 -80
 10976 3279 06       		.byte	0x6
 10977 327a 00       		.byte	0
 10978 327b 40       		.uleb128 0x40
 10979 327c 160C0000 		.4byte	.LVL505
 10980 3280 A4430000 		.4byte	0x43a4
 10981 3284 91320000 		.4byte	0x3291
 10982 3288 2B       		.uleb128 0x2b
ARM GAS  C:\Users\164\AppData\Local\Temp\ccd4XrSZ.s 			page 241


 10983 3289 01       		.uleb128 0x1
 10984 328a 50       		.byte	0x50
 10985 328b 04       		.uleb128 0x4
 10986 328c 91       		.byte	0x91
 10987 328d B07F     		.sleb128 -80
 10988 328f 06       		.byte	0x6
 10989 3290 00       		.byte	0
 10990 3291 40       		.uleb128 0x40
 10991 3292 200C0000 		.4byte	.LVL507
 10992 3296 07440000 		.4byte	0x4407
 10993 329a AB320000 		.4byte	0x32ab
 10994 329e 2B       		.uleb128 0x2b
 10995 329f 01       		.uleb128 0x1
 10996 32a0 50       		.byte	0x50
 10997 32a1 02       		.uleb128 0x2
 10998 32a2 75       		.byte	0x75
 10999 32a3 00       		.sleb128 0
 11000 32a4 2B       		.uleb128 0x2b
 11001 32a5 01       		.uleb128 0x1
 11002 32a6 51       		.byte	0x51
 11003 32a7 02       		.uleb128 0x2
 11004 32a8 91       		.byte	0x91
 11005 32a9 48       		.sleb128 -56
 11006 32aa 00       		.byte	0
 11007 32ab 2A       		.uleb128 0x2a
 11008 32ac 760C0000 		.4byte	.LVL522
 11009 32b0 CE0C0000 		.4byte	0xcce
 11010 32b4 2B       		.uleb128 0x2b
 11011 32b5 01       		.uleb128 0x1
 11012 32b6 50       		.byte	0x50
 11013 32b7 02       		.uleb128 0x2
 11014 32b8 75       		.byte	0x75
 11015 32b9 00       		.sleb128 0
 11016 32ba 2B       		.uleb128 0x2b
 11017 32bb 01       		.uleb128 0x1
 11018 32bc 51       		.byte	0x51
 11019 32bd 02       		.uleb128 0x2
 11020 32be 7B       		.byte	0x7b
 11021 32bf 00       		.sleb128 0
 11022 32c0 00       		.byte	0
 11023 32c1 00       		.byte	0
 11024 32c2 00       		.byte	0
 11025 32c3 2A       		.uleb128 0x2a
 11026 32c4 940C0000 		.4byte	.LVL524
 11027 32c8 8E430000 		.4byte	0x438e
 11028 32cc 2B       		.uleb128 0x2b
 11029 32cd 01       		.uleb128 0x1
 11030 32ce 50       		.byte	0x50
 11031 32cf 07       		.uleb128 0x7
 11032 32d0 79       		.byte	0x79
 11033 32d1 01       		.sleb128 1
 11034 32d2 34       		.byte	0x34
 11035 32d3 24       		.byte	0x24
 11036 32d4 76       		.byte	0x76
 11037 32d5 00       		.sleb128 0
 11038 32d6 22       		.byte	0x22
 11039 32d7 00       		.byte	0
ARM GAS  C:\Users\164\AppData\Local\Temp\ccd4XrSZ.s 			page 242


 11040 32d8 00       		.byte	0
 11041 32d9 00       		.byte	0
 11042 32da 48       		.uleb128 0x48
 11043 32db 1B170000 		.4byte	0x171b
 11044 32df 9A0C0000 		.4byte	.LBB281
 11045 32e3 36000000 		.4byte	.LBE281-.LBB281
 11046 32e7 01       		.byte	0x1
 11047 32e8 2D07     		.2byte	0x72d
 11048 32ea 64330000 		.4byte	0x3364
 11049 32ee 30       		.uleb128 0x30
 11050 32ef 43170000 		.4byte	0x1743
 11051 32f3 E0230000 		.4byte	.LLST258
 11052 32f7 30       		.uleb128 0x30
 11053 32f8 37170000 		.4byte	0x1737
 11054 32fc F3230000 		.4byte	.LLST259
 11055 3300 30       		.uleb128 0x30
 11056 3301 2C170000 		.4byte	0x172c
 11057 3305 06240000 		.4byte	.LLST260
 11058 3309 31       		.uleb128 0x31
 11059 330a 9A0C0000 		.4byte	.LBB282
 11060 330e 36000000 		.4byte	.LBE282-.LBB282
 11061 3312 32       		.uleb128 0x32
 11062 3313 4F170000 		.4byte	0x174f
 11063 3317 19240000 		.4byte	.LLST261
 11064 331b 32       		.uleb128 0x32
 11065 331c 5A170000 		.4byte	0x175a
 11066 3320 39240000 		.4byte	.LLST262
 11067 3324 40       		.uleb128 0x40
 11068 3325 B20C0000 		.4byte	.LVL530
 11069 3329 12440000 		.4byte	0x4412
 11070 332d 3E330000 		.4byte	0x333e
 11071 3331 2B       		.uleb128 0x2b
 11072 3332 01       		.uleb128 0x1
 11073 3333 50       		.byte	0x50
 11074 3334 02       		.uleb128 0x2
 11075 3335 77       		.byte	0x77
 11076 3336 00       		.sleb128 0
 11077 3337 2B       		.uleb128 0x2b
 11078 3338 01       		.uleb128 0x1
 11079 3339 51       		.byte	0x51
 11080 333a 02       		.uleb128 0x2
 11081 333b 74       		.byte	0x74
 11082 333c 00       		.sleb128 0
 11083 333d 00       		.byte	0
 11084 333e 40       		.uleb128 0x40
 11085 333f BA0C0000 		.4byte	.LVL533
 11086 3343 8E430000 		.4byte	0x438e
 11087 3347 52330000 		.4byte	0x3352
 11088 334b 2B       		.uleb128 0x2b
 11089 334c 01       		.uleb128 0x1
 11090 334d 50       		.byte	0x50
 11091 334e 02       		.uleb128 0x2
 11092 334f 74       		.byte	0x74
 11093 3350 00       		.sleb128 0
 11094 3351 00       		.byte	0
 11095 3352 2A       		.uleb128 0x2a
 11096 3353 C00C0000 		.4byte	.LVL534
ARM GAS  C:\Users\164\AppData\Local\Temp\ccd4XrSZ.s 			page 243


 11097 3357 8E430000 		.4byte	0x438e
 11098 335b 2B       		.uleb128 0x2b
 11099 335c 01       		.uleb128 0x1
 11100 335d 50       		.byte	0x50
 11101 335e 02       		.uleb128 0x2
 11102 335f 77       		.byte	0x77
 11103 3360 00       		.sleb128 0
 11104 3361 00       		.byte	0
 11105 3362 00       		.byte	0
 11106 3363 00       		.byte	0
 11107 3364 48       		.uleb128 0x48
 11108 3365 67170000 		.4byte	0x1767
 11109 3369 D60C0000 		.4byte	.LBB283
 11110 336d 9E010000 		.4byte	.LBE283-.LBB283
 11111 3371 01       		.byte	0x1
 11112 3372 2E07     		.2byte	0x72e
 11113 3374 61350000 		.4byte	0x3561
 11114 3378 30       		.uleb128 0x30
 11115 3379 8F170000 		.4byte	0x178f
 11116 337d 57240000 		.4byte	.LLST263
 11117 3381 30       		.uleb128 0x30
 11118 3382 83170000 		.4byte	0x1783
 11119 3386 6A240000 		.4byte	.LLST264
 11120 338a 30       		.uleb128 0x30
 11121 338b 78170000 		.4byte	0x1778
 11122 338f 9E240000 		.4byte	.LLST265
 11123 3393 31       		.uleb128 0x31
 11124 3394 D60C0000 		.4byte	.LBB284
 11125 3398 9E010000 		.4byte	.LBE284-.LBB284
 11126 339c 32       		.uleb128 0x32
 11127 339d 9B170000 		.4byte	0x179b
 11128 33a1 B1240000 		.4byte	.LLST266
 11129 33a5 32       		.uleb128 0x32
 11130 33a6 A6170000 		.4byte	0x17a6
 11131 33aa F8240000 		.4byte	.LLST267
 11132 33ae 4B       		.uleb128 0x4b
 11133 33af B2170000 		.4byte	0x17b2
 11134 33b3 6A0E0000 		.4byte	.L191
 11135 33b7 48       		.uleb128 0x48
 11136 33b8 28140000 		.4byte	0x1428
 11137 33bc 7E0D0000 		.4byte	.LBB285
 11138 33c0 DE000000 		.4byte	.LBE285-.LBB285
 11139 33c4 01       		.byte	0x1
 11140 33c5 7904     		.2byte	0x479
 11141 33c7 4A350000 		.4byte	0x354a
 11142 33cb 30       		.uleb128 0x30
 11143 33cc 50140000 		.4byte	0x1450
 11144 33d0 42250000 		.4byte	.LLST268
 11145 33d4 30       		.uleb128 0x30
 11146 33d5 44140000 		.4byte	0x1444
 11147 33d9 55250000 		.4byte	.LLST269
 11148 33dd 30       		.uleb128 0x30
 11149 33de 39140000 		.4byte	0x1439
 11150 33e2 68250000 		.4byte	.LLST270
 11151 33e6 31       		.uleb128 0x31
 11152 33e7 7E0D0000 		.4byte	.LBB286
 11153 33eb DE000000 		.4byte	.LBE286-.LBB286
ARM GAS  C:\Users\164\AppData\Local\Temp\ccd4XrSZ.s 			page 244


 11154 33ef 32       		.uleb128 0x32
 11155 33f0 5C140000 		.4byte	0x145c
 11156 33f4 7B250000 		.4byte	.LLST271
 11157 33f8 32       		.uleb128 0x32
 11158 33f9 67140000 		.4byte	0x1467
 11159 33fd A6250000 		.4byte	.LLST272
 11160 3401 32       		.uleb128 0x32
 11161 3402 72140000 		.4byte	0x1472
 11162 3406 C6250000 		.4byte	.LLST273
 11163 340a 49       		.uleb128 0x49
 11164 340b 7D140000 		.4byte	0x147d
 11165 340f 02       		.uleb128 0x2
 11166 3410 91       		.byte	0x91
 11167 3411 48       		.sleb128 -56
 11168 3412 32       		.uleb128 0x32
 11169 3413 89140000 		.4byte	0x1489
 11170 3417 D9250000 		.4byte	.LLST274
 11171 341b 32       		.uleb128 0x32
 11172 341c 95140000 		.4byte	0x1495
 11173 3420 EC250000 		.4byte	.LLST275
 11174 3424 32       		.uleb128 0x32
 11175 3425 A1140000 		.4byte	0x14a1
 11176 3429 0C260000 		.4byte	.LLST276
 11177 342d 32       		.uleb128 0x32
 11178 342e AD140000 		.4byte	0x14ad
 11179 3432 1F260000 		.4byte	.LLST277
 11180 3436 3E       		.uleb128 0x3e
 11181 3437 F80D0000 		.4byte	.LBB287
 11182 343b 1C000000 		.4byte	.LBE287-.LBB287
 11183 343f 8B340000 		.4byte	0x348b
 11184 3443 32       		.uleb128 0x32
 11185 3444 BC140000 		.4byte	0x14bc
 11186 3448 69260000 		.4byte	.LLST278
 11187 344c 40       		.uleb128 0x40
 11188 344d 000E0000 		.4byte	.LVL571
 11189 3451 F1430000 		.4byte	0x43f1
 11190 3455 66340000 		.4byte	0x3466
 11191 3459 2B       		.uleb128 0x2b
 11192 345a 01       		.uleb128 0x1
 11193 345b 50       		.byte	0x50
 11194 345c 02       		.uleb128 0x2
 11195 345d 75       		.byte	0x75
 11196 345e 00       		.sleb128 0
 11197 345f 2B       		.uleb128 0x2b
 11198 3460 01       		.uleb128 0x1
 11199 3461 51       		.byte	0x51
 11200 3462 02       		.uleb128 0x2
 11201 3463 91       		.byte	0x91
 11202 3464 48       		.sleb128 -56
 11203 3465 00       		.byte	0
 11204 3466 35       		.uleb128 0x35
 11205 3467 080E0000 		.4byte	.LVL573
 11206 346b FC430000 		.4byte	0x43fc
 11207 346f 2A       		.uleb128 0x2a
 11208 3470 120E0000 		.4byte	.LVL574
 11209 3474 22430000 		.4byte	0x4322
 11210 3478 2B       		.uleb128 0x2b
ARM GAS  C:\Users\164\AppData\Local\Temp\ccd4XrSZ.s 			page 245


 11211 3479 01       		.uleb128 0x1
 11212 347a 50       		.byte	0x50
 11213 347b 05       		.uleb128 0x5
 11214 347c 03       		.byte	0x3
 11215 347d 30000000 		.4byte	.LC3
 11216 3481 2B       		.uleb128 0x2b
 11217 3482 01       		.uleb128 0x1
 11218 3483 52       		.byte	0x52
 11219 3484 04       		.uleb128 0x4
 11220 3485 91       		.byte	0x91
 11221 3486 B07F     		.sleb128 -80
 11222 3488 06       		.byte	0x6
 11223 3489 00       		.byte	0
 11224 348a 00       		.byte	0
 11225 348b 3E       		.uleb128 0x3e
 11226 348c 1C0E0000 		.4byte	.LBB288
 11227 3490 26000000 		.4byte	.LBE288-.LBB288
 11228 3494 D5340000 		.4byte	0x34d5
 11229 3498 32       		.uleb128 0x32
 11230 3499 D3140000 		.4byte	0x14d3
 11231 349d 7C260000 		.4byte	.LLST279
 11232 34a1 4A       		.uleb128 0x4a
 11233 34a2 260E0000 		.4byte	.LVL577
 11234 34a6 BF340000 		.4byte	0x34bf
 11235 34aa 2B       		.uleb128 0x2b
 11236 34ab 01       		.uleb128 0x1
 11237 34ac 50       		.byte	0x50
 11238 34ad 02       		.uleb128 0x2
 11239 34ae 75       		.byte	0x75
 11240 34af 00       		.sleb128 0
 11241 34b0 2B       		.uleb128 0x2b
 11242 34b1 01       		.uleb128 0x1
 11243 34b2 51       		.byte	0x51
 11244 34b3 04       		.uleb128 0x4
 11245 34b4 91       		.byte	0x91
 11246 34b5 B47F     		.sleb128 -76
 11247 34b7 06       		.byte	0x6
 11248 34b8 2B       		.uleb128 0x2b
 11249 34b9 01       		.uleb128 0x1
 11250 34ba 52       		.byte	0x52
 11251 34bb 02       		.uleb128 0x2
 11252 34bc 7B       		.byte	0x7b
 11253 34bd 00       		.sleb128 0
 11254 34be 00       		.byte	0
 11255 34bf 2A       		.uleb128 0x2a
 11256 34c0 3A0E0000 		.4byte	.LVL580
 11257 34c4 8E430000 		.4byte	0x438e
 11258 34c8 2B       		.uleb128 0x2b
 11259 34c9 01       		.uleb128 0x1
 11260 34ca 50       		.byte	0x50
 11261 34cb 07       		.uleb128 0x7
 11262 34cc 77       		.byte	0x77
 11263 34cd 00       		.sleb128 0
 11264 34ce 34       		.byte	0x34
 11265 34cf 24       		.byte	0x24
 11266 34d0 76       		.byte	0x76
 11267 34d1 00       		.sleb128 0
ARM GAS  C:\Users\164\AppData\Local\Temp\ccd4XrSZ.s 			page 246


 11268 34d2 22       		.byte	0x22
 11269 34d3 00       		.byte	0
 11270 34d4 00       		.byte	0
 11271 34d5 40       		.uleb128 0x40
 11272 34d6 C60D0000 		.4byte	.LVL564
 11273 34da 8E430000 		.4byte	0x438e
 11274 34de EC340000 		.4byte	0x34ec
 11275 34e2 2B       		.uleb128 0x2b
 11276 34e3 01       		.uleb128 0x1
 11277 34e4 50       		.byte	0x50
 11278 34e5 05       		.uleb128 0x5
 11279 34e6 76       		.byte	0x76
 11280 34e7 00       		.sleb128 0
 11281 34e8 74       		.byte	0x74
 11282 34e9 00       		.sleb128 0
 11283 34ea 22       		.byte	0x22
 11284 34eb 00       		.byte	0
 11285 34ec 40       		.uleb128 0x40
 11286 34ed E40D0000 		.4byte	.LVL565
 11287 34f1 A20B0000 		.4byte	0xba2
 11288 34f5 02350000 		.4byte	0x3502
 11289 34f9 2B       		.uleb128 0x2b
 11290 34fa 01       		.uleb128 0x1
 11291 34fb 51       		.byte	0x51
 11292 34fc 04       		.uleb128 0x4
 11293 34fd 91       		.byte	0x91
 11294 34fe B07F     		.sleb128 -80
 11295 3500 06       		.byte	0x6
 11296 3501 00       		.byte	0
 11297 3502 40       		.uleb128 0x40
 11298 3503 EA0D0000 		.4byte	.LVL567
 11299 3507 A4430000 		.4byte	0x43a4
 11300 350b 18350000 		.4byte	0x3518
 11301 350f 2B       		.uleb128 0x2b
 11302 3510 01       		.uleb128 0x1
 11303 3511 50       		.byte	0x50
 11304 3512 04       		.uleb128 0x4
 11305 3513 91       		.byte	0x91
 11306 3514 B07F     		.sleb128 -80
 11307 3516 06       		.byte	0x6
 11308 3517 00       		.byte	0
 11309 3518 40       		.uleb128 0x40
 11310 3519 F40D0000 		.4byte	.LVL569
 11311 351d 07440000 		.4byte	0x4407
 11312 3521 32350000 		.4byte	0x3532
 11313 3525 2B       		.uleb128 0x2b
 11314 3526 01       		.uleb128 0x1
 11315 3527 50       		.byte	0x50
 11316 3528 02       		.uleb128 0x2
 11317 3529 75       		.byte	0x75
 11318 352a 00       		.sleb128 0
 11319 352b 2B       		.uleb128 0x2b
 11320 352c 01       		.uleb128 0x1
 11321 352d 51       		.byte	0x51
 11322 352e 02       		.uleb128 0x2
 11323 352f 91       		.byte	0x91
 11324 3530 48       		.sleb128 -56
ARM GAS  C:\Users\164\AppData\Local\Temp\ccd4XrSZ.s 			page 247


 11325 3531 00       		.byte	0
 11326 3532 2A       		.uleb128 0x2a
 11327 3533 4A0E0000 		.4byte	.LVL584
 11328 3537 CE0C0000 		.4byte	0xcce
 11329 353b 2B       		.uleb128 0x2b
 11330 353c 01       		.uleb128 0x1
 11331 353d 50       		.byte	0x50
 11332 353e 02       		.uleb128 0x2
 11333 353f 75       		.byte	0x75
 11334 3540 00       		.sleb128 0
 11335 3541 2B       		.uleb128 0x2b
 11336 3542 01       		.uleb128 0x1
 11337 3543 51       		.byte	0x51
 11338 3544 02       		.uleb128 0x2
 11339 3545 7B       		.byte	0x7b
 11340 3546 00       		.sleb128 0
 11341 3547 00       		.byte	0
 11342 3548 00       		.byte	0
 11343 3549 00       		.byte	0
 11344 354a 2A       		.uleb128 0x2a
 11345 354b 680E0000 		.4byte	.LVL586
 11346 354f 8E430000 		.4byte	0x438e
 11347 3553 2B       		.uleb128 0x2b
 11348 3554 01       		.uleb128 0x1
 11349 3555 50       		.byte	0x50
 11350 3556 07       		.uleb128 0x7
 11351 3557 78       		.byte	0x78
 11352 3558 01       		.sleb128 1
 11353 3559 34       		.byte	0x34
 11354 355a 24       		.byte	0x24
 11355 355b 76       		.byte	0x76
 11356 355c 00       		.sleb128 0
 11357 355d 22       		.byte	0x22
 11358 355e 00       		.byte	0
 11359 355f 00       		.byte	0
 11360 3560 00       		.byte	0
 11361 3561 48       		.uleb128 0x48
 11362 3562 BB170000 		.4byte	0x17bb
 11363 3566 7A0E0000 		.4byte	.LBB289
 11364 356a 96010000 		.4byte	.LBE289-.LBB289
 11365 356e 01       		.byte	0x1
 11366 356f 2F07     		.2byte	0x72f
 11367 3571 5E370000 		.4byte	0x375e
 11368 3575 30       		.uleb128 0x30
 11369 3576 E3170000 		.4byte	0x17e3
 11370 357a 8F260000 		.4byte	.LLST280
 11371 357e 30       		.uleb128 0x30
 11372 357f D7170000 		.4byte	0x17d7
 11373 3583 A2260000 		.4byte	.LLST281
 11374 3587 30       		.uleb128 0x30
 11375 3588 CC170000 		.4byte	0x17cc
 11376 358c D6260000 		.4byte	.LLST282
 11377 3590 31       		.uleb128 0x31
 11378 3591 7A0E0000 		.4byte	.LBB290
 11379 3595 96010000 		.4byte	.LBE290-.LBB290
 11380 3599 32       		.uleb128 0x32
 11381 359a EF170000 		.4byte	0x17ef
ARM GAS  C:\Users\164\AppData\Local\Temp\ccd4XrSZ.s 			page 248


 11382 359e E9260000 		.4byte	.LLST283
 11383 35a2 32       		.uleb128 0x32
 11384 35a3 FA170000 		.4byte	0x17fa
 11385 35a7 30270000 		.4byte	.LLST284
 11386 35ab 4B       		.uleb128 0x4b
 11387 35ac 06180000 		.4byte	0x1806
 11388 35b0 06100000 		.4byte	.L209
 11389 35b4 48       		.uleb128 0x48
 11390 35b5 28140000 		.4byte	0x1428
 11391 35b9 220F0000 		.4byte	.LBB291
 11392 35bd D6000000 		.4byte	.LBE291-.LBB291
 11393 35c1 01       		.byte	0x1
 11394 35c2 AB04     		.2byte	0x4ab
 11395 35c4 47370000 		.4byte	0x3747
 11396 35c8 30       		.uleb128 0x30
 11397 35c9 50140000 		.4byte	0x1450
 11398 35cd 7A270000 		.4byte	.LLST285
 11399 35d1 30       		.uleb128 0x30
 11400 35d2 44140000 		.4byte	0x1444
 11401 35d6 8D270000 		.4byte	.LLST286
 11402 35da 30       		.uleb128 0x30
 11403 35db 39140000 		.4byte	0x1439
 11404 35df A0270000 		.4byte	.LLST287
 11405 35e3 31       		.uleb128 0x31
 11406 35e4 220F0000 		.4byte	.LBB292
 11407 35e8 D6000000 		.4byte	.LBE292-.LBB292
 11408 35ec 32       		.uleb128 0x32
 11409 35ed 5C140000 		.4byte	0x145c
 11410 35f1 B3270000 		.4byte	.LLST288
 11411 35f5 32       		.uleb128 0x32
 11412 35f6 67140000 		.4byte	0x1467
 11413 35fa DE270000 		.4byte	.LLST289
 11414 35fe 32       		.uleb128 0x32
 11415 35ff 72140000 		.4byte	0x1472
 11416 3603 FE270000 		.4byte	.LLST290
 11417 3607 49       		.uleb128 0x49
 11418 3608 7D140000 		.4byte	0x147d
 11419 360c 02       		.uleb128 0x2
 11420 360d 91       		.byte	0x91
 11421 360e 48       		.sleb128 -56
 11422 360f 32       		.uleb128 0x32
 11423 3610 89140000 		.4byte	0x1489
 11424 3614 11280000 		.4byte	.LLST291
 11425 3618 32       		.uleb128 0x32
 11426 3619 95140000 		.4byte	0x1495
 11427 361d 24280000 		.4byte	.LLST292
 11428 3621 32       		.uleb128 0x32
 11429 3622 A1140000 		.4byte	0x14a1
 11430 3626 44280000 		.4byte	.LLST293
 11431 362a 32       		.uleb128 0x32
 11432 362b AD140000 		.4byte	0x14ad
 11433 362f 57280000 		.4byte	.LLST294
 11434 3633 3E       		.uleb128 0x3e
 11435 3634 940F0000 		.4byte	.LBB293
 11436 3638 1C000000 		.4byte	.LBE293-.LBB293
 11437 363c 88360000 		.4byte	0x3688
 11438 3640 32       		.uleb128 0x32
ARM GAS  C:\Users\164\AppData\Local\Temp\ccd4XrSZ.s 			page 249


 11439 3641 BC140000 		.4byte	0x14bc
 11440 3645 A1280000 		.4byte	.LLST295
 11441 3649 40       		.uleb128 0x40
 11442 364a 9C0F0000 		.4byte	.LVL627
 11443 364e F1430000 		.4byte	0x43f1
 11444 3652 63360000 		.4byte	0x3663
 11445 3656 2B       		.uleb128 0x2b
 11446 3657 01       		.uleb128 0x1
 11447 3658 50       		.byte	0x50
 11448 3659 02       		.uleb128 0x2
 11449 365a 75       		.byte	0x75
 11450 365b 00       		.sleb128 0
 11451 365c 2B       		.uleb128 0x2b
 11452 365d 01       		.uleb128 0x1
 11453 365e 51       		.byte	0x51
 11454 365f 02       		.uleb128 0x2
 11455 3660 91       		.byte	0x91
 11456 3661 48       		.sleb128 -56
 11457 3662 00       		.byte	0
 11458 3663 35       		.uleb128 0x35
 11459 3664 A40F0000 		.4byte	.LVL629
 11460 3668 FC430000 		.4byte	0x43fc
 11461 366c 2A       		.uleb128 0x2a
 11462 366d AE0F0000 		.4byte	.LVL630
 11463 3671 22430000 		.4byte	0x4322
 11464 3675 2B       		.uleb128 0x2b
 11465 3676 01       		.uleb128 0x1
 11466 3677 50       		.byte	0x50
 11467 3678 05       		.uleb128 0x5
 11468 3679 03       		.byte	0x3
 11469 367a 30000000 		.4byte	.LC3
 11470 367e 2B       		.uleb128 0x2b
 11471 367f 01       		.uleb128 0x1
 11472 3680 52       		.byte	0x52
 11473 3681 04       		.uleb128 0x4
 11474 3682 91       		.byte	0x91
 11475 3683 B07F     		.sleb128 -80
 11476 3685 06       		.byte	0x6
 11477 3686 00       		.byte	0
 11478 3687 00       		.byte	0
 11479 3688 3E       		.uleb128 0x3e
 11480 3689 B80F0000 		.4byte	.LBB294
 11481 368d 26000000 		.4byte	.LBE294-.LBB294
 11482 3691 D2360000 		.4byte	0x36d2
 11483 3695 32       		.uleb128 0x32
 11484 3696 D3140000 		.4byte	0x14d3
 11485 369a B4280000 		.4byte	.LLST296
 11486 369e 4A       		.uleb128 0x4a
 11487 369f C20F0000 		.4byte	.LVL633
 11488 36a3 BC360000 		.4byte	0x36bc
 11489 36a7 2B       		.uleb128 0x2b
 11490 36a8 01       		.uleb128 0x1
 11491 36a9 50       		.byte	0x50
 11492 36aa 02       		.uleb128 0x2
 11493 36ab 75       		.byte	0x75
 11494 36ac 00       		.sleb128 0
 11495 36ad 2B       		.uleb128 0x2b
ARM GAS  C:\Users\164\AppData\Local\Temp\ccd4XrSZ.s 			page 250


 11496 36ae 01       		.uleb128 0x1
 11497 36af 51       		.byte	0x51
 11498 36b0 04       		.uleb128 0x4
 11499 36b1 91       		.byte	0x91
 11500 36b2 B47F     		.sleb128 -76
 11501 36b4 06       		.byte	0x6
 11502 36b5 2B       		.uleb128 0x2b
 11503 36b6 01       		.uleb128 0x1
 11504 36b7 52       		.byte	0x52
 11505 36b8 02       		.uleb128 0x2
 11506 36b9 7B       		.byte	0x7b
 11507 36ba 00       		.sleb128 0
 11508 36bb 00       		.byte	0
 11509 36bc 2A       		.uleb128 0x2a
 11510 36bd D60F0000 		.4byte	.LVL636
 11511 36c1 8E430000 		.4byte	0x438e
 11512 36c5 2B       		.uleb128 0x2b
 11513 36c6 01       		.uleb128 0x1
 11514 36c7 50       		.byte	0x50
 11515 36c8 07       		.uleb128 0x7
 11516 36c9 77       		.byte	0x77
 11517 36ca 00       		.sleb128 0
 11518 36cb 34       		.byte	0x34
 11519 36cc 24       		.byte	0x24
 11520 36cd 76       		.byte	0x76
 11521 36ce 00       		.sleb128 0
 11522 36cf 22       		.byte	0x22
 11523 36d0 00       		.byte	0
 11524 36d1 00       		.byte	0
 11525 36d2 40       		.uleb128 0x40
 11526 36d3 620F0000 		.4byte	.LVL620
 11527 36d7 8E430000 		.4byte	0x438e
 11528 36db E9360000 		.4byte	0x36e9
 11529 36df 2B       		.uleb128 0x2b
 11530 36e0 01       		.uleb128 0x1
 11531 36e1 50       		.byte	0x50
 11532 36e2 05       		.uleb128 0x5
 11533 36e3 76       		.byte	0x76
 11534 36e4 00       		.sleb128 0
 11535 36e5 74       		.byte	0x74
 11536 36e6 00       		.sleb128 0
 11537 36e7 22       		.byte	0x22
 11538 36e8 00       		.byte	0
 11539 36e9 40       		.uleb128 0x40
 11540 36ea 800F0000 		.4byte	.LVL621
 11541 36ee A20B0000 		.4byte	0xba2
 11542 36f2 FF360000 		.4byte	0x36ff
 11543 36f6 2B       		.uleb128 0x2b
 11544 36f7 01       		.uleb128 0x1
 11545 36f8 51       		.byte	0x51
 11546 36f9 04       		.uleb128 0x4
 11547 36fa 91       		.byte	0x91
 11548 36fb B07F     		.sleb128 -80
 11549 36fd 06       		.byte	0x6
 11550 36fe 00       		.byte	0
 11551 36ff 40       		.uleb128 0x40
 11552 3700 860F0000 		.4byte	.LVL623
ARM GAS  C:\Users\164\AppData\Local\Temp\ccd4XrSZ.s 			page 251


 11553 3704 A4430000 		.4byte	0x43a4
 11554 3708 15370000 		.4byte	0x3715
 11555 370c 2B       		.uleb128 0x2b
 11556 370d 01       		.uleb128 0x1
 11557 370e 50       		.byte	0x50
 11558 370f 04       		.uleb128 0x4
 11559 3710 91       		.byte	0x91
 11560 3711 B07F     		.sleb128 -80
 11561 3713 06       		.byte	0x6
 11562 3714 00       		.byte	0
 11563 3715 40       		.uleb128 0x40
 11564 3716 900F0000 		.4byte	.LVL625
 11565 371a 07440000 		.4byte	0x4407
 11566 371e 2F370000 		.4byte	0x372f
 11567 3722 2B       		.uleb128 0x2b
 11568 3723 01       		.uleb128 0x1
 11569 3724 50       		.byte	0x50
 11570 3725 02       		.uleb128 0x2
 11571 3726 75       		.byte	0x75
 11572 3727 00       		.sleb128 0
 11573 3728 2B       		.uleb128 0x2b
 11574 3729 01       		.uleb128 0x1
 11575 372a 51       		.byte	0x51
 11576 372b 02       		.uleb128 0x2
 11577 372c 91       		.byte	0x91
 11578 372d 48       		.sleb128 -56
 11579 372e 00       		.byte	0
 11580 372f 2A       		.uleb128 0x2a
 11581 3730 E60F0000 		.4byte	.LVL640
 11582 3734 CE0C0000 		.4byte	0xcce
 11583 3738 2B       		.uleb128 0x2b
 11584 3739 01       		.uleb128 0x1
 11585 373a 50       		.byte	0x50
 11586 373b 02       		.uleb128 0x2
 11587 373c 75       		.byte	0x75
 11588 373d 00       		.sleb128 0
 11589 373e 2B       		.uleb128 0x2b
 11590 373f 01       		.uleb128 0x1
 11591 3740 51       		.byte	0x51
 11592 3741 02       		.uleb128 0x2
 11593 3742 7B       		.byte	0x7b
 11594 3743 00       		.sleb128 0
 11595 3744 00       		.byte	0
 11596 3745 00       		.byte	0
 11597 3746 00       		.byte	0
 11598 3747 2A       		.uleb128 0x2a
 11599 3748 04100000 		.4byte	.LVL642
 11600 374c 8E430000 		.4byte	0x438e
 11601 3750 2B       		.uleb128 0x2b
 11602 3751 01       		.uleb128 0x1
 11603 3752 50       		.byte	0x50
 11604 3753 07       		.uleb128 0x7
 11605 3754 78       		.byte	0x78
 11606 3755 01       		.sleb128 1
 11607 3756 34       		.byte	0x34
 11608 3757 24       		.byte	0x24
 11609 3758 76       		.byte	0x76
ARM GAS  C:\Users\164\AppData\Local\Temp\ccd4XrSZ.s 			page 252


 11610 3759 00       		.sleb128 0
 11611 375a 22       		.byte	0x22
 11612 375b 00       		.byte	0
 11613 375c 00       		.byte	0
 11614 375d 00       		.byte	0
 11615 375e 48       		.uleb128 0x48
 11616 375f 0F180000 		.4byte	0x180f
 11617 3763 14100000 		.4byte	.LBB295
 11618 3767 9E010000 		.4byte	.LBE295-.LBB295
 11619 376b 01       		.byte	0x1
 11620 376c 3007     		.2byte	0x730
 11621 376e 5B390000 		.4byte	0x395b
 11622 3772 30       		.uleb128 0x30
 11623 3773 37180000 		.4byte	0x1837
 11624 3777 C7280000 		.4byte	.LLST297
 11625 377b 30       		.uleb128 0x30
 11626 377c 2B180000 		.4byte	0x182b
 11627 3780 DA280000 		.4byte	.LLST298
 11628 3784 30       		.uleb128 0x30
 11629 3785 20180000 		.4byte	0x1820
 11630 3789 0E290000 		.4byte	.LLST299
 11631 378d 31       		.uleb128 0x31
 11632 378e 14100000 		.4byte	.LBB296
 11633 3792 9E010000 		.4byte	.LBE296-.LBB296
 11634 3796 32       		.uleb128 0x32
 11635 3797 43180000 		.4byte	0x1843
 11636 379b 21290000 		.4byte	.LLST300
 11637 379f 32       		.uleb128 0x32
 11638 37a0 4E180000 		.4byte	0x184e
 11639 37a4 68290000 		.4byte	.LLST301
 11640 37a8 4B       		.uleb128 0x4b
 11641 37a9 5A180000 		.4byte	0x185a
 11642 37ad A8110000 		.4byte	.L227
 11643 37b1 48       		.uleb128 0x48
 11644 37b2 28140000 		.4byte	0x1428
 11645 37b6 C4100000 		.4byte	.LBB297
 11646 37ba D6000000 		.4byte	.LBE297-.LBB297
 11647 37be 01       		.byte	0x1
 11648 37bf DD04     		.2byte	0x4dd
 11649 37c1 44390000 		.4byte	0x3944
 11650 37c5 30       		.uleb128 0x30
 11651 37c6 50140000 		.4byte	0x1450
 11652 37ca B2290000 		.4byte	.LLST302
 11653 37ce 30       		.uleb128 0x30
 11654 37cf 44140000 		.4byte	0x1444
 11655 37d3 C5290000 		.4byte	.LLST303
 11656 37d7 30       		.uleb128 0x30
 11657 37d8 39140000 		.4byte	0x1439
 11658 37dc D8290000 		.4byte	.LLST304
 11659 37e0 31       		.uleb128 0x31
 11660 37e1 C4100000 		.4byte	.LBB298
 11661 37e5 D6000000 		.4byte	.LBE298-.LBB298
 11662 37e9 32       		.uleb128 0x32
 11663 37ea 5C140000 		.4byte	0x145c
 11664 37ee EB290000 		.4byte	.LLST305
 11665 37f2 32       		.uleb128 0x32
 11666 37f3 67140000 		.4byte	0x1467
ARM GAS  C:\Users\164\AppData\Local\Temp\ccd4XrSZ.s 			page 253


 11667 37f7 162A0000 		.4byte	.LLST306
 11668 37fb 32       		.uleb128 0x32
 11669 37fc 72140000 		.4byte	0x1472
 11670 3800 362A0000 		.4byte	.LLST307
 11671 3804 49       		.uleb128 0x49
 11672 3805 7D140000 		.4byte	0x147d
 11673 3809 02       		.uleb128 0x2
 11674 380a 91       		.byte	0x91
 11675 380b 48       		.sleb128 -56
 11676 380c 32       		.uleb128 0x32
 11677 380d 89140000 		.4byte	0x1489
 11678 3811 492A0000 		.4byte	.LLST308
 11679 3815 32       		.uleb128 0x32
 11680 3816 95140000 		.4byte	0x1495
 11681 381a 5C2A0000 		.4byte	.LLST309
 11682 381e 32       		.uleb128 0x32
 11683 381f A1140000 		.4byte	0x14a1
 11684 3823 7C2A0000 		.4byte	.LLST310
 11685 3827 32       		.uleb128 0x32
 11686 3828 AD140000 		.4byte	0x14ad
 11687 382c 8F2A0000 		.4byte	.LLST311
 11688 3830 3E       		.uleb128 0x3e
 11689 3831 36110000 		.4byte	.LBB299
 11690 3835 1C000000 		.4byte	.LBE299-.LBB299
 11691 3839 85380000 		.4byte	0x3885
 11692 383d 32       		.uleb128 0x32
 11693 383e BC140000 		.4byte	0x14bc
 11694 3842 D92A0000 		.4byte	.LLST312
 11695 3846 40       		.uleb128 0x40
 11696 3847 3E110000 		.4byte	.LVL683
 11697 384b F1430000 		.4byte	0x43f1
 11698 384f 60380000 		.4byte	0x3860
 11699 3853 2B       		.uleb128 0x2b
 11700 3854 01       		.uleb128 0x1
 11701 3855 50       		.byte	0x50
 11702 3856 02       		.uleb128 0x2
 11703 3857 75       		.byte	0x75
 11704 3858 00       		.sleb128 0
 11705 3859 2B       		.uleb128 0x2b
 11706 385a 01       		.uleb128 0x1
 11707 385b 51       		.byte	0x51
 11708 385c 02       		.uleb128 0x2
 11709 385d 91       		.byte	0x91
 11710 385e 48       		.sleb128 -56
 11711 385f 00       		.byte	0
 11712 3860 35       		.uleb128 0x35
 11713 3861 46110000 		.4byte	.LVL685
 11714 3865 FC430000 		.4byte	0x43fc
 11715 3869 2A       		.uleb128 0x2a
 11716 386a 50110000 		.4byte	.LVL686
 11717 386e 22430000 		.4byte	0x4322
 11718 3872 2B       		.uleb128 0x2b
 11719 3873 01       		.uleb128 0x1
 11720 3874 50       		.byte	0x50
 11721 3875 05       		.uleb128 0x5
 11722 3876 03       		.byte	0x3
 11723 3877 30000000 		.4byte	.LC3
ARM GAS  C:\Users\164\AppData\Local\Temp\ccd4XrSZ.s 			page 254


 11724 387b 2B       		.uleb128 0x2b
 11725 387c 01       		.uleb128 0x1
 11726 387d 52       		.byte	0x52
 11727 387e 04       		.uleb128 0x4
 11728 387f 91       		.byte	0x91
 11729 3880 B07F     		.sleb128 -80
 11730 3882 06       		.byte	0x6
 11731 3883 00       		.byte	0
 11732 3884 00       		.byte	0
 11733 3885 3E       		.uleb128 0x3e
 11734 3886 5A110000 		.4byte	.LBB300
 11735 388a 26000000 		.4byte	.LBE300-.LBB300
 11736 388e CF380000 		.4byte	0x38cf
 11737 3892 32       		.uleb128 0x32
 11738 3893 D3140000 		.4byte	0x14d3
 11739 3897 EC2A0000 		.4byte	.LLST313
 11740 389b 4A       		.uleb128 0x4a
 11741 389c 64110000 		.4byte	.LVL689
 11742 38a0 B9380000 		.4byte	0x38b9
 11743 38a4 2B       		.uleb128 0x2b
 11744 38a5 01       		.uleb128 0x1
 11745 38a6 50       		.byte	0x50
 11746 38a7 02       		.uleb128 0x2
 11747 38a8 75       		.byte	0x75
 11748 38a9 00       		.sleb128 0
 11749 38aa 2B       		.uleb128 0x2b
 11750 38ab 01       		.uleb128 0x1
 11751 38ac 51       		.byte	0x51
 11752 38ad 04       		.uleb128 0x4
 11753 38ae 91       		.byte	0x91
 11754 38af B47F     		.sleb128 -76
 11755 38b1 06       		.byte	0x6
 11756 38b2 2B       		.uleb128 0x2b
 11757 38b3 01       		.uleb128 0x1
 11758 38b4 52       		.byte	0x52
 11759 38b5 02       		.uleb128 0x2
 11760 38b6 7B       		.byte	0x7b
 11761 38b7 00       		.sleb128 0
 11762 38b8 00       		.byte	0
 11763 38b9 2A       		.uleb128 0x2a
 11764 38ba 78110000 		.4byte	.LVL692
 11765 38be 8E430000 		.4byte	0x438e
 11766 38c2 2B       		.uleb128 0x2b
 11767 38c3 01       		.uleb128 0x1
 11768 38c4 50       		.byte	0x50
 11769 38c5 07       		.uleb128 0x7
 11770 38c6 77       		.byte	0x77
 11771 38c7 00       		.sleb128 0
 11772 38c8 34       		.byte	0x34
 11773 38c9 24       		.byte	0x24
 11774 38ca 76       		.byte	0x76
 11775 38cb 00       		.sleb128 0
 11776 38cc 22       		.byte	0x22
 11777 38cd 00       		.byte	0
 11778 38ce 00       		.byte	0
 11779 38cf 40       		.uleb128 0x40
 11780 38d0 04110000 		.4byte	.LVL676
ARM GAS  C:\Users\164\AppData\Local\Temp\ccd4XrSZ.s 			page 255


 11781 38d4 8E430000 		.4byte	0x438e
 11782 38d8 E6380000 		.4byte	0x38e6
 11783 38dc 2B       		.uleb128 0x2b
 11784 38dd 01       		.uleb128 0x1
 11785 38de 50       		.byte	0x50
 11786 38df 05       		.uleb128 0x5
 11787 38e0 76       		.byte	0x76
 11788 38e1 00       		.sleb128 0
 11789 38e2 74       		.byte	0x74
 11790 38e3 00       		.sleb128 0
 11791 38e4 22       		.byte	0x22
 11792 38e5 00       		.byte	0
 11793 38e6 40       		.uleb128 0x40
 11794 38e7 22110000 		.4byte	.LVL677
 11795 38eb A20B0000 		.4byte	0xba2
 11796 38ef FC380000 		.4byte	0x38fc
 11797 38f3 2B       		.uleb128 0x2b
 11798 38f4 01       		.uleb128 0x1
 11799 38f5 51       		.byte	0x51
 11800 38f6 04       		.uleb128 0x4
 11801 38f7 91       		.byte	0x91
 11802 38f8 B07F     		.sleb128 -80
 11803 38fa 06       		.byte	0x6
 11804 38fb 00       		.byte	0
 11805 38fc 40       		.uleb128 0x40
 11806 38fd 28110000 		.4byte	.LVL679
 11807 3901 A4430000 		.4byte	0x43a4
 11808 3905 12390000 		.4byte	0x3912
 11809 3909 2B       		.uleb128 0x2b
 11810 390a 01       		.uleb128 0x1
 11811 390b 50       		.byte	0x50
 11812 390c 04       		.uleb128 0x4
 11813 390d 91       		.byte	0x91
 11814 390e B07F     		.sleb128 -80
 11815 3910 06       		.byte	0x6
 11816 3911 00       		.byte	0
 11817 3912 40       		.uleb128 0x40
 11818 3913 32110000 		.4byte	.LVL681
 11819 3917 07440000 		.4byte	0x4407
 11820 391b 2C390000 		.4byte	0x392c
 11821 391f 2B       		.uleb128 0x2b
 11822 3920 01       		.uleb128 0x1
 11823 3921 50       		.byte	0x50
 11824 3922 02       		.uleb128 0x2
 11825 3923 75       		.byte	0x75
 11826 3924 00       		.sleb128 0
 11827 3925 2B       		.uleb128 0x2b
 11828 3926 01       		.uleb128 0x1
 11829 3927 51       		.byte	0x51
 11830 3928 02       		.uleb128 0x2
 11831 3929 91       		.byte	0x91
 11832 392a 48       		.sleb128 -56
 11833 392b 00       		.byte	0
 11834 392c 2A       		.uleb128 0x2a
 11835 392d 88110000 		.4byte	.LVL696
 11836 3931 CE0C0000 		.4byte	0xcce
 11837 3935 2B       		.uleb128 0x2b
ARM GAS  C:\Users\164\AppData\Local\Temp\ccd4XrSZ.s 			page 256


 11838 3936 01       		.uleb128 0x1
 11839 3937 50       		.byte	0x50
 11840 3938 02       		.uleb128 0x2
 11841 3939 75       		.byte	0x75
 11842 393a 00       		.sleb128 0
 11843 393b 2B       		.uleb128 0x2b
 11844 393c 01       		.uleb128 0x1
 11845 393d 51       		.byte	0x51
 11846 393e 02       		.uleb128 0x2
 11847 393f 7B       		.byte	0x7b
 11848 3940 00       		.sleb128 0
 11849 3941 00       		.byte	0
 11850 3942 00       		.byte	0
 11851 3943 00       		.byte	0
 11852 3944 2A       		.uleb128 0x2a
 11853 3945 A6110000 		.4byte	.LVL698
 11854 3949 8E430000 		.4byte	0x438e
 11855 394d 2B       		.uleb128 0x2b
 11856 394e 01       		.uleb128 0x1
 11857 394f 50       		.byte	0x50
 11858 3950 07       		.uleb128 0x7
 11859 3951 78       		.byte	0x78
 11860 3952 01       		.sleb128 1
 11861 3953 34       		.byte	0x34
 11862 3954 24       		.byte	0x24
 11863 3955 76       		.byte	0x76
 11864 3956 00       		.sleb128 0
 11865 3957 22       		.byte	0x22
 11866 3958 00       		.byte	0
 11867 3959 00       		.byte	0
 11868 395a 00       		.byte	0
 11869 395b 48       		.uleb128 0x48
 11870 395c 63180000 		.4byte	0x1863
 11871 3960 B6110000 		.4byte	.LBB301
 11872 3964 96010000 		.4byte	.LBE301-.LBB301
 11873 3968 01       		.byte	0x1
 11874 3969 3107     		.2byte	0x731
 11875 396b 583B0000 		.4byte	0x3b58
 11876 396f 30       		.uleb128 0x30
 11877 3970 8B180000 		.4byte	0x188b
 11878 3974 FF2A0000 		.4byte	.LLST314
 11879 3978 30       		.uleb128 0x30
 11880 3979 7F180000 		.4byte	0x187f
 11881 397d 122B0000 		.4byte	.LLST315
 11882 3981 30       		.uleb128 0x30
 11883 3982 74180000 		.4byte	0x1874
 11884 3986 462B0000 		.4byte	.LLST316
 11885 398a 31       		.uleb128 0x31
 11886 398b B6110000 		.4byte	.LBB302
 11887 398f 96010000 		.4byte	.LBE302-.LBB302
 11888 3993 32       		.uleb128 0x32
 11889 3994 97180000 		.4byte	0x1897
 11890 3998 592B0000 		.4byte	.LLST317
 11891 399c 32       		.uleb128 0x32
 11892 399d A2180000 		.4byte	0x18a2
 11893 39a1 A02B0000 		.4byte	.LLST318
 11894 39a5 4B       		.uleb128 0x4b
ARM GAS  C:\Users\164\AppData\Local\Temp\ccd4XrSZ.s 			page 257


 11895 39a6 AE180000 		.4byte	0x18ae
 11896 39aa 42130000 		.4byte	.L245
 11897 39ae 48       		.uleb128 0x48
 11898 39af 28140000 		.4byte	0x1428
 11899 39b3 5E120000 		.4byte	.LBB303
 11900 39b7 D6000000 		.4byte	.LBE303-.LBB303
 11901 39bb 01       		.byte	0x1
 11902 39bc 0F05     		.2byte	0x50f
 11903 39be 413B0000 		.4byte	0x3b41
 11904 39c2 30       		.uleb128 0x30
 11905 39c3 50140000 		.4byte	0x1450
 11906 39c7 EA2B0000 		.4byte	.LLST319
 11907 39cb 30       		.uleb128 0x30
 11908 39cc 44140000 		.4byte	0x1444
 11909 39d0 FD2B0000 		.4byte	.LLST320
 11910 39d4 30       		.uleb128 0x30
 11911 39d5 39140000 		.4byte	0x1439
 11912 39d9 102C0000 		.4byte	.LLST321
 11913 39dd 31       		.uleb128 0x31
 11914 39de 5E120000 		.4byte	.LBB304
 11915 39e2 D6000000 		.4byte	.LBE304-.LBB304
 11916 39e6 32       		.uleb128 0x32
 11917 39e7 5C140000 		.4byte	0x145c
 11918 39eb 232C0000 		.4byte	.LLST322
 11919 39ef 32       		.uleb128 0x32
 11920 39f0 67140000 		.4byte	0x1467
 11921 39f4 4E2C0000 		.4byte	.LLST323
 11922 39f8 32       		.uleb128 0x32
 11923 39f9 72140000 		.4byte	0x1472
 11924 39fd 6E2C0000 		.4byte	.LLST324
 11925 3a01 49       		.uleb128 0x49
 11926 3a02 7D140000 		.4byte	0x147d
 11927 3a06 02       		.uleb128 0x2
 11928 3a07 91       		.byte	0x91
 11929 3a08 48       		.sleb128 -56
 11930 3a09 32       		.uleb128 0x32
 11931 3a0a 89140000 		.4byte	0x1489
 11932 3a0e 812C0000 		.4byte	.LLST325
 11933 3a12 32       		.uleb128 0x32
 11934 3a13 95140000 		.4byte	0x1495
 11935 3a17 942C0000 		.4byte	.LLST326
 11936 3a1b 32       		.uleb128 0x32
 11937 3a1c A1140000 		.4byte	0x14a1
 11938 3a20 B42C0000 		.4byte	.LLST327
 11939 3a24 32       		.uleb128 0x32
 11940 3a25 AD140000 		.4byte	0x14ad
 11941 3a29 C72C0000 		.4byte	.LLST328
 11942 3a2d 3E       		.uleb128 0x3e
 11943 3a2e D0120000 		.4byte	.LBB305
 11944 3a32 1C000000 		.4byte	.LBE305-.LBB305
 11945 3a36 823A0000 		.4byte	0x3a82
 11946 3a3a 32       		.uleb128 0x32
 11947 3a3b BC140000 		.4byte	0x14bc
 11948 3a3f 112D0000 		.4byte	.LLST329
 11949 3a43 40       		.uleb128 0x40
 11950 3a44 D8120000 		.4byte	.LVL739
 11951 3a48 F1430000 		.4byte	0x43f1
ARM GAS  C:\Users\164\AppData\Local\Temp\ccd4XrSZ.s 			page 258


 11952 3a4c 5D3A0000 		.4byte	0x3a5d
 11953 3a50 2B       		.uleb128 0x2b
 11954 3a51 01       		.uleb128 0x1
 11955 3a52 50       		.byte	0x50
 11956 3a53 02       		.uleb128 0x2
 11957 3a54 75       		.byte	0x75
 11958 3a55 00       		.sleb128 0
 11959 3a56 2B       		.uleb128 0x2b
 11960 3a57 01       		.uleb128 0x1
 11961 3a58 51       		.byte	0x51
 11962 3a59 02       		.uleb128 0x2
 11963 3a5a 91       		.byte	0x91
 11964 3a5b 48       		.sleb128 -56
 11965 3a5c 00       		.byte	0
 11966 3a5d 35       		.uleb128 0x35
 11967 3a5e E0120000 		.4byte	.LVL741
 11968 3a62 FC430000 		.4byte	0x43fc
 11969 3a66 2A       		.uleb128 0x2a
 11970 3a67 EA120000 		.4byte	.LVL742
 11971 3a6b 22430000 		.4byte	0x4322
 11972 3a6f 2B       		.uleb128 0x2b
 11973 3a70 01       		.uleb128 0x1
 11974 3a71 50       		.byte	0x50
 11975 3a72 05       		.uleb128 0x5
 11976 3a73 03       		.byte	0x3
 11977 3a74 30000000 		.4byte	.LC3
 11978 3a78 2B       		.uleb128 0x2b
 11979 3a79 01       		.uleb128 0x1
 11980 3a7a 52       		.byte	0x52
 11981 3a7b 04       		.uleb128 0x4
 11982 3a7c 91       		.byte	0x91
 11983 3a7d B07F     		.sleb128 -80
 11984 3a7f 06       		.byte	0x6
 11985 3a80 00       		.byte	0
 11986 3a81 00       		.byte	0
 11987 3a82 3E       		.uleb128 0x3e
 11988 3a83 F4120000 		.4byte	.LBB306
 11989 3a87 26000000 		.4byte	.LBE306-.LBB306
 11990 3a8b CC3A0000 		.4byte	0x3acc
 11991 3a8f 32       		.uleb128 0x32
 11992 3a90 D3140000 		.4byte	0x14d3
 11993 3a94 242D0000 		.4byte	.LLST330
 11994 3a98 4A       		.uleb128 0x4a
 11995 3a99 FE120000 		.4byte	.LVL745
 11996 3a9d B63A0000 		.4byte	0x3ab6
 11997 3aa1 2B       		.uleb128 0x2b
 11998 3aa2 01       		.uleb128 0x1
 11999 3aa3 50       		.byte	0x50
 12000 3aa4 02       		.uleb128 0x2
 12001 3aa5 75       		.byte	0x75
 12002 3aa6 00       		.sleb128 0
 12003 3aa7 2B       		.uleb128 0x2b
 12004 3aa8 01       		.uleb128 0x1
 12005 3aa9 51       		.byte	0x51
 12006 3aaa 04       		.uleb128 0x4
 12007 3aab 91       		.byte	0x91
 12008 3aac B47F     		.sleb128 -76
ARM GAS  C:\Users\164\AppData\Local\Temp\ccd4XrSZ.s 			page 259


 12009 3aae 06       		.byte	0x6
 12010 3aaf 2B       		.uleb128 0x2b
 12011 3ab0 01       		.uleb128 0x1
 12012 3ab1 52       		.byte	0x52
 12013 3ab2 02       		.uleb128 0x2
 12014 3ab3 7B       		.byte	0x7b
 12015 3ab4 00       		.sleb128 0
 12016 3ab5 00       		.byte	0
 12017 3ab6 2A       		.uleb128 0x2a
 12018 3ab7 12130000 		.4byte	.LVL748
 12019 3abb 8E430000 		.4byte	0x438e
 12020 3abf 2B       		.uleb128 0x2b
 12021 3ac0 01       		.uleb128 0x1
 12022 3ac1 50       		.byte	0x50
 12023 3ac2 07       		.uleb128 0x7
 12024 3ac3 77       		.byte	0x77
 12025 3ac4 00       		.sleb128 0
 12026 3ac5 34       		.byte	0x34
 12027 3ac6 24       		.byte	0x24
 12028 3ac7 76       		.byte	0x76
 12029 3ac8 00       		.sleb128 0
 12030 3ac9 22       		.byte	0x22
 12031 3aca 00       		.byte	0
 12032 3acb 00       		.byte	0
 12033 3acc 40       		.uleb128 0x40
 12034 3acd 9E120000 		.4byte	.LVL732
 12035 3ad1 8E430000 		.4byte	0x438e
 12036 3ad5 E33A0000 		.4byte	0x3ae3
 12037 3ad9 2B       		.uleb128 0x2b
 12038 3ada 01       		.uleb128 0x1
 12039 3adb 50       		.byte	0x50
 12040 3adc 05       		.uleb128 0x5
 12041 3add 76       		.byte	0x76
 12042 3ade 00       		.sleb128 0
 12043 3adf 74       		.byte	0x74
 12044 3ae0 00       		.sleb128 0
 12045 3ae1 22       		.byte	0x22
 12046 3ae2 00       		.byte	0
 12047 3ae3 40       		.uleb128 0x40
 12048 3ae4 BC120000 		.4byte	.LVL733
 12049 3ae8 A20B0000 		.4byte	0xba2
 12050 3aec F93A0000 		.4byte	0x3af9
 12051 3af0 2B       		.uleb128 0x2b
 12052 3af1 01       		.uleb128 0x1
 12053 3af2 51       		.byte	0x51
 12054 3af3 04       		.uleb128 0x4
 12055 3af4 91       		.byte	0x91
 12056 3af5 B07F     		.sleb128 -80
 12057 3af7 06       		.byte	0x6
 12058 3af8 00       		.byte	0
 12059 3af9 40       		.uleb128 0x40
 12060 3afa C2120000 		.4byte	.LVL735
 12061 3afe A4430000 		.4byte	0x43a4
 12062 3b02 0F3B0000 		.4byte	0x3b0f
 12063 3b06 2B       		.uleb128 0x2b
 12064 3b07 01       		.uleb128 0x1
 12065 3b08 50       		.byte	0x50
ARM GAS  C:\Users\164\AppData\Local\Temp\ccd4XrSZ.s 			page 260


 12066 3b09 04       		.uleb128 0x4
 12067 3b0a 91       		.byte	0x91
 12068 3b0b B07F     		.sleb128 -80
 12069 3b0d 06       		.byte	0x6
 12070 3b0e 00       		.byte	0
 12071 3b0f 40       		.uleb128 0x40
 12072 3b10 CC120000 		.4byte	.LVL737
 12073 3b14 07440000 		.4byte	0x4407
 12074 3b18 293B0000 		.4byte	0x3b29
 12075 3b1c 2B       		.uleb128 0x2b
 12076 3b1d 01       		.uleb128 0x1
 12077 3b1e 50       		.byte	0x50
 12078 3b1f 02       		.uleb128 0x2
 12079 3b20 75       		.byte	0x75
 12080 3b21 00       		.sleb128 0
 12081 3b22 2B       		.uleb128 0x2b
 12082 3b23 01       		.uleb128 0x1
 12083 3b24 51       		.byte	0x51
 12084 3b25 02       		.uleb128 0x2
 12085 3b26 91       		.byte	0x91
 12086 3b27 48       		.sleb128 -56
 12087 3b28 00       		.byte	0
 12088 3b29 2A       		.uleb128 0x2a
 12089 3b2a 22130000 		.4byte	.LVL752
 12090 3b2e CE0C0000 		.4byte	0xcce
 12091 3b32 2B       		.uleb128 0x2b
 12092 3b33 01       		.uleb128 0x1
 12093 3b34 50       		.byte	0x50
 12094 3b35 02       		.uleb128 0x2
 12095 3b36 75       		.byte	0x75
 12096 3b37 00       		.sleb128 0
 12097 3b38 2B       		.uleb128 0x2b
 12098 3b39 01       		.uleb128 0x1
 12099 3b3a 51       		.byte	0x51
 12100 3b3b 02       		.uleb128 0x2
 12101 3b3c 7B       		.byte	0x7b
 12102 3b3d 00       		.sleb128 0
 12103 3b3e 00       		.byte	0
 12104 3b3f 00       		.byte	0
 12105 3b40 00       		.byte	0
 12106 3b41 2A       		.uleb128 0x2a
 12107 3b42 40130000 		.4byte	.LVL754
 12108 3b46 8E430000 		.4byte	0x438e
 12109 3b4a 2B       		.uleb128 0x2b
 12110 3b4b 01       		.uleb128 0x1
 12111 3b4c 50       		.byte	0x50
 12112 3b4d 07       		.uleb128 0x7
 12113 3b4e 78       		.byte	0x78
 12114 3b4f 01       		.sleb128 1
 12115 3b50 34       		.byte	0x34
 12116 3b51 24       		.byte	0x24
 12117 3b52 76       		.byte	0x76
 12118 3b53 00       		.sleb128 0
 12119 3b54 22       		.byte	0x22
 12120 3b55 00       		.byte	0
 12121 3b56 00       		.byte	0
 12122 3b57 00       		.byte	0
ARM GAS  C:\Users\164\AppData\Local\Temp\ccd4XrSZ.s 			page 261


 12123 3b58 48       		.uleb128 0x48
 12124 3b59 B7180000 		.4byte	0x18b7
 12125 3b5d 50130000 		.4byte	.LBB307
 12126 3b61 56000000 		.4byte	.LBE307-.LBB307
 12127 3b65 01       		.byte	0x1
 12128 3b66 3207     		.2byte	0x732
 12129 3b68 1E3C0000 		.4byte	0x3c1e
 12130 3b6c 30       		.uleb128 0x30
 12131 3b6d DF180000 		.4byte	0x18df
 12132 3b71 372D0000 		.4byte	.LLST331
 12133 3b75 30       		.uleb128 0x30
 12134 3b76 D3180000 		.4byte	0x18d3
 12135 3b7a 552D0000 		.4byte	.LLST332
 12136 3b7e 30       		.uleb128 0x30
 12137 3b7f C8180000 		.4byte	0x18c8
 12138 3b83 682D0000 		.4byte	.LLST333
 12139 3b87 31       		.uleb128 0x31
 12140 3b88 50130000 		.4byte	.LBB308
 12141 3b8c 56000000 		.4byte	.LBE308-.LBB308
 12142 3b90 32       		.uleb128 0x32
 12143 3b91 EB180000 		.4byte	0x18eb
 12144 3b95 7B2D0000 		.4byte	.LLST334
 12145 3b99 32       		.uleb128 0x32
 12146 3b9a F6180000 		.4byte	0x18f6
 12147 3b9e 8E2D0000 		.4byte	.LLST335
 12148 3ba2 32       		.uleb128 0x32
 12149 3ba3 01190000 		.4byte	0x1901
 12150 3ba7 AC2D0000 		.4byte	.LLST336
 12151 3bab 49       		.uleb128 0x49
 12152 3bac 0C190000 		.4byte	0x190c
 12153 3bb0 02       		.uleb128 0x2
 12154 3bb1 91       		.byte	0x91
 12155 3bb2 48       		.sleb128 -56
 12156 3bb3 40       		.uleb128 0x40
 12157 3bb4 66130000 		.4byte	.LVL764
 12158 3bb8 1D440000 		.4byte	0x441d
 12159 3bbc D33B0000 		.4byte	0x3bd3
 12160 3bc0 2B       		.uleb128 0x2b
 12161 3bc1 01       		.uleb128 0x1
 12162 3bc2 50       		.byte	0x50
 12163 3bc3 02       		.uleb128 0x2
 12164 3bc4 91       		.byte	0x91
 12165 3bc5 48       		.sleb128 -56
 12166 3bc6 2B       		.uleb128 0x2b
 12167 3bc7 01       		.uleb128 0x1
 12168 3bc8 51       		.byte	0x51
 12169 3bc9 02       		.uleb128 0x2
 12170 3bca 75       		.byte	0x75
 12171 3bcb 00       		.sleb128 0
 12172 3bcc 2B       		.uleb128 0x2b
 12173 3bcd 01       		.uleb128 0x1
 12174 3bce 52       		.byte	0x52
 12175 3bcf 02       		.uleb128 0x2
 12176 3bd0 79       		.byte	0x79
 12177 3bd1 00       		.sleb128 0
 12178 3bd2 00       		.byte	0
 12179 3bd3 40       		.uleb128 0x40
ARM GAS  C:\Users\164\AppData\Local\Temp\ccd4XrSZ.s 			page 262


 12180 3bd4 7C130000 		.4byte	.LVL767
 12181 3bd8 28440000 		.4byte	0x4428
 12182 3bdc ED3B0000 		.4byte	0x3bed
 12183 3be0 2B       		.uleb128 0x2b
 12184 3be1 01       		.uleb128 0x1
 12185 3be2 51       		.byte	0x51
 12186 3be3 02       		.uleb128 0x2
 12187 3be4 77       		.byte	0x77
 12188 3be5 00       		.sleb128 0
 12189 3be6 2B       		.uleb128 0x2b
 12190 3be7 01       		.uleb128 0x1
 12191 3be8 52       		.byte	0x52
 12192 3be9 02       		.uleb128 0x2
 12193 3bea 7A       		.byte	0x7a
 12194 3beb 00       		.sleb128 0
 12195 3bec 00       		.byte	0
 12196 3bed 40       		.uleb128 0x40
 12197 3bee 86130000 		.4byte	.LVL768
 12198 3bf2 59430000 		.4byte	0x4359
 12199 3bf6 0C3C0000 		.4byte	0x3c0c
 12200 3bfa 2B       		.uleb128 0x2b
 12201 3bfb 01       		.uleb128 0x1
 12202 3bfc 50       		.byte	0x50
 12203 3bfd 02       		.uleb128 0x2
 12204 3bfe 77       		.byte	0x77
 12205 3bff 00       		.sleb128 0
 12206 3c00 2B       		.uleb128 0x2b
 12207 3c01 01       		.uleb128 0x1
 12208 3c02 51       		.byte	0x51
 12209 3c03 01       		.uleb128 0x1
 12210 3c04 30       		.byte	0x30
 12211 3c05 2B       		.uleb128 0x2b
 12212 3c06 01       		.uleb128 0x1
 12213 3c07 52       		.byte	0x52
 12214 3c08 02       		.uleb128 0x2
 12215 3c09 7A       		.byte	0x7a
 12216 3c0a 00       		.sleb128 0
 12217 3c0b 00       		.byte	0
 12218 3c0c 2A       		.uleb128 0x2a
 12219 3c0d 94130000 		.4byte	.LVL770
 12220 3c11 8E430000 		.4byte	0x438e
 12221 3c15 2B       		.uleb128 0x2b
 12222 3c16 01       		.uleb128 0x1
 12223 3c17 50       		.byte	0x50
 12224 3c18 02       		.uleb128 0x2
 12225 3c19 76       		.byte	0x76
 12226 3c1a 00       		.sleb128 0
 12227 3c1b 00       		.byte	0
 12228 3c1c 00       		.byte	0
 12229 3c1d 00       		.byte	0
 12230 3c1e 48       		.uleb128 0x48
 12231 3c1f 19190000 		.4byte	0x1919
 12232 3c23 A8130000 		.4byte	.LBB309
 12233 3c27 44000000 		.4byte	.LBE309-.LBB309
 12234 3c2b 01       		.byte	0x1
 12235 3c2c 3307     		.2byte	0x733
 12236 3c2e DF3C0000 		.4byte	0x3cdf
ARM GAS  C:\Users\164\AppData\Local\Temp\ccd4XrSZ.s 			page 263


 12237 3c32 30       		.uleb128 0x30
 12238 3c33 41190000 		.4byte	0x1941
 12239 3c37 BF2D0000 		.4byte	.LLST337
 12240 3c3b 30       		.uleb128 0x30
 12241 3c3c 35190000 		.4byte	0x1935
 12242 3c40 DD2D0000 		.4byte	.LLST338
 12243 3c44 30       		.uleb128 0x30
 12244 3c45 2A190000 		.4byte	0x192a
 12245 3c49 F02D0000 		.4byte	.LLST339
 12246 3c4d 31       		.uleb128 0x31
 12247 3c4e A8130000 		.4byte	.LBB310
 12248 3c52 44000000 		.4byte	.LBE310-.LBB310
 12249 3c56 32       		.uleb128 0x32
 12250 3c57 4D190000 		.4byte	0x194d
 12251 3c5b 032E0000 		.4byte	.LLST340
 12252 3c5f 32       		.uleb128 0x32
 12253 3c60 58190000 		.4byte	0x1958
 12254 3c64 212E0000 		.4byte	.LLST341
 12255 3c68 32       		.uleb128 0x32
 12256 3c69 63190000 		.4byte	0x1963
 12257 3c6d 342E0000 		.4byte	.LLST342
 12258 3c71 32       		.uleb128 0x32
 12259 3c72 6F190000 		.4byte	0x196f
 12260 3c76 5C2E0000 		.4byte	.LLST343
 12261 3c7a 49       		.uleb128 0x49
 12262 3c7b 7B190000 		.4byte	0x197b
 12263 3c7f 02       		.uleb128 0x2
 12264 3c80 91       		.byte	0x91
 12265 3c81 48       		.sleb128 -56
 12266 3c82 48       		.uleb128 0x48
 12267 3c83 47080000 		.4byte	0x847
 12268 3c87 B8130000 		.4byte	.LBB311
 12269 3c8b 0A000000 		.4byte	.LBE311-.LBB311
 12270 3c8f 01       		.byte	0x1
 12271 3c90 4B05     		.2byte	0x54b
 12272 3c92 B33C0000 		.4byte	0x3cb3
 12273 3c96 30       		.uleb128 0x30
 12274 3c97 57080000 		.4byte	0x857
 12275 3c9b 802E0000 		.4byte	.LLST344
 12276 3c9f 31       		.uleb128 0x31
 12277 3ca0 B8130000 		.4byte	.LBB312
 12278 3ca4 0A000000 		.4byte	.LBE312-.LBB312
 12279 3ca8 32       		.uleb128 0x32
 12280 3ca9 60080000 		.4byte	0x860
 12281 3cad 952E0000 		.4byte	.LLST345
 12282 3cb1 00       		.byte	0
 12283 3cb2 00       		.byte	0
 12284 3cb3 40       		.uleb128 0x40
 12285 3cb4 CC130000 		.4byte	.LVL783
 12286 3cb8 31440000 		.4byte	0x4431
 12287 3cbc CD3C0000 		.4byte	0x3ccd
 12288 3cc0 2B       		.uleb128 0x2b
 12289 3cc1 01       		.uleb128 0x1
 12290 3cc2 50       		.byte	0x50
 12291 3cc3 02       		.uleb128 0x2
 12292 3cc4 91       		.byte	0x91
 12293 3cc5 48       		.sleb128 -56
ARM GAS  C:\Users\164\AppData\Local\Temp\ccd4XrSZ.s 			page 264


 12294 3cc6 2B       		.uleb128 0x2b
 12295 3cc7 01       		.uleb128 0x1
 12296 3cc8 51       		.byte	0x51
 12297 3cc9 02       		.uleb128 0x2
 12298 3cca 75       		.byte	0x75
 12299 3ccb 00       		.sleb128 0
 12300 3ccc 00       		.byte	0
 12301 3ccd 2A       		.uleb128 0x2a
 12302 3cce DA130000 		.4byte	.LVL785
 12303 3cd2 8E430000 		.4byte	0x438e
 12304 3cd6 2B       		.uleb128 0x2b
 12305 3cd7 01       		.uleb128 0x1
 12306 3cd8 50       		.byte	0x50
 12307 3cd9 02       		.uleb128 0x2
 12308 3cda 76       		.byte	0x76
 12309 3cdb 00       		.sleb128 0
 12310 3cdc 00       		.byte	0
 12311 3cdd 00       		.byte	0
 12312 3cde 00       		.byte	0
 12313 3cdf 48       		.uleb128 0x48
 12314 3ce0 88190000 		.4byte	0x1988
 12315 3ce4 F8130000 		.4byte	.LBB313
 12316 3ce8 4E000000 		.4byte	.LBE313-.LBB313
 12317 3cec 01       		.byte	0x1
 12318 3ced 3407     		.2byte	0x734
 12319 3cef C73D0000 		.4byte	0x3dc7
 12320 3cf3 30       		.uleb128 0x30
 12321 3cf4 B0190000 		.4byte	0x19b0
 12322 3cf8 A82E0000 		.4byte	.LLST346
 12323 3cfc 30       		.uleb128 0x30
 12324 3cfd A4190000 		.4byte	0x19a4
 12325 3d01 BB2E0000 		.4byte	.LLST347
 12326 3d05 30       		.uleb128 0x30
 12327 3d06 99190000 		.4byte	0x1999
 12328 3d0a CE2E0000 		.4byte	.LLST348
 12329 3d0e 31       		.uleb128 0x31
 12330 3d0f F8130000 		.4byte	.LBB314
 12331 3d13 4E000000 		.4byte	.LBE314-.LBB314
 12332 3d17 32       		.uleb128 0x32
 12333 3d18 BC190000 		.4byte	0x19bc
 12334 3d1c E12E0000 		.4byte	.LLST349
 12335 3d20 32       		.uleb128 0x32
 12336 3d21 C7190000 		.4byte	0x19c7
 12337 3d25 F42E0000 		.4byte	.LLST350
 12338 3d29 32       		.uleb128 0x32
 12339 3d2a D2190000 		.4byte	0x19d2
 12340 3d2e 072F0000 		.4byte	.LLST351
 12341 3d32 32       		.uleb128 0x32
 12342 3d33 DE190000 		.4byte	0x19de
 12343 3d37 1A2F0000 		.4byte	.LLST352
 12344 3d3b 49       		.uleb128 0x49
 12345 3d3c E8190000 		.4byte	0x19e8
 12346 3d40 02       		.uleb128 0x2
 12347 3d41 91       		.byte	0x91
 12348 3d42 48       		.sleb128 -56
 12349 3d43 40       		.uleb128 0x40
 12350 3d44 04140000 		.4byte	.LVL792
ARM GAS  C:\Users\164\AppData\Local\Temp\ccd4XrSZ.s 			page 265


 12351 3d48 A4430000 		.4byte	0x43a4
 12352 3d4c 5A3D0000 		.4byte	0x3d5a
 12353 3d50 2B       		.uleb128 0x2b
 12354 3d51 01       		.uleb128 0x1
 12355 3d52 50       		.byte	0x50
 12356 3d53 05       		.uleb128 0x5
 12357 3d54 03       		.byte	0x3
 12358 3d55 50000000 		.4byte	.LC4
 12359 3d59 00       		.byte	0
 12360 3d5a 40       		.uleb128 0x40
 12361 3d5b 12140000 		.4byte	.LVL795
 12362 3d5f 07440000 		.4byte	0x4407
 12363 3d63 743D0000 		.4byte	0x3d74
 12364 3d67 2B       		.uleb128 0x2b
 12365 3d68 01       		.uleb128 0x1
 12366 3d69 50       		.byte	0x50
 12367 3d6a 02       		.uleb128 0x2
 12368 3d6b 75       		.byte	0x75
 12369 3d6c 00       		.sleb128 0
 12370 3d6d 2B       		.uleb128 0x2b
 12371 3d6e 01       		.uleb128 0x1
 12372 3d6f 51       		.byte	0x51
 12373 3d70 02       		.uleb128 0x2
 12374 3d71 74       		.byte	0x74
 12375 3d72 00       		.sleb128 0
 12376 3d73 00       		.byte	0
 12377 3d74 4A       		.uleb128 0x4a
 12378 3d75 26140000 		.4byte	.LVL797
 12379 3d79 8F3D0000 		.4byte	0x3d8f
 12380 3d7d 2B       		.uleb128 0x2b
 12381 3d7e 01       		.uleb128 0x1
 12382 3d7f 50       		.byte	0x50
 12383 3d80 02       		.uleb128 0x2
 12384 3d81 75       		.byte	0x75
 12385 3d82 00       		.sleb128 0
 12386 3d83 2B       		.uleb128 0x2b
 12387 3d84 01       		.uleb128 0x1
 12388 3d85 51       		.byte	0x51
 12389 3d86 02       		.uleb128 0x2
 12390 3d87 74       		.byte	0x74
 12391 3d88 00       		.sleb128 0
 12392 3d89 2B       		.uleb128 0x2b
 12393 3d8a 01       		.uleb128 0x1
 12394 3d8b 52       		.byte	0x52
 12395 3d8c 01       		.uleb128 0x1
 12396 3d8d 30       		.byte	0x30
 12397 3d8e 00       		.byte	0
 12398 3d8f 40       		.uleb128 0x40
 12399 3d90 38140000 		.4byte	.LVL800
 12400 3d94 3C440000 		.4byte	0x443c
 12401 3d98 B53D0000 		.4byte	0x3db5
 12402 3d9c 2B       		.uleb128 0x2b
 12403 3d9d 01       		.uleb128 0x1
 12404 3d9e 50       		.byte	0x50
 12405 3d9f 02       		.uleb128 0x2
 12406 3da0 77       		.byte	0x77
 12407 3da1 00       		.sleb128 0
ARM GAS  C:\Users\164\AppData\Local\Temp\ccd4XrSZ.s 			page 266


 12408 3da2 2B       		.uleb128 0x2b
 12409 3da3 01       		.uleb128 0x1
 12410 3da4 51       		.byte	0x51
 12411 3da5 02       		.uleb128 0x2
 12412 3da6 75       		.byte	0x75
 12413 3da7 00       		.sleb128 0
 12414 3da8 2B       		.uleb128 0x2b
 12415 3da9 01       		.uleb128 0x1
 12416 3daa 52       		.byte	0x52
 12417 3dab 02       		.uleb128 0x2
 12418 3dac 76       		.byte	0x76
 12419 3dad 00       		.sleb128 0
 12420 3dae 2B       		.uleb128 0x2b
 12421 3daf 01       		.uleb128 0x1
 12422 3db0 53       		.byte	0x53
 12423 3db1 02       		.uleb128 0x2
 12424 3db2 74       		.byte	0x74
 12425 3db3 00       		.sleb128 0
 12426 3db4 00       		.byte	0
 12427 3db5 2A       		.uleb128 0x2a
 12428 3db6 3E140000 		.4byte	.LVL801
 12429 3dba 8E430000 		.4byte	0x438e
 12430 3dbe 2B       		.uleb128 0x2b
 12431 3dbf 01       		.uleb128 0x1
 12432 3dc0 50       		.byte	0x50
 12433 3dc1 02       		.uleb128 0x2
 12434 3dc2 76       		.byte	0x76
 12435 3dc3 00       		.sleb128 0
 12436 3dc4 00       		.byte	0
 12437 3dc5 00       		.byte	0
 12438 3dc6 00       		.byte	0
 12439 3dc7 48       		.uleb128 0x48
 12440 3dc8 F3190000 		.4byte	0x19f3
 12441 3dcc 4A140000 		.4byte	.LBB315
 12442 3dd0 5E000000 		.4byte	.LBE315-.LBB315
 12443 3dd4 01       		.byte	0x1
 12444 3dd5 3507     		.2byte	0x735
 12445 3dd7 8D3E0000 		.4byte	0x3e8d
 12446 3ddb 30       		.uleb128 0x30
 12447 3ddc 1B1A0000 		.4byte	0x1a1b
 12448 3de0 2D2F0000 		.4byte	.LLST353
 12449 3de4 30       		.uleb128 0x30
 12450 3de5 0F1A0000 		.4byte	0x1a0f
 12451 3de9 4B2F0000 		.4byte	.LLST354
 12452 3ded 30       		.uleb128 0x30
 12453 3dee 041A0000 		.4byte	0x1a04
 12454 3df2 5E2F0000 		.4byte	.LLST355
 12455 3df6 31       		.uleb128 0x31
 12456 3df7 4A140000 		.4byte	.LBB316
 12457 3dfb 5E000000 		.4byte	.LBE316-.LBB316
 12458 3dff 32       		.uleb128 0x32
 12459 3e00 271A0000 		.4byte	0x1a27
 12460 3e04 712F0000 		.4byte	.LLST356
 12461 3e08 32       		.uleb128 0x32
 12462 3e09 321A0000 		.4byte	0x1a32
 12463 3e0d 8F2F0000 		.4byte	.LLST357
 12464 3e11 32       		.uleb128 0x32
ARM GAS  C:\Users\164\AppData\Local\Temp\ccd4XrSZ.s 			page 267


 12465 3e12 3D1A0000 		.4byte	0x1a3d
 12466 3e16 AD2F0000 		.4byte	.LLST358
 12467 3e1a 49       		.uleb128 0x49
 12468 3e1b 481A0000 		.4byte	0x1a48
 12469 3e1f 02       		.uleb128 0x2
 12470 3e20 91       		.byte	0x91
 12471 3e21 48       		.sleb128 -56
 12472 3e22 40       		.uleb128 0x40
 12473 3e23 5E140000 		.4byte	.LVL807
 12474 3e27 47440000 		.4byte	0x4447
 12475 3e2b 423E0000 		.4byte	0x3e42
 12476 3e2f 2B       		.uleb128 0x2b
 12477 3e30 01       		.uleb128 0x1
 12478 3e31 50       		.byte	0x50
 12479 3e32 02       		.uleb128 0x2
 12480 3e33 91       		.byte	0x91
 12481 3e34 48       		.sleb128 -56
 12482 3e35 2B       		.uleb128 0x2b
 12483 3e36 01       		.uleb128 0x1
 12484 3e37 51       		.byte	0x51
 12485 3e38 02       		.uleb128 0x2
 12486 3e39 75       		.byte	0x75
 12487 3e3a 00       		.sleb128 0
 12488 3e3b 2B       		.uleb128 0x2b
 12489 3e3c 01       		.uleb128 0x1
 12490 3e3d 52       		.byte	0x52
 12491 3e3e 02       		.uleb128 0x2
 12492 3e3f 74       		.byte	0x74
 12493 3e40 00       		.sleb128 0
 12494 3e41 00       		.byte	0
 12495 3e42 40       		.uleb128 0x40
 12496 3e43 7E140000 		.4byte	.LVL810
 12497 3e47 28440000 		.4byte	0x4428
 12498 3e4b 5C3E0000 		.4byte	0x3e5c
 12499 3e4f 2B       		.uleb128 0x2b
 12500 3e50 01       		.uleb128 0x1
 12501 3e51 51       		.byte	0x51
 12502 3e52 02       		.uleb128 0x2
 12503 3e53 78       		.byte	0x78
 12504 3e54 00       		.sleb128 0
 12505 3e55 2B       		.uleb128 0x2b
 12506 3e56 01       		.uleb128 0x1
 12507 3e57 52       		.byte	0x52
 12508 3e58 02       		.uleb128 0x2
 12509 3e59 74       		.byte	0x74
 12510 3e5a 00       		.sleb128 0
 12511 3e5b 00       		.byte	0
 12512 3e5c 40       		.uleb128 0x40
 12513 3e5d 88140000 		.4byte	.LVL811
 12514 3e61 59430000 		.4byte	0x4359
 12515 3e65 7B3E0000 		.4byte	0x3e7b
 12516 3e69 2B       		.uleb128 0x2b
 12517 3e6a 01       		.uleb128 0x1
 12518 3e6b 50       		.byte	0x50
 12519 3e6c 02       		.uleb128 0x2
 12520 3e6d 78       		.byte	0x78
 12521 3e6e 00       		.sleb128 0
ARM GAS  C:\Users\164\AppData\Local\Temp\ccd4XrSZ.s 			page 268


 12522 3e6f 2B       		.uleb128 0x2b
 12523 3e70 01       		.uleb128 0x1
 12524 3e71 51       		.byte	0x51
 12525 3e72 01       		.uleb128 0x1
 12526 3e73 30       		.byte	0x30
 12527 3e74 2B       		.uleb128 0x2b
 12528 3e75 01       		.uleb128 0x1
 12529 3e76 52       		.byte	0x52
 12530 3e77 02       		.uleb128 0x2
 12531 3e78 74       		.byte	0x74
 12532 3e79 00       		.sleb128 0
 12533 3e7a 00       		.byte	0
 12534 3e7b 2A       		.uleb128 0x2a
 12535 3e7c 96140000 		.4byte	.LVL813
 12536 3e80 8E430000 		.4byte	0x438e
 12537 3e84 2B       		.uleb128 0x2b
 12538 3e85 01       		.uleb128 0x1
 12539 3e86 50       		.byte	0x50
 12540 3e87 02       		.uleb128 0x2
 12541 3e88 76       		.byte	0x76
 12542 3e89 00       		.sleb128 0
 12543 3e8a 00       		.byte	0
 12544 3e8b 00       		.byte	0
 12545 3e8c 00       		.byte	0
 12546 3e8d 48       		.uleb128 0x48
 12547 3e8e 551A0000 		.4byte	0x1a55
 12548 3e92 AA140000 		.4byte	.LBB317
 12549 3e96 3A000000 		.4byte	.LBE317-.LBB317
 12550 3e9a 01       		.byte	0x1
 12551 3e9b 3607     		.2byte	0x736
 12552 3e9d 0F3F0000 		.4byte	0x3f0f
 12553 3ea1 30       		.uleb128 0x30
 12554 3ea2 7D1A0000 		.4byte	0x1a7d
 12555 3ea6 D62F0000 		.4byte	.LLST359
 12556 3eaa 30       		.uleb128 0x30
 12557 3eab 711A0000 		.4byte	0x1a71
 12558 3eaf E92F0000 		.4byte	.LLST360
 12559 3eb3 30       		.uleb128 0x30
 12560 3eb4 661A0000 		.4byte	0x1a66
 12561 3eb8 FC2F0000 		.4byte	.LLST361
 12562 3ebc 31       		.uleb128 0x31
 12563 3ebd AA140000 		.4byte	.LBB318
 12564 3ec1 3A000000 		.4byte	.LBE318-.LBB318
 12565 3ec5 32       		.uleb128 0x32
 12566 3ec6 891A0000 		.4byte	0x1a89
 12567 3eca 0F300000 		.4byte	.LLST362
 12568 3ece 32       		.uleb128 0x32
 12569 3ecf 941A0000 		.4byte	0x1a94
 12570 3ed3 22300000 		.4byte	.LLST363
 12571 3ed7 32       		.uleb128 0x32
 12572 3ed8 9F1A0000 		.4byte	0x1a9f
 12573 3edc 35300000 		.4byte	.LLST364
 12574 3ee0 40       		.uleb128 0x40
 12575 3ee1 BA140000 		.4byte	.LVL820
 12576 3ee5 52440000 		.4byte	0x4452
 12577 3ee9 FD3E0000 		.4byte	0x3efd
 12578 3eed 2B       		.uleb128 0x2b
ARM GAS  C:\Users\164\AppData\Local\Temp\ccd4XrSZ.s 			page 269


 12579 3eee 01       		.uleb128 0x1
 12580 3eef 50       		.byte	0x50
 12581 3ef0 02       		.uleb128 0x2
 12582 3ef1 75       		.byte	0x75
 12583 3ef2 00       		.sleb128 0
 12584 3ef3 2B       		.uleb128 0x2b
 12585 3ef4 01       		.uleb128 0x1
 12586 3ef5 51       		.byte	0x51
 12587 3ef6 05       		.uleb128 0x5
 12588 3ef7 03       		.byte	0x3
 12589 3ef8 58000000 		.4byte	.LC5
 12590 3efc 00       		.byte	0
 12591 3efd 2A       		.uleb128 0x2a
 12592 3efe DC140000 		.4byte	.LVL825
 12593 3f02 8E430000 		.4byte	0x438e
 12594 3f06 2B       		.uleb128 0x2b
 12595 3f07 01       		.uleb128 0x1
 12596 3f08 50       		.byte	0x50
 12597 3f09 02       		.uleb128 0x2
 12598 3f0a 78       		.byte	0x78
 12599 3f0b 00       		.sleb128 0
 12600 3f0c 00       		.byte	0
 12601 3f0d 00       		.byte	0
 12602 3f0e 00       		.byte	0
 12603 3f0f 48       		.uleb128 0x48
 12604 3f10 AC1A0000 		.4byte	0x1aac
 12605 3f14 E8140000 		.4byte	.LBB319
 12606 3f18 50000000 		.4byte	.LBE319-.LBB319
 12607 3f1c 01       		.byte	0x1
 12608 3f1d 3707     		.2byte	0x737
 12609 3f1f D13F0000 		.4byte	0x3fd1
 12610 3f23 30       		.uleb128 0x30
 12611 3f24 D41A0000 		.4byte	0x1ad4
 12612 3f28 53300000 		.4byte	.LLST365
 12613 3f2c 30       		.uleb128 0x30
 12614 3f2d C81A0000 		.4byte	0x1ac8
 12615 3f31 71300000 		.4byte	.LLST366
 12616 3f35 30       		.uleb128 0x30
 12617 3f36 BD1A0000 		.4byte	0x1abd
 12618 3f3a 84300000 		.4byte	.LLST367
 12619 3f3e 31       		.uleb128 0x31
 12620 3f3f E8140000 		.4byte	.LBB320
 12621 3f43 50000000 		.4byte	.LBE320-.LBB320
 12622 3f47 32       		.uleb128 0x32
 12623 3f48 E01A0000 		.4byte	0x1ae0
 12624 3f4c 97300000 		.4byte	.LLST368
 12625 3f50 32       		.uleb128 0x32
 12626 3f51 EB1A0000 		.4byte	0x1aeb
 12627 3f55 AA300000 		.4byte	.LLST369
 12628 3f59 32       		.uleb128 0x32
 12629 3f5a F61A0000 		.4byte	0x1af6
 12630 3f5e CA300000 		.4byte	.LLST370
 12631 3f62 49       		.uleb128 0x49
 12632 3f63 011B0000 		.4byte	0x1b01
 12633 3f67 02       		.uleb128 0x2
 12634 3f68 91       		.byte	0x91
 12635 3f69 48       		.sleb128 -56
ARM GAS  C:\Users\164\AppData\Local\Temp\ccd4XrSZ.s 			page 270


 12636 3f6a 40       		.uleb128 0x40
 12637 3f6b FE140000 		.4byte	.LVL831
 12638 3f6f 99430000 		.4byte	0x4399
 12639 3f73 7E3F0000 		.4byte	0x3f7e
 12640 3f77 2B       		.uleb128 0x2b
 12641 3f78 01       		.uleb128 0x1
 12642 3f79 50       		.byte	0x50
 12643 3f7a 02       		.uleb128 0x2
 12644 3f7b 79       		.byte	0x79
 12645 3f7c 00       		.sleb128 0
 12646 3f7d 00       		.byte	0
 12647 3f7e 40       		.uleb128 0x40
 12648 3f7f 0A150000 		.4byte	.LVL834
 12649 3f83 99430000 		.4byte	0x4399
 12650 3f87 923F0000 		.4byte	0x3f92
 12651 3f8b 2B       		.uleb128 0x2b
 12652 3f8c 01       		.uleb128 0x1
 12653 3f8d 50       		.byte	0x50
 12654 3f8e 02       		.uleb128 0x2
 12655 3f8f 77       		.byte	0x77
 12656 3f90 00       		.sleb128 0
 12657 3f91 00       		.byte	0
 12658 3f92 40       		.uleb128 0x40
 12659 3f93 18150000 		.4byte	.LVL835
 12660 3f97 5D440000 		.4byte	0x445d
 12661 3f9b BF3F0000 		.4byte	0x3fbf
 12662 3f9f 2B       		.uleb128 0x2b
 12663 3fa0 01       		.uleb128 0x1
 12664 3fa1 50       		.byte	0x50
 12665 3fa2 02       		.uleb128 0x2
 12666 3fa3 91       		.byte	0x91
 12667 3fa4 48       		.sleb128 -56
 12668 3fa5 2B       		.uleb128 0x2b
 12669 3fa6 01       		.uleb128 0x1
 12670 3fa7 51       		.byte	0x51
 12671 3fa8 02       		.uleb128 0x2
 12672 3fa9 75       		.byte	0x75
 12673 3faa 00       		.sleb128 0
 12674 3fab 2B       		.uleb128 0x2b
 12675 3fac 01       		.uleb128 0x1
 12676 3fad 52       		.byte	0x52
 12677 3fae 02       		.uleb128 0x2
 12678 3faf 79       		.byte	0x79
 12679 3fb0 00       		.sleb128 0
 12680 3fb1 2B       		.uleb128 0x2b
 12681 3fb2 01       		.uleb128 0x1
 12682 3fb3 53       		.byte	0x53
 12683 3fb4 02       		.uleb128 0x2
 12684 3fb5 77       		.byte	0x77
 12685 3fb6 00       		.sleb128 0
 12686 3fb7 2B       		.uleb128 0x2b
 12687 3fb8 02       		.uleb128 0x2
 12688 3fb9 7D       		.byte	0x7d
 12689 3fba 00       		.sleb128 0
 12690 3fbb 02       		.uleb128 0x2
 12691 3fbc 74       		.byte	0x74
 12692 3fbd 00       		.sleb128 0
ARM GAS  C:\Users\164\AppData\Local\Temp\ccd4XrSZ.s 			page 271


 12693 3fbe 00       		.byte	0
 12694 3fbf 2A       		.uleb128 0x2a
 12695 3fc0 26150000 		.4byte	.LVL837
 12696 3fc4 8E430000 		.4byte	0x438e
 12697 3fc8 2B       		.uleb128 0x2b
 12698 3fc9 01       		.uleb128 0x1
 12699 3fca 50       		.byte	0x50
 12700 3fcb 02       		.uleb128 0x2
 12701 3fcc 76       		.byte	0x76
 12702 3fcd 00       		.sleb128 0
 12703 3fce 00       		.byte	0
 12704 3fcf 00       		.byte	0
 12705 3fd0 00       		.byte	0
 12706 3fd1 48       		.uleb128 0x48
 12707 3fd2 0E1B0000 		.4byte	0x1b0e
 12708 3fd6 3A150000 		.4byte	.LBB321
 12709 3fda 4A000000 		.4byte	.LBE321-.LBB321
 12710 3fde 01       		.byte	0x1
 12711 3fdf 3807     		.2byte	0x738
 12712 3fe1 73400000 		.4byte	0x4073
 12713 3fe5 30       		.uleb128 0x30
 12714 3fe6 361B0000 		.4byte	0x1b36
 12715 3fea DD300000 		.4byte	.LLST371
 12716 3fee 30       		.uleb128 0x30
 12717 3fef 2A1B0000 		.4byte	0x1b2a
 12718 3ff3 F0300000 		.4byte	.LLST372
 12719 3ff7 30       		.uleb128 0x30
 12720 3ff8 1F1B0000 		.4byte	0x1b1f
 12721 3ffc 03310000 		.4byte	.LLST373
 12722 4000 31       		.uleb128 0x31
 12723 4001 3A150000 		.4byte	.LBB322
 12724 4005 4A000000 		.4byte	.LBE322-.LBB322
 12725 4009 32       		.uleb128 0x32
 12726 400a 421B0000 		.4byte	0x1b42
 12727 400e 16310000 		.4byte	.LLST374
 12728 4012 32       		.uleb128 0x32
 12729 4013 4D1B0000 		.4byte	0x1b4d
 12730 4017 29310000 		.4byte	.LLST375
 12731 401b 32       		.uleb128 0x32
 12732 401c 581B0000 		.4byte	0x1b58
 12733 4020 62310000 		.4byte	.LLST376
 12734 4024 32       		.uleb128 0x32
 12735 4025 641B0000 		.4byte	0x1b64
 12736 4029 75310000 		.4byte	.LLST377
 12737 402d 32       		.uleb128 0x32
 12738 402e 701B0000 		.4byte	0x1b70
 12739 4032 93310000 		.4byte	.LLST378
 12740 4036 32       		.uleb128 0x32
 12741 4037 7C1B0000 		.4byte	0x1b7c
 12742 403b A6310000 		.4byte	.LLST379
 12743 403f 49       		.uleb128 0x49
 12744 4040 881B0000 		.4byte	0x1b88
 12745 4044 02       		.uleb128 0x2
 12746 4045 91       		.byte	0x91
 12747 4046 48       		.sleb128 -56
 12748 4047 40       		.uleb128 0x40
 12749 4048 4A150000 		.4byte	.LVL844
ARM GAS  C:\Users\164\AppData\Local\Temp\ccd4XrSZ.s 			page 272


 12750 404c A20B0000 		.4byte	0xba2
 12751 4050 61400000 		.4byte	0x4061
 12752 4054 2B       		.uleb128 0x2b
 12753 4055 01       		.uleb128 0x1
 12754 4056 51       		.byte	0x51
 12755 4057 08       		.uleb128 0x8
 12756 4058 74       		.byte	0x74
 12757 4059 00       		.sleb128 0
 12758 405a 09       		.byte	0x9
 12759 405b ED       		.byte	0xed
 12760 405c 24       		.byte	0x24
 12761 405d 09       		.byte	0x9
 12762 405e FB       		.byte	0xfb
 12763 405f 25       		.byte	0x25
 12764 4060 00       		.byte	0
 12765 4061 2A       		.uleb128 0x2a
 12766 4062 68150000 		.4byte	.LVL848
 12767 4066 68440000 		.4byte	0x4468
 12768 406a 2B       		.uleb128 0x2b
 12769 406b 01       		.uleb128 0x1
 12770 406c 50       		.byte	0x50
 12771 406d 02       		.uleb128 0x2
 12772 406e 75       		.byte	0x75
 12773 406f 00       		.sleb128 0
 12774 4070 00       		.byte	0
 12775 4071 00       		.byte	0
 12776 4072 00       		.byte	0
 12777 4073 48       		.uleb128 0x48
 12778 4074 951B0000 		.4byte	0x1b95
 12779 4078 86150000 		.4byte	.LBB323
 12780 407c 44000000 		.4byte	.LBE323-.LBB323
 12781 4080 01       		.byte	0x1
 12782 4081 3907     		.2byte	0x739
 12783 4083 F6400000 		.4byte	0x40f6
 12784 4087 30       		.uleb128 0x30
 12785 4088 BD1B0000 		.4byte	0x1bbd
 12786 408c C5310000 		.4byte	.LLST380
 12787 4090 30       		.uleb128 0x30
 12788 4091 B11B0000 		.4byte	0x1bb1
 12789 4095 E5310000 		.4byte	.LLST381
 12790 4099 30       		.uleb128 0x30
 12791 409a A61B0000 		.4byte	0x1ba6
 12792 409e F8310000 		.4byte	.LLST382
 12793 40a2 31       		.uleb128 0x31
 12794 40a3 86150000 		.4byte	.LBB324
 12795 40a7 44000000 		.4byte	.LBE324-.LBB324
 12796 40ab 32       		.uleb128 0x32
 12797 40ac C91B0000 		.4byte	0x1bc9
 12798 40b0 0B320000 		.4byte	.LLST383
 12799 40b4 32       		.uleb128 0x32
 12800 40b5 D41B0000 		.4byte	0x1bd4
 12801 40b9 1E320000 		.4byte	.LLST384
 12802 40bd 49       		.uleb128 0x49
 12803 40be DF1B0000 		.4byte	0x1bdf
 12804 40c2 02       		.uleb128 0x2
 12805 40c3 91       		.byte	0x91
 12806 40c4 48       		.sleb128 -56
ARM GAS  C:\Users\164\AppData\Local\Temp\ccd4XrSZ.s 			page 273


 12807 40c5 40       		.uleb128 0x40
 12808 40c6 A6150000 		.4byte	.LVL859
 12809 40ca CE0C0000 		.4byte	0xcce
 12810 40ce DE400000 		.4byte	0x40de
 12811 40d2 2B       		.uleb128 0x2b
 12812 40d3 01       		.uleb128 0x1
 12813 40d4 50       		.byte	0x50
 12814 40d5 02       		.uleb128 0x2
 12815 40d6 75       		.byte	0x75
 12816 40d7 00       		.sleb128 0
 12817 40d8 2B       		.uleb128 0x2b
 12818 40d9 01       		.uleb128 0x1
 12819 40da 51       		.byte	0x51
 12820 40db 01       		.uleb128 0x1
 12821 40dc 30       		.byte	0x30
 12822 40dd 00       		.byte	0
 12823 40de 2A       		.uleb128 0x2a
 12824 40df C6150000 		.4byte	.LVL861
 12825 40e3 F1430000 		.4byte	0x43f1
 12826 40e7 2B       		.uleb128 0x2b
 12827 40e8 01       		.uleb128 0x1
 12828 40e9 50       		.byte	0x50
 12829 40ea 02       		.uleb128 0x2
 12830 40eb 75       		.byte	0x75
 12831 40ec 00       		.sleb128 0
 12832 40ed 2B       		.uleb128 0x2b
 12833 40ee 01       		.uleb128 0x1
 12834 40ef 51       		.byte	0x51
 12835 40f0 02       		.uleb128 0x2
 12836 40f1 79       		.byte	0x79
 12837 40f2 00       		.sleb128 0
 12838 40f3 00       		.byte	0
 12839 40f4 00       		.byte	0
 12840 40f5 00       		.byte	0
 12841 40f6 48       		.uleb128 0x48
 12842 40f7 EC1B0000 		.4byte	0x1bec
 12843 40fb CC150000 		.4byte	.LBB325
 12844 40ff 8A000000 		.4byte	.LBE325-.LBB325
 12845 4103 01       		.byte	0x1
 12846 4104 3A07     		.2byte	0x73a
 12847 4106 D8410000 		.4byte	0x41d8
 12848 410a 30       		.uleb128 0x30
 12849 410b 141C0000 		.4byte	0x1c14
 12850 410f 31320000 		.4byte	.LLST385
 12851 4113 30       		.uleb128 0x30
 12852 4114 081C0000 		.4byte	0x1c08
 12853 4118 44320000 		.4byte	.LLST386
 12854 411c 30       		.uleb128 0x30
 12855 411d FD1B0000 		.4byte	0x1bfd
 12856 4121 57320000 		.4byte	.LLST387
 12857 4125 31       		.uleb128 0x31
 12858 4126 CC150000 		.4byte	.LBB326
 12859 412a 8A000000 		.4byte	.LBE326-.LBB326
 12860 412e 32       		.uleb128 0x32
 12861 412f 201C0000 		.4byte	0x1c20
 12862 4133 6A320000 		.4byte	.LLST388
 12863 4137 32       		.uleb128 0x32
ARM GAS  C:\Users\164\AppData\Local\Temp\ccd4XrSZ.s 			page 274


 12864 4138 2B1C0000 		.4byte	0x1c2b
 12865 413c 7D320000 		.4byte	.LLST389
 12866 4140 32       		.uleb128 0x32
 12867 4141 361C0000 		.4byte	0x1c36
 12868 4145 90320000 		.4byte	.LLST390
 12869 4149 31       		.uleb128 0x31
 12870 414a E4150000 		.4byte	.LBB327
 12871 414e 72000000 		.4byte	.LBE327-.LBB327
 12872 4152 32       		.uleb128 0x32
 12873 4153 431C0000 		.4byte	0x1c43
 12874 4157 A3320000 		.4byte	.LLST391
 12875 415b 32       		.uleb128 0x32
 12876 415c 4F1C0000 		.4byte	0x1c4f
 12877 4160 B6320000 		.4byte	.LLST392
 12878 4164 32       		.uleb128 0x32
 12879 4165 5B1C0000 		.4byte	0x1c5b
 12880 4169 C9320000 		.4byte	.LLST393
 12881 416d 32       		.uleb128 0x32
 12882 416e 671C0000 		.4byte	0x1c67
 12883 4172 DC320000 		.4byte	.LLST394
 12884 4176 32       		.uleb128 0x32
 12885 4177 731C0000 		.4byte	0x1c73
 12886 417b FA320000 		.4byte	.LLST395
 12887 417f 32       		.uleb128 0x32
 12888 4180 7D1C0000 		.4byte	0x1c7d
 12889 4184 0D330000 		.4byte	.LLST396
 12890 4188 3E       		.uleb128 0x3e
 12891 4189 1E160000 		.4byte	.LBB328
 12892 418d 16000000 		.4byte	.LBE328-.LBB328
 12893 4191 AE410000 		.4byte	0x41ae
 12894 4195 49       		.uleb128 0x49
 12895 4196 891C0000 		.4byte	0x1c89
 12896 419a 02       		.uleb128 0x2
 12897 419b 91       		.byte	0x91
 12898 419c 48       		.sleb128 -56
 12899 419d 2A       		.uleb128 0x2a
 12900 419e 34160000 		.4byte	.LVL878
 12901 41a2 8E430000 		.4byte	0x438e
 12902 41a6 2B       		.uleb128 0x2b
 12903 41a7 01       		.uleb128 0x1
 12904 41a8 50       		.byte	0x50
 12905 41a9 02       		.uleb128 0x2
 12906 41aa 91       		.byte	0x91
 12907 41ab 48       		.sleb128 -56
 12908 41ac 00       		.byte	0
 12909 41ad 00       		.byte	0
 12910 41ae 35       		.uleb128 0x35
 12911 41af F0150000 		.4byte	.LVL871
 12912 41b3 A20B0000 		.4byte	0xba2
 12913 41b7 35       		.uleb128 0x35
 12914 41b8 F4150000 		.4byte	.LVL872
 12915 41bc A4430000 		.4byte	0x43a4
 12916 41c0 2A       		.uleb128 0x2a
 12917 41c1 52160000 		.4byte	.LVL879
 12918 41c5 73440000 		.4byte	0x4473
 12919 41c9 2B       		.uleb128 0x2b
 12920 41ca 01       		.uleb128 0x1
ARM GAS  C:\Users\164\AppData\Local\Temp\ccd4XrSZ.s 			page 275


 12921 41cb 50       		.byte	0x50
 12922 41cc 02       		.uleb128 0x2
 12923 41cd 74       		.byte	0x74
 12924 41ce 00       		.sleb128 0
 12925 41cf 2B       		.uleb128 0x2b
 12926 41d0 01       		.uleb128 0x1
 12927 41d1 51       		.byte	0x51
 12928 41d2 01       		.uleb128 0x1
 12929 41d3 30       		.byte	0x30
 12930 41d4 00       		.byte	0
 12931 41d5 00       		.byte	0
 12932 41d6 00       		.byte	0
 12933 41d7 00       		.byte	0
 12934 41d8 48       		.uleb128 0x48
 12935 41d9 F80A0000 		.4byte	0xaf8
 12936 41dd 5A160000 		.4byte	.LBB329
 12937 41e1 16000000 		.4byte	.LBE329-.LBB329
 12938 41e5 01       		.byte	0x1
 12939 41e6 3B07     		.2byte	0x73b
 12940 41e8 2B420000 		.4byte	0x422b
 12941 41ec 30       		.uleb128 0x30
 12942 41ed 200B0000 		.4byte	0xb20
 12943 41f1 20330000 		.4byte	.LLST397
 12944 41f5 30       		.uleb128 0x30
 12945 41f6 140B0000 		.4byte	0xb14
 12946 41fa 33330000 		.4byte	.LLST398
 12947 41fe 30       		.uleb128 0x30
 12948 41ff 090B0000 		.4byte	0xb09
 12949 4203 46330000 		.4byte	.LLST399
 12950 4207 31       		.uleb128 0x31
 12951 4208 5A160000 		.4byte	.LBB330
 12952 420c 16000000 		.4byte	.LBE330-.LBB330
 12953 4210 32       		.uleb128 0x32
 12954 4211 2C0B0000 		.4byte	0xb2c
 12955 4215 59330000 		.4byte	.LLST400
 12956 4219 2A       		.uleb128 0x2a
 12957 421a 66160000 		.4byte	.LVL885
 12958 421e 8E430000 		.4byte	0x438e
 12959 4222 2B       		.uleb128 0x2b
 12960 4223 01       		.uleb128 0x1
 12961 4224 50       		.byte	0x50
 12962 4225 02       		.uleb128 0x2
 12963 4226 77       		.byte	0x77
 12964 4227 00       		.sleb128 0
 12965 4228 00       		.byte	0
 12966 4229 00       		.byte	0
 12967 422a 00       		.byte	0
 12968 422b 48       		.uleb128 0x48
 12969 422c 380B0000 		.4byte	0xb38
 12970 4230 74160000 		.4byte	.LBB331
 12971 4234 24000000 		.4byte	.LBE331-.LBB331
 12972 4238 01       		.byte	0x1
 12973 4239 3C07     		.2byte	0x73c
 12974 423b 81420000 		.4byte	0x4281
 12975 423f 30       		.uleb128 0x30
 12976 4240 600B0000 		.4byte	0xb60
 12977 4244 6C330000 		.4byte	.LLST401
ARM GAS  C:\Users\164\AppData\Local\Temp\ccd4XrSZ.s 			page 276


 12978 4248 30       		.uleb128 0x30
 12979 4249 540B0000 		.4byte	0xb54
 12980 424d 7F330000 		.4byte	.LLST402
 12981 4251 30       		.uleb128 0x30
 12982 4252 490B0000 		.4byte	0xb49
 12983 4256 92330000 		.4byte	.LLST403
 12984 425a 4C       		.uleb128 0x4c
 12985 425b 00000000 		.4byte	.Ldebug_ranges0+0
 12986 425f 32       		.uleb128 0x32
 12987 4260 6D0B0000 		.4byte	0xb6d
 12988 4264 A5330000 		.4byte	.LLST404
 12989 4268 2A       		.uleb128 0x2a
 12990 4269 88160000 		.4byte	.LVL890
 12991 426d 8E430000 		.4byte	0x438e
 12992 4271 2B       		.uleb128 0x2b
 12993 4272 01       		.uleb128 0x1
 12994 4273 50       		.byte	0x50
 12995 4274 09       		.uleb128 0x9
 12996 4275 74       		.byte	0x74
 12997 4276 00       		.sleb128 0
 12998 4277 34       		.byte	0x34
 12999 4278 24       		.byte	0x24
 13000 4279 75       		.byte	0x75
 13001 427a 00       		.sleb128 0
 13002 427b 22       		.byte	0x22
 13003 427c 23       		.byte	0x23
 13004 427d 18       		.uleb128 0x18
 13005 427e 00       		.byte	0
 13006 427f 00       		.byte	0
 13007 4280 00       		.byte	0
 13008 4281 48       		.uleb128 0x48
 13009 4282 380B0000 		.4byte	0xb38
 13010 4286 9E160000 		.4byte	.LBB335
 13011 428a 24000000 		.4byte	.LBE335-.LBB335
 13012 428e 01       		.byte	0x1
 13013 428f 3D07     		.2byte	0x73d
 13014 4291 D7420000 		.4byte	0x42d7
 13015 4295 30       		.uleb128 0x30
 13016 4296 600B0000 		.4byte	0xb60
 13017 429a C3330000 		.4byte	.LLST405
 13018 429e 30       		.uleb128 0x30
 13019 429f 540B0000 		.4byte	0xb54
 13020 42a3 D6330000 		.4byte	.LLST406
 13021 42a7 30       		.uleb128 0x30
 13022 42a8 490B0000 		.4byte	0xb49
 13023 42ac E9330000 		.4byte	.LLST407
 13024 42b0 4C       		.uleb128 0x4c
 13025 42b1 18000000 		.4byte	.Ldebug_ranges0+0x18
 13026 42b5 32       		.uleb128 0x32
 13027 42b6 6D0B0000 		.4byte	0xb6d
 13028 42ba FC330000 		.4byte	.LLST408
 13029 42be 2A       		.uleb128 0x2a
 13030 42bf B2160000 		.4byte	.LVL899
 13031 42c3 8E430000 		.4byte	0x438e
 13032 42c7 2B       		.uleb128 0x2b
 13033 42c8 01       		.uleb128 0x1
 13034 42c9 50       		.byte	0x50
ARM GAS  C:\Users\164\AppData\Local\Temp\ccd4XrSZ.s 			page 277


 13035 42ca 09       		.uleb128 0x9
 13036 42cb 74       		.byte	0x74
 13037 42cc 00       		.sleb128 0
 13038 42cd 34       		.byte	0x34
 13039 42ce 24       		.byte	0x24
 13040 42cf 75       		.byte	0x75
 13041 42d0 00       		.sleb128 0
 13042 42d1 22       		.byte	0x22
 13043 42d2 23       		.byte	0x23
 13044 42d3 18       		.uleb128 0x18
 13045 42d4 00       		.byte	0
 13046 42d5 00       		.byte	0
 13047 42d6 00       		.byte	0
 13048 42d7 2A       		.uleb128 0x2a
 13049 42d8 D2160000 		.4byte	.LVL906
 13050 42dc 22430000 		.4byte	0x4322
 13051 42e0 2B       		.uleb128 0x2b
 13052 42e1 01       		.uleb128 0x1
 13053 42e2 50       		.byte	0x50
 13054 42e3 05       		.uleb128 0x5
 13055 42e4 03       		.byte	0x3
 13056 42e5 64000000 		.4byte	.LC6
 13057 42e9 2B       		.uleb128 0x2b
 13058 42ea 01       		.uleb128 0x1
 13059 42eb 51       		.byte	0x51
 13060 42ec 05       		.uleb128 0x5
 13061 42ed 74       		.byte	0x74
 13062 42ee 00       		.sleb128 0
 13063 42ef 08       		.byte	0x8
 13064 42f0 7F       		.byte	0x7f
 13065 42f1 1A       		.byte	0x1a
 13066 42f2 00       		.byte	0
 13067 42f3 00       		.byte	0
 13068 42f4 00       		.byte	0
 13069 42f5 38       		.uleb128 0x38
 13070 42f6 1F090000 		.4byte	.LASF233
 13071 42fa 01       		.byte	0x1
 13072 42fb 23       		.byte	0x23
 13073 42fc 37080000 		.4byte	0x837
 13074 4300 05       		.uleb128 0x5
 13075 4301 03       		.byte	0x3
 13076 4302 00000000 		.4byte	free_vm_bitmap
 13077 4306 4D       		.uleb128 0x4d
 13078 4307 89030000 		.4byte	.LASF234
 13079 430b 0A       		.byte	0xa
 13080 430c 1A       		.byte	0x1a
 13081 430d B0060000 		.4byte	0x6b0
 13082 4311 4E       		.uleb128 0x4e
 13083 4312 2E060000 		.4byte	.LASF235
 13084 4316 0B       		.byte	0xb
 13085 4317 1207     		.2byte	0x712
 13086 4319 1D430000 		.4byte	0x431d
 13087 431d 1C       		.uleb128 0x1c
 13088 431e D9000000 		.4byte	0xd9
 13089 4322 4F       		.uleb128 0x4f
 13090 4323 CF040000 		.4byte	.LASF236
 13091 4327 CF040000 		.4byte	.LASF236
ARM GAS  C:\Users\164\AppData\Local\Temp\ccd4XrSZ.s 			page 278


 13092 432b 0C       		.byte	0xc
 13093 432c 30       		.byte	0x30
 13094 432d 4F       		.uleb128 0x4f
 13095 432e B7060000 		.4byte	.LASF237
 13096 4332 B7060000 		.4byte	.LASF237
 13097 4336 0D       		.byte	0xd
 13098 4337 1D       		.byte	0x1d
 13099 4338 4F       		.uleb128 0x4f
 13100 4339 7F050000 		.4byte	.LASF238
 13101 433d 7F050000 		.4byte	.LASF238
 13102 4341 0D       		.byte	0xd
 13103 4342 1F       		.byte	0x1f
 13104 4343 4F       		.uleb128 0x4f
 13105 4344 9E060000 		.4byte	.LASF239
 13106 4348 9E060000 		.4byte	.LASF239
 13107 434c 0D       		.byte	0xd
 13108 434d 1A       		.byte	0x1a
 13109 434e 4F       		.uleb128 0x4f
 13110 434f A8010000 		.4byte	.LASF240
 13111 4353 A8010000 		.4byte	.LASF240
 13112 4357 0D       		.byte	0xd
 13113 4358 1B       		.byte	0x1b
 13114 4359 50       		.uleb128 0x50
 13115 435a AA080000 		.4byte	.LASF259
 13116 435e AA080000 		.4byte	.LASF259
 13117 4362 4F       		.uleb128 0x4f
 13118 4363 80040000 		.4byte	.LASF241
 13119 4367 80040000 		.4byte	.LASF241
 13120 436b 0E       		.byte	0xe
 13121 436c 29       		.byte	0x29
 13122 436d 4F       		.uleb128 0x4f
 13123 436e AB000000 		.4byte	.LASF242
 13124 4372 AB000000 		.4byte	.LASF242
 13125 4376 05       		.byte	0x5
 13126 4377 DB       		.byte	0xdb
 13127 4378 4F       		.uleb128 0x4f
 13128 4379 0A040000 		.4byte	.LASF243
 13129 437d 0A040000 		.4byte	.LASF243
 13130 4381 0F       		.byte	0xf
 13131 4382 1D       		.byte	0x1d
 13132 4383 4F       		.uleb128 0x4f
 13133 4384 E8000000 		.4byte	.LASF244
 13134 4388 E8000000 		.4byte	.LASF244
 13135 438c 0D       		.byte	0xd
 13136 438d 20       		.byte	0x20
 13137 438e 4F       		.uleb128 0x4f
 13138 438f D9030000 		.4byte	.LASF245
 13139 4393 D9030000 		.4byte	.LASF245
 13140 4397 05       		.byte	0x5
 13141 4398 D6       		.byte	0xd6
 13142 4399 4F       		.uleb128 0x4f
 13143 439a 6F0A0000 		.4byte	.LASF246
 13144 439e 6F0A0000 		.4byte	.LASF246
 13145 43a2 05       		.byte	0x5
 13146 43a3 D5       		.byte	0xd5
 13147 43a4 4F       		.uleb128 0x4f
 13148 43a5 9C040000 		.4byte	.LASF247
ARM GAS  C:\Users\164\AppData\Local\Temp\ccd4XrSZ.s 			page 279


 13149 43a9 9C040000 		.4byte	.LASF247
 13150 43ad 10       		.byte	0x10
 13151 43ae 1A       		.byte	0x1a
 13152 43af 4F       		.uleb128 0x4f
 13153 43b0 6C090000 		.4byte	.LASF248
 13154 43b4 6C090000 		.4byte	.LASF248
 13155 43b8 0F       		.byte	0xf
 13156 43b9 1B       		.byte	0x1b
 13157 43ba 4F       		.uleb128 0x4f
 13158 43bb 6D060000 		.4byte	.LASF249
 13159 43bf 6D060000 		.4byte	.LASF249
 13160 43c3 0F       		.byte	0xf
 13161 43c4 19       		.byte	0x19
 13162 43c5 4F       		.uleb128 0x4f
 13163 43c6 DF090000 		.4byte	.LASF250
 13164 43ca DF090000 		.4byte	.LASF250
 13165 43ce 05       		.byte	0x5
 13166 43cf DF       		.byte	0xdf
 13167 43d0 4F       		.uleb128 0x4f
 13168 43d1 A5070000 		.4byte	.LASF251
 13169 43d5 A5070000 		.4byte	.LASF251
 13170 43d9 05       		.byte	0x5
 13171 43da DE       		.byte	0xde
 13172 43db 4F       		.uleb128 0x4f
 13173 43dc EF050000 		.4byte	.LASF252
 13174 43e0 EF050000 		.4byte	.LASF252
 13175 43e4 0F       		.byte	0xf
 13176 43e5 1C       		.byte	0x1c
 13177 43e6 4F       		.uleb128 0x4f
 13178 43e7 DC020000 		.4byte	.LASF253
 13179 43eb DC020000 		.4byte	.LASF253
 13180 43ef 0F       		.byte	0xf
 13181 43f0 1A       		.byte	0x1a
 13182 43f1 4F       		.uleb128 0x4f
 13183 43f2 28000000 		.4byte	.LASF254
 13184 43f6 28000000 		.4byte	.LASF254
 13185 43fa 11       		.byte	0x11
 13186 43fb 1A       		.byte	0x1a
 13187 43fc 4F       		.uleb128 0x4f
 13188 43fd DD050000 		.4byte	.LASF255
 13189 4401 DD050000 		.4byte	.LASF255
 13190 4405 10       		.byte	0x10
 13191 4406 1B       		.byte	0x1b
 13192 4407 4F       		.uleb128 0x4f
 13193 4408 DA060000 		.4byte	.LASF256
 13194 440c DA060000 		.4byte	.LASF256
 13195 4410 11       		.byte	0x11
 13196 4411 1B       		.byte	0x1b
 13197 4412 4F       		.uleb128 0x4f
 13198 4413 C8080000 		.4byte	.LASF257
 13199 4417 C8080000 		.4byte	.LASF257
 13200 441b 05       		.byte	0x5
 13201 441c D3       		.byte	0xd3
 13202 441d 4F       		.uleb128 0x4f
 13203 441e 7D000000 		.4byte	.LASF258
 13204 4422 7D000000 		.4byte	.LASF258
 13205 4426 06       		.byte	0x6
ARM GAS  C:\Users\164\AppData\Local\Temp\ccd4XrSZ.s 			page 280


 13206 4427 25       		.byte	0x25
 13207 4428 50       		.uleb128 0x50
 13208 4429 420A0000 		.4byte	.LASF260
 13209 442d 420A0000 		.4byte	.LASF260
 13210 4431 4F       		.uleb128 0x4f
 13211 4432 ED030000 		.4byte	.LASF261
 13212 4436 ED030000 		.4byte	.LASF261
 13213 443a 07       		.byte	0x7
 13214 443b 26       		.byte	0x26
 13215 443c 4F       		.uleb128 0x4f
 13216 443d 95070000 		.4byte	.LASF262
 13217 4441 95070000 		.4byte	.LASF262
 13218 4445 07       		.byte	0x7
 13219 4446 2C       		.byte	0x2c
 13220 4447 4F       		.uleb128 0x4f
 13221 4448 4F040000 		.4byte	.LASF263
 13222 444c 4F040000 		.4byte	.LASF263
 13223 4450 09       		.byte	0x9
 13224 4451 35       		.byte	0x35
 13225 4452 4F       		.uleb128 0x4f
 13226 4453 F7020000 		.4byte	.LASF264
 13227 4457 F7020000 		.4byte	.LASF264
 13228 445b 05       		.byte	0x5
 13229 445c D2       		.byte	0xd2
 13230 445d 4F       		.uleb128 0x4f
 13231 445e CB060000 		.4byte	.LASF265
 13232 4462 CB060000 		.4byte	.LASF265
 13233 4466 08       		.byte	0x8
 13234 4467 26       		.byte	0x26
 13235 4468 4F       		.uleb128 0x4f
 13236 4469 850B0000 		.4byte	.LASF266
 13237 446d 850B0000 		.4byte	.LASF266
 13238 4471 11       		.byte	0x11
 13239 4472 1C       		.byte	0x1c
 13240 4473 4F       		.uleb128 0x4f
 13241 4474 0A070000 		.4byte	.LASF267
 13242 4478 0A070000 		.4byte	.LASF267
 13243 447c 0D       		.byte	0xd
 13244 447d 21       		.byte	0x21
 13245 447e 00       		.byte	0
 13246              		.section	.debug_abbrev,"",%progbits
 13247              	.Ldebug_abbrev0:
 13248 0000 01       		.uleb128 0x1
 13249 0001 11       		.uleb128 0x11
 13250 0002 01       		.byte	0x1
 13251 0003 25       		.uleb128 0x25
 13252 0004 0E       		.uleb128 0xe
 13253 0005 13       		.uleb128 0x13
 13254 0006 0B       		.uleb128 0xb
 13255 0007 03       		.uleb128 0x3
 13256 0008 0E       		.uleb128 0xe
 13257 0009 1B       		.uleb128 0x1b
 13258 000a 0E       		.uleb128 0xe
 13259 000b 55       		.uleb128 0x55
 13260 000c 17       		.uleb128 0x17
 13261 000d 11       		.uleb128 0x11
 13262 000e 01       		.uleb128 0x1
ARM GAS  C:\Users\164\AppData\Local\Temp\ccd4XrSZ.s 			page 281


 13263 000f 10       		.uleb128 0x10
 13264 0010 17       		.uleb128 0x17
 13265 0011 00       		.byte	0
 13266 0012 00       		.byte	0
 13267 0013 02       		.uleb128 0x2
 13268 0014 16       		.uleb128 0x16
 13269 0015 00       		.byte	0
 13270 0016 03       		.uleb128 0x3
 13271 0017 0E       		.uleb128 0xe
 13272 0018 3A       		.uleb128 0x3a
 13273 0019 0B       		.uleb128 0xb
 13274 001a 3B       		.uleb128 0x3b
 13275 001b 0B       		.uleb128 0xb
 13276 001c 49       		.uleb128 0x49
 13277 001d 13       		.uleb128 0x13
 13278 001e 00       		.byte	0
 13279 001f 00       		.byte	0
 13280 0020 03       		.uleb128 0x3
 13281 0021 24       		.uleb128 0x24
 13282 0022 00       		.byte	0
 13283 0023 0B       		.uleb128 0xb
 13284 0024 0B       		.uleb128 0xb
 13285 0025 3E       		.uleb128 0x3e
 13286 0026 0B       		.uleb128 0xb
 13287 0027 03       		.uleb128 0x3
 13288 0028 0E       		.uleb128 0xe
 13289 0029 00       		.byte	0
 13290 002a 00       		.byte	0
 13291 002b 04       		.uleb128 0x4
 13292 002c 24       		.uleb128 0x24
 13293 002d 00       		.byte	0
 13294 002e 0B       		.uleb128 0xb
 13295 002f 0B       		.uleb128 0xb
 13296 0030 3E       		.uleb128 0x3e
 13297 0031 0B       		.uleb128 0xb
 13298 0032 03       		.uleb128 0x3
 13299 0033 08       		.uleb128 0x8
 13300 0034 00       		.byte	0
 13301 0035 00       		.byte	0
 13302 0036 05       		.uleb128 0x5
 13303 0037 0F       		.uleb128 0xf
 13304 0038 00       		.byte	0
 13305 0039 0B       		.uleb128 0xb
 13306 003a 0B       		.uleb128 0xb
 13307 003b 00       		.byte	0
 13308 003c 00       		.byte	0
 13309 003d 06       		.uleb128 0x6
 13310 003e 0F       		.uleb128 0xf
 13311 003f 00       		.byte	0
 13312 0040 0B       		.uleb128 0xb
 13313 0041 0B       		.uleb128 0xb
 13314 0042 49       		.uleb128 0x49
 13315 0043 13       		.uleb128 0x13
 13316 0044 00       		.byte	0
 13317 0045 00       		.byte	0
 13318 0046 07       		.uleb128 0x7
 13319 0047 26       		.uleb128 0x26
ARM GAS  C:\Users\164\AppData\Local\Temp\ccd4XrSZ.s 			page 282


 13320 0048 00       		.byte	0
 13321 0049 49       		.uleb128 0x49
 13322 004a 13       		.uleb128 0x13
 13323 004b 00       		.byte	0
 13324 004c 00       		.byte	0
 13325 004d 08       		.uleb128 0x8
 13326 004e 15       		.uleb128 0x15
 13327 004f 01       		.byte	0x1
 13328 0050 27       		.uleb128 0x27
 13329 0051 19       		.uleb128 0x19
 13330 0052 01       		.uleb128 0x1
 13331 0053 13       		.uleb128 0x13
 13332 0054 00       		.byte	0
 13333 0055 00       		.byte	0
 13334 0056 09       		.uleb128 0x9
 13335 0057 05       		.uleb128 0x5
 13336 0058 00       		.byte	0
 13337 0059 49       		.uleb128 0x49
 13338 005a 13       		.uleb128 0x13
 13339 005b 00       		.byte	0
 13340 005c 00       		.byte	0
 13341 005d 0A       		.uleb128 0xa
 13342 005e 13       		.uleb128 0x13
 13343 005f 01       		.byte	0x1
 13344 0060 03       		.uleb128 0x3
 13345 0061 08       		.uleb128 0x8
 13346 0062 0B       		.uleb128 0xb
 13347 0063 05       		.uleb128 0x5
 13348 0064 3A       		.uleb128 0x3a
 13349 0065 0B       		.uleb128 0xb
 13350 0066 3B       		.uleb128 0x3b
 13351 0067 0B       		.uleb128 0xb
 13352 0068 01       		.uleb128 0x1
 13353 0069 13       		.uleb128 0x13
 13354 006a 00       		.byte	0
 13355 006b 00       		.byte	0
 13356 006c 0B       		.uleb128 0xb
 13357 006d 0D       		.uleb128 0xd
 13358 006e 00       		.byte	0
 13359 006f 03       		.uleb128 0x3
 13360 0070 0E       		.uleb128 0xe
 13361 0071 3A       		.uleb128 0x3a
 13362 0072 0B       		.uleb128 0xb
 13363 0073 3B       		.uleb128 0x3b
 13364 0074 0B       		.uleb128 0xb
 13365 0075 49       		.uleb128 0x49
 13366 0076 13       		.uleb128 0x13
 13367 0077 38       		.uleb128 0x38
 13368 0078 0B       		.uleb128 0xb
 13369 0079 00       		.byte	0
 13370 007a 00       		.byte	0
 13371 007b 0C       		.uleb128 0xc
 13372 007c 0D       		.uleb128 0xd
 13373 007d 00       		.byte	0
 13374 007e 03       		.uleb128 0x3
 13375 007f 08       		.uleb128 0x8
 13376 0080 3A       		.uleb128 0x3a
ARM GAS  C:\Users\164\AppData\Local\Temp\ccd4XrSZ.s 			page 283


 13377 0081 0B       		.uleb128 0xb
 13378 0082 3B       		.uleb128 0x3b
 13379 0083 0B       		.uleb128 0xb
 13380 0084 49       		.uleb128 0x49
 13381 0085 13       		.uleb128 0x13
 13382 0086 38       		.uleb128 0x38
 13383 0087 0B       		.uleb128 0xb
 13384 0088 00       		.byte	0
 13385 0089 00       		.byte	0
 13386 008a 0D       		.uleb128 0xd
 13387 008b 0D       		.uleb128 0xd
 13388 008c 00       		.byte	0
 13389 008d 03       		.uleb128 0x3
 13390 008e 0E       		.uleb128 0xe
 13391 008f 3A       		.uleb128 0x3a
 13392 0090 0B       		.uleb128 0xb
 13393 0091 3B       		.uleb128 0x3b
 13394 0092 0B       		.uleb128 0xb
 13395 0093 49       		.uleb128 0x49
 13396 0094 13       		.uleb128 0x13
 13397 0095 38       		.uleb128 0x38
 13398 0096 05       		.uleb128 0x5
 13399 0097 00       		.byte	0
 13400 0098 00       		.byte	0
 13401 0099 0E       		.uleb128 0xe
 13402 009a 13       		.uleb128 0x13
 13403 009b 01       		.byte	0x1
 13404 009c 03       		.uleb128 0x3
 13405 009d 0E       		.uleb128 0xe
 13406 009e 0B       		.uleb128 0xb
 13407 009f 0B       		.uleb128 0xb
 13408 00a0 3A       		.uleb128 0x3a
 13409 00a1 0B       		.uleb128 0xb
 13410 00a2 3B       		.uleb128 0x3b
 13411 00a3 0B       		.uleb128 0xb
 13412 00a4 01       		.uleb128 0x1
 13413 00a5 13       		.uleb128 0x13
 13414 00a6 00       		.byte	0
 13415 00a7 00       		.byte	0
 13416 00a8 0F       		.uleb128 0xf
 13417 00a9 0D       		.uleb128 0xd
 13418 00aa 00       		.byte	0
 13419 00ab 03       		.uleb128 0x3
 13420 00ac 08       		.uleb128 0x8
 13421 00ad 3A       		.uleb128 0x3a
 13422 00ae 0B       		.uleb128 0xb
 13423 00af 3B       		.uleb128 0x3b
 13424 00b0 0B       		.uleb128 0xb
 13425 00b1 49       		.uleb128 0x49
 13426 00b2 13       		.uleb128 0x13
 13427 00b3 0B       		.uleb128 0xb
 13428 00b4 0B       		.uleb128 0xb
 13429 00b5 0D       		.uleb128 0xd
 13430 00b6 0B       		.uleb128 0xb
 13431 00b7 0C       		.uleb128 0xc
 13432 00b8 0B       		.uleb128 0xb
 13433 00b9 38       		.uleb128 0x38
ARM GAS  C:\Users\164\AppData\Local\Temp\ccd4XrSZ.s 			page 284


 13434 00ba 0B       		.uleb128 0xb
 13435 00bb 00       		.byte	0
 13436 00bc 00       		.byte	0
 13437 00bd 10       		.uleb128 0x10
 13438 00be 0D       		.uleb128 0xd
 13439 00bf 00       		.byte	0
 13440 00c0 49       		.uleb128 0x49
 13441 00c1 13       		.uleb128 0x13
 13442 00c2 38       		.uleb128 0x38
 13443 00c3 0B       		.uleb128 0xb
 13444 00c4 00       		.byte	0
 13445 00c5 00       		.byte	0
 13446 00c6 11       		.uleb128 0x11
 13447 00c7 04       		.uleb128 0x4
 13448 00c8 01       		.byte	0x1
 13449 00c9 0B       		.uleb128 0xb
 13450 00ca 0B       		.uleb128 0xb
 13451 00cb 49       		.uleb128 0x49
 13452 00cc 13       		.uleb128 0x13
 13453 00cd 3A       		.uleb128 0x3a
 13454 00ce 0B       		.uleb128 0xb
 13455 00cf 3B       		.uleb128 0x3b
 13456 00d0 0B       		.uleb128 0xb
 13457 00d1 01       		.uleb128 0x1
 13458 00d2 13       		.uleb128 0x13
 13459 00d3 00       		.byte	0
 13460 00d4 00       		.byte	0
 13461 00d5 12       		.uleb128 0x12
 13462 00d6 28       		.uleb128 0x28
 13463 00d7 00       		.byte	0
 13464 00d8 03       		.uleb128 0x3
 13465 00d9 0E       		.uleb128 0xe
 13466 00da 1C       		.uleb128 0x1c
 13467 00db 0D       		.uleb128 0xd
 13468 00dc 00       		.byte	0
 13469 00dd 00       		.byte	0
 13470 00de 13       		.uleb128 0x13
 13471 00df 28       		.uleb128 0x28
 13472 00e0 00       		.byte	0
 13473 00e1 03       		.uleb128 0x3
 13474 00e2 0E       		.uleb128 0xe
 13475 00e3 1C       		.uleb128 0x1c
 13476 00e4 0B       		.uleb128 0xb
 13477 00e5 00       		.byte	0
 13478 00e6 00       		.byte	0
 13479 00e7 14       		.uleb128 0x14
 13480 00e8 17       		.uleb128 0x17
 13481 00e9 01       		.byte	0x1
 13482 00ea 0B       		.uleb128 0xb
 13483 00eb 0B       		.uleb128 0xb
 13484 00ec 3A       		.uleb128 0x3a
 13485 00ed 0B       		.uleb128 0xb
 13486 00ee 3B       		.uleb128 0x3b
 13487 00ef 0B       		.uleb128 0xb
 13488 00f0 01       		.uleb128 0x1
 13489 00f1 13       		.uleb128 0x13
 13490 00f2 00       		.byte	0
ARM GAS  C:\Users\164\AppData\Local\Temp\ccd4XrSZ.s 			page 285


 13491 00f3 00       		.byte	0
 13492 00f4 15       		.uleb128 0x15
 13493 00f5 0D       		.uleb128 0xd
 13494 00f6 00       		.byte	0
 13495 00f7 03       		.uleb128 0x3
 13496 00f8 08       		.uleb128 0x8
 13497 00f9 3A       		.uleb128 0x3a
 13498 00fa 0B       		.uleb128 0xb
 13499 00fb 3B       		.uleb128 0x3b
 13500 00fc 0B       		.uleb128 0xb
 13501 00fd 49       		.uleb128 0x49
 13502 00fe 13       		.uleb128 0x13
 13503 00ff 00       		.byte	0
 13504 0100 00       		.byte	0
 13505 0101 16       		.uleb128 0x16
 13506 0102 0D       		.uleb128 0xd
 13507 0103 00       		.byte	0
 13508 0104 03       		.uleb128 0x3
 13509 0105 0E       		.uleb128 0xe
 13510 0106 3A       		.uleb128 0x3a
 13511 0107 0B       		.uleb128 0xb
 13512 0108 3B       		.uleb128 0x3b
 13513 0109 0B       		.uleb128 0xb
 13514 010a 49       		.uleb128 0x49
 13515 010b 13       		.uleb128 0x13
 13516 010c 00       		.byte	0
 13517 010d 00       		.byte	0
 13518 010e 17       		.uleb128 0x17
 13519 010f 0D       		.uleb128 0xd
 13520 0110 00       		.byte	0
 13521 0111 03       		.uleb128 0x3
 13522 0112 0E       		.uleb128 0xe
 13523 0113 3A       		.uleb128 0x3a
 13524 0114 0B       		.uleb128 0xb
 13525 0115 3B       		.uleb128 0x3b
 13526 0116 0B       		.uleb128 0xb
 13527 0117 49       		.uleb128 0x49
 13528 0118 13       		.uleb128 0x13
 13529 0119 0B       		.uleb128 0xb
 13530 011a 0B       		.uleb128 0xb
 13531 011b 0D       		.uleb128 0xd
 13532 011c 0B       		.uleb128 0xb
 13533 011d 0C       		.uleb128 0xc
 13534 011e 0B       		.uleb128 0xb
 13535 011f 38       		.uleb128 0x38
 13536 0120 0B       		.uleb128 0xb
 13537 0121 00       		.byte	0
 13538 0122 00       		.byte	0
 13539 0123 18       		.uleb128 0x18
 13540 0124 13       		.uleb128 0x13
 13541 0125 00       		.byte	0
 13542 0126 03       		.uleb128 0x3
 13543 0127 0E       		.uleb128 0xe
 13544 0128 3C       		.uleb128 0x3c
 13545 0129 19       		.uleb128 0x19
 13546 012a 00       		.byte	0
 13547 012b 00       		.byte	0
ARM GAS  C:\Users\164\AppData\Local\Temp\ccd4XrSZ.s 			page 286


 13548 012c 19       		.uleb128 0x19
 13549 012d 01       		.uleb128 0x1
 13550 012e 01       		.byte	0x1
 13551 012f 49       		.uleb128 0x49
 13552 0130 13       		.uleb128 0x13
 13553 0131 01       		.uleb128 0x1
 13554 0132 13       		.uleb128 0x13
 13555 0133 00       		.byte	0
 13556 0134 00       		.byte	0
 13557 0135 1A       		.uleb128 0x1a
 13558 0136 21       		.uleb128 0x21
 13559 0137 00       		.byte	0
 13560 0138 49       		.uleb128 0x49
 13561 0139 13       		.uleb128 0x13
 13562 013a 00       		.byte	0
 13563 013b 00       		.byte	0
 13564 013c 1B       		.uleb128 0x1b
 13565 013d 21       		.uleb128 0x21
 13566 013e 00       		.byte	0
 13567 013f 49       		.uleb128 0x49
 13568 0140 13       		.uleb128 0x13
 13569 0141 2F       		.uleb128 0x2f
 13570 0142 0B       		.uleb128 0xb
 13571 0143 00       		.byte	0
 13572 0144 00       		.byte	0
 13573 0145 1C       		.uleb128 0x1c
 13574 0146 35       		.uleb128 0x35
 13575 0147 00       		.byte	0
 13576 0148 49       		.uleb128 0x49
 13577 0149 13       		.uleb128 0x13
 13578 014a 00       		.byte	0
 13579 014b 00       		.byte	0
 13580 014c 1D       		.uleb128 0x1d
 13581 014d 04       		.uleb128 0x4
 13582 014e 01       		.byte	0x1
 13583 014f 03       		.uleb128 0x3
 13584 0150 0E       		.uleb128 0xe
 13585 0151 0B       		.uleb128 0xb
 13586 0152 0B       		.uleb128 0xb
 13587 0153 49       		.uleb128 0x49
 13588 0154 13       		.uleb128 0x13
 13589 0155 3A       		.uleb128 0x3a
 13590 0156 0B       		.uleb128 0xb
 13591 0157 3B       		.uleb128 0x3b
 13592 0158 0B       		.uleb128 0xb
 13593 0159 01       		.uleb128 0x1
 13594 015a 13       		.uleb128 0x13
 13595 015b 00       		.byte	0
 13596 015c 00       		.byte	0
 13597 015d 1E       		.uleb128 0x1e
 13598 015e 26       		.uleb128 0x26
 13599 015f 00       		.byte	0
 13600 0160 00       		.byte	0
 13601 0161 00       		.byte	0
 13602 0162 1F       		.uleb128 0x1f
 13603 0163 2E       		.uleb128 0x2e
 13604 0164 01       		.byte	0x1
ARM GAS  C:\Users\164\AppData\Local\Temp\ccd4XrSZ.s 			page 287


 13605 0165 03       		.uleb128 0x3
 13606 0166 0E       		.uleb128 0xe
 13607 0167 3A       		.uleb128 0x3a
 13608 0168 0B       		.uleb128 0xb
 13609 0169 3B       		.uleb128 0x3b
 13610 016a 0B       		.uleb128 0xb
 13611 016b 27       		.uleb128 0x27
 13612 016c 19       		.uleb128 0x19
 13613 016d 49       		.uleb128 0x49
 13614 016e 13       		.uleb128 0x13
 13615 016f 20       		.uleb128 0x20
 13616 0170 0B       		.uleb128 0xb
 13617 0171 01       		.uleb128 0x1
 13618 0172 13       		.uleb128 0x13
 13619 0173 00       		.byte	0
 13620 0174 00       		.byte	0
 13621 0175 20       		.uleb128 0x20
 13622 0176 05       		.uleb128 0x5
 13623 0177 00       		.byte	0
 13624 0178 03       		.uleb128 0x3
 13625 0179 08       		.uleb128 0x8
 13626 017a 3A       		.uleb128 0x3a
 13627 017b 0B       		.uleb128 0xb
 13628 017c 3B       		.uleb128 0x3b
 13629 017d 0B       		.uleb128 0xb
 13630 017e 49       		.uleb128 0x49
 13631 017f 13       		.uleb128 0x13
 13632 0180 00       		.byte	0
 13633 0181 00       		.byte	0
 13634 0182 21       		.uleb128 0x21
 13635 0183 34       		.uleb128 0x34
 13636 0184 00       		.byte	0
 13637 0185 03       		.uleb128 0x3
 13638 0186 08       		.uleb128 0x8
 13639 0187 3A       		.uleb128 0x3a
 13640 0188 0B       		.uleb128 0xb
 13641 0189 3B       		.uleb128 0x3b
 13642 018a 0B       		.uleb128 0xb
 13643 018b 49       		.uleb128 0x49
 13644 018c 13       		.uleb128 0x13
 13645 018d 00       		.byte	0
 13646 018e 00       		.byte	0
 13647 018f 22       		.uleb128 0x22
 13648 0190 05       		.uleb128 0x5
 13649 0191 00       		.byte	0
 13650 0192 03       		.uleb128 0x3
 13651 0193 0E       		.uleb128 0xe
 13652 0194 3A       		.uleb128 0x3a
 13653 0195 0B       		.uleb128 0xb
 13654 0196 3B       		.uleb128 0x3b
 13655 0197 0B       		.uleb128 0xb
 13656 0198 49       		.uleb128 0x49
 13657 0199 13       		.uleb128 0x13
 13658 019a 00       		.byte	0
 13659 019b 00       		.byte	0
 13660 019c 23       		.uleb128 0x23
 13661 019d 2E       		.uleb128 0x2e
ARM GAS  C:\Users\164\AppData\Local\Temp\ccd4XrSZ.s 			page 288


 13662 019e 01       		.byte	0x1
 13663 019f 03       		.uleb128 0x3
 13664 01a0 0E       		.uleb128 0xe
 13665 01a1 3A       		.uleb128 0x3a
 13666 01a2 0B       		.uleb128 0xb
 13667 01a3 3B       		.uleb128 0x3b
 13668 01a4 05       		.uleb128 0x5
 13669 01a5 27       		.uleb128 0x27
 13670 01a6 19       		.uleb128 0x19
 13671 01a7 49       		.uleb128 0x49
 13672 01a8 13       		.uleb128 0x13
 13673 01a9 20       		.uleb128 0x20
 13674 01aa 0B       		.uleb128 0xb
 13675 01ab 01       		.uleb128 0x1
 13676 01ac 13       		.uleb128 0x13
 13677 01ad 00       		.byte	0
 13678 01ae 00       		.byte	0
 13679 01af 24       		.uleb128 0x24
 13680 01b0 05       		.uleb128 0x5
 13681 01b1 00       		.byte	0
 13682 01b2 03       		.uleb128 0x3
 13683 01b3 08       		.uleb128 0x8
 13684 01b4 3A       		.uleb128 0x3a
 13685 01b5 0B       		.uleb128 0xb
 13686 01b6 3B       		.uleb128 0x3b
 13687 01b7 05       		.uleb128 0x5
 13688 01b8 49       		.uleb128 0x49
 13689 01b9 13       		.uleb128 0x13
 13690 01ba 00       		.byte	0
 13691 01bb 00       		.byte	0
 13692 01bc 25       		.uleb128 0x25
 13693 01bd 05       		.uleb128 0x5
 13694 01be 00       		.byte	0
 13695 01bf 03       		.uleb128 0x3
 13696 01c0 0E       		.uleb128 0xe
 13697 01c1 3A       		.uleb128 0x3a
 13698 01c2 0B       		.uleb128 0xb
 13699 01c3 3B       		.uleb128 0x3b
 13700 01c4 05       		.uleb128 0x5
 13701 01c5 49       		.uleb128 0x49
 13702 01c6 13       		.uleb128 0x13
 13703 01c7 00       		.byte	0
 13704 01c8 00       		.byte	0
 13705 01c9 26       		.uleb128 0x26
 13706 01ca 34       		.uleb128 0x34
 13707 01cb 00       		.byte	0
 13708 01cc 03       		.uleb128 0x3
 13709 01cd 08       		.uleb128 0x8
 13710 01ce 3A       		.uleb128 0x3a
 13711 01cf 0B       		.uleb128 0xb
 13712 01d0 3B       		.uleb128 0x3b
 13713 01d1 05       		.uleb128 0x5
 13714 01d2 49       		.uleb128 0x49
 13715 01d3 13       		.uleb128 0x13
 13716 01d4 00       		.byte	0
 13717 01d5 00       		.byte	0
 13718 01d6 27       		.uleb128 0x27
ARM GAS  C:\Users\164\AppData\Local\Temp\ccd4XrSZ.s 			page 289


 13719 01d7 34       		.uleb128 0x34
 13720 01d8 00       		.byte	0
 13721 01d9 03       		.uleb128 0x3
 13722 01da 0E       		.uleb128 0xe
 13723 01db 3A       		.uleb128 0x3a
 13724 01dc 0B       		.uleb128 0xb
 13725 01dd 3B       		.uleb128 0x3b
 13726 01de 05       		.uleb128 0x5
 13727 01df 49       		.uleb128 0x49
 13728 01e0 13       		.uleb128 0x13
 13729 01e1 00       		.byte	0
 13730 01e2 00       		.byte	0
 13731 01e3 28       		.uleb128 0x28
 13732 01e4 0B       		.uleb128 0xb
 13733 01e5 01       		.byte	0x1
 13734 01e6 00       		.byte	0
 13735 01e7 00       		.byte	0
 13736 01e8 29       		.uleb128 0x29
 13737 01e9 2E       		.uleb128 0x2e
 13738 01ea 01       		.byte	0x1
 13739 01eb 03       		.uleb128 0x3
 13740 01ec 0E       		.uleb128 0xe
 13741 01ed 3A       		.uleb128 0x3a
 13742 01ee 0B       		.uleb128 0xb
 13743 01ef 3B       		.uleb128 0x3b
 13744 01f0 0B       		.uleb128 0xb
 13745 01f1 27       		.uleb128 0x27
 13746 01f2 19       		.uleb128 0x19
 13747 01f3 11       		.uleb128 0x11
 13748 01f4 01       		.uleb128 0x1
 13749 01f5 12       		.uleb128 0x12
 13750 01f6 06       		.uleb128 0x6
 13751 01f7 40       		.uleb128 0x40
 13752 01f8 18       		.uleb128 0x18
 13753 01f9 9742     		.uleb128 0x2117
 13754 01fb 19       		.uleb128 0x19
 13755 01fc 01       		.uleb128 0x1
 13756 01fd 13       		.uleb128 0x13
 13757 01fe 00       		.byte	0
 13758 01ff 00       		.byte	0
 13759 0200 2A       		.uleb128 0x2a
 13760 0201 898201   		.uleb128 0x4109
 13761 0204 01       		.byte	0x1
 13762 0205 11       		.uleb128 0x11
 13763 0206 01       		.uleb128 0x1
 13764 0207 31       		.uleb128 0x31
 13765 0208 13       		.uleb128 0x13
 13766 0209 00       		.byte	0
 13767 020a 00       		.byte	0
 13768 020b 2B       		.uleb128 0x2b
 13769 020c 8A8201   		.uleb128 0x410a
 13770 020f 00       		.byte	0
 13771 0210 02       		.uleb128 0x2
 13772 0211 18       		.uleb128 0x18
 13773 0212 9142     		.uleb128 0x2111
 13774 0214 18       		.uleb128 0x18
 13775 0215 00       		.byte	0
ARM GAS  C:\Users\164\AppData\Local\Temp\ccd4XrSZ.s 			page 290


 13776 0216 00       		.byte	0
 13777 0217 2C       		.uleb128 0x2c
 13778 0218 2E       		.uleb128 0x2e
 13779 0219 01       		.byte	0x1
 13780 021a 3F       		.uleb128 0x3f
 13781 021b 19       		.uleb128 0x19
 13782 021c 03       		.uleb128 0x3
 13783 021d 0E       		.uleb128 0xe
 13784 021e 3A       		.uleb128 0x3a
 13785 021f 0B       		.uleb128 0xb
 13786 0220 3B       		.uleb128 0x3b
 13787 0221 0B       		.uleb128 0xb
 13788 0222 27       		.uleb128 0x27
 13789 0223 19       		.uleb128 0x19
 13790 0224 49       		.uleb128 0x49
 13791 0225 13       		.uleb128 0x13
 13792 0226 11       		.uleb128 0x11
 13793 0227 01       		.uleb128 0x1
 13794 0228 12       		.uleb128 0x12
 13795 0229 06       		.uleb128 0x6
 13796 022a 40       		.uleb128 0x40
 13797 022b 18       		.uleb128 0x18
 13798 022c 9742     		.uleb128 0x2117
 13799 022e 19       		.uleb128 0x19
 13800 022f 01       		.uleb128 0x1
 13801 0230 13       		.uleb128 0x13
 13802 0231 00       		.byte	0
 13803 0232 00       		.byte	0
 13804 0233 2D       		.uleb128 0x2d
 13805 0234 05       		.uleb128 0x5
 13806 0235 00       		.byte	0
 13807 0236 03       		.uleb128 0x3
 13808 0237 08       		.uleb128 0x8
 13809 0238 3A       		.uleb128 0x3a
 13810 0239 0B       		.uleb128 0xb
 13811 023a 3B       		.uleb128 0x3b
 13812 023b 0B       		.uleb128 0xb
 13813 023c 49       		.uleb128 0x49
 13814 023d 13       		.uleb128 0x13
 13815 023e 02       		.uleb128 0x2
 13816 023f 17       		.uleb128 0x17
 13817 0240 00       		.byte	0
 13818 0241 00       		.byte	0
 13819 0242 2E       		.uleb128 0x2e
 13820 0243 34       		.uleb128 0x34
 13821 0244 00       		.byte	0
 13822 0245 03       		.uleb128 0x3
 13823 0246 08       		.uleb128 0x8
 13824 0247 3A       		.uleb128 0x3a
 13825 0248 0B       		.uleb128 0xb
 13826 0249 3B       		.uleb128 0x3b
 13827 024a 0B       		.uleb128 0xb
 13828 024b 49       		.uleb128 0x49
 13829 024c 13       		.uleb128 0x13
 13830 024d 02       		.uleb128 0x2
 13831 024e 17       		.uleb128 0x17
 13832 024f 00       		.byte	0
ARM GAS  C:\Users\164\AppData\Local\Temp\ccd4XrSZ.s 			page 291


 13833 0250 00       		.byte	0
 13834 0251 2F       		.uleb128 0x2f
 13835 0252 1D       		.uleb128 0x1d
 13836 0253 01       		.byte	0x1
 13837 0254 31       		.uleb128 0x31
 13838 0255 13       		.uleb128 0x13
 13839 0256 11       		.uleb128 0x11
 13840 0257 01       		.uleb128 0x1
 13841 0258 12       		.uleb128 0x12
 13842 0259 06       		.uleb128 0x6
 13843 025a 58       		.uleb128 0x58
 13844 025b 0B       		.uleb128 0xb
 13845 025c 59       		.uleb128 0x59
 13846 025d 0B       		.uleb128 0xb
 13847 025e 01       		.uleb128 0x1
 13848 025f 13       		.uleb128 0x13
 13849 0260 00       		.byte	0
 13850 0261 00       		.byte	0
 13851 0262 30       		.uleb128 0x30
 13852 0263 05       		.uleb128 0x5
 13853 0264 00       		.byte	0
 13854 0265 31       		.uleb128 0x31
 13855 0266 13       		.uleb128 0x13
 13856 0267 02       		.uleb128 0x2
 13857 0268 17       		.uleb128 0x17
 13858 0269 00       		.byte	0
 13859 026a 00       		.byte	0
 13860 026b 31       		.uleb128 0x31
 13861 026c 0B       		.uleb128 0xb
 13862 026d 01       		.byte	0x1
 13863 026e 11       		.uleb128 0x11
 13864 026f 01       		.uleb128 0x1
 13865 0270 12       		.uleb128 0x12
 13866 0271 06       		.uleb128 0x6
 13867 0272 00       		.byte	0
 13868 0273 00       		.byte	0
 13869 0274 32       		.uleb128 0x32
 13870 0275 34       		.uleb128 0x34
 13871 0276 00       		.byte	0
 13872 0277 31       		.uleb128 0x31
 13873 0278 13       		.uleb128 0x13
 13874 0279 02       		.uleb128 0x2
 13875 027a 17       		.uleb128 0x17
 13876 027b 00       		.byte	0
 13877 027c 00       		.byte	0
 13878 027d 33       		.uleb128 0x33
 13879 027e 1D       		.uleb128 0x1d
 13880 027f 01       		.byte	0x1
 13881 0280 31       		.uleb128 0x31
 13882 0281 13       		.uleb128 0x13
 13883 0282 11       		.uleb128 0x11
 13884 0283 01       		.uleb128 0x1
 13885 0284 12       		.uleb128 0x12
 13886 0285 06       		.uleb128 0x6
 13887 0286 58       		.uleb128 0x58
 13888 0287 0B       		.uleb128 0xb
 13889 0288 59       		.uleb128 0x59
ARM GAS  C:\Users\164\AppData\Local\Temp\ccd4XrSZ.s 			page 292


 13890 0289 0B       		.uleb128 0xb
 13891 028a 00       		.byte	0
 13892 028b 00       		.byte	0
 13893 028c 34       		.uleb128 0x34
 13894 028d 34       		.uleb128 0x34
 13895 028e 00       		.byte	0
 13896 028f 03       		.uleb128 0x3
 13897 0290 0E       		.uleb128 0xe
 13898 0291 3A       		.uleb128 0x3a
 13899 0292 0B       		.uleb128 0xb
 13900 0293 3B       		.uleb128 0x3b
 13901 0294 0B       		.uleb128 0xb
 13902 0295 49       		.uleb128 0x49
 13903 0296 13       		.uleb128 0x13
 13904 0297 00       		.byte	0
 13905 0298 00       		.byte	0
 13906 0299 35       		.uleb128 0x35
 13907 029a 898201   		.uleb128 0x4109
 13908 029d 00       		.byte	0
 13909 029e 11       		.uleb128 0x11
 13910 029f 01       		.uleb128 0x1
 13911 02a0 31       		.uleb128 0x31
 13912 02a1 13       		.uleb128 0x13
 13913 02a2 00       		.byte	0
 13914 02a3 00       		.byte	0
 13915 02a4 36       		.uleb128 0x36
 13916 02a5 2E       		.uleb128 0x2e
 13917 02a6 01       		.byte	0x1
 13918 02a7 3F       		.uleb128 0x3f
 13919 02a8 19       		.uleb128 0x19
 13920 02a9 03       		.uleb128 0x3
 13921 02aa 0E       		.uleb128 0xe
 13922 02ab 3A       		.uleb128 0x3a
 13923 02ac 0B       		.uleb128 0xb
 13924 02ad 3B       		.uleb128 0x3b
 13925 02ae 0B       		.uleb128 0xb
 13926 02af 27       		.uleb128 0x27
 13927 02b0 19       		.uleb128 0x19
 13928 02b1 11       		.uleb128 0x11
 13929 02b2 01       		.uleb128 0x1
 13930 02b3 12       		.uleb128 0x12
 13931 02b4 06       		.uleb128 0x6
 13932 02b5 40       		.uleb128 0x40
 13933 02b6 18       		.uleb128 0x18
 13934 02b7 9742     		.uleb128 0x2117
 13935 02b9 19       		.uleb128 0x19
 13936 02ba 01       		.uleb128 0x1
 13937 02bb 13       		.uleb128 0x13
 13938 02bc 00       		.byte	0
 13939 02bd 00       		.byte	0
 13940 02be 37       		.uleb128 0x37
 13941 02bf 05       		.uleb128 0x5
 13942 02c0 00       		.byte	0
 13943 02c1 03       		.uleb128 0x3
 13944 02c2 0E       		.uleb128 0xe
 13945 02c3 3A       		.uleb128 0x3a
 13946 02c4 0B       		.uleb128 0xb
ARM GAS  C:\Users\164\AppData\Local\Temp\ccd4XrSZ.s 			page 293


 13947 02c5 3B       		.uleb128 0x3b
 13948 02c6 0B       		.uleb128 0xb
 13949 02c7 49       		.uleb128 0x49
 13950 02c8 13       		.uleb128 0x13
 13951 02c9 02       		.uleb128 0x2
 13952 02ca 17       		.uleb128 0x17
 13953 02cb 00       		.byte	0
 13954 02cc 00       		.byte	0
 13955 02cd 38       		.uleb128 0x38
 13956 02ce 34       		.uleb128 0x34
 13957 02cf 00       		.byte	0
 13958 02d0 03       		.uleb128 0x3
 13959 02d1 0E       		.uleb128 0xe
 13960 02d2 3A       		.uleb128 0x3a
 13961 02d3 0B       		.uleb128 0xb
 13962 02d4 3B       		.uleb128 0x3b
 13963 02d5 0B       		.uleb128 0xb
 13964 02d6 49       		.uleb128 0x49
 13965 02d7 13       		.uleb128 0x13
 13966 02d8 02       		.uleb128 0x2
 13967 02d9 18       		.uleb128 0x18
 13968 02da 00       		.byte	0
 13969 02db 00       		.byte	0
 13970 02dc 39       		.uleb128 0x39
 13971 02dd 34       		.uleb128 0x34
 13972 02de 00       		.byte	0
 13973 02df 03       		.uleb128 0x3
 13974 02e0 0E       		.uleb128 0xe
 13975 02e1 3A       		.uleb128 0x3a
 13976 02e2 0B       		.uleb128 0xb
 13977 02e3 3B       		.uleb128 0x3b
 13978 02e4 0B       		.uleb128 0xb
 13979 02e5 49       		.uleb128 0x49
 13980 02e6 13       		.uleb128 0x13
 13981 02e7 02       		.uleb128 0x2
 13982 02e8 17       		.uleb128 0x17
 13983 02e9 00       		.byte	0
 13984 02ea 00       		.byte	0
 13985 02eb 3A       		.uleb128 0x3a
 13986 02ec 2E       		.uleb128 0x2e
 13987 02ed 01       		.byte	0x1
 13988 02ee 3F       		.uleb128 0x3f
 13989 02ef 19       		.uleb128 0x19
 13990 02f0 03       		.uleb128 0x3
 13991 02f1 0E       		.uleb128 0xe
 13992 02f2 3A       		.uleb128 0x3a
 13993 02f3 0B       		.uleb128 0xb
 13994 02f4 3B       		.uleb128 0x3b
 13995 02f5 05       		.uleb128 0x5
 13996 02f6 27       		.uleb128 0x27
 13997 02f7 19       		.uleb128 0x19
 13998 02f8 49       		.uleb128 0x49
 13999 02f9 13       		.uleb128 0x13
 14000 02fa 11       		.uleb128 0x11
 14001 02fb 01       		.uleb128 0x1
 14002 02fc 12       		.uleb128 0x12
 14003 02fd 06       		.uleb128 0x6
ARM GAS  C:\Users\164\AppData\Local\Temp\ccd4XrSZ.s 			page 294


 14004 02fe 40       		.uleb128 0x40
 14005 02ff 18       		.uleb128 0x18
 14006 0300 9742     		.uleb128 0x2117
 14007 0302 19       		.uleb128 0x19
 14008 0303 01       		.uleb128 0x1
 14009 0304 13       		.uleb128 0x13
 14010 0305 00       		.byte	0
 14011 0306 00       		.byte	0
 14012 0307 3B       		.uleb128 0x3b
 14013 0308 05       		.uleb128 0x5
 14014 0309 00       		.byte	0
 14015 030a 03       		.uleb128 0x3
 14016 030b 0E       		.uleb128 0xe
 14017 030c 3A       		.uleb128 0x3a
 14018 030d 0B       		.uleb128 0xb
 14019 030e 3B       		.uleb128 0x3b
 14020 030f 05       		.uleb128 0x5
 14021 0310 49       		.uleb128 0x49
 14022 0311 13       		.uleb128 0x13
 14023 0312 02       		.uleb128 0x2
 14024 0313 17       		.uleb128 0x17
 14025 0314 00       		.byte	0
 14026 0315 00       		.byte	0
 14027 0316 3C       		.uleb128 0x3c
 14028 0317 34       		.uleb128 0x34
 14029 0318 00       		.byte	0
 14030 0319 03       		.uleb128 0x3
 14031 031a 08       		.uleb128 0x8
 14032 031b 3A       		.uleb128 0x3a
 14033 031c 0B       		.uleb128 0xb
 14034 031d 3B       		.uleb128 0x3b
 14035 031e 05       		.uleb128 0x5
 14036 031f 49       		.uleb128 0x49
 14037 0320 13       		.uleb128 0x13
 14038 0321 02       		.uleb128 0x2
 14039 0322 17       		.uleb128 0x17
 14040 0323 00       		.byte	0
 14041 0324 00       		.byte	0
 14042 0325 3D       		.uleb128 0x3d
 14043 0326 34       		.uleb128 0x34
 14044 0327 00       		.byte	0
 14045 0328 03       		.uleb128 0x3
 14046 0329 0E       		.uleb128 0xe
 14047 032a 3A       		.uleb128 0x3a
 14048 032b 0B       		.uleb128 0xb
 14049 032c 3B       		.uleb128 0x3b
 14050 032d 05       		.uleb128 0x5
 14051 032e 49       		.uleb128 0x49
 14052 032f 13       		.uleb128 0x13
 14053 0330 02       		.uleb128 0x2
 14054 0331 17       		.uleb128 0x17
 14055 0332 00       		.byte	0
 14056 0333 00       		.byte	0
 14057 0334 3E       		.uleb128 0x3e
 14058 0335 0B       		.uleb128 0xb
 14059 0336 01       		.byte	0x1
 14060 0337 11       		.uleb128 0x11
ARM GAS  C:\Users\164\AppData\Local\Temp\ccd4XrSZ.s 			page 295


 14061 0338 01       		.uleb128 0x1
 14062 0339 12       		.uleb128 0x12
 14063 033a 06       		.uleb128 0x6
 14064 033b 01       		.uleb128 0x1
 14065 033c 13       		.uleb128 0x13
 14066 033d 00       		.byte	0
 14067 033e 00       		.byte	0
 14068 033f 3F       		.uleb128 0x3f
 14069 0340 1D       		.uleb128 0x1d
 14070 0341 01       		.byte	0x1
 14071 0342 31       		.uleb128 0x31
 14072 0343 13       		.uleb128 0x13
 14073 0344 11       		.uleb128 0x11
 14074 0345 01       		.uleb128 0x1
 14075 0346 12       		.uleb128 0x12
 14076 0347 06       		.uleb128 0x6
 14077 0348 58       		.uleb128 0x58
 14078 0349 0B       		.uleb128 0xb
 14079 034a 59       		.uleb128 0x59
 14080 034b 05       		.uleb128 0x5
 14081 034c 00       		.byte	0
 14082 034d 00       		.byte	0
 14083 034e 40       		.uleb128 0x40
 14084 034f 898201   		.uleb128 0x4109
 14085 0352 01       		.byte	0x1
 14086 0353 11       		.uleb128 0x11
 14087 0354 01       		.uleb128 0x1
 14088 0355 31       		.uleb128 0x31
 14089 0356 13       		.uleb128 0x13
 14090 0357 01       		.uleb128 0x1
 14091 0358 13       		.uleb128 0x13
 14092 0359 00       		.byte	0
 14093 035a 00       		.byte	0
 14094 035b 41       		.uleb128 0x41
 14095 035c 2E       		.uleb128 0x2e
 14096 035d 01       		.byte	0x1
 14097 035e 3F       		.uleb128 0x3f
 14098 035f 19       		.uleb128 0x19
 14099 0360 03       		.uleb128 0x3
 14100 0361 0E       		.uleb128 0xe
 14101 0362 3A       		.uleb128 0x3a
 14102 0363 0B       		.uleb128 0xb
 14103 0364 3B       		.uleb128 0x3b
 14104 0365 05       		.uleb128 0x5
 14105 0366 27       		.uleb128 0x27
 14106 0367 19       		.uleb128 0x19
 14107 0368 11       		.uleb128 0x11
 14108 0369 01       		.uleb128 0x1
 14109 036a 12       		.uleb128 0x12
 14110 036b 06       		.uleb128 0x6
 14111 036c 40       		.uleb128 0x40
 14112 036d 18       		.uleb128 0x18
 14113 036e 9742     		.uleb128 0x2117
 14114 0370 19       		.uleb128 0x19
 14115 0371 01       		.uleb128 0x1
 14116 0372 13       		.uleb128 0x13
 14117 0373 00       		.byte	0
ARM GAS  C:\Users\164\AppData\Local\Temp\ccd4XrSZ.s 			page 296


 14118 0374 00       		.byte	0
 14119 0375 42       		.uleb128 0x42
 14120 0376 05       		.uleb128 0x5
 14121 0377 00       		.byte	0
 14122 0378 03       		.uleb128 0x3
 14123 0379 08       		.uleb128 0x8
 14124 037a 3A       		.uleb128 0x3a
 14125 037b 0B       		.uleb128 0xb
 14126 037c 3B       		.uleb128 0x3b
 14127 037d 05       		.uleb128 0x5
 14128 037e 49       		.uleb128 0x49
 14129 037f 13       		.uleb128 0x13
 14130 0380 02       		.uleb128 0x2
 14131 0381 17       		.uleb128 0x17
 14132 0382 00       		.byte	0
 14133 0383 00       		.byte	0
 14134 0384 43       		.uleb128 0x43
 14135 0385 34       		.uleb128 0x34
 14136 0386 00       		.byte	0
 14137 0387 03       		.uleb128 0x3
 14138 0388 0E       		.uleb128 0xe
 14139 0389 49       		.uleb128 0x49
 14140 038a 13       		.uleb128 0x13
 14141 038b 34       		.uleb128 0x34
 14142 038c 19       		.uleb128 0x19
 14143 038d 02       		.uleb128 0x2
 14144 038e 18       		.uleb128 0x18
 14145 038f 00       		.byte	0
 14146 0390 00       		.byte	0
 14147 0391 44       		.uleb128 0x44
 14148 0392 0B       		.uleb128 0xb
 14149 0393 01       		.byte	0x1
 14150 0394 01       		.uleb128 0x1
 14151 0395 13       		.uleb128 0x13
 14152 0396 00       		.byte	0
 14153 0397 00       		.byte	0
 14154 0398 45       		.uleb128 0x45
 14155 0399 2E       		.uleb128 0x2e
 14156 039a 00       		.byte	0
 14157 039b 3F       		.uleb128 0x3f
 14158 039c 19       		.uleb128 0x19
 14159 039d 03       		.uleb128 0x3
 14160 039e 0E       		.uleb128 0xe
 14161 039f 3A       		.uleb128 0x3a
 14162 03a0 0B       		.uleb128 0xb
 14163 03a1 3B       		.uleb128 0x3b
 14164 03a2 05       		.uleb128 0x5
 14165 03a3 27       		.uleb128 0x27
 14166 03a4 19       		.uleb128 0x19
 14167 03a5 20       		.uleb128 0x20
 14168 03a6 0B       		.uleb128 0xb
 14169 03a7 00       		.byte	0
 14170 03a8 00       		.byte	0
 14171 03a9 46       		.uleb128 0x46
 14172 03aa 0A       		.uleb128 0xa
 14173 03ab 00       		.byte	0
 14174 03ac 03       		.uleb128 0x3
ARM GAS  C:\Users\164\AppData\Local\Temp\ccd4XrSZ.s 			page 297


 14175 03ad 0E       		.uleb128 0xe
 14176 03ae 3A       		.uleb128 0x3a
 14177 03af 0B       		.uleb128 0xb
 14178 03b0 3B       		.uleb128 0x3b
 14179 03b1 05       		.uleb128 0x5
 14180 03b2 00       		.byte	0
 14181 03b3 00       		.byte	0
 14182 03b4 47       		.uleb128 0x47
 14183 03b5 2E       		.uleb128 0x2e
 14184 03b6 01       		.byte	0x1
 14185 03b7 3F       		.uleb128 0x3f
 14186 03b8 19       		.uleb128 0x19
 14187 03b9 03       		.uleb128 0x3
 14188 03ba 0E       		.uleb128 0xe
 14189 03bb 3A       		.uleb128 0x3a
 14190 03bc 0B       		.uleb128 0xb
 14191 03bd 3B       		.uleb128 0x3b
 14192 03be 05       		.uleb128 0x5
 14193 03bf 27       		.uleb128 0x27
 14194 03c0 19       		.uleb128 0x19
 14195 03c1 49       		.uleb128 0x49
 14196 03c2 13       		.uleb128 0x13
 14197 03c3 11       		.uleb128 0x11
 14198 03c4 01       		.uleb128 0x1
 14199 03c5 12       		.uleb128 0x12
 14200 03c6 06       		.uleb128 0x6
 14201 03c7 40       		.uleb128 0x40
 14202 03c8 18       		.uleb128 0x18
 14203 03c9 9642     		.uleb128 0x2116
 14204 03cb 19       		.uleb128 0x19
 14205 03cc 01       		.uleb128 0x1
 14206 03cd 13       		.uleb128 0x13
 14207 03ce 00       		.byte	0
 14208 03cf 00       		.byte	0
 14209 03d0 48       		.uleb128 0x48
 14210 03d1 1D       		.uleb128 0x1d
 14211 03d2 01       		.byte	0x1
 14212 03d3 31       		.uleb128 0x31
 14213 03d4 13       		.uleb128 0x13
 14214 03d5 11       		.uleb128 0x11
 14215 03d6 01       		.uleb128 0x1
 14216 03d7 12       		.uleb128 0x12
 14217 03d8 06       		.uleb128 0x6
 14218 03d9 58       		.uleb128 0x58
 14219 03da 0B       		.uleb128 0xb
 14220 03db 59       		.uleb128 0x59
 14221 03dc 05       		.uleb128 0x5
 14222 03dd 01       		.uleb128 0x1
 14223 03de 13       		.uleb128 0x13
 14224 03df 00       		.byte	0
 14225 03e0 00       		.byte	0
 14226 03e1 49       		.uleb128 0x49
 14227 03e2 34       		.uleb128 0x34
 14228 03e3 00       		.byte	0
 14229 03e4 31       		.uleb128 0x31
 14230 03e5 13       		.uleb128 0x13
 14231 03e6 02       		.uleb128 0x2
ARM GAS  C:\Users\164\AppData\Local\Temp\ccd4XrSZ.s 			page 298


 14232 03e7 18       		.uleb128 0x18
 14233 03e8 00       		.byte	0
 14234 03e9 00       		.byte	0
 14235 03ea 4A       		.uleb128 0x4a
 14236 03eb 898201   		.uleb128 0x4109
 14237 03ee 01       		.byte	0x1
 14238 03ef 11       		.uleb128 0x11
 14239 03f0 01       		.uleb128 0x1
 14240 03f1 01       		.uleb128 0x1
 14241 03f2 13       		.uleb128 0x13
 14242 03f3 00       		.byte	0
 14243 03f4 00       		.byte	0
 14244 03f5 4B       		.uleb128 0x4b
 14245 03f6 0A       		.uleb128 0xa
 14246 03f7 00       		.byte	0
 14247 03f8 31       		.uleb128 0x31
 14248 03f9 13       		.uleb128 0x13
 14249 03fa 11       		.uleb128 0x11
 14250 03fb 01       		.uleb128 0x1
 14251 03fc 00       		.byte	0
 14252 03fd 00       		.byte	0
 14253 03fe 4C       		.uleb128 0x4c
 14254 03ff 0B       		.uleb128 0xb
 14255 0400 01       		.byte	0x1
 14256 0401 55       		.uleb128 0x55
 14257 0402 17       		.uleb128 0x17
 14258 0403 00       		.byte	0
 14259 0404 00       		.byte	0
 14260 0405 4D       		.uleb128 0x4d
 14261 0406 34       		.uleb128 0x34
 14262 0407 00       		.byte	0
 14263 0408 03       		.uleb128 0x3
 14264 0409 0E       		.uleb128 0xe
 14265 040a 3A       		.uleb128 0x3a
 14266 040b 0B       		.uleb128 0xb
 14267 040c 3B       		.uleb128 0x3b
 14268 040d 0B       		.uleb128 0xb
 14269 040e 49       		.uleb128 0x49
 14270 040f 13       		.uleb128 0x13
 14271 0410 3F       		.uleb128 0x3f
 14272 0411 19       		.uleb128 0x19
 14273 0412 3C       		.uleb128 0x3c
 14274 0413 19       		.uleb128 0x19
 14275 0414 00       		.byte	0
 14276 0415 00       		.byte	0
 14277 0416 4E       		.uleb128 0x4e
 14278 0417 34       		.uleb128 0x34
 14279 0418 00       		.byte	0
 14280 0419 03       		.uleb128 0x3
 14281 041a 0E       		.uleb128 0xe
 14282 041b 3A       		.uleb128 0x3a
 14283 041c 0B       		.uleb128 0xb
 14284 041d 3B       		.uleb128 0x3b
 14285 041e 05       		.uleb128 0x5
 14286 041f 49       		.uleb128 0x49
 14287 0420 13       		.uleb128 0x13
 14288 0421 3F       		.uleb128 0x3f
ARM GAS  C:\Users\164\AppData\Local\Temp\ccd4XrSZ.s 			page 299


 14289 0422 19       		.uleb128 0x19
 14290 0423 3C       		.uleb128 0x3c
 14291 0424 19       		.uleb128 0x19
 14292 0425 00       		.byte	0
 14293 0426 00       		.byte	0
 14294 0427 4F       		.uleb128 0x4f
 14295 0428 2E       		.uleb128 0x2e
 14296 0429 00       		.byte	0
 14297 042a 3F       		.uleb128 0x3f
 14298 042b 19       		.uleb128 0x19
 14299 042c 3C       		.uleb128 0x3c
 14300 042d 19       		.uleb128 0x19
 14301 042e 6E       		.uleb128 0x6e
 14302 042f 0E       		.uleb128 0xe
 14303 0430 03       		.uleb128 0x3
 14304 0431 0E       		.uleb128 0xe
 14305 0432 3A       		.uleb128 0x3a
 14306 0433 0B       		.uleb128 0xb
 14307 0434 3B       		.uleb128 0x3b
 14308 0435 0B       		.uleb128 0xb
 14309 0436 00       		.byte	0
 14310 0437 00       		.byte	0
 14311 0438 50       		.uleb128 0x50
 14312 0439 2E       		.uleb128 0x2e
 14313 043a 00       		.byte	0
 14314 043b 3F       		.uleb128 0x3f
 14315 043c 19       		.uleb128 0x19
 14316 043d 3C       		.uleb128 0x3c
 14317 043e 19       		.uleb128 0x19
 14318 043f 6E       		.uleb128 0x6e
 14319 0440 0E       		.uleb128 0xe
 14320 0441 03       		.uleb128 0x3
 14321 0442 0E       		.uleb128 0xe
 14322 0443 00       		.byte	0
 14323 0444 00       		.byte	0
 14324 0445 00       		.byte	0
 14325              		.section	.debug_loc,"",%progbits
 14326              	.Ldebug_loc0:
 14327              	.LLST0:
 14328 0000 00000000 		.4byte	.LVL1
 14329 0004 20000000 		.4byte	.LVL5
 14330 0008 0100     		.2byte	0x1
 14331 000a 50       		.byte	0x50
 14332 000b 20000000 		.4byte	.LVL5
 14333 000f 38000000 		.4byte	.LVL11
 14334 0013 0100     		.2byte	0x1
 14335 0015 50       		.byte	0x50
 14336 0016 38000000 		.4byte	.LVL11
 14337 001a 3A000000 		.4byte	.LVL12
 14338 001e 0300     		.2byte	0x3
 14339 0020 70       		.byte	0x70
 14340 0021 7E       		.sleb128 -2
 14341 0022 9F       		.byte	0x9f
 14342 0023 3A000000 		.4byte	.LVL12
 14343 0027 3C000000 		.4byte	.LVL13
 14344 002b 0100     		.2byte	0x1
 14345 002d 50       		.byte	0x50
ARM GAS  C:\Users\164\AppData\Local\Temp\ccd4XrSZ.s 			page 300


 14346 002e 00000000 		.4byte	0
 14347 0032 00000000 		.4byte	0
 14348              	.LLST1:
 14349 0036 00000000 		.4byte	.LVL1
 14350 003a 32000000 		.4byte	.LVL10
 14351 003e 0100     		.2byte	0x1
 14352 0040 51       		.byte	0x51
 14353 0041 32000000 		.4byte	.LVL10
 14354 0045 40000000 		.4byte	.LFE96
 14355 0049 0100     		.2byte	0x1
 14356 004b 51       		.byte	0x51
 14357 004c 00000000 		.4byte	0
 14358 0050 00000000 		.4byte	0
 14359              	.LLST2:
 14360 0054 1A000000 		.4byte	.LVL4
 14361 0058 22000000 		.4byte	.LVL6
 14362 005c 0100     		.2byte	0x1
 14363 005e 53       		.byte	0x53
 14364 005f 22000000 		.4byte	.LVL6
 14365 0063 3A000000 		.4byte	.LVL12
 14366 0067 1D00     		.2byte	0x1d
 14367 0069 74       		.byte	0x74
 14368 006a 00       		.sleb128 0
 14369 006b 38       		.byte	0x38
 14370 006c 24       		.byte	0x24
 14371 006d 08       		.byte	0x8
 14372 006e FF       		.byte	0xff
 14373 006f 40       		.byte	0x40
 14374 0070 24       		.byte	0x24
 14375 0071 1A       		.byte	0x1a
 14376 0072 74       		.byte	0x74
 14377 0073 00       		.sleb128 0
 14378 0074 38       		.byte	0x38
 14379 0075 25       		.byte	0x25
 14380 0076 0A       		.byte	0xa
 14381 0077 00FF     		.2byte	0xff00
 14382 0079 1A       		.byte	0x1a
 14383 007a 21       		.byte	0x21
 14384 007b 74       		.byte	0x74
 14385 007c 00       		.sleb128 0
 14386 007d 48       		.byte	0x48
 14387 007e 24       		.byte	0x24
 14388 007f 21       		.byte	0x21
 14389 0080 74       		.byte	0x74
 14390 0081 00       		.sleb128 0
 14391 0082 48       		.byte	0x48
 14392 0083 25       		.byte	0x25
 14393 0084 21       		.byte	0x21
 14394 0085 9F       		.byte	0x9f
 14395 0086 3A000000 		.4byte	.LVL12
 14396 008a 3C000000 		.4byte	.LVL13
 14397 008e 0100     		.2byte	0x1
 14398 0090 53       		.byte	0x53
 14399 0091 3C000000 		.4byte	.LVL13
 14400 0095 3E000000 		.4byte	.LVL14
 14401 0099 1D00     		.2byte	0x1d
 14402 009b 74       		.byte	0x74
ARM GAS  C:\Users\164\AppData\Local\Temp\ccd4XrSZ.s 			page 301


 14403 009c 00       		.sleb128 0
 14404 009d 38       		.byte	0x38
 14405 009e 24       		.byte	0x24
 14406 009f 08       		.byte	0x8
 14407 00a0 FF       		.byte	0xff
 14408 00a1 40       		.byte	0x40
 14409 00a2 24       		.byte	0x24
 14410 00a3 1A       		.byte	0x1a
 14411 00a4 74       		.byte	0x74
 14412 00a5 00       		.sleb128 0
 14413 00a6 38       		.byte	0x38
 14414 00a7 25       		.byte	0x25
 14415 00a8 0A       		.byte	0xa
 14416 00a9 00FF     		.2byte	0xff00
 14417 00ab 1A       		.byte	0x1a
 14418 00ac 21       		.byte	0x21
 14419 00ad 74       		.byte	0x74
 14420 00ae 00       		.sleb128 0
 14421 00af 48       		.byte	0x48
 14422 00b0 24       		.byte	0x24
 14423 00b1 21       		.byte	0x21
 14424 00b2 74       		.byte	0x74
 14425 00b3 00       		.sleb128 0
 14426 00b4 48       		.byte	0x48
 14427 00b5 25       		.byte	0x25
 14428 00b6 21       		.byte	0x21
 14429 00b7 9F       		.byte	0x9f
 14430 00b8 3E000000 		.4byte	.LVL14
 14431 00bc 40000000 		.4byte	.LFE96
 14432 00c0 2500     		.2byte	0x25
 14433 00c2 F3       		.byte	0xf3
 14434 00c3 01       		.uleb128 0x1
 14435 00c4 50       		.byte	0x50
 14436 00c5 06       		.byte	0x6
 14437 00c6 38       		.byte	0x38
 14438 00c7 24       		.byte	0x24
 14439 00c8 08       		.byte	0x8
 14440 00c9 FF       		.byte	0xff
 14441 00ca 40       		.byte	0x40
 14442 00cb 24       		.byte	0x24
 14443 00cc 1A       		.byte	0x1a
 14444 00cd F3       		.byte	0xf3
 14445 00ce 01       		.uleb128 0x1
 14446 00cf 50       		.byte	0x50
 14447 00d0 06       		.byte	0x6
 14448 00d1 38       		.byte	0x38
 14449 00d2 25       		.byte	0x25
 14450 00d3 0A       		.byte	0xa
 14451 00d4 00FF     		.2byte	0xff00
 14452 00d6 1A       		.byte	0x1a
 14453 00d7 21       		.byte	0x21
 14454 00d8 F3       		.byte	0xf3
 14455 00d9 01       		.uleb128 0x1
 14456 00da 50       		.byte	0x50
 14457 00db 06       		.byte	0x6
 14458 00dc 48       		.byte	0x48
 14459 00dd 24       		.byte	0x24
ARM GAS  C:\Users\164\AppData\Local\Temp\ccd4XrSZ.s 			page 302


 14460 00de 21       		.byte	0x21
 14461 00df F3       		.byte	0xf3
 14462 00e0 01       		.uleb128 0x1
 14463 00e1 50       		.byte	0x50
 14464 00e2 06       		.byte	0x6
 14465 00e3 48       		.byte	0x48
 14466 00e4 25       		.byte	0x25
 14467 00e5 21       		.byte	0x21
 14468 00e6 9F       		.byte	0x9f
 14469 00e7 00000000 		.4byte	0
 14470 00eb 00000000 		.4byte	0
 14471              	.LLST3:
 14472 00ef 02000000 		.4byte	.LVL2
 14473 00f3 1A000000 		.4byte	.LVL4
 14474 00f7 0100     		.2byte	0x1
 14475 00f9 50       		.byte	0x50
 14476 00fa 00000000 		.4byte	0
 14477 00fe 00000000 		.4byte	0
 14478              	.LLST4:
 14479 0102 04000000 		.4byte	.LVL3
 14480 0106 1A000000 		.4byte	.LVL4
 14481 010a 0100     		.2byte	0x1
 14482 010c 54       		.byte	0x54
 14483 010d 00000000 		.4byte	0
 14484 0111 00000000 		.4byte	0
 14485              	.LLST5:
 14486 0115 22000000 		.4byte	.LVL6
 14487 0119 2C000000 		.4byte	.LVL8
 14488 011d 0100     		.2byte	0x1
 14489 011f 50       		.byte	0x50
 14490 0120 00000000 		.4byte	0
 14491 0124 00000000 		.4byte	0
 14492              	.LLST6:
 14493 0128 24000000 		.4byte	.LVL7
 14494 012c 2C000000 		.4byte	.LVL8
 14495 0130 0100     		.2byte	0x1
 14496 0132 52       		.byte	0x52
 14497 0133 00000000 		.4byte	0
 14498 0137 00000000 		.4byte	0
 14499              	.LLST7:
 14500 013b 00000000 		.4byte	.LVL15
 14501 013f 26000000 		.4byte	.LVL22
 14502 0143 0100     		.2byte	0x1
 14503 0145 50       		.byte	0x50
 14504 0146 26000000 		.4byte	.LVL22
 14505 014a 2C000000 		.4byte	.LFE97
 14506 014e 0400     		.2byte	0x4
 14507 0150 F3       		.byte	0xf3
 14508 0151 01       		.uleb128 0x1
 14509 0152 50       		.byte	0x50
 14510 0153 9F       		.byte	0x9f
 14511 0154 00000000 		.4byte	0
 14512 0158 00000000 		.4byte	0
 14513              	.LLST8:
 14514 015c 20000000 		.4byte	.LVL20
 14515 0160 24000000 		.4byte	.LVL21
 14516 0164 0900     		.2byte	0x9
ARM GAS  C:\Users\164\AppData\Local\Temp\ccd4XrSZ.s 			page 303


 14517 0166 71       		.byte	0x71
 14518 0167 00       		.sleb128 0
 14519 0168 09       		.byte	0x9
 14520 0169 ED       		.byte	0xed
 14521 016a 24       		.byte	0x24
 14522 016b 09       		.byte	0x9
 14523 016c FB       		.byte	0xfb
 14524 016d 25       		.byte	0x25
 14525 016e 9F       		.byte	0x9f
 14526 016f 24000000 		.4byte	.LVL21
 14527 0173 29000000 		.4byte	.LVL23-1
 14528 0177 0100     		.2byte	0x1
 14529 0179 51       		.byte	0x51
 14530 017a 00000000 		.4byte	0
 14531 017e 00000000 		.4byte	0
 14532              	.LLST9:
 14533 0182 0A000000 		.4byte	.LVL16
 14534 0186 0E000000 		.4byte	.LVL17
 14535 018a 0800     		.2byte	0x8
 14536 018c 73       		.byte	0x73
 14537 018d 00       		.sleb128 0
 14538 018e 32       		.byte	0x32
 14539 018f 24       		.byte	0x24
 14540 0190 71       		.byte	0x71
 14541 0191 00       		.sleb128 0
 14542 0192 22       		.byte	0x22
 14543 0193 9F       		.byte	0x9f
 14544 0194 0E000000 		.4byte	.LVL17
 14545 0198 10000000 		.4byte	.LVL18
 14546 019c 1000     		.2byte	0x10
 14547 019e 70       		.byte	0x70
 14548 019f 10       		.sleb128 16
 14549 01a0 94       		.byte	0x94
 14550 01a1 02       		.byte	0x2
 14551 01a2 0A       		.byte	0xa
 14552 01a3 FFFF     		.2byte	0xffff
 14553 01a5 1A       		.byte	0x1a
 14554 01a6 31       		.byte	0x31
 14555 01a7 1C       		.byte	0x1c
 14556 01a8 32       		.byte	0x32
 14557 01a9 24       		.byte	0x24
 14558 01aa 71       		.byte	0x71
 14559 01ab 00       		.sleb128 0
 14560 01ac 22       		.byte	0x22
 14561 01ad 9F       		.byte	0x9f
 14562 01ae 10000000 		.4byte	.LVL18
 14563 01b2 20000000 		.4byte	.LVL20
 14564 01b6 1100     		.2byte	0x11
 14565 01b8 70       		.byte	0x70
 14566 01b9 10       		.sleb128 16
 14567 01ba 94       		.byte	0x94
 14568 01bb 02       		.byte	0x2
 14569 01bc 0A       		.byte	0xa
 14570 01bd FFFF     		.2byte	0xffff
 14571 01bf 1A       		.byte	0x1a
 14572 01c0 31       		.byte	0x31
 14573 01c1 1C       		.byte	0x1c
ARM GAS  C:\Users\164\AppData\Local\Temp\ccd4XrSZ.s 			page 304


 14574 01c2 32       		.byte	0x32
 14575 01c3 24       		.byte	0x24
 14576 01c4 72       		.byte	0x72
 14577 01c5 0C       		.sleb128 12
 14578 01c6 06       		.byte	0x6
 14579 01c7 22       		.byte	0x22
 14580 01c8 9F       		.byte	0x9f
 14581 01c9 00000000 		.4byte	0
 14582 01cd 00000000 		.4byte	0
 14583              	.LLST10:
 14584 01d1 0E000000 		.4byte	.LVL17
 14585 01d5 1A000000 		.4byte	.LVL19
 14586 01d9 0100     		.2byte	0x1
 14587 01db 53       		.byte	0x53
 14588 01dc 1A000000 		.4byte	.LVL19
 14589 01e0 20000000 		.4byte	.LVL20
 14590 01e4 1000     		.2byte	0x10
 14591 01e6 70       		.byte	0x70
 14592 01e7 10       		.sleb128 16
 14593 01e8 94       		.byte	0x94
 14594 01e9 02       		.byte	0x2
 14595 01ea 0A       		.byte	0xa
 14596 01eb FFFF     		.2byte	0xffff
 14597 01ed 1A       		.byte	0x1a
 14598 01ee 31       		.byte	0x31
 14599 01ef 1C       		.byte	0x1c
 14600 01f0 32       		.byte	0x32
 14601 01f1 24       		.byte	0x24
 14602 01f2 72       		.byte	0x72
 14603 01f3 0C       		.sleb128 12
 14604 01f4 06       		.byte	0x6
 14605 01f5 22       		.byte	0x22
 14606 01f6 00000000 		.4byte	0
 14607 01fa 00000000 		.4byte	0
 14608              	.LLST11:
 14609 01fe 00000000 		.4byte	.LVL24
 14610 0202 0B000000 		.4byte	.LVL26-1
 14611 0206 0100     		.2byte	0x1
 14612 0208 50       		.byte	0x50
 14613 0209 0B000000 		.4byte	.LVL26-1
 14614 020d 2E000000 		.4byte	.LFE99
 14615 0211 0100     		.2byte	0x1
 14616 0213 54       		.byte	0x54
 14617 0214 00000000 		.4byte	0
 14618 0218 00000000 		.4byte	0
 14619              	.LLST12:
 14620 021c 00000000 		.4byte	.LVL24
 14621 0220 08000000 		.4byte	.LVL25
 14622 0224 0100     		.2byte	0x1
 14623 0226 51       		.byte	0x51
 14624 0227 08000000 		.4byte	.LVL25
 14625 022b 2E000000 		.4byte	.LFE99
 14626 022f 0100     		.2byte	0x1
 14627 0231 55       		.byte	0x55
 14628 0232 00000000 		.4byte	0
 14629 0236 00000000 		.4byte	0
 14630              	.LLST13:
ARM GAS  C:\Users\164\AppData\Local\Temp\ccd4XrSZ.s 			page 305


 14631 023a 00000000 		.4byte	.LVL27
 14632 023e 23000000 		.4byte	.LVL29-1
 14633 0242 0100     		.2byte	0x1
 14634 0244 50       		.byte	0x50
 14635 0245 23000000 		.4byte	.LVL29-1
 14636 0249 26000000 		.4byte	.LFE100
 14637 024d 0400     		.2byte	0x4
 14638 024f F3       		.byte	0xf3
 14639 0250 01       		.uleb128 0x1
 14640 0251 50       		.byte	0x50
 14641 0252 9F       		.byte	0x9f
 14642 0253 00000000 		.4byte	0
 14643 0257 00000000 		.4byte	0
 14644              	.LLST14:
 14645 025b 06000000 		.4byte	.LVL28
 14646 025f 23000000 		.4byte	.LVL29-1
 14647 0263 0100     		.2byte	0x1
 14648 0265 51       		.byte	0x51
 14649 0266 00000000 		.4byte	0
 14650 026a 00000000 		.4byte	0
 14651              	.LLST15:
 14652 026e 00000000 		.4byte	.LVL30
 14653 0272 0A000000 		.4byte	.LVL32
 14654 0276 0100     		.2byte	0x1
 14655 0278 50       		.byte	0x50
 14656 0279 0A000000 		.4byte	.LVL32
 14657 027d 14000000 		.4byte	.LVL34
 14658 0281 0100     		.2byte	0x1
 14659 0283 56       		.byte	0x56
 14660 0284 14000000 		.4byte	.LVL34
 14661 0288 16000000 		.4byte	.LVL35
 14662 028c 0100     		.2byte	0x1
 14663 028e 50       		.byte	0x50
 14664 028f 16000000 		.4byte	.LVL35
 14665 0293 A4000000 		.4byte	.LVL64
 14666 0297 0100     		.2byte	0x1
 14667 0299 56       		.byte	0x56
 14668 029a A4000000 		.4byte	.LVL64
 14669 029e A8000000 		.4byte	.LFE148
 14670 02a2 0400     		.2byte	0x4
 14671 02a4 F3       		.byte	0xf3
 14672 02a5 01       		.uleb128 0x1
 14673 02a6 50       		.byte	0x50
 14674 02a7 9F       		.byte	0x9f
 14675 02a8 00000000 		.4byte	0
 14676 02ac 00000000 		.4byte	0
 14677              	.LLST16:
 14678 02b0 02000000 		.4byte	.LVL31
 14679 02b4 0A000000 		.4byte	.LVL32
 14680 02b8 0100     		.2byte	0x1
 14681 02ba 50       		.byte	0x50
 14682 02bb 0A000000 		.4byte	.LVL32
 14683 02bf 0E000000 		.4byte	.LVL33
 14684 02c3 0100     		.2byte	0x1
 14685 02c5 56       		.byte	0x56
 14686 02c6 0E000000 		.4byte	.LVL33
 14687 02ca 1A000000 		.4byte	.LVL36
ARM GAS  C:\Users\164\AppData\Local\Temp\ccd4XrSZ.s 			page 306


 14688 02ce 0100     		.2byte	0x1
 14689 02d0 50       		.byte	0x50
 14690 02d1 1A000000 		.4byte	.LVL36
 14691 02d5 9C000000 		.4byte	.LVL61
 14692 02d9 0100     		.2byte	0x1
 14693 02db 55       		.byte	0x55
 14694 02dc 9C000000 		.4byte	.LVL61
 14695 02e0 9E000000 		.4byte	.LVL62
 14696 02e4 0100     		.2byte	0x1
 14697 02e6 50       		.byte	0x50
 14698 02e7 9E000000 		.4byte	.LVL62
 14699 02eb A4000000 		.4byte	.LVL64
 14700 02ef 0100     		.2byte	0x1
 14701 02f1 55       		.byte	0x55
 14702 02f2 00000000 		.4byte	0
 14703 02f6 00000000 		.4byte	0
 14704              	.LLST17:
 14705 02fa 16000000 		.4byte	.LVL35
 14706 02fe 6A000000 		.4byte	.LVL53
 14707 0302 0200     		.2byte	0x2
 14708 0304 30       		.byte	0x30
 14709 0305 9F       		.byte	0x9f
 14710 0306 6A000000 		.4byte	.LVL53
 14711 030a 6C000000 		.4byte	.LVL54
 14712 030e 0100     		.2byte	0x1
 14713 0310 54       		.byte	0x54
 14714 0311 6C000000 		.4byte	.LVL54
 14715 0315 74000000 		.4byte	.LVL56
 14716 0319 0200     		.2byte	0x2
 14717 031b 30       		.byte	0x30
 14718 031c 9F       		.byte	0x9f
 14719 031d 74000000 		.4byte	.LVL56
 14720 0321 9C000000 		.4byte	.LVL61
 14721 0325 0100     		.2byte	0x1
 14722 0327 54       		.byte	0x54
 14723 0328 A0000000 		.4byte	.LVL63
 14724 032c A4000000 		.4byte	.LVL64
 14725 0330 0100     		.2byte	0x1
 14726 0332 54       		.byte	0x54
 14727 0333 00000000 		.4byte	0
 14728 0337 00000000 		.4byte	0
 14729              	.LLST18:
 14730 033b 16000000 		.4byte	.LVL35
 14731 033f 1A000000 		.4byte	.LVL36
 14732 0343 0200     		.2byte	0x2
 14733 0345 30       		.byte	0x30
 14734 0346 9F       		.byte	0x9f
 14735 0347 1A000000 		.4byte	.LVL36
 14736 034b 7D000000 		.4byte	.LVL57-1
 14737 034f 0100     		.2byte	0x1
 14738 0351 51       		.byte	0x51
 14739 0352 82000000 		.4byte	.LVL58
 14740 0356 88000000 		.4byte	.LVL59
 14741 035a 0100     		.2byte	0x1
 14742 035c 51       		.byte	0x51
 14743 035d A0000000 		.4byte	.LVL63
 14744 0361 A8000000 		.4byte	.LFE148
ARM GAS  C:\Users\164\AppData\Local\Temp\ccd4XrSZ.s 			page 307


 14745 0365 0100     		.2byte	0x1
 14746 0367 51       		.byte	0x51
 14747 0368 00000000 		.4byte	0
 14748 036c 00000000 		.4byte	0
 14749              	.LLST19:
 14750 0370 20000000 		.4byte	.LVL37
 14751 0374 22000000 		.4byte	.LVL38
 14752 0378 0400     		.2byte	0x4
 14753 037a 70       		.byte	0x70
 14754 037b 00       		.sleb128 0
 14755 037c 20       		.byte	0x20
 14756 037d 9F       		.byte	0x9f
 14757 037e 22000000 		.4byte	.LVL38
 14758 0382 4C000000 		.4byte	.LVL50
 14759 0386 0100     		.2byte	0x1
 14760 0388 53       		.byte	0x53
 14761 0389 4E000000 		.4byte	.LVL51
 14762 038d 50000000 		.4byte	.LVL52
 14763 0391 0100     		.2byte	0x1
 14764 0393 53       		.byte	0x53
 14765 0394 00000000 		.4byte	0
 14766 0398 00000000 		.4byte	0
 14767              	.LLST20:
 14768 039c 24000000 		.4byte	.LVL39
 14769 03a0 28000000 		.4byte	.LVL40
 14770 03a4 0200     		.2byte	0x2
 14771 03a6 31       		.byte	0x31
 14772 03a7 9F       		.byte	0x9f
 14773 03a8 28000000 		.4byte	.LVL40
 14774 03ac 2E000000 		.4byte	.LVL42
 14775 03b0 0200     		.2byte	0x2
 14776 03b2 41       		.byte	0x41
 14777 03b3 9F       		.byte	0x9f
 14778 03b4 2E000000 		.4byte	.LVL42
 14779 03b8 30000000 		.4byte	.LVL43
 14780 03bc 0200     		.2byte	0x2
 14781 03be 31       		.byte	0x31
 14782 03bf 9F       		.byte	0x9f
 14783 03c0 30000000 		.4byte	.LVL43
 14784 03c4 4E000000 		.4byte	.LVL51
 14785 03c8 0100     		.2byte	0x1
 14786 03ca 52       		.byte	0x52
 14787 03cb 00000000 		.4byte	0
 14788 03cf 00000000 		.4byte	0
 14789              	.LLST21:
 14790 03d3 00000000 		.4byte	.LVL65
 14791 03d7 2E000000 		.4byte	.LVL70
 14792 03db 0100     		.2byte	0x1
 14793 03dd 50       		.byte	0x50
 14794 03de 2E000000 		.4byte	.LVL70
 14795 03e2 32000000 		.4byte	.LVL71
 14796 03e6 0100     		.2byte	0x1
 14797 03e8 54       		.byte	0x54
 14798 03e9 32000000 		.4byte	.LVL71
 14799 03ed 3E000000 		.4byte	.LVL73
 14800 03f1 0100     		.2byte	0x1
 14801 03f3 50       		.byte	0x50
ARM GAS  C:\Users\164\AppData\Local\Temp\ccd4XrSZ.s 			page 308


 14802 03f4 3E000000 		.4byte	.LVL73
 14803 03f8 5E000000 		.4byte	.LVL76
 14804 03fc 0100     		.2byte	0x1
 14805 03fe 54       		.byte	0x54
 14806 03ff 5E000000 		.4byte	.LVL76
 14807 0403 74000000 		.4byte	.LFE149
 14808 0407 0400     		.2byte	0x4
 14809 0409 F3       		.byte	0xf3
 14810 040a 01       		.uleb128 0x1
 14811 040b 50       		.byte	0x50
 14812 040c 9F       		.byte	0x9f
 14813 040d 00000000 		.4byte	0
 14814 0411 00000000 		.4byte	0
 14815              	.LLST22:
 14816 0415 14000000 		.4byte	.LVL66
 14817 0419 28000000 		.4byte	.LVL69
 14818 041d 0100     		.2byte	0x1
 14819 041f 52       		.byte	0x52
 14820 0420 32000000 		.4byte	.LVL71
 14821 0424 4F000000 		.4byte	.LVL74-1
 14822 0428 0100     		.2byte	0x1
 14823 042a 52       		.byte	0x52
 14824 042b 00000000 		.4byte	0
 14825 042f 00000000 		.4byte	0
 14826              	.LLST23:
 14827 0433 22000000 		.4byte	.LVL67
 14828 0437 26000000 		.4byte	.LVL68
 14829 043b 0100     		.2byte	0x1
 14830 043d 53       		.byte	0x53
 14831 043e 32000000 		.4byte	.LVL71
 14832 0442 36000000 		.4byte	.LVL72
 14833 0446 0100     		.2byte	0x1
 14834 0448 53       		.byte	0x53
 14835 0449 00000000 		.4byte	0
 14836 044d 00000000 		.4byte	0
 14837              	.LLST24:
 14838 0451 00000000 		.4byte	.LVL77
 14839 0455 0E000000 		.4byte	.LVL78
 14840 0459 0100     		.2byte	0x1
 14841 045b 50       		.byte	0x50
 14842 045c 0E000000 		.4byte	.LVL78
 14843 0460 4A000000 		.4byte	.LVL83
 14844 0464 0100     		.2byte	0x1
 14845 0466 54       		.byte	0x54
 14846 0467 4A000000 		.4byte	.LVL83
 14847 046b 50000000 		.4byte	.LFE150
 14848 046f 0400     		.2byte	0x4
 14849 0471 F3       		.byte	0xf3
 14850 0472 01       		.uleb128 0x1
 14851 0473 50       		.byte	0x50
 14852 0474 9F       		.byte	0x9f
 14853 0475 00000000 		.4byte	0
 14854 0479 00000000 		.4byte	0
 14855              	.LLST25:
 14856 047d 1A000000 		.4byte	.LVL79
 14857 0481 1E000000 		.4byte	.LVL80
 14858 0485 0200     		.2byte	0x2
ARM GAS  C:\Users\164\AppData\Local\Temp\ccd4XrSZ.s 			page 309


 14859 0487 31       		.byte	0x31
 14860 0488 9F       		.byte	0x9f
 14861 0489 1E000000 		.4byte	.LVL80
 14862 048d 2E000000 		.4byte	.LVL82
 14863 0491 0100     		.2byte	0x1
 14864 0493 53       		.byte	0x53
 14865 0494 00000000 		.4byte	0
 14866 0498 00000000 		.4byte	0
 14867              	.LLST26:
 14868 049c 00000000 		.4byte	.LVL84
 14869 04a0 07000000 		.4byte	.LVL85-1
 14870 04a4 0100     		.2byte	0x1
 14871 04a6 50       		.byte	0x50
 14872 04a7 07000000 		.4byte	.LVL85-1
 14873 04ab 10000000 		.4byte	.LFE151
 14874 04af 0100     		.2byte	0x1
 14875 04b1 54       		.byte	0x54
 14876 04b2 00000000 		.4byte	0
 14877 04b6 00000000 		.4byte	0
 14878              	.LLST27:
 14879 04ba 00000000 		.4byte	.LVL87
 14880 04be 0A000000 		.4byte	.LVL89
 14881 04c2 0100     		.2byte	0x1
 14882 04c4 50       		.byte	0x50
 14883 04c5 0A000000 		.4byte	.LVL89
 14884 04c9 FC160000 		.4byte	.LVL915
 14885 04cd 0100     		.2byte	0x1
 14886 04cf 55       		.byte	0x55
 14887 04d0 FC160000 		.4byte	.LVL915
 14888 04d4 0C170000 		.4byte	.LFE152
 14889 04d8 0400     		.2byte	0x4
 14890 04da F3       		.byte	0xf3
 14891 04db 01       		.uleb128 0x1
 14892 04dc 50       		.byte	0x50
 14893 04dd 9F       		.byte	0x9f
 14894 04de 00000000 		.4byte	0
 14895 04e2 00000000 		.4byte	0
 14896              	.LLST28:
 14897 04e6 08000000 		.4byte	.LVL88
 14898 04ea 0A000000 		.4byte	.LVL89
 14899 04ee 0200     		.2byte	0x2
 14900 04f0 30       		.byte	0x30
 14901 04f1 9F       		.byte	0x9f
 14902 04f2 0A000000 		.4byte	.LVL89
 14903 04f6 E6000000 		.4byte	.LVL97
 14904 04fa 0100     		.2byte	0x1
 14905 04fc 57       		.byte	0x57
 14906 04fd 0C010000 		.4byte	.LVL104
 14907 0501 2A010000 		.4byte	.LVL111
 14908 0505 0100     		.2byte	0x1
 14909 0507 57       		.byte	0x57
 14910 0508 30010000 		.4byte	.LVL112
 14911 050c 32010000 		.4byte	.LVL113
 14912 0510 0100     		.2byte	0x1
 14913 0512 57       		.byte	0x57
 14914 0513 56010000 		.4byte	.LVL118
 14915 0517 58010000 		.4byte	.LVL119
ARM GAS  C:\Users\164\AppData\Local\Temp\ccd4XrSZ.s 			page 310


 14916 051b 0100     		.2byte	0x1
 14917 051d 57       		.byte	0x57
 14918 051e 82010000 		.4byte	.LVL129
 14919 0522 90010000 		.4byte	.LVL133
 14920 0526 0100     		.2byte	0x1
 14921 0528 57       		.byte	0x57
 14922 0529 96010000 		.4byte	.LVL134
 14923 052d B0010000 		.4byte	.LVL139
 14924 0531 0100     		.2byte	0x1
 14925 0533 57       		.byte	0x57
 14926 0534 B6010000 		.4byte	.LVL140
 14927 0538 C4010000 		.4byte	.LVL144
 14928 053c 0100     		.2byte	0x1
 14929 053e 57       		.byte	0x57
 14930 053f CA010000 		.4byte	.LVL145
 14931 0543 D8010000 		.4byte	.LVL149
 14932 0547 0100     		.2byte	0x1
 14933 0549 57       		.byte	0x57
 14934 054a DE010000 		.4byte	.LVL150
 14935 054e E0010000 		.4byte	.LVL151
 14936 0552 0100     		.2byte	0x1
 14937 0554 57       		.byte	0x57
 14938 0555 14020000 		.4byte	.LVL163
 14939 0559 16020000 		.4byte	.LVL164
 14940 055d 0100     		.2byte	0x1
 14941 055f 57       		.byte	0x57
 14942 0560 48020000 		.4byte	.LVL173
 14943 0564 4A020000 		.4byte	.LVL174
 14944 0568 0100     		.2byte	0x1
 14945 056a 57       		.byte	0x57
 14946 056b 80020000 		.4byte	.LVL187
 14947 056f 82020000 		.4byte	.LVL188
 14948 0573 0100     		.2byte	0x1
 14949 0575 57       		.byte	0x57
 14950 0576 A6020000 		.4byte	.LVL197
 14951 057a A8020000 		.4byte	.LVL198
 14952 057e 0100     		.2byte	0x1
 14953 0580 57       		.byte	0x57
 14954 0581 DC020000 		.4byte	.LVL210
 14955 0585 DE020000 		.4byte	.LVL211
 14956 0589 0100     		.2byte	0x1
 14957 058b 57       		.byte	0x57
 14958 058c FC020000 		.4byte	.LVL218
 14959 0590 02030000 		.4byte	.LVL220
 14960 0594 0100     		.2byte	0x1
 14961 0596 57       		.byte	0x57
 14962 0597 3C030000 		.4byte	.LVL233
 14963 059b 3E030000 		.4byte	.LVL234
 14964 059f 0100     		.2byte	0x1
 14965 05a1 57       		.byte	0x57
 14966 05a2 7C030000 		.4byte	.LVL249
 14967 05a6 86030000 		.4byte	.LVL250
 14968 05aa 0100     		.2byte	0x1
 14969 05ac 57       		.byte	0x57
 14970 05ad 8C030000 		.4byte	.LVL251
 14971 05b1 A4030000 		.4byte	.LVL253
 14972 05b5 0100     		.2byte	0x1
ARM GAS  C:\Users\164\AppData\Local\Temp\ccd4XrSZ.s 			page 311


 14973 05b7 57       		.byte	0x57
 14974 05b8 A8030000 		.4byte	.LVL254
 14975 05bc C0030000 		.4byte	.LVL256
 14976 05c0 0100     		.2byte	0x1
 14977 05c2 57       		.byte	0x57
 14978 05c3 C4030000 		.4byte	.LVL257
 14979 05c7 C6030000 		.4byte	.LVL258
 14980 05cb 0100     		.2byte	0x1
 14981 05cd 57       		.byte	0x57
 14982 05ce A0040000 		.4byte	.LVL287
 14983 05d2 A2040000 		.4byte	.LVL288
 14984 05d6 0100     		.2byte	0x1
 14985 05d8 57       		.byte	0x57
 14986 05d9 7C050000 		.4byte	.LVL317
 14987 05dd 86050000 		.4byte	.LVL319
 14988 05e1 0100     		.2byte	0x1
 14989 05e3 57       		.byte	0x57
 14990 05e4 92050000 		.4byte	.LVL321
 14991 05e8 AC050000 		.4byte	.LVL325
 14992 05ec 0100     		.2byte	0x1
 14993 05ee 57       		.byte	0x57
 14994 05ef B0050000 		.4byte	.LVL326
 14995 05f3 CA050000 		.4byte	.LVL330
 14996 05f7 0100     		.2byte	0x1
 14997 05f9 57       		.byte	0x57
 14998 05fa 12060000 		.4byte	.LVL337
 14999 05fe 18060000 		.4byte	.LVL339
 15000 0602 0100     		.2byte	0x1
 15001 0604 57       		.byte	0x57
 15002 0605 46060000 		.4byte	.LVL347
 15003 0609 4C060000 		.4byte	.LVL349
 15004 060d 0100     		.2byte	0x1
 15005 060f 57       		.byte	0x57
 15006 0610 B2070000 		.4byte	.LVL390
 15007 0614 B8070000 		.4byte	.LVL393
 15008 0618 0100     		.2byte	0x1
 15009 061a 57       		.byte	0x57
 15010 061b F2070000 		.4byte	.LVL399
 15011 061f FC070000 		.4byte	.LVL402
 15012 0623 0100     		.2byte	0x1
 15013 0625 57       		.byte	0x57
 15014 0626 66090000 		.4byte	.LVL438
 15015 062a 6C090000 		.4byte	.LVL441
 15016 062e 0100     		.2byte	0x1
 15017 0630 57       		.byte	0x57
 15018 0631 A6090000 		.4byte	.LVL447
 15019 0635 B0090000 		.4byte	.LVL450
 15020 0639 0100     		.2byte	0x1
 15021 063b 57       		.byte	0x57
 15022 063c 240B0000 		.4byte	.LVL486
 15023 0640 2E0B0000 		.4byte	.LVL489
 15024 0644 0100     		.2byte	0x1
 15025 0646 57       		.byte	0x57
 15026 0647 9A0C0000 		.4byte	.LVL525
 15027 064b A40C0000 		.4byte	.LVL527
 15028 064f 0100     		.2byte	0x1
 15029 0651 57       		.byte	0x57
ARM GAS  C:\Users\164\AppData\Local\Temp\ccd4XrSZ.s 			page 312


 15030 0652 D60C0000 		.4byte	.LVL536
 15031 0656 DE0C0000 		.4byte	.LVL538
 15032 065a 0100     		.2byte	0x1
 15033 065c 57       		.byte	0x57
 15034 065d 7A0E0000 		.4byte	.LVL592
 15035 0661 820E0000 		.4byte	.LVL594
 15036 0665 0100     		.2byte	0x1
 15037 0667 57       		.byte	0x57
 15038 0668 14100000 		.4byte	.LVL648
 15039 066c 1C100000 		.4byte	.LVL650
 15040 0670 0100     		.2byte	0x1
 15041 0672 57       		.byte	0x57
 15042 0673 B6110000 		.4byte	.LVL704
 15043 0677 BE110000 		.4byte	.LVL706
 15044 067b 0100     		.2byte	0x1
 15045 067d 57       		.byte	0x57
 15046 067e 50130000 		.4byte	.LVL760
 15047 0682 58130000 		.4byte	.LVL762
 15048 0686 0100     		.2byte	0x1
 15049 0688 57       		.byte	0x57
 15050 0689 A8130000 		.4byte	.LVL773
 15051 068d AA130000 		.4byte	.LVL774
 15052 0691 0100     		.2byte	0x1
 15053 0693 57       		.byte	0x57
 15054 0694 F8130000 		.4byte	.LVL789
 15055 0698 FA130000 		.4byte	.LVL790
 15056 069c 0100     		.2byte	0x1
 15057 069e 57       		.byte	0x57
 15058 069f 4A140000 		.4byte	.LVL803
 15059 06a3 4C140000 		.4byte	.LVL804
 15060 06a7 0100     		.2byte	0x1
 15061 06a9 57       		.byte	0x57
 15062 06aa AA140000 		.4byte	.LVL817
 15063 06ae BC140000 		.4byte	.LVL821
 15064 06b2 0100     		.2byte	0x1
 15065 06b4 57       		.byte	0x57
 15066 06b5 E8140000 		.4byte	.LVL827
 15067 06b9 F0140000 		.4byte	.LVL829
 15068 06bd 0100     		.2byte	0x1
 15069 06bf 57       		.byte	0x57
 15070 06c0 3A150000 		.4byte	.LVL840
 15071 06c4 6C150000 		.4byte	.LVL849
 15072 06c8 0100     		.2byte	0x1
 15073 06ca 57       		.byte	0x57
 15074 06cb 86150000 		.4byte	.LVL853
 15075 06cf A8150000 		.4byte	.LVL860
 15076 06d3 0100     		.2byte	0x1
 15077 06d5 57       		.byte	0x57
 15078 06d6 CC150000 		.4byte	.LVL863
 15079 06da D4150000 		.4byte	.LVL866
 15080 06de 0100     		.2byte	0x1
 15081 06e0 57       		.byte	0x57
 15082 06e1 5A160000 		.4byte	.LVL881
 15083 06e5 60160000 		.4byte	.LVL884
 15084 06e9 0100     		.2byte	0x1
 15085 06eb 57       		.byte	0x57
 15086 06ec 74160000 		.4byte	.LVL887
ARM GAS  C:\Users\164\AppData\Local\Temp\ccd4XrSZ.s 			page 313


 15087 06f0 98160000 		.4byte	.LVL895
 15088 06f4 0100     		.2byte	0x1
 15089 06f6 57       		.byte	0x57
 15090 06f7 9E160000 		.4byte	.LVL896
 15091 06fb C2160000 		.4byte	.LVL904
 15092 06ff 0100     		.2byte	0x1
 15093 0701 57       		.byte	0x57
 15094 0702 C8160000 		.4byte	.LVL905
 15095 0706 D6160000 		.4byte	.LVL908
 15096 070a 0100     		.2byte	0x1
 15097 070c 57       		.byte	0x57
 15098 070d D8160000 		.4byte	.LVL909
 15099 0711 DA160000 		.4byte	.LVL910
 15100 0715 0100     		.2byte	0x1
 15101 0717 57       		.byte	0x57
 15102 0718 DC160000 		.4byte	.LVL911
 15103 071c DE160000 		.4byte	.LVL912
 15104 0720 0100     		.2byte	0x1
 15105 0722 57       		.byte	0x57
 15106 0723 E0160000 		.4byte	.LVL913
 15107 0727 FC160000 		.4byte	.LVL915
 15108 072b 0100     		.2byte	0x1
 15109 072d 57       		.byte	0x57
 15110 072e FC160000 		.4byte	.LVL915
 15111 0732 0C170000 		.4byte	.LFE152
 15112 0736 0100     		.2byte	0x1
 15113 0738 50       		.byte	0x50
 15114 0739 00000000 		.4byte	0
 15115 073d 00000000 		.4byte	0
 15116              	.LLST29:
 15117 0741 34000000 		.4byte	.LVL94
 15118 0745 F8000000 		.4byte	.LVL101
 15119 0749 0100     		.2byte	0x1
 15120 074b 56       		.byte	0x56
 15121 074c 0C010000 		.4byte	.LVL104
 15122 0750 16010000 		.4byte	.LVL107
 15123 0754 0100     		.2byte	0x1
 15124 0756 56       		.byte	0x56
 15125 0757 16010000 		.4byte	.LVL107
 15126 075b 1B010000 		.4byte	.LVL108-1
 15127 075f 0300     		.2byte	0x3
 15128 0761 75       		.byte	0x75
 15129 0762 D80C     		.sleb128 1624
 15130 0764 30010000 		.4byte	.LVL112
 15131 0768 F6010000 		.4byte	.LVL157
 15132 076c 0100     		.2byte	0x1
 15133 076e 56       		.byte	0x56
 15134 076f 14020000 		.4byte	.LVL163
 15135 0773 2C020000 		.4byte	.LVL170
 15136 0777 0100     		.2byte	0x1
 15137 0779 56       		.byte	0x56
 15138 077a 48020000 		.4byte	.LVL173
 15139 077e 6C020000 		.4byte	.LVL183
 15140 0782 0100     		.2byte	0x1
 15141 0784 56       		.byte	0x56
 15142 0785 80020000 		.4byte	.LVL187
 15143 0789 BE020000 		.4byte	.LVL204
ARM GAS  C:\Users\164\AppData\Local\Temp\ccd4XrSZ.s 			page 314


 15144 078d 0100     		.2byte	0x1
 15145 078f 56       		.byte	0x56
 15146 0790 DC020000 		.4byte	.LVL210
 15147 0794 1E030000 		.4byte	.LVL228
 15148 0798 0100     		.2byte	0x1
 15149 079a 56       		.byte	0x56
 15150 079b 1E030000 		.4byte	.LVL228
 15151 079f 23030000 		.4byte	.LVL229-1
 15152 07a3 0300     		.2byte	0x3
 15153 07a5 75       		.byte	0x75
 15154 07a6 D80C     		.sleb128 1624
 15155 07a8 3C030000 		.4byte	.LVL233
 15156 07ac 68030000 		.4byte	.LVL245
 15157 07b0 0100     		.2byte	0x1
 15158 07b2 56       		.byte	0x56
 15159 07b3 7C030000 		.4byte	.LVL249
 15160 07b7 8E130000 		.4byte	.LVL769
 15161 07bb 0100     		.2byte	0x1
 15162 07bd 56       		.byte	0x56
 15163 07be A2130000 		.4byte	.LVL771
 15164 07c2 D4130000 		.4byte	.LVL784
 15165 07c6 0100     		.2byte	0x1
 15166 07c8 56       		.byte	0x56
 15167 07c9 E8130000 		.4byte	.LVL787
 15168 07cd 2A140000 		.4byte	.LVL798
 15169 07d1 0100     		.2byte	0x1
 15170 07d3 56       		.byte	0x56
 15171 07d4 4A140000 		.4byte	.LVL803
 15172 07d8 90140000 		.4byte	.LVL812
 15173 07dc 0100     		.2byte	0x1
 15174 07de 56       		.byte	0x56
 15175 07df A4140000 		.4byte	.LVL815
 15176 07e3 20150000 		.4byte	.LVL836
 15177 07e7 0100     		.2byte	0x1
 15178 07e9 56       		.byte	0x56
 15179 07ea 34150000 		.4byte	.LVL838
 15180 07ee 7E150000 		.4byte	.LVL850
 15181 07f2 0100     		.2byte	0x1
 15182 07f4 56       		.byte	0x56
 15183 07f5 86150000 		.4byte	.LVL853
 15184 07f9 92150000 		.4byte	.LVL856
 15185 07fd 0100     		.2byte	0x1
 15186 07ff 56       		.byte	0x56
 15187 0800 92150000 		.4byte	.LVL856
 15188 0804 9E150000 		.4byte	.LVL858
 15189 0808 0300     		.2byte	0x3
 15190 080a 75       		.byte	0x75
 15191 080b D80C     		.sleb128 1624
 15192 080d CC150000 		.4byte	.LVL863
 15193 0811 E2160000 		.4byte	.LVL914
 15194 0815 0100     		.2byte	0x1
 15195 0817 56       		.byte	0x56
 15196 0818 00000000 		.4byte	0
 15197 081c 00000000 		.4byte	0
 15198              	.LLST30:
 15199 0820 38000000 		.4byte	.LVL95
 15200 0824 F3000000 		.4byte	.LVL100-1
ARM GAS  C:\Users\164\AppData\Local\Temp\ccd4XrSZ.s 			page 315


 15201 0828 0100     		.2byte	0x1
 15202 082a 53       		.byte	0x53
 15203 082b 0C010000 		.4byte	.LVL104
 15204 082f 0E010000 		.4byte	.LVL105
 15205 0833 0100     		.2byte	0x1
 15206 0835 53       		.byte	0x53
 15207 0836 0E010000 		.4byte	.LVL105
 15208 083a 12010000 		.4byte	.LVL106
 15209 083e 0600     		.2byte	0x6
 15210 0840 74       		.byte	0x74
 15211 0841 00       		.sleb128 0
 15212 0842 08       		.byte	0x8
 15213 0843 7F       		.byte	0x7f
 15214 0844 1A       		.byte	0x1a
 15215 0845 9F       		.byte	0x9f
 15216 0846 30010000 		.4byte	.LVL112
 15217 084a 3D010000 		.4byte	.LVL115-1
 15218 084e 0100     		.2byte	0x1
 15219 0850 53       		.byte	0x53
 15220 0851 3D010000 		.4byte	.LVL115-1
 15221 0855 46010000 		.4byte	.LVL116
 15222 0859 0600     		.2byte	0x6
 15223 085b 74       		.byte	0x74
 15224 085c 00       		.sleb128 0
 15225 085d 08       		.byte	0x8
 15226 085e 7F       		.byte	0x7f
 15227 085f 1A       		.byte	0x1a
 15228 0860 9F       		.byte	0x9f
 15229 0861 56010000 		.4byte	.LVL118
 15230 0865 5A010000 		.4byte	.LVL120
 15231 0869 0100     		.2byte	0x1
 15232 086b 53       		.byte	0x53
 15233 086c 5A010000 		.4byte	.LVL120
 15234 0870 6C010000 		.4byte	.LVL125
 15235 0874 0600     		.2byte	0x6
 15236 0876 74       		.byte	0x74
 15237 0877 00       		.sleb128 0
 15238 0878 08       		.byte	0x8
 15239 0879 7F       		.byte	0x7f
 15240 087a 1A       		.byte	0x1a
 15241 087b 9F       		.byte	0x9f
 15242 087c 82010000 		.4byte	.LVL129
 15243 0880 8B010000 		.4byte	.LVL132-1
 15244 0884 0100     		.2byte	0x1
 15245 0886 53       		.byte	0x53
 15246 0887 96010000 		.4byte	.LVL134
 15247 088b A1010000 		.4byte	.LVL137-1
 15248 088f 0100     		.2byte	0x1
 15249 0891 53       		.byte	0x53
 15250 0892 B6010000 		.4byte	.LVL140
 15251 0896 BF010000 		.4byte	.LVL143-1
 15252 089a 0100     		.2byte	0x1
 15253 089c 53       		.byte	0x53
 15254 089d CA010000 		.4byte	.LVL145
 15255 08a1 D3010000 		.4byte	.LVL148-1
 15256 08a5 0100     		.2byte	0x1
 15257 08a7 53       		.byte	0x53
ARM GAS  C:\Users\164\AppData\Local\Temp\ccd4XrSZ.s 			page 316


 15258 08a8 DE010000 		.4byte	.LVL150
 15259 08ac E2010000 		.4byte	.LVL152
 15260 08b0 0100     		.2byte	0x1
 15261 08b2 53       		.byte	0x53
 15262 08b3 E2010000 		.4byte	.LVL152
 15263 08b7 FE010000 		.4byte	.LVL159
 15264 08bb 0600     		.2byte	0x6
 15265 08bd 74       		.byte	0x74
 15266 08be 00       		.sleb128 0
 15267 08bf 08       		.byte	0x8
 15268 08c0 7F       		.byte	0x7f
 15269 08c1 1A       		.byte	0x1a
 15270 08c2 9F       		.byte	0x9f
 15271 08c3 14020000 		.4byte	.LVL163
 15272 08c7 18020000 		.4byte	.LVL165
 15273 08cb 0100     		.2byte	0x1
 15274 08cd 53       		.byte	0x53
 15275 08ce 18020000 		.4byte	.LVL165
 15276 08d2 28020000 		.4byte	.LVL169
 15277 08d6 0600     		.2byte	0x6
 15278 08d8 74       		.byte	0x74
 15279 08d9 00       		.sleb128 0
 15280 08da 08       		.byte	0x8
 15281 08db 7F       		.byte	0x7f
 15282 08dc 1A       		.byte	0x1a
 15283 08dd 9F       		.byte	0x9f
 15284 08de 48020000 		.4byte	.LVL173
 15285 08e2 4C020000 		.4byte	.LVL175
 15286 08e6 0100     		.2byte	0x1
 15287 08e8 53       		.byte	0x53
 15288 08e9 4C020000 		.4byte	.LVL175
 15289 08ed 5E020000 		.4byte	.LVL180
 15290 08f1 0600     		.2byte	0x6
 15291 08f3 74       		.byte	0x74
 15292 08f4 00       		.sleb128 0
 15293 08f5 08       		.byte	0x8
 15294 08f6 7F       		.byte	0x7f
 15295 08f7 1A       		.byte	0x1a
 15296 08f8 9F       		.byte	0x9f
 15297 08f9 80020000 		.4byte	.LVL187
 15298 08fd 84020000 		.4byte	.LVL189
 15299 0901 0100     		.2byte	0x1
 15300 0903 53       		.byte	0x53
 15301 0904 84020000 		.4byte	.LVL189
 15302 0908 A6020000 		.4byte	.LVL197
 15303 090c 0600     		.2byte	0x6
 15304 090e 74       		.byte	0x74
 15305 090f 00       		.sleb128 0
 15306 0910 08       		.byte	0x8
 15307 0911 7F       		.byte	0x7f
 15308 0912 1A       		.byte	0x1a
 15309 0913 9F       		.byte	0x9f
 15310 0914 A6020000 		.4byte	.LVL197
 15311 0918 AA020000 		.4byte	.LVL199
 15312 091c 0100     		.2byte	0x1
 15313 091e 53       		.byte	0x53
 15314 091f AA020000 		.4byte	.LVL199
ARM GAS  C:\Users\164\AppData\Local\Temp\ccd4XrSZ.s 			page 317


 15315 0923 C6020000 		.4byte	.LVL206
 15316 0927 0600     		.2byte	0x6
 15317 0929 74       		.byte	0x74
 15318 092a 00       		.sleb128 0
 15319 092b 08       		.byte	0x8
 15320 092c 7F       		.byte	0x7f
 15321 092d 1A       		.byte	0x1a
 15322 092e 9F       		.byte	0x9f
 15323 092f DC020000 		.4byte	.LVL210
 15324 0933 E0020000 		.4byte	.LVL212
 15325 0937 0100     		.2byte	0x1
 15326 0939 53       		.byte	0x53
 15327 093a E0020000 		.4byte	.LVL212
 15328 093e FC020000 		.4byte	.LVL218
 15329 0942 0600     		.2byte	0x6
 15330 0944 74       		.byte	0x74
 15331 0945 00       		.sleb128 0
 15332 0946 08       		.byte	0x8
 15333 0947 7F       		.byte	0x7f
 15334 0948 1A       		.byte	0x1a
 15335 0949 9F       		.byte	0x9f
 15336 094a FC020000 		.4byte	.LVL218
 15337 094e 06030000 		.4byte	.LVL221
 15338 0952 0100     		.2byte	0x1
 15339 0954 53       		.byte	0x53
 15340 0955 06030000 		.4byte	.LVL221
 15341 0959 1A030000 		.4byte	.LVL227
 15342 095d 0600     		.2byte	0x6
 15343 095f 74       		.byte	0x74
 15344 0960 00       		.sleb128 0
 15345 0961 08       		.byte	0x8
 15346 0962 7F       		.byte	0x7f
 15347 0963 1A       		.byte	0x1a
 15348 0964 9F       		.byte	0x9f
 15349 0965 3C030000 		.4byte	.LVL233
 15350 0969 46030000 		.4byte	.LVL236
 15351 096d 0100     		.2byte	0x1
 15352 096f 53       		.byte	0x53
 15353 0970 46030000 		.4byte	.LVL236
 15354 0974 5E030000 		.4byte	.LVL243
 15355 0978 0600     		.2byte	0x6
 15356 097a 74       		.byte	0x74
 15357 097b 00       		.sleb128 0
 15358 097c 08       		.byte	0x8
 15359 097d 7F       		.byte	0x7f
 15360 097e 1A       		.byte	0x1a
 15361 097f 9F       		.byte	0x9f
 15362 0980 7C030000 		.4byte	.LVL249
 15363 0984 8E030000 		.4byte	.LVL252
 15364 0988 0100     		.2byte	0x1
 15365 098a 53       		.byte	0x53
 15366 098b 8E030000 		.4byte	.LVL252
 15367 098f A8030000 		.4byte	.LVL254
 15368 0993 0600     		.2byte	0x6
 15369 0995 74       		.byte	0x74
 15370 0996 00       		.sleb128 0
 15371 0997 08       		.byte	0x8
ARM GAS  C:\Users\164\AppData\Local\Temp\ccd4XrSZ.s 			page 318


 15372 0998 7F       		.byte	0x7f
 15373 0999 1A       		.byte	0x1a
 15374 099a 9F       		.byte	0x9f
 15375 099b A8030000 		.4byte	.LVL254
 15376 099f AA030000 		.4byte	.LVL255
 15377 09a3 0100     		.2byte	0x1
 15378 09a5 53       		.byte	0x53
 15379 09a6 AA030000 		.4byte	.LVL255
 15380 09aa C4030000 		.4byte	.LVL257
 15381 09ae 0600     		.2byte	0x6
 15382 09b0 74       		.byte	0x74
 15383 09b1 00       		.sleb128 0
 15384 09b2 08       		.byte	0x8
 15385 09b3 7F       		.byte	0x7f
 15386 09b4 1A       		.byte	0x1a
 15387 09b5 9F       		.byte	0x9f
 15388 09b6 C4030000 		.4byte	.LVL257
 15389 09ba CA030000 		.4byte	.LVL259
 15390 09be 0100     		.2byte	0x1
 15391 09c0 53       		.byte	0x53
 15392 09c1 CA030000 		.4byte	.LVL259
 15393 09c5 F0030000 		.4byte	.LVL264
 15394 09c9 0600     		.2byte	0x6
 15395 09cb 74       		.byte	0x74
 15396 09cc 00       		.sleb128 0
 15397 09cd 08       		.byte	0x8
 15398 09ce 7F       		.byte	0x7f
 15399 09cf 1A       		.byte	0x1a
 15400 09d0 9F       		.byte	0x9f
 15401 09d1 A0040000 		.4byte	.LVL287
 15402 09d5 A6040000 		.4byte	.LVL289
 15403 09d9 0100     		.2byte	0x1
 15404 09db 53       		.byte	0x53
 15405 09dc A6040000 		.4byte	.LVL289
 15406 09e0 CC040000 		.4byte	.LVL294
 15407 09e4 0600     		.2byte	0x6
 15408 09e6 74       		.byte	0x74
 15409 09e7 00       		.sleb128 0
 15410 09e8 08       		.byte	0x8
 15411 09e9 7F       		.byte	0x7f
 15412 09ea 1A       		.byte	0x1a
 15413 09eb 9F       		.byte	0x9f
 15414 09ec 7C050000 		.4byte	.LVL317
 15415 09f0 83050000 		.4byte	.LVL318-1
 15416 09f4 0100     		.2byte	0x1
 15417 09f6 53       		.byte	0x53
 15418 09f7 83050000 		.4byte	.LVL318-1
 15419 09fb 92050000 		.4byte	.LVL321
 15420 09ff 0600     		.2byte	0x6
 15421 0a01 74       		.byte	0x74
 15422 0a02 00       		.sleb128 0
 15423 0a03 08       		.byte	0x8
 15424 0a04 7F       		.byte	0x7f
 15425 0a05 1A       		.byte	0x1a
 15426 0a06 9F       		.byte	0x9f
 15427 0a07 92050000 		.4byte	.LVL321
 15428 0a0b 96050000 		.4byte	.LVL322
ARM GAS  C:\Users\164\AppData\Local\Temp\ccd4XrSZ.s 			page 319


 15429 0a0f 0100     		.2byte	0x1
 15430 0a11 53       		.byte	0x53
 15431 0a12 96050000 		.4byte	.LVL322
 15432 0a16 B0050000 		.4byte	.LVL326
 15433 0a1a 0600     		.2byte	0x6
 15434 0a1c 74       		.byte	0x74
 15435 0a1d 00       		.sleb128 0
 15436 0a1e 08       		.byte	0x8
 15437 0a1f 7F       		.byte	0x7f
 15438 0a20 1A       		.byte	0x1a
 15439 0a21 9F       		.byte	0x9f
 15440 0a22 B0050000 		.4byte	.LVL326
 15441 0a26 B7050000 		.4byte	.LVL328-1
 15442 0a2a 0100     		.2byte	0x1
 15443 0a2c 53       		.byte	0x53
 15444 0a2d 12060000 		.4byte	.LVL337
 15445 0a31 1C060000 		.4byte	.LVL340
 15446 0a35 0100     		.2byte	0x1
 15447 0a37 53       		.byte	0x53
 15448 0a38 46060000 		.4byte	.LVL347
 15449 0a3c 48060000 		.4byte	.LVL348
 15450 0a40 0100     		.2byte	0x1
 15451 0a42 53       		.byte	0x53
 15452 0a43 48060000 		.4byte	.LVL348
 15453 0a47 FA060000 		.4byte	.LVL367
 15454 0a4b 0600     		.2byte	0x6
 15455 0a4d 74       		.byte	0x74
 15456 0a4e 00       		.sleb128 0
 15457 0a4f 08       		.byte	0x8
 15458 0a50 7F       		.byte	0x7f
 15459 0a51 1A       		.byte	0x1a
 15460 0a52 9F       		.byte	0x9f
 15461 0a53 B2070000 		.4byte	.LVL390
 15462 0a57 B4070000 		.4byte	.LVL391
 15463 0a5b 0100     		.2byte	0x1
 15464 0a5d 53       		.byte	0x53
 15465 0a5e B4070000 		.4byte	.LVL391
 15466 0a62 C2070000 		.4byte	.LVL394
 15467 0a66 0600     		.2byte	0x6
 15468 0a68 74       		.byte	0x74
 15469 0a69 00       		.sleb128 0
 15470 0a6a 08       		.byte	0x8
 15471 0a6b 7F       		.byte	0x7f
 15472 0a6c 1A       		.byte	0x1a
 15473 0a6d 9F       		.byte	0x9f
 15474 0a6e CA070000 		.4byte	.LVL395
 15475 0a72 EC070000 		.4byte	.LVL398
 15476 0a76 0600     		.2byte	0x6
 15477 0a78 74       		.byte	0x74
 15478 0a79 00       		.sleb128 0
 15479 0a7a 08       		.byte	0x8
 15480 0a7b 7F       		.byte	0x7f
 15481 0a7c 1A       		.byte	0x1a
 15482 0a7d 9F       		.byte	0x9f
 15483 0a7e F2070000 		.4byte	.LVL399
 15484 0a82 FA070000 		.4byte	.LVL401
 15485 0a86 0100     		.2byte	0x1
ARM GAS  C:\Users\164\AppData\Local\Temp\ccd4XrSZ.s 			page 320


 15486 0a88 53       		.byte	0x53
 15487 0a89 FA070000 		.4byte	.LVL401
 15488 0a8d AA080000 		.4byte	.LVL414
 15489 0a91 0600     		.2byte	0x6
 15490 0a93 74       		.byte	0x74
 15491 0a94 00       		.sleb128 0
 15492 0a95 08       		.byte	0x8
 15493 0a96 7F       		.byte	0x7f
 15494 0a97 1A       		.byte	0x1a
 15495 0a98 9F       		.byte	0x9f
 15496 0a99 66090000 		.4byte	.LVL438
 15497 0a9d 68090000 		.4byte	.LVL439
 15498 0aa1 0100     		.2byte	0x1
 15499 0aa3 53       		.byte	0x53
 15500 0aa4 68090000 		.4byte	.LVL439
 15501 0aa8 76090000 		.4byte	.LVL442
 15502 0aac 0600     		.2byte	0x6
 15503 0aae 74       		.byte	0x74
 15504 0aaf 00       		.sleb128 0
 15505 0ab0 08       		.byte	0x8
 15506 0ab1 7F       		.byte	0x7f
 15507 0ab2 1A       		.byte	0x1a
 15508 0ab3 9F       		.byte	0x9f
 15509 0ab4 7E090000 		.4byte	.LVL443
 15510 0ab8 A0090000 		.4byte	.LVL446
 15511 0abc 0600     		.2byte	0x6
 15512 0abe 74       		.byte	0x74
 15513 0abf 00       		.sleb128 0
 15514 0ac0 08       		.byte	0x8
 15515 0ac1 7F       		.byte	0x7f
 15516 0ac2 1A       		.byte	0x1a
 15517 0ac3 9F       		.byte	0x9f
 15518 0ac4 A6090000 		.4byte	.LVL447
 15519 0ac8 AE090000 		.4byte	.LVL449
 15520 0acc 0100     		.2byte	0x1
 15521 0ace 53       		.byte	0x53
 15522 0acf AE090000 		.4byte	.LVL449
 15523 0ad3 680A0000 		.4byte	.LVL462
 15524 0ad7 0600     		.2byte	0x6
 15525 0ad9 74       		.byte	0x74
 15526 0ada 00       		.sleb128 0
 15527 0adb 08       		.byte	0x8
 15528 0adc 7F       		.byte	0x7f
 15529 0add 1A       		.byte	0x1a
 15530 0ade 9F       		.byte	0x9f
 15531 0adf 240B0000 		.4byte	.LVL486
 15532 0ae3 2C0B0000 		.4byte	.LVL488
 15533 0ae7 0100     		.2byte	0x1
 15534 0ae9 53       		.byte	0x53
 15535 0aea 2C0B0000 		.4byte	.LVL488
 15536 0aee DE0B0000 		.4byte	.LVL501
 15537 0af2 0600     		.2byte	0x6
 15538 0af4 74       		.byte	0x74
 15539 0af5 00       		.sleb128 0
 15540 0af6 08       		.byte	0x8
 15541 0af7 7F       		.byte	0x7f
 15542 0af8 1A       		.byte	0x1a
ARM GAS  C:\Users\164\AppData\Local\Temp\ccd4XrSZ.s 			page 321


 15543 0af9 9F       		.byte	0x9f
 15544 0afa 9A0C0000 		.4byte	.LVL525
 15545 0afe B10C0000 		.4byte	.LVL530-1
 15546 0b02 0100     		.2byte	0x1
 15547 0b04 53       		.byte	0x53
 15548 0b05 D60C0000 		.4byte	.LVL536
 15549 0b09 E20C0000 		.4byte	.LVL539
 15550 0b0d 0100     		.2byte	0x1
 15551 0b0f 53       		.byte	0x53
 15552 0b10 E20C0000 		.4byte	.LVL539
 15553 0b14 140D0000 		.4byte	.LVL544
 15554 0b18 0600     		.2byte	0x6
 15555 0b1a 74       		.byte	0x74
 15556 0b1b 00       		.sleb128 0
 15557 0b1c 08       		.byte	0x8
 15558 0b1d 7F       		.byte	0x7f
 15559 0b1e 1A       		.byte	0x1a
 15560 0b1f 9F       		.byte	0x9f
 15561 0b20 260D0000 		.4byte	.LVL547
 15562 0b24 460D0000 		.4byte	.LVL550
 15563 0b28 0600     		.2byte	0x6
 15564 0b2a 74       		.byte	0x74
 15565 0b2b 00       		.sleb128 0
 15566 0b2c 08       		.byte	0x8
 15567 0b2d 7F       		.byte	0x7f
 15568 0b2e 1A       		.byte	0x1a
 15569 0b2f 9F       		.byte	0x9f
 15570 0b30 5C0D0000 		.4byte	.LVL553
 15571 0b34 640D0000 		.4byte	.LVL554
 15572 0b38 0600     		.2byte	0x6
 15573 0b3a 74       		.byte	0x74
 15574 0b3b 00       		.sleb128 0
 15575 0b3c 08       		.byte	0x8
 15576 0b3d 7F       		.byte	0x7f
 15577 0b3e 1A       		.byte	0x1a
 15578 0b3f 9F       		.byte	0x9f
 15579 0b40 7E0D0000 		.4byte	.LVL557
 15580 0b44 AA0D0000 		.4byte	.LVL563
 15581 0b48 0600     		.2byte	0x6
 15582 0b4a 74       		.byte	0x74
 15583 0b4b 00       		.sleb128 0
 15584 0b4c 08       		.byte	0x8
 15585 0b4d 7F       		.byte	0x7f
 15586 0b4e 1A       		.byte	0x1a
 15587 0b4f 9F       		.byte	0x9f
 15588 0b50 7A0E0000 		.4byte	.LVL592
 15589 0b54 860E0000 		.4byte	.LVL595
 15590 0b58 0100     		.2byte	0x1
 15591 0b5a 53       		.byte	0x53
 15592 0b5b 860E0000 		.4byte	.LVL595
 15593 0b5f B80E0000 		.4byte	.LVL600
 15594 0b63 0600     		.2byte	0x6
 15595 0b65 74       		.byte	0x74
 15596 0b66 00       		.sleb128 0
 15597 0b67 08       		.byte	0x8
 15598 0b68 7F       		.byte	0x7f
 15599 0b69 1A       		.byte	0x1a
ARM GAS  C:\Users\164\AppData\Local\Temp\ccd4XrSZ.s 			page 322


 15600 0b6a 9F       		.byte	0x9f
 15601 0b6b CA0E0000 		.4byte	.LVL603
 15602 0b6f EA0E0000 		.4byte	.LVL606
 15603 0b73 0600     		.2byte	0x6
 15604 0b75 74       		.byte	0x74
 15605 0b76 00       		.sleb128 0
 15606 0b77 08       		.byte	0x8
 15607 0b78 7F       		.byte	0x7f
 15608 0b79 1A       		.byte	0x1a
 15609 0b7a 9F       		.byte	0x9f
 15610 0b7b 000F0000 		.4byte	.LVL609
 15611 0b7f 080F0000 		.4byte	.LVL610
 15612 0b83 0600     		.2byte	0x6
 15613 0b85 74       		.byte	0x74
 15614 0b86 00       		.sleb128 0
 15615 0b87 08       		.byte	0x8
 15616 0b88 7F       		.byte	0x7f
 15617 0b89 1A       		.byte	0x1a
 15618 0b8a 9F       		.byte	0x9f
 15619 0b8b 220F0000 		.4byte	.LVL613
 15620 0b8f 4E0F0000 		.4byte	.LVL619
 15621 0b93 0600     		.2byte	0x6
 15622 0b95 74       		.byte	0x74
 15623 0b96 00       		.sleb128 0
 15624 0b97 08       		.byte	0x8
 15625 0b98 7F       		.byte	0x7f
 15626 0b99 1A       		.byte	0x1a
 15627 0b9a 9F       		.byte	0x9f
 15628 0b9b 14100000 		.4byte	.LVL648
 15629 0b9f 20100000 		.4byte	.LVL651
 15630 0ba3 0100     		.2byte	0x1
 15631 0ba5 53       		.byte	0x53
 15632 0ba6 20100000 		.4byte	.LVL651
 15633 0baa 52100000 		.4byte	.LVL656
 15634 0bae 0600     		.2byte	0x6
 15635 0bb0 74       		.byte	0x74
 15636 0bb1 00       		.sleb128 0
 15637 0bb2 08       		.byte	0x8
 15638 0bb3 7F       		.byte	0x7f
 15639 0bb4 1A       		.byte	0x1a
 15640 0bb5 9F       		.byte	0x9f
 15641 0bb6 64100000 		.4byte	.LVL659
 15642 0bba 84100000 		.4byte	.LVL662
 15643 0bbe 0600     		.2byte	0x6
 15644 0bc0 74       		.byte	0x74
 15645 0bc1 00       		.sleb128 0
 15646 0bc2 08       		.byte	0x8
 15647 0bc3 7F       		.byte	0x7f
 15648 0bc4 1A       		.byte	0x1a
 15649 0bc5 9F       		.byte	0x9f
 15650 0bc6 9A100000 		.4byte	.LVL665
 15651 0bca A2100000 		.4byte	.LVL666
 15652 0bce 0600     		.2byte	0x6
 15653 0bd0 74       		.byte	0x74
 15654 0bd1 00       		.sleb128 0
 15655 0bd2 08       		.byte	0x8
 15656 0bd3 7F       		.byte	0x7f
ARM GAS  C:\Users\164\AppData\Local\Temp\ccd4XrSZ.s 			page 323


 15657 0bd4 1A       		.byte	0x1a
 15658 0bd5 9F       		.byte	0x9f
 15659 0bd6 C4100000 		.4byte	.LVL669
 15660 0bda F0100000 		.4byte	.LVL675
 15661 0bde 0600     		.2byte	0x6
 15662 0be0 74       		.byte	0x74
 15663 0be1 00       		.sleb128 0
 15664 0be2 08       		.byte	0x8
 15665 0be3 7F       		.byte	0x7f
 15666 0be4 1A       		.byte	0x1a
 15667 0be5 9F       		.byte	0x9f
 15668 0be6 B6110000 		.4byte	.LVL704
 15669 0bea C2110000 		.4byte	.LVL707
 15670 0bee 0100     		.2byte	0x1
 15671 0bf0 53       		.byte	0x53
 15672 0bf1 C2110000 		.4byte	.LVL707
 15673 0bf5 F4110000 		.4byte	.LVL712
 15674 0bf9 0600     		.2byte	0x6
 15675 0bfb 74       		.byte	0x74
 15676 0bfc 00       		.sleb128 0
 15677 0bfd 08       		.byte	0x8
 15678 0bfe 7F       		.byte	0x7f
 15679 0bff 1A       		.byte	0x1a
 15680 0c00 9F       		.byte	0x9f
 15681 0c01 06120000 		.4byte	.LVL715
 15682 0c05 26120000 		.4byte	.LVL718
 15683 0c09 0600     		.2byte	0x6
 15684 0c0b 74       		.byte	0x74
 15685 0c0c 00       		.sleb128 0
 15686 0c0d 08       		.byte	0x8
 15687 0c0e 7F       		.byte	0x7f
 15688 0c0f 1A       		.byte	0x1a
 15689 0c10 9F       		.byte	0x9f
 15690 0c11 3C120000 		.4byte	.LVL721
 15691 0c15 44120000 		.4byte	.LVL722
 15692 0c19 0600     		.2byte	0x6
 15693 0c1b 74       		.byte	0x74
 15694 0c1c 00       		.sleb128 0
 15695 0c1d 08       		.byte	0x8
 15696 0c1e 7F       		.byte	0x7f
 15697 0c1f 1A       		.byte	0x1a
 15698 0c20 9F       		.byte	0x9f
 15699 0c21 5E120000 		.4byte	.LVL725
 15700 0c25 8A120000 		.4byte	.LVL731
 15701 0c29 0600     		.2byte	0x6
 15702 0c2b 74       		.byte	0x74
 15703 0c2c 00       		.sleb128 0
 15704 0c2d 08       		.byte	0x8
 15705 0c2e 7F       		.byte	0x7f
 15706 0c2f 1A       		.byte	0x1a
 15707 0c30 9F       		.byte	0x9f
 15708 0c31 50130000 		.4byte	.LVL760
 15709 0c35 65130000 		.4byte	.LVL764-1
 15710 0c39 0100     		.2byte	0x1
 15711 0c3b 53       		.byte	0x53
 15712 0c3c 65130000 		.4byte	.LVL764-1
 15713 0c40 68130000 		.4byte	.LVL765
ARM GAS  C:\Users\164\AppData\Local\Temp\ccd4XrSZ.s 			page 324


 15714 0c44 0600     		.2byte	0x6
 15715 0c46 74       		.byte	0x74
 15716 0c47 00       		.sleb128 0
 15717 0c48 08       		.byte	0x8
 15718 0c49 7F       		.byte	0x7f
 15719 0c4a 1A       		.byte	0x1a
 15720 0c4b 9F       		.byte	0x9f
 15721 0c4c A8130000 		.4byte	.LVL773
 15722 0c50 B0130000 		.4byte	.LVL776
 15723 0c54 0100     		.2byte	0x1
 15724 0c56 53       		.byte	0x53
 15725 0c57 F8130000 		.4byte	.LVL789
 15726 0c5b 03140000 		.4byte	.LVL792-1
 15727 0c5f 0100     		.2byte	0x1
 15728 0c61 53       		.byte	0x53
 15729 0c62 4A140000 		.4byte	.LVL803
 15730 0c66 5D140000 		.4byte	.LVL807-1
 15731 0c6a 0100     		.2byte	0x1
 15732 0c6c 53       		.byte	0x53
 15733 0c6d AA140000 		.4byte	.LVL817
 15734 0c71 B9140000 		.4byte	.LVL820-1
 15735 0c75 0100     		.2byte	0x1
 15736 0c77 53       		.byte	0x53
 15737 0c78 E8140000 		.4byte	.LVL827
 15738 0c7c FD140000 		.4byte	.LVL831-1
 15739 0c80 0100     		.2byte	0x1
 15740 0c82 53       		.byte	0x53
 15741 0c83 3A150000 		.4byte	.LVL840
 15742 0c87 40150000 		.4byte	.LVL842
 15743 0c8b 0100     		.2byte	0x1
 15744 0c8d 53       		.byte	0x53
 15745 0c8e 40150000 		.4byte	.LVL842
 15746 0c92 86150000 		.4byte	.LVL853
 15747 0c96 0600     		.2byte	0x6
 15748 0c98 74       		.byte	0x74
 15749 0c99 00       		.sleb128 0
 15750 0c9a 08       		.byte	0x8
 15751 0c9b 7F       		.byte	0x7f
 15752 0c9c 1A       		.byte	0x1a
 15753 0c9d 9F       		.byte	0x9f
 15754 0c9e 86150000 		.4byte	.LVL853
 15755 0ca2 88150000 		.4byte	.LVL854
 15756 0ca6 0100     		.2byte	0x1
 15757 0ca8 53       		.byte	0x53
 15758 0ca9 88150000 		.4byte	.LVL854
 15759 0cad 8C150000 		.4byte	.LVL855
 15760 0cb1 0600     		.2byte	0x6
 15761 0cb3 74       		.byte	0x74
 15762 0cb4 00       		.sleb128 0
 15763 0cb5 08       		.byte	0x8
 15764 0cb6 7F       		.byte	0x7f
 15765 0cb7 1A       		.byte	0x1a
 15766 0cb8 9F       		.byte	0x9f
 15767 0cb9 CC150000 		.4byte	.LVL863
 15768 0cbd CE150000 		.4byte	.LVL864
 15769 0cc1 0100     		.2byte	0x1
 15770 0cc3 53       		.byte	0x53
ARM GAS  C:\Users\164\AppData\Local\Temp\ccd4XrSZ.s 			page 325


 15771 0cc4 CE150000 		.4byte	.LVL864
 15772 0cc8 DA150000 		.4byte	.LVL867
 15773 0ccc 0600     		.2byte	0x6
 15774 0cce 74       		.byte	0x74
 15775 0ccf 00       		.sleb128 0
 15776 0cd0 08       		.byte	0x8
 15777 0cd1 7F       		.byte	0x7f
 15778 0cd2 1A       		.byte	0x1a
 15779 0cd3 9F       		.byte	0x9f
 15780 0cd4 5A160000 		.4byte	.LVL881
 15781 0cd8 65160000 		.4byte	.LVL885-1
 15782 0cdc 0100     		.2byte	0x1
 15783 0cde 53       		.byte	0x53
 15784 0cdf 74160000 		.4byte	.LVL887
 15785 0ce3 7E160000 		.4byte	.LVL889
 15786 0ce7 0100     		.2byte	0x1
 15787 0ce9 53       		.byte	0x53
 15788 0cea 8C160000 		.4byte	.LVL892
 15789 0cee 8E160000 		.4byte	.LVL893
 15790 0cf2 0100     		.2byte	0x1
 15791 0cf4 53       		.byte	0x53
 15792 0cf5 9E160000 		.4byte	.LVL896
 15793 0cf9 A8160000 		.4byte	.LVL898
 15794 0cfd 0100     		.2byte	0x1
 15795 0cff 53       		.byte	0x53
 15796 0d00 B6160000 		.4byte	.LVL901
 15797 0d04 B8160000 		.4byte	.LVL902
 15798 0d08 0100     		.2byte	0x1
 15799 0d0a 53       		.byte	0x53
 15800 0d0b C8160000 		.4byte	.LVL905
 15801 0d0f D1160000 		.4byte	.LVL906-1
 15802 0d13 0100     		.2byte	0x1
 15803 0d15 53       		.byte	0x53
 15804 0d16 D1160000 		.4byte	.LVL906-1
 15805 0d1a D4160000 		.4byte	.LVL907
 15806 0d1e 0600     		.2byte	0x6
 15807 0d20 74       		.byte	0x74
 15808 0d21 00       		.sleb128 0
 15809 0d22 08       		.byte	0x8
 15810 0d23 7F       		.byte	0x7f
 15811 0d24 1A       		.byte	0x1a
 15812 0d25 9F       		.byte	0x9f
 15813 0d26 D4160000 		.4byte	.LVL907
 15814 0d2a D8160000 		.4byte	.LVL909
 15815 0d2e 0100     		.2byte	0x1
 15816 0d30 53       		.byte	0x53
 15817 0d31 D8160000 		.4byte	.LVL909
 15818 0d35 E2160000 		.4byte	.LVL914
 15819 0d39 0600     		.2byte	0x6
 15820 0d3b 74       		.byte	0x74
 15821 0d3c 00       		.sleb128 0
 15822 0d3d 08       		.byte	0x8
 15823 0d3e 7F       		.byte	0x7f
 15824 0d3f 1A       		.byte	0x1a
 15825 0d40 9F       		.byte	0x9f
 15826 0d41 00000000 		.4byte	0
 15827 0d45 00000000 		.4byte	0
ARM GAS  C:\Users\164\AppData\Local\Temp\ccd4XrSZ.s 			page 326


 15828              	.LLST31:
 15829 0d49 10000000 		.4byte	.LVL90
 15830 0d4d 16000000 		.4byte	.LVL92
 15831 0d51 0800     		.2byte	0x8
 15832 0d53 72       		.byte	0x72
 15833 0d54 00       		.sleb128 0
 15834 0d55 32       		.byte	0x32
 15835 0d56 24       		.byte	0x24
 15836 0d57 73       		.byte	0x73
 15837 0d58 00       		.sleb128 0
 15838 0d59 22       		.byte	0x22
 15839 0d5a 9F       		.byte	0x9f
 15840 0d5b 16000000 		.4byte	.LVL92
 15841 0d5f 2A000000 		.4byte	.LVL93
 15842 0d63 0C00     		.2byte	0xc
 15843 0d65 72       		.byte	0x72
 15844 0d66 00       		.sleb128 0
 15845 0d67 32       		.byte	0x32
 15846 0d68 24       		.byte	0x24
 15847 0d69 75       		.byte	0x75
 15848 0d6a 0C       		.sleb128 12
 15849 0d6b 06       		.byte	0x6
 15850 0d6c 23       		.byte	0x23
 15851 0d6d 0C       		.uleb128 0xc
 15852 0d6e 06       		.byte	0x6
 15853 0d6f 22       		.byte	0x22
 15854 0d70 9F       		.byte	0x9f
 15855 0d71 00000000 		.4byte	0
 15856 0d75 00000000 		.4byte	0
 15857              	.LLST32:
 15858 0d79 14000000 		.4byte	.LVL91
 15859 0d7d 2A000000 		.4byte	.LVL93
 15860 0d81 0100     		.2byte	0x1
 15861 0d83 51       		.byte	0x51
 15862 0d84 00000000 		.4byte	0
 15863 0d88 00000000 		.4byte	0
 15864              	.LLST33:
 15865 0d8c E4000000 		.4byte	.LVL96
 15866 0d90 F8000000 		.4byte	.LVL101
 15867 0d94 0100     		.2byte	0x1
 15868 0d96 56       		.byte	0x56
 15869 0d97 00000000 		.4byte	0
 15870 0d9b 00000000 		.4byte	0
 15871              	.LLST34:
 15872 0d9f E4000000 		.4byte	.LVL96
 15873 0da3 EA000000 		.4byte	.LVL98
 15874 0da7 0100     		.2byte	0x1
 15875 0da9 54       		.byte	0x54
 15876 0daa 00000000 		.4byte	0
 15877 0dae 00000000 		.4byte	0
 15878              	.LLST35:
 15879 0db2 E4000000 		.4byte	.LVL96
 15880 0db6 06010000 		.4byte	.LVL103
 15881 0dba 0100     		.2byte	0x1
 15882 0dbc 55       		.byte	0x55
 15883 0dbd 00000000 		.4byte	0
 15884 0dc1 00000000 		.4byte	0
ARM GAS  C:\Users\164\AppData\Local\Temp\ccd4XrSZ.s 			page 327


 15885              	.LLST36:
 15886 0dc5 E6000000 		.4byte	.LVL97
 15887 0dc9 EE000000 		.4byte	.LVL99
 15888 0dcd 0100     		.2byte	0x1
 15889 0dcf 57       		.byte	0x57
 15890 0dd0 00000000 		.4byte	0
 15891 0dd4 00000000 		.4byte	0
 15892              	.LLST37:
 15893 0dd8 EA000000 		.4byte	.LVL98
 15894 0ddc 06010000 		.4byte	.LVL103
 15895 0de0 0100     		.2byte	0x1
 15896 0de2 54       		.byte	0x54
 15897 0de3 00000000 		.4byte	0
 15898 0de7 00000000 		.4byte	0
 15899              	.LLST38:
 15900 0deb 0C010000 		.4byte	.LVL104
 15901 0def 16010000 		.4byte	.LVL107
 15902 0df3 0100     		.2byte	0x1
 15903 0df5 56       		.byte	0x56
 15904 0df6 16010000 		.4byte	.LVL107
 15905 0dfa 1B010000 		.4byte	.LVL108-1
 15906 0dfe 0300     		.2byte	0x3
 15907 0e00 75       		.byte	0x75
 15908 0e01 D80C     		.sleb128 1624
 15909 0e03 00000000 		.4byte	0
 15910 0e07 00000000 		.4byte	0
 15911              	.LLST39:
 15912 0e0b 0C010000 		.4byte	.LVL104
 15913 0e0f 12010000 		.4byte	.LVL106
 15914 0e13 0100     		.2byte	0x1
 15915 0e15 54       		.byte	0x54
 15916 0e16 00000000 		.4byte	0
 15917 0e1a 00000000 		.4byte	0
 15918              	.LLST40:
 15919 0e1e 0C010000 		.4byte	.LVL104
 15920 0e22 2A010000 		.4byte	.LVL111
 15921 0e26 0100     		.2byte	0x1
 15922 0e28 55       		.byte	0x55
 15923 0e29 00000000 		.4byte	0
 15924 0e2d 00000000 		.4byte	0
 15925              	.LLST41:
 15926 0e31 0E010000 		.4byte	.LVL105
 15927 0e35 1B010000 		.4byte	.LVL108-1
 15928 0e39 0100     		.2byte	0x1
 15929 0e3b 53       		.byte	0x53
 15930 0e3c 00000000 		.4byte	0
 15931 0e40 00000000 		.4byte	0
 15932              	.LLST42:
 15933 0e44 12010000 		.4byte	.LVL106
 15934 0e48 2A010000 		.4byte	.LVL111
 15935 0e4c 0100     		.2byte	0x1
 15936 0e4e 54       		.byte	0x54
 15937 0e4f 00000000 		.4byte	0
 15938 0e53 00000000 		.4byte	0
 15939              	.LLST43:
 15940 0e57 24010000 		.4byte	.LVL109
 15941 0e5b 26010000 		.4byte	.LVL110
ARM GAS  C:\Users\164\AppData\Local\Temp\ccd4XrSZ.s 			page 328


 15942 0e5f 0100     		.2byte	0x1
 15943 0e61 53       		.byte	0x53
 15944 0e62 26010000 		.4byte	.LVL110
 15945 0e66 2A010000 		.4byte	.LVL111
 15946 0e6a 0B00     		.2byte	0xb
 15947 0e6c 74       		.byte	0x74
 15948 0e6d 00       		.sleb128 0
 15949 0e6e 32       		.byte	0x32
 15950 0e6f 24       		.byte	0x24
 15951 0e70 75       		.byte	0x75
 15952 0e71 0C       		.sleb128 12
 15953 0e72 06       		.byte	0x6
 15954 0e73 23       		.byte	0x23
 15955 0e74 10       		.uleb128 0x10
 15956 0e75 06       		.byte	0x6
 15957 0e76 22       		.byte	0x22
 15958 0e77 00000000 		.4byte	0
 15959 0e7b 00000000 		.4byte	0
 15960              	.LLST44:
 15961 0e7f 30010000 		.4byte	.LVL112
 15962 0e83 50010000 		.4byte	.LVL117
 15963 0e87 0100     		.2byte	0x1
 15964 0e89 56       		.byte	0x56
 15965 0e8a 00000000 		.4byte	0
 15966 0e8e 00000000 		.4byte	0
 15967              	.LLST45:
 15968 0e92 30010000 		.4byte	.LVL112
 15969 0e96 46010000 		.4byte	.LVL116
 15970 0e9a 0100     		.2byte	0x1
 15971 0e9c 54       		.byte	0x54
 15972 0e9d 00000000 		.4byte	0
 15973 0ea1 00000000 		.4byte	0
 15974              	.LLST46:
 15975 0ea5 30010000 		.4byte	.LVL112
 15976 0ea9 50010000 		.4byte	.LVL117
 15977 0ead 0100     		.2byte	0x1
 15978 0eaf 55       		.byte	0x55
 15979 0eb0 00000000 		.4byte	0
 15980 0eb4 00000000 		.4byte	0
 15981              	.LLST47:
 15982 0eb8 32010000 		.4byte	.LVL113
 15983 0ebc 34010000 		.4byte	.LVL114
 15984 0ec0 0100     		.2byte	0x1
 15985 0ec2 57       		.byte	0x57
 15986 0ec3 34010000 		.4byte	.LVL114
 15987 0ec7 46010000 		.4byte	.LVL116
 15988 0ecb 0500     		.2byte	0x5
 15989 0ecd 74       		.byte	0x74
 15990 0ece 00       		.sleb128 0
 15991 0ecf 47       		.byte	0x47
 15992 0ed0 25       		.byte	0x25
 15993 0ed1 9F       		.byte	0x9f
 15994 0ed2 00000000 		.4byte	0
 15995 0ed6 00000000 		.4byte	0
 15996              	.LLST48:
 15997 0eda 56010000 		.4byte	.LVL118
 15998 0ede 7C010000 		.4byte	.LVL128
ARM GAS  C:\Users\164\AppData\Local\Temp\ccd4XrSZ.s 			page 329


 15999 0ee2 0100     		.2byte	0x1
 16000 0ee4 56       		.byte	0x56
 16001 0ee5 00000000 		.4byte	0
 16002 0ee9 00000000 		.4byte	0
 16003              	.LLST49:
 16004 0eed 56010000 		.4byte	.LVL118
 16005 0ef1 6C010000 		.4byte	.LVL125
 16006 0ef5 0100     		.2byte	0x1
 16007 0ef7 54       		.byte	0x54
 16008 0ef8 00000000 		.4byte	0
 16009 0efc 00000000 		.4byte	0
 16010              	.LLST50:
 16011 0f00 56010000 		.4byte	.LVL118
 16012 0f04 7C010000 		.4byte	.LVL128
 16013 0f08 0100     		.2byte	0x1
 16014 0f0a 55       		.byte	0x55
 16015 0f0b 00000000 		.4byte	0
 16016 0f0f 00000000 		.4byte	0
 16017              	.LLST51:
 16018 0f13 58010000 		.4byte	.LVL119
 16019 0f17 6E010000 		.4byte	.LVL126
 16020 0f1b 0100     		.2byte	0x1
 16021 0f1d 57       		.byte	0x57
 16022 0f1e 00000000 		.4byte	0
 16023 0f22 00000000 		.4byte	0
 16024              	.LLST52:
 16025 0f26 58010000 		.4byte	.LVL119
 16026 0f2a 5E010000 		.4byte	.LVL121
 16027 0f2e 0900     		.2byte	0x9
 16028 0f30 74       		.byte	0x74
 16029 0f31 00       		.sleb128 0
 16030 0f32 09       		.byte	0x9
 16031 0f33 ED       		.byte	0xed
 16032 0f34 24       		.byte	0x24
 16033 0f35 09       		.byte	0x9
 16034 0f36 F4       		.byte	0xf4
 16035 0f37 25       		.byte	0x25
 16036 0f38 9F       		.byte	0x9f
 16037 0f39 5E010000 		.4byte	.LVL121
 16038 0f3d 63010000 		.4byte	.LVL122-1
 16039 0f41 0100     		.2byte	0x1
 16040 0f43 51       		.byte	0x51
 16041 0f44 63010000 		.4byte	.LVL122-1
 16042 0f48 6C010000 		.4byte	.LVL125
 16043 0f4c 0900     		.2byte	0x9
 16044 0f4e 74       		.byte	0x74
 16045 0f4f 00       		.sleb128 0
 16046 0f50 09       		.byte	0x9
 16047 0f51 ED       		.byte	0xed
 16048 0f52 24       		.byte	0x24
 16049 0f53 09       		.byte	0x9
 16050 0f54 F4       		.byte	0xf4
 16051 0f55 25       		.byte	0x25
 16052 0f56 9F       		.byte	0x9f
 16053 0f57 00000000 		.4byte	0
 16054 0f5b 00000000 		.4byte	0
 16055              	.LLST53:
ARM GAS  C:\Users\164\AppData\Local\Temp\ccd4XrSZ.s 			page 330


 16056 0f5f 64010000 		.4byte	.LVL122
 16057 0f63 67010000 		.4byte	.LVL123-1
 16058 0f67 0100     		.2byte	0x1
 16059 0f69 50       		.byte	0x50
 16060 0f6a 00000000 		.4byte	0
 16061 0f6e 00000000 		.4byte	0
 16062              	.LLST54:
 16063 0f72 6A010000 		.4byte	.LVL124
 16064 0f76 7C010000 		.4byte	.LVL128
 16065 0f7a 0100     		.2byte	0x1
 16066 0f7c 58       		.byte	0x58
 16067 0f7d 00000000 		.4byte	0
 16068 0f81 00000000 		.4byte	0
 16069              	.LLST55:
 16070 0f85 82010000 		.4byte	.LVL129
 16071 0f89 90010000 		.4byte	.LVL133
 16072 0f8d 0100     		.2byte	0x1
 16073 0f8f 56       		.byte	0x56
 16074 0f90 00000000 		.4byte	0
 16075 0f94 00000000 		.4byte	0
 16076              	.LLST56:
 16077 0f98 82010000 		.4byte	.LVL129
 16078 0f9c 84010000 		.4byte	.LVL130
 16079 0fa0 0100     		.2byte	0x1
 16080 0fa2 54       		.byte	0x54
 16081 0fa3 00000000 		.4byte	0
 16082 0fa7 00000000 		.4byte	0
 16083              	.LLST57:
 16084 0fab 82010000 		.4byte	.LVL129
 16085 0faf 90010000 		.4byte	.LVL133
 16086 0fb3 0100     		.2byte	0x1
 16087 0fb5 55       		.byte	0x55
 16088 0fb6 00000000 		.4byte	0
 16089 0fba 00000000 		.4byte	0
 16090              	.LLST58:
 16091 0fbe 84010000 		.4byte	.LVL130
 16092 0fc2 86010000 		.4byte	.LVL131
 16093 0fc6 0100     		.2byte	0x1
 16094 0fc8 54       		.byte	0x54
 16095 0fc9 00000000 		.4byte	0
 16096 0fcd 00000000 		.4byte	0
 16097              	.LLST59:
 16098 0fd1 96010000 		.4byte	.LVL134
 16099 0fd5 B0010000 		.4byte	.LVL139
 16100 0fd9 0100     		.2byte	0x1
 16101 0fdb 56       		.byte	0x56
 16102 0fdc 00000000 		.4byte	0
 16103 0fe0 00000000 		.4byte	0
 16104              	.LLST60:
 16105 0fe4 96010000 		.4byte	.LVL134
 16106 0fe8 98010000 		.4byte	.LVL135
 16107 0fec 0100     		.2byte	0x1
 16108 0fee 54       		.byte	0x54
 16109 0fef 00000000 		.4byte	0
 16110 0ff3 00000000 		.4byte	0
 16111              	.LLST61:
 16112 0ff7 96010000 		.4byte	.LVL134
ARM GAS  C:\Users\164\AppData\Local\Temp\ccd4XrSZ.s 			page 331


 16113 0ffb B0010000 		.4byte	.LVL139
 16114 0fff 0100     		.2byte	0x1
 16115 1001 55       		.byte	0x55
 16116 1002 00000000 		.4byte	0
 16117 1006 00000000 		.4byte	0
 16118              	.LLST62:
 16119 100a 98010000 		.4byte	.LVL135
 16120 100e 9C010000 		.4byte	.LVL136
 16121 1012 0100     		.2byte	0x1
 16122 1014 54       		.byte	0x54
 16123 1015 00000000 		.4byte	0
 16124 1019 00000000 		.4byte	0
 16125              	.LLST63:
 16126 101d B6010000 		.4byte	.LVL140
 16127 1021 C4010000 		.4byte	.LVL144
 16128 1025 0100     		.2byte	0x1
 16129 1027 56       		.byte	0x56
 16130 1028 00000000 		.4byte	0
 16131 102c 00000000 		.4byte	0
 16132              	.LLST64:
 16133 1030 B6010000 		.4byte	.LVL140
 16134 1034 B8010000 		.4byte	.LVL141
 16135 1038 0100     		.2byte	0x1
 16136 103a 54       		.byte	0x54
 16137 103b 00000000 		.4byte	0
 16138 103f 00000000 		.4byte	0
 16139              	.LLST65:
 16140 1043 B6010000 		.4byte	.LVL140
 16141 1047 C4010000 		.4byte	.LVL144
 16142 104b 0100     		.2byte	0x1
 16143 104d 55       		.byte	0x55
 16144 104e 00000000 		.4byte	0
 16145 1052 00000000 		.4byte	0
 16146              	.LLST66:
 16147 1056 B8010000 		.4byte	.LVL141
 16148 105a BA010000 		.4byte	.LVL142
 16149 105e 0100     		.2byte	0x1
 16150 1060 54       		.byte	0x54
 16151 1061 00000000 		.4byte	0
 16152 1065 00000000 		.4byte	0
 16153              	.LLST67:
 16154 1069 CA010000 		.4byte	.LVL145
 16155 106d D8010000 		.4byte	.LVL149
 16156 1071 0100     		.2byte	0x1
 16157 1073 56       		.byte	0x56
 16158 1074 00000000 		.4byte	0
 16159 1078 00000000 		.4byte	0
 16160              	.LLST68:
 16161 107c CA010000 		.4byte	.LVL145
 16162 1080 CC010000 		.4byte	.LVL146
 16163 1084 0100     		.2byte	0x1
 16164 1086 54       		.byte	0x54
 16165 1087 00000000 		.4byte	0
 16166 108b 00000000 		.4byte	0
 16167              	.LLST69:
 16168 108f CA010000 		.4byte	.LVL145
 16169 1093 D8010000 		.4byte	.LVL149
ARM GAS  C:\Users\164\AppData\Local\Temp\ccd4XrSZ.s 			page 332


 16170 1097 0100     		.2byte	0x1
 16171 1099 55       		.byte	0x55
 16172 109a 00000000 		.4byte	0
 16173 109e 00000000 		.4byte	0
 16174              	.LLST70:
 16175 10a2 CC010000 		.4byte	.LVL146
 16176 10a6 CE010000 		.4byte	.LVL147
 16177 10aa 0100     		.2byte	0x1
 16178 10ac 54       		.byte	0x54
 16179 10ad 00000000 		.4byte	0
 16180 10b1 00000000 		.4byte	0
 16181              	.LLST71:
 16182 10b5 DE010000 		.4byte	.LVL150
 16183 10b9 F6010000 		.4byte	.LVL157
 16184 10bd 0100     		.2byte	0x1
 16185 10bf 56       		.byte	0x56
 16186 10c0 00000000 		.4byte	0
 16187 10c4 00000000 		.4byte	0
 16188              	.LLST72:
 16189 10c8 DE010000 		.4byte	.LVL150
 16190 10cc FE010000 		.4byte	.LVL159
 16191 10d0 0100     		.2byte	0x1
 16192 10d2 54       		.byte	0x54
 16193 10d3 00000000 		.4byte	0
 16194 10d7 00000000 		.4byte	0
 16195              	.LLST73:
 16196 10db DE010000 		.4byte	.LVL150
 16197 10df 0E020000 		.4byte	.LVL161
 16198 10e3 0100     		.2byte	0x1
 16199 10e5 55       		.byte	0x55
 16200 10e6 00000000 		.4byte	0
 16201 10ea 00000000 		.4byte	0
 16202              	.LLST74:
 16203 10ee E0010000 		.4byte	.LVL151
 16204 10f2 10020000 		.4byte	.LVL162
 16205 10f6 0100     		.2byte	0x1
 16206 10f8 57       		.byte	0x57
 16207 10f9 00000000 		.4byte	0
 16208 10fd 00000000 		.4byte	0
 16209              	.LLST75:
 16210 1101 E0010000 		.4byte	.LVL151
 16211 1105 E6010000 		.4byte	.LVL153
 16212 1109 0900     		.2byte	0x9
 16213 110b 74       		.byte	0x74
 16214 110c 00       		.sleb128 0
 16215 110d 09       		.byte	0x9
 16216 110e ED       		.byte	0xed
 16217 110f 24       		.byte	0x24
 16218 1110 09       		.byte	0x9
 16219 1111 F4       		.byte	0xf4
 16220 1112 25       		.byte	0x25
 16221 1113 9F       		.byte	0x9f
 16222 1114 E6010000 		.4byte	.LVL153
 16223 1118 EB010000 		.4byte	.LVL154-1
 16224 111c 0100     		.2byte	0x1
 16225 111e 51       		.byte	0x51
 16226 111f EB010000 		.4byte	.LVL154-1
ARM GAS  C:\Users\164\AppData\Local\Temp\ccd4XrSZ.s 			page 333


 16227 1123 FE010000 		.4byte	.LVL159
 16228 1127 0900     		.2byte	0x9
 16229 1129 74       		.byte	0x74
 16230 112a 00       		.sleb128 0
 16231 112b 09       		.byte	0x9
 16232 112c ED       		.byte	0xed
 16233 112d 24       		.byte	0x24
 16234 112e 09       		.byte	0x9
 16235 112f F4       		.byte	0xf4
 16236 1130 25       		.byte	0x25
 16237 1131 9F       		.byte	0x9f
 16238 1132 00000000 		.4byte	0
 16239 1136 00000000 		.4byte	0
 16240              	.LLST76:
 16241 113a EC010000 		.4byte	.LVL154
 16242 113e EF010000 		.4byte	.LVL155-1
 16243 1142 0100     		.2byte	0x1
 16244 1144 50       		.byte	0x50
 16245 1145 00000000 		.4byte	0
 16246 1149 00000000 		.4byte	0
 16247              	.LLST77:
 16248 114d F2010000 		.4byte	.LVL156
 16249 1151 0E020000 		.4byte	.LVL161
 16250 1155 0100     		.2byte	0x1
 16251 1157 58       		.byte	0x58
 16252 1158 00000000 		.4byte	0
 16253 115c 00000000 		.4byte	0
 16254              	.LLST78:
 16255 1160 14020000 		.4byte	.LVL163
 16256 1164 2C020000 		.4byte	.LVL170
 16257 1168 0100     		.2byte	0x1
 16258 116a 56       		.byte	0x56
 16259 116b 00000000 		.4byte	0
 16260 116f 00000000 		.4byte	0
 16261              	.LLST79:
 16262 1173 14020000 		.4byte	.LVL163
 16263 1177 28020000 		.4byte	.LVL169
 16264 117b 0100     		.2byte	0x1
 16265 117d 54       		.byte	0x54
 16266 117e 00000000 		.4byte	0
 16267 1182 00000000 		.4byte	0
 16268              	.LLST80:
 16269 1186 14020000 		.4byte	.LVL163
 16270 118a 42020000 		.4byte	.LVL171
 16271 118e 0100     		.2byte	0x1
 16272 1190 55       		.byte	0x55
 16273 1191 00000000 		.4byte	0
 16274 1195 00000000 		.4byte	0
 16275              	.LLST81:
 16276 1199 16020000 		.4byte	.LVL164
 16277 119d 44020000 		.4byte	.LVL172
 16278 11a1 0100     		.2byte	0x1
 16279 11a3 57       		.byte	0x57
 16280 11a4 00000000 		.4byte	0
 16281 11a8 00000000 		.4byte	0
 16282              	.LLST82:
 16283 11ac 16020000 		.4byte	.LVL164
ARM GAS  C:\Users\164\AppData\Local\Temp\ccd4XrSZ.s 			page 334


 16284 11b0 1C020000 		.4byte	.LVL166
 16285 11b4 0900     		.2byte	0x9
 16286 11b6 74       		.byte	0x74
 16287 11b7 00       		.sleb128 0
 16288 11b8 09       		.byte	0x9
 16289 11b9 ED       		.byte	0xed
 16290 11ba 24       		.byte	0x24
 16291 11bb 09       		.byte	0x9
 16292 11bc F4       		.byte	0xf4
 16293 11bd 25       		.byte	0x25
 16294 11be 9F       		.byte	0x9f
 16295 11bf 1C020000 		.4byte	.LVL166
 16296 11c3 21020000 		.4byte	.LVL167-1
 16297 11c7 0100     		.2byte	0x1
 16298 11c9 51       		.byte	0x51
 16299 11ca 21020000 		.4byte	.LVL167-1
 16300 11ce 28020000 		.4byte	.LVL169
 16301 11d2 0900     		.2byte	0x9
 16302 11d4 74       		.byte	0x74
 16303 11d5 00       		.sleb128 0
 16304 11d6 09       		.byte	0x9
 16305 11d7 ED       		.byte	0xed
 16306 11d8 24       		.byte	0x24
 16307 11d9 09       		.byte	0x9
 16308 11da F4       		.byte	0xf4
 16309 11db 25       		.byte	0x25
 16310 11dc 9F       		.byte	0x9f
 16311 11dd 00000000 		.4byte	0
 16312 11e1 00000000 		.4byte	0
 16313              	.LLST83:
 16314 11e5 22020000 		.4byte	.LVL167
 16315 11e9 25020000 		.4byte	.LVL168-1
 16316 11ed 0100     		.2byte	0x1
 16317 11ef 50       		.byte	0x50
 16318 11f0 00000000 		.4byte	0
 16319 11f4 00000000 		.4byte	0
 16320              	.LLST84:
 16321 11f8 28020000 		.4byte	.LVL169
 16322 11fc 42020000 		.4byte	.LVL171
 16323 1200 0100     		.2byte	0x1
 16324 1202 54       		.byte	0x54
 16325 1203 00000000 		.4byte	0
 16326 1207 00000000 		.4byte	0
 16327              	.LLST85:
 16328 120b 48020000 		.4byte	.LVL173
 16329 120f 6C020000 		.4byte	.LVL183
 16330 1213 0100     		.2byte	0x1
 16331 1215 56       		.byte	0x56
 16332 1216 00000000 		.4byte	0
 16333 121a 00000000 		.4byte	0
 16334              	.LLST86:
 16335 121e 48020000 		.4byte	.LVL173
 16336 1222 5E020000 		.4byte	.LVL180
 16337 1226 0100     		.2byte	0x1
 16338 1228 54       		.byte	0x54
 16339 1229 00000000 		.4byte	0
 16340 122d 00000000 		.4byte	0
ARM GAS  C:\Users\164\AppData\Local\Temp\ccd4XrSZ.s 			page 335


 16341              	.LLST87:
 16342 1231 48020000 		.4byte	.LVL173
 16343 1235 7A020000 		.4byte	.LVL185
 16344 1239 0100     		.2byte	0x1
 16345 123b 55       		.byte	0x55
 16346 123c 00000000 		.4byte	0
 16347 1240 00000000 		.4byte	0
 16348              	.LLST88:
 16349 1244 4A020000 		.4byte	.LVL174
 16350 1248 7C020000 		.4byte	.LVL186
 16351 124c 0100     		.2byte	0x1
 16352 124e 57       		.byte	0x57
 16353 124f 00000000 		.4byte	0
 16354 1253 00000000 		.4byte	0
 16355              	.LLST89:
 16356 1257 4A020000 		.4byte	.LVL174
 16357 125b 50020000 		.4byte	.LVL176
 16358 125f 0900     		.2byte	0x9
 16359 1261 74       		.byte	0x74
 16360 1262 00       		.sleb128 0
 16361 1263 09       		.byte	0x9
 16362 1264 ED       		.byte	0xed
 16363 1265 24       		.byte	0x24
 16364 1266 09       		.byte	0x9
 16365 1267 F4       		.byte	0xf4
 16366 1268 25       		.byte	0x25
 16367 1269 9F       		.byte	0x9f
 16368 126a 50020000 		.4byte	.LVL176
 16369 126e 55020000 		.4byte	.LVL177-1
 16370 1272 0100     		.2byte	0x1
 16371 1274 51       		.byte	0x51
 16372 1275 55020000 		.4byte	.LVL177-1
 16373 1279 5E020000 		.4byte	.LVL180
 16374 127d 0900     		.2byte	0x9
 16375 127f 74       		.byte	0x74
 16376 1280 00       		.sleb128 0
 16377 1281 09       		.byte	0x9
 16378 1282 ED       		.byte	0xed
 16379 1283 24       		.byte	0x24
 16380 1284 09       		.byte	0x9
 16381 1285 F4       		.byte	0xf4
 16382 1286 25       		.byte	0x25
 16383 1287 9F       		.byte	0x9f
 16384 1288 00000000 		.4byte	0
 16385 128c 00000000 		.4byte	0
 16386              	.LLST90:
 16387 1290 56020000 		.4byte	.LVL177
 16388 1294 58020000 		.4byte	.LVL178
 16389 1298 0100     		.2byte	0x1
 16390 129a 50       		.byte	0x50
 16391 129b 58020000 		.4byte	.LVL178
 16392 129f 5B020000 		.4byte	.LVL179-1
 16393 12a3 0300     		.2byte	0x3
 16394 12a5 70       		.byte	0x70
 16395 12a6 7F       		.sleb128 -1
 16396 12a7 9F       		.byte	0x9f
 16397 12a8 00000000 		.4byte	0
ARM GAS  C:\Users\164\AppData\Local\Temp\ccd4XrSZ.s 			page 336


 16398 12ac 00000000 		.4byte	0
 16399              	.LLST91:
 16400 12b0 5C020000 		.4byte	.LVL179
 16401 12b4 64020000 		.4byte	.LVL181
 16402 12b8 0100     		.2byte	0x1
 16403 12ba 50       		.byte	0x50
 16404 12bb 00000000 		.4byte	0
 16405 12bf 00000000 		.4byte	0
 16406              	.LLST92:
 16407 12c3 80020000 		.4byte	.LVL187
 16408 12c7 A0020000 		.4byte	.LVL195
 16409 12cb 0100     		.2byte	0x1
 16410 12cd 56       		.byte	0x56
 16411 12ce 00000000 		.4byte	0
 16412 12d2 00000000 		.4byte	0
 16413              	.LLST93:
 16414 12d6 80020000 		.4byte	.LVL187
 16415 12da A0020000 		.4byte	.LVL195
 16416 12de 0100     		.2byte	0x1
 16417 12e0 54       		.byte	0x54
 16418 12e1 00000000 		.4byte	0
 16419 12e5 00000000 		.4byte	0
 16420              	.LLST94:
 16421 12e9 80020000 		.4byte	.LVL187
 16422 12ed A0020000 		.4byte	.LVL195
 16423 12f1 0100     		.2byte	0x1
 16424 12f3 55       		.byte	0x55
 16425 12f4 00000000 		.4byte	0
 16426 12f8 00000000 		.4byte	0
 16427              	.LLST95:
 16428 12fc 82020000 		.4byte	.LVL188
 16429 1300 A2020000 		.4byte	.LVL196
 16430 1304 0100     		.2byte	0x1
 16431 1306 57       		.byte	0x57
 16432 1307 A2020000 		.4byte	.LVL196
 16433 130b A6020000 		.4byte	.LVL197
 16434 130f 0500     		.2byte	0x5
 16435 1311 74       		.byte	0x74
 16436 1312 00       		.sleb128 0
 16437 1313 47       		.byte	0x47
 16438 1314 25       		.byte	0x25
 16439 1315 9F       		.byte	0x9f
 16440 1316 00000000 		.4byte	0
 16441 131a 00000000 		.4byte	0
 16442              	.LLST96:
 16443 131e 82020000 		.4byte	.LVL188
 16444 1322 88020000 		.4byte	.LVL190
 16445 1326 0900     		.2byte	0x9
 16446 1328 74       		.byte	0x74
 16447 1329 00       		.sleb128 0
 16448 132a 09       		.byte	0x9
 16449 132b ED       		.byte	0xed
 16450 132c 24       		.byte	0x24
 16451 132d 09       		.byte	0x9
 16452 132e F4       		.byte	0xf4
 16453 132f 25       		.byte	0x25
 16454 1330 9F       		.byte	0x9f
ARM GAS  C:\Users\164\AppData\Local\Temp\ccd4XrSZ.s 			page 337


 16455 1331 88020000 		.4byte	.LVL190
 16456 1335 8D020000 		.4byte	.LVL191-1
 16457 1339 0100     		.2byte	0x1
 16458 133b 51       		.byte	0x51
 16459 133c 8D020000 		.4byte	.LVL191-1
 16460 1340 A0020000 		.4byte	.LVL195
 16461 1344 0900     		.2byte	0x9
 16462 1346 74       		.byte	0x74
 16463 1347 00       		.sleb128 0
 16464 1348 09       		.byte	0x9
 16465 1349 ED       		.byte	0xed
 16466 134a 24       		.byte	0x24
 16467 134b 09       		.byte	0x9
 16468 134c F4       		.byte	0xf4
 16469 134d 25       		.byte	0x25
 16470 134e 9F       		.byte	0x9f
 16471 134f 00000000 		.4byte	0
 16472 1353 00000000 		.4byte	0
 16473              	.LLST97:
 16474 1357 8E020000 		.4byte	.LVL191
 16475 135b 90020000 		.4byte	.LVL192
 16476 135f 0100     		.2byte	0x1
 16477 1361 50       		.byte	0x50
 16478 1362 90020000 		.4byte	.LVL192
 16479 1366 93020000 		.4byte	.LVL193-1
 16480 136a 0300     		.2byte	0x3
 16481 136c 70       		.byte	0x70
 16482 136d 7F       		.sleb128 -1
 16483 136e 9F       		.byte	0x9f
 16484 136f 00000000 		.4byte	0
 16485 1373 00000000 		.4byte	0
 16486              	.LLST98:
 16487 1377 94020000 		.4byte	.LVL193
 16488 137b 9C020000 		.4byte	.LVL194
 16489 137f 0100     		.2byte	0x1
 16490 1381 50       		.byte	0x50
 16491 1382 00000000 		.4byte	0
 16492 1386 00000000 		.4byte	0
 16493              	.LLST99:
 16494 138a A6020000 		.4byte	.LVL197
 16495 138e BE020000 		.4byte	.LVL204
 16496 1392 0100     		.2byte	0x1
 16497 1394 56       		.byte	0x56
 16498 1395 00000000 		.4byte	0
 16499 1399 00000000 		.4byte	0
 16500              	.LLST100:
 16501 139d A6020000 		.4byte	.LVL197
 16502 13a1 C6020000 		.4byte	.LVL206
 16503 13a5 0100     		.2byte	0x1
 16504 13a7 54       		.byte	0x54
 16505 13a8 00000000 		.4byte	0
 16506 13ac 00000000 		.4byte	0
 16507              	.LLST101:
 16508 13b0 A6020000 		.4byte	.LVL197
 16509 13b4 D6020000 		.4byte	.LVL208
 16510 13b8 0100     		.2byte	0x1
 16511 13ba 55       		.byte	0x55
ARM GAS  C:\Users\164\AppData\Local\Temp\ccd4XrSZ.s 			page 338


 16512 13bb 00000000 		.4byte	0
 16513 13bf 00000000 		.4byte	0
 16514              	.LLST102:
 16515 13c3 A8020000 		.4byte	.LVL198
 16516 13c7 D8020000 		.4byte	.LVL209
 16517 13cb 0100     		.2byte	0x1
 16518 13cd 57       		.byte	0x57
 16519 13ce 00000000 		.4byte	0
 16520 13d2 00000000 		.4byte	0
 16521              	.LLST103:
 16522 13d6 A8020000 		.4byte	.LVL198
 16523 13da AE020000 		.4byte	.LVL200
 16524 13de 0900     		.2byte	0x9
 16525 13e0 74       		.byte	0x74
 16526 13e1 00       		.sleb128 0
 16527 13e2 09       		.byte	0x9
 16528 13e3 ED       		.byte	0xed
 16529 13e4 24       		.byte	0x24
 16530 13e5 09       		.byte	0x9
 16531 13e6 F4       		.byte	0xf4
 16532 13e7 25       		.byte	0x25
 16533 13e8 9F       		.byte	0x9f
 16534 13e9 AE020000 		.4byte	.LVL200
 16535 13ed B3020000 		.4byte	.LVL201-1
 16536 13f1 0100     		.2byte	0x1
 16537 13f3 51       		.byte	0x51
 16538 13f4 B3020000 		.4byte	.LVL201-1
 16539 13f8 C6020000 		.4byte	.LVL206
 16540 13fc 0900     		.2byte	0x9
 16541 13fe 74       		.byte	0x74
 16542 13ff 00       		.sleb128 0
 16543 1400 09       		.byte	0x9
 16544 1401 ED       		.byte	0xed
 16545 1402 24       		.byte	0x24
 16546 1403 09       		.byte	0x9
 16547 1404 F4       		.byte	0xf4
 16548 1405 25       		.byte	0x25
 16549 1406 9F       		.byte	0x9f
 16550 1407 00000000 		.4byte	0
 16551 140b 00000000 		.4byte	0
 16552              	.LLST104:
 16553 140f B4020000 		.4byte	.LVL201
 16554 1413 B7020000 		.4byte	.LVL202-1
 16555 1417 0100     		.2byte	0x1
 16556 1419 50       		.byte	0x50
 16557 141a 00000000 		.4byte	0
 16558 141e 00000000 		.4byte	0
 16559              	.LLST105:
 16560 1422 BA020000 		.4byte	.LVL203
 16561 1426 D6020000 		.4byte	.LVL208
 16562 142a 0100     		.2byte	0x1
 16563 142c 58       		.byte	0x58
 16564 142d 00000000 		.4byte	0
 16565 1431 00000000 		.4byte	0
 16566              	.LLST106:
 16567 1435 DC020000 		.4byte	.LVL210
 16568 1439 F6020000 		.4byte	.LVL216
ARM GAS  C:\Users\164\AppData\Local\Temp\ccd4XrSZ.s 			page 339


 16569 143d 0100     		.2byte	0x1
 16570 143f 56       		.byte	0x56
 16571 1440 00000000 		.4byte	0
 16572 1444 00000000 		.4byte	0
 16573              	.LLST107:
 16574 1448 DC020000 		.4byte	.LVL210
 16575 144c F6020000 		.4byte	.LVL216
 16576 1450 0100     		.2byte	0x1
 16577 1452 54       		.byte	0x54
 16578 1453 00000000 		.4byte	0
 16579 1457 00000000 		.4byte	0
 16580              	.LLST108:
 16581 145b DC020000 		.4byte	.LVL210
 16582 145f F6020000 		.4byte	.LVL216
 16583 1463 0100     		.2byte	0x1
 16584 1465 55       		.byte	0x55
 16585 1466 00000000 		.4byte	0
 16586 146a 00000000 		.4byte	0
 16587              	.LLST109:
 16588 146e DE020000 		.4byte	.LVL211
 16589 1472 F8020000 		.4byte	.LVL217
 16590 1476 0100     		.2byte	0x1
 16591 1478 57       		.byte	0x57
 16592 1479 F8020000 		.4byte	.LVL217
 16593 147d FC020000 		.4byte	.LVL218
 16594 1481 0500     		.2byte	0x5
 16595 1483 74       		.byte	0x74
 16596 1484 00       		.sleb128 0
 16597 1485 47       		.byte	0x47
 16598 1486 25       		.byte	0x25
 16599 1487 9F       		.byte	0x9f
 16600 1488 00000000 		.4byte	0
 16601 148c 00000000 		.4byte	0
 16602              	.LLST110:
 16603 1490 DE020000 		.4byte	.LVL211
 16604 1494 E4020000 		.4byte	.LVL213
 16605 1498 0900     		.2byte	0x9
 16606 149a 74       		.byte	0x74
 16607 149b 00       		.sleb128 0
 16608 149c 09       		.byte	0x9
 16609 149d ED       		.byte	0xed
 16610 149e 24       		.byte	0x24
 16611 149f 09       		.byte	0x9
 16612 14a0 F4       		.byte	0xf4
 16613 14a1 25       		.byte	0x25
 16614 14a2 9F       		.byte	0x9f
 16615 14a3 E4020000 		.4byte	.LVL213
 16616 14a7 E9020000 		.4byte	.LVL214-1
 16617 14ab 0100     		.2byte	0x1
 16618 14ad 51       		.byte	0x51
 16619 14ae E9020000 		.4byte	.LVL214-1
 16620 14b2 F6020000 		.4byte	.LVL216
 16621 14b6 0900     		.2byte	0x9
 16622 14b8 74       		.byte	0x74
 16623 14b9 00       		.sleb128 0
 16624 14ba 09       		.byte	0x9
 16625 14bb ED       		.byte	0xed
ARM GAS  C:\Users\164\AppData\Local\Temp\ccd4XrSZ.s 			page 340


 16626 14bc 24       		.byte	0x24
 16627 14bd 09       		.byte	0x9
 16628 14be F4       		.byte	0xf4
 16629 14bf 25       		.byte	0x25
 16630 14c0 9F       		.byte	0x9f
 16631 14c1 00000000 		.4byte	0
 16632 14c5 00000000 		.4byte	0
 16633              	.LLST111:
 16634 14c9 EA020000 		.4byte	.LVL214
 16635 14cd ED020000 		.4byte	.LVL215-1
 16636 14d1 0100     		.2byte	0x1
 16637 14d3 50       		.byte	0x50
 16638 14d4 00000000 		.4byte	0
 16639 14d8 00000000 		.4byte	0
 16640              	.LLST112:
 16641 14dc EE020000 		.4byte	.LVL215
 16642 14e0 F5020000 		.4byte	.LVL216-1
 16643 14e4 0100     		.2byte	0x1
 16644 14e6 50       		.byte	0x50
 16645 14e7 00000000 		.4byte	0
 16646 14eb 00000000 		.4byte	0
 16647              	.LLST113:
 16648 14ef FC020000 		.4byte	.LVL218
 16649 14f3 1E030000 		.4byte	.LVL228
 16650 14f7 0100     		.2byte	0x1
 16651 14f9 56       		.byte	0x56
 16652 14fa 1E030000 		.4byte	.LVL228
 16653 14fe 23030000 		.4byte	.LVL229-1
 16654 1502 0300     		.2byte	0x3
 16655 1504 75       		.byte	0x75
 16656 1505 D80C     		.sleb128 1624
 16657 1507 00000000 		.4byte	0
 16658 150b 00000000 		.4byte	0
 16659              	.LLST114:
 16660 150f FC020000 		.4byte	.LVL218
 16661 1513 1A030000 		.4byte	.LVL227
 16662 1517 0100     		.2byte	0x1
 16663 1519 54       		.byte	0x54
 16664 151a 00000000 		.4byte	0
 16665 151e 00000000 		.4byte	0
 16666              	.LLST115:
 16667 1522 FC020000 		.4byte	.LVL218
 16668 1526 36030000 		.4byte	.LVL232
 16669 152a 0100     		.2byte	0x1
 16670 152c 55       		.byte	0x55
 16671 152d 00000000 		.4byte	0
 16672 1531 00000000 		.4byte	0
 16673              	.LLST116:
 16674 1535 FE020000 		.4byte	.LVL219
 16675 1539 23030000 		.4byte	.LVL229-1
 16676 153d 0100     		.2byte	0x1
 16677 153f 51       		.byte	0x51
 16678 1540 00000000 		.4byte	0
 16679 1544 00000000 		.4byte	0
 16680              	.LLST117:
 16681 1548 02030000 		.4byte	.LVL220
 16682 154c 28030000 		.4byte	.LVL230
ARM GAS  C:\Users\164\AppData\Local\Temp\ccd4XrSZ.s 			page 341


 16683 1550 0100     		.2byte	0x1
 16684 1552 57       		.byte	0x57
 16685 1553 00000000 		.4byte	0
 16686 1557 00000000 		.4byte	0
 16687              	.LLST118:
 16688 155b 06030000 		.4byte	.LVL221
 16689 155f 0C030000 		.4byte	.LVL223
 16690 1563 0100     		.2byte	0x1
 16691 1565 53       		.byte	0x53
 16692 1566 0C030000 		.4byte	.LVL223
 16693 156a 1A030000 		.4byte	.LVL227
 16694 156e 0900     		.2byte	0x9
 16695 1570 74       		.byte	0x74
 16696 1571 00       		.sleb128 0
 16697 1572 09       		.byte	0x9
 16698 1573 F6       		.byte	0xf6
 16699 1574 24       		.byte	0x24
 16700 1575 09       		.byte	0x9
 16701 1576 FD       		.byte	0xfd
 16702 1577 25       		.byte	0x25
 16703 1578 9F       		.byte	0x9f
 16704 1579 00000000 		.4byte	0
 16705 157d 00000000 		.4byte	0
 16706              	.LLST119:
 16707 1581 0A030000 		.4byte	.LVL222
 16708 1585 23030000 		.4byte	.LVL229-1
 16709 1589 0100     		.2byte	0x1
 16710 158b 52       		.byte	0x52
 16711 158c 00000000 		.4byte	0
 16712 1590 00000000 		.4byte	0
 16713              	.LLST120:
 16714 1594 0E030000 		.4byte	.LVL224
 16715 1598 23030000 		.4byte	.LVL229-1
 16716 159c 0100     		.2byte	0x1
 16717 159e 53       		.byte	0x53
 16718 159f 00000000 		.4byte	0
 16719 15a3 00000000 		.4byte	0
 16720              	.LLST121:
 16721 15a7 1A030000 		.4byte	.LVL227
 16722 15ab 36030000 		.4byte	.LVL232
 16723 15af 0100     		.2byte	0x1
 16724 15b1 54       		.byte	0x54
 16725 15b2 00000000 		.4byte	0
 16726 15b6 00000000 		.4byte	0
 16727              	.LLST122:
 16728 15ba 3C030000 		.4byte	.LVL233
 16729 15be 68030000 		.4byte	.LVL245
 16730 15c2 0100     		.2byte	0x1
 16731 15c4 56       		.byte	0x56
 16732 15c5 00000000 		.4byte	0
 16733 15c9 00000000 		.4byte	0
 16734              	.LLST123:
 16735 15cd 3C030000 		.4byte	.LVL233
 16736 15d1 5E030000 		.4byte	.LVL243
 16737 15d5 0100     		.2byte	0x1
 16738 15d7 54       		.byte	0x54
 16739 15d8 00000000 		.4byte	0
ARM GAS  C:\Users\164\AppData\Local\Temp\ccd4XrSZ.s 			page 342


 16740 15dc 00000000 		.4byte	0
 16741              	.LLST124:
 16742 15e0 3C030000 		.4byte	.LVL233
 16743 15e4 76030000 		.4byte	.LVL247
 16744 15e8 0100     		.2byte	0x1
 16745 15ea 55       		.byte	0x55
 16746 15eb 00000000 		.4byte	0
 16747 15ef 00000000 		.4byte	0
 16748              	.LLST125:
 16749 15f3 3E030000 		.4byte	.LVL234
 16750 15f7 78030000 		.4byte	.LVL248
 16751 15fb 0100     		.2byte	0x1
 16752 15fd 57       		.byte	0x57
 16753 15fe 00000000 		.4byte	0
 16754 1602 00000000 		.4byte	0
 16755              	.LLST126:
 16756 1606 42030000 		.4byte	.LVL235
 16757 160a 63030000 		.4byte	.LVL244-1
 16758 160e 0100     		.2byte	0x1
 16759 1610 51       		.byte	0x51
 16760 1611 00000000 		.4byte	0
 16761 1615 00000000 		.4byte	0
 16762              	.LLST127:
 16763 1619 46030000 		.4byte	.LVL236
 16764 161d 4C030000 		.4byte	.LVL238
 16765 1621 0100     		.2byte	0x1
 16766 1623 53       		.byte	0x53
 16767 1624 4C030000 		.4byte	.LVL238
 16768 1628 5E030000 		.4byte	.LVL243
 16769 162c 0900     		.2byte	0x9
 16770 162e 74       		.byte	0x74
 16771 162f 00       		.sleb128 0
 16772 1630 09       		.byte	0x9
 16773 1631 F6       		.byte	0xf6
 16774 1632 24       		.byte	0x24
 16775 1633 09       		.byte	0x9
 16776 1634 FD       		.byte	0xfd
 16777 1635 25       		.byte	0x25
 16778 1636 9F       		.byte	0x9f
 16779 1637 00000000 		.4byte	0
 16780 163b 00000000 		.4byte	0
 16781              	.LLST128:
 16782 163f 4A030000 		.4byte	.LVL237
 16783 1643 63030000 		.4byte	.LVL244-1
 16784 1647 0100     		.2byte	0x1
 16785 1649 52       		.byte	0x52
 16786 164a 00000000 		.4byte	0
 16787 164e 00000000 		.4byte	0
 16788              	.LLST129:
 16789 1652 4E030000 		.4byte	.LVL239
 16790 1656 5A030000 		.4byte	.LVL242
 16791 165a 0100     		.2byte	0x1
 16792 165c 53       		.byte	0x53
 16793 165d 00000000 		.4byte	0
 16794 1661 00000000 		.4byte	0
 16795              	.LLST130:
 16796 1665 5A030000 		.4byte	.LVL242
ARM GAS  C:\Users\164\AppData\Local\Temp\ccd4XrSZ.s 			page 343


 16797 1669 63030000 		.4byte	.LVL244-1
 16798 166d 0100     		.2byte	0x1
 16799 166f 53       		.byte	0x53
 16800 1670 00000000 		.4byte	0
 16801 1674 00000000 		.4byte	0
 16802              	.LLST131:
 16803 1678 7C030000 		.4byte	.LVL249
 16804 167c 86030000 		.4byte	.LVL250
 16805 1680 0100     		.2byte	0x1
 16806 1682 56       		.byte	0x56
 16807 1683 00000000 		.4byte	0
 16808 1687 00000000 		.4byte	0
 16809              	.LLST132:
 16810 168b 7C030000 		.4byte	.LVL249
 16811 168f 86030000 		.4byte	.LVL250
 16812 1693 0100     		.2byte	0x1
 16813 1695 54       		.byte	0x54
 16814 1696 00000000 		.4byte	0
 16815 169a 00000000 		.4byte	0
 16816              	.LLST133:
 16817 169e 7C030000 		.4byte	.LVL249
 16818 16a2 86030000 		.4byte	.LVL250
 16819 16a6 0100     		.2byte	0x1
 16820 16a8 55       		.byte	0x55
 16821 16a9 00000000 		.4byte	0
 16822 16ad 00000000 		.4byte	0
 16823              	.LLST134:
 16824 16b1 8C030000 		.4byte	.LVL251
 16825 16b5 A8030000 		.4byte	.LVL254
 16826 16b9 0100     		.2byte	0x1
 16827 16bb 56       		.byte	0x56
 16828 16bc D8160000 		.4byte	.LVL909
 16829 16c0 DC160000 		.4byte	.LVL911
 16830 16c4 0100     		.2byte	0x1
 16831 16c6 56       		.byte	0x56
 16832 16c7 00000000 		.4byte	0
 16833 16cb 00000000 		.4byte	0
 16834              	.LLST135:
 16835 16cf 8C030000 		.4byte	.LVL251
 16836 16d3 A8030000 		.4byte	.LVL254
 16837 16d7 0100     		.2byte	0x1
 16838 16d9 54       		.byte	0x54
 16839 16da D8160000 		.4byte	.LVL909
 16840 16de DC160000 		.4byte	.LVL911
 16841 16e2 0100     		.2byte	0x1
 16842 16e4 54       		.byte	0x54
 16843 16e5 00000000 		.4byte	0
 16844 16e9 00000000 		.4byte	0
 16845              	.LLST136:
 16846 16ed 8C030000 		.4byte	.LVL251
 16847 16f1 A8030000 		.4byte	.LVL254
 16848 16f5 0100     		.2byte	0x1
 16849 16f7 55       		.byte	0x55
 16850 16f8 D8160000 		.4byte	.LVL909
 16851 16fc DC160000 		.4byte	.LVL911
 16852 1700 0100     		.2byte	0x1
 16853 1702 55       		.byte	0x55
ARM GAS  C:\Users\164\AppData\Local\Temp\ccd4XrSZ.s 			page 344


 16854 1703 00000000 		.4byte	0
 16855 1707 00000000 		.4byte	0
 16856              	.LLST137:
 16857 170b A8030000 		.4byte	.LVL254
 16858 170f C4030000 		.4byte	.LVL257
 16859 1713 0100     		.2byte	0x1
 16860 1715 56       		.byte	0x56
 16861 1716 DC160000 		.4byte	.LVL911
 16862 171a E0160000 		.4byte	.LVL913
 16863 171e 0100     		.2byte	0x1
 16864 1720 56       		.byte	0x56
 16865 1721 00000000 		.4byte	0
 16866 1725 00000000 		.4byte	0
 16867              	.LLST138:
 16868 1729 A8030000 		.4byte	.LVL254
 16869 172d C4030000 		.4byte	.LVL257
 16870 1731 0100     		.2byte	0x1
 16871 1733 54       		.byte	0x54
 16872 1734 DC160000 		.4byte	.LVL911
 16873 1738 E0160000 		.4byte	.LVL913
 16874 173c 0100     		.2byte	0x1
 16875 173e 54       		.byte	0x54
 16876 173f 00000000 		.4byte	0
 16877 1743 00000000 		.4byte	0
 16878              	.LLST139:
 16879 1747 A8030000 		.4byte	.LVL254
 16880 174b C4030000 		.4byte	.LVL257
 16881 174f 0100     		.2byte	0x1
 16882 1751 55       		.byte	0x55
 16883 1752 DC160000 		.4byte	.LVL911
 16884 1756 E0160000 		.4byte	.LVL913
 16885 175a 0100     		.2byte	0x1
 16886 175c 55       		.byte	0x55
 16887 175d 00000000 		.4byte	0
 16888 1761 00000000 		.4byte	0
 16889              	.LLST140:
 16890 1765 C4030000 		.4byte	.LVL257
 16891 1769 9A040000 		.4byte	.LVL286
 16892 176d 0100     		.2byte	0x1
 16893 176f 56       		.byte	0x56
 16894 1770 00000000 		.4byte	0
 16895 1774 00000000 		.4byte	0
 16896              	.LLST141:
 16897 1778 C4030000 		.4byte	.LVL257
 16898 177c F0030000 		.4byte	.LVL264
 16899 1780 0100     		.2byte	0x1
 16900 1782 54       		.byte	0x54
 16901 1783 00000000 		.4byte	0
 16902 1787 00000000 		.4byte	0
 16903              	.LLST142:
 16904 178b C4030000 		.4byte	.LVL257
 16905 178f 9A040000 		.4byte	.LVL286
 16906 1793 0100     		.2byte	0x1
 16907 1795 55       		.byte	0x55
 16908 1796 00000000 		.4byte	0
 16909 179a 00000000 		.4byte	0
 16910              	.LLST143:
ARM GAS  C:\Users\164\AppData\Local\Temp\ccd4XrSZ.s 			page 345


 16911 179e C6030000 		.4byte	.LVL258
 16912 17a2 6E040000 		.4byte	.LVL279
 16913 17a6 0100     		.2byte	0x1
 16914 17a8 57       		.byte	0x57
 16915 17a9 6E040000 		.4byte	.LVL279
 16916 17ad 70040000 		.4byte	.LVL280
 16917 17b1 0300     		.2byte	0x3
 16918 17b3 77       		.byte	0x77
 16919 17b4 7F       		.sleb128 -1
 16920 17b5 9F       		.byte	0x9f
 16921 17b6 80040000 		.4byte	.LVL283
 16922 17ba 9A040000 		.4byte	.LVL286
 16923 17be 0100     		.2byte	0x1
 16924 17c0 57       		.byte	0x57
 16925 17c1 00000000 		.4byte	0
 16926 17c5 00000000 		.4byte	0
 16927              	.LLST144:
 16928 17c9 CC030000 		.4byte	.LVL260
 16929 17cd DC030000 		.4byte	.LVL262
 16930 17d1 0100     		.2byte	0x1
 16931 17d3 53       		.byte	0x53
 16932 17d4 DC030000 		.4byte	.LVL262
 16933 17d8 24040000 		.4byte	.LVL267
 16934 17dc 0300     		.2byte	0x3
 16935 17de 91       		.byte	0x91
 16936 17df B07F     		.sleb128 -80
 16937 17e1 00000000 		.4byte	0
 16938 17e5 00000000 		.4byte	0
 16939              	.LLST145:
 16940 17e9 D0030000 		.4byte	.LVL261
 16941 17ed 9A040000 		.4byte	.LVL286
 16942 17f1 0100     		.2byte	0x1
 16943 17f3 5B       		.byte	0x5b
 16944 17f4 00000000 		.4byte	0
 16945 17f8 00000000 		.4byte	0
 16946              	.LLST146:
 16947 17fc EC030000 		.4byte	.LVL263
 16948 1800 9A040000 		.4byte	.LVL286
 16949 1804 0100     		.2byte	0x1
 16950 1806 58       		.byte	0x58
 16951 1807 00000000 		.4byte	0
 16952 180b 00000000 		.4byte	0
 16953              	.LLST147:
 16954 180f 24040000 		.4byte	.LVL267
 16955 1813 27040000 		.4byte	.LVL268-1
 16956 1817 0100     		.2byte	0x1
 16957 1819 50       		.byte	0x50
 16958 181a 27040000 		.4byte	.LVL268-1
 16959 181e 9A040000 		.4byte	.LVL286
 16960 1822 0300     		.2byte	0x3
 16961 1824 91       		.byte	0x91
 16962 1825 B07F     		.sleb128 -80
 16963 1827 00000000 		.4byte	0
 16964 182b 00000000 		.4byte	0
 16965              	.LLST148:
 16966 182f 28040000 		.4byte	.LVL268
 16967 1833 2E040000 		.4byte	.LVL269
ARM GAS  C:\Users\164\AppData\Local\Temp\ccd4XrSZ.s 			page 346


 16968 1837 0100     		.2byte	0x1
 16969 1839 50       		.byte	0x50
 16970 183a 00000000 		.4byte	0
 16971 183e 00000000 		.4byte	0
 16972              	.LLST149:
 16973 1842 32040000 		.4byte	.LVL270
 16974 1846 3A040000 		.4byte	.LVL271
 16975 184a 0100     		.2byte	0x1
 16976 184c 50       		.byte	0x50
 16977 184d 3A040000 		.4byte	.LVL271
 16978 1851 52040000 		.4byte	.LVL276
 16979 1855 0100     		.2byte	0x1
 16980 1857 54       		.byte	0x54
 16981 1858 52040000 		.4byte	.LVL276
 16982 185c 62040000 		.4byte	.LVL277
 16983 1860 0100     		.2byte	0x1
 16984 1862 50       		.byte	0x50
 16985 1863 62040000 		.4byte	.LVL277
 16986 1867 80040000 		.4byte	.LVL283
 16987 186b 0100     		.2byte	0x1
 16988 186d 54       		.byte	0x54
 16989 186e 80040000 		.4byte	.LVL283
 16990 1872 84040000 		.4byte	.LVL284
 16991 1876 0100     		.2byte	0x1
 16992 1878 50       		.byte	0x50
 16993 1879 84040000 		.4byte	.LVL284
 16994 187d 9A040000 		.4byte	.LVL286
 16995 1881 0100     		.2byte	0x1
 16996 1883 54       		.byte	0x54
 16997 1884 00000000 		.4byte	0
 16998 1888 00000000 		.4byte	0
 16999              	.LLST150:
 17000 188c 3E040000 		.4byte	.LVL272
 17001 1890 42040000 		.4byte	.LVL273
 17002 1894 0100     		.2byte	0x1
 17003 1896 50       		.byte	0x50
 17004 1897 00000000 		.4byte	0
 17005 189b 00000000 		.4byte	0
 17006              	.LLST151:
 17007 189f 6E040000 		.4byte	.LVL279
 17008 18a3 80040000 		.4byte	.LVL283
 17009 18a7 0100     		.2byte	0x1
 17010 18a9 57       		.byte	0x57
 17011 18aa 00000000 		.4byte	0
 17012 18ae 00000000 		.4byte	0
 17013              	.LLST152:
 17014 18b2 A0040000 		.4byte	.LVL287
 17015 18b6 76050000 		.4byte	.LVL316
 17016 18ba 0100     		.2byte	0x1
 17017 18bc 56       		.byte	0x56
 17018 18bd 00000000 		.4byte	0
 17019 18c1 00000000 		.4byte	0
 17020              	.LLST153:
 17021 18c5 A0040000 		.4byte	.LVL287
 17022 18c9 CC040000 		.4byte	.LVL294
 17023 18cd 0100     		.2byte	0x1
 17024 18cf 54       		.byte	0x54
ARM GAS  C:\Users\164\AppData\Local\Temp\ccd4XrSZ.s 			page 347


 17025 18d0 00000000 		.4byte	0
 17026 18d4 00000000 		.4byte	0
 17027              	.LLST154:
 17028 18d8 A0040000 		.4byte	.LVL287
 17029 18dc 76050000 		.4byte	.LVL316
 17030 18e0 0100     		.2byte	0x1
 17031 18e2 55       		.byte	0x55
 17032 18e3 00000000 		.4byte	0
 17033 18e7 00000000 		.4byte	0
 17034              	.LLST155:
 17035 18eb A2040000 		.4byte	.LVL288
 17036 18ef 4A050000 		.4byte	.LVL309
 17037 18f3 0100     		.2byte	0x1
 17038 18f5 57       		.byte	0x57
 17039 18f6 4A050000 		.4byte	.LVL309
 17040 18fa 4C050000 		.4byte	.LVL310
 17041 18fe 0300     		.2byte	0x3
 17042 1900 77       		.byte	0x77
 17043 1901 7F       		.sleb128 -1
 17044 1902 9F       		.byte	0x9f
 17045 1903 5C050000 		.4byte	.LVL313
 17046 1907 76050000 		.4byte	.LVL316
 17047 190b 0100     		.2byte	0x1
 17048 190d 57       		.byte	0x57
 17049 190e 00000000 		.4byte	0
 17050 1912 00000000 		.4byte	0
 17051              	.LLST156:
 17052 1916 A8040000 		.4byte	.LVL290
 17053 191a B8040000 		.4byte	.LVL292
 17054 191e 0100     		.2byte	0x1
 17055 1920 53       		.byte	0x53
 17056 1921 B8040000 		.4byte	.LVL292
 17057 1925 00050000 		.4byte	.LVL297
 17058 1929 0300     		.2byte	0x3
 17059 192b 91       		.byte	0x91
 17060 192c B07F     		.sleb128 -80
 17061 192e 00000000 		.4byte	0
 17062 1932 00000000 		.4byte	0
 17063              	.LLST157:
 17064 1936 AC040000 		.4byte	.LVL291
 17065 193a 76050000 		.4byte	.LVL316
 17066 193e 0100     		.2byte	0x1
 17067 1940 5B       		.byte	0x5b
 17068 1941 00000000 		.4byte	0
 17069 1945 00000000 		.4byte	0
 17070              	.LLST158:
 17071 1949 C8040000 		.4byte	.LVL293
 17072 194d 76050000 		.4byte	.LVL316
 17073 1951 0100     		.2byte	0x1
 17074 1953 58       		.byte	0x58
 17075 1954 00000000 		.4byte	0
 17076 1958 00000000 		.4byte	0
 17077              	.LLST159:
 17078 195c 00050000 		.4byte	.LVL297
 17079 1960 03050000 		.4byte	.LVL298-1
 17080 1964 0100     		.2byte	0x1
 17081 1966 50       		.byte	0x50
ARM GAS  C:\Users\164\AppData\Local\Temp\ccd4XrSZ.s 			page 348


 17082 1967 03050000 		.4byte	.LVL298-1
 17083 196b 76050000 		.4byte	.LVL316
 17084 196f 0300     		.2byte	0x3
 17085 1971 91       		.byte	0x91
 17086 1972 B07F     		.sleb128 -80
 17087 1974 00000000 		.4byte	0
 17088 1978 00000000 		.4byte	0
 17089              	.LLST160:
 17090 197c 04050000 		.4byte	.LVL298
 17091 1980 0A050000 		.4byte	.LVL299
 17092 1984 0100     		.2byte	0x1
 17093 1986 50       		.byte	0x50
 17094 1987 00000000 		.4byte	0
 17095 198b 00000000 		.4byte	0
 17096              	.LLST161:
 17097 198f 0E050000 		.4byte	.LVL300
 17098 1993 16050000 		.4byte	.LVL301
 17099 1997 0100     		.2byte	0x1
 17100 1999 50       		.byte	0x50
 17101 199a 16050000 		.4byte	.LVL301
 17102 199e 2E050000 		.4byte	.LVL306
 17103 19a2 0100     		.2byte	0x1
 17104 19a4 54       		.byte	0x54
 17105 19a5 2E050000 		.4byte	.LVL306
 17106 19a9 3E050000 		.4byte	.LVL307
 17107 19ad 0100     		.2byte	0x1
 17108 19af 50       		.byte	0x50
 17109 19b0 3E050000 		.4byte	.LVL307
 17110 19b4 5C050000 		.4byte	.LVL313
 17111 19b8 0100     		.2byte	0x1
 17112 19ba 54       		.byte	0x54
 17113 19bb 5C050000 		.4byte	.LVL313
 17114 19bf 60050000 		.4byte	.LVL314
 17115 19c3 0100     		.2byte	0x1
 17116 19c5 50       		.byte	0x50
 17117 19c6 60050000 		.4byte	.LVL314
 17118 19ca 76050000 		.4byte	.LVL316
 17119 19ce 0100     		.2byte	0x1
 17120 19d0 54       		.byte	0x54
 17121 19d1 00000000 		.4byte	0
 17122 19d5 00000000 		.4byte	0
 17123              	.LLST162:
 17124 19d9 1A050000 		.4byte	.LVL302
 17125 19dd 1E050000 		.4byte	.LVL303
 17126 19e1 0100     		.2byte	0x1
 17127 19e3 50       		.byte	0x50
 17128 19e4 00000000 		.4byte	0
 17129 19e8 00000000 		.4byte	0
 17130              	.LLST163:
 17131 19ec 4A050000 		.4byte	.LVL309
 17132 19f0 5C050000 		.4byte	.LVL313
 17133 19f4 0100     		.2byte	0x1
 17134 19f6 57       		.byte	0x57
 17135 19f7 00000000 		.4byte	0
 17136 19fb 00000000 		.4byte	0
 17137              	.LLST164:
 17138 19ff 7C050000 		.4byte	.LVL317
ARM GAS  C:\Users\164\AppData\Local\Temp\ccd4XrSZ.s 			page 349


 17139 1a03 8E050000 		.4byte	.LVL320
 17140 1a07 0100     		.2byte	0x1
 17141 1a09 56       		.byte	0x56
 17142 1a0a 00000000 		.4byte	0
 17143 1a0e 00000000 		.4byte	0
 17144              	.LLST165:
 17145 1a12 7C050000 		.4byte	.LVL317
 17146 1a16 8E050000 		.4byte	.LVL320
 17147 1a1a 0100     		.2byte	0x1
 17148 1a1c 54       		.byte	0x54
 17149 1a1d 00000000 		.4byte	0
 17150 1a21 00000000 		.4byte	0
 17151              	.LLST166:
 17152 1a25 7C050000 		.4byte	.LVL317
 17153 1a29 8E050000 		.4byte	.LVL320
 17154 1a2d 0100     		.2byte	0x1
 17155 1a2f 55       		.byte	0x55
 17156 1a30 00000000 		.4byte	0
 17157 1a34 00000000 		.4byte	0
 17158              	.LLST167:
 17159 1a38 92050000 		.4byte	.LVL321
 17160 1a3c B0050000 		.4byte	.LVL326
 17161 1a40 0100     		.2byte	0x1
 17162 1a42 56       		.byte	0x56
 17163 1a43 E0160000 		.4byte	.LVL913
 17164 1a47 E2160000 		.4byte	.LVL914
 17165 1a4b 0100     		.2byte	0x1
 17166 1a4d 56       		.byte	0x56
 17167 1a4e 00000000 		.4byte	0
 17168 1a52 00000000 		.4byte	0
 17169              	.LLST168:
 17170 1a56 92050000 		.4byte	.LVL321
 17171 1a5a B0050000 		.4byte	.LVL326
 17172 1a5e 0100     		.2byte	0x1
 17173 1a60 54       		.byte	0x54
 17174 1a61 E0160000 		.4byte	.LVL913
 17175 1a65 E2160000 		.4byte	.LVL914
 17176 1a69 0100     		.2byte	0x1
 17177 1a6b 54       		.byte	0x54
 17178 1a6c 00000000 		.4byte	0
 17179 1a70 00000000 		.4byte	0
 17180              	.LLST169:
 17181 1a74 92050000 		.4byte	.LVL321
 17182 1a78 B0050000 		.4byte	.LVL326
 17183 1a7c 0100     		.2byte	0x1
 17184 1a7e 55       		.byte	0x55
 17185 1a7f E0160000 		.4byte	.LVL913
 17186 1a83 E2160000 		.4byte	.LVL914
 17187 1a87 0100     		.2byte	0x1
 17188 1a89 55       		.byte	0x55
 17189 1a8a 00000000 		.4byte	0
 17190 1a8e 00000000 		.4byte	0
 17191              	.LLST170:
 17192 1a92 96050000 		.4byte	.LVL322
 17193 1a96 A4050000 		.4byte	.LVL324
 17194 1a9a 0100     		.2byte	0x1
 17195 1a9c 53       		.byte	0x53
ARM GAS  C:\Users\164\AppData\Local\Temp\ccd4XrSZ.s 			page 350


 17196 1a9d A4050000 		.4byte	.LVL324
 17197 1aa1 B0050000 		.4byte	.LVL326
 17198 1aa5 0300     		.2byte	0x3
 17199 1aa7 75       		.byte	0x75
 17200 1aa8 DC0C     		.sleb128 1628
 17201 1aaa E0160000 		.4byte	.LVL913
 17202 1aae E2160000 		.4byte	.LVL914
 17203 1ab2 0100     		.2byte	0x1
 17204 1ab4 53       		.byte	0x53
 17205 1ab5 00000000 		.4byte	0
 17206 1ab9 00000000 		.4byte	0
 17207              	.LLST171:
 17208 1abd 96050000 		.4byte	.LVL322
 17209 1ac1 B0050000 		.4byte	.LVL326
 17210 1ac5 0500     		.2byte	0x5
 17211 1ac7 74       		.byte	0x74
 17212 1ac8 00       		.sleb128 0
 17213 1ac9 37       		.byte	0x37
 17214 1aca 25       		.byte	0x25
 17215 1acb 9F       		.byte	0x9f
 17216 1acc E0160000 		.4byte	.LVL913
 17217 1ad0 E2160000 		.4byte	.LVL914
 17218 1ad4 0500     		.2byte	0x5
 17219 1ad6 74       		.byte	0x74
 17220 1ad7 00       		.sleb128 0
 17221 1ad8 37       		.byte	0x37
 17222 1ad9 25       		.byte	0x25
 17223 1ada 9F       		.byte	0x9f
 17224 1adb 00000000 		.4byte	0
 17225 1adf 00000000 		.4byte	0
 17226              	.LLST172:
 17227 1ae3 96050000 		.4byte	.LVL322
 17228 1ae7 B0050000 		.4byte	.LVL326
 17229 1aeb 0900     		.2byte	0x9
 17230 1aed 74       		.byte	0x74
 17231 1aee 00       		.sleb128 0
 17232 1aef 09       		.byte	0x9
 17233 1af0 EB       		.byte	0xeb
 17234 1af1 24       		.byte	0x24
 17235 1af2 09       		.byte	0x9
 17236 1af3 FF       		.byte	0xff
 17237 1af4 25       		.byte	0x25
 17238 1af5 9F       		.byte	0x9f
 17239 1af6 E0160000 		.4byte	.LVL913
 17240 1afa E2160000 		.4byte	.LVL914
 17241 1afe 0900     		.2byte	0x9
 17242 1b00 74       		.byte	0x74
 17243 1b01 00       		.sleb128 0
 17244 1b02 09       		.byte	0x9
 17245 1b03 EB       		.byte	0xeb
 17246 1b04 24       		.byte	0x24
 17247 1b05 09       		.byte	0x9
 17248 1b06 FF       		.byte	0xff
 17249 1b07 25       		.byte	0x25
 17250 1b08 9F       		.byte	0x9f
 17251 1b09 00000000 		.4byte	0
 17252 1b0d 00000000 		.4byte	0
ARM GAS  C:\Users\164\AppData\Local\Temp\ccd4XrSZ.s 			page 351


 17253              	.LLST173:
 17254 1b11 9A050000 		.4byte	.LVL323
 17255 1b15 B0050000 		.4byte	.LVL326
 17256 1b19 0100     		.2byte	0x1
 17257 1b1b 51       		.byte	0x51
 17258 1b1c E0160000 		.4byte	.LVL913
 17259 1b20 E2160000 		.4byte	.LVL914
 17260 1b24 0100     		.2byte	0x1
 17261 1b26 51       		.byte	0x51
 17262 1b27 00000000 		.4byte	0
 17263 1b2b 00000000 		.4byte	0
 17264              	.LLST174:
 17265 1b2f B0050000 		.4byte	.LVL326
 17266 1b33 0C060000 		.4byte	.LVL336
 17267 1b37 0100     		.2byte	0x1
 17268 1b39 56       		.byte	0x56
 17269 1b3a 00000000 		.4byte	0
 17270 1b3e 00000000 		.4byte	0
 17271              	.LLST175:
 17272 1b42 B0050000 		.4byte	.LVL326
 17273 1b46 B2050000 		.4byte	.LVL327
 17274 1b4a 0100     		.2byte	0x1
 17275 1b4c 54       		.byte	0x54
 17276 1b4d 00000000 		.4byte	0
 17277 1b51 00000000 		.4byte	0
 17278              	.LLST176:
 17279 1b55 B0050000 		.4byte	.LVL326
 17280 1b59 0C060000 		.4byte	.LVL336
 17281 1b5d 0100     		.2byte	0x1
 17282 1b5f 55       		.byte	0x55
 17283 1b60 00000000 		.4byte	0
 17284 1b64 00000000 		.4byte	0
 17285              	.LLST177:
 17286 1b68 B2050000 		.4byte	.LVL327
 17287 1b6c BA050000 		.4byte	.LVL329
 17288 1b70 0100     		.2byte	0x1
 17289 1b72 54       		.byte	0x54
 17290 1b73 00000000 		.4byte	0
 17291 1b77 00000000 		.4byte	0
 17292              	.LLST178:
 17293 1b7b CA050000 		.4byte	.LVL330
 17294 1b7f 0C060000 		.4byte	.LVL336
 17295 1b83 0100     		.2byte	0x1
 17296 1b85 57       		.byte	0x57
 17297 1b86 00000000 		.4byte	0
 17298 1b8a 00000000 		.4byte	0
 17299              	.LLST179:
 17300 1b8e CE050000 		.4byte	.LVL331
 17301 1b92 0C060000 		.4byte	.LVL336
 17302 1b96 0100     		.2byte	0x1
 17303 1b98 58       		.byte	0x58
 17304 1b99 00000000 		.4byte	0
 17305 1b9d 00000000 		.4byte	0
 17306              	.LLST180:
 17307 1ba1 F2050000 		.4byte	.LVL332
 17308 1ba5 F6050000 		.4byte	.LVL333
 17309 1ba9 0200     		.2byte	0x2
ARM GAS  C:\Users\164\AppData\Local\Temp\ccd4XrSZ.s 			page 352


 17310 1bab 31       		.byte	0x31
 17311 1bac 9F       		.byte	0x9f
 17312 1bad F6050000 		.4byte	.LVL333
 17313 1bb1 0C060000 		.4byte	.LVL336
 17314 1bb5 0100     		.2byte	0x1
 17315 1bb7 54       		.byte	0x54
 17316 1bb8 00000000 		.4byte	0
 17317 1bbc 00000000 		.4byte	0
 17318              	.LLST181:
 17319 1bc0 12060000 		.4byte	.LVL337
 17320 1bc4 42060000 		.4byte	.LVL346
 17321 1bc8 0100     		.2byte	0x1
 17322 1bca 56       		.byte	0x56
 17323 1bcb 00000000 		.4byte	0
 17324 1bcf 00000000 		.4byte	0
 17325              	.LLST182:
 17326 1bd3 12060000 		.4byte	.LVL337
 17327 1bd7 14060000 		.4byte	.LVL338
 17328 1bdb 0100     		.2byte	0x1
 17329 1bdd 54       		.byte	0x54
 17330 1bde 00000000 		.4byte	0
 17331 1be2 00000000 		.4byte	0
 17332              	.LLST183:
 17333 1be6 12060000 		.4byte	.LVL337
 17334 1bea 42060000 		.4byte	.LVL346
 17335 1bee 0100     		.2byte	0x1
 17336 1bf0 55       		.byte	0x55
 17337 1bf1 00000000 		.4byte	0
 17338 1bf5 00000000 		.4byte	0
 17339              	.LLST184:
 17340 1bf9 14060000 		.4byte	.LVL338
 17341 1bfd 24060000 		.4byte	.LVL341
 17342 1c01 0100     		.2byte	0x1
 17343 1c03 54       		.byte	0x54
 17344 1c04 3E060000 		.4byte	.LVL345
 17345 1c08 46060000 		.4byte	.LVL347
 17346 1c0c 0100     		.2byte	0x1
 17347 1c0e 54       		.byte	0x54
 17348 1c0f 00000000 		.4byte	0
 17349 1c13 00000000 		.4byte	0
 17350              	.LLST185:
 17351 1c17 18060000 		.4byte	.LVL339
 17352 1c1b 3A060000 		.4byte	.LVL344
 17353 1c1f 0100     		.2byte	0x1
 17354 1c21 57       		.byte	0x57
 17355 1c22 3A060000 		.4byte	.LVL344
 17356 1c26 3E060000 		.4byte	.LVL345
 17357 1c2a 0300     		.2byte	0x3
 17358 1c2c 76       		.byte	0x76
 17359 1c2d 10       		.sleb128 16
 17360 1c2e 9F       		.byte	0x9f
 17361 1c2f 3E060000 		.4byte	.LVL345
 17362 1c33 42060000 		.4byte	.LVL346
 17363 1c37 0100     		.2byte	0x1
 17364 1c39 57       		.byte	0x57
 17365 1c3a 00000000 		.4byte	0
 17366 1c3e 00000000 		.4byte	0
ARM GAS  C:\Users\164\AppData\Local\Temp\ccd4XrSZ.s 			page 353


 17367              	.LLST186:
 17368 1c42 46060000 		.4byte	.LVL347
 17369 1c46 AC070000 		.4byte	.LVL389
 17370 1c4a 0100     		.2byte	0x1
 17371 1c4c 56       		.byte	0x56
 17372 1c4d 00000000 		.4byte	0
 17373 1c51 00000000 		.4byte	0
 17374              	.LLST187:
 17375 1c55 46060000 		.4byte	.LVL347
 17376 1c59 FA060000 		.4byte	.LVL367
 17377 1c5d 0100     		.2byte	0x1
 17378 1c5f 54       		.byte	0x54
 17379 1c60 00000000 		.4byte	0
 17380 1c64 00000000 		.4byte	0
 17381              	.LLST188:
 17382 1c68 46060000 		.4byte	.LVL347
 17383 1c6c AC070000 		.4byte	.LVL389
 17384 1c70 0100     		.2byte	0x1
 17385 1c72 55       		.byte	0x55
 17386 1c73 00000000 		.4byte	0
 17387 1c77 00000000 		.4byte	0
 17388              	.LLST189:
 17389 1c7b 48060000 		.4byte	.LVL348
 17390 1c7f 64060000 		.4byte	.LVL350
 17391 1c83 0100     		.2byte	0x1
 17392 1c85 53       		.byte	0x53
 17393 1c86 64060000 		.4byte	.LVL350
 17394 1c8a 6C060000 		.4byte	.LVL351
 17395 1c8e 0500     		.2byte	0x5
 17396 1c90 74       		.byte	0x74
 17397 1c91 00       		.sleb128 0
 17398 1c92 47       		.byte	0x47
 17399 1c93 25       		.byte	0x25
 17400 1c94 9F       		.byte	0x9f
 17401 1c95 6C060000 		.4byte	.LVL351
 17402 1c99 72060000 		.4byte	.LVL352
 17403 1c9d 0100     		.2byte	0x1
 17404 1c9f 53       		.byte	0x53
 17405 1ca0 72060000 		.4byte	.LVL352
 17406 1ca4 8C060000 		.4byte	.LVL355
 17407 1ca8 0500     		.2byte	0x5
 17408 1caa 74       		.byte	0x74
 17409 1cab 00       		.sleb128 0
 17410 1cac 47       		.byte	0x47
 17411 1cad 25       		.byte	0x25
 17412 1cae 9F       		.byte	0x9f
 17413 1caf 8C060000 		.4byte	.LVL355
 17414 1cb3 92060000 		.4byte	.LVL356
 17415 1cb7 0100     		.2byte	0x1
 17416 1cb9 53       		.byte	0x53
 17417 1cba 92060000 		.4byte	.LVL356
 17418 1cbe 94060000 		.4byte	.LVL357
 17419 1cc2 0300     		.2byte	0x3
 17420 1cc4 73       		.byte	0x73
 17421 1cc5 7F       		.sleb128 -1
 17422 1cc6 9F       		.byte	0x9f
 17423 1cc7 94060000 		.4byte	.LVL357
ARM GAS  C:\Users\164\AppData\Local\Temp\ccd4XrSZ.s 			page 354


 17424 1ccb FA060000 		.4byte	.LVL367
 17425 1ccf 0500     		.2byte	0x5
 17426 1cd1 74       		.byte	0x74
 17427 1cd2 00       		.sleb128 0
 17428 1cd3 47       		.byte	0x47
 17429 1cd4 25       		.byte	0x25
 17430 1cd5 9F       		.byte	0x9f
 17431 1cd6 00000000 		.4byte	0
 17432 1cda 00000000 		.4byte	0
 17433              	.LLST190:
 17434 1cde CE060000 		.4byte	.LVL361
 17435 1ce2 AC070000 		.4byte	.LVL389
 17436 1ce6 0100     		.2byte	0x1
 17437 1ce8 56       		.byte	0x56
 17438 1ce9 00000000 		.4byte	0
 17439 1ced 00000000 		.4byte	0
 17440              	.LLST191:
 17441 1cf1 CE060000 		.4byte	.LVL361
 17442 1cf5 FA060000 		.4byte	.LVL367
 17443 1cf9 0100     		.2byte	0x1
 17444 1cfb 54       		.byte	0x54
 17445 1cfc 00000000 		.4byte	0
 17446 1d00 00000000 		.4byte	0
 17447              	.LLST192:
 17448 1d04 CE060000 		.4byte	.LVL361
 17449 1d08 AC070000 		.4byte	.LVL389
 17450 1d0c 0100     		.2byte	0x1
 17451 1d0e 55       		.byte	0x55
 17452 1d0f 00000000 		.4byte	0
 17453 1d13 00000000 		.4byte	0
 17454              	.LLST193:
 17455 1d17 D0060000 		.4byte	.LVL362
 17456 1d1b 80070000 		.4byte	.LVL382
 17457 1d1f 0100     		.2byte	0x1
 17458 1d21 57       		.byte	0x57
 17459 1d22 80070000 		.4byte	.LVL382
 17460 1d26 82070000 		.4byte	.LVL383
 17461 1d2a 0300     		.2byte	0x3
 17462 1d2c 77       		.byte	0x77
 17463 1d2d 7F       		.sleb128 -1
 17464 1d2e 9F       		.byte	0x9f
 17465 1d2f 92070000 		.4byte	.LVL386
 17466 1d33 AC070000 		.4byte	.LVL389
 17467 1d37 0100     		.2byte	0x1
 17468 1d39 57       		.byte	0x57
 17469 1d3a 00000000 		.4byte	0
 17470 1d3e 00000000 		.4byte	0
 17471              	.LLST194:
 17472 1d42 D6060000 		.4byte	.LVL363
 17473 1d46 E6060000 		.4byte	.LVL365
 17474 1d4a 0100     		.2byte	0x1
 17475 1d4c 53       		.byte	0x53
 17476 1d4d E6060000 		.4byte	.LVL365
 17477 1d51 2E070000 		.4byte	.LVL370
 17478 1d55 0300     		.2byte	0x3
 17479 1d57 91       		.byte	0x91
 17480 1d58 B07F     		.sleb128 -80
ARM GAS  C:\Users\164\AppData\Local\Temp\ccd4XrSZ.s 			page 355


 17481 1d5a 00000000 		.4byte	0
 17482 1d5e 00000000 		.4byte	0
 17483              	.LLST195:
 17484 1d62 DA060000 		.4byte	.LVL364
 17485 1d66 AC070000 		.4byte	.LVL389
 17486 1d6a 0100     		.2byte	0x1
 17487 1d6c 5B       		.byte	0x5b
 17488 1d6d 00000000 		.4byte	0
 17489 1d71 00000000 		.4byte	0
 17490              	.LLST196:
 17491 1d75 F6060000 		.4byte	.LVL366
 17492 1d79 AC070000 		.4byte	.LVL389
 17493 1d7d 0100     		.2byte	0x1
 17494 1d7f 58       		.byte	0x58
 17495 1d80 00000000 		.4byte	0
 17496 1d84 00000000 		.4byte	0
 17497              	.LLST197:
 17498 1d88 2E070000 		.4byte	.LVL370
 17499 1d8c 31070000 		.4byte	.LVL371-1
 17500 1d90 0100     		.2byte	0x1
 17501 1d92 50       		.byte	0x50
 17502 1d93 31070000 		.4byte	.LVL371-1
 17503 1d97 AC070000 		.4byte	.LVL389
 17504 1d9b 0300     		.2byte	0x3
 17505 1d9d 91       		.byte	0x91
 17506 1d9e B07F     		.sleb128 -80
 17507 1da0 00000000 		.4byte	0
 17508 1da4 00000000 		.4byte	0
 17509              	.LLST198:
 17510 1da8 32070000 		.4byte	.LVL371
 17511 1dac 38070000 		.4byte	.LVL372
 17512 1db0 0100     		.2byte	0x1
 17513 1db2 50       		.byte	0x50
 17514 1db3 00000000 		.4byte	0
 17515 1db7 00000000 		.4byte	0
 17516              	.LLST199:
 17517 1dbb 3C070000 		.4byte	.LVL373
 17518 1dbf 44070000 		.4byte	.LVL374
 17519 1dc3 0100     		.2byte	0x1
 17520 1dc5 50       		.byte	0x50
 17521 1dc6 44070000 		.4byte	.LVL374
 17522 1dca 64070000 		.4byte	.LVL379
 17523 1dce 0100     		.2byte	0x1
 17524 1dd0 54       		.byte	0x54
 17525 1dd1 64070000 		.4byte	.LVL379
 17526 1dd5 74070000 		.4byte	.LVL380
 17527 1dd9 0100     		.2byte	0x1
 17528 1ddb 50       		.byte	0x50
 17529 1ddc 74070000 		.4byte	.LVL380
 17530 1de0 92070000 		.4byte	.LVL386
 17531 1de4 0100     		.2byte	0x1
 17532 1de6 54       		.byte	0x54
 17533 1de7 92070000 		.4byte	.LVL386
 17534 1deb 96070000 		.4byte	.LVL387
 17535 1def 0100     		.2byte	0x1
 17536 1df1 50       		.byte	0x50
 17537 1df2 96070000 		.4byte	.LVL387
ARM GAS  C:\Users\164\AppData\Local\Temp\ccd4XrSZ.s 			page 356


 17538 1df6 AC070000 		.4byte	.LVL389
 17539 1dfa 0100     		.2byte	0x1
 17540 1dfc 54       		.byte	0x54
 17541 1dfd 00000000 		.4byte	0
 17542 1e01 00000000 		.4byte	0
 17543              	.LLST200:
 17544 1e05 48070000 		.4byte	.LVL375
 17545 1e09 4C070000 		.4byte	.LVL376
 17546 1e0d 0100     		.2byte	0x1
 17547 1e0f 50       		.byte	0x50
 17548 1e10 00000000 		.4byte	0
 17549 1e14 00000000 		.4byte	0
 17550              	.LLST201:
 17551 1e18 80070000 		.4byte	.LVL382
 17552 1e1c 92070000 		.4byte	.LVL386
 17553 1e20 0100     		.2byte	0x1
 17554 1e22 57       		.byte	0x57
 17555 1e23 00000000 		.4byte	0
 17556 1e27 00000000 		.4byte	0
 17557              	.LLST202:
 17558 1e2b B2070000 		.4byte	.LVL390
 17559 1e2f EC070000 		.4byte	.LVL398
 17560 1e33 0100     		.2byte	0x1
 17561 1e35 56       		.byte	0x56
 17562 1e36 00000000 		.4byte	0
 17563 1e3a 00000000 		.4byte	0
 17564              	.LLST203:
 17565 1e3e B2070000 		.4byte	.LVL390
 17566 1e42 C2070000 		.4byte	.LVL394
 17567 1e46 0100     		.2byte	0x1
 17568 1e48 54       		.byte	0x54
 17569 1e49 CA070000 		.4byte	.LVL395
 17570 1e4d EC070000 		.4byte	.LVL398
 17571 1e51 0100     		.2byte	0x1
 17572 1e53 54       		.byte	0x54
 17573 1e54 00000000 		.4byte	0
 17574 1e58 00000000 		.4byte	0
 17575              	.LLST204:
 17576 1e5c B2070000 		.4byte	.LVL390
 17577 1e60 EC070000 		.4byte	.LVL398
 17578 1e64 0100     		.2byte	0x1
 17579 1e66 55       		.byte	0x55
 17580 1e67 00000000 		.4byte	0
 17581 1e6b 00000000 		.4byte	0
 17582              	.LLST205:
 17583 1e6f B4070000 		.4byte	.LVL391
 17584 1e73 B6070000 		.4byte	.LVL392
 17585 1e77 0100     		.2byte	0x1
 17586 1e79 53       		.byte	0x53
 17587 1e7a B6070000 		.4byte	.LVL392
 17588 1e7e C2070000 		.4byte	.LVL394
 17589 1e82 0500     		.2byte	0x5
 17590 1e84 74       		.byte	0x74
 17591 1e85 00       		.sleb128 0
 17592 1e86 47       		.byte	0x47
 17593 1e87 25       		.byte	0x25
 17594 1e88 9F       		.byte	0x9f
ARM GAS  C:\Users\164\AppData\Local\Temp\ccd4XrSZ.s 			page 357


 17595 1e89 CA070000 		.4byte	.LVL395
 17596 1e8d EC070000 		.4byte	.LVL398
 17597 1e91 0500     		.2byte	0x5
 17598 1e93 74       		.byte	0x74
 17599 1e94 00       		.sleb128 0
 17600 1e95 47       		.byte	0x47
 17601 1e96 25       		.byte	0x25
 17602 1e97 9F       		.byte	0x9f
 17603 1e98 00000000 		.4byte	0
 17604 1e9c 00000000 		.4byte	0
 17605              	.LLST206:
 17606 1ea0 F2070000 		.4byte	.LVL399
 17607 1ea4 60090000 		.4byte	.LVL437
 17608 1ea8 0100     		.2byte	0x1
 17609 1eaa 56       		.byte	0x56
 17610 1eab 00000000 		.4byte	0
 17611 1eaf 00000000 		.4byte	0
 17612              	.LLST207:
 17613 1eb3 F2070000 		.4byte	.LVL399
 17614 1eb7 AA080000 		.4byte	.LVL414
 17615 1ebb 0100     		.2byte	0x1
 17616 1ebd 54       		.byte	0x54
 17617 1ebe 00000000 		.4byte	0
 17618 1ec2 00000000 		.4byte	0
 17619              	.LLST208:
 17620 1ec6 F2070000 		.4byte	.LVL399
 17621 1eca 60090000 		.4byte	.LVL437
 17622 1ece 0100     		.2byte	0x1
 17623 1ed0 55       		.byte	0x55
 17624 1ed1 00000000 		.4byte	0
 17625 1ed5 00000000 		.4byte	0
 17626              	.LLST209:
 17627 1ed9 F6070000 		.4byte	.LVL400
 17628 1edd 66090000 		.4byte	.LVL438
 17629 1ee1 0100     		.2byte	0x1
 17630 1ee3 59       		.byte	0x59
 17631 1ee4 00000000 		.4byte	0
 17632 1ee8 00000000 		.4byte	0
 17633              	.LLST210:
 17634 1eec 7E080000 		.4byte	.LVL408
 17635 1ef0 54090000 		.4byte	.LVL436
 17636 1ef4 0100     		.2byte	0x1
 17637 1ef6 56       		.byte	0x56
 17638 1ef7 00000000 		.4byte	0
 17639 1efb 00000000 		.4byte	0
 17640              	.LLST211:
 17641 1eff 7E080000 		.4byte	.LVL408
 17642 1f03 AA080000 		.4byte	.LVL414
 17643 1f07 0100     		.2byte	0x1
 17644 1f09 54       		.byte	0x54
 17645 1f0a 00000000 		.4byte	0
 17646 1f0e 00000000 		.4byte	0
 17647              	.LLST212:
 17648 1f12 7E080000 		.4byte	.LVL408
 17649 1f16 54090000 		.4byte	.LVL436
 17650 1f1a 0100     		.2byte	0x1
 17651 1f1c 55       		.byte	0x55
ARM GAS  C:\Users\164\AppData\Local\Temp\ccd4XrSZ.s 			page 358


 17652 1f1d 00000000 		.4byte	0
 17653 1f21 00000000 		.4byte	0
 17654              	.LLST213:
 17655 1f25 80080000 		.4byte	.LVL409
 17656 1f29 28090000 		.4byte	.LVL429
 17657 1f2d 0100     		.2byte	0x1
 17658 1f2f 57       		.byte	0x57
 17659 1f30 28090000 		.4byte	.LVL429
 17660 1f34 2A090000 		.4byte	.LVL430
 17661 1f38 0300     		.2byte	0x3
 17662 1f3a 77       		.byte	0x77
 17663 1f3b 7F       		.sleb128 -1
 17664 1f3c 9F       		.byte	0x9f
 17665 1f3d 3A090000 		.4byte	.LVL433
 17666 1f41 54090000 		.4byte	.LVL436
 17667 1f45 0100     		.2byte	0x1
 17668 1f47 57       		.byte	0x57
 17669 1f48 00000000 		.4byte	0
 17670 1f4c 00000000 		.4byte	0
 17671              	.LLST214:
 17672 1f50 86080000 		.4byte	.LVL410
 17673 1f54 92080000 		.4byte	.LVL412
 17674 1f58 0100     		.2byte	0x1
 17675 1f5a 53       		.byte	0x53
 17676 1f5b 92080000 		.4byte	.LVL412
 17677 1f5f DE080000 		.4byte	.LVL417
 17678 1f63 0300     		.2byte	0x3
 17679 1f65 91       		.byte	0x91
 17680 1f66 B07F     		.sleb128 -80
 17681 1f68 00000000 		.4byte	0
 17682 1f6c 00000000 		.4byte	0
 17683              	.LLST215:
 17684 1f70 8A080000 		.4byte	.LVL411
 17685 1f74 54090000 		.4byte	.LVL436
 17686 1f78 0100     		.2byte	0x1
 17687 1f7a 5B       		.byte	0x5b
 17688 1f7b 00000000 		.4byte	0
 17689 1f7f 00000000 		.4byte	0
 17690              	.LLST216:
 17691 1f83 A6080000 		.4byte	.LVL413
 17692 1f87 54090000 		.4byte	.LVL436
 17693 1f8b 0100     		.2byte	0x1
 17694 1f8d 58       		.byte	0x58
 17695 1f8e 00000000 		.4byte	0
 17696 1f92 00000000 		.4byte	0
 17697              	.LLST217:
 17698 1f96 DE080000 		.4byte	.LVL417
 17699 1f9a E1080000 		.4byte	.LVL418-1
 17700 1f9e 0100     		.2byte	0x1
 17701 1fa0 50       		.byte	0x50
 17702 1fa1 E1080000 		.4byte	.LVL418-1
 17703 1fa5 54090000 		.4byte	.LVL436
 17704 1fa9 0300     		.2byte	0x3
 17705 1fab 91       		.byte	0x91
 17706 1fac B07F     		.sleb128 -80
 17707 1fae 00000000 		.4byte	0
 17708 1fb2 00000000 		.4byte	0
ARM GAS  C:\Users\164\AppData\Local\Temp\ccd4XrSZ.s 			page 359


 17709              	.LLST218:
 17710 1fb6 E2080000 		.4byte	.LVL418
 17711 1fba E8080000 		.4byte	.LVL419
 17712 1fbe 0100     		.2byte	0x1
 17713 1fc0 50       		.byte	0x50
 17714 1fc1 00000000 		.4byte	0
 17715 1fc5 00000000 		.4byte	0
 17716              	.LLST219:
 17717 1fc9 EC080000 		.4byte	.LVL420
 17718 1fcd F4080000 		.4byte	.LVL421
 17719 1fd1 0100     		.2byte	0x1
 17720 1fd3 50       		.byte	0x50
 17721 1fd4 F4080000 		.4byte	.LVL421
 17722 1fd8 0C090000 		.4byte	.LVL426
 17723 1fdc 0100     		.2byte	0x1
 17724 1fde 54       		.byte	0x54
 17725 1fdf 0C090000 		.4byte	.LVL426
 17726 1fe3 1C090000 		.4byte	.LVL427
 17727 1fe7 0100     		.2byte	0x1
 17728 1fe9 50       		.byte	0x50
 17729 1fea 1C090000 		.4byte	.LVL427
 17730 1fee 3A090000 		.4byte	.LVL433
 17731 1ff2 0100     		.2byte	0x1
 17732 1ff4 54       		.byte	0x54
 17733 1ff5 3A090000 		.4byte	.LVL433
 17734 1ff9 3E090000 		.4byte	.LVL434
 17735 1ffd 0100     		.2byte	0x1
 17736 1fff 50       		.byte	0x50
 17737 2000 3E090000 		.4byte	.LVL434
 17738 2004 54090000 		.4byte	.LVL436
 17739 2008 0100     		.2byte	0x1
 17740 200a 54       		.byte	0x54
 17741 200b 00000000 		.4byte	0
 17742 200f 00000000 		.4byte	0
 17743              	.LLST220:
 17744 2013 F8080000 		.4byte	.LVL422
 17745 2017 FC080000 		.4byte	.LVL423
 17746 201b 0100     		.2byte	0x1
 17747 201d 50       		.byte	0x50
 17748 201e 00000000 		.4byte	0
 17749 2022 00000000 		.4byte	0
 17750              	.LLST221:
 17751 2026 28090000 		.4byte	.LVL429
 17752 202a 3A090000 		.4byte	.LVL433
 17753 202e 0100     		.2byte	0x1
 17754 2030 57       		.byte	0x57
 17755 2031 00000000 		.4byte	0
 17756 2035 00000000 		.4byte	0
 17757              	.LLST222:
 17758 2039 66090000 		.4byte	.LVL438
 17759 203d A0090000 		.4byte	.LVL446
 17760 2041 0100     		.2byte	0x1
 17761 2043 56       		.byte	0x56
 17762 2044 00000000 		.4byte	0
 17763 2048 00000000 		.4byte	0
 17764              	.LLST223:
 17765 204c 66090000 		.4byte	.LVL438
ARM GAS  C:\Users\164\AppData\Local\Temp\ccd4XrSZ.s 			page 360


 17766 2050 76090000 		.4byte	.LVL442
 17767 2054 0100     		.2byte	0x1
 17768 2056 54       		.byte	0x54
 17769 2057 7E090000 		.4byte	.LVL443
 17770 205b A0090000 		.4byte	.LVL446
 17771 205f 0100     		.2byte	0x1
 17772 2061 54       		.byte	0x54
 17773 2062 00000000 		.4byte	0
 17774 2066 00000000 		.4byte	0
 17775              	.LLST224:
 17776 206a 66090000 		.4byte	.LVL438
 17777 206e A0090000 		.4byte	.LVL446
 17778 2072 0100     		.2byte	0x1
 17779 2074 55       		.byte	0x55
 17780 2075 00000000 		.4byte	0
 17781 2079 00000000 		.4byte	0
 17782              	.LLST225:
 17783 207d 68090000 		.4byte	.LVL439
 17784 2081 6A090000 		.4byte	.LVL440
 17785 2085 0100     		.2byte	0x1
 17786 2087 53       		.byte	0x53
 17787 2088 6A090000 		.4byte	.LVL440
 17788 208c 76090000 		.4byte	.LVL442
 17789 2090 0500     		.2byte	0x5
 17790 2092 74       		.byte	0x74
 17791 2093 00       		.sleb128 0
 17792 2094 47       		.byte	0x47
 17793 2095 25       		.byte	0x25
 17794 2096 9F       		.byte	0x9f
 17795 2097 7E090000 		.4byte	.LVL443
 17796 209b A0090000 		.4byte	.LVL446
 17797 209f 0500     		.2byte	0x5
 17798 20a1 74       		.byte	0x74
 17799 20a2 00       		.sleb128 0
 17800 20a3 47       		.byte	0x47
 17801 20a4 25       		.byte	0x25
 17802 20a5 9F       		.byte	0x9f
 17803 20a6 00000000 		.4byte	0
 17804 20aa 00000000 		.4byte	0
 17805              	.LLST226:
 17806 20ae A6090000 		.4byte	.LVL447
 17807 20b2 1E0B0000 		.4byte	.LVL485
 17808 20b6 0100     		.2byte	0x1
 17809 20b8 56       		.byte	0x56
 17810 20b9 00000000 		.4byte	0
 17811 20bd 00000000 		.4byte	0
 17812              	.LLST227:
 17813 20c1 A6090000 		.4byte	.LVL447
 17814 20c5 680A0000 		.4byte	.LVL462
 17815 20c9 0100     		.2byte	0x1
 17816 20cb 54       		.byte	0x54
 17817 20cc 00000000 		.4byte	0
 17818 20d0 00000000 		.4byte	0
 17819              	.LLST228:
 17820 20d4 A6090000 		.4byte	.LVL447
 17821 20d8 1E0B0000 		.4byte	.LVL485
 17822 20dc 0100     		.2byte	0x1
ARM GAS  C:\Users\164\AppData\Local\Temp\ccd4XrSZ.s 			page 361


 17823 20de 55       		.byte	0x55
 17824 20df 00000000 		.4byte	0
 17825 20e3 00000000 		.4byte	0
 17826              	.LLST229:
 17827 20e7 AA090000 		.4byte	.LVL448
 17828 20eb 240B0000 		.4byte	.LVL486
 17829 20ef 0100     		.2byte	0x1
 17830 20f1 59       		.byte	0x59
 17831 20f2 00000000 		.4byte	0
 17832 20f6 00000000 		.4byte	0
 17833              	.LLST230:
 17834 20fa 3C0A0000 		.4byte	.LVL456
 17835 20fe 120B0000 		.4byte	.LVL484
 17836 2102 0100     		.2byte	0x1
 17837 2104 56       		.byte	0x56
 17838 2105 00000000 		.4byte	0
 17839 2109 00000000 		.4byte	0
 17840              	.LLST231:
 17841 210d 3C0A0000 		.4byte	.LVL456
 17842 2111 680A0000 		.4byte	.LVL462
 17843 2115 0100     		.2byte	0x1
 17844 2117 54       		.byte	0x54
 17845 2118 00000000 		.4byte	0
 17846 211c 00000000 		.4byte	0
 17847              	.LLST232:
 17848 2120 3C0A0000 		.4byte	.LVL456
 17849 2124 120B0000 		.4byte	.LVL484
 17850 2128 0100     		.2byte	0x1
 17851 212a 55       		.byte	0x55
 17852 212b 00000000 		.4byte	0
 17853 212f 00000000 		.4byte	0
 17854              	.LLST233:
 17855 2133 3E0A0000 		.4byte	.LVL457
 17856 2137 E60A0000 		.4byte	.LVL477
 17857 213b 0100     		.2byte	0x1
 17858 213d 57       		.byte	0x57
 17859 213e E60A0000 		.4byte	.LVL477
 17860 2142 E80A0000 		.4byte	.LVL478
 17861 2146 0300     		.2byte	0x3
 17862 2148 77       		.byte	0x77
 17863 2149 7F       		.sleb128 -1
 17864 214a 9F       		.byte	0x9f
 17865 214b F80A0000 		.4byte	.LVL481
 17866 214f 120B0000 		.4byte	.LVL484
 17867 2153 0100     		.2byte	0x1
 17868 2155 57       		.byte	0x57
 17869 2156 00000000 		.4byte	0
 17870 215a 00000000 		.4byte	0
 17871              	.LLST234:
 17872 215e 440A0000 		.4byte	.LVL458
 17873 2162 500A0000 		.4byte	.LVL460
 17874 2166 0100     		.2byte	0x1
 17875 2168 53       		.byte	0x53
 17876 2169 500A0000 		.4byte	.LVL460
 17877 216d 9C0A0000 		.4byte	.LVL465
 17878 2171 0300     		.2byte	0x3
 17879 2173 91       		.byte	0x91
ARM GAS  C:\Users\164\AppData\Local\Temp\ccd4XrSZ.s 			page 362


 17880 2174 B07F     		.sleb128 -80
 17881 2176 00000000 		.4byte	0
 17882 217a 00000000 		.4byte	0
 17883              	.LLST235:
 17884 217e 480A0000 		.4byte	.LVL459
 17885 2182 120B0000 		.4byte	.LVL484
 17886 2186 0100     		.2byte	0x1
 17887 2188 5B       		.byte	0x5b
 17888 2189 00000000 		.4byte	0
 17889 218d 00000000 		.4byte	0
 17890              	.LLST236:
 17891 2191 640A0000 		.4byte	.LVL461
 17892 2195 120B0000 		.4byte	.LVL484
 17893 2199 0100     		.2byte	0x1
 17894 219b 58       		.byte	0x58
 17895 219c 00000000 		.4byte	0
 17896 21a0 00000000 		.4byte	0
 17897              	.LLST237:
 17898 21a4 9C0A0000 		.4byte	.LVL465
 17899 21a8 9F0A0000 		.4byte	.LVL466-1
 17900 21ac 0100     		.2byte	0x1
 17901 21ae 50       		.byte	0x50
 17902 21af 9F0A0000 		.4byte	.LVL466-1
 17903 21b3 120B0000 		.4byte	.LVL484
 17904 21b7 0300     		.2byte	0x3
 17905 21b9 91       		.byte	0x91
 17906 21ba B07F     		.sleb128 -80
 17907 21bc 00000000 		.4byte	0
 17908 21c0 00000000 		.4byte	0
 17909              	.LLST238:
 17910 21c4 A00A0000 		.4byte	.LVL466
 17911 21c8 A60A0000 		.4byte	.LVL467
 17912 21cc 0100     		.2byte	0x1
 17913 21ce 50       		.byte	0x50
 17914 21cf 00000000 		.4byte	0
 17915 21d3 00000000 		.4byte	0
 17916              	.LLST239:
 17917 21d7 AA0A0000 		.4byte	.LVL468
 17918 21db B20A0000 		.4byte	.LVL469
 17919 21df 0100     		.2byte	0x1
 17920 21e1 50       		.byte	0x50
 17921 21e2 B20A0000 		.4byte	.LVL469
 17922 21e6 CA0A0000 		.4byte	.LVL474
 17923 21ea 0100     		.2byte	0x1
 17924 21ec 54       		.byte	0x54
 17925 21ed CA0A0000 		.4byte	.LVL474
 17926 21f1 DA0A0000 		.4byte	.LVL475
 17927 21f5 0100     		.2byte	0x1
 17928 21f7 50       		.byte	0x50
 17929 21f8 DA0A0000 		.4byte	.LVL475
 17930 21fc F80A0000 		.4byte	.LVL481
 17931 2200 0100     		.2byte	0x1
 17932 2202 54       		.byte	0x54
 17933 2203 F80A0000 		.4byte	.LVL481
 17934 2207 FC0A0000 		.4byte	.LVL482
 17935 220b 0100     		.2byte	0x1
 17936 220d 50       		.byte	0x50
ARM GAS  C:\Users\164\AppData\Local\Temp\ccd4XrSZ.s 			page 363


 17937 220e FC0A0000 		.4byte	.LVL482
 17938 2212 120B0000 		.4byte	.LVL484
 17939 2216 0100     		.2byte	0x1
 17940 2218 54       		.byte	0x54
 17941 2219 00000000 		.4byte	0
 17942 221d 00000000 		.4byte	0
 17943              	.LLST240:
 17944 2221 B60A0000 		.4byte	.LVL470
 17945 2225 BA0A0000 		.4byte	.LVL471
 17946 2229 0100     		.2byte	0x1
 17947 222b 50       		.byte	0x50
 17948 222c 00000000 		.4byte	0
 17949 2230 00000000 		.4byte	0
 17950              	.LLST241:
 17951 2234 E60A0000 		.4byte	.LVL477
 17952 2238 F80A0000 		.4byte	.LVL481
 17953 223c 0100     		.2byte	0x1
 17954 223e 57       		.byte	0x57
 17955 223f 00000000 		.4byte	0
 17956 2243 00000000 		.4byte	0
 17957              	.LLST242:
 17958 2247 240B0000 		.4byte	.LVL486
 17959 224b 940C0000 		.4byte	.LVL524
 17960 224f 0100     		.2byte	0x1
 17961 2251 56       		.byte	0x56
 17962 2252 00000000 		.4byte	0
 17963 2256 00000000 		.4byte	0
 17964              	.LLST243:
 17965 225a 240B0000 		.4byte	.LVL486
 17966 225e DE0B0000 		.4byte	.LVL501
 17967 2262 0100     		.2byte	0x1
 17968 2264 54       		.byte	0x54
 17969 2265 00000000 		.4byte	0
 17970 2269 00000000 		.4byte	0
 17971              	.LLST244:
 17972 226d 240B0000 		.4byte	.LVL486
 17973 2271 940C0000 		.4byte	.LVL524
 17974 2275 0100     		.2byte	0x1
 17975 2277 55       		.byte	0x55
 17976 2278 00000000 		.4byte	0
 17977 227c 00000000 		.4byte	0
 17978              	.LLST245:
 17979 2280 280B0000 		.4byte	.LVL487
 17980 2284 9A0C0000 		.4byte	.LVL525
 17981 2288 0100     		.2byte	0x1
 17982 228a 59       		.byte	0x59
 17983 228b 00000000 		.4byte	0
 17984 228f 00000000 		.4byte	0
 17985              	.LLST246:
 17986 2293 B20B0000 		.4byte	.LVL495
 17987 2297 880C0000 		.4byte	.LVL523
 17988 229b 0100     		.2byte	0x1
 17989 229d 56       		.byte	0x56
 17990 229e 00000000 		.4byte	0
 17991 22a2 00000000 		.4byte	0
 17992              	.LLST247:
 17993 22a6 B20B0000 		.4byte	.LVL495
ARM GAS  C:\Users\164\AppData\Local\Temp\ccd4XrSZ.s 			page 364


 17994 22aa DE0B0000 		.4byte	.LVL501
 17995 22ae 0100     		.2byte	0x1
 17996 22b0 54       		.byte	0x54
 17997 22b1 00000000 		.4byte	0
 17998 22b5 00000000 		.4byte	0
 17999              	.LLST248:
 18000 22b9 B20B0000 		.4byte	.LVL495
 18001 22bd 880C0000 		.4byte	.LVL523
 18002 22c1 0100     		.2byte	0x1
 18003 22c3 55       		.byte	0x55
 18004 22c4 00000000 		.4byte	0
 18005 22c8 00000000 		.4byte	0
 18006              	.LLST249:
 18007 22cc B40B0000 		.4byte	.LVL496
 18008 22d0 5C0C0000 		.4byte	.LVL516
 18009 22d4 0100     		.2byte	0x1
 18010 22d6 57       		.byte	0x57
 18011 22d7 5C0C0000 		.4byte	.LVL516
 18012 22db 5E0C0000 		.4byte	.LVL517
 18013 22df 0300     		.2byte	0x3
 18014 22e1 77       		.byte	0x77
 18015 22e2 7F       		.sleb128 -1
 18016 22e3 9F       		.byte	0x9f
 18017 22e4 6E0C0000 		.4byte	.LVL520
 18018 22e8 880C0000 		.4byte	.LVL523
 18019 22ec 0100     		.2byte	0x1
 18020 22ee 57       		.byte	0x57
 18021 22ef 00000000 		.4byte	0
 18022 22f3 00000000 		.4byte	0
 18023              	.LLST250:
 18024 22f7 BA0B0000 		.4byte	.LVL497
 18025 22fb C60B0000 		.4byte	.LVL499
 18026 22ff 0100     		.2byte	0x1
 18027 2301 53       		.byte	0x53
 18028 2302 C60B0000 		.4byte	.LVL499
 18029 2306 120C0000 		.4byte	.LVL504
 18030 230a 0300     		.2byte	0x3
 18031 230c 91       		.byte	0x91
 18032 230d B07F     		.sleb128 -80
 18033 230f 00000000 		.4byte	0
 18034 2313 00000000 		.4byte	0
 18035              	.LLST251:
 18036 2317 BE0B0000 		.4byte	.LVL498
 18037 231b 880C0000 		.4byte	.LVL523
 18038 231f 0100     		.2byte	0x1
 18039 2321 5B       		.byte	0x5b
 18040 2322 00000000 		.4byte	0
 18041 2326 00000000 		.4byte	0
 18042              	.LLST252:
 18043 232a DA0B0000 		.4byte	.LVL500
 18044 232e 880C0000 		.4byte	.LVL523
 18045 2332 0100     		.2byte	0x1
 18046 2334 58       		.byte	0x58
 18047 2335 00000000 		.4byte	0
 18048 2339 00000000 		.4byte	0
 18049              	.LLST253:
 18050 233d 120C0000 		.4byte	.LVL504
ARM GAS  C:\Users\164\AppData\Local\Temp\ccd4XrSZ.s 			page 365


 18051 2341 150C0000 		.4byte	.LVL505-1
 18052 2345 0100     		.2byte	0x1
 18053 2347 50       		.byte	0x50
 18054 2348 150C0000 		.4byte	.LVL505-1
 18055 234c 880C0000 		.4byte	.LVL523
 18056 2350 0300     		.2byte	0x3
 18057 2352 91       		.byte	0x91
 18058 2353 B07F     		.sleb128 -80
 18059 2355 00000000 		.4byte	0
 18060 2359 00000000 		.4byte	0
 18061              	.LLST254:
 18062 235d 160C0000 		.4byte	.LVL505
 18063 2361 1C0C0000 		.4byte	.LVL506
 18064 2365 0100     		.2byte	0x1
 18065 2367 50       		.byte	0x50
 18066 2368 00000000 		.4byte	0
 18067 236c 00000000 		.4byte	0
 18068              	.LLST255:
 18069 2370 200C0000 		.4byte	.LVL507
 18070 2374 280C0000 		.4byte	.LVL508
 18071 2378 0100     		.2byte	0x1
 18072 237a 50       		.byte	0x50
 18073 237b 280C0000 		.4byte	.LVL508
 18074 237f 400C0000 		.4byte	.LVL513
 18075 2383 0100     		.2byte	0x1
 18076 2385 54       		.byte	0x54
 18077 2386 400C0000 		.4byte	.LVL513
 18078 238a 500C0000 		.4byte	.LVL514
 18079 238e 0100     		.2byte	0x1
 18080 2390 50       		.byte	0x50
 18081 2391 500C0000 		.4byte	.LVL514
 18082 2395 6E0C0000 		.4byte	.LVL520
 18083 2399 0100     		.2byte	0x1
 18084 239b 54       		.byte	0x54
 18085 239c 6E0C0000 		.4byte	.LVL520
 18086 23a0 720C0000 		.4byte	.LVL521
 18087 23a4 0100     		.2byte	0x1
 18088 23a6 50       		.byte	0x50
 18089 23a7 720C0000 		.4byte	.LVL521
 18090 23ab 880C0000 		.4byte	.LVL523
 18091 23af 0100     		.2byte	0x1
 18092 23b1 54       		.byte	0x54
 18093 23b2 00000000 		.4byte	0
 18094 23b6 00000000 		.4byte	0
 18095              	.LLST256:
 18096 23ba 2C0C0000 		.4byte	.LVL509
 18097 23be 300C0000 		.4byte	.LVL510
 18098 23c2 0100     		.2byte	0x1
 18099 23c4 50       		.byte	0x50
 18100 23c5 00000000 		.4byte	0
 18101 23c9 00000000 		.4byte	0
 18102              	.LLST257:
 18103 23cd 5C0C0000 		.4byte	.LVL516
 18104 23d1 6E0C0000 		.4byte	.LVL520
 18105 23d5 0100     		.2byte	0x1
 18106 23d7 57       		.byte	0x57
 18107 23d8 00000000 		.4byte	0
ARM GAS  C:\Users\164\AppData\Local\Temp\ccd4XrSZ.s 			page 366


 18108 23dc 00000000 		.4byte	0
 18109              	.LLST258:
 18110 23e0 9A0C0000 		.4byte	.LVL525
 18111 23e4 D00C0000 		.4byte	.LVL535
 18112 23e8 0100     		.2byte	0x1
 18113 23ea 56       		.byte	0x56
 18114 23eb 00000000 		.4byte	0
 18115 23ef 00000000 		.4byte	0
 18116              	.LLST259:
 18117 23f3 9A0C0000 		.4byte	.LVL525
 18118 23f7 9C0C0000 		.4byte	.LVL526
 18119 23fb 0100     		.2byte	0x1
 18120 23fd 54       		.byte	0x54
 18121 23fe 00000000 		.4byte	0
 18122 2402 00000000 		.4byte	0
 18123              	.LLST260:
 18124 2406 9A0C0000 		.4byte	.LVL525
 18125 240a D00C0000 		.4byte	.LVL535
 18126 240e 0100     		.2byte	0x1
 18127 2410 55       		.byte	0x55
 18128 2411 00000000 		.4byte	0
 18129 2415 00000000 		.4byte	0
 18130              	.LLST261:
 18131 2419 9C0C0000 		.4byte	.LVL526
 18132 241d A60C0000 		.4byte	.LVL528
 18133 2421 0100     		.2byte	0x1
 18134 2423 54       		.byte	0x54
 18135 2424 A60C0000 		.4byte	.LVL528
 18136 2428 AA0C0000 		.4byte	.LVL529
 18137 242c 0300     		.2byte	0x3
 18138 242e 74       		.byte	0x74
 18139 242f 7F       		.sleb128 -1
 18140 2430 9F       		.byte	0x9f
 18141 2431 00000000 		.4byte	0
 18142 2435 00000000 		.4byte	0
 18143              	.LLST262:
 18144 2439 B40C0000 		.4byte	.LVL531
 18145 243d B60C0000 		.4byte	.LVL532
 18146 2441 0100     		.2byte	0x1
 18147 2443 50       		.byte	0x50
 18148 2444 B60C0000 		.4byte	.LVL532
 18149 2448 D00C0000 		.4byte	.LVL535
 18150 244c 0100     		.2byte	0x1
 18151 244e 58       		.byte	0x58
 18152 244f 00000000 		.4byte	0
 18153 2453 00000000 		.4byte	0
 18154              	.LLST263:
 18155 2457 D60C0000 		.4byte	.LVL536
 18156 245b 740E0000 		.4byte	.LVL591
 18157 245f 0100     		.2byte	0x1
 18158 2461 56       		.byte	0x56
 18159 2462 00000000 		.4byte	0
 18160 2466 00000000 		.4byte	0
 18161              	.LLST264:
 18162 246a D60C0000 		.4byte	.LVL536
 18163 246e 140D0000 		.4byte	.LVL544
 18164 2472 0100     		.2byte	0x1
ARM GAS  C:\Users\164\AppData\Local\Temp\ccd4XrSZ.s 			page 367


 18165 2474 54       		.byte	0x54
 18166 2475 260D0000 		.4byte	.LVL547
 18167 2479 460D0000 		.4byte	.LVL550
 18168 247d 0100     		.2byte	0x1
 18169 247f 54       		.byte	0x54
 18170 2480 5C0D0000 		.4byte	.LVL553
 18171 2484 640D0000 		.4byte	.LVL554
 18172 2488 0100     		.2byte	0x1
 18173 248a 54       		.byte	0x54
 18174 248b 7E0D0000 		.4byte	.LVL557
 18175 248f AA0D0000 		.4byte	.LVL563
 18176 2493 0100     		.2byte	0x1
 18177 2495 54       		.byte	0x54
 18178 2496 00000000 		.4byte	0
 18179 249a 00000000 		.4byte	0
 18180              	.LLST265:
 18181 249e D60C0000 		.4byte	.LVL536
 18182 24a2 740E0000 		.4byte	.LVL591
 18183 24a6 0100     		.2byte	0x1
 18184 24a8 55       		.byte	0x55
 18185 24a9 00000000 		.4byte	0
 18186 24ad 00000000 		.4byte	0
 18187              	.LLST266:
 18188 24b1 DA0C0000 		.4byte	.LVL537
 18189 24b5 0A0D0000 		.4byte	.LVL542
 18190 24b9 0100     		.2byte	0x1
 18191 24bb 58       		.byte	0x58
 18192 24bc 0A0D0000 		.4byte	.LVL542
 18193 24c0 140D0000 		.4byte	.LVL544
 18194 24c4 0500     		.2byte	0x5
 18195 24c6 74       		.byte	0x74
 18196 24c7 00       		.sleb128 0
 18197 24c8 47       		.byte	0x47
 18198 24c9 25       		.byte	0x25
 18199 24ca 9F       		.byte	0x9f
 18200 24cb 260D0000 		.4byte	.LVL547
 18201 24cf 3C0D0000 		.4byte	.LVL548
 18202 24d3 0100     		.2byte	0x1
 18203 24d5 58       		.byte	0x58
 18204 24d6 3C0D0000 		.4byte	.LVL548
 18205 24da 460D0000 		.4byte	.LVL550
 18206 24de 0500     		.2byte	0x5
 18207 24e0 74       		.byte	0x74
 18208 24e1 00       		.sleb128 0
 18209 24e2 47       		.byte	0x47
 18210 24e3 25       		.byte	0x25
 18211 24e4 9F       		.byte	0x9f
 18212 24e5 5C0D0000 		.4byte	.LVL553
 18213 24e9 6A0E0000 		.4byte	.LVL587
 18214 24ed 0100     		.2byte	0x1
 18215 24ef 58       		.byte	0x58
 18216 24f0 00000000 		.4byte	0
 18217 24f4 00000000 		.4byte	0
 18218              	.LLST267:
 18219 24f8 000D0000 		.4byte	.LVL540
 18220 24fc 020D0000 		.4byte	.LVL541
 18221 2500 0100     		.2byte	0x1
ARM GAS  C:\Users\164\AppData\Local\Temp\ccd4XrSZ.s 			page 368


 18222 2502 53       		.byte	0x53
 18223 2503 240D0000 		.4byte	.LVL546
 18224 2507 260D0000 		.4byte	.LVL547
 18225 250b 0100     		.2byte	0x1
 18226 250d 53       		.byte	0x53
 18227 250e 5A0D0000 		.4byte	.LVL552
 18228 2512 5C0D0000 		.4byte	.LVL553
 18229 2516 0100     		.2byte	0x1
 18230 2518 53       		.byte	0x53
 18231 2519 7C0D0000 		.4byte	.LVL556
 18232 251d 7E0D0000 		.4byte	.LVL557
 18233 2521 0100     		.2byte	0x1
 18234 2523 53       		.byte	0x53
 18235 2524 6A0E0000 		.4byte	.LVL587
 18236 2528 6E0E0000 		.4byte	.LVL588
 18237 252c 0100     		.2byte	0x1
 18238 252e 53       		.byte	0x53
 18239 252f 700E0000 		.4byte	.LVL589
 18240 2533 720E0000 		.4byte	.LVL590
 18241 2537 0100     		.2byte	0x1
 18242 2539 53       		.byte	0x53
 18243 253a 00000000 		.4byte	0
 18244 253e 00000000 		.4byte	0
 18245              	.LLST268:
 18246 2542 7E0D0000 		.4byte	.LVL557
 18247 2546 5C0E0000 		.4byte	.LVL585
 18248 254a 0100     		.2byte	0x1
 18249 254c 56       		.byte	0x56
 18250 254d 00000000 		.4byte	0
 18251 2551 00000000 		.4byte	0
 18252              	.LLST269:
 18253 2555 7E0D0000 		.4byte	.LVL557
 18254 2559 AA0D0000 		.4byte	.LVL563
 18255 255d 0100     		.2byte	0x1
 18256 255f 54       		.byte	0x54
 18257 2560 00000000 		.4byte	0
 18258 2564 00000000 		.4byte	0
 18259              	.LLST270:
 18260 2568 7E0D0000 		.4byte	.LVL557
 18261 256c 5C0E0000 		.4byte	.LVL585
 18262 2570 0100     		.2byte	0x1
 18263 2572 55       		.byte	0x55
 18264 2573 00000000 		.4byte	0
 18265 2577 00000000 		.4byte	0
 18266              	.LLST271:
 18267 257b 800D0000 		.4byte	.LVL558
 18268 257f 300E0000 		.4byte	.LVL578
 18269 2583 0100     		.2byte	0x1
 18270 2585 57       		.byte	0x57
 18271 2586 300E0000 		.4byte	.LVL578
 18272 258a 320E0000 		.4byte	.LVL579
 18273 258e 0300     		.2byte	0x3
 18274 2590 77       		.byte	0x77
 18275 2591 7F       		.sleb128 -1
 18276 2592 9F       		.byte	0x9f
 18277 2593 420E0000 		.4byte	.LVL582
 18278 2597 5C0E0000 		.4byte	.LVL585
ARM GAS  C:\Users\164\AppData\Local\Temp\ccd4XrSZ.s 			page 369


 18279 259b 0100     		.2byte	0x1
 18280 259d 57       		.byte	0x57
 18281 259e 00000000 		.4byte	0
 18282 25a2 00000000 		.4byte	0
 18283              	.LLST272:
 18284 25a6 860D0000 		.4byte	.LVL559
 18285 25aa 920D0000 		.4byte	.LVL561
 18286 25ae 0100     		.2byte	0x1
 18287 25b0 53       		.byte	0x53
 18288 25b1 920D0000 		.4byte	.LVL561
 18289 25b5 E60D0000 		.4byte	.LVL566
 18290 25b9 0300     		.2byte	0x3
 18291 25bb 91       		.byte	0x91
 18292 25bc B07F     		.sleb128 -80
 18293 25be 00000000 		.4byte	0
 18294 25c2 00000000 		.4byte	0
 18295              	.LLST273:
 18296 25c6 8A0D0000 		.4byte	.LVL560
 18297 25ca 5C0E0000 		.4byte	.LVL585
 18298 25ce 0100     		.2byte	0x1
 18299 25d0 5B       		.byte	0x5b
 18300 25d1 00000000 		.4byte	0
 18301 25d5 00000000 		.4byte	0
 18302              	.LLST274:
 18303 25d9 A60D0000 		.4byte	.LVL562
 18304 25dd 5C0E0000 		.4byte	.LVL585
 18305 25e1 0100     		.2byte	0x1
 18306 25e3 59       		.byte	0x59
 18307 25e4 00000000 		.4byte	0
 18308 25e8 00000000 		.4byte	0
 18309              	.LLST275:
 18310 25ec E60D0000 		.4byte	.LVL566
 18311 25f0 E90D0000 		.4byte	.LVL567-1
 18312 25f4 0100     		.2byte	0x1
 18313 25f6 50       		.byte	0x50
 18314 25f7 E90D0000 		.4byte	.LVL567-1
 18315 25fb 5C0E0000 		.4byte	.LVL585
 18316 25ff 0300     		.2byte	0x3
 18317 2601 91       		.byte	0x91
 18318 2602 B07F     		.sleb128 -80
 18319 2604 00000000 		.4byte	0
 18320 2608 00000000 		.4byte	0
 18321              	.LLST276:
 18322 260c EA0D0000 		.4byte	.LVL567
 18323 2610 F00D0000 		.4byte	.LVL568
 18324 2614 0100     		.2byte	0x1
 18325 2616 50       		.byte	0x50
 18326 2617 00000000 		.4byte	0
 18327 261b 00000000 		.4byte	0
 18328              	.LLST277:
 18329 261f F40D0000 		.4byte	.LVL569
 18330 2623 FC0D0000 		.4byte	.LVL570
 18331 2627 0100     		.2byte	0x1
 18332 2629 50       		.byte	0x50
 18333 262a FC0D0000 		.4byte	.LVL570
 18334 262e 140E0000 		.4byte	.LVL575
 18335 2632 0100     		.2byte	0x1
ARM GAS  C:\Users\164\AppData\Local\Temp\ccd4XrSZ.s 			page 370


 18336 2634 54       		.byte	0x54
 18337 2635 140E0000 		.4byte	.LVL575
 18338 2639 240E0000 		.4byte	.LVL576
 18339 263d 0100     		.2byte	0x1
 18340 263f 50       		.byte	0x50
 18341 2640 240E0000 		.4byte	.LVL576
 18342 2644 420E0000 		.4byte	.LVL582
 18343 2648 0100     		.2byte	0x1
 18344 264a 54       		.byte	0x54
 18345 264b 420E0000 		.4byte	.LVL582
 18346 264f 460E0000 		.4byte	.LVL583
 18347 2653 0100     		.2byte	0x1
 18348 2655 50       		.byte	0x50
 18349 2656 460E0000 		.4byte	.LVL583
 18350 265a 5C0E0000 		.4byte	.LVL585
 18351 265e 0100     		.2byte	0x1
 18352 2660 54       		.byte	0x54
 18353 2661 00000000 		.4byte	0
 18354 2665 00000000 		.4byte	0
 18355              	.LLST278:
 18356 2669 000E0000 		.4byte	.LVL571
 18357 266d 040E0000 		.4byte	.LVL572
 18358 2671 0100     		.2byte	0x1
 18359 2673 50       		.byte	0x50
 18360 2674 00000000 		.4byte	0
 18361 2678 00000000 		.4byte	0
 18362              	.LLST279:
 18363 267c 300E0000 		.4byte	.LVL578
 18364 2680 420E0000 		.4byte	.LVL582
 18365 2684 0100     		.2byte	0x1
 18366 2686 57       		.byte	0x57
 18367 2687 00000000 		.4byte	0
 18368 268b 00000000 		.4byte	0
 18369              	.LLST280:
 18370 268f 7A0E0000 		.4byte	.LVL592
 18371 2693 10100000 		.4byte	.LVL647
 18372 2697 0100     		.2byte	0x1
 18373 2699 56       		.byte	0x56
 18374 269a 00000000 		.4byte	0
 18375 269e 00000000 		.4byte	0
 18376              	.LLST281:
 18377 26a2 7A0E0000 		.4byte	.LVL592
 18378 26a6 B80E0000 		.4byte	.LVL600
 18379 26aa 0100     		.2byte	0x1
 18380 26ac 54       		.byte	0x54
 18381 26ad CA0E0000 		.4byte	.LVL603
 18382 26b1 EA0E0000 		.4byte	.LVL606
 18383 26b5 0100     		.2byte	0x1
 18384 26b7 54       		.byte	0x54
 18385 26b8 000F0000 		.4byte	.LVL609
 18386 26bc 080F0000 		.4byte	.LVL610
 18387 26c0 0100     		.2byte	0x1
 18388 26c2 54       		.byte	0x54
 18389 26c3 220F0000 		.4byte	.LVL613
 18390 26c7 4E0F0000 		.4byte	.LVL619
 18391 26cb 0100     		.2byte	0x1
 18392 26cd 54       		.byte	0x54
ARM GAS  C:\Users\164\AppData\Local\Temp\ccd4XrSZ.s 			page 371


 18393 26ce 00000000 		.4byte	0
 18394 26d2 00000000 		.4byte	0
 18395              	.LLST282:
 18396 26d6 7A0E0000 		.4byte	.LVL592
 18397 26da 10100000 		.4byte	.LVL647
 18398 26de 0100     		.2byte	0x1
 18399 26e0 55       		.byte	0x55
 18400 26e1 00000000 		.4byte	0
 18401 26e5 00000000 		.4byte	0
 18402              	.LLST283:
 18403 26e9 7E0E0000 		.4byte	.LVL593
 18404 26ed AE0E0000 		.4byte	.LVL598
 18405 26f1 0100     		.2byte	0x1
 18406 26f3 58       		.byte	0x58
 18407 26f4 AE0E0000 		.4byte	.LVL598
 18408 26f8 B80E0000 		.4byte	.LVL600
 18409 26fc 0500     		.2byte	0x5
 18410 26fe 74       		.byte	0x74
 18411 26ff 00       		.sleb128 0
 18412 2700 47       		.byte	0x47
 18413 2701 25       		.byte	0x25
 18414 2702 9F       		.byte	0x9f
 18415 2703 CA0E0000 		.4byte	.LVL603
 18416 2707 E00E0000 		.4byte	.LVL604
 18417 270b 0100     		.2byte	0x1
 18418 270d 58       		.byte	0x58
 18419 270e E00E0000 		.4byte	.LVL604
 18420 2712 EA0E0000 		.4byte	.LVL606
 18421 2716 0500     		.2byte	0x5
 18422 2718 74       		.byte	0x74
 18423 2719 00       		.sleb128 0
 18424 271a 47       		.byte	0x47
 18425 271b 25       		.byte	0x25
 18426 271c 9F       		.byte	0x9f
 18427 271d 000F0000 		.4byte	.LVL609
 18428 2721 06100000 		.4byte	.LVL643
 18429 2725 0100     		.2byte	0x1
 18430 2727 58       		.byte	0x58
 18431 2728 00000000 		.4byte	0
 18432 272c 00000000 		.4byte	0
 18433              	.LLST284:
 18434 2730 A40E0000 		.4byte	.LVL596
 18435 2734 A60E0000 		.4byte	.LVL597
 18436 2738 0100     		.2byte	0x1
 18437 273a 53       		.byte	0x53
 18438 273b C80E0000 		.4byte	.LVL602
 18439 273f CA0E0000 		.4byte	.LVL603
 18440 2743 0100     		.2byte	0x1
 18441 2745 53       		.byte	0x53
 18442 2746 FE0E0000 		.4byte	.LVL608
 18443 274a 000F0000 		.4byte	.LVL609
 18444 274e 0100     		.2byte	0x1
 18445 2750 53       		.byte	0x53
 18446 2751 200F0000 		.4byte	.LVL612
 18447 2755 220F0000 		.4byte	.LVL613
 18448 2759 0100     		.2byte	0x1
 18449 275b 53       		.byte	0x53
ARM GAS  C:\Users\164\AppData\Local\Temp\ccd4XrSZ.s 			page 372


 18450 275c 06100000 		.4byte	.LVL643
 18451 2760 0A100000 		.4byte	.LVL644
 18452 2764 0100     		.2byte	0x1
 18453 2766 53       		.byte	0x53
 18454 2767 0C100000 		.4byte	.LVL645
 18455 276b 0E100000 		.4byte	.LVL646
 18456 276f 0100     		.2byte	0x1
 18457 2771 53       		.byte	0x53
 18458 2772 00000000 		.4byte	0
 18459 2776 00000000 		.4byte	0
 18460              	.LLST285:
 18461 277a 220F0000 		.4byte	.LVL613
 18462 277e F80F0000 		.4byte	.LVL641
 18463 2782 0100     		.2byte	0x1
 18464 2784 56       		.byte	0x56
 18465 2785 00000000 		.4byte	0
 18466 2789 00000000 		.4byte	0
 18467              	.LLST286:
 18468 278d 220F0000 		.4byte	.LVL613
 18469 2791 4E0F0000 		.4byte	.LVL619
 18470 2795 0100     		.2byte	0x1
 18471 2797 54       		.byte	0x54
 18472 2798 00000000 		.4byte	0
 18473 279c 00000000 		.4byte	0
 18474              	.LLST287:
 18475 27a0 220F0000 		.4byte	.LVL613
 18476 27a4 F80F0000 		.4byte	.LVL641
 18477 27a8 0100     		.2byte	0x1
 18478 27aa 55       		.byte	0x55
 18479 27ab 00000000 		.4byte	0
 18480 27af 00000000 		.4byte	0
 18481              	.LLST288:
 18482 27b3 240F0000 		.4byte	.LVL614
 18483 27b7 CC0F0000 		.4byte	.LVL634
 18484 27bb 0100     		.2byte	0x1
 18485 27bd 57       		.byte	0x57
 18486 27be CC0F0000 		.4byte	.LVL634
 18487 27c2 CE0F0000 		.4byte	.LVL635
 18488 27c6 0300     		.2byte	0x3
 18489 27c8 77       		.byte	0x77
 18490 27c9 7F       		.sleb128 -1
 18491 27ca 9F       		.byte	0x9f
 18492 27cb DE0F0000 		.4byte	.LVL638
 18493 27cf F80F0000 		.4byte	.LVL641
 18494 27d3 0100     		.2byte	0x1
 18495 27d5 57       		.byte	0x57
 18496 27d6 00000000 		.4byte	0
 18497 27da 00000000 		.4byte	0
 18498              	.LLST289:
 18499 27de 2A0F0000 		.4byte	.LVL615
 18500 27e2 360F0000 		.4byte	.LVL617
 18501 27e6 0100     		.2byte	0x1
 18502 27e8 53       		.byte	0x53
 18503 27e9 360F0000 		.4byte	.LVL617
 18504 27ed 820F0000 		.4byte	.LVL622
 18505 27f1 0300     		.2byte	0x3
 18506 27f3 91       		.byte	0x91
ARM GAS  C:\Users\164\AppData\Local\Temp\ccd4XrSZ.s 			page 373


 18507 27f4 B07F     		.sleb128 -80
 18508 27f6 00000000 		.4byte	0
 18509 27fa 00000000 		.4byte	0
 18510              	.LLST290:
 18511 27fe 2E0F0000 		.4byte	.LVL616
 18512 2802 F80F0000 		.4byte	.LVL641
 18513 2806 0100     		.2byte	0x1
 18514 2808 5B       		.byte	0x5b
 18515 2809 00000000 		.4byte	0
 18516 280d 00000000 		.4byte	0
 18517              	.LLST291:
 18518 2811 4A0F0000 		.4byte	.LVL618
 18519 2815 F80F0000 		.4byte	.LVL641
 18520 2819 0100     		.2byte	0x1
 18521 281b 59       		.byte	0x59
 18522 281c 00000000 		.4byte	0
 18523 2820 00000000 		.4byte	0
 18524              	.LLST292:
 18525 2824 820F0000 		.4byte	.LVL622
 18526 2828 850F0000 		.4byte	.LVL623-1
 18527 282c 0100     		.2byte	0x1
 18528 282e 50       		.byte	0x50
 18529 282f 850F0000 		.4byte	.LVL623-1
 18530 2833 F80F0000 		.4byte	.LVL641
 18531 2837 0300     		.2byte	0x3
 18532 2839 91       		.byte	0x91
 18533 283a B07F     		.sleb128 -80
 18534 283c 00000000 		.4byte	0
 18535 2840 00000000 		.4byte	0
 18536              	.LLST293:
 18537 2844 860F0000 		.4byte	.LVL623
 18538 2848 8C0F0000 		.4byte	.LVL624
 18539 284c 0100     		.2byte	0x1
 18540 284e 50       		.byte	0x50
 18541 284f 00000000 		.4byte	0
 18542 2853 00000000 		.4byte	0
 18543              	.LLST294:
 18544 2857 900F0000 		.4byte	.LVL625
 18545 285b 980F0000 		.4byte	.LVL626
 18546 285f 0100     		.2byte	0x1
 18547 2861 50       		.byte	0x50
 18548 2862 980F0000 		.4byte	.LVL626
 18549 2866 B00F0000 		.4byte	.LVL631
 18550 286a 0100     		.2byte	0x1
 18551 286c 54       		.byte	0x54
 18552 286d B00F0000 		.4byte	.LVL631
 18553 2871 C00F0000 		.4byte	.LVL632
 18554 2875 0100     		.2byte	0x1
 18555 2877 50       		.byte	0x50
 18556 2878 C00F0000 		.4byte	.LVL632
 18557 287c DE0F0000 		.4byte	.LVL638
 18558 2880 0100     		.2byte	0x1
 18559 2882 54       		.byte	0x54
 18560 2883 DE0F0000 		.4byte	.LVL638
 18561 2887 E20F0000 		.4byte	.LVL639
 18562 288b 0100     		.2byte	0x1
 18563 288d 50       		.byte	0x50
ARM GAS  C:\Users\164\AppData\Local\Temp\ccd4XrSZ.s 			page 374


 18564 288e E20F0000 		.4byte	.LVL639
 18565 2892 F80F0000 		.4byte	.LVL641
 18566 2896 0100     		.2byte	0x1
 18567 2898 54       		.byte	0x54
 18568 2899 00000000 		.4byte	0
 18569 289d 00000000 		.4byte	0
 18570              	.LLST295:
 18571 28a1 9C0F0000 		.4byte	.LVL627
 18572 28a5 A00F0000 		.4byte	.LVL628
 18573 28a9 0100     		.2byte	0x1
 18574 28ab 50       		.byte	0x50
 18575 28ac 00000000 		.4byte	0
 18576 28b0 00000000 		.4byte	0
 18577              	.LLST296:
 18578 28b4 CC0F0000 		.4byte	.LVL634
 18579 28b8 DE0F0000 		.4byte	.LVL638
 18580 28bc 0100     		.2byte	0x1
 18581 28be 57       		.byte	0x57
 18582 28bf 00000000 		.4byte	0
 18583 28c3 00000000 		.4byte	0
 18584              	.LLST297:
 18585 28c7 14100000 		.4byte	.LVL648
 18586 28cb B2110000 		.4byte	.LVL703
 18587 28cf 0100     		.2byte	0x1
 18588 28d1 56       		.byte	0x56
 18589 28d2 00000000 		.4byte	0
 18590 28d6 00000000 		.4byte	0
 18591              	.LLST298:
 18592 28da 14100000 		.4byte	.LVL648
 18593 28de 52100000 		.4byte	.LVL656
 18594 28e2 0100     		.2byte	0x1
 18595 28e4 54       		.byte	0x54
 18596 28e5 64100000 		.4byte	.LVL659
 18597 28e9 84100000 		.4byte	.LVL662
 18598 28ed 0100     		.2byte	0x1
 18599 28ef 54       		.byte	0x54
 18600 28f0 9A100000 		.4byte	.LVL665
 18601 28f4 A2100000 		.4byte	.LVL666
 18602 28f8 0100     		.2byte	0x1
 18603 28fa 54       		.byte	0x54
 18604 28fb C4100000 		.4byte	.LVL669
 18605 28ff F0100000 		.4byte	.LVL675
 18606 2903 0100     		.2byte	0x1
 18607 2905 54       		.byte	0x54
 18608 2906 00000000 		.4byte	0
 18609 290a 00000000 		.4byte	0
 18610              	.LLST299:
 18611 290e 14100000 		.4byte	.LVL648
 18612 2912 B2110000 		.4byte	.LVL703
 18613 2916 0100     		.2byte	0x1
 18614 2918 55       		.byte	0x55
 18615 2919 00000000 		.4byte	0
 18616 291d 00000000 		.4byte	0
 18617              	.LLST300:
 18618 2921 18100000 		.4byte	.LVL649
 18619 2925 48100000 		.4byte	.LVL654
 18620 2929 0100     		.2byte	0x1
ARM GAS  C:\Users\164\AppData\Local\Temp\ccd4XrSZ.s 			page 375


 18621 292b 58       		.byte	0x58
 18622 292c 48100000 		.4byte	.LVL654
 18623 2930 52100000 		.4byte	.LVL656
 18624 2934 0500     		.2byte	0x5
 18625 2936 74       		.byte	0x74
 18626 2937 00       		.sleb128 0
 18627 2938 47       		.byte	0x47
 18628 2939 25       		.byte	0x25
 18629 293a 9F       		.byte	0x9f
 18630 293b 64100000 		.4byte	.LVL659
 18631 293f 7A100000 		.4byte	.LVL660
 18632 2943 0100     		.2byte	0x1
 18633 2945 58       		.byte	0x58
 18634 2946 7A100000 		.4byte	.LVL660
 18635 294a 84100000 		.4byte	.LVL662
 18636 294e 0500     		.2byte	0x5
 18637 2950 74       		.byte	0x74
 18638 2951 00       		.sleb128 0
 18639 2952 47       		.byte	0x47
 18640 2953 25       		.byte	0x25
 18641 2954 9F       		.byte	0x9f
 18642 2955 9A100000 		.4byte	.LVL665
 18643 2959 A8110000 		.4byte	.LVL699
 18644 295d 0100     		.2byte	0x1
 18645 295f 58       		.byte	0x58
 18646 2960 00000000 		.4byte	0
 18647 2964 00000000 		.4byte	0
 18648              	.LLST301:
 18649 2968 3E100000 		.4byte	.LVL652
 18650 296c 40100000 		.4byte	.LVL653
 18651 2970 0100     		.2byte	0x1
 18652 2972 53       		.byte	0x53
 18653 2973 62100000 		.4byte	.LVL658
 18654 2977 64100000 		.4byte	.LVL659
 18655 297b 0100     		.2byte	0x1
 18656 297d 53       		.byte	0x53
 18657 297e 98100000 		.4byte	.LVL664
 18658 2982 9A100000 		.4byte	.LVL665
 18659 2986 0100     		.2byte	0x1
 18660 2988 53       		.byte	0x53
 18661 2989 BA100000 		.4byte	.LVL668
 18662 298d C4100000 		.4byte	.LVL669
 18663 2991 0100     		.2byte	0x1
 18664 2993 53       		.byte	0x53
 18665 2994 A8110000 		.4byte	.LVL699
 18666 2998 AC110000 		.4byte	.LVL700
 18667 299c 0100     		.2byte	0x1
 18668 299e 53       		.byte	0x53
 18669 299f AE110000 		.4byte	.LVL701
 18670 29a3 B0110000 		.4byte	.LVL702
 18671 29a7 0100     		.2byte	0x1
 18672 29a9 53       		.byte	0x53
 18673 29aa 00000000 		.4byte	0
 18674 29ae 00000000 		.4byte	0
 18675              	.LLST302:
 18676 29b2 C4100000 		.4byte	.LVL669
 18677 29b6 9A110000 		.4byte	.LVL697
ARM GAS  C:\Users\164\AppData\Local\Temp\ccd4XrSZ.s 			page 376


 18678 29ba 0100     		.2byte	0x1
 18679 29bc 56       		.byte	0x56
 18680 29bd 00000000 		.4byte	0
 18681 29c1 00000000 		.4byte	0
 18682              	.LLST303:
 18683 29c5 C4100000 		.4byte	.LVL669
 18684 29c9 F0100000 		.4byte	.LVL675
 18685 29cd 0100     		.2byte	0x1
 18686 29cf 54       		.byte	0x54
 18687 29d0 00000000 		.4byte	0
 18688 29d4 00000000 		.4byte	0
 18689              	.LLST304:
 18690 29d8 C4100000 		.4byte	.LVL669
 18691 29dc 9A110000 		.4byte	.LVL697
 18692 29e0 0100     		.2byte	0x1
 18693 29e2 55       		.byte	0x55
 18694 29e3 00000000 		.4byte	0
 18695 29e7 00000000 		.4byte	0
 18696              	.LLST305:
 18697 29eb C6100000 		.4byte	.LVL670
 18698 29ef 6E110000 		.4byte	.LVL690
 18699 29f3 0100     		.2byte	0x1
 18700 29f5 57       		.byte	0x57
 18701 29f6 6E110000 		.4byte	.LVL690
 18702 29fa 70110000 		.4byte	.LVL691
 18703 29fe 0300     		.2byte	0x3
 18704 2a00 77       		.byte	0x77
 18705 2a01 7F       		.sleb128 -1
 18706 2a02 9F       		.byte	0x9f
 18707 2a03 80110000 		.4byte	.LVL694
 18708 2a07 9A110000 		.4byte	.LVL697
 18709 2a0b 0100     		.2byte	0x1
 18710 2a0d 57       		.byte	0x57
 18711 2a0e 00000000 		.4byte	0
 18712 2a12 00000000 		.4byte	0
 18713              	.LLST306:
 18714 2a16 CC100000 		.4byte	.LVL671
 18715 2a1a D8100000 		.4byte	.LVL673
 18716 2a1e 0100     		.2byte	0x1
 18717 2a20 53       		.byte	0x53
 18718 2a21 D8100000 		.4byte	.LVL673
 18719 2a25 24110000 		.4byte	.LVL678
 18720 2a29 0300     		.2byte	0x3
 18721 2a2b 91       		.byte	0x91
 18722 2a2c B07F     		.sleb128 -80
 18723 2a2e 00000000 		.4byte	0
 18724 2a32 00000000 		.4byte	0
 18725              	.LLST307:
 18726 2a36 D0100000 		.4byte	.LVL672
 18727 2a3a 9A110000 		.4byte	.LVL697
 18728 2a3e 0100     		.2byte	0x1
 18729 2a40 5B       		.byte	0x5b
 18730 2a41 00000000 		.4byte	0
 18731 2a45 00000000 		.4byte	0
 18732              	.LLST308:
 18733 2a49 EC100000 		.4byte	.LVL674
 18734 2a4d 9A110000 		.4byte	.LVL697
ARM GAS  C:\Users\164\AppData\Local\Temp\ccd4XrSZ.s 			page 377


 18735 2a51 0100     		.2byte	0x1
 18736 2a53 59       		.byte	0x59
 18737 2a54 00000000 		.4byte	0
 18738 2a58 00000000 		.4byte	0
 18739              	.LLST309:
 18740 2a5c 24110000 		.4byte	.LVL678
 18741 2a60 27110000 		.4byte	.LVL679-1
 18742 2a64 0100     		.2byte	0x1
 18743 2a66 50       		.byte	0x50
 18744 2a67 27110000 		.4byte	.LVL679-1
 18745 2a6b 9A110000 		.4byte	.LVL697
 18746 2a6f 0300     		.2byte	0x3
 18747 2a71 91       		.byte	0x91
 18748 2a72 B07F     		.sleb128 -80
 18749 2a74 00000000 		.4byte	0
 18750 2a78 00000000 		.4byte	0
 18751              	.LLST310:
 18752 2a7c 28110000 		.4byte	.LVL679
 18753 2a80 2E110000 		.4byte	.LVL680
 18754 2a84 0100     		.2byte	0x1
 18755 2a86 50       		.byte	0x50
 18756 2a87 00000000 		.4byte	0
 18757 2a8b 00000000 		.4byte	0
 18758              	.LLST311:
 18759 2a8f 32110000 		.4byte	.LVL681
 18760 2a93 3A110000 		.4byte	.LVL682
 18761 2a97 0100     		.2byte	0x1
 18762 2a99 50       		.byte	0x50
 18763 2a9a 3A110000 		.4byte	.LVL682
 18764 2a9e 52110000 		.4byte	.LVL687
 18765 2aa2 0100     		.2byte	0x1
 18766 2aa4 54       		.byte	0x54
 18767 2aa5 52110000 		.4byte	.LVL687
 18768 2aa9 62110000 		.4byte	.LVL688
 18769 2aad 0100     		.2byte	0x1
 18770 2aaf 50       		.byte	0x50
 18771 2ab0 62110000 		.4byte	.LVL688
 18772 2ab4 80110000 		.4byte	.LVL694
 18773 2ab8 0100     		.2byte	0x1
 18774 2aba 54       		.byte	0x54
 18775 2abb 80110000 		.4byte	.LVL694
 18776 2abf 84110000 		.4byte	.LVL695
 18777 2ac3 0100     		.2byte	0x1
 18778 2ac5 50       		.byte	0x50
 18779 2ac6 84110000 		.4byte	.LVL695
 18780 2aca 9A110000 		.4byte	.LVL697
 18781 2ace 0100     		.2byte	0x1
 18782 2ad0 54       		.byte	0x54
 18783 2ad1 00000000 		.4byte	0
 18784 2ad5 00000000 		.4byte	0
 18785              	.LLST312:
 18786 2ad9 3E110000 		.4byte	.LVL683
 18787 2add 42110000 		.4byte	.LVL684
 18788 2ae1 0100     		.2byte	0x1
 18789 2ae3 50       		.byte	0x50
 18790 2ae4 00000000 		.4byte	0
 18791 2ae8 00000000 		.4byte	0
ARM GAS  C:\Users\164\AppData\Local\Temp\ccd4XrSZ.s 			page 378


 18792              	.LLST313:
 18793 2aec 6E110000 		.4byte	.LVL690
 18794 2af0 80110000 		.4byte	.LVL694
 18795 2af4 0100     		.2byte	0x1
 18796 2af6 57       		.byte	0x57
 18797 2af7 00000000 		.4byte	0
 18798 2afb 00000000 		.4byte	0
 18799              	.LLST314:
 18800 2aff B6110000 		.4byte	.LVL704
 18801 2b03 4C130000 		.4byte	.LVL759
 18802 2b07 0100     		.2byte	0x1
 18803 2b09 56       		.byte	0x56
 18804 2b0a 00000000 		.4byte	0
 18805 2b0e 00000000 		.4byte	0
 18806              	.LLST315:
 18807 2b12 B6110000 		.4byte	.LVL704
 18808 2b16 F4110000 		.4byte	.LVL712
 18809 2b1a 0100     		.2byte	0x1
 18810 2b1c 54       		.byte	0x54
 18811 2b1d 06120000 		.4byte	.LVL715
 18812 2b21 26120000 		.4byte	.LVL718
 18813 2b25 0100     		.2byte	0x1
 18814 2b27 54       		.byte	0x54
 18815 2b28 3C120000 		.4byte	.LVL721
 18816 2b2c 44120000 		.4byte	.LVL722
 18817 2b30 0100     		.2byte	0x1
 18818 2b32 54       		.byte	0x54
 18819 2b33 5E120000 		.4byte	.LVL725
 18820 2b37 8A120000 		.4byte	.LVL731
 18821 2b3b 0100     		.2byte	0x1
 18822 2b3d 54       		.byte	0x54
 18823 2b3e 00000000 		.4byte	0
 18824 2b42 00000000 		.4byte	0
 18825              	.LLST316:
 18826 2b46 B6110000 		.4byte	.LVL704
 18827 2b4a 4C130000 		.4byte	.LVL759
 18828 2b4e 0100     		.2byte	0x1
 18829 2b50 55       		.byte	0x55
 18830 2b51 00000000 		.4byte	0
 18831 2b55 00000000 		.4byte	0
 18832              	.LLST317:
 18833 2b59 BA110000 		.4byte	.LVL705
 18834 2b5d EA110000 		.4byte	.LVL710
 18835 2b61 0100     		.2byte	0x1
 18836 2b63 58       		.byte	0x58
 18837 2b64 EA110000 		.4byte	.LVL710
 18838 2b68 F4110000 		.4byte	.LVL712
 18839 2b6c 0500     		.2byte	0x5
 18840 2b6e 74       		.byte	0x74
 18841 2b6f 00       		.sleb128 0
 18842 2b70 47       		.byte	0x47
 18843 2b71 25       		.byte	0x25
 18844 2b72 9F       		.byte	0x9f
 18845 2b73 06120000 		.4byte	.LVL715
 18846 2b77 1C120000 		.4byte	.LVL716
 18847 2b7b 0100     		.2byte	0x1
 18848 2b7d 58       		.byte	0x58
ARM GAS  C:\Users\164\AppData\Local\Temp\ccd4XrSZ.s 			page 379


 18849 2b7e 1C120000 		.4byte	.LVL716
 18850 2b82 26120000 		.4byte	.LVL718
 18851 2b86 0500     		.2byte	0x5
 18852 2b88 74       		.byte	0x74
 18853 2b89 00       		.sleb128 0
 18854 2b8a 47       		.byte	0x47
 18855 2b8b 25       		.byte	0x25
 18856 2b8c 9F       		.byte	0x9f
 18857 2b8d 3C120000 		.4byte	.LVL721
 18858 2b91 42130000 		.4byte	.LVL755
 18859 2b95 0100     		.2byte	0x1
 18860 2b97 58       		.byte	0x58
 18861 2b98 00000000 		.4byte	0
 18862 2b9c 00000000 		.4byte	0
 18863              	.LLST318:
 18864 2ba0 E0110000 		.4byte	.LVL708
 18865 2ba4 E2110000 		.4byte	.LVL709
 18866 2ba8 0100     		.2byte	0x1
 18867 2baa 53       		.byte	0x53
 18868 2bab 04120000 		.4byte	.LVL714
 18869 2baf 06120000 		.4byte	.LVL715
 18870 2bb3 0100     		.2byte	0x1
 18871 2bb5 53       		.byte	0x53
 18872 2bb6 3A120000 		.4byte	.LVL720
 18873 2bba 3C120000 		.4byte	.LVL721
 18874 2bbe 0100     		.2byte	0x1
 18875 2bc0 53       		.byte	0x53
 18876 2bc1 5C120000 		.4byte	.LVL724
 18877 2bc5 5E120000 		.4byte	.LVL725
 18878 2bc9 0100     		.2byte	0x1
 18879 2bcb 53       		.byte	0x53
 18880 2bcc 42130000 		.4byte	.LVL755
 18881 2bd0 46130000 		.4byte	.LVL756
 18882 2bd4 0100     		.2byte	0x1
 18883 2bd6 53       		.byte	0x53
 18884 2bd7 48130000 		.4byte	.LVL757
 18885 2bdb 4A130000 		.4byte	.LVL758
 18886 2bdf 0100     		.2byte	0x1
 18887 2be1 53       		.byte	0x53
 18888 2be2 00000000 		.4byte	0
 18889 2be6 00000000 		.4byte	0
 18890              	.LLST319:
 18891 2bea 5E120000 		.4byte	.LVL725
 18892 2bee 34130000 		.4byte	.LVL753
 18893 2bf2 0100     		.2byte	0x1
 18894 2bf4 56       		.byte	0x56
 18895 2bf5 00000000 		.4byte	0
 18896 2bf9 00000000 		.4byte	0
 18897              	.LLST320:
 18898 2bfd 5E120000 		.4byte	.LVL725
 18899 2c01 8A120000 		.4byte	.LVL731
 18900 2c05 0100     		.2byte	0x1
 18901 2c07 54       		.byte	0x54
 18902 2c08 00000000 		.4byte	0
 18903 2c0c 00000000 		.4byte	0
 18904              	.LLST321:
 18905 2c10 5E120000 		.4byte	.LVL725
ARM GAS  C:\Users\164\AppData\Local\Temp\ccd4XrSZ.s 			page 380


 18906 2c14 34130000 		.4byte	.LVL753
 18907 2c18 0100     		.2byte	0x1
 18908 2c1a 55       		.byte	0x55
 18909 2c1b 00000000 		.4byte	0
 18910 2c1f 00000000 		.4byte	0
 18911              	.LLST322:
 18912 2c23 60120000 		.4byte	.LVL726
 18913 2c27 08130000 		.4byte	.LVL746
 18914 2c2b 0100     		.2byte	0x1
 18915 2c2d 57       		.byte	0x57
 18916 2c2e 08130000 		.4byte	.LVL746
 18917 2c32 0A130000 		.4byte	.LVL747
 18918 2c36 0300     		.2byte	0x3
 18919 2c38 77       		.byte	0x77
 18920 2c39 7F       		.sleb128 -1
 18921 2c3a 9F       		.byte	0x9f
 18922 2c3b 1A130000 		.4byte	.LVL750
 18923 2c3f 34130000 		.4byte	.LVL753
 18924 2c43 0100     		.2byte	0x1
 18925 2c45 57       		.byte	0x57
 18926 2c46 00000000 		.4byte	0
 18927 2c4a 00000000 		.4byte	0
 18928              	.LLST323:
 18929 2c4e 66120000 		.4byte	.LVL727
 18930 2c52 72120000 		.4byte	.LVL729
 18931 2c56 0100     		.2byte	0x1
 18932 2c58 53       		.byte	0x53
 18933 2c59 72120000 		.4byte	.LVL729
 18934 2c5d BE120000 		.4byte	.LVL734
 18935 2c61 0300     		.2byte	0x3
 18936 2c63 91       		.byte	0x91
 18937 2c64 B07F     		.sleb128 -80
 18938 2c66 00000000 		.4byte	0
 18939 2c6a 00000000 		.4byte	0
 18940              	.LLST324:
 18941 2c6e 6A120000 		.4byte	.LVL728
 18942 2c72 34130000 		.4byte	.LVL753
 18943 2c76 0100     		.2byte	0x1
 18944 2c78 5B       		.byte	0x5b
 18945 2c79 00000000 		.4byte	0
 18946 2c7d 00000000 		.4byte	0
 18947              	.LLST325:
 18948 2c81 86120000 		.4byte	.LVL730
 18949 2c85 34130000 		.4byte	.LVL753
 18950 2c89 0100     		.2byte	0x1
 18951 2c8b 59       		.byte	0x59
 18952 2c8c 00000000 		.4byte	0
 18953 2c90 00000000 		.4byte	0
 18954              	.LLST326:
 18955 2c94 BE120000 		.4byte	.LVL734
 18956 2c98 C1120000 		.4byte	.LVL735-1
 18957 2c9c 0100     		.2byte	0x1
 18958 2c9e 50       		.byte	0x50
 18959 2c9f C1120000 		.4byte	.LVL735-1
 18960 2ca3 34130000 		.4byte	.LVL753
 18961 2ca7 0300     		.2byte	0x3
 18962 2ca9 91       		.byte	0x91
ARM GAS  C:\Users\164\AppData\Local\Temp\ccd4XrSZ.s 			page 381


 18963 2caa B07F     		.sleb128 -80
 18964 2cac 00000000 		.4byte	0
 18965 2cb0 00000000 		.4byte	0
 18966              	.LLST327:
 18967 2cb4 C2120000 		.4byte	.LVL735
 18968 2cb8 C8120000 		.4byte	.LVL736
 18969 2cbc 0100     		.2byte	0x1
 18970 2cbe 50       		.byte	0x50
 18971 2cbf 00000000 		.4byte	0
 18972 2cc3 00000000 		.4byte	0
 18973              	.LLST328:
 18974 2cc7 CC120000 		.4byte	.LVL737
 18975 2ccb D4120000 		.4byte	.LVL738
 18976 2ccf 0100     		.2byte	0x1
 18977 2cd1 50       		.byte	0x50
 18978 2cd2 D4120000 		.4byte	.LVL738
 18979 2cd6 EC120000 		.4byte	.LVL743
 18980 2cda 0100     		.2byte	0x1
 18981 2cdc 54       		.byte	0x54
 18982 2cdd EC120000 		.4byte	.LVL743
 18983 2ce1 FC120000 		.4byte	.LVL744
 18984 2ce5 0100     		.2byte	0x1
 18985 2ce7 50       		.byte	0x50
 18986 2ce8 FC120000 		.4byte	.LVL744
 18987 2cec 1A130000 		.4byte	.LVL750
 18988 2cf0 0100     		.2byte	0x1
 18989 2cf2 54       		.byte	0x54
 18990 2cf3 1A130000 		.4byte	.LVL750
 18991 2cf7 1E130000 		.4byte	.LVL751
 18992 2cfb 0100     		.2byte	0x1
 18993 2cfd 50       		.byte	0x50
 18994 2cfe 1E130000 		.4byte	.LVL751
 18995 2d02 34130000 		.4byte	.LVL753
 18996 2d06 0100     		.2byte	0x1
 18997 2d08 54       		.byte	0x54
 18998 2d09 00000000 		.4byte	0
 18999 2d0d 00000000 		.4byte	0
 19000              	.LLST329:
 19001 2d11 D8120000 		.4byte	.LVL739
 19002 2d15 DC120000 		.4byte	.LVL740
 19003 2d19 0100     		.2byte	0x1
 19004 2d1b 50       		.byte	0x50
 19005 2d1c 00000000 		.4byte	0
 19006 2d20 00000000 		.4byte	0
 19007              	.LLST330:
 19008 2d24 08130000 		.4byte	.LVL746
 19009 2d28 1A130000 		.4byte	.LVL750
 19010 2d2c 0100     		.2byte	0x1
 19011 2d2e 57       		.byte	0x57
 19012 2d2f 00000000 		.4byte	0
 19013 2d33 00000000 		.4byte	0
 19014              	.LLST331:
 19015 2d37 50130000 		.4byte	.LVL760
 19016 2d3b 8E130000 		.4byte	.LVL769
 19017 2d3f 0100     		.2byte	0x1
 19018 2d41 56       		.byte	0x56
 19019 2d42 A2130000 		.4byte	.LVL771
ARM GAS  C:\Users\164\AppData\Local\Temp\ccd4XrSZ.s 			page 382


 19020 2d46 A6130000 		.4byte	.LVL772
 19021 2d4a 0100     		.2byte	0x1
 19022 2d4c 56       		.byte	0x56
 19023 2d4d 00000000 		.4byte	0
 19024 2d51 00000000 		.4byte	0
 19025              	.LLST332:
 19026 2d55 50130000 		.4byte	.LVL760
 19027 2d59 68130000 		.4byte	.LVL765
 19028 2d5d 0100     		.2byte	0x1
 19029 2d5f 54       		.byte	0x54
 19030 2d60 00000000 		.4byte	0
 19031 2d64 00000000 		.4byte	0
 19032              	.LLST333:
 19033 2d68 50130000 		.4byte	.LVL760
 19034 2d6c A6130000 		.4byte	.LVL772
 19035 2d70 0100     		.2byte	0x1
 19036 2d72 55       		.byte	0x55
 19037 2d73 00000000 		.4byte	0
 19038 2d77 00000000 		.4byte	0
 19039              	.LLST334:
 19040 2d7b 54130000 		.4byte	.LVL761
 19041 2d7f A8130000 		.4byte	.LVL773
 19042 2d83 0100     		.2byte	0x1
 19043 2d85 58       		.byte	0x58
 19044 2d86 00000000 		.4byte	0
 19045 2d8a 00000000 		.4byte	0
 19046              	.LLST335:
 19047 2d8e 58130000 		.4byte	.LVL762
 19048 2d92 6E130000 		.4byte	.LVL766
 19049 2d96 0100     		.2byte	0x1
 19050 2d98 57       		.byte	0x57
 19051 2d99 A2130000 		.4byte	.LVL771
 19052 2d9d A6130000 		.4byte	.LVL772
 19053 2da1 0100     		.2byte	0x1
 19054 2da3 57       		.byte	0x57
 19055 2da4 00000000 		.4byte	0
 19056 2da8 00000000 		.4byte	0
 19057              	.LLST336:
 19058 2dac 5C130000 		.4byte	.LVL763
 19059 2db0 A6130000 		.4byte	.LVL772
 19060 2db4 0100     		.2byte	0x1
 19061 2db6 59       		.byte	0x59
 19062 2db7 00000000 		.4byte	0
 19063 2dbb 00000000 		.4byte	0
 19064              	.LLST337:
 19065 2dbf A8130000 		.4byte	.LVL773
 19066 2dc3 D4130000 		.4byte	.LVL784
 19067 2dc7 0100     		.2byte	0x1
 19068 2dc9 56       		.byte	0x56
 19069 2dca E8130000 		.4byte	.LVL787
 19070 2dce EC130000 		.4byte	.LVL788
 19071 2dd2 0100     		.2byte	0x1
 19072 2dd4 56       		.byte	0x56
 19073 2dd5 00000000 		.4byte	0
 19074 2dd9 00000000 		.4byte	0
 19075              	.LLST338:
 19076 2ddd A8130000 		.4byte	.LVL773
ARM GAS  C:\Users\164\AppData\Local\Temp\ccd4XrSZ.s 			page 383


 19077 2de1 AE130000 		.4byte	.LVL775
 19078 2de5 0100     		.2byte	0x1
 19079 2de7 54       		.byte	0x54
 19080 2de8 00000000 		.4byte	0
 19081 2dec 00000000 		.4byte	0
 19082              	.LLST339:
 19083 2df0 A8130000 		.4byte	.LVL773
 19084 2df4 EC130000 		.4byte	.LVL788
 19085 2df8 0100     		.2byte	0x1
 19086 2dfa 55       		.byte	0x55
 19087 2dfb 00000000 		.4byte	0
 19088 2dff 00000000 		.4byte	0
 19089              	.LLST340:
 19090 2e03 AA130000 		.4byte	.LVL774
 19091 2e07 E6130000 		.4byte	.LVL786
 19092 2e0b 0100     		.2byte	0x1
 19093 2e0d 57       		.byte	0x57
 19094 2e0e E8130000 		.4byte	.LVL787
 19095 2e12 EC130000 		.4byte	.LVL788
 19096 2e16 0100     		.2byte	0x1
 19097 2e18 57       		.byte	0x57
 19098 2e19 00000000 		.4byte	0
 19099 2e1d 00000000 		.4byte	0
 19100              	.LLST341:
 19101 2e21 AE130000 		.4byte	.LVL775
 19102 2e25 EC130000 		.4byte	.LVL788
 19103 2e29 0100     		.2byte	0x1
 19104 2e2b 54       		.byte	0x54
 19105 2e2c 00000000 		.4byte	0
 19106 2e30 00000000 		.4byte	0
 19107              	.LLST342:
 19108 2e34 B6130000 		.4byte	.LVL777
 19109 2e38 BE130000 		.4byte	.LVL780
 19110 2e3c 0100     		.2byte	0x1
 19111 2e3e 53       		.byte	0x53
 19112 2e3f BE130000 		.4byte	.LVL780
 19113 2e43 CB130000 		.4byte	.LVL783-1
 19114 2e47 0B00     		.2byte	0xb
 19115 2e49 74       		.byte	0x74
 19116 2e4a 00       		.sleb128 0
 19117 2e4b 32       		.byte	0x32
 19118 2e4c 24       		.byte	0x24
 19119 2e4d 75       		.byte	0x75
 19120 2e4e 0C       		.sleb128 12
 19121 2e4f 06       		.byte	0x6
 19122 2e50 23       		.byte	0x23
 19123 2e51 10       		.uleb128 0x10
 19124 2e52 06       		.byte	0x6
 19125 2e53 22       		.byte	0x22
 19126 2e54 00000000 		.4byte	0
 19127 2e58 00000000 		.4byte	0
 19128              	.LLST343:
 19129 2e5c C2130000 		.4byte	.LVL781
 19130 2e60 C4130000 		.4byte	.LVL782
 19131 2e64 0700     		.2byte	0x7
 19132 2e66 73       		.byte	0x73
 19133 2e67 00       		.sleb128 0
ARM GAS  C:\Users\164\AppData\Local\Temp\ccd4XrSZ.s 			page 384


 19134 2e68 0A       		.byte	0xa
 19135 2e69 FFFF     		.2byte	0xffff
 19136 2e6b 1A       		.byte	0x1a
 19137 2e6c 9F       		.byte	0x9f
 19138 2e6d C4130000 		.4byte	.LVL782
 19139 2e71 CB130000 		.4byte	.LVL783-1
 19140 2e75 0100     		.2byte	0x1
 19141 2e77 53       		.byte	0x53
 19142 2e78 00000000 		.4byte	0
 19143 2e7c 00000000 		.4byte	0
 19144              	.LLST344:
 19145 2e80 B8130000 		.4byte	.LVL778
 19146 2e84 C2130000 		.4byte	.LVL781
 19147 2e88 0300     		.2byte	0x3
 19148 2e8a 72       		.byte	0x72
 19149 2e8b 7E       		.sleb128 -2
 19150 2e8c 9F       		.byte	0x9f
 19151 2e8d 00000000 		.4byte	0
 19152 2e91 00000000 		.4byte	0
 19153              	.LLST345:
 19154 2e95 BC130000 		.4byte	.LVL779
 19155 2e99 C2130000 		.4byte	.LVL781
 19156 2e9d 0100     		.2byte	0x1
 19157 2e9f 51       		.byte	0x51
 19158 2ea0 00000000 		.4byte	0
 19159 2ea4 00000000 		.4byte	0
 19160              	.LLST346:
 19161 2ea8 F8130000 		.4byte	.LVL789
 19162 2eac 2A140000 		.4byte	.LVL798
 19163 2eb0 0100     		.2byte	0x1
 19164 2eb2 56       		.byte	0x56
 19165 2eb3 00000000 		.4byte	0
 19166 2eb7 00000000 		.4byte	0
 19167              	.LLST347:
 19168 2ebb F8130000 		.4byte	.LVL789
 19169 2ebf FE130000 		.4byte	.LVL791
 19170 2ec3 0100     		.2byte	0x1
 19171 2ec5 54       		.byte	0x54
 19172 2ec6 00000000 		.4byte	0
 19173 2eca 00000000 		.4byte	0
 19174              	.LLST348:
 19175 2ece F8130000 		.4byte	.LVL789
 19176 2ed2 46140000 		.4byte	.LVL802
 19177 2ed6 0100     		.2byte	0x1
 19178 2ed8 55       		.byte	0x55
 19179 2ed9 00000000 		.4byte	0
 19180 2edd 00000000 		.4byte	0
 19181              	.LLST349:
 19182 2ee1 FA130000 		.4byte	.LVL790
 19183 2ee5 2C140000 		.4byte	.LVL799
 19184 2ee9 0100     		.2byte	0x1
 19185 2eeb 57       		.byte	0x57
 19186 2eec 00000000 		.4byte	0
 19187 2ef0 00000000 		.4byte	0
 19188              	.LLST350:
 19189 2ef4 FE130000 		.4byte	.LVL791
 19190 2ef8 08140000 		.4byte	.LVL793
ARM GAS  C:\Users\164\AppData\Local\Temp\ccd4XrSZ.s 			page 385


 19191 2efc 0100     		.2byte	0x1
 19192 2efe 54       		.byte	0x54
 19193 2eff 00000000 		.4byte	0
 19194 2f03 00000000 		.4byte	0
 19195              	.LLST351:
 19196 2f07 04140000 		.4byte	.LVL792
 19197 2f0b 0E140000 		.4byte	.LVL794
 19198 2f0f 0100     		.2byte	0x1
 19199 2f11 50       		.byte	0x50
 19200 2f12 00000000 		.4byte	0
 19201 2f16 00000000 		.4byte	0
 19202              	.LLST352:
 19203 2f1a 12140000 		.4byte	.LVL795
 19204 2f1e 24140000 		.4byte	.LVL796
 19205 2f22 0100     		.2byte	0x1
 19206 2f24 50       		.byte	0x50
 19207 2f25 00000000 		.4byte	0
 19208 2f29 00000000 		.4byte	0
 19209              	.LLST353:
 19210 2f2d 4A140000 		.4byte	.LVL803
 19211 2f31 90140000 		.4byte	.LVL812
 19212 2f35 0100     		.2byte	0x1
 19213 2f37 56       		.byte	0x56
 19214 2f38 A4140000 		.4byte	.LVL815
 19215 2f3c A8140000 		.4byte	.LVL816
 19216 2f40 0100     		.2byte	0x1
 19217 2f42 56       		.byte	0x56
 19218 2f43 00000000 		.4byte	0
 19219 2f47 00000000 		.4byte	0
 19220              	.LLST354:
 19221 2f4b 4A140000 		.4byte	.LVL803
 19222 2f4f 54140000 		.4byte	.LVL806
 19223 2f53 0100     		.2byte	0x1
 19224 2f55 54       		.byte	0x54
 19225 2f56 00000000 		.4byte	0
 19226 2f5a 00000000 		.4byte	0
 19227              	.LLST355:
 19228 2f5e 4A140000 		.4byte	.LVL803
 19229 2f62 A8140000 		.4byte	.LVL816
 19230 2f66 0100     		.2byte	0x1
 19231 2f68 55       		.byte	0x55
 19232 2f69 00000000 		.4byte	0
 19233 2f6d 00000000 		.4byte	0
 19234              	.LLST356:
 19235 2f71 4C140000 		.4byte	.LVL804
 19236 2f75 A2140000 		.4byte	.LVL814
 19237 2f79 0100     		.2byte	0x1
 19238 2f7b 57       		.byte	0x57
 19239 2f7c A4140000 		.4byte	.LVL815
 19240 2f80 A8140000 		.4byte	.LVL816
 19241 2f84 0100     		.2byte	0x1
 19242 2f86 57       		.byte	0x57
 19243 2f87 00000000 		.4byte	0
 19244 2f8b 00000000 		.4byte	0
 19245              	.LLST357:
 19246 2f8f 50140000 		.4byte	.LVL805
 19247 2f93 70140000 		.4byte	.LVL809
ARM GAS  C:\Users\164\AppData\Local\Temp\ccd4XrSZ.s 			page 386


 19248 2f97 0100     		.2byte	0x1
 19249 2f99 58       		.byte	0x58
 19250 2f9a A4140000 		.4byte	.LVL815
 19251 2f9e A8140000 		.4byte	.LVL816
 19252 2fa2 0100     		.2byte	0x1
 19253 2fa4 58       		.byte	0x58
 19254 2fa5 00000000 		.4byte	0
 19255 2fa9 00000000 		.4byte	0
 19256              	.LLST358:
 19257 2fad 54140000 		.4byte	.LVL806
 19258 2fb1 6C140000 		.4byte	.LVL808
 19259 2fb5 0100     		.2byte	0x1
 19260 2fb7 54       		.byte	0x54
 19261 2fb8 6C140000 		.4byte	.LVL808
 19262 2fbc A4140000 		.4byte	.LVL815
 19263 2fc0 0100     		.2byte	0x1
 19264 2fc2 5A       		.byte	0x5a
 19265 2fc3 A4140000 		.4byte	.LVL815
 19266 2fc7 A8140000 		.4byte	.LVL816
 19267 2fcb 0100     		.2byte	0x1
 19268 2fcd 54       		.byte	0x54
 19269 2fce 00000000 		.4byte	0
 19270 2fd2 00000000 		.4byte	0
 19271              	.LLST359:
 19272 2fd6 AA140000 		.4byte	.LVL817
 19273 2fda E4140000 		.4byte	.LVL826
 19274 2fde 0100     		.2byte	0x1
 19275 2fe0 56       		.byte	0x56
 19276 2fe1 00000000 		.4byte	0
 19277 2fe5 00000000 		.4byte	0
 19278              	.LLST360:
 19279 2fe9 AA140000 		.4byte	.LVL817
 19280 2fed B2140000 		.4byte	.LVL819
 19281 2ff1 0100     		.2byte	0x1
 19282 2ff3 54       		.byte	0x54
 19283 2ff4 00000000 		.4byte	0
 19284 2ff8 00000000 		.4byte	0
 19285              	.LLST361:
 19286 2ffc AA140000 		.4byte	.LVL817
 19287 3000 E4140000 		.4byte	.LVL826
 19288 3004 0100     		.2byte	0x1
 19289 3006 55       		.byte	0x55
 19290 3007 00000000 		.4byte	0
 19291 300b 00000000 		.4byte	0
 19292              	.LLST362:
 19293 300f AE140000 		.4byte	.LVL818
 19294 3013 D6140000 		.4byte	.LVL823
 19295 3017 0100     		.2byte	0x1
 19296 3019 58       		.byte	0x58
 19297 301a 00000000 		.4byte	0
 19298 301e 00000000 		.4byte	0
 19299              	.LLST363:
 19300 3022 B2140000 		.4byte	.LVL819
 19301 3026 D2140000 		.4byte	.LVL822
 19302 302a 0100     		.2byte	0x1
 19303 302c 54       		.byte	0x54
 19304 302d 00000000 		.4byte	0
ARM GAS  C:\Users\164\AppData\Local\Temp\ccd4XrSZ.s 			page 387


 19305 3031 00000000 		.4byte	0
 19306              	.LLST364:
 19307 3035 BC140000 		.4byte	.LVL821
 19308 3039 D8140000 		.4byte	.LVL824
 19309 303d 0100     		.2byte	0x1
 19310 303f 50       		.byte	0x50
 19311 3040 D8140000 		.4byte	.LVL824
 19312 3044 E4140000 		.4byte	.LVL826
 19313 3048 0100     		.2byte	0x1
 19314 304a 57       		.byte	0x57
 19315 304b 00000000 		.4byte	0
 19316 304f 00000000 		.4byte	0
 19317              	.LLST365:
 19318 3053 E8140000 		.4byte	.LVL827
 19319 3057 20150000 		.4byte	.LVL836
 19320 305b 0100     		.2byte	0x1
 19321 305d 56       		.byte	0x56
 19322 305e 34150000 		.4byte	.LVL838
 19323 3062 38150000 		.4byte	.LVL839
 19324 3066 0100     		.2byte	0x1
 19325 3068 56       		.byte	0x56
 19326 3069 00000000 		.4byte	0
 19327 306d 00000000 		.4byte	0
 19328              	.LLST366:
 19329 3071 E8140000 		.4byte	.LVL827
 19330 3075 F4140000 		.4byte	.LVL830
 19331 3079 0100     		.2byte	0x1
 19332 307b 54       		.byte	0x54
 19333 307c 00000000 		.4byte	0
 19334 3080 00000000 		.4byte	0
 19335              	.LLST367:
 19336 3084 E8140000 		.4byte	.LVL827
 19337 3088 38150000 		.4byte	.LVL839
 19338 308c 0100     		.2byte	0x1
 19339 308e 55       		.byte	0x55
 19340 308f 00000000 		.4byte	0
 19341 3093 00000000 		.4byte	0
 19342              	.LLST368:
 19343 3097 EC140000 		.4byte	.LVL828
 19344 309b 3A150000 		.4byte	.LVL840
 19345 309f 0100     		.2byte	0x1
 19346 30a1 58       		.byte	0x58
 19347 30a2 00000000 		.4byte	0
 19348 30a6 00000000 		.4byte	0
 19349              	.LLST369:
 19350 30aa F0140000 		.4byte	.LVL829
 19351 30ae 00150000 		.4byte	.LVL832
 19352 30b2 0100     		.2byte	0x1
 19353 30b4 57       		.byte	0x57
 19354 30b5 00150000 		.4byte	.LVL832
 19355 30b9 04150000 		.4byte	.LVL833
 19356 30bd 0300     		.2byte	0x3
 19357 30bf 77       		.byte	0x77
 19358 30c0 7F       		.sleb128 -1
 19359 30c1 9F       		.byte	0x9f
 19360 30c2 00000000 		.4byte	0
 19361 30c6 00000000 		.4byte	0
ARM GAS  C:\Users\164\AppData\Local\Temp\ccd4XrSZ.s 			page 388


 19362              	.LLST370:
 19363 30ca F4140000 		.4byte	.LVL830
 19364 30ce 38150000 		.4byte	.LVL839
 19365 30d2 0100     		.2byte	0x1
 19366 30d4 54       		.byte	0x54
 19367 30d5 00000000 		.4byte	0
 19368 30d9 00000000 		.4byte	0
 19369              	.LLST371:
 19370 30dd 3A150000 		.4byte	.LVL840
 19371 30e1 7E150000 		.4byte	.LVL850
 19372 30e5 0100     		.2byte	0x1
 19373 30e7 56       		.byte	0x56
 19374 30e8 00000000 		.4byte	0
 19375 30ec 00000000 		.4byte	0
 19376              	.LLST372:
 19377 30f0 3A150000 		.4byte	.LVL840
 19378 30f4 84150000 		.4byte	.LVL852
 19379 30f8 0100     		.2byte	0x1
 19380 30fa 54       		.byte	0x54
 19381 30fb 00000000 		.4byte	0
 19382 30ff 00000000 		.4byte	0
 19383              	.LLST373:
 19384 3103 3A150000 		.4byte	.LVL840
 19385 3107 84150000 		.4byte	.LVL852
 19386 310b 0100     		.2byte	0x1
 19387 310d 55       		.byte	0x55
 19388 310e 00000000 		.4byte	0
 19389 3112 00000000 		.4byte	0
 19390              	.LLST374:
 19391 3116 3E150000 		.4byte	.LVL841
 19392 311a 86150000 		.4byte	.LVL853
 19393 311e 0100     		.2byte	0x1
 19394 3120 58       		.byte	0x58
 19395 3121 00000000 		.4byte	0
 19396 3125 00000000 		.4byte	0
 19397              	.LLST375:
 19398 3129 3E150000 		.4byte	.LVL841
 19399 312d 44150000 		.4byte	.LVL843
 19400 3131 0900     		.2byte	0x9
 19401 3133 74       		.byte	0x74
 19402 3134 00       		.sleb128 0
 19403 3135 09       		.byte	0x9
 19404 3136 ED       		.byte	0xed
 19405 3137 24       		.byte	0x24
 19406 3138 09       		.byte	0x9
 19407 3139 FB       		.byte	0xfb
 19408 313a 25       		.byte	0x25
 19409 313b 9F       		.byte	0x9f
 19410 313c 44150000 		.4byte	.LVL843
 19411 3140 49150000 		.4byte	.LVL844-1
 19412 3144 0100     		.2byte	0x1
 19413 3146 51       		.byte	0x51
 19414 3147 49150000 		.4byte	.LVL844-1
 19415 314b 84150000 		.4byte	.LVL852
 19416 314f 0900     		.2byte	0x9
 19417 3151 74       		.byte	0x74
 19418 3152 00       		.sleb128 0
ARM GAS  C:\Users\164\AppData\Local\Temp\ccd4XrSZ.s 			page 389


 19419 3153 09       		.byte	0x9
 19420 3154 ED       		.byte	0xed
 19421 3155 24       		.byte	0x24
 19422 3156 09       		.byte	0x9
 19423 3157 FB       		.byte	0xfb
 19424 3158 25       		.byte	0x25
 19425 3159 9F       		.byte	0x9f
 19426 315a 00000000 		.4byte	0
 19427 315e 00000000 		.4byte	0
 19428              	.LLST376:
 19429 3162 40150000 		.4byte	.LVL842
 19430 3166 49150000 		.4byte	.LVL844-1
 19431 316a 0100     		.2byte	0x1
 19432 316c 53       		.byte	0x53
 19433 316d 00000000 		.4byte	0
 19434 3171 00000000 		.4byte	0
 19435              	.LLST377:
 19436 3175 4C150000 		.4byte	.LVL845
 19437 3179 64150000 		.4byte	.LVL847
 19438 317d 0100     		.2byte	0x1
 19439 317f 50       		.byte	0x50
 19440 3180 64150000 		.4byte	.LVL847
 19441 3184 67150000 		.4byte	.LVL848-1
 19442 3188 0100     		.2byte	0x1
 19443 318a 51       		.byte	0x51
 19444 318b 00000000 		.4byte	0
 19445 318f 00000000 		.4byte	0
 19446              	.LLST378:
 19447 3193 62150000 		.4byte	.LVL846
 19448 3197 67150000 		.4byte	.LVL848-1
 19449 319b 0100     		.2byte	0x1
 19450 319d 52       		.byte	0x52
 19451 319e 00000000 		.4byte	0
 19452 31a2 00000000 		.4byte	0
 19453              	.LLST379:
 19454 31a6 68150000 		.4byte	.LVL848
 19455 31aa 80150000 		.4byte	.LVL851
 19456 31ae 0100     		.2byte	0x1
 19457 31b0 50       		.byte	0x50
 19458 31b1 80150000 		.4byte	.LVL851
 19459 31b5 84150000 		.4byte	.LVL852
 19460 31b9 0200     		.2byte	0x2
 19461 31bb 91       		.byte	0x91
 19462 31bc 50       		.sleb128 -48
 19463 31bd 00000000 		.4byte	0
 19464 31c1 00000000 		.4byte	0
 19465              	.LLST380:
 19466 31c5 86150000 		.4byte	.LVL853
 19467 31c9 92150000 		.4byte	.LVL856
 19468 31cd 0100     		.2byte	0x1
 19469 31cf 56       		.byte	0x56
 19470 31d0 92150000 		.4byte	.LVL856
 19471 31d4 9E150000 		.4byte	.LVL858
 19472 31d8 0300     		.2byte	0x3
 19473 31da 75       		.byte	0x75
 19474 31db D80C     		.sleb128 1624
 19475 31dd 00000000 		.4byte	0
ARM GAS  C:\Users\164\AppData\Local\Temp\ccd4XrSZ.s 			page 390


 19476 31e1 00000000 		.4byte	0
 19477              	.LLST381:
 19478 31e5 86150000 		.4byte	.LVL853
 19479 31e9 8C150000 		.4byte	.LVL855
 19480 31ed 0100     		.2byte	0x1
 19481 31ef 54       		.byte	0x54
 19482 31f0 00000000 		.4byte	0
 19483 31f4 00000000 		.4byte	0
 19484              	.LLST382:
 19485 31f8 86150000 		.4byte	.LVL853
 19486 31fc CA150000 		.4byte	.LVL862
 19487 3200 0100     		.2byte	0x1
 19488 3202 55       		.byte	0x55
 19489 3203 00000000 		.4byte	0
 19490 3207 00000000 		.4byte	0
 19491              	.LLST383:
 19492 320b 88150000 		.4byte	.LVL854
 19493 320f 9A150000 		.4byte	.LVL857
 19494 3213 0100     		.2byte	0x1
 19495 3215 53       		.byte	0x53
 19496 3216 00000000 		.4byte	0
 19497 321a 00000000 		.4byte	0
 19498              	.LLST384:
 19499 321e 8C150000 		.4byte	.LVL855
 19500 3222 CA150000 		.4byte	.LVL862
 19501 3226 0100     		.2byte	0x1
 19502 3228 54       		.byte	0x54
 19503 3229 00000000 		.4byte	0
 19504 322d 00000000 		.4byte	0
 19505              	.LLST385:
 19506 3231 CC150000 		.4byte	.LVL863
 19507 3235 56160000 		.4byte	.LVL880
 19508 3239 0100     		.2byte	0x1
 19509 323b 56       		.byte	0x56
 19510 323c 00000000 		.4byte	0
 19511 3240 00000000 		.4byte	0
 19512              	.LLST386:
 19513 3244 CC150000 		.4byte	.LVL863
 19514 3248 DA150000 		.4byte	.LVL867
 19515 324c 0100     		.2byte	0x1
 19516 324e 54       		.byte	0x54
 19517 324f 00000000 		.4byte	0
 19518 3253 00000000 		.4byte	0
 19519              	.LLST387:
 19520 3257 CC150000 		.4byte	.LVL863
 19521 325b 56160000 		.4byte	.LVL880
 19522 325f 0100     		.2byte	0x1
 19523 3261 55       		.byte	0x55
 19524 3262 00000000 		.4byte	0
 19525 3266 00000000 		.4byte	0
 19526              	.LLST388:
 19527 326a CE150000 		.4byte	.LVL864
 19528 326e DC150000 		.4byte	.LVL868
 19529 3272 0100     		.2byte	0x1
 19530 3274 53       		.byte	0x53
 19531 3275 00000000 		.4byte	0
 19532 3279 00000000 		.4byte	0
ARM GAS  C:\Users\164\AppData\Local\Temp\ccd4XrSZ.s 			page 391


 19533              	.LLST389:
 19534 327d D2150000 		.4byte	.LVL865
 19535 3281 EF150000 		.4byte	.LVL871-1
 19536 3285 0100     		.2byte	0x1
 19537 3287 51       		.byte	0x51
 19538 3288 00000000 		.4byte	0
 19539 328c 00000000 		.4byte	0
 19540              	.LLST390:
 19541 3290 DA150000 		.4byte	.LVL867
 19542 3294 56160000 		.4byte	.LVL880
 19543 3298 0100     		.2byte	0x1
 19544 329a 54       		.byte	0x54
 19545 329b 00000000 		.4byte	0
 19546 329f 00000000 		.4byte	0
 19547              	.LLST391:
 19548 32a3 E8150000 		.4byte	.LVL869
 19549 32a7 56160000 		.4byte	.LVL880
 19550 32ab 0100     		.2byte	0x1
 19551 32ad 58       		.byte	0x58
 19552 32ae 00000000 		.4byte	0
 19553 32b2 00000000 		.4byte	0
 19554              	.LLST392:
 19555 32b6 EA150000 		.4byte	.LVL870
 19556 32ba EF150000 		.4byte	.LVL871-1
 19557 32be 0100     		.2byte	0x1
 19558 32c0 53       		.byte	0x53
 19559 32c1 00000000 		.4byte	0
 19560 32c5 00000000 		.4byte	0
 19561              	.LLST393:
 19562 32c9 F0150000 		.4byte	.LVL871
 19563 32cd F3150000 		.4byte	.LVL872-1
 19564 32d1 0100     		.2byte	0x1
 19565 32d3 50       		.byte	0x50
 19566 32d4 00000000 		.4byte	0
 19567 32d8 00000000 		.4byte	0
 19568              	.LLST394:
 19569 32dc F6150000 		.4byte	.LVL873
 19570 32e0 30160000 		.4byte	.LVL877
 19571 32e4 0100     		.2byte	0x1
 19572 32e6 50       		.byte	0x50
 19573 32e7 30160000 		.4byte	.LVL877
 19574 32eb 56160000 		.4byte	.LVL880
 19575 32ef 0100     		.2byte	0x1
 19576 32f1 59       		.byte	0x59
 19577 32f2 00000000 		.4byte	0
 19578 32f6 00000000 		.4byte	0
 19579              	.LLST395:
 19580 32fa FC150000 		.4byte	.LVL874
 19581 32fe 33160000 		.4byte	.LVL878-1
 19582 3302 0100     		.2byte	0x1
 19583 3304 53       		.byte	0x53
 19584 3305 00000000 		.4byte	0
 19585 3309 00000000 		.4byte	0
 19586              	.LLST396:
 19587 330d FC150000 		.4byte	.LVL874
 19588 3311 33160000 		.4byte	.LVL878-1
 19589 3315 0100     		.2byte	0x1
ARM GAS  C:\Users\164\AppData\Local\Temp\ccd4XrSZ.s 			page 392


 19590 3317 51       		.byte	0x51
 19591 3318 00000000 		.4byte	0
 19592 331c 00000000 		.4byte	0
 19593              	.LLST397:
 19594 3320 5A160000 		.4byte	.LVL881
 19595 3324 70160000 		.4byte	.LVL886
 19596 3328 0100     		.2byte	0x1
 19597 332a 56       		.byte	0x56
 19598 332b 00000000 		.4byte	0
 19599 332f 00000000 		.4byte	0
 19600              	.LLST398:
 19601 3333 5A160000 		.4byte	.LVL881
 19602 3337 5C160000 		.4byte	.LVL882
 19603 333b 0100     		.2byte	0x1
 19604 333d 54       		.byte	0x54
 19605 333e 00000000 		.4byte	0
 19606 3342 00000000 		.4byte	0
 19607              	.LLST399:
 19608 3346 5A160000 		.4byte	.LVL881
 19609 334a 70160000 		.4byte	.LVL886
 19610 334e 0100     		.2byte	0x1
 19611 3350 55       		.byte	0x55
 19612 3351 00000000 		.4byte	0
 19613 3355 00000000 		.4byte	0
 19614              	.LLST400:
 19615 3359 5C160000 		.4byte	.LVL882
 19616 335d 5E160000 		.4byte	.LVL883
 19617 3361 0100     		.2byte	0x1
 19618 3363 54       		.byte	0x54
 19619 3364 00000000 		.4byte	0
 19620 3368 00000000 		.4byte	0
 19621              	.LLST401:
 19622 336c 74160000 		.4byte	.LVL887
 19623 3370 98160000 		.4byte	.LVL895
 19624 3374 0100     		.2byte	0x1
 19625 3376 56       		.byte	0x56
 19626 3377 00000000 		.4byte	0
 19627 337b 00000000 		.4byte	0
 19628              	.LLST402:
 19629 337f 74160000 		.4byte	.LVL887
 19630 3383 78160000 		.4byte	.LVL888
 19631 3387 0100     		.2byte	0x1
 19632 3389 54       		.byte	0x54
 19633 338a 00000000 		.4byte	0
 19634 338e 00000000 		.4byte	0
 19635              	.LLST403:
 19636 3392 74160000 		.4byte	.LVL887
 19637 3396 98160000 		.4byte	.LVL895
 19638 339a 0100     		.2byte	0x1
 19639 339c 55       		.byte	0x55
 19640 339d 00000000 		.4byte	0
 19641 33a1 00000000 		.4byte	0
 19642              	.LLST404:
 19643 33a5 7E160000 		.4byte	.LVL889
 19644 33a9 8C160000 		.4byte	.LVL892
 19645 33ad 0100     		.2byte	0x1
 19646 33af 54       		.byte	0x54
ARM GAS  C:\Users\164\AppData\Local\Temp\ccd4XrSZ.s 			page 393


 19647 33b0 8E160000 		.4byte	.LVL893
 19648 33b4 92160000 		.4byte	.LVL894
 19649 33b8 0100     		.2byte	0x1
 19650 33ba 54       		.byte	0x54
 19651 33bb 00000000 		.4byte	0
 19652 33bf 00000000 		.4byte	0
 19653              	.LLST405:
 19654 33c3 9E160000 		.4byte	.LVL896
 19655 33c7 C2160000 		.4byte	.LVL904
 19656 33cb 0100     		.2byte	0x1
 19657 33cd 56       		.byte	0x56
 19658 33ce 00000000 		.4byte	0
 19659 33d2 00000000 		.4byte	0
 19660              	.LLST406:
 19661 33d6 9E160000 		.4byte	.LVL896
 19662 33da A2160000 		.4byte	.LVL897
 19663 33de 0100     		.2byte	0x1
 19664 33e0 54       		.byte	0x54
 19665 33e1 00000000 		.4byte	0
 19666 33e5 00000000 		.4byte	0
 19667              	.LLST407:
 19668 33e9 9E160000 		.4byte	.LVL896
 19669 33ed C2160000 		.4byte	.LVL904
 19670 33f1 0100     		.2byte	0x1
 19671 33f3 55       		.byte	0x55
 19672 33f4 00000000 		.4byte	0
 19673 33f8 00000000 		.4byte	0
 19674              	.LLST408:
 19675 33fc A8160000 		.4byte	.LVL898
 19676 3400 B6160000 		.4byte	.LVL901
 19677 3404 0100     		.2byte	0x1
 19678 3406 54       		.byte	0x54
 19679 3407 B8160000 		.4byte	.LVL902
 19680 340b BC160000 		.4byte	.LVL903
 19681 340f 0100     		.2byte	0x1
 19682 3411 54       		.byte	0x54
 19683 3412 00000000 		.4byte	0
 19684 3416 00000000 		.4byte	0
 19685              		.section	.debug_aranges,"",%progbits
 19686 0000 64000000 		.4byte	0x64
 19687 0004 0200     		.2byte	0x2
 19688 0006 00000000 		.4byte	.Ldebug_info0
 19689 000a 04       		.byte	0x4
 19690 000b 00       		.byte	0
 19691 000c 0000     		.2byte	0
 19692 000e 0000     		.2byte	0
 19693 0010 00000000 		.4byte	.LFB98
 19694 0014 10000000 		.4byte	.LFE98-.LFB98
 19695 0018 00000000 		.4byte	.LFB96
 19696 001c 40000000 		.4byte	.LFE96-.LFB96
 19697 0020 00000000 		.4byte	.LFB97
 19698 0024 2C000000 		.4byte	.LFE97-.LFB97
 19699 0028 00000000 		.4byte	.LFB99
 19700 002c 2E000000 		.4byte	.LFE99-.LFB99
 19701 0030 00000000 		.4byte	.LFB100
 19702 0034 26000000 		.4byte	.LFE100-.LFB100
 19703 0038 00000000 		.4byte	.LFB148
ARM GAS  C:\Users\164\AppData\Local\Temp\ccd4XrSZ.s 			page 394


 19704 003c A8000000 		.4byte	.LFE148-.LFB148
 19705 0040 00000000 		.4byte	.LFB149
 19706 0044 74000000 		.4byte	.LFE149-.LFB149
 19707 0048 00000000 		.4byte	.LFB150
 19708 004c 50000000 		.4byte	.LFE150-.LFB150
 19709 0050 00000000 		.4byte	.LFB151
 19710 0054 10000000 		.4byte	.LFE151-.LFB151
 19711 0058 00000000 		.4byte	.LFB152
 19712 005c 0C170000 		.4byte	.LFE152-.LFB152
 19713 0060 00000000 		.4byte	0
 19714 0064 00000000 		.4byte	0
 19715              		.section	.debug_ranges,"",%progbits
 19716              	.Ldebug_ranges0:
 19717 0000 7E160000 		.4byte	.LBB333
 19718 0004 8C160000 		.4byte	.LBE333
 19719 0008 8E160000 		.4byte	.LBB334
 19720 000c 92160000 		.4byte	.LBE334
 19721 0010 00000000 		.4byte	0
 19722 0014 00000000 		.4byte	0
 19723 0018 A8160000 		.4byte	.LBB337
 19724 001c B6160000 		.4byte	.LBE337
 19725 0020 B8160000 		.4byte	.LBB338
 19726 0024 BC160000 		.4byte	.LBE338
 19727 0028 00000000 		.4byte	0
 19728 002c 00000000 		.4byte	0
 19729 0030 00000000 		.4byte	.LFB98
 19730 0034 10000000 		.4byte	.LFE98
 19731 0038 00000000 		.4byte	.LFB96
 19732 003c 40000000 		.4byte	.LFE96
 19733 0040 00000000 		.4byte	.LFB97
 19734 0044 2C000000 		.4byte	.LFE97
 19735 0048 00000000 		.4byte	.LFB99
 19736 004c 2E000000 		.4byte	.LFE99
 19737 0050 00000000 		.4byte	.LFB100
 19738 0054 26000000 		.4byte	.LFE100
 19739 0058 00000000 		.4byte	.LFB148
 19740 005c A8000000 		.4byte	.LFE148
 19741 0060 00000000 		.4byte	.LFB149
 19742 0064 74000000 		.4byte	.LFE149
 19743 0068 00000000 		.4byte	.LFB150
 19744 006c 50000000 		.4byte	.LFE150
 19745 0070 00000000 		.4byte	.LFB151
 19746 0074 10000000 		.4byte	.LFE151
 19747 0078 00000000 		.4byte	.LFB152
 19748 007c 0C170000 		.4byte	.LFE152
 19749 0080 00000000 		.4byte	0
 19750 0084 00000000 		.4byte	0
 19751              		.section	.debug_line,"",%progbits
 19752              	.Ldebug_line0:
 19753 0000 FA070000 		.section	.debug_str,"MS",%progbits,1
 19753      02004B02 
 19753      00000201 
 19753      FB0E0D00 
 19753      01010101 
 19754              	.LASF118:
 19755 0000 4F505F53 		.ascii	"OP_SETIV\000"
 19755      45544956 
ARM GAS  C:\Users\164\AppData\Local\Temp\ccd4XrSZ.s 			page 395


 19755      00
 19756              	.LASF15:
 19757 0009 696E7438 		.ascii	"int8_t\000"
 19757      5F7400
 19758              	.LASF22:
 19759 0010 73697A65 		.ascii	"sizetype\000"
 19759      74797065 
 19759      00
 19760              	.LASF47:
 19761 0019 4D524243 		.ascii	"MRBC_TT_SYMBOL\000"
 19761      5F54545F 
 19761      53594D42 
 19761      4F4C00
 19762              	.LASF254:
 19763 0028 66696E64 		.ascii	"find_class_by_object\000"
 19763      5F636C61 
 19763      73735F62 
 19763      795F6F62 
 19763      6A656374 
 19764              	.LASF272:
 19765 003d 4F50434F 		.ascii	"OPCODE\000"
 19765      444500
 19766              	.LASF172:
 19767 0044 6F705F74 		.ascii	"op_tclass\000"
 19767      636C6173 
 19767      7300
 19768              	.LASF19:
 19769 004e 696E7433 		.ascii	"int32_t\000"
 19769      325F7400 
 19770              	.LASF209:
 19771 0056 6F705F73 		.ascii	"op_sub\000"
 19771      756200
 19772              	.LASF224:
 19773 005d 6F705F68 		.ascii	"op_hash\000"
 19773      61736800 
 19774              	.LASF57:
 19775 0065 696E7374 		.ascii	"instance\000"
 19775      616E6365 
 19775      00
 19776              	.LASF45:
 19777 006e 4D524243 		.ascii	"MRBC_TT_FIXNUM\000"
 19777      5F54545F 
 19777      4649584E 
 19777      554D00
 19778              	.LASF258:
 19779 007d 6D726263 		.ascii	"mrbc_array_new\000"
 19779      5F617272 
 19779      61795F6E 
 19779      657700
 19780              	.LASF182:
 19781 008c 5F5F6675 		.ascii	"__func__\000"
 19781      6E635F5F 
 19781      00
 19782              	.LASF98:
 19783 0095 72657073 		.ascii	"reps\000"
 19783      00
 19784              	.LASF196:
ARM GAS  C:\Users\164\AppData\Local\Temp\ccd4XrSZ.s 			page 396


 19785 009a 6F705F73 		.ascii	"op_setconst\000"
 19785      6574636F 
 19785      6E737400 
 19786              	.LASF202:
 19787 00a6 62696478 		.ascii	"bidx\000"
 19787      00
 19788              	.LASF242:
 19789 00ab 6D726263 		.ascii	"mrbc_irep_free\000"
 19789      5F697265 
 19789      705F6672 
 19789      656500
 19790              	.LASF27:
 19791 00ba 6D726263 		.ascii	"mrbc_sym\000"
 19791      5F73796D 
 19791      00
 19792              	.LASF210:
 19793 00c3 6F705F73 		.ascii	"op_subi\000"
 19793      75626900 
 19794              	.LASF64:
 19795 00cb 73796D5F 		.ascii	"sym_id\000"
 19795      696400
 19796              	.LASF230:
 19797 00d2 6F705F6D 		.ascii	"op_method\000"
 19797      6574686F 
 19797      6400
 19798              	.LASF203:
 19799 00dc 72656C65 		.ascii	"release_reg\000"
 19799      6173655F 
 19799      72656700 
 19800              	.LASF244:
 19801 00e8 6D726263 		.ascii	"mrbc_free_all\000"
 19801      5F667265 
 19801      655F616C 
 19801      6C00
 19802              	.LASF271:
 19803 00f6 524B6579 		.ascii	"RKeyValueHandle\000"
 19803      56616C75 
 19803      6548616E 
 19803      646C6500 
 19804              	.LASF103:
 19805 0106 6E5F6172 		.ascii	"n_args\000"
 19805      677300
 19806              	.LASF179:
 19807 010d 6D726263 		.ascii	"mrbc_vm_open\000"
 19807      5F766D5F 
 19807      6F70656E 
 19807      00
 19808              	.LASF195:
 19809 011a 6F705F67 		.ascii	"op_getconst\000"
 19809      6574636F 
 19809      6E737400 
 19810              	.LASF92:
 19811 0126 726C656E 		.ascii	"rlen\000"
 19811      00
 19812              	.LASF65:
 19813 012b 73757065 		.ascii	"super\000"
 19813      7200
ARM GAS  C:\Users\164\AppData\Local\Temp\ccd4XrSZ.s 			page 397


 19814              	.LASF69:
 19815 0131 69766172 		.ascii	"ivar\000"
 19815      00
 19816              	.LASF63:
 19817 0136 52436C61 		.ascii	"RClass\000"
 19817      737300
 19818              	.LASF1:
 19819 013d 5F5F7569 		.ascii	"__uint8_t\000"
 19819      6E74385F 
 19819      7400
 19820              	.LASF137:
 19821 0147 4F505F44 		.ascii	"OP_DIV\000"
 19821      495600
 19822              	.LASF214:
 19823 014e 72657375 		.ascii	"result\000"
 19823      6C7400
 19824              	.LASF48:
 19825 0155 4D524243 		.ascii	"MRBC_TT_CLASS\000"
 19825      5F54545F 
 19825      434C4153 
 19825      5300
 19826              	.LASF130:
 19827 0163 4F505F52 		.ascii	"OP_RETURN\000"
 19827      45545552 
 19827      4E00
 19828              	.LASF54:
 19829 016d 4D524243 		.ascii	"MRBC_TT_HASH\000"
 19829      5F54545F 
 19829      48415348 
 19829      00
 19830              	.LASF114:
 19831 017a 4F505F4C 		.ascii	"OP_LOADF\000"
 19831      4F414446 
 19831      00
 19832              	.LASF109:
 19833 0183 4F505F4C 		.ascii	"OP_LOADI\000"
 19833      4F414449 
 19833      00
 19834              	.LASF108:
 19835 018c 4F505F4C 		.ascii	"OP_LOADL\000"
 19835      4F41444C 
 19835      00
 19836              	.LASF87:
 19837 0195 6D72625F 		.ascii	"mrb_class\000"
 19837      636C6173 
 19837      7300
 19838              	.LASF113:
 19839 019f 4F505F4C 		.ascii	"OP_LOADT\000"
 19839      4F414454 
 19839      00
 19840              	.LASF240:
 19841 01a8 6D726263 		.ascii	"mrbc_raw_free\000"
 19841      5F726177 
 19841      5F667265 
 19841      6500
 19842              	.LASF9:
 19843 01b6 6C6F6E67 		.ascii	"long int\000"
ARM GAS  C:\Users\164\AppData\Local\Temp\ccd4XrSZ.s 			page 398


 19843      20696E74 
 19843      00
 19844              	.LASF193:
 19845 01bf 6F705F67 		.ascii	"op_getiv\000"
 19845      65746976 
 19845      00
 19846              	.LASF49:
 19847 01c8 4D524243 		.ascii	"MRBC_TT_OBJECT\000"
 19847      5F54545F 
 19847      4F424A45 
 19847      435400
 19848              	.LASF146:
 19849 01d7 4F505F48 		.ascii	"OP_HASH\000"
 19849      41534800 
 19850              	.LASF175:
 19851 01df 6D726263 		.ascii	"mrbc_get_callee_name\000"
 19851      5F676574 
 19851      5F63616C 
 19851      6C65655F 
 19851      6E616D65 
 19852              	.LASF268:
 19853 01f4 474E5520 		.ascii	"GNU C11 5.4.1 20160609 (release) [ARM/embedded-5-br"
 19853      43313120 
 19853      352E342E 
 19853      31203230 
 19853      31363036 
 19854 0227 616E6368 		.ascii	"anch revision 237715] -mcpu=cortex-m3 -mthumb -g -O"
 19854      20726576 
 19854      6973696F 
 19854      6E203233 
 19854      37373135 
 19855 025a 67202D66 		.ascii	"g -ffunction-sections -ffat-lto-objects\000"
 19855      66756E63 
 19855      74696F6E 
 19855      2D736563 
 19855      74696F6E 
 19856              	.LASF70:
 19857 0282 64617461 		.ascii	"data\000"
 19857      00
 19858              	.LASF138:
 19859 0287 4F505F45 		.ascii	"OP_EQ\000"
 19859      5100
 19860              	.LASF86:
 19861 028d 6D726263 		.ascii	"mrbc_class\000"
 19861      5F636C61 
 19861      737300
 19862              	.LASF2:
 19863 0298 7369676E 		.ascii	"signed char\000"
 19863      65642063 
 19863      68617200 
 19864              	.LASF16:
 19865 02a4 75696E74 		.ascii	"uint8_t\000"
 19865      385F7400 
 19866              	.LASF135:
 19867 02ac 4F505F53 		.ascii	"OP_SUBI\000"
 19867      55424900 
 19868              	.LASF228:
ARM GAS  C:\Users\164\AppData\Local\Temp\ccd4XrSZ.s 			page 399


 19869 02b4 6375725F 		.ascii	"cur_irep\000"
 19869      69726570 
 19869      00
 19870              	.LASF149:
 19871 02bd 4F505F43 		.ascii	"OP_CLASS\000"
 19871      4C415353 
 19871      00
 19872              	.LASF39:
 19873 02c6 524F626A 		.ascii	"RObject\000"
 19873      65637400 
 19874              	.LASF3:
 19875 02ce 756E7369 		.ascii	"unsigned char\000"
 19875      676E6564 
 19875      20636861 
 19875      7200
 19876              	.LASF253:
 19877 02dc 636F6E73 		.ascii	"const_object_add\000"
 19877      745F6F62 
 19877      6A656374 
 19877      5F616464 
 19877      00
 19878              	.LASF145:
 19879 02ed 4F505F53 		.ascii	"OP_STRCAT\000"
 19879      54524341 
 19879      5400
 19880              	.LASF264:
 19881 02f7 6D726263 		.ascii	"mrbc_rproc_alloc\000"
 19881      5F727072 
 19881      6F635F61 
 19881      6C6C6F63 
 19881      00
 19882              	.LASF68:
 19883 0308 7265665F 		.ascii	"ref_count\000"
 19883      636F756E 
 19883      7400
 19884              	.LASF200:
 19885 0312 6F705F73 		.ascii	"op_send\000"
 19885      656E6400 
 19886              	.LASF211:
 19887 031a 6F705F6D 		.ascii	"op_mul\000"
 19887      756C00
 19888              	.LASF110:
 19889 0321 4F505F4C 		.ascii	"OP_LOADSYM\000"
 19889      4F414453 
 19889      594D00
 19890              	.LASF164:
 19891 032c 6F705F6A 		.ascii	"op_jmpif\000"
 19891      6D706966 
 19891      00
 19892              	.LASF142:
 19893 0335 4F505F47 		.ascii	"OP_GE\000"
 19893      4500
 19894              	.LASF181:
 19895 033b 6D726263 		.ascii	"mrbc_vm_close\000"
 19895      5F766D5F 
 19895      636C6F73 
 19895      6500
ARM GAS  C:\Users\164\AppData\Local\Temp\ccd4XrSZ.s 			page 400


 19896              	.LASF141:
 19897 0349 4F505F47 		.ascii	"OP_GT\000"
 19897      5400
 19898              	.LASF222:
 19899 034f 6F705F73 		.ascii	"op_string\000"
 19899      7472696E 
 19899      6700
 19900              	.LASF96:
 19901 0359 706F6F6C 		.ascii	"pools\000"
 19901      7300
 19902              	.LASF221:
 19903 035f 76616C75 		.ascii	"value\000"
 19903      6500
 19904              	.LASF23:
 19905 0365 63686172 		.ascii	"char\000"
 19905      00
 19906              	.LASF31:
 19907 036a 70635F69 		.ascii	"pc_irep\000"
 19907      72657000 
 19908              	.LASF160:
 19909 0372 6F705F6C 		.ascii	"op_loadnil\000"
 19909      6F61646E 
 19909      696C00
 19910              	.LASF190:
 19911 037d 6F705F6C 		.ascii	"op_loadself\000"
 19911      6F616473 
 19911      656C6600 
 19912              	.LASF234:
 19913 0389 6D726263 		.ascii	"mrbc_class_object\000"
 19913      5F636C61 
 19913      73735F6F 
 19913      626A6563 
 19913      7400
 19914              	.LASF6:
 19915 039b 5F5F7569 		.ascii	"__uint16_t\000"
 19915      6E743136 
 19915      5F7400
 19916              	.LASF85:
 19917 03a6 6D726263 		.ascii	"mrbc_value\000"
 19917      5F76616C 
 19917      756500
 19918              	.LASF131:
 19919 03b1 4F505F42 		.ascii	"OP_BLKPUSH\000"
 19919      4C4B5055 
 19919      534800
 19920              	.LASF74:
 19921 03bc 52417272 		.ascii	"RArray\000"
 19921      617900
 19922              	.LASF58:
 19923 03c3 70726F63 		.ascii	"proc\000"
 19923      00
 19924              	.LASF30:
 19925 03c8 766D5F69 		.ascii	"vm_id\000"
 19925      6400
 19926              	.LASF97:
 19927 03ce 7074725F 		.ascii	"ptr_to_sym\000"
 19927      746F5F73 
ARM GAS  C:\Users\164\AppData\Local\Temp\ccd4XrSZ.s 			page 401


 19927      796D00
 19928              	.LASF245:
 19929 03d9 6D726263 		.ascii	"mrbc_release\000"
 19929      5F72656C 
 19929      65617365 
 19929      00
 19930              	.LASF136:
 19931 03e6 4F505F4D 		.ascii	"OP_MUL\000"
 19931      554C00
 19932              	.LASF261:
 19933 03ed 6D726263 		.ascii	"mrbc_string_new\000"
 19933      5F737472 
 19933      696E675F 
 19933      6E657700 
 19934              	.LASF116:
 19935 03fd 4F505F53 		.ascii	"OP_SETGLOBAL\000"
 19935      4554474C 
 19935      4F42414C 
 19935      00
 19936              	.LASF243:
 19937 040a 6D726263 		.ascii	"mrbc_global_clear_vm_id\000"
 19937      5F676C6F 
 19937      62616C5F 
 19937      636C6561 
 19937      725F766D 
 19938              	.LASF106:
 19939 0422 4F505F4E 		.ascii	"OP_NOP\000"
 19939      4F5000
 19940              	.LASF55:
 19941 0429 6D726263 		.ascii	"mrbc_vtype\000"
 19941      5F767479 
 19941      706500
 19942              	.LASF59:
 19943 0434 61727261 		.ascii	"array\000"
 19943      7900
 19944              	.LASF132:
 19945 043a 4F505F41 		.ascii	"OP_ADD\000"
 19945      444400
 19946              	.LASF104:
 19947 0441 6D726263 		.ascii	"mrbc_callinfo\000"
 19947      5F63616C 
 19947      6C696E66 
 19947      6F00
 19948              	.LASF263:
 19949 044f 6D726263 		.ascii	"mrbc_hash_new\000"
 19949      5F686173 
 19949      685F6E65 
 19949      7700
 19950              	.LASF178:
 19951 045d 6E6C7A33 		.ascii	"nlz32\000"
 19951      3200
 19952              	.LASF168:
 19953 0463 63616C6C 		.ascii	"callinfo\000"
 19953      696E666F 
 19953      00
 19954              	.LASF126:
 19955 046c 4F505F53 		.ascii	"OP_SEND\000"
ARM GAS  C:\Users\164\AppData\Local\Temp\ccd4XrSZ.s 			page 402


 19955      454E4400 
 19956              	.LASF122:
 19957 0474 4F505F53 		.ascii	"OP_SETUPVAR\000"
 19957      45545550 
 19957      56415200 
 19958              	.LASF241:
 19959 0480 5F5F6173 		.ascii	"__assert_func\000"
 19959      73657274 
 19959      5F66756E 
 19959      6300
 19960              	.LASF51:
 19961 048e 4D524243 		.ascii	"MRBC_TT_ARRAY\000"
 19961      5F54545F 
 19961      41525241 
 19961      5900
 19962              	.LASF247:
 19963 049c 7374725F 		.ascii	"str_to_symid\000"
 19963      746F5F73 
 19963      796D6964 
 19963      00
 19964              	.LASF140:
 19965 04a9 4F505F4C 		.ascii	"OP_LE\000"
 19965      4500
 19966              	.LASF43:
 19967 04af 4D524243 		.ascii	"MRBC_TT_FALSE\000"
 19967      5F54545F 
 19967      46414C53 
 19967      4500
 19968              	.LASF11:
 19969 04bd 6C6F6E67 		.ascii	"long unsigned int\000"
 19969      20756E73 
 19969      69676E65 
 19969      6420696E 
 19969      7400
 19970              	.LASF236:
 19971 04cf 636F6E73 		.ascii	"console_printf\000"
 19971      6F6C655F 
 19971      7072696E 
 19971      746600
 19972              	.LASF139:
 19973 04de 4F505F4C 		.ascii	"OP_LT\000"
 19973      5400
 19974              	.LASF128:
 19975 04e4 4F505F43 		.ascii	"OP_CALL\000"
 19975      414C4C00 
 19976              	.LASF77:
 19977 04ec 52537472 		.ascii	"RString\000"
 19977      696E6700 
 19978              	.LASF76:
 19979 04f4 6E5F7374 		.ascii	"n_stored\000"
 19979      6F726564 
 19979      00
 19980              	.LASF121:
 19981 04fd 4F505F47 		.ascii	"OP_GETUPVAR\000"
 19981      45545550 
 19981      56415200 
 19982              	.LASF153:
ARM GAS  C:\Users\164\AppData\Local\Temp\ccd4XrSZ.s 			page 403


 19983 0509 4F505F53 		.ascii	"OP_STOP\000"
 19983      544F5000 
 19984              	.LASF156:
 19985 0511 62696E5F 		.ascii	"bin_to_uint16\000"
 19985      746F5F75 
 19985      696E7431 
 19985      3600
 19986              	.LASF192:
 19987 051f 6F705F73 		.ascii	"op_setglobal\000"
 19987      6574676C 
 19987      6F62616C 
 19987      00
 19988              	.LASF29:
 19989 052c 69726570 		.ascii	"irep\000"
 19989      00
 19990              	.LASF93:
 19991 0531 696C656E 		.ascii	"ilen\000"
 19991      00
 19992              	.LASF75:
 19993 0536 64617461 		.ascii	"data_size\000"
 19993      5F73697A 
 19993      6500
 19994              	.LASF79:
 19995 0540 5252616E 		.ascii	"RRange\000"
 19995      676500
 19996              	.LASF213:
 19997 0547 6F705F65 		.ascii	"op_eq\000"
 19997      7100
 19998              	.LASF123:
 19999 054d 4F505F4A 		.ascii	"OP_JMP\000"
 19999      4D5000
 20000              	.LASF50:
 20001 0554 4D524243 		.ascii	"MRBC_TT_PROC\000"
 20001      5F54545F 
 20001      50524F43 
 20001      00
 20002              	.LASF125:
 20003 0561 4F505F4A 		.ascii	"OP_JMPNOT\000"
 20003      4D504E4F 
 20003      5400
 20004              	.LASF171:
 20005 056b 61726773 		.ascii	"args\000"
 20005      00
 20006              	.LASF226:
 20007 0570 6F705F72 		.ascii	"op_range\000"
 20007      616E6765 
 20007      00
 20008              	.LASF66:
 20009 0579 70726F63 		.ascii	"procs\000"
 20009      7300
 20010              	.LASF238:
 20011 057f 6D726263 		.ascii	"mrbc_free\000"
 20011      5F667265 
 20011      6500
 20012              	.LASF40:
 20013 0589 4D524243 		.ascii	"MRBC_TT_HANDLE\000"
 20013      5F54545F 
ARM GAS  C:\Users\164\AppData\Local\Temp\ccd4XrSZ.s 			page 404


 20013      48414E44 
 20013      4C4500
 20014              	.LASF185:
 20015 0598 6F705F6D 		.ascii	"op_move\000"
 20015      6F766500 
 20016              	.LASF10:
 20017 05a0 5F5F7569 		.ascii	"__uint32_t\000"
 20017      6E743332 
 20017      5F7400
 20018              	.LASF187:
 20019 05ab 706F6F6C 		.ascii	"pool_obj\000"
 20019      5F6F626A 
 20019      00
 20020              	.LASF33:
 20021 05b4 63757272 		.ascii	"current_regs\000"
 20021      656E745F 
 20021      72656773 
 20021      00
 20022              	.LASF12:
 20023 05c1 6C6F6E67 		.ascii	"long long int\000"
 20023      206C6F6E 
 20023      6720696E 
 20023      7400
 20024              	.LASF157:
 20025 05cf 62696E5F 		.ascii	"bin_to_uint32\000"
 20025      746F5F75 
 20025      696E7433 
 20025      3200
 20026              	.LASF255:
 20027 05dd 73796D69 		.ascii	"symid_to_str\000"
 20027      645F746F 
 20027      5F737472 
 20027      00
 20028              	.LASF269:
 20029 05ea 766D2E63 		.ascii	"vm.c\000"
 20029      00
 20030              	.LASF252:
 20031 05ef 636F6E73 		.ascii	"const_object_get\000"
 20031      745F6F62 
 20031      6A656374 
 20031      5F676574 
 20031      00
 20032              	.LASF26:
 20033 0600 646F7562 		.ascii	"double\000"
 20033      6C6500
 20034              	.LASF206:
 20035 0607 73746163 		.ascii	"stack\000"
 20035      6B00
 20036              	.LASF219:
 20037 060d 6F705F67 		.ascii	"op_ge\000"
 20037      6500
 20038              	.LASF218:
 20039 0613 6F705F67 		.ascii	"op_gt\000"
 20039      7400
 20040              	.LASF204:
 20041 0619 6F705F72 		.ascii	"op_return\000"
 20041      65747572 
ARM GAS  C:\Users\164\AppData\Local\Temp\ccd4XrSZ.s 			page 405


 20041      6E00
 20042              	.LASF205:
 20043 0623 6F705F62 		.ascii	"op_blkpush\000"
 20043      6C6B7075 
 20043      736800
 20044              	.LASF235:
 20045 062e 49544D5F 		.ascii	"ITM_RxBuffer\000"
 20045      52784275 
 20045      66666572 
 20045      00
 20046              	.LASF134:
 20047 063b 4F505F53 		.ascii	"OP_SUB\000"
 20047      554200
 20048              	.LASF67:
 20049 0642 52496E73 		.ascii	"RInstance\000"
 20049      74616E63 
 20049      6500
 20050              	.LASF155:
 20051 064c 666C6F61 		.ascii	"float\000"
 20051      7400
 20052              	.LASF232:
 20053 0652 6F70636F 		.ascii	"opcode\000"
 20053      646500
 20054              	.LASF60:
 20055 0659 73747269 		.ascii	"string\000"
 20055      6E6700
 20056              	.LASF14:
 20057 0660 756E7369 		.ascii	"unsigned int\000"
 20057      676E6564 
 20057      20696E74 
 20057      00
 20058              	.LASF249:
 20059 066d 676C6F62 		.ascii	"global_object_add\000"
 20059      616C5F6F 
 20059      626A6563 
 20059      745F6164 
 20059      6400
 20060              	.LASF53:
 20061 067f 4D524243 		.ascii	"MRBC_TT_RANGE\000"
 20061      5F54545F 
 20061      52414E47 
 20061      4500
 20062              	.LASF154:
 20063 068d 4F505F41 		.ascii	"OP_ABORT\000"
 20063      424F5254 
 20063      00
 20064              	.LASF166:
 20065 0696 6F705F63 		.ascii	"op_call\000"
 20065      616C6C00 
 20066              	.LASF239:
 20067 069e 6D726263 		.ascii	"mrbc_raw_alloc\000"
 20067      5F726177 
 20067      5F616C6C 
 20067      6F6300
 20068              	.LASF147:
 20069 06ad 4F505F4C 		.ascii	"OP_LAMBDA\000"
 20069      414D4244 
ARM GAS  C:\Users\164\AppData\Local\Temp\ccd4XrSZ.s 			page 406


 20069      4100
 20070              	.LASF237:
 20071 06b7 6D726263 		.ascii	"mrbc_alloc\000"
 20071      5F616C6C 
 20071      6F6300
 20072              	.LASF129:
 20073 06c2 4F505F45 		.ascii	"OP_ENTER\000"
 20073      4E544552 
 20073      00
 20074              	.LASF265:
 20075 06cb 6D726263 		.ascii	"mrbc_range_new\000"
 20075      5F72616E 
 20075      67655F6E 
 20075      657700
 20076              	.LASF256:
 20077 06da 66696E64 		.ascii	"find_method\000"
 20077      5F6D6574 
 20077      686F6400 
 20078              	.LASF83:
 20079 06e6 52486173 		.ascii	"RHash\000"
 20079      6800
 20080              	.LASF81:
 20081 06ec 66697273 		.ascii	"first\000"
 20081      7400
 20082              	.LASF37:
 20083 06f2 666C6167 		.ascii	"flag_preemption\000"
 20083      5F707265 
 20083      656D7074 
 20083      696F6E00 
 20084              	.LASF208:
 20085 0702 6F705F61 		.ascii	"op_addi\000"
 20085      64646900 
 20086              	.LASF267:
 20087 070a 6D726263 		.ascii	"mrbc_set_vm_id\000"
 20087      5F736574 
 20087      5F766D5F 
 20087      696400
 20088              	.LASF127:
 20089 0719 4F505F53 		.ascii	"OP_SENDB\000"
 20089      454E4442 
 20089      00
 20090              	.LASF80:
 20091 0722 666C6167 		.ascii	"flag_exclude\000"
 20091      5F657863 
 20091      6C756465 
 20091      00
 20092              	.LASF124:
 20093 072f 4F505F4A 		.ascii	"OP_JMPIF\000"
 20093      4D504946 
 20093      00
 20094              	.LASF223:
 20095 0738 6F705F73 		.ascii	"op_strcat\000"
 20095      74726361 
 20095      7400
 20096              	.LASF212:
 20097 0742 6F705F64 		.ascii	"op_div\000"
 20097      697600
ARM GAS  C:\Users\164\AppData\Local\Temp\ccd4XrSZ.s 			page 407


 20098              	.LASF201:
 20099 0749 72656376 		.ascii	"recv\000"
 20099      00
 20100              	.LASF194:
 20101 074e 6F705F73 		.ascii	"op_setiv\000"
 20101      65746976 
 20101      00
 20102              	.LASF152:
 20103 0757 4F505F54 		.ascii	"OP_TCLASS\000"
 20103      434C4153 
 20103      5300
 20104              	.LASF21:
 20105 0761 6C6F6E67 		.ascii	"long double\000"
 20105      20646F75 
 20105      626C6500 
 20106              	.LASF120:
 20107 076d 4F505F53 		.ascii	"OP_SETCONST\000"
 20107      4554434F 
 20107      4E535400 
 20108              	.LASF56:
 20109 0779 68616E64 		.ascii	"handle\000"
 20109      6C6500
 20110              	.LASF174:
 20111 0780 6D726263 		.ascii	"mrbc_get_irep_symbol\000"
 20111      5F676574 
 20111      5F697265 
 20111      705F7379 
 20111      6D626F6C 
 20112              	.LASF262:
 20113 0795 6D726263 		.ascii	"mrbc_string_add\000"
 20113      5F737472 
 20113      696E675F 
 20113      61646400 
 20114              	.LASF251:
 20115 07a5 6D726263 		.ascii	"mrbc_instance_setiv\000"
 20115      5F696E73 
 20115      74616E63 
 20115      655F7365 
 20115      74697600 
 20116              	.LASF115:
 20117 07b9 4F505F47 		.ascii	"OP_GETGLOBAL\000"
 20117      4554474C 
 20117      4F42414C 
 20117      00
 20118              	.LASF0:
 20119 07c6 5F5F696E 		.ascii	"__int8_t\000"
 20119      74385F74 
 20119      00
 20120              	.LASF151:
 20121 07cf 4F505F4D 		.ascii	"OP_METHOD\000"
 20121      4554484F 
 20121      4400
 20122              	.LASF216:
 20123 07d9 6F705F6C 		.ascii	"op_le\000"
 20123      6500
 20124              	.LASF44:
 20125 07df 4D524243 		.ascii	"MRBC_TT_TRUE\000"
ARM GAS  C:\Users\164\AppData\Local\Temp\ccd4XrSZ.s 			page 408


 20125      5F54545F 
 20125      54525545 
 20125      00
 20126              	.LASF78:
 20127 07ec 73697A65 		.ascii	"size\000"
 20127      00
 20128              	.LASF13:
 20129 07f1 6C6F6E67 		.ascii	"long long unsigned int\000"
 20129      206C6F6E 
 20129      6720756E 
 20129      7369676E 
 20129      65642069 
 20130              	.LASF215:
 20131 0808 6F705F6C 		.ascii	"op_lt\000"
 20131      7400
 20132              	.LASF119:
 20133 080e 4F505F47 		.ascii	"OP_GETCONST\000"
 20133      4554434F 
 20133      4E535400 
 20134              	.LASF52:
 20135 081a 4D524243 		.ascii	"MRBC_TT_STRING\000"
 20135      5F54545F 
 20135      53545249 
 20135      4E4700
 20136              	.LASF24:
 20137 0829 6D726263 		.ascii	"mrbc_int\000"
 20137      5F696E74 
 20137      00
 20138              	.LASF72:
 20139 0832 635F6675 		.ascii	"c_func\000"
 20139      6E6300
 20140              	.LASF18:
 20141 0839 75696E74 		.ascii	"uint16_t\000"
 20141      31365F74 
 20141      00
 20142              	.LASF177:
 20143 0842 6D726263 		.ascii	"mrbc_pop_callinfo\000"
 20143      5F706F70 
 20143      5F63616C 
 20143      6C696E66 
 20143      6F00
 20144              	.LASF229:
 20145 0854 6F705F65 		.ascii	"op_exec\000"
 20145      78656300 
 20146              	.LASF176:
 20147 085c 6D726263 		.ascii	"mrbc_push_callinfo\000"
 20147      5F707573 
 20147      685F6361 
 20147      6C6C696E 
 20147      666F00
 20148              	.LASF111:
 20149 086f 4F505F4C 		.ascii	"OP_LOADNIL\000"
 20149      4F41444E 
 20149      494C00
 20150              	.LASF143:
 20151 087a 4F505F41 		.ascii	"OP_ARRAY\000"
 20151      52524159 
ARM GAS  C:\Users\164\AppData\Local\Temp\ccd4XrSZ.s 			page 409


 20151      00
 20152              	.LASF38:
 20153 0883 666C6167 		.ascii	"flag_need_memfree\000"
 20153      5F6E6565 
 20153      645F6D65 
 20153      6D667265 
 20153      6500
 20154              	.LASF273:
 20155 0895 6E6F745F 		.ascii	"not_supported\000"
 20155      73757070 
 20155      6F727465 
 20155      6400
 20156              	.LASF180:
 20157 08a3 766D5F61 		.ascii	"vm_arg\000"
 20157      726700
 20158              	.LASF259:
 20159 08aa 6D656D73 		.ascii	"memset\000"
 20159      657400
 20160              	.LASF36:
 20161 08b1 6572726F 		.ascii	"error_code\000"
 20161      725F636F 
 20161      646500
 20162              	.LASF231:
 20163 08bc 6D726263 		.ascii	"mrbc_vm_run\000"
 20163      5F766D5F 
 20163      72756E00 
 20164              	.LASF257:
 20165 08c8 6D726263 		.ascii	"mrbc_compare\000"
 20165      5F636F6D 
 20165      70617265 
 20165      00
 20166              	.LASF4:
 20167 08d5 5F5F696E 		.ascii	"__int16_t\000"
 20167      7431365F 
 20167      7400
 20168              	.LASF133:
 20169 08df 4F505F41 		.ascii	"OP_ADDI\000"
 20169      44444900 
 20170              	.LASF32:
 20171 08e7 72656773 		.ascii	"regs\000"
 20171      00
 20172              	.LASF162:
 20173 08ec 6F705F6C 		.ascii	"op_loadf\000"
 20173      6F616466 
 20173      00
 20174              	.LASF159:
 20175 08f5 6F705F6C 		.ascii	"op_loadi\000"
 20175      6F616469 
 20175      00
 20176              	.LASF89:
 20177 08fe 49524550 		.ascii	"IREP\000"
 20177      00
 20178              	.LASF186:
 20179 0903 6F705F6C 		.ascii	"op_loadl\000"
 20179      6F61646C 
 20179      00
 20180              	.LASF161:
ARM GAS  C:\Users\164\AppData\Local\Temp\ccd4XrSZ.s 			page 410


 20181 090c 6F705F6C 		.ascii	"op_loadt\000"
 20181      6F616474 
 20181      00
 20182              	.LASF94:
 20183 0915 706C656E 		.ascii	"plen\000"
 20183      00
 20184              	.LASF95:
 20185 091a 636F6465 		.ascii	"code\000"
 20185      00
 20186              	.LASF233:
 20187 091f 66726565 		.ascii	"free_vm_bitmap\000"
 20187      5F766D5F 
 20187      6269746D 
 20187      617000
 20188              	.LASF191:
 20189 092e 6F705F67 		.ascii	"op_getglobal\000"
 20189      6574676C 
 20189      6F62616C 
 20189      00
 20190              	.LASF199:
 20191 093b 6F705F73 		.ascii	"op_setupvar\000"
 20191      65747570 
 20191      76617200 
 20192              	.LASF189:
 20193 0947 73796D5F 		.ascii	"sym_name\000"
 20193      6E616D65 
 20193      00
 20194              	.LASF101:
 20195 0950 43414C4C 		.ascii	"CALLINFO\000"
 20195      494E464F 
 20195      00
 20196              	.LASF198:
 20197 0959 75705F72 		.ascii	"up_regs\000"
 20197      65677300 
 20198              	.LASF188:
 20199 0961 6F705F6C 		.ascii	"op_loadsym\000"
 20199      6F616473 
 20199      796D00
 20200              	.LASF248:
 20201 096c 676C6F62 		.ascii	"global_object_get\000"
 20201      616C5F6F 
 20201      626A6563 
 20201      745F6765 
 20201      7400
 20202              	.LASF5:
 20203 097e 73686F72 		.ascii	"short int\000"
 20203      7420696E 
 20203      7400
 20204              	.LASF227:
 20205 0988 6F705F63 		.ascii	"op_class\000"
 20205      6C617373 
 20205      00
 20206              	.LASF107:
 20207 0991 4F505F4D 		.ascii	"OP_MOVE\000"
 20207      4F564500 
 20208              	.LASF88:
 20209 0999 66756E63 		.ascii	"func\000"
ARM GAS  C:\Users\164\AppData\Local\Temp\ccd4XrSZ.s 			page 411


 20209      00
 20210              	.LASF61:
 20211 099e 72616E67 		.ascii	"range\000"
 20211      6500
 20212              	.LASF42:
 20213 09a4 4D524243 		.ascii	"MRBC_TT_NIL\000"
 20213      5F54545F 
 20213      4E494C00 
 20214              	.LASF17:
 20215 09b0 696E7431 		.ascii	"int16_t\000"
 20215      365F7400 
 20216              	.LASF150:
 20217 09b8 4F505F45 		.ascii	"OP_EXEC\000"
 20217      58454300 
 20218              	.LASF197:
 20219 09c0 6F705F67 		.ascii	"op_getupvar\000"
 20219      65747570 
 20219      76617200 
 20220              	.LASF158:
 20221 09cc 6F705F6E 		.ascii	"op_nop\000"
 20221      6F7000
 20222              	.LASF84:
 20223 09d3 6D726263 		.ascii	"mrbc_object\000"
 20223      5F6F626A 
 20223      65637400 
 20224              	.LASF250:
 20225 09df 6D726263 		.ascii	"mrbc_instance_getiv\000"
 20225      5F696E73 
 20225      74616E63 
 20225      655F6765 
 20225      74697600 
 20226              	.LASF207:
 20227 09f3 6F705F61 		.ascii	"op_add\000"
 20227      646400
 20228              	.LASF148:
 20229 09fa 4F505F52 		.ascii	"OP_RANGE\000"
 20229      414E4745 
 20229      00
 20230              	.LASF99:
 20231 0a03 6D726263 		.ascii	"mrbc_proc\000"
 20231      5F70726F 
 20231      6300
 20232              	.LASF144:
 20233 0a0d 4F505F53 		.ascii	"OP_STRING\000"
 20233      5452494E 
 20233      4700
 20234              	.LASF117:
 20235 0a17 4F505F47 		.ascii	"OP_GETIV\000"
 20235      45544956 
 20235      00
 20236              	.LASF165:
 20237 0a20 6F705F6A 		.ascii	"op_jmpnot\000"
 20237      6D706E6F 
 20237      7400
 20238              	.LASF28:
 20239 0a2a 6D726263 		.ascii	"mrbc_func_t\000"
 20239      5F66756E 
ARM GAS  C:\Users\164\AppData\Local\Temp\ccd4XrSZ.s 			page 412


 20239      635F7400 
 20240              	.LASF112:
 20241 0a36 4F505F4C 		.ascii	"OP_LOADSELF\000"
 20241      4F414453 
 20241      454C4600 
 20242              	.LASF260:
 20243 0a42 6D656D63 		.ascii	"memcpy\000"
 20243      707900
 20244              	.LASF105:
 20245 0a49 6D726263 		.ascii	"mrbc_vm\000"
 20245      5F766D00 
 20246              	.LASF167:
 20247 0a51 6F705F65 		.ascii	"op_enter\000"
 20247      6E746572 
 20247      00
 20248              	.LASF184:
 20249 0a5a 6D726263 		.ascii	"mrbc_vm_end\000"
 20249      5F766D5F 
 20249      656E6400 
 20250              	.LASF20:
 20251 0a66 75696E74 		.ascii	"uint32_t\000"
 20251      33325F74 
 20251      00
 20252              	.LASF246:
 20253 0a6f 6D726263 		.ascii	"mrbc_dup\000"
 20253      5F647570 
 20253      00
 20254              	.LASF217:
 20255 0a78 444F4E45 		.ascii	"DONE\000"
 20255      00
 20256              	.LASF7:
 20257 0a7d 73686F72 		.ascii	"short unsigned int\000"
 20257      7420756E 
 20257      7369676E 
 20257      65642069 
 20257      6E7400
 20258              	.LASF183:
 20259 0a90 6D726263 		.ascii	"mrbc_vm_begin\000"
 20259      5F766D5F 
 20259      62656769 
 20259      6E00
 20260              	.LASF270:
 20261 0a9e 433A5C55 		.ascii	"C:\\Users\\164\\Desktop\\github\\mcmc\\Design01.cyd"
 20261      73657273 
 20261      5C313634 
 20261      5C446573 
 20261      6B746F70 
 20262 0acb 736E00   		.ascii	"sn\000"
 20263              	.LASF35:
 20264 0ace 74617267 		.ascii	"target_class\000"
 20264      65745F63 
 20264      6C617373 
 20264      00
 20265              	.LASF71:
 20266 0adb 5250726F 		.ascii	"RProc\000"
 20266      6300
 20267              	.LASF173:
ARM GAS  C:\Users\164\AppData\Local\Temp\ccd4XrSZ.s 			page 413


 20268 0ae1 6F705F73 		.ascii	"op_stop\000"
 20268      746F7000 
 20269              	.LASF8:
 20270 0ae9 5F5F696E 		.ascii	"__int32_t\000"
 20270      7433325F 
 20270      7400
 20271              	.LASF25:
 20272 0af3 6D726263 		.ascii	"mrbc_float\000"
 20272      5F666C6F 
 20272      617400
 20273              	.LASF91:
 20274 0afe 6E726567 		.ascii	"nregs\000"
 20274      7300
 20275              	.LASF274:
 20276 0b04 635F7072 		.ascii	"c_proc_call\000"
 20276      6F635F63 
 20276      616C6C00 
 20277              	.LASF163:
 20278 0b10 6F705F6A 		.ascii	"op_jmp\000"
 20278      6D7000
 20279              	.LASF169:
 20280 0b17 656E7465 		.ascii	"enter_param\000"
 20280      725F7061 
 20280      72616D00 
 20281              	.LASF62:
 20282 0b23 68617368 		.ascii	"hash\000"
 20282      00
 20283              	.LASF41:
 20284 0b28 4D524243 		.ascii	"MRBC_TT_EMPTY\000"
 20284      5F54545F 
 20284      454D5054 
 20284      5900
 20285              	.LASF90:
 20286 0b36 6E6C6F63 		.ascii	"nlocals\000"
 20286      616C7300 
 20287              	.LASF225:
 20288 0b3e 6F705F6C 		.ascii	"op_lambda\000"
 20288      616D6264 
 20288      6100
 20289              	.LASF73:
 20290 0b48 6E657874 		.ascii	"next\000"
 20290      00
 20291              	.LASF34:
 20292 0b4d 63616C6C 		.ascii	"callinfo_tail\000"
 20292      696E666F 
 20292      5F746169 
 20292      6C00
 20293              	.LASF102:
 20294 0b5b 70726576 		.ascii	"prev\000"
 20294      00
 20295              	.LASF46:
 20296 0b60 4D524243 		.ascii	"MRBC_TT_FLOAT\000"
 20296      5F54545F 
 20296      464C4F41 
 20296      5400
 20297              	.LASF82:
 20298 0b6e 6C617374 		.ascii	"last\000"
ARM GAS  C:\Users\164\AppData\Local\Temp\ccd4XrSZ.s 			page 414


 20298      00
 20299              	.LASF220:
 20300 0b73 6F705F61 		.ascii	"op_array\000"
 20300      72726179 
 20300      00
 20301              	.LASF170:
 20302 0b7c 6465665F 		.ascii	"def_args\000"
 20302      61726773 
 20302      00
 20303              	.LASF266:
 20304 0b85 6D726263 		.ascii	"mrbc_define_class\000"
 20304      5F646566 
 20304      696E655F 
 20304      636C6173 
 20304      7300
 20305              	.LASF100:
 20306 0b97 6D726263 		.ascii	"mrbc_irep\000"
 20306      5F697265 
 20306      7000
 20307              		.ident	"GCC: (GNU Tools for ARM Embedded Processors) 5.4.1 20160609 (release) [ARM/embedded-5-bran
