ARM GAS  C:\Users\164\AppData\Local\Temp\cc4PZf78.s 			page 1


   1              		.syntax unified
   2              		.cpu cortex-m3
   3              		.fpu softvfp
   4              		.eabi_attribute 20, 1
   5              		.eabi_attribute 21, 1
   6              		.eabi_attribute 23, 3
   7              		.eabi_attribute 24, 1
   8              		.eabi_attribute 25, 1
   9              		.eabi_attribute 26, 1
  10              		.eabi_attribute 30, 1
  11              		.eabi_attribute 34, 1
  12              		.eabi_attribute 18, 4
  13              		.thumb
  14              		.syntax unified
  15              		.file	"vm.c"
  16              		.text
  17              	.Ltext0:
  18              		.cfi_sections	.debug_frame
  19              		.section	.text.not_supported,"ax",%progbits
  20              		.align	2
  21              		.thumb
  22              		.thumb_func
  23              		.type	not_supported, %function
  24              	not_supported:
  25              	.LFB93:
  26              		.file 1 "..\\..\\mruby_c2\\Design01.cydsn\\vm.c"
   1:..\..\mruby_c2\Design01.cydsn/vm.c **** /*! @file
   2:..\..\mruby_c2\Design01.cydsn/vm.c ****   @brief
   3:..\..\mruby_c2\Design01.cydsn/vm.c ****   mruby bytecode executor.
   4:..\..\mruby_c2\Design01.cydsn/vm.c **** 
   5:..\..\mruby_c2\Design01.cydsn/vm.c ****   <pre>
   6:..\..\mruby_c2\Design01.cydsn/vm.c ****   Copyright (C) 2015-2018 Kyushu Institute of Technology.
   7:..\..\mruby_c2\Design01.cydsn/vm.c ****   Copyright (C) 2015-2018 Shimane IT Open-Innovation Center.
   8:..\..\mruby_c2\Design01.cydsn/vm.c **** 
   9:..\..\mruby_c2\Design01.cydsn/vm.c ****   This file is distributed under BSD 3-Clause License.
  10:..\..\mruby_c2\Design01.cydsn/vm.c **** 
  11:..\..\mruby_c2\Design01.cydsn/vm.c ****   Fetch mruby VM bytecodes, decode and execute.
  12:..\..\mruby_c2\Design01.cydsn/vm.c **** 
  13:..\..\mruby_c2\Design01.cydsn/vm.c ****   </pre>
  14:..\..\mruby_c2\Design01.cydsn/vm.c **** */
  15:..\..\mruby_c2\Design01.cydsn/vm.c **** 
  16:..\..\mruby_c2\Design01.cydsn/vm.c **** #include "vm_config.h"
  17:..\..\mruby_c2\Design01.cydsn/vm.c **** #include <stdint.h>
  18:..\..\mruby_c2\Design01.cydsn/vm.c **** #include <stddef.h>
  19:..\..\mruby_c2\Design01.cydsn/vm.c **** #include <string.h>
  20:..\..\mruby_c2\Design01.cydsn/vm.c **** #include <assert.h>
  21:..\..\mruby_c2\Design01.cydsn/vm.c **** #include "vm.h"
  22:..\..\mruby_c2\Design01.cydsn/vm.c **** #include "alloc.h"
  23:..\..\mruby_c2\Design01.cydsn/vm.c **** #include "static.h"
  24:..\..\mruby_c2\Design01.cydsn/vm.c **** #include "opcode.h"
  25:..\..\mruby_c2\Design01.cydsn/vm.c **** #include "class.h"
  26:..\..\mruby_c2\Design01.cydsn/vm.c **** #include "symbol.h"
  27:..\..\mruby_c2\Design01.cydsn/vm.c **** #include "console.h"
  28:..\..\mruby_c2\Design01.cydsn/vm.c **** 
  29:..\..\mruby_c2\Design01.cydsn/vm.c **** #include "c_string.h"
  30:..\..\mruby_c2\Design01.cydsn/vm.c **** #include "c_range.h"
  31:..\..\mruby_c2\Design01.cydsn/vm.c **** #include "c_array.h"
ARM GAS  C:\Users\164\AppData\Local\Temp\cc4PZf78.s 			page 2


  32:..\..\mruby_c2\Design01.cydsn/vm.c **** #include "c_hash.h"
  33:..\..\mruby_c2\Design01.cydsn/vm.c **** 
  34:..\..\mruby_c2\Design01.cydsn/vm.c **** 
  35:..\..\mruby_c2\Design01.cydsn/vm.c **** static uint32_t free_vm_bitmap[MAX_VM_COUNT / 32 + 1];
  36:..\..\mruby_c2\Design01.cydsn/vm.c **** #define FREE_BITMAP_WIDTH 32
  37:..\..\mruby_c2\Design01.cydsn/vm.c **** #define Num(n) (sizeof(n)/sizeof((n)[0]))
  38:..\..\mruby_c2\Design01.cydsn/vm.c **** 
  39:..\..\mruby_c2\Design01.cydsn/vm.c **** 
  40:..\..\mruby_c2\Design01.cydsn/vm.c **** //================================================================
  41:..\..\mruby_c2\Design01.cydsn/vm.c **** /*! Number of leading zeros.
  42:..\..\mruby_c2\Design01.cydsn/vm.c **** 
  43:..\..\mruby_c2\Design01.cydsn/vm.c ****   @param	x	target (32bit unsined)
  44:..\..\mruby_c2\Design01.cydsn/vm.c ****   @retval	int	nlz value
  45:..\..\mruby_c2\Design01.cydsn/vm.c **** */
  46:..\..\mruby_c2\Design01.cydsn/vm.c **** static inline int nlz32(uint32_t x)
  47:..\..\mruby_c2\Design01.cydsn/vm.c **** {
  48:..\..\mruby_c2\Design01.cydsn/vm.c ****   if( x == 0 ) return 32;
  49:..\..\mruby_c2\Design01.cydsn/vm.c **** 
  50:..\..\mruby_c2\Design01.cydsn/vm.c ****   int n = 1;
  51:..\..\mruby_c2\Design01.cydsn/vm.c ****   if((x >> 16) == 0 ) { n += 16; x <<= 16; }
  52:..\..\mruby_c2\Design01.cydsn/vm.c ****   if((x >> 24) == 0 ) { n +=  8; x <<=  8; }
  53:..\..\mruby_c2\Design01.cydsn/vm.c ****   if((x >> 28) == 0 ) { n +=  4; x <<=  4; }
  54:..\..\mruby_c2\Design01.cydsn/vm.c ****   if((x >> 30) == 0 ) { n +=  2; x <<=  2; }
  55:..\..\mruby_c2\Design01.cydsn/vm.c ****   return n - (x >> 31);
  56:..\..\mruby_c2\Design01.cydsn/vm.c **** }
  57:..\..\mruby_c2\Design01.cydsn/vm.c **** 
  58:..\..\mruby_c2\Design01.cydsn/vm.c **** 
  59:..\..\mruby_c2\Design01.cydsn/vm.c **** //================================================================
  60:..\..\mruby_c2\Design01.cydsn/vm.c **** /*! get sym[n] from symbol table in irep
  61:..\..\mruby_c2\Design01.cydsn/vm.c **** 
  62:..\..\mruby_c2\Design01.cydsn/vm.c ****   @param  p	Pointer to IREP SYMS section.
  63:..\..\mruby_c2\Design01.cydsn/vm.c ****   @param  n	n th
  64:..\..\mruby_c2\Design01.cydsn/vm.c ****   @return	symbol name string
  65:..\..\mruby_c2\Design01.cydsn/vm.c **** */
  66:..\..\mruby_c2\Design01.cydsn/vm.c **** const char * mrbc_get_irep_symbol( const uint8_t *p, int n )
  67:..\..\mruby_c2\Design01.cydsn/vm.c **** {
  68:..\..\mruby_c2\Design01.cydsn/vm.c ****   int cnt = bin_to_uint32(p);
  69:..\..\mruby_c2\Design01.cydsn/vm.c ****   if( n >= cnt ) return 0;
  70:..\..\mruby_c2\Design01.cydsn/vm.c ****   p += 4;
  71:..\..\mruby_c2\Design01.cydsn/vm.c ****   while( n > 0 ) {
  72:..\..\mruby_c2\Design01.cydsn/vm.c ****     uint16_t s = bin_to_uint16(p);
  73:..\..\mruby_c2\Design01.cydsn/vm.c ****     p += 2+s+1;   // size(2 bytes) + symbol len + '\0'
  74:..\..\mruby_c2\Design01.cydsn/vm.c ****     n--;
  75:..\..\mruby_c2\Design01.cydsn/vm.c ****   }
  76:..\..\mruby_c2\Design01.cydsn/vm.c ****   return (char *)p+2;  // skip size(2 bytes)
  77:..\..\mruby_c2\Design01.cydsn/vm.c **** }
  78:..\..\mruby_c2\Design01.cydsn/vm.c **** 
  79:..\..\mruby_c2\Design01.cydsn/vm.c **** 
  80:..\..\mruby_c2\Design01.cydsn/vm.c **** //================================================================
  81:..\..\mruby_c2\Design01.cydsn/vm.c **** /*! get callee name
  82:..\..\mruby_c2\Design01.cydsn/vm.c **** 
  83:..\..\mruby_c2\Design01.cydsn/vm.c ****   @param  vm	Pointer to VM
  84:..\..\mruby_c2\Design01.cydsn/vm.c ****   @return	string
  85:..\..\mruby_c2\Design01.cydsn/vm.c **** */
  86:..\..\mruby_c2\Design01.cydsn/vm.c **** const char *mrbc_get_callee_name( mrb_vm *vm )
  87:..\..\mruby_c2\Design01.cydsn/vm.c **** {
  88:..\..\mruby_c2\Design01.cydsn/vm.c ****   uint32_t code = bin_to_uint32(vm->pc_irep->code + (vm->pc - 1) * 4);
ARM GAS  C:\Users\164\AppData\Local\Temp\cc4PZf78.s 			page 3


  89:..\..\mruby_c2\Design01.cydsn/vm.c ****   int rb = GETARG_B(code);  // index of method sym
  90:..\..\mruby_c2\Design01.cydsn/vm.c ****   return mrbc_get_irep_symbol(vm->pc_irep->ptr_to_sym, rb);
  91:..\..\mruby_c2\Design01.cydsn/vm.c **** }
  92:..\..\mruby_c2\Design01.cydsn/vm.c **** 
  93:..\..\mruby_c2\Design01.cydsn/vm.c **** 
  94:..\..\mruby_c2\Design01.cydsn/vm.c **** //================================================================
  95:..\..\mruby_c2\Design01.cydsn/vm.c **** /*!@brief
  96:..\..\mruby_c2\Design01.cydsn/vm.c **** 
  97:..\..\mruby_c2\Design01.cydsn/vm.c **** */
  98:..\..\mruby_c2\Design01.cydsn/vm.c **** static void not_supported(void)
  99:..\..\mruby_c2\Design01.cydsn/vm.c **** {
  27              		.loc 1 99 0
  28              		.cfi_startproc
  29              		@ args = 0, pretend = 0, frame = 0
  30              		@ frame_needed = 0, uses_anonymous_args = 0
  31 0000 08B5     		push	{r3, lr}
  32              		.cfi_def_cfa_offset 8
  33              		.cfi_offset 3, -8
  34              		.cfi_offset 14, -4
 100:..\..\mruby_c2\Design01.cydsn/vm.c ****   console_printf("Not supported!\n");
  35              		.loc 1 100 0
  36 0002 0248     		ldr	r0, .L3
  37 0004 FFF7FEFF 		bl	console_printf
  38              	.LVL0:
  39 0008 08BD     		pop	{r3, pc}
  40              	.L4:
  41 000a 00BF     		.align	2
  42              	.L3:
  43 000c 00000000 		.word	.LC0
  44              		.cfi_endproc
  45              	.LFE93:
  46              		.size	not_supported, .-not_supported
  47              		.section	.text.mrbc_get_irep_symbol,"ax",%progbits
  48              		.align	2
  49              		.global	mrbc_get_irep_symbol
  50              		.thumb
  51              		.thumb_func
  52              		.type	mrbc_get_irep_symbol, %function
  53              	mrbc_get_irep_symbol:
  54              	.LFB91:
  67:..\..\mruby_c2\Design01.cydsn/vm.c ****   int cnt = bin_to_uint32(p);
  55              		.loc 1 67 0
  56              		.cfi_startproc
  57              		@ args = 0, pretend = 0, frame = 0
  58              		@ frame_needed = 0, uses_anonymous_args = 0
  59              		@ link register save eliminated.
  60              	.LVL1:
  61 0000 10B4     		push	{r4}
  62              		.cfi_def_cfa_offset 4
  63              		.cfi_offset 4, -4
  64              	.LVL2:
  65              	.LBB42:
  66              	.LBB43:
  67              		.file 2 "..\\..\\mruby_c2\\Design01.cydsn\\vm.h"
   1:..\..\mruby_c2\Design01.cydsn/vm.h **** /*! @file
   2:..\..\mruby_c2\Design01.cydsn/vm.h ****   @brief
   3:..\..\mruby_c2\Design01.cydsn/vm.h ****   mruby bytecode executor.
ARM GAS  C:\Users\164\AppData\Local\Temp\cc4PZf78.s 			page 4


   4:..\..\mruby_c2\Design01.cydsn/vm.h **** 
   5:..\..\mruby_c2\Design01.cydsn/vm.h ****   <pre>
   6:..\..\mruby_c2\Design01.cydsn/vm.h ****   Copyright (C) 2015-2017 Kyushu Institute of Technology.
   7:..\..\mruby_c2\Design01.cydsn/vm.h ****   Copyright (C) 2015-2017 Shimane IT Open-Innovation Center.
   8:..\..\mruby_c2\Design01.cydsn/vm.h **** 
   9:..\..\mruby_c2\Design01.cydsn/vm.h ****   This file is distributed under BSD 3-Clause License.
  10:..\..\mruby_c2\Design01.cydsn/vm.h **** 
  11:..\..\mruby_c2\Design01.cydsn/vm.h ****   Fetch mruby VM bytecodes, decode and execute.
  12:..\..\mruby_c2\Design01.cydsn/vm.h **** 
  13:..\..\mruby_c2\Design01.cydsn/vm.h ****   </pre>
  14:..\..\mruby_c2\Design01.cydsn/vm.h **** */
  15:..\..\mruby_c2\Design01.cydsn/vm.h **** 
  16:..\..\mruby_c2\Design01.cydsn/vm.h **** #ifndef MRBC_SRC_VM_H_
  17:..\..\mruby_c2\Design01.cydsn/vm.h **** #define MRBC_SRC_VM_H_
  18:..\..\mruby_c2\Design01.cydsn/vm.h **** 
  19:..\..\mruby_c2\Design01.cydsn/vm.h **** #include <stdint.h>
  20:..\..\mruby_c2\Design01.cydsn/vm.h **** #include "vm_config.h"
  21:..\..\mruby_c2\Design01.cydsn/vm.h **** #include "value.h"
  22:..\..\mruby_c2\Design01.cydsn/vm.h **** 
  23:..\..\mruby_c2\Design01.cydsn/vm.h **** #ifdef __cplusplus
  24:..\..\mruby_c2\Design01.cydsn/vm.h **** extern "C" {
  25:..\..\mruby_c2\Design01.cydsn/vm.h **** #endif
  26:..\..\mruby_c2\Design01.cydsn/vm.h **** 
  27:..\..\mruby_c2\Design01.cydsn/vm.h **** 
  28:..\..\mruby_c2\Design01.cydsn/vm.h **** //================================================================
  29:..\..\mruby_c2\Design01.cydsn/vm.h **** /*!@brief
  30:..\..\mruby_c2\Design01.cydsn/vm.h ****   IREP Internal REPresentation
  31:..\..\mruby_c2\Design01.cydsn/vm.h **** */
  32:..\..\mruby_c2\Design01.cydsn/vm.h **** typedef struct IREP {
  33:..\..\mruby_c2\Design01.cydsn/vm.h ****   uint16_t nlocals;		//!< # of local variables
  34:..\..\mruby_c2\Design01.cydsn/vm.h ****   uint16_t nregs;		//!< # of register variables
  35:..\..\mruby_c2\Design01.cydsn/vm.h ****   uint16_t rlen;		//!< # of child IREP blocks
  36:..\..\mruby_c2\Design01.cydsn/vm.h ****   uint16_t ilen;		//!< # of irep
  37:..\..\mruby_c2\Design01.cydsn/vm.h ****   uint16_t plen;		//!< # of pool
  38:..\..\mruby_c2\Design01.cydsn/vm.h **** 
  39:..\..\mruby_c2\Design01.cydsn/vm.h ****   uint8_t     *code;		//!< ISEQ (code) BLOCK
  40:..\..\mruby_c2\Design01.cydsn/vm.h ****   mrb_object  **pools;          //!< array of POOL objects pointer.
  41:..\..\mruby_c2\Design01.cydsn/vm.h ****   uint8_t     *ptr_to_sym;
  42:..\..\mruby_c2\Design01.cydsn/vm.h ****   struct IREP **reps;		//!< array of child IREP's pointer.
  43:..\..\mruby_c2\Design01.cydsn/vm.h **** 
  44:..\..\mruby_c2\Design01.cydsn/vm.h **** } mrb_irep;
  45:..\..\mruby_c2\Design01.cydsn/vm.h **** 
  46:..\..\mruby_c2\Design01.cydsn/vm.h **** 
  47:..\..\mruby_c2\Design01.cydsn/vm.h **** //================================================================
  48:..\..\mruby_c2\Design01.cydsn/vm.h **** /*!@brief
  49:..\..\mruby_c2\Design01.cydsn/vm.h ****   Call information
  50:..\..\mruby_c2\Design01.cydsn/vm.h **** */
  51:..\..\mruby_c2\Design01.cydsn/vm.h **** typedef struct CALLINFO {
  52:..\..\mruby_c2\Design01.cydsn/vm.h ****   mrb_irep *pc_irep;
  53:..\..\mruby_c2\Design01.cydsn/vm.h ****   uint16_t  pc;
  54:..\..\mruby_c2\Design01.cydsn/vm.h ****   mrb_value *current_regs;
  55:..\..\mruby_c2\Design01.cydsn/vm.h ****   mrb_class *target_class;
  56:..\..\mruby_c2\Design01.cydsn/vm.h ****   uint8_t   n_args;     // num of args
  57:..\..\mruby_c2\Design01.cydsn/vm.h **** } mrb_callinfo;
  58:..\..\mruby_c2\Design01.cydsn/vm.h **** 
  59:..\..\mruby_c2\Design01.cydsn/vm.h **** 
  60:..\..\mruby_c2\Design01.cydsn/vm.h **** //================================================================
ARM GAS  C:\Users\164\AppData\Local\Temp\cc4PZf78.s 			page 5


  61:..\..\mruby_c2\Design01.cydsn/vm.h **** /*!@brief
  62:..\..\mruby_c2\Design01.cydsn/vm.h ****   Virtual Machine
  63:..\..\mruby_c2\Design01.cydsn/vm.h **** */
  64:..\..\mruby_c2\Design01.cydsn/vm.h **** typedef struct VM {
  65:..\..\mruby_c2\Design01.cydsn/vm.h ****   mrb_irep *irep;
  66:..\..\mruby_c2\Design01.cydsn/vm.h **** 
  67:..\..\mruby_c2\Design01.cydsn/vm.h ****   uint8_t        vm_id; // vm_id : 1..n
  68:..\..\mruby_c2\Design01.cydsn/vm.h ****   const uint8_t *mrb;   // bytecode
  69:..\..\mruby_c2\Design01.cydsn/vm.h **** 
  70:..\..\mruby_c2\Design01.cydsn/vm.h ****   mrb_irep *pc_irep;    // PC
  71:..\..\mruby_c2\Design01.cydsn/vm.h ****   uint16_t  pc;         // PC
  72:..\..\mruby_c2\Design01.cydsn/vm.h **** 
  73:..\..\mruby_c2\Design01.cydsn/vm.h ****   //  uint16_t     reg_top;
  74:..\..\mruby_c2\Design01.cydsn/vm.h ****   mrb_value    regs[MAX_REGS_SIZE];
  75:..\..\mruby_c2\Design01.cydsn/vm.h ****   mrb_value   *current_regs;
  76:..\..\mruby_c2\Design01.cydsn/vm.h ****   uint16_t     callinfo_top;
  77:..\..\mruby_c2\Design01.cydsn/vm.h ****   mrb_callinfo callinfo[MAX_CALLINFO_SIZE];
  78:..\..\mruby_c2\Design01.cydsn/vm.h **** 
  79:..\..\mruby_c2\Design01.cydsn/vm.h ****   mrb_class *target_class;
  80:..\..\mruby_c2\Design01.cydsn/vm.h **** 
  81:..\..\mruby_c2\Design01.cydsn/vm.h ****   int32_t error_code;
  82:..\..\mruby_c2\Design01.cydsn/vm.h **** 
  83:..\..\mruby_c2\Design01.cydsn/vm.h ****   volatile int8_t flag_preemption;
  84:..\..\mruby_c2\Design01.cydsn/vm.h ****   int8_t flag_need_memfree;
  85:..\..\mruby_c2\Design01.cydsn/vm.h **** } mrb_vm;
  86:..\..\mruby_c2\Design01.cydsn/vm.h **** 
  87:..\..\mruby_c2\Design01.cydsn/vm.h **** 
  88:..\..\mruby_c2\Design01.cydsn/vm.h **** const char *mrbc_get_irep_symbol(const uint8_t *p, int n);
  89:..\..\mruby_c2\Design01.cydsn/vm.h **** const char *mrbc_get_callee_name(mrb_vm *vm);
  90:..\..\mruby_c2\Design01.cydsn/vm.h **** mrb_vm *mrbc_vm_open(mrb_vm *vm_arg);
  91:..\..\mruby_c2\Design01.cydsn/vm.h **** void mrbc_vm_close(mrb_vm *vm);
  92:..\..\mruby_c2\Design01.cydsn/vm.h **** void mrbc_vm_begin(mrb_vm *vm);
  93:..\..\mruby_c2\Design01.cydsn/vm.h **** void mrbc_vm_end(mrb_vm *vm);
  94:..\..\mruby_c2\Design01.cydsn/vm.h **** int mrbc_vm_run(mrb_vm *vm);
  95:..\..\mruby_c2\Design01.cydsn/vm.h **** 
  96:..\..\mruby_c2\Design01.cydsn/vm.h **** void mrbc_push_callinfo(mrb_vm *vm, int n_args);
  97:..\..\mruby_c2\Design01.cydsn/vm.h **** void mrbc_pop_callinfo(mrb_vm *vm);
  98:..\..\mruby_c2\Design01.cydsn/vm.h **** 
  99:..\..\mruby_c2\Design01.cydsn/vm.h **** //================================================================
 100:..\..\mruby_c2\Design01.cydsn/vm.h **** /*!@brief
 101:..\..\mruby_c2\Design01.cydsn/vm.h ****   Get 32bit value from memory big endian.
 102:..\..\mruby_c2\Design01.cydsn/vm.h **** 
 103:..\..\mruby_c2\Design01.cydsn/vm.h ****   @param  s	Pointer of memory.
 104:..\..\mruby_c2\Design01.cydsn/vm.h ****   @return	32bit unsigned value.
 105:..\..\mruby_c2\Design01.cydsn/vm.h **** */
 106:..\..\mruby_c2\Design01.cydsn/vm.h **** inline static uint32_t bin_to_uint32( const void *s )
 107:..\..\mruby_c2\Design01.cydsn/vm.h **** {
 108:..\..\mruby_c2\Design01.cydsn/vm.h **** #if MRBC_REQUIRE_32BIT_ALIGNMENT
 109:..\..\mruby_c2\Design01.cydsn/vm.h ****   uint8_t *p = (uint8_t *)s;
 110:..\..\mruby_c2\Design01.cydsn/vm.h ****   uint32_t x = *p++;
 111:..\..\mruby_c2\Design01.cydsn/vm.h ****   x <<= 8;
 112:..\..\mruby_c2\Design01.cydsn/vm.h ****   x |= *p++;
 113:..\..\mruby_c2\Design01.cydsn/vm.h ****   x <<= 8;
 114:..\..\mruby_c2\Design01.cydsn/vm.h ****   x |= *p++;
 115:..\..\mruby_c2\Design01.cydsn/vm.h ****   x <<= 8;
 116:..\..\mruby_c2\Design01.cydsn/vm.h ****   x |= *p;
 117:..\..\mruby_c2\Design01.cydsn/vm.h ****   return x;
ARM GAS  C:\Users\164\AppData\Local\Temp\cc4PZf78.s 			page 6


 118:..\..\mruby_c2\Design01.cydsn/vm.h **** #else
 119:..\..\mruby_c2\Design01.cydsn/vm.h ****   uint32_t x = *((uint32_t *)s);
  68              		.loc 2 119 0
  69 0002 0468     		ldr	r4, [r0]
  70              	.LVL3:
 120:..\..\mruby_c2\Design01.cydsn/vm.h ****   return (x << 24) | ((x & 0xff00) << 8) | ((x >> 8) & 0xff00) | (x >> 24);
  71              		.loc 2 120 0
  72 0004 2302     		lsls	r3, r4, #8
  73 0006 03F47F03 		and	r3, r3, #16711680
  74 000a 43EA0463 		orr	r3, r3, r4, lsl #24
  75 000e 220A     		lsrs	r2, r4, #8
  76 0010 02F47F42 		and	r2, r2, #65280
  77 0014 1343     		orrs	r3, r3, r2
  78 0016 43EA1463 		orr	r3, r3, r4, lsr #24
  79              	.LVL4:
  80              	.LBE43:
  81              	.LBE42:
  69:..\..\mruby_c2\Design01.cydsn/vm.c ****   p += 4;
  82              		.loc 1 69 0
  83 001a 8B42     		cmp	r3, r1
  84 001c 0DDD     		ble	.L9
  70:..\..\mruby_c2\Design01.cydsn/vm.c ****   while( n > 0 ) {
  85              		.loc 1 70 0
  86 001e 0430     		adds	r0, r0, #4
  87              	.LVL5:
  71:..\..\mruby_c2\Design01.cydsn/vm.c ****     uint16_t s = bin_to_uint16(p);
  88              		.loc 1 71 0
  89 0020 07E0     		b	.L7
  90              	.LVL6:
  91              	.L8:
  92              	.LBB44:
  93              	.LBB45:
  94              	.LBB46:
 121:..\..\mruby_c2\Design01.cydsn/vm.h **** #endif
 122:..\..\mruby_c2\Design01.cydsn/vm.h **** }
 123:..\..\mruby_c2\Design01.cydsn/vm.h **** 
 124:..\..\mruby_c2\Design01.cydsn/vm.h **** 
 125:..\..\mruby_c2\Design01.cydsn/vm.h **** //================================================================
 126:..\..\mruby_c2\Design01.cydsn/vm.h **** /*!@brief
 127:..\..\mruby_c2\Design01.cydsn/vm.h ****   Get 16bit value from memory big endian.
 128:..\..\mruby_c2\Design01.cydsn/vm.h **** 
 129:..\..\mruby_c2\Design01.cydsn/vm.h ****   @param  s	Pointer of memory.
 130:..\..\mruby_c2\Design01.cydsn/vm.h ****   @return	16bit unsigned value.
 131:..\..\mruby_c2\Design01.cydsn/vm.h **** */
 132:..\..\mruby_c2\Design01.cydsn/vm.h **** inline static uint16_t bin_to_uint16( const void *s )
 133:..\..\mruby_c2\Design01.cydsn/vm.h **** {
 134:..\..\mruby_c2\Design01.cydsn/vm.h **** #if MRBC_REQUIRE_32BIT_ALIGNMENT
 135:..\..\mruby_c2\Design01.cydsn/vm.h ****   uint8_t *p = (uint8_t *)s;
 136:..\..\mruby_c2\Design01.cydsn/vm.h ****   uint16_t x = *p++ << 8;
 137:..\..\mruby_c2\Design01.cydsn/vm.h ****   x |= *p;
 138:..\..\mruby_c2\Design01.cydsn/vm.h ****   return x;
 139:..\..\mruby_c2\Design01.cydsn/vm.h **** #else
 140:..\..\mruby_c2\Design01.cydsn/vm.h ****   uint16_t x = *((uint16_t *)s);
  95              		.loc 2 140 0
  96 0022 0288     		ldrh	r2, [r0]
  97              	.LVL7:
 141:..\..\mruby_c2\Design01.cydsn/vm.h ****   return (x << 8) | (x >> 8);
ARM GAS  C:\Users\164\AppData\Local\Temp\cc4PZf78.s 			page 7


  98              		.loc 2 141 0
  99 0024 130A     		lsrs	r3, r2, #8
 100 0026 43EA0223 		orr	r3, r3, r2, lsl #8
 101 002a 9BB2     		uxth	r3, r3
 102              	.LVL8:
 103              	.LBE46:
 104              	.LBE45:
  73:..\..\mruby_c2\Design01.cydsn/vm.c ****     n--;
 105              		.loc 1 73 0
 106 002c 0333     		adds	r3, r3, #3
 107 002e 1844     		add	r0, r0, r3
 108              	.LVL9:
  74:..\..\mruby_c2\Design01.cydsn/vm.c ****   }
 109              		.loc 1 74 0
 110 0030 0139     		subs	r1, r1, #1
 111              	.LVL10:
 112              	.L7:
 113              	.LBE44:
  71:..\..\mruby_c2\Design01.cydsn/vm.c ****     uint16_t s = bin_to_uint16(p);
 114              		.loc 1 71 0
 115 0032 0029     		cmp	r1, #0
 116 0034 F5DC     		bgt	.L8
  76:..\..\mruby_c2\Design01.cydsn/vm.c **** }
 117              		.loc 1 76 0
 118 0036 0230     		adds	r0, r0, #2
 119              	.LVL11:
 120 0038 00E0     		b	.L6
 121              	.LVL12:
 122              	.L9:
  69:..\..\mruby_c2\Design01.cydsn/vm.c ****   p += 4;
 123              		.loc 1 69 0
 124 003a 0020     		movs	r0, #0
 125              	.LVL13:
 126              	.L6:
  77:..\..\mruby_c2\Design01.cydsn/vm.c **** 
 127              		.loc 1 77 0
 128 003c 10BC     		pop	{r4}
 129              		.cfi_restore 4
 130              		.cfi_def_cfa_offset 0
 131              	.LVL14:
 132 003e 7047     		bx	lr
 133              		.cfi_endproc
 134              	.LFE91:
 135              		.size	mrbc_get_irep_symbol, .-mrbc_get_irep_symbol
 136              		.section	.text.mrbc_get_callee_name,"ax",%progbits
 137              		.align	2
 138              		.global	mrbc_get_callee_name
 139              		.thumb
 140              		.thumb_func
 141              		.type	mrbc_get_callee_name, %function
 142              	mrbc_get_callee_name:
 143              	.LFB92:
  87:..\..\mruby_c2\Design01.cydsn/vm.c ****   uint32_t code = bin_to_uint32(vm->pc_irep->code + (vm->pc - 1) * 4);
 144              		.loc 1 87 0
 145              		.cfi_startproc
 146              		@ args = 0, pretend = 0, frame = 0
 147              		@ frame_needed = 0, uses_anonymous_args = 0
ARM GAS  C:\Users\164\AppData\Local\Temp\cc4PZf78.s 			page 8


 148              	.LVL15:
 149 0000 08B5     		push	{r3, lr}
 150              		.cfi_def_cfa_offset 8
 151              		.cfi_offset 3, -8
 152              		.cfi_offset 14, -4
  88:..\..\mruby_c2\Design01.cydsn/vm.c ****   int rb = GETARG_B(code);  // index of method sym
 153              		.loc 1 88 0
 154 0002 C268     		ldr	r2, [r0, #12]
 155 0004 D168     		ldr	r1, [r2, #12]
 156 0006 038A     		ldrh	r3, [r0, #16]
 157 0008 013B     		subs	r3, r3, #1
 158              	.LVL16:
 159              	.LBB47:
 160              	.LBB48:
 119:..\..\mruby_c2\Design01.cydsn/vm.h ****   return (x << 24) | ((x & 0xff00) << 8) | ((x >> 8) & 0xff00) | (x >> 24);
 161              		.loc 2 119 0
 162 000a 51F82330 		ldr	r3, [r1, r3, lsl #2]
 163              	.LVL17:
 120:..\..\mruby_c2\Design01.cydsn/vm.h **** #endif
 164              		.loc 2 120 0
 165 000e 1902     		lsls	r1, r3, #8
 166              	.LVL18:
 167 0010 01F47F01 		and	r1, r1, #16711680
 168 0014 41EA0361 		orr	r1, r1, r3, lsl #24
 169 0018 1B0A     		lsrs	r3, r3, #8
 170              	.LVL19:
 171 001a 03F47F43 		and	r3, r3, #65280
 172 001e 1943     		orrs	r1, r1, r3
 173              	.LVL20:
 174              	.LBE48:
 175              	.LBE47:
  90:..\..\mruby_c2\Design01.cydsn/vm.c **** }
 176              		.loc 1 90 0
 177 0020 C1F38831 		ubfx	r1, r1, #14, #9
 178              	.LVL21:
 179 0024 5069     		ldr	r0, [r2, #20]
 180              	.LVL22:
 181 0026 FFF7FEFF 		bl	mrbc_get_irep_symbol
 182              	.LVL23:
  91:..\..\mruby_c2\Design01.cydsn/vm.c **** 
 183              		.loc 1 91 0
 184 002a 08BD     		pop	{r3, pc}
 185              		.cfi_endproc
 186              	.LFE92:
 187              		.size	mrbc_get_callee_name, .-mrbc_get_callee_name
 188              		.section	.text.mrbc_push_callinfo,"ax",%progbits
 189              		.align	2
 190              		.global	mrbc_push_callinfo
 191              		.thumb
 192              		.thumb_func
 193              		.type	mrbc_push_callinfo, %function
 194              	mrbc_push_callinfo:
 195              	.LFB94:
 101:..\..\mruby_c2\Design01.cydsn/vm.c **** }
 102:..\..\mruby_c2\Design01.cydsn/vm.c **** 
 103:..\..\mruby_c2\Design01.cydsn/vm.c **** 
 104:..\..\mruby_c2\Design01.cydsn/vm.c **** 
ARM GAS  C:\Users\164\AppData\Local\Temp\cc4PZf78.s 			page 9


 105:..\..\mruby_c2\Design01.cydsn/vm.c **** //================================================================
 106:..\..\mruby_c2\Design01.cydsn/vm.c **** /*!@brief
 107:..\..\mruby_c2\Design01.cydsn/vm.c ****   Push current status to callinfo stack
 108:..\..\mruby_c2\Design01.cydsn/vm.c **** 
 109:..\..\mruby_c2\Design01.cydsn/vm.c **** */
 110:..\..\mruby_c2\Design01.cydsn/vm.c **** void mrbc_push_callinfo(mrb_vm *vm, int n_args)
 111:..\..\mruby_c2\Design01.cydsn/vm.c **** {
 196              		.loc 1 111 0
 197              		.cfi_startproc
 198              		@ args = 0, pretend = 0, frame = 0
 199              		@ frame_needed = 0, uses_anonymous_args = 0
 200              		@ link register save eliminated.
 201              	.LVL24:
 202 0000 30B4     		push	{r4, r5}
 203              		.cfi_def_cfa_offset 8
 204              		.cfi_offset 4, -8
 205              		.cfi_offset 5, -4
 112:..\..\mruby_c2\Design01.cydsn/vm.c ****   mrb_callinfo *callinfo = vm->callinfo + vm->callinfo_top;
 206              		.loc 1 112 0
 207 0002 00F5CC64 		add	r4, r0, #1632
 208 0006 B0F85C36 		ldrh	r3, [r0, #1628]
 209 000a 03EB8303 		add	r3, r3, r3, lsl #2
 210 000e 9A00     		lsls	r2, r3, #2
 211 0010 A318     		adds	r3, r4, r2
 212              	.LVL25:
 113:..\..\mruby_c2\Design01.cydsn/vm.c ****   callinfo->current_regs = vm->current_regs;
 213              		.loc 1 113 0
 214 0012 D0F85856 		ldr	r5, [r0, #1624]
 215 0016 9D60     		str	r5, [r3, #8]
 114:..\..\mruby_c2\Design01.cydsn/vm.c ****   callinfo->pc_irep = vm->pc_irep;
 216              		.loc 1 114 0
 217 0018 C568     		ldr	r5, [r0, #12]
 218 001a A550     		str	r5, [r4, r2]
 115:..\..\mruby_c2\Design01.cydsn/vm.c ****   callinfo->pc = vm->pc;
 219              		.loc 1 115 0
 220 001c 028A     		ldrh	r2, [r0, #16]
 221 001e 9A80     		strh	r2, [r3, #4]	@ movhi
 116:..\..\mruby_c2\Design01.cydsn/vm.c ****   callinfo->n_args = n_args;
 222              		.loc 1 116 0
 223 0020 1974     		strb	r1, [r3, #16]
 117:..\..\mruby_c2\Design01.cydsn/vm.c ****   callinfo->target_class = vm->target_class;
 224              		.loc 1 117 0
 225 0022 D0F8302E 		ldr	r2, [r0, #3632]
 226 0026 DA60     		str	r2, [r3, #12]
 118:..\..\mruby_c2\Design01.cydsn/vm.c ****   vm->callinfo_top++;
 227              		.loc 1 118 0
 228 0028 B0F85C36 		ldrh	r3, [r0, #1628]
 229              	.LVL26:
 230 002c 0133     		adds	r3, r3, #1
 231 002e A0F85C36 		strh	r3, [r0, #1628]	@ movhi
 119:..\..\mruby_c2\Design01.cydsn/vm.c **** }
 232              		.loc 1 119 0
 233 0032 30BC     		pop	{r4, r5}
 234              		.cfi_restore 5
 235              		.cfi_restore 4
 236              		.cfi_def_cfa_offset 0
 237 0034 7047     		bx	lr
ARM GAS  C:\Users\164\AppData\Local\Temp\cc4PZf78.s 			page 10


 238              		.cfi_endproc
 239              	.LFE94:
 240              		.size	mrbc_push_callinfo, .-mrbc_push_callinfo
 241 0036 00BF     		.section	.text.mrbc_pop_callinfo,"ax",%progbits
 242              		.align	2
 243              		.global	mrbc_pop_callinfo
 244              		.thumb
 245              		.thumb_func
 246              		.type	mrbc_pop_callinfo, %function
 247              	mrbc_pop_callinfo:
 248              	.LFB95:
 120:..\..\mruby_c2\Design01.cydsn/vm.c **** 
 121:..\..\mruby_c2\Design01.cydsn/vm.c **** 
 122:..\..\mruby_c2\Design01.cydsn/vm.c **** 
 123:..\..\mruby_c2\Design01.cydsn/vm.c **** //================================================================
 124:..\..\mruby_c2\Design01.cydsn/vm.c **** /*!@brief
 125:..\..\mruby_c2\Design01.cydsn/vm.c ****   Push current status to callinfo stack
 126:..\..\mruby_c2\Design01.cydsn/vm.c **** 
 127:..\..\mruby_c2\Design01.cydsn/vm.c **** */
 128:..\..\mruby_c2\Design01.cydsn/vm.c **** void mrbc_pop_callinfo(mrb_vm *vm)
 129:..\..\mruby_c2\Design01.cydsn/vm.c **** {
 249              		.loc 1 129 0
 250              		.cfi_startproc
 251              		@ args = 0, pretend = 0, frame = 0
 252              		@ frame_needed = 0, uses_anonymous_args = 0
 253              		@ link register save eliminated.
 254              	.LVL27:
 255 0000 10B4     		push	{r4}
 256              		.cfi_def_cfa_offset 4
 257              		.cfi_offset 4, -4
 130:..\..\mruby_c2\Design01.cydsn/vm.c ****   vm->callinfo_top--;
 258              		.loc 1 130 0
 259 0002 B0F85C36 		ldrh	r3, [r0, #1628]
 260 0006 013B     		subs	r3, r3, #1
 261 0008 9BB2     		uxth	r3, r3
 262 000a A0F85C36 		strh	r3, [r0, #1628]	@ movhi
 131:..\..\mruby_c2\Design01.cydsn/vm.c ****   mrb_callinfo *callinfo = vm->callinfo + vm->callinfo_top;
 263              		.loc 1 131 0
 264 000e 00F5CC61 		add	r1, r0, #1632
 265 0012 03EB8303 		add	r3, r3, r3, lsl #2
 266 0016 9A00     		lsls	r2, r3, #2
 267 0018 8B18     		adds	r3, r1, r2
 268              	.LVL28:
 132:..\..\mruby_c2\Design01.cydsn/vm.c ****   vm->current_regs = callinfo->current_regs;
 269              		.loc 1 132 0
 270 001a 9C68     		ldr	r4, [r3, #8]
 271 001c C0F85846 		str	r4, [r0, #1624]
 133:..\..\mruby_c2\Design01.cydsn/vm.c ****   vm->pc_irep = callinfo->pc_irep;
 272              		.loc 1 133 0
 273 0020 8A58     		ldr	r2, [r1, r2]
 274 0022 C260     		str	r2, [r0, #12]
 134:..\..\mruby_c2\Design01.cydsn/vm.c ****   vm->pc = callinfo->pc;
 275              		.loc 1 134 0
 276 0024 9A88     		ldrh	r2, [r3, #4]
 277 0026 0282     		strh	r2, [r0, #16]	@ movhi
 135:..\..\mruby_c2\Design01.cydsn/vm.c ****   vm->target_class = callinfo->target_class;
 278              		.loc 1 135 0
ARM GAS  C:\Users\164\AppData\Local\Temp\cc4PZf78.s 			page 11


 279 0028 DB68     		ldr	r3, [r3, #12]
 280              	.LVL29:
 281 002a C0F8303E 		str	r3, [r0, #3632]
 136:..\..\mruby_c2\Design01.cydsn/vm.c **** }
 282              		.loc 1 136 0
 283 002e 10BC     		pop	{r4}
 284              		.cfi_restore 4
 285              		.cfi_def_cfa_offset 0
 286 0030 7047     		bx	lr
 287              		.cfi_endproc
 288              	.LFE95:
 289              		.size	mrbc_pop_callinfo, .-mrbc_pop_callinfo
 290 0032 00BF     		.section	.text.mrbc_vm_open,"ax",%progbits
 291              		.align	2
 292              		.global	mrbc_vm_open
 293              		.thumb
 294              		.thumb_func
 295              		.type	mrbc_vm_open, %function
 296              	mrbc_vm_open:
 297              	.LFB142:
 137:..\..\mruby_c2\Design01.cydsn/vm.c **** 
 138:..\..\mruby_c2\Design01.cydsn/vm.c **** 
 139:..\..\mruby_c2\Design01.cydsn/vm.c **** 
 140:..\..\mruby_c2\Design01.cydsn/vm.c **** //================================================================
 141:..\..\mruby_c2\Design01.cydsn/vm.c **** /*!@brief
 142:..\..\mruby_c2\Design01.cydsn/vm.c ****   Execute OP_NOP
 143:..\..\mruby_c2\Design01.cydsn/vm.c **** 
 144:..\..\mruby_c2\Design01.cydsn/vm.c ****   No operation
 145:..\..\mruby_c2\Design01.cydsn/vm.c **** 
 146:..\..\mruby_c2\Design01.cydsn/vm.c ****   @param  vm    A pointer of VM.
 147:..\..\mruby_c2\Design01.cydsn/vm.c ****   @param  code  bytecode
 148:..\..\mruby_c2\Design01.cydsn/vm.c ****   @param  regs  vm->regs + vm->reg_top
 149:..\..\mruby_c2\Design01.cydsn/vm.c ****   @retval 0  No error.
 150:..\..\mruby_c2\Design01.cydsn/vm.c **** */
 151:..\..\mruby_c2\Design01.cydsn/vm.c **** inline static int op_nop( mrb_vm *vm, uint32_t code, mrb_value *regs )
 152:..\..\mruby_c2\Design01.cydsn/vm.c **** {
 153:..\..\mruby_c2\Design01.cydsn/vm.c ****   return 0;
 154:..\..\mruby_c2\Design01.cydsn/vm.c **** }
 155:..\..\mruby_c2\Design01.cydsn/vm.c **** 
 156:..\..\mruby_c2\Design01.cydsn/vm.c **** 
 157:..\..\mruby_c2\Design01.cydsn/vm.c **** //================================================================
 158:..\..\mruby_c2\Design01.cydsn/vm.c **** /*!@brief
 159:..\..\mruby_c2\Design01.cydsn/vm.c ****   Execute OP_MOVE
 160:..\..\mruby_c2\Design01.cydsn/vm.c **** 
 161:..\..\mruby_c2\Design01.cydsn/vm.c ****   R(A) := R(B)
 162:..\..\mruby_c2\Design01.cydsn/vm.c **** 
 163:..\..\mruby_c2\Design01.cydsn/vm.c ****   @param  vm    A pointer of VM.
 164:..\..\mruby_c2\Design01.cydsn/vm.c ****   @param  code  bytecode
 165:..\..\mruby_c2\Design01.cydsn/vm.c ****   @param  regs  vm->regs + vm->reg_top
 166:..\..\mruby_c2\Design01.cydsn/vm.c ****   @retval 0  No error.
 167:..\..\mruby_c2\Design01.cydsn/vm.c **** */
 168:..\..\mruby_c2\Design01.cydsn/vm.c **** inline static int op_move( mrb_vm *vm, uint32_t code, mrb_value *regs )
 169:..\..\mruby_c2\Design01.cydsn/vm.c **** {
 170:..\..\mruby_c2\Design01.cydsn/vm.c ****   int ra = GETARG_A(code);
 171:..\..\mruby_c2\Design01.cydsn/vm.c ****   int rb = GETARG_B(code);
 172:..\..\mruby_c2\Design01.cydsn/vm.c **** 
 173:..\..\mruby_c2\Design01.cydsn/vm.c ****   mrbc_release(&regs[ra]);
ARM GAS  C:\Users\164\AppData\Local\Temp\cc4PZf78.s 			page 12


 174:..\..\mruby_c2\Design01.cydsn/vm.c ****   mrbc_dup(&regs[rb]);
 175:..\..\mruby_c2\Design01.cydsn/vm.c ****   regs[ra] = regs[rb];
 176:..\..\mruby_c2\Design01.cydsn/vm.c **** 
 177:..\..\mruby_c2\Design01.cydsn/vm.c ****   return 0;
 178:..\..\mruby_c2\Design01.cydsn/vm.c **** }
 179:..\..\mruby_c2\Design01.cydsn/vm.c **** 
 180:..\..\mruby_c2\Design01.cydsn/vm.c **** 
 181:..\..\mruby_c2\Design01.cydsn/vm.c **** //================================================================
 182:..\..\mruby_c2\Design01.cydsn/vm.c **** /*!@brief
 183:..\..\mruby_c2\Design01.cydsn/vm.c ****   Execute OP_LOADL
 184:..\..\mruby_c2\Design01.cydsn/vm.c **** 
 185:..\..\mruby_c2\Design01.cydsn/vm.c ****   R(A) := Pool(Bx)
 186:..\..\mruby_c2\Design01.cydsn/vm.c **** 
 187:..\..\mruby_c2\Design01.cydsn/vm.c ****   @param  vm    A pointer of VM.
 188:..\..\mruby_c2\Design01.cydsn/vm.c ****   @param  code  bytecode
 189:..\..\mruby_c2\Design01.cydsn/vm.c ****   @param  regs  vm->regs + vm->reg_top
 190:..\..\mruby_c2\Design01.cydsn/vm.c ****   @retval 0  No error.
 191:..\..\mruby_c2\Design01.cydsn/vm.c **** */
 192:..\..\mruby_c2\Design01.cydsn/vm.c **** inline static int op_loadl( mrb_vm *vm, uint32_t code, mrb_value *regs )
 193:..\..\mruby_c2\Design01.cydsn/vm.c **** {
 194:..\..\mruby_c2\Design01.cydsn/vm.c ****   int ra = GETARG_A(code);
 195:..\..\mruby_c2\Design01.cydsn/vm.c ****   int rb = GETARG_Bx(code);
 196:..\..\mruby_c2\Design01.cydsn/vm.c **** 
 197:..\..\mruby_c2\Design01.cydsn/vm.c ****   mrbc_release(&regs[ra]);
 198:..\..\mruby_c2\Design01.cydsn/vm.c **** 
 199:..\..\mruby_c2\Design01.cydsn/vm.c ****   // regs[ra] = vm->pc_irep->pools[rb];
 200:..\..\mruby_c2\Design01.cydsn/vm.c **** 
 201:..\..\mruby_c2\Design01.cydsn/vm.c ****   mrb_object *pool_obj = vm->pc_irep->pools[rb];
 202:..\..\mruby_c2\Design01.cydsn/vm.c ****   regs[ra] = *pool_obj;
 203:..\..\mruby_c2\Design01.cydsn/vm.c **** 
 204:..\..\mruby_c2\Design01.cydsn/vm.c ****   return 0;
 205:..\..\mruby_c2\Design01.cydsn/vm.c **** }
 206:..\..\mruby_c2\Design01.cydsn/vm.c **** 
 207:..\..\mruby_c2\Design01.cydsn/vm.c **** 
 208:..\..\mruby_c2\Design01.cydsn/vm.c **** //================================================================
 209:..\..\mruby_c2\Design01.cydsn/vm.c **** /*!@brief
 210:..\..\mruby_c2\Design01.cydsn/vm.c ****   Execute OP_LOADI
 211:..\..\mruby_c2\Design01.cydsn/vm.c **** 
 212:..\..\mruby_c2\Design01.cydsn/vm.c ****   R(A) := sBx
 213:..\..\mruby_c2\Design01.cydsn/vm.c **** 
 214:..\..\mruby_c2\Design01.cydsn/vm.c ****   @param  vm    A pointer of VM.
 215:..\..\mruby_c2\Design01.cydsn/vm.c ****   @param  code  bytecode
 216:..\..\mruby_c2\Design01.cydsn/vm.c ****   @param  regs  vm->regs + vm->reg_top
 217:..\..\mruby_c2\Design01.cydsn/vm.c ****   @retval 0  No error.
 218:..\..\mruby_c2\Design01.cydsn/vm.c **** */
 219:..\..\mruby_c2\Design01.cydsn/vm.c **** inline static int op_loadi( mrb_vm *vm, uint32_t code, mrb_value *regs )
 220:..\..\mruby_c2\Design01.cydsn/vm.c **** {
 221:..\..\mruby_c2\Design01.cydsn/vm.c ****   int ra = GETARG_A(code);
 222:..\..\mruby_c2\Design01.cydsn/vm.c **** 
 223:..\..\mruby_c2\Design01.cydsn/vm.c ****   mrbc_release(&regs[ra]);
 224:..\..\mruby_c2\Design01.cydsn/vm.c ****   regs[ra].tt = MRB_TT_FIXNUM;
 225:..\..\mruby_c2\Design01.cydsn/vm.c ****   regs[ra].i = GETARG_sBx(code);
 226:..\..\mruby_c2\Design01.cydsn/vm.c **** 
 227:..\..\mruby_c2\Design01.cydsn/vm.c ****   return 0;
 228:..\..\mruby_c2\Design01.cydsn/vm.c **** }
 229:..\..\mruby_c2\Design01.cydsn/vm.c **** 
 230:..\..\mruby_c2\Design01.cydsn/vm.c **** 
ARM GAS  C:\Users\164\AppData\Local\Temp\cc4PZf78.s 			page 13


 231:..\..\mruby_c2\Design01.cydsn/vm.c **** //================================================================
 232:..\..\mruby_c2\Design01.cydsn/vm.c **** /*!@brief
 233:..\..\mruby_c2\Design01.cydsn/vm.c ****   Execute OP_LOADSYM
 234:..\..\mruby_c2\Design01.cydsn/vm.c **** 
 235:..\..\mruby_c2\Design01.cydsn/vm.c ****   R(A) := Syms(Bx)
 236:..\..\mruby_c2\Design01.cydsn/vm.c **** 
 237:..\..\mruby_c2\Design01.cydsn/vm.c ****   @param  vm    A pointer of VM.
 238:..\..\mruby_c2\Design01.cydsn/vm.c ****   @param  code  bytecode
 239:..\..\mruby_c2\Design01.cydsn/vm.c ****   @param  regs  vm->regs + vm->reg_top
 240:..\..\mruby_c2\Design01.cydsn/vm.c ****   @retval 0  No error.
 241:..\..\mruby_c2\Design01.cydsn/vm.c **** */
 242:..\..\mruby_c2\Design01.cydsn/vm.c **** inline static int op_loadsym( mrb_vm *vm, uint32_t code, mrb_value *regs )
 243:..\..\mruby_c2\Design01.cydsn/vm.c **** {
 244:..\..\mruby_c2\Design01.cydsn/vm.c ****   int ra = GETARG_A(code);
 245:..\..\mruby_c2\Design01.cydsn/vm.c ****   int rb = GETARG_Bx(code);
 246:..\..\mruby_c2\Design01.cydsn/vm.c ****   const char *sym_name = mrbc_get_irep_symbol(vm->pc_irep->ptr_to_sym, rb);
 247:..\..\mruby_c2\Design01.cydsn/vm.c ****   mrb_sym sym_id = str_to_symid(sym_name);
 248:..\..\mruby_c2\Design01.cydsn/vm.c **** 
 249:..\..\mruby_c2\Design01.cydsn/vm.c ****   mrbc_release(&regs[ra]);
 250:..\..\mruby_c2\Design01.cydsn/vm.c ****   regs[ra].tt = MRB_TT_SYMBOL;
 251:..\..\mruby_c2\Design01.cydsn/vm.c ****   regs[ra].i = sym_id;
 252:..\..\mruby_c2\Design01.cydsn/vm.c **** 
 253:..\..\mruby_c2\Design01.cydsn/vm.c ****   return 0;
 254:..\..\mruby_c2\Design01.cydsn/vm.c **** }
 255:..\..\mruby_c2\Design01.cydsn/vm.c **** 
 256:..\..\mruby_c2\Design01.cydsn/vm.c **** 
 257:..\..\mruby_c2\Design01.cydsn/vm.c **** //================================================================
 258:..\..\mruby_c2\Design01.cydsn/vm.c **** /*!@brief
 259:..\..\mruby_c2\Design01.cydsn/vm.c ****   Execute OP_LOADNIL
 260:..\..\mruby_c2\Design01.cydsn/vm.c **** 
 261:..\..\mruby_c2\Design01.cydsn/vm.c ****   R(A) := nil
 262:..\..\mruby_c2\Design01.cydsn/vm.c **** 
 263:..\..\mruby_c2\Design01.cydsn/vm.c ****   @param  vm    A pointer of VM.
 264:..\..\mruby_c2\Design01.cydsn/vm.c ****   @param  code  bytecode
 265:..\..\mruby_c2\Design01.cydsn/vm.c ****   @param  regs  vm->regs + vm->reg_top
 266:..\..\mruby_c2\Design01.cydsn/vm.c ****   @retval 0  No error.
 267:..\..\mruby_c2\Design01.cydsn/vm.c **** */
 268:..\..\mruby_c2\Design01.cydsn/vm.c **** inline static int op_loadnil( mrb_vm *vm, uint32_t code, mrb_value *regs )
 269:..\..\mruby_c2\Design01.cydsn/vm.c **** {
 270:..\..\mruby_c2\Design01.cydsn/vm.c ****   int ra = GETARG_A(code);
 271:..\..\mruby_c2\Design01.cydsn/vm.c **** 
 272:..\..\mruby_c2\Design01.cydsn/vm.c ****   mrbc_release(&regs[ra]);
 273:..\..\mruby_c2\Design01.cydsn/vm.c ****   regs[ra].tt = MRB_TT_NIL;
 274:..\..\mruby_c2\Design01.cydsn/vm.c **** 
 275:..\..\mruby_c2\Design01.cydsn/vm.c ****   return 0;
 276:..\..\mruby_c2\Design01.cydsn/vm.c **** }
 277:..\..\mruby_c2\Design01.cydsn/vm.c **** 
 278:..\..\mruby_c2\Design01.cydsn/vm.c **** 
 279:..\..\mruby_c2\Design01.cydsn/vm.c **** //================================================================
 280:..\..\mruby_c2\Design01.cydsn/vm.c **** /*!@brief
 281:..\..\mruby_c2\Design01.cydsn/vm.c ****   Execute OP_LOADSELF
 282:..\..\mruby_c2\Design01.cydsn/vm.c **** 
 283:..\..\mruby_c2\Design01.cydsn/vm.c ****   R(A) := self
 284:..\..\mruby_c2\Design01.cydsn/vm.c **** 
 285:..\..\mruby_c2\Design01.cydsn/vm.c ****   @param  vm    A pointer of VM.
 286:..\..\mruby_c2\Design01.cydsn/vm.c ****   @param  code  bytecode
 287:..\..\mruby_c2\Design01.cydsn/vm.c ****   @param  regs  vm->regs + vm->reg_top
ARM GAS  C:\Users\164\AppData\Local\Temp\cc4PZf78.s 			page 14


 288:..\..\mruby_c2\Design01.cydsn/vm.c ****   @retval 0  No error.
 289:..\..\mruby_c2\Design01.cydsn/vm.c **** */
 290:..\..\mruby_c2\Design01.cydsn/vm.c **** inline static int op_loadself( mrb_vm *vm, uint32_t code, mrb_value *regs )
 291:..\..\mruby_c2\Design01.cydsn/vm.c **** {
 292:..\..\mruby_c2\Design01.cydsn/vm.c ****   int ra = GETARG_A(code);
 293:..\..\mruby_c2\Design01.cydsn/vm.c **** 
 294:..\..\mruby_c2\Design01.cydsn/vm.c ****   mrbc_release(&regs[ra]);
 295:..\..\mruby_c2\Design01.cydsn/vm.c ****   mrbc_dup(&regs[0]);       // TODO: Need?
 296:..\..\mruby_c2\Design01.cydsn/vm.c ****   regs[ra] = regs[0];
 297:..\..\mruby_c2\Design01.cydsn/vm.c **** 
 298:..\..\mruby_c2\Design01.cydsn/vm.c ****   return 0;
 299:..\..\mruby_c2\Design01.cydsn/vm.c **** }
 300:..\..\mruby_c2\Design01.cydsn/vm.c **** 
 301:..\..\mruby_c2\Design01.cydsn/vm.c **** 
 302:..\..\mruby_c2\Design01.cydsn/vm.c **** //================================================================
 303:..\..\mruby_c2\Design01.cydsn/vm.c **** /*!@brief
 304:..\..\mruby_c2\Design01.cydsn/vm.c ****   Execute OP_LOADT
 305:..\..\mruby_c2\Design01.cydsn/vm.c **** 
 306:..\..\mruby_c2\Design01.cydsn/vm.c ****   R(A) := true
 307:..\..\mruby_c2\Design01.cydsn/vm.c **** 
 308:..\..\mruby_c2\Design01.cydsn/vm.c ****   @param  vm    A pointer of VM.
 309:..\..\mruby_c2\Design01.cydsn/vm.c ****   @param  code  bytecode
 310:..\..\mruby_c2\Design01.cydsn/vm.c ****   @param  regs  vm->regs + vm->reg_top
 311:..\..\mruby_c2\Design01.cydsn/vm.c ****   @retval 0  No error.
 312:..\..\mruby_c2\Design01.cydsn/vm.c **** */
 313:..\..\mruby_c2\Design01.cydsn/vm.c **** inline static int op_loadt( mrb_vm *vm, uint32_t code, mrb_value *regs )
 314:..\..\mruby_c2\Design01.cydsn/vm.c **** {
 315:..\..\mruby_c2\Design01.cydsn/vm.c ****   int ra = GETARG_A(code);
 316:..\..\mruby_c2\Design01.cydsn/vm.c **** 
 317:..\..\mruby_c2\Design01.cydsn/vm.c ****   mrbc_release(&regs[ra]);
 318:..\..\mruby_c2\Design01.cydsn/vm.c ****   regs[ra].tt = MRB_TT_TRUE;
 319:..\..\mruby_c2\Design01.cydsn/vm.c **** 
 320:..\..\mruby_c2\Design01.cydsn/vm.c ****   return 0;
 321:..\..\mruby_c2\Design01.cydsn/vm.c **** }
 322:..\..\mruby_c2\Design01.cydsn/vm.c **** 
 323:..\..\mruby_c2\Design01.cydsn/vm.c **** 
 324:..\..\mruby_c2\Design01.cydsn/vm.c **** //================================================================
 325:..\..\mruby_c2\Design01.cydsn/vm.c **** /*!@brief
 326:..\..\mruby_c2\Design01.cydsn/vm.c ****   Execute OP_LOADF
 327:..\..\mruby_c2\Design01.cydsn/vm.c **** 
 328:..\..\mruby_c2\Design01.cydsn/vm.c ****   R(A) := false
 329:..\..\mruby_c2\Design01.cydsn/vm.c **** 
 330:..\..\mruby_c2\Design01.cydsn/vm.c ****   @param  vm    A pointer of VM.
 331:..\..\mruby_c2\Design01.cydsn/vm.c ****   @param  code  bytecode
 332:..\..\mruby_c2\Design01.cydsn/vm.c ****   @param  regs  vm->regs + vm->reg_top
 333:..\..\mruby_c2\Design01.cydsn/vm.c ****   @retval 0  No error.
 334:..\..\mruby_c2\Design01.cydsn/vm.c **** */
 335:..\..\mruby_c2\Design01.cydsn/vm.c **** inline static int op_loadf( mrb_vm *vm, uint32_t code, mrb_value *regs )
 336:..\..\mruby_c2\Design01.cydsn/vm.c **** {
 337:..\..\mruby_c2\Design01.cydsn/vm.c ****   int ra = GETARG_A(code);
 338:..\..\mruby_c2\Design01.cydsn/vm.c **** 
 339:..\..\mruby_c2\Design01.cydsn/vm.c ****   mrbc_release(&regs[ra]);
 340:..\..\mruby_c2\Design01.cydsn/vm.c ****   regs[ra].tt = MRB_TT_FALSE;
 341:..\..\mruby_c2\Design01.cydsn/vm.c **** 
 342:..\..\mruby_c2\Design01.cydsn/vm.c ****   return 0;
 343:..\..\mruby_c2\Design01.cydsn/vm.c **** }
 344:..\..\mruby_c2\Design01.cydsn/vm.c **** 
ARM GAS  C:\Users\164\AppData\Local\Temp\cc4PZf78.s 			page 15


 345:..\..\mruby_c2\Design01.cydsn/vm.c **** 
 346:..\..\mruby_c2\Design01.cydsn/vm.c **** //================================================================
 347:..\..\mruby_c2\Design01.cydsn/vm.c **** /*!@brief
 348:..\..\mruby_c2\Design01.cydsn/vm.c ****   Execute OP_GETGLOBAL
 349:..\..\mruby_c2\Design01.cydsn/vm.c **** 
 350:..\..\mruby_c2\Design01.cydsn/vm.c ****   R(A) := getglobal(Syms(Bx))
 351:..\..\mruby_c2\Design01.cydsn/vm.c **** 
 352:..\..\mruby_c2\Design01.cydsn/vm.c ****   @param  vm    A pointer of VM.
 353:..\..\mruby_c2\Design01.cydsn/vm.c ****   @param  code  bytecode
 354:..\..\mruby_c2\Design01.cydsn/vm.c ****   @param  regs  vm->regs + vm->reg_top
 355:..\..\mruby_c2\Design01.cydsn/vm.c ****   @retval 0  No error.
 356:..\..\mruby_c2\Design01.cydsn/vm.c **** */
 357:..\..\mruby_c2\Design01.cydsn/vm.c **** inline static int op_getglobal( mrb_vm *vm, uint32_t code, mrb_value *regs )
 358:..\..\mruby_c2\Design01.cydsn/vm.c **** {
 359:..\..\mruby_c2\Design01.cydsn/vm.c ****   int ra = GETARG_A(code);
 360:..\..\mruby_c2\Design01.cydsn/vm.c ****   int rb = GETARG_Bx(code);
 361:..\..\mruby_c2\Design01.cydsn/vm.c ****   const char *sym_name = mrbc_get_irep_symbol(vm->pc_irep->ptr_to_sym, rb);
 362:..\..\mruby_c2\Design01.cydsn/vm.c ****   mrb_sym sym_id = str_to_symid(sym_name);
 363:..\..\mruby_c2\Design01.cydsn/vm.c **** 
 364:..\..\mruby_c2\Design01.cydsn/vm.c ****   mrbc_release(&regs[ra]);
 365:..\..\mruby_c2\Design01.cydsn/vm.c ****   regs[ra] = global_object_get(sym_id);
 366:..\..\mruby_c2\Design01.cydsn/vm.c **** 
 367:..\..\mruby_c2\Design01.cydsn/vm.c ****   return 0;
 368:..\..\mruby_c2\Design01.cydsn/vm.c **** }
 369:..\..\mruby_c2\Design01.cydsn/vm.c **** 
 370:..\..\mruby_c2\Design01.cydsn/vm.c **** 
 371:..\..\mruby_c2\Design01.cydsn/vm.c **** //================================================================
 372:..\..\mruby_c2\Design01.cydsn/vm.c **** /*!@brief
 373:..\..\mruby_c2\Design01.cydsn/vm.c ****   Execute OP_SETGLOBAL
 374:..\..\mruby_c2\Design01.cydsn/vm.c **** 
 375:..\..\mruby_c2\Design01.cydsn/vm.c ****   setglobal(Syms(Bx), R(A))
 376:..\..\mruby_c2\Design01.cydsn/vm.c **** 
 377:..\..\mruby_c2\Design01.cydsn/vm.c ****   @param  vm    A pointer of VM.
 378:..\..\mruby_c2\Design01.cydsn/vm.c ****   @param  code  bytecode
 379:..\..\mruby_c2\Design01.cydsn/vm.c ****   @param  regs  vm->regs + vm->reg_top
 380:..\..\mruby_c2\Design01.cydsn/vm.c ****   @retval 0  No error.
 381:..\..\mruby_c2\Design01.cydsn/vm.c **** */
 382:..\..\mruby_c2\Design01.cydsn/vm.c **** inline static int op_setglobal( mrb_vm *vm, uint32_t code, mrb_value *regs )
 383:..\..\mruby_c2\Design01.cydsn/vm.c **** {
 384:..\..\mruby_c2\Design01.cydsn/vm.c ****   int ra = GETARG_A(code);
 385:..\..\mruby_c2\Design01.cydsn/vm.c ****   int rb = GETARG_Bx(code);
 386:..\..\mruby_c2\Design01.cydsn/vm.c ****   const char *sym_name = mrbc_get_irep_symbol(vm->pc_irep->ptr_to_sym, rb);
 387:..\..\mruby_c2\Design01.cydsn/vm.c ****   mrb_sym sym_id = str_to_symid(sym_name);
 388:..\..\mruby_c2\Design01.cydsn/vm.c ****   global_object_add(sym_id, regs[ra]);
 389:..\..\mruby_c2\Design01.cydsn/vm.c **** 
 390:..\..\mruby_c2\Design01.cydsn/vm.c ****   return 0;
 391:..\..\mruby_c2\Design01.cydsn/vm.c **** }
 392:..\..\mruby_c2\Design01.cydsn/vm.c **** 
 393:..\..\mruby_c2\Design01.cydsn/vm.c **** 
 394:..\..\mruby_c2\Design01.cydsn/vm.c **** //================================================================
 395:..\..\mruby_c2\Design01.cydsn/vm.c **** /*!@brief
 396:..\..\mruby_c2\Design01.cydsn/vm.c ****   Execute OP_GETIV
 397:..\..\mruby_c2\Design01.cydsn/vm.c **** 
 398:..\..\mruby_c2\Design01.cydsn/vm.c ****   R(A) := ivget(Syms(Bx))
 399:..\..\mruby_c2\Design01.cydsn/vm.c **** 
 400:..\..\mruby_c2\Design01.cydsn/vm.c ****   @param  vm    A pointer of VM.
 401:..\..\mruby_c2\Design01.cydsn/vm.c ****   @param  code  bytecode
ARM GAS  C:\Users\164\AppData\Local\Temp\cc4PZf78.s 			page 16


 402:..\..\mruby_c2\Design01.cydsn/vm.c ****   @param  regs  vm->regs + vm->reg_top
 403:..\..\mruby_c2\Design01.cydsn/vm.c ****   @retval 0  No error.
 404:..\..\mruby_c2\Design01.cydsn/vm.c **** */
 405:..\..\mruby_c2\Design01.cydsn/vm.c **** inline static int op_getiv( mrb_vm *vm, uint32_t code, mrb_value *regs )
 406:..\..\mruby_c2\Design01.cydsn/vm.c **** {
 407:..\..\mruby_c2\Design01.cydsn/vm.c ****   int ra = GETARG_A(code);
 408:..\..\mruby_c2\Design01.cydsn/vm.c ****   int rb = GETARG_Bx(code);
 409:..\..\mruby_c2\Design01.cydsn/vm.c **** 
 410:..\..\mruby_c2\Design01.cydsn/vm.c ****   const char *sym_name = mrbc_get_irep_symbol(vm->pc_irep->ptr_to_sym, rb);
 411:..\..\mruby_c2\Design01.cydsn/vm.c ****   mrb_sym sym_id = str_to_symid(sym_name+1);	// skip '@'
 412:..\..\mruby_c2\Design01.cydsn/vm.c **** 
 413:..\..\mruby_c2\Design01.cydsn/vm.c ****   mrb_value val = mrbc_instance_getiv(&regs[0], sym_id);
 414:..\..\mruby_c2\Design01.cydsn/vm.c **** 
 415:..\..\mruby_c2\Design01.cydsn/vm.c ****   mrbc_release(&regs[ra]);
 416:..\..\mruby_c2\Design01.cydsn/vm.c ****   regs[ra] = val;
 417:..\..\mruby_c2\Design01.cydsn/vm.c **** 
 418:..\..\mruby_c2\Design01.cydsn/vm.c ****   return 0;
 419:..\..\mruby_c2\Design01.cydsn/vm.c **** }
 420:..\..\mruby_c2\Design01.cydsn/vm.c **** 
 421:..\..\mruby_c2\Design01.cydsn/vm.c **** 
 422:..\..\mruby_c2\Design01.cydsn/vm.c **** //================================================================
 423:..\..\mruby_c2\Design01.cydsn/vm.c **** /*!@brief
 424:..\..\mruby_c2\Design01.cydsn/vm.c ****   Execute OP_SETIV
 425:..\..\mruby_c2\Design01.cydsn/vm.c **** 
 426:..\..\mruby_c2\Design01.cydsn/vm.c ****   ivset(Syms(Bx),R(A))
 427:..\..\mruby_c2\Design01.cydsn/vm.c **** 
 428:..\..\mruby_c2\Design01.cydsn/vm.c ****   @param  vm    A pointer of VM.
 429:..\..\mruby_c2\Design01.cydsn/vm.c ****   @param  code  bytecode
 430:..\..\mruby_c2\Design01.cydsn/vm.c ****   @param  regs  vm->regs + vm->reg_top
 431:..\..\mruby_c2\Design01.cydsn/vm.c ****   @retval 0  No error.
 432:..\..\mruby_c2\Design01.cydsn/vm.c **** */
 433:..\..\mruby_c2\Design01.cydsn/vm.c **** inline static int op_setiv( mrb_vm *vm, uint32_t code, mrb_value *regs )
 434:..\..\mruby_c2\Design01.cydsn/vm.c **** {
 435:..\..\mruby_c2\Design01.cydsn/vm.c ****   int ra = GETARG_A(code);
 436:..\..\mruby_c2\Design01.cydsn/vm.c ****   int rb = GETARG_Bx(code);
 437:..\..\mruby_c2\Design01.cydsn/vm.c **** 
 438:..\..\mruby_c2\Design01.cydsn/vm.c ****   const char *sym_name = mrbc_get_irep_symbol(vm->pc_irep->ptr_to_sym, rb);
 439:..\..\mruby_c2\Design01.cydsn/vm.c ****   mrb_sym sym_id = str_to_symid(sym_name+1);	// skip '@'
 440:..\..\mruby_c2\Design01.cydsn/vm.c **** 
 441:..\..\mruby_c2\Design01.cydsn/vm.c ****   mrbc_instance_setiv(&regs[0], sym_id, &regs[ra]);
 442:..\..\mruby_c2\Design01.cydsn/vm.c **** 
 443:..\..\mruby_c2\Design01.cydsn/vm.c ****   return 0;
 444:..\..\mruby_c2\Design01.cydsn/vm.c **** }
 445:..\..\mruby_c2\Design01.cydsn/vm.c **** 
 446:..\..\mruby_c2\Design01.cydsn/vm.c **** 
 447:..\..\mruby_c2\Design01.cydsn/vm.c **** //================================================================
 448:..\..\mruby_c2\Design01.cydsn/vm.c **** /*!@brief
 449:..\..\mruby_c2\Design01.cydsn/vm.c ****   Execute OP_GETCONST
 450:..\..\mruby_c2\Design01.cydsn/vm.c **** 
 451:..\..\mruby_c2\Design01.cydsn/vm.c ****   R(A) := constget(Syms(Bx))
 452:..\..\mruby_c2\Design01.cydsn/vm.c **** 
 453:..\..\mruby_c2\Design01.cydsn/vm.c ****   @param  vm    A pointer of VM.
 454:..\..\mruby_c2\Design01.cydsn/vm.c ****   @param  code  bytecode
 455:..\..\mruby_c2\Design01.cydsn/vm.c ****   @param  regs  vm->regs + vm->reg_top
 456:..\..\mruby_c2\Design01.cydsn/vm.c ****   @retval 0  No error.
 457:..\..\mruby_c2\Design01.cydsn/vm.c **** */
 458:..\..\mruby_c2\Design01.cydsn/vm.c **** inline static int op_getconst( mrb_vm *vm, uint32_t code, mrb_value *regs )
ARM GAS  C:\Users\164\AppData\Local\Temp\cc4PZf78.s 			page 17


 459:..\..\mruby_c2\Design01.cydsn/vm.c **** {
 460:..\..\mruby_c2\Design01.cydsn/vm.c ****   int ra = GETARG_A(code);
 461:..\..\mruby_c2\Design01.cydsn/vm.c ****   int rb = GETARG_Bx(code);
 462:..\..\mruby_c2\Design01.cydsn/vm.c ****   const char *sym_name = mrbc_get_irep_symbol(vm->pc_irep->ptr_to_sym, rb);
 463:..\..\mruby_c2\Design01.cydsn/vm.c ****   mrb_sym sym_id = str_to_symid(sym_name);
 464:..\..\mruby_c2\Design01.cydsn/vm.c **** 
 465:..\..\mruby_c2\Design01.cydsn/vm.c ****   mrbc_release(&regs[ra]);
 466:..\..\mruby_c2\Design01.cydsn/vm.c ****   regs[ra] = const_object_get(sym_id);
 467:..\..\mruby_c2\Design01.cydsn/vm.c **** 
 468:..\..\mruby_c2\Design01.cydsn/vm.c ****   return 0;
 469:..\..\mruby_c2\Design01.cydsn/vm.c **** }
 470:..\..\mruby_c2\Design01.cydsn/vm.c **** 
 471:..\..\mruby_c2\Design01.cydsn/vm.c **** 
 472:..\..\mruby_c2\Design01.cydsn/vm.c **** //================================================================
 473:..\..\mruby_c2\Design01.cydsn/vm.c **** /*!@brief
 474:..\..\mruby_c2\Design01.cydsn/vm.c ****   Execute OP_SETCONST
 475:..\..\mruby_c2\Design01.cydsn/vm.c **** 
 476:..\..\mruby_c2\Design01.cydsn/vm.c ****   constset(Syms(Bx),R(A))
 477:..\..\mruby_c2\Design01.cydsn/vm.c **** 
 478:..\..\mruby_c2\Design01.cydsn/vm.c ****   @param  vm    A pointer of VM.
 479:..\..\mruby_c2\Design01.cydsn/vm.c ****   @param  code  bytecode
 480:..\..\mruby_c2\Design01.cydsn/vm.c ****   @param  regs  vm->regs + vm->reg_top
 481:..\..\mruby_c2\Design01.cydsn/vm.c ****   @retval 0  No error.
 482:..\..\mruby_c2\Design01.cydsn/vm.c **** */
 483:..\..\mruby_c2\Design01.cydsn/vm.c **** 
 484:..\..\mruby_c2\Design01.cydsn/vm.c **** inline static int op_setconst( mrb_vm *vm, uint32_t code, mrb_value *regs ) {
 485:..\..\mruby_c2\Design01.cydsn/vm.c ****   int ra = GETARG_A(code);
 486:..\..\mruby_c2\Design01.cydsn/vm.c ****   int rb = GETARG_Bx(code);
 487:..\..\mruby_c2\Design01.cydsn/vm.c ****   const char *sym_name = mrbc_get_irep_symbol(vm->pc_irep->ptr_to_sym, rb);
 488:..\..\mruby_c2\Design01.cydsn/vm.c ****   mrb_sym sym_id = str_to_symid(sym_name);
 489:..\..\mruby_c2\Design01.cydsn/vm.c ****   const_object_add(sym_id, &regs[ra]);
 490:..\..\mruby_c2\Design01.cydsn/vm.c **** 
 491:..\..\mruby_c2\Design01.cydsn/vm.c ****   return 0;
 492:..\..\mruby_c2\Design01.cydsn/vm.c **** }
 493:..\..\mruby_c2\Design01.cydsn/vm.c **** 
 494:..\..\mruby_c2\Design01.cydsn/vm.c **** 
 495:..\..\mruby_c2\Design01.cydsn/vm.c **** 
 496:..\..\mruby_c2\Design01.cydsn/vm.c **** //================================================================
 497:..\..\mruby_c2\Design01.cydsn/vm.c **** /*!@brief
 498:..\..\mruby_c2\Design01.cydsn/vm.c ****   Execute OP_GETUPVAR
 499:..\..\mruby_c2\Design01.cydsn/vm.c **** 
 500:..\..\mruby_c2\Design01.cydsn/vm.c ****   R(A) := uvget(B,C)
 501:..\..\mruby_c2\Design01.cydsn/vm.c **** 
 502:..\..\mruby_c2\Design01.cydsn/vm.c ****   @param  vm    A pointer of VM.
 503:..\..\mruby_c2\Design01.cydsn/vm.c ****   @param  code  bytecode
 504:..\..\mruby_c2\Design01.cydsn/vm.c ****   @param  regs  vm->regs + vm->reg_top
 505:..\..\mruby_c2\Design01.cydsn/vm.c ****   @retval 0  No error.
 506:..\..\mruby_c2\Design01.cydsn/vm.c **** */
 507:..\..\mruby_c2\Design01.cydsn/vm.c **** inline static int op_getupvar( mrb_vm *vm, uint32_t code, mrb_value *regs )
 508:..\..\mruby_c2\Design01.cydsn/vm.c **** {
 509:..\..\mruby_c2\Design01.cydsn/vm.c ****   int ra = GETARG_A(code);
 510:..\..\mruby_c2\Design01.cydsn/vm.c ****   int rb = GETARG_B(code);
 511:..\..\mruby_c2\Design01.cydsn/vm.c ****   int rc = GETARG_C(code);   // UP
 512:..\..\mruby_c2\Design01.cydsn/vm.c ****   
 513:..\..\mruby_c2\Design01.cydsn/vm.c ****   mrb_callinfo *callinfo = vm->callinfo + vm->callinfo_top - 2 - rc;
 514:..\..\mruby_c2\Design01.cydsn/vm.c ****   mrb_value *up_regs = callinfo->current_regs;
 515:..\..\mruby_c2\Design01.cydsn/vm.c ****   
ARM GAS  C:\Users\164\AppData\Local\Temp\cc4PZf78.s 			page 18


 516:..\..\mruby_c2\Design01.cydsn/vm.c ****   mrbc_release( &regs[ra] );
 517:..\..\mruby_c2\Design01.cydsn/vm.c ****   mrbc_dup( &up_regs[rb] );
 518:..\..\mruby_c2\Design01.cydsn/vm.c ****   regs[ra] = up_regs[rb];
 519:..\..\mruby_c2\Design01.cydsn/vm.c ****   
 520:..\..\mruby_c2\Design01.cydsn/vm.c ****   return 0;
 521:..\..\mruby_c2\Design01.cydsn/vm.c **** }
 522:..\..\mruby_c2\Design01.cydsn/vm.c **** 
 523:..\..\mruby_c2\Design01.cydsn/vm.c **** 
 524:..\..\mruby_c2\Design01.cydsn/vm.c **** 
 525:..\..\mruby_c2\Design01.cydsn/vm.c **** //================================================================
 526:..\..\mruby_c2\Design01.cydsn/vm.c **** /*!@brief
 527:..\..\mruby_c2\Design01.cydsn/vm.c ****   Execute OP_SETUPVAR
 528:..\..\mruby_c2\Design01.cydsn/vm.c **** 
 529:..\..\mruby_c2\Design01.cydsn/vm.c ****   uvset(B,C,R(A))
 530:..\..\mruby_c2\Design01.cydsn/vm.c **** 
 531:..\..\mruby_c2\Design01.cydsn/vm.c ****   @param  vm    A pointer of VM.
 532:..\..\mruby_c2\Design01.cydsn/vm.c ****   @param  code  bytecode
 533:..\..\mruby_c2\Design01.cydsn/vm.c ****   @param  regs  vm->regs + vm->reg_top
 534:..\..\mruby_c2\Design01.cydsn/vm.c ****   @retval 0  No error.
 535:..\..\mruby_c2\Design01.cydsn/vm.c **** */
 536:..\..\mruby_c2\Design01.cydsn/vm.c **** inline static int op_setupvar( mrb_vm *vm, uint32_t code, mrb_value *regs )
 537:..\..\mruby_c2\Design01.cydsn/vm.c **** {
 538:..\..\mruby_c2\Design01.cydsn/vm.c ****   int ra = GETARG_A(code);
 539:..\..\mruby_c2\Design01.cydsn/vm.c ****   int rb = GETARG_B(code);
 540:..\..\mruby_c2\Design01.cydsn/vm.c ****   int rc = GETARG_C(code);   // UP
 541:..\..\mruby_c2\Design01.cydsn/vm.c ****   
 542:..\..\mruby_c2\Design01.cydsn/vm.c ****   mrb_callinfo *callinfo = vm->callinfo + vm->callinfo_top - 2 - rc;
 543:..\..\mruby_c2\Design01.cydsn/vm.c ****   mrb_value *up_regs = callinfo->current_regs;
 544:..\..\mruby_c2\Design01.cydsn/vm.c **** 
 545:..\..\mruby_c2\Design01.cydsn/vm.c ****   mrbc_release( &up_regs[rb] );
 546:..\..\mruby_c2\Design01.cydsn/vm.c ****   mrbc_dup( &regs[ra] );
 547:..\..\mruby_c2\Design01.cydsn/vm.c ****   up_regs[rb] = regs[ra];
 548:..\..\mruby_c2\Design01.cydsn/vm.c **** 
 549:..\..\mruby_c2\Design01.cydsn/vm.c ****   return 0;
 550:..\..\mruby_c2\Design01.cydsn/vm.c **** }
 551:..\..\mruby_c2\Design01.cydsn/vm.c **** 
 552:..\..\mruby_c2\Design01.cydsn/vm.c **** 
 553:..\..\mruby_c2\Design01.cydsn/vm.c **** 
 554:..\..\mruby_c2\Design01.cydsn/vm.c **** //================================================================
 555:..\..\mruby_c2\Design01.cydsn/vm.c **** /*!@brief
 556:..\..\mruby_c2\Design01.cydsn/vm.c ****   Execute OP_JMP
 557:..\..\mruby_c2\Design01.cydsn/vm.c **** 
 558:..\..\mruby_c2\Design01.cydsn/vm.c ****   pc += sBx
 559:..\..\mruby_c2\Design01.cydsn/vm.c **** 
 560:..\..\mruby_c2\Design01.cydsn/vm.c ****   @param  vm    A pointer of VM.
 561:..\..\mruby_c2\Design01.cydsn/vm.c ****   @param  code  bytecode
 562:..\..\mruby_c2\Design01.cydsn/vm.c ****   @param  regs  vm->regs + vm->reg_top
 563:..\..\mruby_c2\Design01.cydsn/vm.c ****   @retval 0  No error.
 564:..\..\mruby_c2\Design01.cydsn/vm.c **** */
 565:..\..\mruby_c2\Design01.cydsn/vm.c **** inline static int op_jmp( mrb_vm *vm, uint32_t code, mrb_value *regs )
 566:..\..\mruby_c2\Design01.cydsn/vm.c **** {
 567:..\..\mruby_c2\Design01.cydsn/vm.c ****   vm->pc += GETARG_sBx(code) - 1;
 568:..\..\mruby_c2\Design01.cydsn/vm.c ****   return 0;
 569:..\..\mruby_c2\Design01.cydsn/vm.c **** }
 570:..\..\mruby_c2\Design01.cydsn/vm.c **** 
 571:..\..\mruby_c2\Design01.cydsn/vm.c **** 
 572:..\..\mruby_c2\Design01.cydsn/vm.c **** //================================================================
ARM GAS  C:\Users\164\AppData\Local\Temp\cc4PZf78.s 			page 19


 573:..\..\mruby_c2\Design01.cydsn/vm.c **** /*!@brief
 574:..\..\mruby_c2\Design01.cydsn/vm.c ****   Execute OP_JMPIF
 575:..\..\mruby_c2\Design01.cydsn/vm.c **** 
 576:..\..\mruby_c2\Design01.cydsn/vm.c ****   if R(A) pc += sBx
 577:..\..\mruby_c2\Design01.cydsn/vm.c **** 
 578:..\..\mruby_c2\Design01.cydsn/vm.c ****   @param  vm    A pointer of VM.
 579:..\..\mruby_c2\Design01.cydsn/vm.c ****   @param  code  bytecode
 580:..\..\mruby_c2\Design01.cydsn/vm.c ****   @param  regs  vm->regs + vm->reg_top
 581:..\..\mruby_c2\Design01.cydsn/vm.c ****   @retval 0  No error.
 582:..\..\mruby_c2\Design01.cydsn/vm.c **** */
 583:..\..\mruby_c2\Design01.cydsn/vm.c **** inline static int op_jmpif( mrb_vm *vm, uint32_t code, mrb_value *regs )
 584:..\..\mruby_c2\Design01.cydsn/vm.c **** {
 585:..\..\mruby_c2\Design01.cydsn/vm.c ****   if( regs[GETARG_A(code)].tt > MRB_TT_FALSE ) {
 586:..\..\mruby_c2\Design01.cydsn/vm.c ****     vm->pc += GETARG_sBx(code) - 1;
 587:..\..\mruby_c2\Design01.cydsn/vm.c ****   }
 588:..\..\mruby_c2\Design01.cydsn/vm.c ****   return 0;
 589:..\..\mruby_c2\Design01.cydsn/vm.c **** }
 590:..\..\mruby_c2\Design01.cydsn/vm.c **** 
 591:..\..\mruby_c2\Design01.cydsn/vm.c **** 
 592:..\..\mruby_c2\Design01.cydsn/vm.c **** //================================================================
 593:..\..\mruby_c2\Design01.cydsn/vm.c **** /*!@brief
 594:..\..\mruby_c2\Design01.cydsn/vm.c ****   Execute OP_JMPNOT
 595:..\..\mruby_c2\Design01.cydsn/vm.c **** 
 596:..\..\mruby_c2\Design01.cydsn/vm.c ****   if not R(A) pc += sBx
 597:..\..\mruby_c2\Design01.cydsn/vm.c **** 
 598:..\..\mruby_c2\Design01.cydsn/vm.c ****   @param  vm    A pointer of VM.
 599:..\..\mruby_c2\Design01.cydsn/vm.c ****   @param  code  bytecode
 600:..\..\mruby_c2\Design01.cydsn/vm.c ****   @param  regs  vm->regs + vm->reg_top
 601:..\..\mruby_c2\Design01.cydsn/vm.c ****   @retval 0  No error.
 602:..\..\mruby_c2\Design01.cydsn/vm.c **** */
 603:..\..\mruby_c2\Design01.cydsn/vm.c **** inline static int op_jmpnot( mrb_vm *vm, uint32_t code, mrb_value *regs )
 604:..\..\mruby_c2\Design01.cydsn/vm.c **** {
 605:..\..\mruby_c2\Design01.cydsn/vm.c ****   if( regs[GETARG_A(code)].tt <= MRB_TT_FALSE ) {
 606:..\..\mruby_c2\Design01.cydsn/vm.c ****     vm->pc += GETARG_sBx(code) - 1;
 607:..\..\mruby_c2\Design01.cydsn/vm.c ****   }
 608:..\..\mruby_c2\Design01.cydsn/vm.c ****   return 0;
 609:..\..\mruby_c2\Design01.cydsn/vm.c **** }
 610:..\..\mruby_c2\Design01.cydsn/vm.c **** 
 611:..\..\mruby_c2\Design01.cydsn/vm.c **** 
 612:..\..\mruby_c2\Design01.cydsn/vm.c **** //================================================================
 613:..\..\mruby_c2\Design01.cydsn/vm.c **** /*!@brief
 614:..\..\mruby_c2\Design01.cydsn/vm.c ****   Execute OP_SEND / OP_SENDB
 615:..\..\mruby_c2\Design01.cydsn/vm.c **** 
 616:..\..\mruby_c2\Design01.cydsn/vm.c ****   OP_SEND   R(A) := call(R(A),Syms(B),R(A+1),...,R(A+C))
 617:..\..\mruby_c2\Design01.cydsn/vm.c ****   OP_SENDB  R(A) := call(R(A),Syms(B),R(A+1),...,R(A+C),&R(A+C+1))
 618:..\..\mruby_c2\Design01.cydsn/vm.c **** 
 619:..\..\mruby_c2\Design01.cydsn/vm.c ****   @param  vm    A pointer of VM.
 620:..\..\mruby_c2\Design01.cydsn/vm.c ****   @param  code  bytecode
 621:..\..\mruby_c2\Design01.cydsn/vm.c ****   @param  regs  vm->regs + vm->reg_top
 622:..\..\mruby_c2\Design01.cydsn/vm.c ****   @retval 0  No error.
 623:..\..\mruby_c2\Design01.cydsn/vm.c **** */
 624:..\..\mruby_c2\Design01.cydsn/vm.c **** inline static int op_send( mrb_vm *vm, uint32_t code, mrb_value *regs )
 625:..\..\mruby_c2\Design01.cydsn/vm.c **** {
 626:..\..\mruby_c2\Design01.cydsn/vm.c ****   int ra = GETARG_A(code);
 627:..\..\mruby_c2\Design01.cydsn/vm.c ****   int rb = GETARG_B(code);  // index of method sym
 628:..\..\mruby_c2\Design01.cydsn/vm.c ****   int rc = GETARG_C(code);  // number of params
 629:..\..\mruby_c2\Design01.cydsn/vm.c ****   mrb_value recv = regs[ra];
ARM GAS  C:\Users\164\AppData\Local\Temp\cc4PZf78.s 			page 20


 630:..\..\mruby_c2\Design01.cydsn/vm.c **** 
 631:..\..\mruby_c2\Design01.cydsn/vm.c ****   // Block param
 632:..\..\mruby_c2\Design01.cydsn/vm.c ****   int bidx = ra + rc + 1;
 633:..\..\mruby_c2\Design01.cydsn/vm.c ****   switch( GET_OPCODE(code) ) {
 634:..\..\mruby_c2\Design01.cydsn/vm.c ****   case OP_SEND:
 635:..\..\mruby_c2\Design01.cydsn/vm.c ****     // set nil
 636:..\..\mruby_c2\Design01.cydsn/vm.c ****     mrbc_release( &regs[bidx] );
 637:..\..\mruby_c2\Design01.cydsn/vm.c ****     regs[bidx].tt = MRB_TT_NIL;
 638:..\..\mruby_c2\Design01.cydsn/vm.c ****     break;
 639:..\..\mruby_c2\Design01.cydsn/vm.c **** 
 640:..\..\mruby_c2\Design01.cydsn/vm.c ****   case OP_SENDB:
 641:..\..\mruby_c2\Design01.cydsn/vm.c ****     // set Proc object
 642:..\..\mruby_c2\Design01.cydsn/vm.c ****     if( regs[bidx].tt != MRB_TT_NIL && regs[bidx].tt != MRB_TT_PROC ){
 643:..\..\mruby_c2\Design01.cydsn/vm.c ****       // TODO: fix the following behavior
 644:..\..\mruby_c2\Design01.cydsn/vm.c ****       // convert to Proc ?
 645:..\..\mruby_c2\Design01.cydsn/vm.c ****       // raise exceprion in mruby/c ?
 646:..\..\mruby_c2\Design01.cydsn/vm.c ****       return 0;
 647:..\..\mruby_c2\Design01.cydsn/vm.c ****     }
 648:..\..\mruby_c2\Design01.cydsn/vm.c ****     break;
 649:..\..\mruby_c2\Design01.cydsn/vm.c **** 
 650:..\..\mruby_c2\Design01.cydsn/vm.c ****   default:
 651:..\..\mruby_c2\Design01.cydsn/vm.c ****     break;
 652:..\..\mruby_c2\Design01.cydsn/vm.c ****   }
 653:..\..\mruby_c2\Design01.cydsn/vm.c **** 
 654:..\..\mruby_c2\Design01.cydsn/vm.c ****   const char *sym_name = mrbc_get_irep_symbol(vm->pc_irep->ptr_to_sym, rb);
 655:..\..\mruby_c2\Design01.cydsn/vm.c ****   mrb_sym sym_id = str_to_symid(sym_name);
 656:..\..\mruby_c2\Design01.cydsn/vm.c ****   mrb_proc *m = find_method(vm, recv, sym_id);
 657:..\..\mruby_c2\Design01.cydsn/vm.c **** 
 658:..\..\mruby_c2\Design01.cydsn/vm.c ****   if( m == 0 ) {
 659:..\..\mruby_c2\Design01.cydsn/vm.c ****     console_printf("No method. vtype=%d method='%s'\n", recv.tt, sym_name);
 660:..\..\mruby_c2\Design01.cydsn/vm.c ****     return 0;
 661:..\..\mruby_c2\Design01.cydsn/vm.c ****   }
 662:..\..\mruby_c2\Design01.cydsn/vm.c **** 
 663:..\..\mruby_c2\Design01.cydsn/vm.c ****   // m is C func
 664:..\..\mruby_c2\Design01.cydsn/vm.c ****   if( m->c_func ) {
 665:..\..\mruby_c2\Design01.cydsn/vm.c ****     m->func(vm, regs + ra, rc);
 666:..\..\mruby_c2\Design01.cydsn/vm.c **** 
 667:..\..\mruby_c2\Design01.cydsn/vm.c ****     int release_reg = ra+rc+1;
 668:..\..\mruby_c2\Design01.cydsn/vm.c ****     while( release_reg <= bidx ) {
 669:..\..\mruby_c2\Design01.cydsn/vm.c ****       // mrbc_release(&regs[release_reg]);
 670:..\..\mruby_c2\Design01.cydsn/vm.c ****       release_reg++;
 671:..\..\mruby_c2\Design01.cydsn/vm.c ****     }
 672:..\..\mruby_c2\Design01.cydsn/vm.c ****     return 0;
 673:..\..\mruby_c2\Design01.cydsn/vm.c ****   }
 674:..\..\mruby_c2\Design01.cydsn/vm.c **** 
 675:..\..\mruby_c2\Design01.cydsn/vm.c ****   // m is Ruby method.
 676:..\..\mruby_c2\Design01.cydsn/vm.c ****   // callinfo
 677:..\..\mruby_c2\Design01.cydsn/vm.c ****   mrbc_push_callinfo(vm, rc);
 678:..\..\mruby_c2\Design01.cydsn/vm.c **** 
 679:..\..\mruby_c2\Design01.cydsn/vm.c ****   // target irep
 680:..\..\mruby_c2\Design01.cydsn/vm.c ****   vm->pc = 0;
 681:..\..\mruby_c2\Design01.cydsn/vm.c ****   vm->pc_irep = m->irep;
 682:..\..\mruby_c2\Design01.cydsn/vm.c **** 
 683:..\..\mruby_c2\Design01.cydsn/vm.c ****   // new regs
 684:..\..\mruby_c2\Design01.cydsn/vm.c ****   vm->current_regs += ra;
 685:..\..\mruby_c2\Design01.cydsn/vm.c **** 
 686:..\..\mruby_c2\Design01.cydsn/vm.c ****   return 0;
ARM GAS  C:\Users\164\AppData\Local\Temp\cc4PZf78.s 			page 21


 687:..\..\mruby_c2\Design01.cydsn/vm.c **** }
 688:..\..\mruby_c2\Design01.cydsn/vm.c **** 
 689:..\..\mruby_c2\Design01.cydsn/vm.c **** 
 690:..\..\mruby_c2\Design01.cydsn/vm.c **** //================================================================
 691:..\..\mruby_c2\Design01.cydsn/vm.c **** /*!@brief
 692:..\..\mruby_c2\Design01.cydsn/vm.c ****   Execute OP_CALL
 693:..\..\mruby_c2\Design01.cydsn/vm.c **** 
 694:..\..\mruby_c2\Design01.cydsn/vm.c ****   R(A) := self.call(frame.argc, frame.argv)
 695:..\..\mruby_c2\Design01.cydsn/vm.c **** 
 696:..\..\mruby_c2\Design01.cydsn/vm.c ****   @param  vm    A pointer of VM.
 697:..\..\mruby_c2\Design01.cydsn/vm.c ****   @param  code  bytecode
 698:..\..\mruby_c2\Design01.cydsn/vm.c ****   @param  regs  vm->regs + vm->reg_top
 699:..\..\mruby_c2\Design01.cydsn/vm.c ****   @retval 0  No error.
 700:..\..\mruby_c2\Design01.cydsn/vm.c **** */
 701:..\..\mruby_c2\Design01.cydsn/vm.c **** inline static int op_call( mrb_vm *vm, uint32_t code, mrb_value *regs )
 702:..\..\mruby_c2\Design01.cydsn/vm.c **** {
 703:..\..\mruby_c2\Design01.cydsn/vm.c ****   mrbc_push_callinfo(vm, 0);
 704:..\..\mruby_c2\Design01.cydsn/vm.c **** 
 705:..\..\mruby_c2\Design01.cydsn/vm.c ****   // jump to proc
 706:..\..\mruby_c2\Design01.cydsn/vm.c ****   vm->pc = 0;
 707:..\..\mruby_c2\Design01.cydsn/vm.c ****   vm->pc_irep = regs[0].proc->irep;
 708:..\..\mruby_c2\Design01.cydsn/vm.c **** 
 709:..\..\mruby_c2\Design01.cydsn/vm.c ****   return 0;
 710:..\..\mruby_c2\Design01.cydsn/vm.c **** }
 711:..\..\mruby_c2\Design01.cydsn/vm.c **** 
 712:..\..\mruby_c2\Design01.cydsn/vm.c **** 
 713:..\..\mruby_c2\Design01.cydsn/vm.c **** 
 714:..\..\mruby_c2\Design01.cydsn/vm.c **** //================================================================
 715:..\..\mruby_c2\Design01.cydsn/vm.c **** /*!@brief
 716:..\..\mruby_c2\Design01.cydsn/vm.c ****   Execute OP_ENTER
 717:..\..\mruby_c2\Design01.cydsn/vm.c **** 
 718:..\..\mruby_c2\Design01.cydsn/vm.c ****   arg setup according to flags (23=5:5:1:5:5:1:1)
 719:..\..\mruby_c2\Design01.cydsn/vm.c **** 
 720:..\..\mruby_c2\Design01.cydsn/vm.c ****   @param  vm    A pointer of VM.
 721:..\..\mruby_c2\Design01.cydsn/vm.c ****   @param  code  bytecode
 722:..\..\mruby_c2\Design01.cydsn/vm.c ****   @param  regs  vm->regs + vm->reg_top
 723:..\..\mruby_c2\Design01.cydsn/vm.c ****   @retval 0  No error.
 724:..\..\mruby_c2\Design01.cydsn/vm.c **** */
 725:..\..\mruby_c2\Design01.cydsn/vm.c **** inline static int op_enter( mrb_vm *vm, uint32_t code, mrb_value *regs )
 726:..\..\mruby_c2\Design01.cydsn/vm.c **** {
 727:..\..\mruby_c2\Design01.cydsn/vm.c ****   mrb_callinfo *callinfo = vm->callinfo + vm->callinfo_top - 1;
 728:..\..\mruby_c2\Design01.cydsn/vm.c ****   uint32_t enter_param = GETARG_Ax(code);
 729:..\..\mruby_c2\Design01.cydsn/vm.c ****   int def_args = (enter_param >> 13) & 0x1f;  // default args
 730:..\..\mruby_c2\Design01.cydsn/vm.c ****   int args = (enter_param >> 18) & 0x1f;      // given args
 731:..\..\mruby_c2\Design01.cydsn/vm.c ****   if( def_args > 0 ){
 732:..\..\mruby_c2\Design01.cydsn/vm.c ****     vm->pc += callinfo->n_args - args;
 733:..\..\mruby_c2\Design01.cydsn/vm.c ****   }
 734:..\..\mruby_c2\Design01.cydsn/vm.c ****   return 0;
 735:..\..\mruby_c2\Design01.cydsn/vm.c **** }
 736:..\..\mruby_c2\Design01.cydsn/vm.c **** 
 737:..\..\mruby_c2\Design01.cydsn/vm.c **** 
 738:..\..\mruby_c2\Design01.cydsn/vm.c **** //================================================================
 739:..\..\mruby_c2\Design01.cydsn/vm.c **** /*!@brief
 740:..\..\mruby_c2\Design01.cydsn/vm.c ****   Execute OP_RETURN
 741:..\..\mruby_c2\Design01.cydsn/vm.c **** 
 742:..\..\mruby_c2\Design01.cydsn/vm.c ****   return R(A) (B=normal,in-block return/break)
 743:..\..\mruby_c2\Design01.cydsn/vm.c **** 
ARM GAS  C:\Users\164\AppData\Local\Temp\cc4PZf78.s 			page 22


 744:..\..\mruby_c2\Design01.cydsn/vm.c ****   @param  vm    A pointer of VM.
 745:..\..\mruby_c2\Design01.cydsn/vm.c ****   @param  code  bytecode
 746:..\..\mruby_c2\Design01.cydsn/vm.c ****   @param  regs  vm->regs + vm->reg_top
 747:..\..\mruby_c2\Design01.cydsn/vm.c ****   @retval 0  No error.
 748:..\..\mruby_c2\Design01.cydsn/vm.c **** */
 749:..\..\mruby_c2\Design01.cydsn/vm.c **** inline static int op_return( mrb_vm *vm, uint32_t code, mrb_value *regs )
 750:..\..\mruby_c2\Design01.cydsn/vm.c **** {
 751:..\..\mruby_c2\Design01.cydsn/vm.c ****   // return value
 752:..\..\mruby_c2\Design01.cydsn/vm.c ****   int ra = GETARG_A(code);
 753:..\..\mruby_c2\Design01.cydsn/vm.c ****   //  if( ra != 0 ){
 754:..\..\mruby_c2\Design01.cydsn/vm.c ****   mrb_value v = regs[ra];
 755:..\..\mruby_c2\Design01.cydsn/vm.c ****   mrbc_dup(&v);
 756:..\..\mruby_c2\Design01.cydsn/vm.c ****   mrbc_release(&regs[0]);
 757:..\..\mruby_c2\Design01.cydsn/vm.c ****   regs[0] = v;
 758:..\..\mruby_c2\Design01.cydsn/vm.c ****   //  }
 759:..\..\mruby_c2\Design01.cydsn/vm.c ****   // restore irep,pc,regs
 760:..\..\mruby_c2\Design01.cydsn/vm.c ****   vm->callinfo_top--;
 761:..\..\mruby_c2\Design01.cydsn/vm.c ****   mrb_callinfo *callinfo = vm->callinfo + vm->callinfo_top;
 762:..\..\mruby_c2\Design01.cydsn/vm.c ****   mrb_value *regs_ptr = vm->current_regs;
 763:..\..\mruby_c2\Design01.cydsn/vm.c ****   vm->current_regs = callinfo->current_regs;
 764:..\..\mruby_c2\Design01.cydsn/vm.c ****   // clear regs and restore vm->reg_top
 765:..\..\mruby_c2\Design01.cydsn/vm.c ****   // while( regs_ptr > callinfo->current_regs ){
 766:..\..\mruby_c2\Design01.cydsn/vm.c ****   //   mrbc_release(regs_ptr);
 767:..\..\mruby_c2\Design01.cydsn/vm.c ****   //   regs_ptr->tt = MRB_TT_EMPTY;
 768:..\..\mruby_c2\Design01.cydsn/vm.c ****   //   regs_ptr--;
 769:..\..\mruby_c2\Design01.cydsn/vm.c ****   // }
 770:..\..\mruby_c2\Design01.cydsn/vm.c ****   // restore others
 771:..\..\mruby_c2\Design01.cydsn/vm.c ****   vm->pc_irep = callinfo->pc_irep;
 772:..\..\mruby_c2\Design01.cydsn/vm.c ****   vm->pc = callinfo->pc;
 773:..\..\mruby_c2\Design01.cydsn/vm.c ****   vm->target_class = callinfo->target_class;
 774:..\..\mruby_c2\Design01.cydsn/vm.c ****   return 0;
 775:..\..\mruby_c2\Design01.cydsn/vm.c **** }
 776:..\..\mruby_c2\Design01.cydsn/vm.c **** 
 777:..\..\mruby_c2\Design01.cydsn/vm.c **** 
 778:..\..\mruby_c2\Design01.cydsn/vm.c **** //================================================================
 779:..\..\mruby_c2\Design01.cydsn/vm.c **** /*!@brief
 780:..\..\mruby_c2\Design01.cydsn/vm.c ****   Execute OP_BLKPUSH
 781:..\..\mruby_c2\Design01.cydsn/vm.c **** 
 782:..\..\mruby_c2\Design01.cydsn/vm.c ****   R(A) := block (16=6:1:5:4)
 783:..\..\mruby_c2\Design01.cydsn/vm.c **** 
 784:..\..\mruby_c2\Design01.cydsn/vm.c ****   @param  vm    A pointer of VM.
 785:..\..\mruby_c2\Design01.cydsn/vm.c ****   @param  code  bytecode
 786:..\..\mruby_c2\Design01.cydsn/vm.c ****   @param  regs  vm->regs + vm->reg_top
 787:..\..\mruby_c2\Design01.cydsn/vm.c ****   @retval 0  No error.
 788:..\..\mruby_c2\Design01.cydsn/vm.c **** */
 789:..\..\mruby_c2\Design01.cydsn/vm.c **** inline static int op_blkpush( mrb_vm *vm, uint32_t code, mrb_value *regs )
 790:..\..\mruby_c2\Design01.cydsn/vm.c **** {
 791:..\..\mruby_c2\Design01.cydsn/vm.c ****   int ra = GETARG_A(code);
 792:..\..\mruby_c2\Design01.cydsn/vm.c **** 
 793:..\..\mruby_c2\Design01.cydsn/vm.c ****   mrb_value *stack = regs + 1;
 794:..\..\mruby_c2\Design01.cydsn/vm.c **** 
 795:..\..\mruby_c2\Design01.cydsn/vm.c ****   if( stack[0].tt == MRB_TT_NIL ){
 796:..\..\mruby_c2\Design01.cydsn/vm.c ****     return -1;  // EYIELD
 797:..\..\mruby_c2\Design01.cydsn/vm.c ****   }
 798:..\..\mruby_c2\Design01.cydsn/vm.c **** 
 799:..\..\mruby_c2\Design01.cydsn/vm.c ****   mrbc_release(&regs[ra]);
 800:..\..\mruby_c2\Design01.cydsn/vm.c ****   mrbc_dup( stack );
ARM GAS  C:\Users\164\AppData\Local\Temp\cc4PZf78.s 			page 23


 801:..\..\mruby_c2\Design01.cydsn/vm.c ****   regs[ra] = stack[0];
 802:..\..\mruby_c2\Design01.cydsn/vm.c **** 
 803:..\..\mruby_c2\Design01.cydsn/vm.c ****   return 0;
 804:..\..\mruby_c2\Design01.cydsn/vm.c **** }
 805:..\..\mruby_c2\Design01.cydsn/vm.c **** 
 806:..\..\mruby_c2\Design01.cydsn/vm.c **** 
 807:..\..\mruby_c2\Design01.cydsn/vm.c **** 
 808:..\..\mruby_c2\Design01.cydsn/vm.c **** //================================================================
 809:..\..\mruby_c2\Design01.cydsn/vm.c **** /*!@brief
 810:..\..\mruby_c2\Design01.cydsn/vm.c ****   Execute OP_ADD
 811:..\..\mruby_c2\Design01.cydsn/vm.c **** 
 812:..\..\mruby_c2\Design01.cydsn/vm.c ****   R(A) := R(A)+R(A+1) (Syms[B]=:+,C=1)
 813:..\..\mruby_c2\Design01.cydsn/vm.c **** 
 814:..\..\mruby_c2\Design01.cydsn/vm.c ****   @param  vm    A pointer of VM.
 815:..\..\mruby_c2\Design01.cydsn/vm.c ****   @param  code  bytecode
 816:..\..\mruby_c2\Design01.cydsn/vm.c ****   @param  regs  vm->regs + vm->reg_top
 817:..\..\mruby_c2\Design01.cydsn/vm.c ****   @retval 0  No error.
 818:..\..\mruby_c2\Design01.cydsn/vm.c **** */
 819:..\..\mruby_c2\Design01.cydsn/vm.c **** inline static int op_add( mrb_vm *vm, uint32_t code, mrb_value *regs )
 820:..\..\mruby_c2\Design01.cydsn/vm.c **** {
 821:..\..\mruby_c2\Design01.cydsn/vm.c ****   int ra = GETARG_A(code);
 822:..\..\mruby_c2\Design01.cydsn/vm.c **** 
 823:..\..\mruby_c2\Design01.cydsn/vm.c ****   if( regs[ra].tt == MRB_TT_FIXNUM ) {
 824:..\..\mruby_c2\Design01.cydsn/vm.c ****     if( regs[ra+1].tt == MRB_TT_FIXNUM ) {	// in case of Fixnum, Fixnum
 825:..\..\mruby_c2\Design01.cydsn/vm.c ****       regs[ra].i += regs[ra+1].i;
 826:..\..\mruby_c2\Design01.cydsn/vm.c ****       return 0;
 827:..\..\mruby_c2\Design01.cydsn/vm.c ****     }
 828:..\..\mruby_c2\Design01.cydsn/vm.c **** #if MRBC_USE_FLOAT
 829:..\..\mruby_c2\Design01.cydsn/vm.c ****     if( regs[ra+1].tt == MRB_TT_FLOAT ) {	// in case of Fixnum, Float
 830:..\..\mruby_c2\Design01.cydsn/vm.c ****       regs[ra].tt = MRB_TT_FLOAT;
 831:..\..\mruby_c2\Design01.cydsn/vm.c ****       regs[ra].d = regs[ra].i + regs[ra+1].d;
 832:..\..\mruby_c2\Design01.cydsn/vm.c ****       return 0;
 833:..\..\mruby_c2\Design01.cydsn/vm.c ****     }
 834:..\..\mruby_c2\Design01.cydsn/vm.c ****   }
 835:..\..\mruby_c2\Design01.cydsn/vm.c ****   if( regs[ra].tt == MRB_TT_FLOAT ) {
 836:..\..\mruby_c2\Design01.cydsn/vm.c ****     if( regs[ra+1].tt == MRB_TT_FIXNUM ) {	// in case of Float, Fixnum
 837:..\..\mruby_c2\Design01.cydsn/vm.c ****       regs[ra].d += regs[ra+1].i;
 838:..\..\mruby_c2\Design01.cydsn/vm.c ****       return 0;
 839:..\..\mruby_c2\Design01.cydsn/vm.c ****     }
 840:..\..\mruby_c2\Design01.cydsn/vm.c ****     if( regs[ra+1].tt == MRB_TT_FLOAT ) {	// in case of Float, Float
 841:..\..\mruby_c2\Design01.cydsn/vm.c ****       regs[ra].d += regs[ra+1].d;
 842:..\..\mruby_c2\Design01.cydsn/vm.c ****       return 0;
 843:..\..\mruby_c2\Design01.cydsn/vm.c ****     }
 844:..\..\mruby_c2\Design01.cydsn/vm.c **** #endif
 845:..\..\mruby_c2\Design01.cydsn/vm.c ****   }
 846:..\..\mruby_c2\Design01.cydsn/vm.c **** 
 847:..\..\mruby_c2\Design01.cydsn/vm.c ****   // other case
 848:..\..\mruby_c2\Design01.cydsn/vm.c ****   op_send(vm, code, regs);
 849:..\..\mruby_c2\Design01.cydsn/vm.c ****   return 0;
 850:..\..\mruby_c2\Design01.cydsn/vm.c **** }
 851:..\..\mruby_c2\Design01.cydsn/vm.c **** 
 852:..\..\mruby_c2\Design01.cydsn/vm.c **** 
 853:..\..\mruby_c2\Design01.cydsn/vm.c **** //================================================================
 854:..\..\mruby_c2\Design01.cydsn/vm.c **** /*!@brief
 855:..\..\mruby_c2\Design01.cydsn/vm.c ****   Execute OP_ADDI
 856:..\..\mruby_c2\Design01.cydsn/vm.c **** 
 857:..\..\mruby_c2\Design01.cydsn/vm.c ****   R(A) := R(A)+C (Syms[B]=:+)
ARM GAS  C:\Users\164\AppData\Local\Temp\cc4PZf78.s 			page 24


 858:..\..\mruby_c2\Design01.cydsn/vm.c **** 
 859:..\..\mruby_c2\Design01.cydsn/vm.c ****   @param  vm    A pointer of VM.
 860:..\..\mruby_c2\Design01.cydsn/vm.c ****   @param  code  bytecode
 861:..\..\mruby_c2\Design01.cydsn/vm.c ****   @param  regs  vm->regs + vm->reg_top
 862:..\..\mruby_c2\Design01.cydsn/vm.c ****   @retval 0  No error.
 863:..\..\mruby_c2\Design01.cydsn/vm.c **** */
 864:..\..\mruby_c2\Design01.cydsn/vm.c **** inline static int op_addi( mrb_vm *vm, uint32_t code, mrb_value *regs )
 865:..\..\mruby_c2\Design01.cydsn/vm.c **** {
 866:..\..\mruby_c2\Design01.cydsn/vm.c ****   int ra = GETARG_A(code);
 867:..\..\mruby_c2\Design01.cydsn/vm.c **** 
 868:..\..\mruby_c2\Design01.cydsn/vm.c ****   if( regs[ra].tt == MRB_TT_FIXNUM ) {
 869:..\..\mruby_c2\Design01.cydsn/vm.c ****     regs[ra].i += GETARG_C(code);
 870:..\..\mruby_c2\Design01.cydsn/vm.c ****     return 0;
 871:..\..\mruby_c2\Design01.cydsn/vm.c ****   }
 872:..\..\mruby_c2\Design01.cydsn/vm.c **** 
 873:..\..\mruby_c2\Design01.cydsn/vm.c **** #if MRBC_USE_FLOAT
 874:..\..\mruby_c2\Design01.cydsn/vm.c ****   if( regs[ra].tt == MRB_TT_FLOAT ) {
 875:..\..\mruby_c2\Design01.cydsn/vm.c ****     regs[ra].d += GETARG_C(code);
 876:..\..\mruby_c2\Design01.cydsn/vm.c ****     return 0;
 877:..\..\mruby_c2\Design01.cydsn/vm.c ****   }
 878:..\..\mruby_c2\Design01.cydsn/vm.c **** #endif
 879:..\..\mruby_c2\Design01.cydsn/vm.c **** 
 880:..\..\mruby_c2\Design01.cydsn/vm.c ****   not_supported();
 881:..\..\mruby_c2\Design01.cydsn/vm.c ****   return 0;
 882:..\..\mruby_c2\Design01.cydsn/vm.c **** }
 883:..\..\mruby_c2\Design01.cydsn/vm.c **** 
 884:..\..\mruby_c2\Design01.cydsn/vm.c **** 
 885:..\..\mruby_c2\Design01.cydsn/vm.c **** //================================================================
 886:..\..\mruby_c2\Design01.cydsn/vm.c **** /*!@brief
 887:..\..\mruby_c2\Design01.cydsn/vm.c ****   Execute OP_SUB
 888:..\..\mruby_c2\Design01.cydsn/vm.c **** 
 889:..\..\mruby_c2\Design01.cydsn/vm.c ****   R(A) := R(A)-R(A+1) (Syms[B]=:-,C=1)
 890:..\..\mruby_c2\Design01.cydsn/vm.c **** 
 891:..\..\mruby_c2\Design01.cydsn/vm.c ****   @param  vm    A pointer of VM.
 892:..\..\mruby_c2\Design01.cydsn/vm.c ****   @param  code  bytecode
 893:..\..\mruby_c2\Design01.cydsn/vm.c ****   @param  regs  vm->regs + vm->reg_top
 894:..\..\mruby_c2\Design01.cydsn/vm.c ****   @retval 0  No error.
 895:..\..\mruby_c2\Design01.cydsn/vm.c **** */
 896:..\..\mruby_c2\Design01.cydsn/vm.c **** inline static int op_sub( mrb_vm *vm, uint32_t code, mrb_value *regs )
 897:..\..\mruby_c2\Design01.cydsn/vm.c **** {
 898:..\..\mruby_c2\Design01.cydsn/vm.c ****   int ra = GETARG_A(code);
 899:..\..\mruby_c2\Design01.cydsn/vm.c **** 
 900:..\..\mruby_c2\Design01.cydsn/vm.c ****   if( regs[ra].tt == MRB_TT_FIXNUM ) {
 901:..\..\mruby_c2\Design01.cydsn/vm.c ****     if( regs[ra+1].tt == MRB_TT_FIXNUM ) {	// in case of Fixnum, Fixnum
 902:..\..\mruby_c2\Design01.cydsn/vm.c ****       regs[ra].i -= regs[ra+1].i;
 903:..\..\mruby_c2\Design01.cydsn/vm.c ****       return 0;
 904:..\..\mruby_c2\Design01.cydsn/vm.c ****     }
 905:..\..\mruby_c2\Design01.cydsn/vm.c **** #if MRBC_USE_FLOAT
 906:..\..\mruby_c2\Design01.cydsn/vm.c ****     if( regs[ra+1].tt == MRB_TT_FLOAT ) {	// in case of Fixnum, Float
 907:..\..\mruby_c2\Design01.cydsn/vm.c ****       regs[ra].tt = MRB_TT_FLOAT;
 908:..\..\mruby_c2\Design01.cydsn/vm.c ****       regs[ra].d = regs[ra].i - regs[ra+1].d;
 909:..\..\mruby_c2\Design01.cydsn/vm.c ****       return 0;
 910:..\..\mruby_c2\Design01.cydsn/vm.c ****     }
 911:..\..\mruby_c2\Design01.cydsn/vm.c ****   }
 912:..\..\mruby_c2\Design01.cydsn/vm.c ****   if( regs[ra].tt == MRB_TT_FLOAT ) {
 913:..\..\mruby_c2\Design01.cydsn/vm.c ****     if( regs[ra+1].tt == MRB_TT_FIXNUM ) {	// in case of Float, Fixnum
 914:..\..\mruby_c2\Design01.cydsn/vm.c ****       regs[ra].d -= regs[ra+1].i;
ARM GAS  C:\Users\164\AppData\Local\Temp\cc4PZf78.s 			page 25


 915:..\..\mruby_c2\Design01.cydsn/vm.c ****       return 0;
 916:..\..\mruby_c2\Design01.cydsn/vm.c ****     }
 917:..\..\mruby_c2\Design01.cydsn/vm.c ****     if( regs[ra+1].tt == MRB_TT_FLOAT ) {	// in case of Float, Float
 918:..\..\mruby_c2\Design01.cydsn/vm.c ****       regs[ra].d -= regs[ra+1].d;
 919:..\..\mruby_c2\Design01.cydsn/vm.c ****       return 0;
 920:..\..\mruby_c2\Design01.cydsn/vm.c ****     }
 921:..\..\mruby_c2\Design01.cydsn/vm.c **** #endif
 922:..\..\mruby_c2\Design01.cydsn/vm.c ****   }
 923:..\..\mruby_c2\Design01.cydsn/vm.c **** 
 924:..\..\mruby_c2\Design01.cydsn/vm.c ****   // other case
 925:..\..\mruby_c2\Design01.cydsn/vm.c ****   op_send(vm, code, regs);
 926:..\..\mruby_c2\Design01.cydsn/vm.c ****   mrbc_release(&regs[ra+1]);
 927:..\..\mruby_c2\Design01.cydsn/vm.c ****   return 0;
 928:..\..\mruby_c2\Design01.cydsn/vm.c **** }
 929:..\..\mruby_c2\Design01.cydsn/vm.c **** 
 930:..\..\mruby_c2\Design01.cydsn/vm.c **** 
 931:..\..\mruby_c2\Design01.cydsn/vm.c **** //================================================================
 932:..\..\mruby_c2\Design01.cydsn/vm.c **** /*!@brief
 933:..\..\mruby_c2\Design01.cydsn/vm.c ****   Execute OP_SUBI
 934:..\..\mruby_c2\Design01.cydsn/vm.c **** 
 935:..\..\mruby_c2\Design01.cydsn/vm.c ****   R(A) := R(A)-C (Syms[B]=:-)
 936:..\..\mruby_c2\Design01.cydsn/vm.c **** 
 937:..\..\mruby_c2\Design01.cydsn/vm.c ****   @param  vm    A pointer of VM.
 938:..\..\mruby_c2\Design01.cydsn/vm.c ****   @param  code  bytecode
 939:..\..\mruby_c2\Design01.cydsn/vm.c ****   @param  regs  vm->regs + vm->reg_top
 940:..\..\mruby_c2\Design01.cydsn/vm.c ****   @retval 0  No error.
 941:..\..\mruby_c2\Design01.cydsn/vm.c **** */
 942:..\..\mruby_c2\Design01.cydsn/vm.c **** inline static int op_subi( mrb_vm *vm, uint32_t code, mrb_value *regs )
 943:..\..\mruby_c2\Design01.cydsn/vm.c **** {
 944:..\..\mruby_c2\Design01.cydsn/vm.c ****   int ra = GETARG_A(code);
 945:..\..\mruby_c2\Design01.cydsn/vm.c **** 
 946:..\..\mruby_c2\Design01.cydsn/vm.c ****   if( regs[ra].tt == MRB_TT_FIXNUM ) {
 947:..\..\mruby_c2\Design01.cydsn/vm.c ****     regs[ra].i -= GETARG_C(code);
 948:..\..\mruby_c2\Design01.cydsn/vm.c ****     return 0;
 949:..\..\mruby_c2\Design01.cydsn/vm.c ****   }
 950:..\..\mruby_c2\Design01.cydsn/vm.c **** 
 951:..\..\mruby_c2\Design01.cydsn/vm.c **** #if MRBC_USE_FLOAT
 952:..\..\mruby_c2\Design01.cydsn/vm.c ****   if( regs[ra].tt == MRB_TT_FLOAT ) {
 953:..\..\mruby_c2\Design01.cydsn/vm.c ****     regs[ra].d -= GETARG_C(code);
 954:..\..\mruby_c2\Design01.cydsn/vm.c ****     return 0;
 955:..\..\mruby_c2\Design01.cydsn/vm.c ****   }
 956:..\..\mruby_c2\Design01.cydsn/vm.c **** #endif
 957:..\..\mruby_c2\Design01.cydsn/vm.c **** 
 958:..\..\mruby_c2\Design01.cydsn/vm.c ****   not_supported();
 959:..\..\mruby_c2\Design01.cydsn/vm.c ****   return 0;
 960:..\..\mruby_c2\Design01.cydsn/vm.c **** }
 961:..\..\mruby_c2\Design01.cydsn/vm.c **** 
 962:..\..\mruby_c2\Design01.cydsn/vm.c **** 
 963:..\..\mruby_c2\Design01.cydsn/vm.c **** //================================================================
 964:..\..\mruby_c2\Design01.cydsn/vm.c **** /*!@brief
 965:..\..\mruby_c2\Design01.cydsn/vm.c ****   Execute OP_MUL
 966:..\..\mruby_c2\Design01.cydsn/vm.c **** 
 967:..\..\mruby_c2\Design01.cydsn/vm.c ****   R(A) := R(A)*R(A+1) (Syms[B]=:*)
 968:..\..\mruby_c2\Design01.cydsn/vm.c **** 
 969:..\..\mruby_c2\Design01.cydsn/vm.c ****   @param  vm    A pointer of VM.
 970:..\..\mruby_c2\Design01.cydsn/vm.c ****   @param  code  bytecode
 971:..\..\mruby_c2\Design01.cydsn/vm.c ****   @param  regs  vm->regs + vm->reg_top
ARM GAS  C:\Users\164\AppData\Local\Temp\cc4PZf78.s 			page 26


 972:..\..\mruby_c2\Design01.cydsn/vm.c ****   @retval 0  No error.
 973:..\..\mruby_c2\Design01.cydsn/vm.c **** */
 974:..\..\mruby_c2\Design01.cydsn/vm.c **** inline static int op_mul( mrb_vm *vm, uint32_t code, mrb_value *regs )
 975:..\..\mruby_c2\Design01.cydsn/vm.c **** {
 976:..\..\mruby_c2\Design01.cydsn/vm.c ****   int ra = GETARG_A(code);
 977:..\..\mruby_c2\Design01.cydsn/vm.c **** 
 978:..\..\mruby_c2\Design01.cydsn/vm.c ****   if( regs[ra].tt == MRB_TT_FIXNUM ) {
 979:..\..\mruby_c2\Design01.cydsn/vm.c ****     if( regs[ra+1].tt == MRB_TT_FIXNUM ) {	// in case of Fixnum, Fixnum
 980:..\..\mruby_c2\Design01.cydsn/vm.c ****       regs[ra].i *= regs[ra+1].i;
 981:..\..\mruby_c2\Design01.cydsn/vm.c ****       return 0;
 982:..\..\mruby_c2\Design01.cydsn/vm.c ****     }
 983:..\..\mruby_c2\Design01.cydsn/vm.c **** #if MRBC_USE_FLOAT
 984:..\..\mruby_c2\Design01.cydsn/vm.c ****     if( regs[ra+1].tt == MRB_TT_FLOAT ) {	// in case of Fixnum, Float
 985:..\..\mruby_c2\Design01.cydsn/vm.c ****       regs[ra].tt = MRB_TT_FLOAT;
 986:..\..\mruby_c2\Design01.cydsn/vm.c ****       regs[ra].d = regs[ra].i * regs[ra+1].d;
 987:..\..\mruby_c2\Design01.cydsn/vm.c ****       return 0;
 988:..\..\mruby_c2\Design01.cydsn/vm.c ****     }
 989:..\..\mruby_c2\Design01.cydsn/vm.c ****   }
 990:..\..\mruby_c2\Design01.cydsn/vm.c ****   if( regs[ra].tt == MRB_TT_FLOAT ) {
 991:..\..\mruby_c2\Design01.cydsn/vm.c ****     if( regs[ra+1].tt == MRB_TT_FIXNUM ) {	// in case of Float, Fixnum
 992:..\..\mruby_c2\Design01.cydsn/vm.c ****       regs[ra].d *= regs[ra+1].i;
 993:..\..\mruby_c2\Design01.cydsn/vm.c ****       return 0;
 994:..\..\mruby_c2\Design01.cydsn/vm.c ****     }
 995:..\..\mruby_c2\Design01.cydsn/vm.c ****     if( regs[ra+1].tt == MRB_TT_FLOAT ) {	// in case of Float, Float
 996:..\..\mruby_c2\Design01.cydsn/vm.c ****       regs[ra].d *= regs[ra+1].d;
 997:..\..\mruby_c2\Design01.cydsn/vm.c ****       return 0;
 998:..\..\mruby_c2\Design01.cydsn/vm.c ****     }
 999:..\..\mruby_c2\Design01.cydsn/vm.c **** #endif
1000:..\..\mruby_c2\Design01.cydsn/vm.c ****   }
1001:..\..\mruby_c2\Design01.cydsn/vm.c **** 
1002:..\..\mruby_c2\Design01.cydsn/vm.c ****   // other case
1003:..\..\mruby_c2\Design01.cydsn/vm.c ****   op_send(vm, code, regs);
1004:..\..\mruby_c2\Design01.cydsn/vm.c ****   mrbc_release(&regs[ra+1]);
1005:..\..\mruby_c2\Design01.cydsn/vm.c ****   return 0;
1006:..\..\mruby_c2\Design01.cydsn/vm.c **** }
1007:..\..\mruby_c2\Design01.cydsn/vm.c **** 
1008:..\..\mruby_c2\Design01.cydsn/vm.c **** 
1009:..\..\mruby_c2\Design01.cydsn/vm.c **** //================================================================
1010:..\..\mruby_c2\Design01.cydsn/vm.c **** /*!@brief
1011:..\..\mruby_c2\Design01.cydsn/vm.c ****   Execute OP_DIV
1012:..\..\mruby_c2\Design01.cydsn/vm.c **** 
1013:..\..\mruby_c2\Design01.cydsn/vm.c ****   R(A) := R(A)/R(A+1) (Syms[B]=:/)
1014:..\..\mruby_c2\Design01.cydsn/vm.c **** 
1015:..\..\mruby_c2\Design01.cydsn/vm.c ****   @param  vm    A pointer of VM.
1016:..\..\mruby_c2\Design01.cydsn/vm.c ****   @param  code  bytecode
1017:..\..\mruby_c2\Design01.cydsn/vm.c ****   @param  regs  vm->regs + vm->reg_top
1018:..\..\mruby_c2\Design01.cydsn/vm.c ****   @retval 0  No error.
1019:..\..\mruby_c2\Design01.cydsn/vm.c **** */
1020:..\..\mruby_c2\Design01.cydsn/vm.c **** inline static int op_div( mrb_vm *vm, uint32_t code, mrb_value *regs )
1021:..\..\mruby_c2\Design01.cydsn/vm.c **** {
1022:..\..\mruby_c2\Design01.cydsn/vm.c ****   int ra = GETARG_A(code);
1023:..\..\mruby_c2\Design01.cydsn/vm.c **** 
1024:..\..\mruby_c2\Design01.cydsn/vm.c ****   if( regs[ra].tt == MRB_TT_FIXNUM ) {
1025:..\..\mruby_c2\Design01.cydsn/vm.c ****     if( regs[ra+1].tt == MRB_TT_FIXNUM ) {	// in case of Fixnum, Fixnum
1026:..\..\mruby_c2\Design01.cydsn/vm.c ****       regs[ra].i /= regs[ra+1].i;
1027:..\..\mruby_c2\Design01.cydsn/vm.c ****       return 0;
1028:..\..\mruby_c2\Design01.cydsn/vm.c ****     }
ARM GAS  C:\Users\164\AppData\Local\Temp\cc4PZf78.s 			page 27


1029:..\..\mruby_c2\Design01.cydsn/vm.c **** #if MRBC_USE_FLOAT
1030:..\..\mruby_c2\Design01.cydsn/vm.c ****     if( regs[ra+1].tt == MRB_TT_FLOAT ) {	// in case of Fixnum, Float
1031:..\..\mruby_c2\Design01.cydsn/vm.c ****       regs[ra].tt = MRB_TT_FLOAT;
1032:..\..\mruby_c2\Design01.cydsn/vm.c ****       regs[ra].d = regs[ra].i / regs[ra+1].d;
1033:..\..\mruby_c2\Design01.cydsn/vm.c ****       return 0;
1034:..\..\mruby_c2\Design01.cydsn/vm.c ****     }
1035:..\..\mruby_c2\Design01.cydsn/vm.c ****   }
1036:..\..\mruby_c2\Design01.cydsn/vm.c ****   if( regs[ra].tt == MRB_TT_FLOAT ) {
1037:..\..\mruby_c2\Design01.cydsn/vm.c ****     if( regs[ra+1].tt == MRB_TT_FIXNUM ) {	// in case of Float, Fixnum
1038:..\..\mruby_c2\Design01.cydsn/vm.c ****       regs[ra].d /= regs[ra+1].i;
1039:..\..\mruby_c2\Design01.cydsn/vm.c ****       return 0;
1040:..\..\mruby_c2\Design01.cydsn/vm.c ****     }
1041:..\..\mruby_c2\Design01.cydsn/vm.c ****     if( regs[ra+1].tt == MRB_TT_FLOAT ) {	// in case of Float, Float
1042:..\..\mruby_c2\Design01.cydsn/vm.c ****       regs[ra].d /= regs[ra+1].d;
1043:..\..\mruby_c2\Design01.cydsn/vm.c ****       return 0;
1044:..\..\mruby_c2\Design01.cydsn/vm.c ****     }
1045:..\..\mruby_c2\Design01.cydsn/vm.c **** #endif
1046:..\..\mruby_c2\Design01.cydsn/vm.c ****   }
1047:..\..\mruby_c2\Design01.cydsn/vm.c **** 
1048:..\..\mruby_c2\Design01.cydsn/vm.c ****   // other case
1049:..\..\mruby_c2\Design01.cydsn/vm.c ****   op_send(vm, code, regs);
1050:..\..\mruby_c2\Design01.cydsn/vm.c ****   mrbc_release(&regs[ra+1]);
1051:..\..\mruby_c2\Design01.cydsn/vm.c ****   return 0;
1052:..\..\mruby_c2\Design01.cydsn/vm.c **** }
1053:..\..\mruby_c2\Design01.cydsn/vm.c **** 
1054:..\..\mruby_c2\Design01.cydsn/vm.c **** 
1055:..\..\mruby_c2\Design01.cydsn/vm.c **** //================================================================
1056:..\..\mruby_c2\Design01.cydsn/vm.c **** /*!@brief
1057:..\..\mruby_c2\Design01.cydsn/vm.c ****   Execute OP_EQ
1058:..\..\mruby_c2\Design01.cydsn/vm.c **** 
1059:..\..\mruby_c2\Design01.cydsn/vm.c ****   R(A) := R(A)==R(A+1)  (Syms[B]=:==,C=1)
1060:..\..\mruby_c2\Design01.cydsn/vm.c **** 
1061:..\..\mruby_c2\Design01.cydsn/vm.c ****   @param  vm    A pointer of VM.
1062:..\..\mruby_c2\Design01.cydsn/vm.c ****   @param  code  bytecode
1063:..\..\mruby_c2\Design01.cydsn/vm.c ****   @param  regs  vm->regs + vm->reg_top
1064:..\..\mruby_c2\Design01.cydsn/vm.c ****   @retval 0  No error.
1065:..\..\mruby_c2\Design01.cydsn/vm.c **** */
1066:..\..\mruby_c2\Design01.cydsn/vm.c **** inline static int op_eq( mrb_vm *vm, uint32_t code, mrb_value *regs )
1067:..\..\mruby_c2\Design01.cydsn/vm.c **** {
1068:..\..\mruby_c2\Design01.cydsn/vm.c ****   int ra = GETARG_A(code);
1069:..\..\mruby_c2\Design01.cydsn/vm.c ****   int result = mrbc_compare(&regs[ra], &regs[ra+1]);
1070:..\..\mruby_c2\Design01.cydsn/vm.c **** 
1071:..\..\mruby_c2\Design01.cydsn/vm.c ****   mrbc_release(&regs[ra+1]);
1072:..\..\mruby_c2\Design01.cydsn/vm.c ****   mrbc_release(&regs[ra]);
1073:..\..\mruby_c2\Design01.cydsn/vm.c ****   regs[ra].tt = result ? MRB_TT_FALSE : MRB_TT_TRUE;
1074:..\..\mruby_c2\Design01.cydsn/vm.c **** 
1075:..\..\mruby_c2\Design01.cydsn/vm.c ****   return 0;
1076:..\..\mruby_c2\Design01.cydsn/vm.c **** }
1077:..\..\mruby_c2\Design01.cydsn/vm.c **** 
1078:..\..\mruby_c2\Design01.cydsn/vm.c **** 
1079:..\..\mruby_c2\Design01.cydsn/vm.c **** //================================================================
1080:..\..\mruby_c2\Design01.cydsn/vm.c **** /*!@brief
1081:..\..\mruby_c2\Design01.cydsn/vm.c ****   Execute OP_LT
1082:..\..\mruby_c2\Design01.cydsn/vm.c **** 
1083:..\..\mruby_c2\Design01.cydsn/vm.c ****   R(A) := R(A)<R(A+1)  (Syms[B]=:<,C=1)
1084:..\..\mruby_c2\Design01.cydsn/vm.c **** 
1085:..\..\mruby_c2\Design01.cydsn/vm.c ****   @param  vm    A pointer of VM.
ARM GAS  C:\Users\164\AppData\Local\Temp\cc4PZf78.s 			page 28


1086:..\..\mruby_c2\Design01.cydsn/vm.c ****   @param  code  bytecode
1087:..\..\mruby_c2\Design01.cydsn/vm.c ****   @param  regs  vm->regs + vm->reg_top
1088:..\..\mruby_c2\Design01.cydsn/vm.c ****   @retval 0  No error.
1089:..\..\mruby_c2\Design01.cydsn/vm.c **** */
1090:..\..\mruby_c2\Design01.cydsn/vm.c **** inline static int op_lt( mrb_vm *vm, uint32_t code, mrb_value *regs )
1091:..\..\mruby_c2\Design01.cydsn/vm.c **** {
1092:..\..\mruby_c2\Design01.cydsn/vm.c ****   int ra = GETARG_A(code);
1093:..\..\mruby_c2\Design01.cydsn/vm.c ****   int result;
1094:..\..\mruby_c2\Design01.cydsn/vm.c **** 
1095:..\..\mruby_c2\Design01.cydsn/vm.c ****   if( regs[ra].tt == MRB_TT_FIXNUM ) {
1096:..\..\mruby_c2\Design01.cydsn/vm.c ****     if( regs[ra+1].tt == MRB_TT_FIXNUM ) {
1097:..\..\mruby_c2\Design01.cydsn/vm.c ****       result = regs[ra].i < regs[ra+1].i;	// in case of Fixnum, Fixnum
1098:..\..\mruby_c2\Design01.cydsn/vm.c ****       goto DONE;
1099:..\..\mruby_c2\Design01.cydsn/vm.c ****     }
1100:..\..\mruby_c2\Design01.cydsn/vm.c **** #if MRBC_USE_FLOAT
1101:..\..\mruby_c2\Design01.cydsn/vm.c ****     if( regs[ra+1].tt == MRB_TT_FLOAT ) {
1102:..\..\mruby_c2\Design01.cydsn/vm.c ****       result = regs[ra].i < regs[ra+1].d;	// in case of Fixnum, Float
1103:..\..\mruby_c2\Design01.cydsn/vm.c ****       goto DONE;
1104:..\..\mruby_c2\Design01.cydsn/vm.c ****     }
1105:..\..\mruby_c2\Design01.cydsn/vm.c ****   }
1106:..\..\mruby_c2\Design01.cydsn/vm.c ****   if( regs[ra].tt == MRB_TT_FLOAT ) {
1107:..\..\mruby_c2\Design01.cydsn/vm.c ****     if( regs[ra+1].tt == MRB_TT_FIXNUM ) {
1108:..\..\mruby_c2\Design01.cydsn/vm.c ****       result = regs[ra].d < regs[ra+1].i;	// in case of Float, Fixnum
1109:..\..\mruby_c2\Design01.cydsn/vm.c ****       goto DONE;
1110:..\..\mruby_c2\Design01.cydsn/vm.c ****     }
1111:..\..\mruby_c2\Design01.cydsn/vm.c ****     if( regs[ra+1].tt == MRB_TT_FLOAT ) {
1112:..\..\mruby_c2\Design01.cydsn/vm.c ****       result = regs[ra].d < regs[ra+1].d;	// in case of Float, Float
1113:..\..\mruby_c2\Design01.cydsn/vm.c ****       goto DONE;
1114:..\..\mruby_c2\Design01.cydsn/vm.c ****     }
1115:..\..\mruby_c2\Design01.cydsn/vm.c **** #endif
1116:..\..\mruby_c2\Design01.cydsn/vm.c ****   }
1117:..\..\mruby_c2\Design01.cydsn/vm.c **** 
1118:..\..\mruby_c2\Design01.cydsn/vm.c ****   // other case
1119:..\..\mruby_c2\Design01.cydsn/vm.c ****   op_send(vm, code, regs);
1120:..\..\mruby_c2\Design01.cydsn/vm.c ****   mrbc_release(&regs[ra+1]);
1121:..\..\mruby_c2\Design01.cydsn/vm.c ****   return 0;
1122:..\..\mruby_c2\Design01.cydsn/vm.c **** 
1123:..\..\mruby_c2\Design01.cydsn/vm.c **** DONE:
1124:..\..\mruby_c2\Design01.cydsn/vm.c ****   regs[ra].tt = result ? MRB_TT_TRUE : MRB_TT_FALSE;
1125:..\..\mruby_c2\Design01.cydsn/vm.c ****   return 0;
1126:..\..\mruby_c2\Design01.cydsn/vm.c **** }
1127:..\..\mruby_c2\Design01.cydsn/vm.c **** 
1128:..\..\mruby_c2\Design01.cydsn/vm.c **** 
1129:..\..\mruby_c2\Design01.cydsn/vm.c **** //================================================================
1130:..\..\mruby_c2\Design01.cydsn/vm.c **** /*!@brief
1131:..\..\mruby_c2\Design01.cydsn/vm.c ****   Execute OP_LE
1132:..\..\mruby_c2\Design01.cydsn/vm.c **** 
1133:..\..\mruby_c2\Design01.cydsn/vm.c ****   R(A) := R(A)<=R(A+1)  (Syms[B]=:<=,C=1)
1134:..\..\mruby_c2\Design01.cydsn/vm.c **** 
1135:..\..\mruby_c2\Design01.cydsn/vm.c ****   @param  vm    A pointer of VM.
1136:..\..\mruby_c2\Design01.cydsn/vm.c ****   @param  code  bytecode
1137:..\..\mruby_c2\Design01.cydsn/vm.c ****   @param  regs  vm->regs + vm->reg_top
1138:..\..\mruby_c2\Design01.cydsn/vm.c ****   @retval 0  No error.
1139:..\..\mruby_c2\Design01.cydsn/vm.c **** */
1140:..\..\mruby_c2\Design01.cydsn/vm.c **** inline static int op_le( mrb_vm *vm, uint32_t code, mrb_value *regs )
1141:..\..\mruby_c2\Design01.cydsn/vm.c **** {
1142:..\..\mruby_c2\Design01.cydsn/vm.c ****   int ra = GETARG_A(code);
ARM GAS  C:\Users\164\AppData\Local\Temp\cc4PZf78.s 			page 29


1143:..\..\mruby_c2\Design01.cydsn/vm.c ****   int result;
1144:..\..\mruby_c2\Design01.cydsn/vm.c **** 
1145:..\..\mruby_c2\Design01.cydsn/vm.c ****   if( regs[ra].tt == MRB_TT_FIXNUM ) {
1146:..\..\mruby_c2\Design01.cydsn/vm.c ****     if( regs[ra+1].tt == MRB_TT_FIXNUM ) {
1147:..\..\mruby_c2\Design01.cydsn/vm.c ****       result = regs[ra].i <= regs[ra+1].i;	// in case of Fixnum, Fixnum
1148:..\..\mruby_c2\Design01.cydsn/vm.c ****       goto DONE;
1149:..\..\mruby_c2\Design01.cydsn/vm.c ****     }
1150:..\..\mruby_c2\Design01.cydsn/vm.c **** #if MRBC_USE_FLOAT
1151:..\..\mruby_c2\Design01.cydsn/vm.c ****     if( regs[ra+1].tt == MRB_TT_FLOAT ) {
1152:..\..\mruby_c2\Design01.cydsn/vm.c ****       result = regs[ra].i <= regs[ra+1].d;	// in case of Fixnum, Float
1153:..\..\mruby_c2\Design01.cydsn/vm.c ****       goto DONE;
1154:..\..\mruby_c2\Design01.cydsn/vm.c ****     }
1155:..\..\mruby_c2\Design01.cydsn/vm.c ****   }
1156:..\..\mruby_c2\Design01.cydsn/vm.c ****   if( regs[ra].tt == MRB_TT_FLOAT ) {
1157:..\..\mruby_c2\Design01.cydsn/vm.c ****     if( regs[ra+1].tt == MRB_TT_FIXNUM ) {
1158:..\..\mruby_c2\Design01.cydsn/vm.c ****       result = regs[ra].d <= regs[ra+1].i;	// in case of Float, Fixnum
1159:..\..\mruby_c2\Design01.cydsn/vm.c ****       goto DONE;
1160:..\..\mruby_c2\Design01.cydsn/vm.c ****     }
1161:..\..\mruby_c2\Design01.cydsn/vm.c ****     if( regs[ra+1].tt == MRB_TT_FLOAT ) {
1162:..\..\mruby_c2\Design01.cydsn/vm.c ****       result = regs[ra].d <= regs[ra+1].d;	// in case of Float, Float
1163:..\..\mruby_c2\Design01.cydsn/vm.c ****       goto DONE;
1164:..\..\mruby_c2\Design01.cydsn/vm.c ****     }
1165:..\..\mruby_c2\Design01.cydsn/vm.c **** #endif
1166:..\..\mruby_c2\Design01.cydsn/vm.c ****   }
1167:..\..\mruby_c2\Design01.cydsn/vm.c **** 
1168:..\..\mruby_c2\Design01.cydsn/vm.c ****   // other case
1169:..\..\mruby_c2\Design01.cydsn/vm.c ****   op_send(vm, code, regs);
1170:..\..\mruby_c2\Design01.cydsn/vm.c ****   mrbc_release(&regs[ra+1]);
1171:..\..\mruby_c2\Design01.cydsn/vm.c ****   return 0;
1172:..\..\mruby_c2\Design01.cydsn/vm.c **** 
1173:..\..\mruby_c2\Design01.cydsn/vm.c **** DONE:
1174:..\..\mruby_c2\Design01.cydsn/vm.c ****   regs[ra].tt = result ? MRB_TT_TRUE : MRB_TT_FALSE;
1175:..\..\mruby_c2\Design01.cydsn/vm.c ****   return 0;
1176:..\..\mruby_c2\Design01.cydsn/vm.c **** }
1177:..\..\mruby_c2\Design01.cydsn/vm.c **** 
1178:..\..\mruby_c2\Design01.cydsn/vm.c **** 
1179:..\..\mruby_c2\Design01.cydsn/vm.c **** //================================================================
1180:..\..\mruby_c2\Design01.cydsn/vm.c **** /*!@brief
1181:..\..\mruby_c2\Design01.cydsn/vm.c ****   Execute OP_GT
1182:..\..\mruby_c2\Design01.cydsn/vm.c **** 
1183:..\..\mruby_c2\Design01.cydsn/vm.c ****   R(A) := R(A)>=R(A+1) (Syms[B]=:>=,C=1)
1184:..\..\mruby_c2\Design01.cydsn/vm.c **** 
1185:..\..\mruby_c2\Design01.cydsn/vm.c ****   @param  vm    A pointer of VM.
1186:..\..\mruby_c2\Design01.cydsn/vm.c ****   @param  code  bytecode
1187:..\..\mruby_c2\Design01.cydsn/vm.c ****   @param  regs  vm->regs + vm->reg_top
1188:..\..\mruby_c2\Design01.cydsn/vm.c ****   @retval 0  No error.
1189:..\..\mruby_c2\Design01.cydsn/vm.c **** */
1190:..\..\mruby_c2\Design01.cydsn/vm.c **** inline static int op_gt( mrb_vm *vm, uint32_t code, mrb_value *regs )
1191:..\..\mruby_c2\Design01.cydsn/vm.c **** {
1192:..\..\mruby_c2\Design01.cydsn/vm.c ****   int ra = GETARG_A(code);
1193:..\..\mruby_c2\Design01.cydsn/vm.c ****   int result;
1194:..\..\mruby_c2\Design01.cydsn/vm.c **** 
1195:..\..\mruby_c2\Design01.cydsn/vm.c ****   if( regs[ra].tt == MRB_TT_FIXNUM ) {
1196:..\..\mruby_c2\Design01.cydsn/vm.c ****     if( regs[ra+1].tt == MRB_TT_FIXNUM ) {
1197:..\..\mruby_c2\Design01.cydsn/vm.c ****       result = regs[ra].i > regs[ra+1].i;	// in case of Fixnum, Fixnum
1198:..\..\mruby_c2\Design01.cydsn/vm.c ****       goto DONE;
1199:..\..\mruby_c2\Design01.cydsn/vm.c ****     }
ARM GAS  C:\Users\164\AppData\Local\Temp\cc4PZf78.s 			page 30


1200:..\..\mruby_c2\Design01.cydsn/vm.c **** #if MRBC_USE_FLOAT
1201:..\..\mruby_c2\Design01.cydsn/vm.c ****     if( regs[ra+1].tt == MRB_TT_FLOAT ) {
1202:..\..\mruby_c2\Design01.cydsn/vm.c ****       result = regs[ra].i > regs[ra+1].d;	// in case of Fixnum, Float
1203:..\..\mruby_c2\Design01.cydsn/vm.c ****       goto DONE;
1204:..\..\mruby_c2\Design01.cydsn/vm.c ****     }
1205:..\..\mruby_c2\Design01.cydsn/vm.c ****   }
1206:..\..\mruby_c2\Design01.cydsn/vm.c ****   if( regs[ra].tt == MRB_TT_FLOAT ) {
1207:..\..\mruby_c2\Design01.cydsn/vm.c ****     if( regs[ra+1].tt == MRB_TT_FIXNUM ) {
1208:..\..\mruby_c2\Design01.cydsn/vm.c ****       result = regs[ra].d > regs[ra+1].i;	// in case of Float, Fixnum
1209:..\..\mruby_c2\Design01.cydsn/vm.c ****       goto DONE;
1210:..\..\mruby_c2\Design01.cydsn/vm.c ****     }
1211:..\..\mruby_c2\Design01.cydsn/vm.c ****     if( regs[ra+1].tt == MRB_TT_FLOAT ) {
1212:..\..\mruby_c2\Design01.cydsn/vm.c ****       result = regs[ra].d > regs[ra+1].d;	// in case of Float, Float
1213:..\..\mruby_c2\Design01.cydsn/vm.c ****       goto DONE;
1214:..\..\mruby_c2\Design01.cydsn/vm.c ****     }
1215:..\..\mruby_c2\Design01.cydsn/vm.c **** #endif
1216:..\..\mruby_c2\Design01.cydsn/vm.c ****   }
1217:..\..\mruby_c2\Design01.cydsn/vm.c **** 
1218:..\..\mruby_c2\Design01.cydsn/vm.c ****   // other case
1219:..\..\mruby_c2\Design01.cydsn/vm.c ****   op_send(vm, code, regs);
1220:..\..\mruby_c2\Design01.cydsn/vm.c ****   mrbc_release(&regs[ra+1]);
1221:..\..\mruby_c2\Design01.cydsn/vm.c ****   return 0;
1222:..\..\mruby_c2\Design01.cydsn/vm.c **** 
1223:..\..\mruby_c2\Design01.cydsn/vm.c **** DONE:
1224:..\..\mruby_c2\Design01.cydsn/vm.c ****   regs[ra].tt = result ? MRB_TT_TRUE : MRB_TT_FALSE;
1225:..\..\mruby_c2\Design01.cydsn/vm.c ****   return 0;
1226:..\..\mruby_c2\Design01.cydsn/vm.c **** }
1227:..\..\mruby_c2\Design01.cydsn/vm.c **** 
1228:..\..\mruby_c2\Design01.cydsn/vm.c **** 
1229:..\..\mruby_c2\Design01.cydsn/vm.c **** //================================================================
1230:..\..\mruby_c2\Design01.cydsn/vm.c **** /*!@brief
1231:..\..\mruby_c2\Design01.cydsn/vm.c ****   Execute OP_GE
1232:..\..\mruby_c2\Design01.cydsn/vm.c **** 
1233:..\..\mruby_c2\Design01.cydsn/vm.c ****   R(A) := R(A)>=R(A+1) (Syms[B]=:>=,C=1)
1234:..\..\mruby_c2\Design01.cydsn/vm.c **** 
1235:..\..\mruby_c2\Design01.cydsn/vm.c ****   @param  vm    A pointer of VM.
1236:..\..\mruby_c2\Design01.cydsn/vm.c ****   @param  code  bytecode
1237:..\..\mruby_c2\Design01.cydsn/vm.c ****   @param  regs  vm->regs + vm->reg_top
1238:..\..\mruby_c2\Design01.cydsn/vm.c ****   @retval 0  No error.
1239:..\..\mruby_c2\Design01.cydsn/vm.c **** */
1240:..\..\mruby_c2\Design01.cydsn/vm.c **** inline static int op_ge( mrb_vm *vm, uint32_t code, mrb_value *regs )
1241:..\..\mruby_c2\Design01.cydsn/vm.c **** {
1242:..\..\mruby_c2\Design01.cydsn/vm.c ****   int ra = GETARG_A(code);
1243:..\..\mruby_c2\Design01.cydsn/vm.c ****   int result;
1244:..\..\mruby_c2\Design01.cydsn/vm.c **** 
1245:..\..\mruby_c2\Design01.cydsn/vm.c ****   if( regs[ra].tt == MRB_TT_FIXNUM ) {
1246:..\..\mruby_c2\Design01.cydsn/vm.c ****     if( regs[ra+1].tt == MRB_TT_FIXNUM ) {
1247:..\..\mruby_c2\Design01.cydsn/vm.c ****       result = regs[ra].i >= regs[ra+1].i;	// in case of Fixnum, Fixnum
1248:..\..\mruby_c2\Design01.cydsn/vm.c ****       goto DONE;
1249:..\..\mruby_c2\Design01.cydsn/vm.c ****     }
1250:..\..\mruby_c2\Design01.cydsn/vm.c **** #if MRBC_USE_FLOAT
1251:..\..\mruby_c2\Design01.cydsn/vm.c ****     if( regs[ra+1].tt == MRB_TT_FLOAT ) {
1252:..\..\mruby_c2\Design01.cydsn/vm.c ****       result = regs[ra].i >= regs[ra+1].d;	// in case of Fixnum, Float
1253:..\..\mruby_c2\Design01.cydsn/vm.c ****       goto DONE;
1254:..\..\mruby_c2\Design01.cydsn/vm.c ****     }
1255:..\..\mruby_c2\Design01.cydsn/vm.c ****   }
1256:..\..\mruby_c2\Design01.cydsn/vm.c ****   if( regs[ra].tt == MRB_TT_FLOAT ) {
ARM GAS  C:\Users\164\AppData\Local\Temp\cc4PZf78.s 			page 31


1257:..\..\mruby_c2\Design01.cydsn/vm.c ****     if( regs[ra+1].tt == MRB_TT_FIXNUM ) {
1258:..\..\mruby_c2\Design01.cydsn/vm.c ****       result = regs[ra].d >= regs[ra+1].i;	// in case of Float, Fixnum
1259:..\..\mruby_c2\Design01.cydsn/vm.c ****       goto DONE;
1260:..\..\mruby_c2\Design01.cydsn/vm.c ****     }
1261:..\..\mruby_c2\Design01.cydsn/vm.c ****     if( regs[ra+1].tt == MRB_TT_FLOAT ) {
1262:..\..\mruby_c2\Design01.cydsn/vm.c ****       result = regs[ra].d >= regs[ra+1].d;	// in case of Float, Float
1263:..\..\mruby_c2\Design01.cydsn/vm.c ****       goto DONE;
1264:..\..\mruby_c2\Design01.cydsn/vm.c ****     }
1265:..\..\mruby_c2\Design01.cydsn/vm.c **** #endif
1266:..\..\mruby_c2\Design01.cydsn/vm.c ****   }
1267:..\..\mruby_c2\Design01.cydsn/vm.c **** 
1268:..\..\mruby_c2\Design01.cydsn/vm.c ****   // other case
1269:..\..\mruby_c2\Design01.cydsn/vm.c ****   op_send(vm, code, regs);
1270:..\..\mruby_c2\Design01.cydsn/vm.c ****   mrbc_release(&regs[ra+1]);
1271:..\..\mruby_c2\Design01.cydsn/vm.c ****   return 0;
1272:..\..\mruby_c2\Design01.cydsn/vm.c **** 
1273:..\..\mruby_c2\Design01.cydsn/vm.c **** DONE:
1274:..\..\mruby_c2\Design01.cydsn/vm.c ****   regs[ra].tt = result ? MRB_TT_TRUE : MRB_TT_FALSE;
1275:..\..\mruby_c2\Design01.cydsn/vm.c ****   return 0;
1276:..\..\mruby_c2\Design01.cydsn/vm.c **** }
1277:..\..\mruby_c2\Design01.cydsn/vm.c **** 
1278:..\..\mruby_c2\Design01.cydsn/vm.c **** 
1279:..\..\mruby_c2\Design01.cydsn/vm.c **** //================================================================
1280:..\..\mruby_c2\Design01.cydsn/vm.c **** /*!@brief
1281:..\..\mruby_c2\Design01.cydsn/vm.c ****   Create Array object
1282:..\..\mruby_c2\Design01.cydsn/vm.c **** 
1283:..\..\mruby_c2\Design01.cydsn/vm.c ****   R(A) := ary_new(R(B),R(B+1)..R(B+C))
1284:..\..\mruby_c2\Design01.cydsn/vm.c **** 
1285:..\..\mruby_c2\Design01.cydsn/vm.c ****   @param  vm    A pointer of VM.
1286:..\..\mruby_c2\Design01.cydsn/vm.c ****   @param  code  bytecode
1287:..\..\mruby_c2\Design01.cydsn/vm.c ****   @param  regs  vm->regs + vm->reg_top
1288:..\..\mruby_c2\Design01.cydsn/vm.c ****   @retval 0  No error.
1289:..\..\mruby_c2\Design01.cydsn/vm.c **** */
1290:..\..\mruby_c2\Design01.cydsn/vm.c **** inline static int op_array( mrb_vm *vm, uint32_t code, mrb_value *regs )
1291:..\..\mruby_c2\Design01.cydsn/vm.c **** {
1292:..\..\mruby_c2\Design01.cydsn/vm.c ****   int ra = GETARG_A(code);
1293:..\..\mruby_c2\Design01.cydsn/vm.c ****   int rb = GETARG_B(code);
1294:..\..\mruby_c2\Design01.cydsn/vm.c ****   int rc = GETARG_C(code);
1295:..\..\mruby_c2\Design01.cydsn/vm.c **** 
1296:..\..\mruby_c2\Design01.cydsn/vm.c ****   mrb_value value = mrbc_array_new(vm, rc);
1297:..\..\mruby_c2\Design01.cydsn/vm.c ****   if( value.array == NULL ) return -1;	// ENOMEM
1298:..\..\mruby_c2\Design01.cydsn/vm.c **** 
1299:..\..\mruby_c2\Design01.cydsn/vm.c ****   memcpy( value.array->data, &regs[rb], sizeof(mrb_value) * rc );
1300:..\..\mruby_c2\Design01.cydsn/vm.c ****   memset( &regs[rb], 0, sizeof(mrb_value) * rc );
1301:..\..\mruby_c2\Design01.cydsn/vm.c ****   value.array->n_stored = rc;
1302:..\..\mruby_c2\Design01.cydsn/vm.c **** 
1303:..\..\mruby_c2\Design01.cydsn/vm.c ****   mrbc_release(&regs[ra]);
1304:..\..\mruby_c2\Design01.cydsn/vm.c ****   regs[ra] = value;
1305:..\..\mruby_c2\Design01.cydsn/vm.c **** 
1306:..\..\mruby_c2\Design01.cydsn/vm.c ****   return 0;
1307:..\..\mruby_c2\Design01.cydsn/vm.c **** }
1308:..\..\mruby_c2\Design01.cydsn/vm.c **** 
1309:..\..\mruby_c2\Design01.cydsn/vm.c **** 
1310:..\..\mruby_c2\Design01.cydsn/vm.c **** //================================================================
1311:..\..\mruby_c2\Design01.cydsn/vm.c **** /*!@brief
1312:..\..\mruby_c2\Design01.cydsn/vm.c ****   Create string object
1313:..\..\mruby_c2\Design01.cydsn/vm.c **** 
ARM GAS  C:\Users\164\AppData\Local\Temp\cc4PZf78.s 			page 32


1314:..\..\mruby_c2\Design01.cydsn/vm.c ****   R(A) := str_dup(Lit(Bx))
1315:..\..\mruby_c2\Design01.cydsn/vm.c **** 
1316:..\..\mruby_c2\Design01.cydsn/vm.c ****   @param  vm    A pointer of VM.
1317:..\..\mruby_c2\Design01.cydsn/vm.c ****   @param  code  bytecode
1318:..\..\mruby_c2\Design01.cydsn/vm.c ****   @param  regs  vm->regs + vm->reg_top
1319:..\..\mruby_c2\Design01.cydsn/vm.c ****   @retval 0  No error.
1320:..\..\mruby_c2\Design01.cydsn/vm.c **** */
1321:..\..\mruby_c2\Design01.cydsn/vm.c **** inline static int op_string( mrb_vm *vm, uint32_t code, mrb_value *regs )
1322:..\..\mruby_c2\Design01.cydsn/vm.c **** {
1323:..\..\mruby_c2\Design01.cydsn/vm.c **** #if MRBC_USE_STRING
1324:..\..\mruby_c2\Design01.cydsn/vm.c ****   int ra = GETARG_A(code);
1325:..\..\mruby_c2\Design01.cydsn/vm.c ****   int rb = GETARG_Bx(code);
1326:..\..\mruby_c2\Design01.cydsn/vm.c ****   mrb_object *pool_obj = vm->pc_irep->pools[rb];
1327:..\..\mruby_c2\Design01.cydsn/vm.c **** 
1328:..\..\mruby_c2\Design01.cydsn/vm.c ****   /* CAUTION: pool_obj->str - 2. see IREP POOL structure. */
1329:..\..\mruby_c2\Design01.cydsn/vm.c ****   int len = bin_to_uint16(pool_obj->str - 2);
1330:..\..\mruby_c2\Design01.cydsn/vm.c ****   mrb_value value = mrbc_string_new(vm, pool_obj->str, len);
1331:..\..\mruby_c2\Design01.cydsn/vm.c ****   if( value.string == NULL ) return -1;		// ENOMEM
1332:..\..\mruby_c2\Design01.cydsn/vm.c **** 
1333:..\..\mruby_c2\Design01.cydsn/vm.c ****   mrbc_release(&regs[ra]);
1334:..\..\mruby_c2\Design01.cydsn/vm.c ****   regs[ra] = value;
1335:..\..\mruby_c2\Design01.cydsn/vm.c **** 
1336:..\..\mruby_c2\Design01.cydsn/vm.c **** #else
1337:..\..\mruby_c2\Design01.cydsn/vm.c ****   not_supported();
1338:..\..\mruby_c2\Design01.cydsn/vm.c **** #endif
1339:..\..\mruby_c2\Design01.cydsn/vm.c ****   return 0;
1340:..\..\mruby_c2\Design01.cydsn/vm.c **** }
1341:..\..\mruby_c2\Design01.cydsn/vm.c **** 
1342:..\..\mruby_c2\Design01.cydsn/vm.c **** 
1343:..\..\mruby_c2\Design01.cydsn/vm.c **** //================================================================
1344:..\..\mruby_c2\Design01.cydsn/vm.c **** /*!@brief
1345:..\..\mruby_c2\Design01.cydsn/vm.c ****   String Catination
1346:..\..\mruby_c2\Design01.cydsn/vm.c **** 
1347:..\..\mruby_c2\Design01.cydsn/vm.c ****   str_cat(R(A),R(B))
1348:..\..\mruby_c2\Design01.cydsn/vm.c **** 
1349:..\..\mruby_c2\Design01.cydsn/vm.c ****   @param  vm    A pointer of VM.
1350:..\..\mruby_c2\Design01.cydsn/vm.c ****   @param  code  bytecode
1351:..\..\mruby_c2\Design01.cydsn/vm.c ****   @param  regs  vm->regs + vm->reg_top
1352:..\..\mruby_c2\Design01.cydsn/vm.c ****   @retval 0  No error.
1353:..\..\mruby_c2\Design01.cydsn/vm.c **** */
1354:..\..\mruby_c2\Design01.cydsn/vm.c **** inline static int op_strcat( mrb_vm *vm, uint32_t code, mrb_value *regs )
1355:..\..\mruby_c2\Design01.cydsn/vm.c **** {
1356:..\..\mruby_c2\Design01.cydsn/vm.c **** #if MRBC_USE_STRING
1357:..\..\mruby_c2\Design01.cydsn/vm.c ****   int ra = GETARG_A(code);
1358:..\..\mruby_c2\Design01.cydsn/vm.c ****   int rb = GETARG_B(code);
1359:..\..\mruby_c2\Design01.cydsn/vm.c **** 
1360:..\..\mruby_c2\Design01.cydsn/vm.c ****   // call "to_s"
1361:..\..\mruby_c2\Design01.cydsn/vm.c ****   mrb_sym sym_id = str_to_symid("to_s");
1362:..\..\mruby_c2\Design01.cydsn/vm.c ****   mrb_proc *m;
1363:..\..\mruby_c2\Design01.cydsn/vm.c ****   m = find_method(vm, regs[ra], sym_id);
1364:..\..\mruby_c2\Design01.cydsn/vm.c ****   if( m && m->c_func ){
1365:..\..\mruby_c2\Design01.cydsn/vm.c ****     m->func(vm, regs+ra, 0);
1366:..\..\mruby_c2\Design01.cydsn/vm.c ****   } 
1367:..\..\mruby_c2\Design01.cydsn/vm.c ****   m = find_method(vm, regs[rb], sym_id);
1368:..\..\mruby_c2\Design01.cydsn/vm.c ****   if( m && m->c_func ){
1369:..\..\mruby_c2\Design01.cydsn/vm.c ****     m->func(vm, regs+rb, 0);
1370:..\..\mruby_c2\Design01.cydsn/vm.c ****   }
ARM GAS  C:\Users\164\AppData\Local\Temp\cc4PZf78.s 			page 33


1371:..\..\mruby_c2\Design01.cydsn/vm.c **** 
1372:..\..\mruby_c2\Design01.cydsn/vm.c ****   mrb_value v = mrbc_string_add(vm, &regs[ra], &regs[rb]);
1373:..\..\mruby_c2\Design01.cydsn/vm.c ****   mrbc_release(&regs[ra]);
1374:..\..\mruby_c2\Design01.cydsn/vm.c ****   regs[ra] = v;
1375:..\..\mruby_c2\Design01.cydsn/vm.c **** 
1376:..\..\mruby_c2\Design01.cydsn/vm.c **** #else
1377:..\..\mruby_c2\Design01.cydsn/vm.c ****   not_supported();
1378:..\..\mruby_c2\Design01.cydsn/vm.c **** #endif
1379:..\..\mruby_c2\Design01.cydsn/vm.c ****   return 0;
1380:..\..\mruby_c2\Design01.cydsn/vm.c **** }
1381:..\..\mruby_c2\Design01.cydsn/vm.c **** 
1382:..\..\mruby_c2\Design01.cydsn/vm.c **** 
1383:..\..\mruby_c2\Design01.cydsn/vm.c **** 
1384:..\..\mruby_c2\Design01.cydsn/vm.c **** 
1385:..\..\mruby_c2\Design01.cydsn/vm.c **** //================================================================
1386:..\..\mruby_c2\Design01.cydsn/vm.c **** /*!@brief
1387:..\..\mruby_c2\Design01.cydsn/vm.c ****   Execute OP_LAMBDA
1388:..\..\mruby_c2\Design01.cydsn/vm.c **** 
1389:..\..\mruby_c2\Design01.cydsn/vm.c ****   R(A) := lambda(SEQ[Bz],Cz)
1390:..\..\mruby_c2\Design01.cydsn/vm.c **** 
1391:..\..\mruby_c2\Design01.cydsn/vm.c ****   @param  vm    A pointer of VM.
1392:..\..\mruby_c2\Design01.cydsn/vm.c ****   @param  code  bytecode
1393:..\..\mruby_c2\Design01.cydsn/vm.c ****   @param  regs  vm->regs + vm->reg_top
1394:..\..\mruby_c2\Design01.cydsn/vm.c ****   @retval 0  No error.
1395:..\..\mruby_c2\Design01.cydsn/vm.c **** */
1396:..\..\mruby_c2\Design01.cydsn/vm.c **** inline static int op_lambda( mrb_vm *vm, uint32_t code, mrb_value *regs )
1397:..\..\mruby_c2\Design01.cydsn/vm.c **** {
1398:..\..\mruby_c2\Design01.cydsn/vm.c ****   int ra = GETARG_A(code);
1399:..\..\mruby_c2\Design01.cydsn/vm.c ****   int rb = GETARG_Bz(code);      // sequence position in irep list
1400:..\..\mruby_c2\Design01.cydsn/vm.c ****   // int c = GETARG_C(code);    // TODO: Add flags support for OP_LAMBDA
1401:..\..\mruby_c2\Design01.cydsn/vm.c ****   mrb_proc *proc = mrbc_rproc_alloc(vm, "(lambda)");
1402:..\..\mruby_c2\Design01.cydsn/vm.c **** 
1403:..\..\mruby_c2\Design01.cydsn/vm.c ****   proc->c_func = 0;
1404:..\..\mruby_c2\Design01.cydsn/vm.c ****   proc->irep = vm->pc_irep->reps[rb];
1405:..\..\mruby_c2\Design01.cydsn/vm.c **** 
1406:..\..\mruby_c2\Design01.cydsn/vm.c ****   mrbc_release(&regs[ra]);
1407:..\..\mruby_c2\Design01.cydsn/vm.c ****   regs[ra].tt = MRB_TT_PROC;
1408:..\..\mruby_c2\Design01.cydsn/vm.c ****   regs[ra].proc = proc;
1409:..\..\mruby_c2\Design01.cydsn/vm.c **** 
1410:..\..\mruby_c2\Design01.cydsn/vm.c ****   return 0;
1411:..\..\mruby_c2\Design01.cydsn/vm.c **** }
1412:..\..\mruby_c2\Design01.cydsn/vm.c **** 
1413:..\..\mruby_c2\Design01.cydsn/vm.c **** 
1414:..\..\mruby_c2\Design01.cydsn/vm.c **** //================================================================
1415:..\..\mruby_c2\Design01.cydsn/vm.c **** /*!@brief
1416:..\..\mruby_c2\Design01.cydsn/vm.c ****   Execute OP_RANGE
1417:..\..\mruby_c2\Design01.cydsn/vm.c **** 
1418:..\..\mruby_c2\Design01.cydsn/vm.c ****   R(A) := range_new(R(B),R(B+1),C)
1419:..\..\mruby_c2\Design01.cydsn/vm.c **** 
1420:..\..\mruby_c2\Design01.cydsn/vm.c ****   @param  vm    A pointer of VM.
1421:..\..\mruby_c2\Design01.cydsn/vm.c ****   @param  code  bytecode
1422:..\..\mruby_c2\Design01.cydsn/vm.c ****   @param  regs  vm->regs + vm->reg_top
1423:..\..\mruby_c2\Design01.cydsn/vm.c ****   @retval 0  No error.
1424:..\..\mruby_c2\Design01.cydsn/vm.c **** */
1425:..\..\mruby_c2\Design01.cydsn/vm.c **** inline static int op_range( mrb_vm *vm, uint32_t code, mrb_value *regs )
1426:..\..\mruby_c2\Design01.cydsn/vm.c **** {
1427:..\..\mruby_c2\Design01.cydsn/vm.c ****   int ra = GETARG_A(code);
ARM GAS  C:\Users\164\AppData\Local\Temp\cc4PZf78.s 			page 34


1428:..\..\mruby_c2\Design01.cydsn/vm.c ****   int rb = GETARG_B(code);
1429:..\..\mruby_c2\Design01.cydsn/vm.c ****   int rc = GETARG_C(code);
1430:..\..\mruby_c2\Design01.cydsn/vm.c **** 
1431:..\..\mruby_c2\Design01.cydsn/vm.c ****   mrbc_dup(&regs[rb]);
1432:..\..\mruby_c2\Design01.cydsn/vm.c ****   mrbc_dup(&regs[rb+1]);
1433:..\..\mruby_c2\Design01.cydsn/vm.c **** 
1434:..\..\mruby_c2\Design01.cydsn/vm.c ****   mrb_value value = mrbc_range_new(vm, &regs[rb], &regs[rb+1], rc);
1435:..\..\mruby_c2\Design01.cydsn/vm.c ****   if( value.range == NULL ) return -1;		// ENOMEM
1436:..\..\mruby_c2\Design01.cydsn/vm.c **** 
1437:..\..\mruby_c2\Design01.cydsn/vm.c ****   mrbc_release(&regs[ra]);
1438:..\..\mruby_c2\Design01.cydsn/vm.c ****   regs[ra] = value;
1439:..\..\mruby_c2\Design01.cydsn/vm.c **** 
1440:..\..\mruby_c2\Design01.cydsn/vm.c ****   return 0;
1441:..\..\mruby_c2\Design01.cydsn/vm.c **** }
1442:..\..\mruby_c2\Design01.cydsn/vm.c **** 
1443:..\..\mruby_c2\Design01.cydsn/vm.c **** 
1444:..\..\mruby_c2\Design01.cydsn/vm.c **** //================================================================
1445:..\..\mruby_c2\Design01.cydsn/vm.c **** /*!@brief
1446:..\..\mruby_c2\Design01.cydsn/vm.c ****   Execute OP_CLASS
1447:..\..\mruby_c2\Design01.cydsn/vm.c **** 
1448:..\..\mruby_c2\Design01.cydsn/vm.c ****     R(A) := newclass(R(A),Syms(B),R(A+1))
1449:..\..\mruby_c2\Design01.cydsn/vm.c ****     Syms(B): class name
1450:..\..\mruby_c2\Design01.cydsn/vm.c ****     R(A+1): super class
1451:..\..\mruby_c2\Design01.cydsn/vm.c **** 
1452:..\..\mruby_c2\Design01.cydsn/vm.c ****   @param  vm    A pointer of VM.
1453:..\..\mruby_c2\Design01.cydsn/vm.c ****   @param  code  bytecode
1454:..\..\mruby_c2\Design01.cydsn/vm.c ****   @param  regs  vm->regs + vm->reg_top
1455:..\..\mruby_c2\Design01.cydsn/vm.c ****   @retval 0  No error.
1456:..\..\mruby_c2\Design01.cydsn/vm.c **** */
1457:..\..\mruby_c2\Design01.cydsn/vm.c **** inline static int op_class( mrb_vm *vm, uint32_t code, mrb_value *regs )
1458:..\..\mruby_c2\Design01.cydsn/vm.c **** {
1459:..\..\mruby_c2\Design01.cydsn/vm.c ****   int ra = GETARG_A(code);
1460:..\..\mruby_c2\Design01.cydsn/vm.c ****   int rb = GETARG_B(code);
1461:..\..\mruby_c2\Design01.cydsn/vm.c **** 
1462:..\..\mruby_c2\Design01.cydsn/vm.c ****   mrb_irep *cur_irep = vm->pc_irep;
1463:..\..\mruby_c2\Design01.cydsn/vm.c ****   const char *sym_name = mrbc_get_irep_symbol(cur_irep->ptr_to_sym, rb);
1464:..\..\mruby_c2\Design01.cydsn/vm.c ****   mrb_class *super = (regs[ra+1].tt == MRB_TT_CLASS) ? regs[ra+1].cls : mrbc_class_object;
1465:..\..\mruby_c2\Design01.cydsn/vm.c **** 
1466:..\..\mruby_c2\Design01.cydsn/vm.c ****   mrb_class *cls = mrbc_define_class(vm, sym_name, super);
1467:..\..\mruby_c2\Design01.cydsn/vm.c **** 
1468:..\..\mruby_c2\Design01.cydsn/vm.c ****   mrb_value ret = {.tt = MRB_TT_CLASS};
1469:..\..\mruby_c2\Design01.cydsn/vm.c ****   ret.cls = cls;
1470:..\..\mruby_c2\Design01.cydsn/vm.c **** 
1471:..\..\mruby_c2\Design01.cydsn/vm.c ****   regs[ra] = ret;
1472:..\..\mruby_c2\Design01.cydsn/vm.c **** 
1473:..\..\mruby_c2\Design01.cydsn/vm.c ****   return 0;
1474:..\..\mruby_c2\Design01.cydsn/vm.c **** }
1475:..\..\mruby_c2\Design01.cydsn/vm.c **** 
1476:..\..\mruby_c2\Design01.cydsn/vm.c **** 
1477:..\..\mruby_c2\Design01.cydsn/vm.c **** //================================================================
1478:..\..\mruby_c2\Design01.cydsn/vm.c **** /*!@brief
1479:..\..\mruby_c2\Design01.cydsn/vm.c ****   Execute OP_EXEC
1480:..\..\mruby_c2\Design01.cydsn/vm.c **** 
1481:..\..\mruby_c2\Design01.cydsn/vm.c ****   R(A) := blockexec(R(A),SEQ[Bx])
1482:..\..\mruby_c2\Design01.cydsn/vm.c **** 
1483:..\..\mruby_c2\Design01.cydsn/vm.c ****   @param  vm    A pointer of VM.
1484:..\..\mruby_c2\Design01.cydsn/vm.c ****   @param  code  bytecode
ARM GAS  C:\Users\164\AppData\Local\Temp\cc4PZf78.s 			page 35


1485:..\..\mruby_c2\Design01.cydsn/vm.c ****   @param  regs  vm->regs + vm->reg_top
1486:..\..\mruby_c2\Design01.cydsn/vm.c ****   @retval 0  No error.
1487:..\..\mruby_c2\Design01.cydsn/vm.c **** */
1488:..\..\mruby_c2\Design01.cydsn/vm.c **** inline static int op_exec( mrb_vm *vm, uint32_t code, mrb_value *regs )
1489:..\..\mruby_c2\Design01.cydsn/vm.c **** {
1490:..\..\mruby_c2\Design01.cydsn/vm.c ****   int ra = GETARG_A(code);
1491:..\..\mruby_c2\Design01.cydsn/vm.c ****   int rb = GETARG_Bx(code);
1492:..\..\mruby_c2\Design01.cydsn/vm.c **** 
1493:..\..\mruby_c2\Design01.cydsn/vm.c ****   mrb_value recv = regs[ra];
1494:..\..\mruby_c2\Design01.cydsn/vm.c **** 
1495:..\..\mruby_c2\Design01.cydsn/vm.c ****   // prepare callinfo
1496:..\..\mruby_c2\Design01.cydsn/vm.c ****   mrb_callinfo *callinfo = vm->callinfo + vm->callinfo_top;
1497:..\..\mruby_c2\Design01.cydsn/vm.c ****   callinfo->current_regs = vm->current_regs;
1498:..\..\mruby_c2\Design01.cydsn/vm.c ****   callinfo->pc_irep = vm->pc_irep;
1499:..\..\mruby_c2\Design01.cydsn/vm.c ****   callinfo->pc = vm->pc;
1500:..\..\mruby_c2\Design01.cydsn/vm.c ****   callinfo->target_class = vm->target_class;
1501:..\..\mruby_c2\Design01.cydsn/vm.c ****   callinfo->n_args = 0;
1502:..\..\mruby_c2\Design01.cydsn/vm.c ****   vm->callinfo_top++;
1503:..\..\mruby_c2\Design01.cydsn/vm.c **** 
1504:..\..\mruby_c2\Design01.cydsn/vm.c ****   // target irep
1505:..\..\mruby_c2\Design01.cydsn/vm.c ****   vm->pc = 0;
1506:..\..\mruby_c2\Design01.cydsn/vm.c ****   vm->pc_irep = vm->irep->reps[rb];
1507:..\..\mruby_c2\Design01.cydsn/vm.c **** 
1508:..\..\mruby_c2\Design01.cydsn/vm.c ****   // new regs
1509:..\..\mruby_c2\Design01.cydsn/vm.c ****   vm->current_regs += ra;
1510:..\..\mruby_c2\Design01.cydsn/vm.c **** 
1511:..\..\mruby_c2\Design01.cydsn/vm.c ****   vm->target_class = find_class_by_object(vm, &recv);
1512:..\..\mruby_c2\Design01.cydsn/vm.c **** 
1513:..\..\mruby_c2\Design01.cydsn/vm.c ****   return 0;
1514:..\..\mruby_c2\Design01.cydsn/vm.c **** }
1515:..\..\mruby_c2\Design01.cydsn/vm.c **** 
1516:..\..\mruby_c2\Design01.cydsn/vm.c **** 
1517:..\..\mruby_c2\Design01.cydsn/vm.c **** 
1518:..\..\mruby_c2\Design01.cydsn/vm.c **** //================================================================
1519:..\..\mruby_c2\Design01.cydsn/vm.c **** /*!@brief
1520:..\..\mruby_c2\Design01.cydsn/vm.c ****   Execute OP_METHOD
1521:..\..\mruby_c2\Design01.cydsn/vm.c **** 
1522:..\..\mruby_c2\Design01.cydsn/vm.c ****   R(A).newmethod(Syms(B),R(A+1))
1523:..\..\mruby_c2\Design01.cydsn/vm.c **** 
1524:..\..\mruby_c2\Design01.cydsn/vm.c ****   @param  vm    A pointer of VM.
1525:..\..\mruby_c2\Design01.cydsn/vm.c ****   @param  code  bytecode
1526:..\..\mruby_c2\Design01.cydsn/vm.c ****   @param  regs  vm->regs + vm->reg_top
1527:..\..\mruby_c2\Design01.cydsn/vm.c ****   @retval 0  No error.
1528:..\..\mruby_c2\Design01.cydsn/vm.c **** */
1529:..\..\mruby_c2\Design01.cydsn/vm.c **** inline static int op_method( mrb_vm *vm, uint32_t code, mrb_value *regs )
1530:..\..\mruby_c2\Design01.cydsn/vm.c **** {
1531:..\..\mruby_c2\Design01.cydsn/vm.c ****   int ra = GETARG_A(code);
1532:..\..\mruby_c2\Design01.cydsn/vm.c ****   int rb = GETARG_B(code);
1533:..\..\mruby_c2\Design01.cydsn/vm.c ****   mrb_proc *proc = regs[ra+1].proc;
1534:..\..\mruby_c2\Design01.cydsn/vm.c **** 
1535:..\..\mruby_c2\Design01.cydsn/vm.c ****   if( regs[ra].tt == MRB_TT_CLASS ) {
1536:..\..\mruby_c2\Design01.cydsn/vm.c ****     mrb_class *cls = regs[ra].cls;
1537:..\..\mruby_c2\Design01.cydsn/vm.c **** 
1538:..\..\mruby_c2\Design01.cydsn/vm.c ****     // sym_id : method name
1539:..\..\mruby_c2\Design01.cydsn/vm.c ****     mrb_irep *cur_irep = vm->pc_irep;
1540:..\..\mruby_c2\Design01.cydsn/vm.c ****     const char *sym_name = mrbc_get_irep_symbol(cur_irep->ptr_to_sym, rb);
1541:..\..\mruby_c2\Design01.cydsn/vm.c ****     int sym_id = str_to_symid(sym_name);
ARM GAS  C:\Users\164\AppData\Local\Temp\cc4PZf78.s 			page 36


1542:..\..\mruby_c2\Design01.cydsn/vm.c **** 
1543:..\..\mruby_c2\Design01.cydsn/vm.c ****     // check same name method
1544:..\..\mruby_c2\Design01.cydsn/vm.c ****     mrb_proc *p = cls->procs;
1545:..\..\mruby_c2\Design01.cydsn/vm.c ****     void *pp = &cls->procs;
1546:..\..\mruby_c2\Design01.cydsn/vm.c ****     while( p != NULL ) {
1547:..\..\mruby_c2\Design01.cydsn/vm.c ****       if( p->sym_id == sym_id ) break;
1548:..\..\mruby_c2\Design01.cydsn/vm.c ****       pp = &p->next;
1549:..\..\mruby_c2\Design01.cydsn/vm.c ****       p = p->next;
1550:..\..\mruby_c2\Design01.cydsn/vm.c ****     }
1551:..\..\mruby_c2\Design01.cydsn/vm.c ****     if( p ) {
1552:..\..\mruby_c2\Design01.cydsn/vm.c ****       // found it.
1553:..\..\mruby_c2\Design01.cydsn/vm.c ****       *((mrb_proc**)pp) = p->next;
1554:..\..\mruby_c2\Design01.cydsn/vm.c ****       if( !p->c_func ) {
1555:..\..\mruby_c2\Design01.cydsn/vm.c **** 	mrb_value v = {.tt = MRB_TT_PROC};
1556:..\..\mruby_c2\Design01.cydsn/vm.c **** 	v.proc = p;
1557:..\..\mruby_c2\Design01.cydsn/vm.c **** 	mrbc_release(&v);
1558:..\..\mruby_c2\Design01.cydsn/vm.c ****       }
1559:..\..\mruby_c2\Design01.cydsn/vm.c ****     }
1560:..\..\mruby_c2\Design01.cydsn/vm.c **** 
1561:..\..\mruby_c2\Design01.cydsn/vm.c ****     // add proc to class
1562:..\..\mruby_c2\Design01.cydsn/vm.c ****     proc->c_func = 0;
1563:..\..\mruby_c2\Design01.cydsn/vm.c ****     proc->sym_id = sym_id;
1564:..\..\mruby_c2\Design01.cydsn/vm.c **** #ifdef MRBC_DEBUG
1565:..\..\mruby_c2\Design01.cydsn/vm.c ****     proc->names = sym_name;		// debug only.
1566:..\..\mruby_c2\Design01.cydsn/vm.c **** #endif
1567:..\..\mruby_c2\Design01.cydsn/vm.c ****     proc->next = cls->procs;
1568:..\..\mruby_c2\Design01.cydsn/vm.c ****     cls->procs = proc;
1569:..\..\mruby_c2\Design01.cydsn/vm.c **** 
1570:..\..\mruby_c2\Design01.cydsn/vm.c ****     mrbc_set_vm_id(proc, 0);
1571:..\..\mruby_c2\Design01.cydsn/vm.c ****     regs[ra+1].tt = MRB_TT_EMPTY;
1572:..\..\mruby_c2\Design01.cydsn/vm.c ****   }
1573:..\..\mruby_c2\Design01.cydsn/vm.c **** 
1574:..\..\mruby_c2\Design01.cydsn/vm.c ****   return 0;
1575:..\..\mruby_c2\Design01.cydsn/vm.c **** }
1576:..\..\mruby_c2\Design01.cydsn/vm.c **** 
1577:..\..\mruby_c2\Design01.cydsn/vm.c **** 
1578:..\..\mruby_c2\Design01.cydsn/vm.c **** //================================================================
1579:..\..\mruby_c2\Design01.cydsn/vm.c **** /*!@brief
1580:..\..\mruby_c2\Design01.cydsn/vm.c ****   Execute OP_TCLASS
1581:..\..\mruby_c2\Design01.cydsn/vm.c **** 
1582:..\..\mruby_c2\Design01.cydsn/vm.c ****   R(A) := target_class
1583:..\..\mruby_c2\Design01.cydsn/vm.c **** 
1584:..\..\mruby_c2\Design01.cydsn/vm.c ****   @param  vm    A pointer of VM.
1585:..\..\mruby_c2\Design01.cydsn/vm.c ****   @param  code  bytecode
1586:..\..\mruby_c2\Design01.cydsn/vm.c ****   @param  regs  vm->regs + vm->reg_top
1587:..\..\mruby_c2\Design01.cydsn/vm.c ****   @retval 0  No error.
1588:..\..\mruby_c2\Design01.cydsn/vm.c **** */
1589:..\..\mruby_c2\Design01.cydsn/vm.c **** inline static int op_tclass( mrb_vm *vm, uint32_t code, mrb_value *regs )
1590:..\..\mruby_c2\Design01.cydsn/vm.c **** {
1591:..\..\mruby_c2\Design01.cydsn/vm.c ****   int ra = GETARG_A(code);
1592:..\..\mruby_c2\Design01.cydsn/vm.c **** 
1593:..\..\mruby_c2\Design01.cydsn/vm.c ****   mrbc_release(&regs[ra]);
1594:..\..\mruby_c2\Design01.cydsn/vm.c ****   regs[ra].tt = MRB_TT_CLASS;
1595:..\..\mruby_c2\Design01.cydsn/vm.c ****   regs[ra].cls = vm->target_class;
1596:..\..\mruby_c2\Design01.cydsn/vm.c **** 
1597:..\..\mruby_c2\Design01.cydsn/vm.c ****   return 0;
1598:..\..\mruby_c2\Design01.cydsn/vm.c **** }
ARM GAS  C:\Users\164\AppData\Local\Temp\cc4PZf78.s 			page 37


1599:..\..\mruby_c2\Design01.cydsn/vm.c **** 
1600:..\..\mruby_c2\Design01.cydsn/vm.c **** 
1601:..\..\mruby_c2\Design01.cydsn/vm.c **** //================================================================
1602:..\..\mruby_c2\Design01.cydsn/vm.c **** /*!@brief
1603:..\..\mruby_c2\Design01.cydsn/vm.c ****   Execute OP_STOP and OP_ABORT
1604:..\..\mruby_c2\Design01.cydsn/vm.c **** 
1605:..\..\mruby_c2\Design01.cydsn/vm.c ****   stop VM (OP_STOP)
1606:..\..\mruby_c2\Design01.cydsn/vm.c ****   stop VM without release memory (OP_ABORT)
1607:..\..\mruby_c2\Design01.cydsn/vm.c **** 
1608:..\..\mruby_c2\Design01.cydsn/vm.c ****   @param  vm    A pointer of VM.
1609:..\..\mruby_c2\Design01.cydsn/vm.c ****   @param  code  bytecode
1610:..\..\mruby_c2\Design01.cydsn/vm.c ****   @param  regs  vm->regs + vm->reg_top
1611:..\..\mruby_c2\Design01.cydsn/vm.c ****   @retval -1  No error and exit from vm.
1612:..\..\mruby_c2\Design01.cydsn/vm.c **** */
1613:..\..\mruby_c2\Design01.cydsn/vm.c **** inline static int op_stop( mrb_vm *vm, uint32_t code, mrb_value *regs )
1614:..\..\mruby_c2\Design01.cydsn/vm.c **** {
1615:..\..\mruby_c2\Design01.cydsn/vm.c ****   if( GET_OPCODE(code) == OP_STOP ) {
1616:..\..\mruby_c2\Design01.cydsn/vm.c ****     int i;
1617:..\..\mruby_c2\Design01.cydsn/vm.c ****     for( i = 0; i < MAX_REGS_SIZE; i++ ) {
1618:..\..\mruby_c2\Design01.cydsn/vm.c ****       mrbc_release(&vm->regs[i]);
1619:..\..\mruby_c2\Design01.cydsn/vm.c ****     }
1620:..\..\mruby_c2\Design01.cydsn/vm.c ****   }
1621:..\..\mruby_c2\Design01.cydsn/vm.c **** 
1622:..\..\mruby_c2\Design01.cydsn/vm.c ****   vm->flag_preemption = 1;
1623:..\..\mruby_c2\Design01.cydsn/vm.c ****   
1624:..\..\mruby_c2\Design01.cydsn/vm.c ****   return -1;
1625:..\..\mruby_c2\Design01.cydsn/vm.c **** }
1626:..\..\mruby_c2\Design01.cydsn/vm.c **** 
1627:..\..\mruby_c2\Design01.cydsn/vm.c **** 
1628:..\..\mruby_c2\Design01.cydsn/vm.c **** //================================================================
1629:..\..\mruby_c2\Design01.cydsn/vm.c **** /*!@brief
1630:..\..\mruby_c2\Design01.cydsn/vm.c ****   Open the VM.
1631:..\..\mruby_c2\Design01.cydsn/vm.c **** 
1632:..\..\mruby_c2\Design01.cydsn/vm.c ****   @param vm     Pointer to mrb_vm or NULL.
1633:..\..\mruby_c2\Design01.cydsn/vm.c ****   @return	Pointer to mrb_vm.
1634:..\..\mruby_c2\Design01.cydsn/vm.c ****   @retval NULL	error.
1635:..\..\mruby_c2\Design01.cydsn/vm.c **** */
1636:..\..\mruby_c2\Design01.cydsn/vm.c **** mrb_vm *mrbc_vm_open(mrb_vm *vm_arg)
1637:..\..\mruby_c2\Design01.cydsn/vm.c **** {
 298              		.loc 1 1637 0
 299              		.cfi_startproc
 300              		@ args = 0, pretend = 0, frame = 0
 301              		@ frame_needed = 0, uses_anonymous_args = 0
 302              	.LVL30:
 303 0000 70B5     		push	{r4, r5, r6, lr}
 304              		.cfi_def_cfa_offset 16
 305              		.cfi_offset 4, -16
 306              		.cfi_offset 5, -12
 307              		.cfi_offset 6, -8
 308              		.cfi_offset 14, -4
 309              	.LVL31:
1638:..\..\mruby_c2\Design01.cydsn/vm.c ****   mrb_vm *vm;
1639:..\..\mruby_c2\Design01.cydsn/vm.c ****   if( (vm = vm_arg) == NULL ) {
 310              		.loc 1 1639 0
 311 0002 0646     		mov	r6, r0
 312 0004 30B9     		cbnz	r0, .L31
1640:..\..\mruby_c2\Design01.cydsn/vm.c ****     // allocate memory.
ARM GAS  C:\Users\164\AppData\Local\Temp\cc4PZf78.s 			page 38


1641:..\..\mruby_c2\Design01.cydsn/vm.c ****     vm = (mrb_vm *)mrbc_raw_alloc( sizeof(mrb_vm) );
 313              		.loc 1 1641 0
 314 0006 4FF46460 		mov	r0, #3648
 315              	.LVL32:
 316 000a FFF7FEFF 		bl	mrbc_raw_alloc
 317              	.LVL33:
1642:..\..\mruby_c2\Design01.cydsn/vm.c ****     if( vm == NULL ) return NULL;
 318              		.loc 1 1642 0
 319 000e 0546     		mov	r5, r0
 320 0010 08B9     		cbnz	r0, .L18
 321 0012 43E0     		b	.L32
 322              	.LVL34:
 323              	.L31:
1639:..\..\mruby_c2\Design01.cydsn/vm.c ****     // allocate memory.
 324              		.loc 1 1639 0
 325 0014 0546     		mov	r5, r0
 326              	.LVL35:
 327              	.L18:
1643:..\..\mruby_c2\Design01.cydsn/vm.c ****   }
1644:..\..\mruby_c2\Design01.cydsn/vm.c **** 
1645:..\..\mruby_c2\Design01.cydsn/vm.c ****   // allocate vm id.
1646:..\..\mruby_c2\Design01.cydsn/vm.c ****   int vm_id = 0;
1647:..\..\mruby_c2\Design01.cydsn/vm.c ****   int i;
1648:..\..\mruby_c2\Design01.cydsn/vm.c ****   for( i = 0; i < Num(free_vm_bitmap); i++ ) {
 328              		.loc 1 1648 0
 329 0016 0021     		movs	r1, #0
 330 0018 29E0     		b	.L20
 331              	.LVL36:
 332              	.L28:
 333              	.LBB52:
1649:..\..\mruby_c2\Design01.cydsn/vm.c ****     int n = nlz32( ~free_vm_bitmap[i] );
 334              		.loc 1 1649 0
 335 001a 224B     		ldr	r3, .L37
 336 001c 53F82100 		ldr	r0, [r3, r1, lsl #2]
 337              	.LVL37:
 338              	.LBB53:
 339              	.LBB54:
  48:..\..\mruby_c2\Design01.cydsn/vm.c **** 
 340              		.loc 1 48 0
 341 0020 C343     		mvns	r3, r0
 342              	.LVL38:
 343 0022 14D0     		beq	.L33
 344              	.LVL39:
  51:..\..\mruby_c2\Design01.cydsn/vm.c ****   if((x >> 24) == 0 ) { n +=  8; x <<=  8; }
 345              		.loc 1 51 0
 346 0024 1A0C     		lsrs	r2, r3, #16
 347 0026 02D1     		bne	.L34
 348              	.LVL40:
 349 0028 1B04     		lsls	r3, r3, #16
 350              	.LVL41:
 351 002a 1122     		movs	r2, #17
 352 002c 00E0     		b	.L22
 353              	.LVL42:
 354              	.L34:
  50:..\..\mruby_c2\Design01.cydsn/vm.c ****   if((x >> 16) == 0 ) { n += 16; x <<= 16; }
 355              		.loc 1 50 0
 356 002e 0122     		movs	r2, #1
ARM GAS  C:\Users\164\AppData\Local\Temp\cc4PZf78.s 			page 39


 357              	.LVL43:
 358              	.L22:
  52:..\..\mruby_c2\Design01.cydsn/vm.c ****   if((x >> 28) == 0 ) { n +=  4; x <<=  4; }
 359              		.loc 1 52 0
 360 0030 1C0E     		lsrs	r4, r3, #24
 361 0032 01D1     		bne	.L23
 362 0034 0832     		adds	r2, r2, #8
 363              	.LVL44:
 364 0036 1B02     		lsls	r3, r3, #8
 365              	.LVL45:
 366              	.L23:
  53:..\..\mruby_c2\Design01.cydsn/vm.c ****   if((x >> 30) == 0 ) { n +=  2; x <<=  2; }
 367              		.loc 1 53 0
 368 0038 1C0F     		lsrs	r4, r3, #28
 369 003a 01D1     		bne	.L24
 370 003c 0432     		adds	r2, r2, #4
 371              	.LVL46:
 372 003e 1B01     		lsls	r3, r3, #4
 373              	.LVL47:
 374              	.L24:
  54:..\..\mruby_c2\Design01.cydsn/vm.c ****   return n - (x >> 31);
 375              		.loc 1 54 0
 376 0040 9C0F     		lsrs	r4, r3, #30
 377 0042 01D1     		bne	.L25
 378 0044 0232     		adds	r2, r2, #2
 379              	.LVL48:
 380 0046 9B00     		lsls	r3, r3, #2
 381              	.LVL49:
 382              	.L25:
  55:..\..\mruby_c2\Design01.cydsn/vm.c **** }
 383              		.loc 1 55 0
 384 0048 02EBE373 		add	r3, r2, r3, asr #31
 385              	.LVL50:
 386 004c 00E0     		b	.L21
 387              	.LVL51:
 388              	.L33:
  48:..\..\mruby_c2\Design01.cydsn/vm.c **** 
 389              		.loc 1 48 0
 390 004e 2023     		movs	r3, #32
 391              	.LVL52:
 392              	.L21:
 393              	.LBE54:
 394              	.LBE53:
1650:..\..\mruby_c2\Design01.cydsn/vm.c ****     if( n < FREE_BITMAP_WIDTH ) {
 395              		.loc 1 1650 0
 396 0050 1F2B     		cmp	r3, #31
 397 0052 0BDC     		bgt	.L26
1651:..\..\mruby_c2\Design01.cydsn/vm.c ****       free_vm_bitmap[i] |= (1 << (FREE_BITMAP_WIDTH - n - 1));
 398              		.loc 1 1651 0
 399 0054 C3F11F04 		rsb	r4, r3, #31
 400 0058 0122     		movs	r2, #1
 401 005a A240     		lsls	r2, r2, r4
 402 005c 1043     		orrs	r0, r0, r2
 403 005e 114A     		ldr	r2, .L37
 404 0060 42F82100 		str	r0, [r2, r1, lsl #2]
1652:..\..\mruby_c2\Design01.cydsn/vm.c ****       vm_id = i * FREE_BITMAP_WIDTH + n + 1;
 405              		.loc 1 1652 0
ARM GAS  C:\Users\164\AppData\Local\Temp\cc4PZf78.s 			page 40


 406 0064 03EB4114 		add	r4, r3, r1, lsl #5
 407 0068 0134     		adds	r4, r4, #1
 408              	.LVL53:
1653:..\..\mruby_c2\Design01.cydsn/vm.c ****       break;
 409              		.loc 1 1653 0
 410 006a 03E0     		b	.L27
 411              	.LVL54:
 412              	.L26:
 413              	.LBE52:
1648:..\..\mruby_c2\Design01.cydsn/vm.c ****     int n = nlz32( ~free_vm_bitmap[i] );
 414              		.loc 1 1648 0 discriminator 2
 415 006c 0131     		adds	r1, r1, #1
 416              	.LVL55:
 417              	.L20:
1648:..\..\mruby_c2\Design01.cydsn/vm.c ****     int n = nlz32( ~free_vm_bitmap[i] );
 418              		.loc 1 1648 0 is_stmt 0 discriminator 1
 419 006e 0029     		cmp	r1, #0
 420 0070 D3D0     		beq	.L28
1646:..\..\mruby_c2\Design01.cydsn/vm.c ****   int i;
 421              		.loc 1 1646 0 is_stmt 1
 422 0072 0024     		movs	r4, #0
 423              	.LVL56:
 424              	.L27:
1654:..\..\mruby_c2\Design01.cydsn/vm.c ****     }
1655:..\..\mruby_c2\Design01.cydsn/vm.c ****   }
1656:..\..\mruby_c2\Design01.cydsn/vm.c ****   if( vm_id == 0 ) {
 425              		.loc 1 1656 0
 426 0074 2CB9     		cbnz	r4, .L29
1657:..\..\mruby_c2\Design01.cydsn/vm.c ****     if( vm_arg == NULL ) mrbc_raw_free(vm);
 427              		.loc 1 1657 0
 428 0076 9EB9     		cbnz	r6, .L35
 429              		.loc 1 1657 0 is_stmt 0 discriminator 1
 430 0078 2846     		mov	r0, r5
 431 007a FFF7FEFF 		bl	mrbc_raw_free
 432              	.LVL57:
1658:..\..\mruby_c2\Design01.cydsn/vm.c ****     return NULL;
 433              		.loc 1 1658 0 is_stmt 1 discriminator 1
 434 007e 0020     		movs	r0, #0
 435 0080 70BD     		pop	{r4, r5, r6, pc}
 436              	.LVL58:
 437              	.L29:
1659:..\..\mruby_c2\Design01.cydsn/vm.c ****   }
1660:..\..\mruby_c2\Design01.cydsn/vm.c **** 
1661:..\..\mruby_c2\Design01.cydsn/vm.c ****   // initialize attributes.
1662:..\..\mruby_c2\Design01.cydsn/vm.c ****   memset(vm, 0, sizeof(mrb_vm));	// caution: assume NULL is zero.
 438              		.loc 1 1662 0
 439 0082 4FF46462 		mov	r2, #3648
 440 0086 0021     		movs	r1, #0
 441              	.LVL59:
 442 0088 2846     		mov	r0, r5
 443 008a FFF7FEFF 		bl	memset
 444              	.LVL60:
1663:..\..\mruby_c2\Design01.cydsn/vm.c ****   if( vm_arg == NULL ) vm->flag_need_memfree = 1;
 445              		.loc 1 1663 0
 446 008e 16B9     		cbnz	r6, .L30
 447              		.loc 1 1663 0 is_stmt 0 discriminator 1
 448 0090 0123     		movs	r3, #1
ARM GAS  C:\Users\164\AppData\Local\Temp\cc4PZf78.s 			page 41


 449 0092 85F8393E 		strb	r3, [r5, #3641]
 450              	.L30:
1664:..\..\mruby_c2\Design01.cydsn/vm.c ****   vm->vm_id = vm_id;
 451              		.loc 1 1664 0 is_stmt 1
 452 0096 2C71     		strb	r4, [r5, #4]
1665:..\..\mruby_c2\Design01.cydsn/vm.c **** 
1666:..\..\mruby_c2\Design01.cydsn/vm.c ****   return vm;
 453              		.loc 1 1666 0
 454 0098 2846     		mov	r0, r5
 455 009a 70BD     		pop	{r4, r5, r6, pc}
 456              	.LVL61:
 457              	.L32:
1642:..\..\mruby_c2\Design01.cydsn/vm.c ****   }
 458              		.loc 1 1642 0
 459 009c 0020     		movs	r0, #0
 460              	.LVL62:
 461 009e 70BD     		pop	{r4, r5, r6, pc}
 462              	.LVL63:
 463              	.L35:
1658:..\..\mruby_c2\Design01.cydsn/vm.c ****   }
 464              		.loc 1 1658 0
 465 00a0 0020     		movs	r0, #0
1667:..\..\mruby_c2\Design01.cydsn/vm.c **** }
 466              		.loc 1 1667 0
 467 00a2 70BD     		pop	{r4, r5, r6, pc}
 468              	.LVL64:
 469              	.L38:
 470              		.align	2
 471              	.L37:
 472 00a4 00000000 		.word	.LANCHOR0
 473              		.cfi_endproc
 474              	.LFE142:
 475              		.size	mrbc_vm_open, .-mrbc_vm_open
 476              		.section	.text.mrbc_vm_close,"ax",%progbits
 477              		.align	2
 478              		.global	mrbc_vm_close
 479              		.thumb
 480              		.thumb_func
 481              		.type	mrbc_vm_close, %function
 482              	mrbc_vm_close:
 483              	.LFB143:
1668:..\..\mruby_c2\Design01.cydsn/vm.c **** 
1669:..\..\mruby_c2\Design01.cydsn/vm.c **** 
1670:..\..\mruby_c2\Design01.cydsn/vm.c **** 
1671:..\..\mruby_c2\Design01.cydsn/vm.c **** //================================================================
1672:..\..\mruby_c2\Design01.cydsn/vm.c **** /*!@brief
1673:..\..\mruby_c2\Design01.cydsn/vm.c ****   Close the VM.
1674:..\..\mruby_c2\Design01.cydsn/vm.c **** 
1675:..\..\mruby_c2\Design01.cydsn/vm.c ****   @param  vm  Pointer to mrb_vm
1676:..\..\mruby_c2\Design01.cydsn/vm.c **** */
1677:..\..\mruby_c2\Design01.cydsn/vm.c **** void mrbc_vm_close(mrb_vm *vm)
1678:..\..\mruby_c2\Design01.cydsn/vm.c **** {
 484              		.loc 1 1678 0
 485              		.cfi_startproc
 486              		@ args = 0, pretend = 0, frame = 0
 487              		@ frame_needed = 0, uses_anonymous_args = 0
 488              	.LVL65:
ARM GAS  C:\Users\164\AppData\Local\Temp\cc4PZf78.s 			page 42


 489 0000 10B5     		push	{r4, lr}
 490              		.cfi_def_cfa_offset 8
 491              		.cfi_offset 4, -8
 492              		.cfi_offset 14, -4
 493 0002 0446     		mov	r4, r0
1679:..\..\mruby_c2\Design01.cydsn/vm.c ****   // free vm id.
1680:..\..\mruby_c2\Design01.cydsn/vm.c ****   int i = (vm->vm_id-1) / FREE_BITMAP_WIDTH;
 494              		.loc 1 1680 0
 495 0004 0379     		ldrb	r3, [r0, #4]	@ zero_extendqisi2
 496 0006 013B     		subs	r3, r3, #1
 497 0008 1A46     		mov	r2, r3
 498 000a 002B     		cmp	r3, #0
 499 000c 01DA     		bge	.L40
 500 000e 03F11F02 		add	r2, r3, #31
 501              	.L40:
 502 0012 5211     		asrs	r2, r2, #5
 503              	.LVL66:
1681:..\..\mruby_c2\Design01.cydsn/vm.c ****   int n = (vm->vm_id-1) % FREE_BITMAP_WIDTH;
 504              		.loc 1 1681 0
 505 0014 1249     		ldr	r1, .L45
 506 0016 0B40     		ands	r3, r3, r1
 507 0018 03D5     		bpl	.L41
 508 001a 013B     		subs	r3, r3, #1
 509 001c 63F01F03 		orn	r3, r3, #31
 510 0020 0133     		adds	r3, r3, #1
 511              	.L41:
 512              	.LVL67:
1682:..\..\mruby_c2\Design01.cydsn/vm.c ****   assert( i < Num(free_vm_bitmap) );
 513              		.loc 1 1682 0
 514 0022 32B1     		cbz	r2, .L42
 515              		.loc 1 1682 0 is_stmt 0 discriminator 1
 516 0024 0F4B     		ldr	r3, .L45+4
 517              	.LVL68:
 518 0026 104A     		ldr	r2, .L45+8
 519              	.LVL69:
 520 0028 40F29261 		movw	r1, #1682
 521 002c 0F48     		ldr	r0, .L45+12
 522              	.LVL70:
 523 002e FFF7FEFF 		bl	__assert_func
 524              	.LVL71:
 525              	.L42:
1683:..\..\mruby_c2\Design01.cydsn/vm.c ****   free_vm_bitmap[i] &= ~(1 << (FREE_BITMAP_WIDTH - n - 1));
 526              		.loc 1 1683 0 is_stmt 1
 527 0032 C3F11F03 		rsb	r3, r3, #31
 528              	.LVL72:
 529 0036 0121     		movs	r1, #1
 530 0038 01FA03F3 		lsl	r3, r1, r3
 531 003c 0C48     		ldr	r0, .L45+16
 532              	.LVL73:
 533 003e 50F82210 		ldr	r1, [r0, r2, lsl #2]
 534 0042 21EA0301 		bic	r1, r1, r3
 535 0046 40F82210 		str	r1, [r0, r2, lsl #2]
1684:..\..\mruby_c2\Design01.cydsn/vm.c **** 
1685:..\..\mruby_c2\Design01.cydsn/vm.c ****   // free irep and vm
1686:..\..\mruby_c2\Design01.cydsn/vm.c ****   mrbc_irep_free( vm->irep );
 536              		.loc 1 1686 0
 537 004a 2068     		ldr	r0, [r4]
ARM GAS  C:\Users\164\AppData\Local\Temp\cc4PZf78.s 			page 43


 538 004c FFF7FEFF 		bl	mrbc_irep_free
 539              	.LVL74:
1687:..\..\mruby_c2\Design01.cydsn/vm.c ****   if( vm->flag_need_memfree ) mrbc_raw_free(vm);
 540              		.loc 1 1687 0
 541 0050 94F9393E 		ldrsb	r3, [r4, #3641]
 542 0054 13B1     		cbz	r3, .L39
 543              		.loc 1 1687 0 is_stmt 0 discriminator 1
 544 0056 2046     		mov	r0, r4
 545 0058 FFF7FEFF 		bl	mrbc_raw_free
 546              	.LVL75:
 547              	.L39:
 548 005c 10BD     		pop	{r4, pc}
 549              	.LVL76:
 550              	.L46:
 551 005e 00BF     		.align	2
 552              	.L45:
 553 0060 1F000080 		.word	-2147483617
 554 0064 10000000 		.word	.LC1
 555 0068 00000000 		.word	.LANCHOR1
 556 006c 28000000 		.word	.LC2
 557 0070 00000000 		.word	.LANCHOR0
 558              		.cfi_endproc
 559              	.LFE143:
 560              		.size	mrbc_vm_close, .-mrbc_vm_close
 561              		.section	.text.mrbc_vm_begin,"ax",%progbits
 562              		.align	2
 563              		.global	mrbc_vm_begin
 564              		.thumb
 565              		.thumb_func
 566              		.type	mrbc_vm_begin, %function
 567              	mrbc_vm_begin:
 568              	.LFB144:
1688:..\..\mruby_c2\Design01.cydsn/vm.c **** }
1689:..\..\mruby_c2\Design01.cydsn/vm.c **** 
1690:..\..\mruby_c2\Design01.cydsn/vm.c **** 
1691:..\..\mruby_c2\Design01.cydsn/vm.c **** 
1692:..\..\mruby_c2\Design01.cydsn/vm.c **** //================================================================
1693:..\..\mruby_c2\Design01.cydsn/vm.c **** /*!@brief
1694:..\..\mruby_c2\Design01.cydsn/vm.c ****   VM initializer.
1695:..\..\mruby_c2\Design01.cydsn/vm.c **** 
1696:..\..\mruby_c2\Design01.cydsn/vm.c ****   @param  vm  Pointer to VM
1697:..\..\mruby_c2\Design01.cydsn/vm.c **** */
1698:..\..\mruby_c2\Design01.cydsn/vm.c **** void mrbc_vm_begin(mrb_vm *vm)
1699:..\..\mruby_c2\Design01.cydsn/vm.c **** {
 569              		.loc 1 1699 0 is_stmt 1
 570              		.cfi_startproc
 571              		@ args = 0, pretend = 0, frame = 0
 572              		@ frame_needed = 0, uses_anonymous_args = 0
 573              	.LVL77:
 574 0000 70B5     		push	{r4, r5, r6, lr}
 575              		.cfi_def_cfa_offset 16
 576              		.cfi_offset 4, -16
 577              		.cfi_offset 5, -12
 578              		.cfi_offset 6, -8
 579              		.cfi_offset 14, -4
 580 0002 0446     		mov	r4, r0
1700:..\..\mruby_c2\Design01.cydsn/vm.c ****   vm->pc_irep = vm->irep;
ARM GAS  C:\Users\164\AppData\Local\Temp\cc4PZf78.s 			page 44


 581              		.loc 1 1700 0
 582 0004 0368     		ldr	r3, [r0]
 583 0006 C360     		str	r3, [r0, #12]
1701:..\..\mruby_c2\Design01.cydsn/vm.c ****   vm->pc = 0;
 584              		.loc 1 1701 0
 585 0008 0025     		movs	r5, #0
 586 000a 0582     		strh	r5, [r0, #16]	@ movhi
1702:..\..\mruby_c2\Design01.cydsn/vm.c ****   vm->current_regs = vm->regs;
 587              		.loc 1 1702 0
 588 000c 1830     		adds	r0, r0, #24
 589              	.LVL78:
 590 000e C4F85806 		str	r0, [r4, #1624]
1703:..\..\mruby_c2\Design01.cydsn/vm.c ****   memset(vm->regs, 0, sizeof(vm->regs));
 591              		.loc 1 1703 0
 592 0012 4FF4C862 		mov	r2, #1600
 593 0016 2946     		mov	r1, r5
 594 0018 FFF7FEFF 		bl	memset
 595              	.LVL79:
1704:..\..\mruby_c2\Design01.cydsn/vm.c **** 
1705:..\..\mruby_c2\Design01.cydsn/vm.c ****   // set self to reg[0]
1706:..\..\mruby_c2\Design01.cydsn/vm.c ****   vm->regs[0].tt = MRB_TT_CLASS;
 596              		.loc 1 1706 0
 597 001c 0723     		movs	r3, #7
 598 001e 2376     		strb	r3, [r4, #24]
1707:..\..\mruby_c2\Design01.cydsn/vm.c ****   vm->regs[0].cls = mrbc_class_object;
 599              		.loc 1 1707 0
 600 0020 094B     		ldr	r3, .L49
 601 0022 1E68     		ldr	r6, [r3]
 602 0024 2662     		str	r6, [r4, #32]
1708:..\..\mruby_c2\Design01.cydsn/vm.c **** 
1709:..\..\mruby_c2\Design01.cydsn/vm.c ****   vm->callinfo_top = 0;
 603              		.loc 1 1709 0
 604 0026 A4F85C56 		strh	r5, [r4, #1628]	@ movhi
1710:..\..\mruby_c2\Design01.cydsn/vm.c ****   memset(vm->callinfo, 0, sizeof(vm->callinfo));
 605              		.loc 1 1710 0
 606 002a 4FF4FA62 		mov	r2, #2000
 607 002e 2946     		mov	r1, r5
 608 0030 04F5CC60 		add	r0, r4, #1632
 609 0034 FFF7FEFF 		bl	memset
 610              	.LVL80:
1711:..\..\mruby_c2\Design01.cydsn/vm.c **** 
1712:..\..\mruby_c2\Design01.cydsn/vm.c ****   // target_class
1713:..\..\mruby_c2\Design01.cydsn/vm.c ****   vm->target_class = mrbc_class_object;
 611              		.loc 1 1713 0
 612 0038 C4F8306E 		str	r6, [r4, #3632]
1714:..\..\mruby_c2\Design01.cydsn/vm.c **** 
1715:..\..\mruby_c2\Design01.cydsn/vm.c ****   vm->error_code = 0;
 613              		.loc 1 1715 0
 614 003c C4F8345E 		str	r5, [r4, #3636]
1716:..\..\mruby_c2\Design01.cydsn/vm.c ****   vm->flag_preemption = 0;
 615              		.loc 1 1716 0
 616 0040 84F8385E 		strb	r5, [r4, #3640]
 617 0044 70BD     		pop	{r4, r5, r6, pc}
 618              	.LVL81:
 619              	.L50:
 620 0046 00BF     		.align	2
 621              	.L49:
ARM GAS  C:\Users\164\AppData\Local\Temp\cc4PZf78.s 			page 45


 622 0048 00000000 		.word	mrbc_class_object
 623              		.cfi_endproc
 624              	.LFE144:
 625              		.size	mrbc_vm_begin, .-mrbc_vm_begin
 626              		.section	.text.mrbc_vm_end,"ax",%progbits
 627              		.align	2
 628              		.global	mrbc_vm_end
 629              		.thumb
 630              		.thumb_func
 631              		.type	mrbc_vm_end, %function
 632              	mrbc_vm_end:
 633              	.LFB145:
1717:..\..\mruby_c2\Design01.cydsn/vm.c **** }
1718:..\..\mruby_c2\Design01.cydsn/vm.c **** 
1719:..\..\mruby_c2\Design01.cydsn/vm.c **** 
1720:..\..\mruby_c2\Design01.cydsn/vm.c **** //================================================================
1721:..\..\mruby_c2\Design01.cydsn/vm.c **** /*!@brief
1722:..\..\mruby_c2\Design01.cydsn/vm.c ****   VM finalizer.
1723:..\..\mruby_c2\Design01.cydsn/vm.c **** 
1724:..\..\mruby_c2\Design01.cydsn/vm.c ****   @param  vm  Pointer to VM
1725:..\..\mruby_c2\Design01.cydsn/vm.c **** */
1726:..\..\mruby_c2\Design01.cydsn/vm.c **** void mrbc_vm_end(mrb_vm *vm)
1727:..\..\mruby_c2\Design01.cydsn/vm.c **** {
 634              		.loc 1 1727 0
 635              		.cfi_startproc
 636              		@ args = 0, pretend = 0, frame = 0
 637              		@ frame_needed = 0, uses_anonymous_args = 0
 638              	.LVL82:
 639 0000 10B5     		push	{r4, lr}
 640              		.cfi_def_cfa_offset 8
 641              		.cfi_offset 4, -8
 642              		.cfi_offset 14, -4
 643 0002 0446     		mov	r4, r0
1728:..\..\mruby_c2\Design01.cydsn/vm.c ****   mrbc_global_clear_vm_id();
 644              		.loc 1 1728 0
 645 0004 FFF7FEFF 		bl	mrbc_global_clear_vm_id
 646              	.LVL83:
1729:..\..\mruby_c2\Design01.cydsn/vm.c ****   mrbc_free_all(vm);
 647              		.loc 1 1729 0
 648 0008 2046     		mov	r0, r4
 649 000a FFF7FEFF 		bl	mrbc_free_all
 650              	.LVL84:
 651 000e 10BD     		pop	{r4, pc}
 652              		.cfi_endproc
 653              	.LFE145:
 654              		.size	mrbc_vm_end, .-mrbc_vm_end
 655              		.global	__aeabi_i2d
 656              		.global	__aeabi_dadd
 657              		.global	__aeabi_ui2d
 658              		.global	__aeabi_dsub
 659              		.global	__aeabi_dmul
 660              		.global	__aeabi_ddiv
 661              		.global	__aeabi_dcmplt
 662              		.global	__aeabi_dcmple
 663              		.global	__aeabi_dcmpgt
 664              		.global	__aeabi_dcmpge
 665              		.section	.text.mrbc_vm_run,"ax",%progbits
ARM GAS  C:\Users\164\AppData\Local\Temp\cc4PZf78.s 			page 46


 666              		.align	2
 667              		.global	mrbc_vm_run
 668              		.thumb
 669              		.thumb_func
 670              		.type	mrbc_vm_run, %function
 671              	mrbc_vm_run:
 672              	.LFB146:
1730:..\..\mruby_c2\Design01.cydsn/vm.c **** }
1731:..\..\mruby_c2\Design01.cydsn/vm.c **** 
1732:..\..\mruby_c2\Design01.cydsn/vm.c **** 
1733:..\..\mruby_c2\Design01.cydsn/vm.c **** //================================================================
1734:..\..\mruby_c2\Design01.cydsn/vm.c **** /*!@brief
1735:..\..\mruby_c2\Design01.cydsn/vm.c ****   Fetch a bytecode and execute
1736:..\..\mruby_c2\Design01.cydsn/vm.c **** 
1737:..\..\mruby_c2\Design01.cydsn/vm.c ****   @param  vm    A pointer of VM.
1738:..\..\mruby_c2\Design01.cydsn/vm.c ****   @retval 0  No error.
1739:..\..\mruby_c2\Design01.cydsn/vm.c **** */
1740:..\..\mruby_c2\Design01.cydsn/vm.c **** int mrbc_vm_run( mrb_vm *vm )
1741:..\..\mruby_c2\Design01.cydsn/vm.c **** {
 673              		.loc 1 1741 0
 674              		.cfi_startproc
 675              		@ args = 0, pretend = 0, frame = 40
 676              		@ frame_needed = 0, uses_anonymous_args = 0
 677              	.LVL85:
 678 0000 2DE9F04F 		push	{r4, r5, r6, r7, r8, r9, r10, fp, lr}
 679              		.cfi_def_cfa_offset 36
 680              		.cfi_offset 4, -36
 681              		.cfi_offset 5, -32
 682              		.cfi_offset 6, -28
 683              		.cfi_offset 7, -24
 684              		.cfi_offset 8, -20
 685              		.cfi_offset 9, -16
 686              		.cfi_offset 10, -12
 687              		.cfi_offset 11, -8
 688              		.cfi_offset 14, -4
 689 0004 8FB0     		sub	sp, sp, #60
 690              		.cfi_def_cfa_offset 96
 691 0006 0546     		mov	r5, r0
 692              	.LVL86:
1742:..\..\mruby_c2\Design01.cydsn/vm.c ****   int ret = 0;
 693              		.loc 1 1742 0
 694 0008 0027     		movs	r7, #0
 695              	.LVL87:
 696              	.L270:
 697              	.LBB184:
1743:..\..\mruby_c2\Design01.cydsn/vm.c **** 
1744:..\..\mruby_c2\Design01.cydsn/vm.c ****   do {
1745:..\..\mruby_c2\Design01.cydsn/vm.c ****     // get one bytecode
1746:..\..\mruby_c2\Design01.cydsn/vm.c ****     uint32_t code = bin_to_uint32(vm->pc_irep->code + vm->pc * 4);
 698              		.loc 1 1746 0
 699 000a EB68     		ldr	r3, [r5, #12]
 700 000c DB68     		ldr	r3, [r3, #12]
 701 000e 2A8A     		ldrh	r2, [r5, #16]
 702              	.LVL88:
 703              	.LBB185:
 704              	.LBB186:
 119:..\..\mruby_c2\Design01.cydsn/vm.h ****   return (x << 24) | ((x & 0xff00) << 8) | ((x >> 8) & 0xff00) | (x >> 24);
ARM GAS  C:\Users\164\AppData\Local\Temp\cc4PZf78.s 			page 47


 705              		.loc 2 119 0
 706 0010 53F82210 		ldr	r1, [r3, r2, lsl #2]
 707              	.LVL89:
 120:..\..\mruby_c2\Design01.cydsn/vm.h **** #endif
 708              		.loc 2 120 0
 709 0014 0B02     		lsls	r3, r1, #8
 710              	.LVL90:
 711 0016 03F47F03 		and	r3, r3, #16711680
 712 001a 43EA0164 		orr	r4, r3, r1, lsl #24
 713 001e 0B0A     		lsrs	r3, r1, #8
 714 0020 03F47F43 		and	r3, r3, #65280
 715 0024 2343     		orrs	r3, r3, r4
 716 0026 43EA1164 		orr	r4, r3, r1, lsr #24
 717              	.LVL91:
 718              	.LBE186:
 719              	.LBE185:
1747:..\..\mruby_c2\Design01.cydsn/vm.c ****     vm->pc++;
 720              		.loc 1 1747 0
 721 002a 0132     		adds	r2, r2, #1
 722 002c 92B2     		uxth	r2, r2
 723 002e 2A82     		strh	r2, [r5, #16]	@ movhi
1748:..\..\mruby_c2\Design01.cydsn/vm.c **** 
1749:..\..\mruby_c2\Design01.cydsn/vm.c ****     // regs
1750:..\..\mruby_c2\Design01.cydsn/vm.c ****     mrb_value *regs = vm->current_regs;
 724              		.loc 1 1750 0
 725 0030 D5F85866 		ldr	r6, [r5, #1624]
 726              	.LVL92:
1751:..\..\mruby_c2\Design01.cydsn/vm.c **** 
1752:..\..\mruby_c2\Design01.cydsn/vm.c ****     // Dispatch
1753:..\..\mruby_c2\Design01.cydsn/vm.c ****     int opcode = GET_OPCODE(code);
 727              		.loc 1 1753 0
 728 0034 04F07F03 		and	r3, r4, #127
 729              	.LVL93:
1754:..\..\mruby_c2\Design01.cydsn/vm.c ****     switch( opcode ) {
 730              		.loc 1 1754 0
 731 0038 502B     		cmp	r3, #80
 732 003a 01F2C682 		bhi	.L54
 733 003e DFE813F0 		tbh	[pc, r3, lsl #1]
 734              	.L56:
 735 0042 CA0A     		.2byte	(.L271-.L56)/2
 736 0044 5100     		.2byte	(.L57-.L56)/2
 737 0046 6500     		.2byte	(.L58-.L56)/2
 738 0048 7700     		.2byte	(.L59-.L56)/2
 739 004a 8A00     		.2byte	(.L60-.L56)/2
 740 004c A000     		.2byte	(.L61-.L56)/2
 741 004e AA00     		.2byte	(.L62-.L56)/2
 742 0050 BA00     		.2byte	(.L63-.L56)/2
 743 0052 C400     		.2byte	(.L64-.L56)/2
 744 0054 CE00     		.2byte	(.L65-.L56)/2
 745 0056 E900     		.2byte	(.L66-.L56)/2
 746 0058 C40A     		.2byte	(.L54-.L56)/2
 747 005a C40A     		.2byte	(.L54-.L56)/2
 748 005c 0301     		.2byte	(.L67-.L56)/2
 749 005e 1F01     		.2byte	(.L68-.L56)/2
 750 0060 C40A     		.2byte	(.L54-.L56)/2
 751 0062 C40A     		.2byte	(.L54-.L56)/2
 752 0064 3201     		.2byte	(.L69-.L56)/2
ARM GAS  C:\Users\164\AppData\Local\Temp\cc4PZf78.s 			page 48


 753 0066 4D01     		.2byte	(.L70-.L56)/2
 754 0068 C40A     		.2byte	(.L54-.L56)/2
 755 006a C40A     		.2byte	(.L54-.L56)/2
 756 006c 5D01     		.2byte	(.L71-.L56)/2
 757 006e 7E01     		.2byte	(.L72-.L56)/2
 758 0070 9F01     		.2byte	(.L73-.L56)/2
 759 0072 A701     		.2byte	(.L74-.L56)/2
 760 0074 B501     		.2byte	(.L75-.L56)/2
 761 0076 C40A     		.2byte	(.L54-.L56)/2
 762 0078 C40A     		.2byte	(.L54-.L56)/2
 763 007a C40A     		.2byte	(.L54-.L56)/2
 764 007c C40A     		.2byte	(.L54-.L56)/2
 765 007e C40A     		.2byte	(.L54-.L56)/2
 766 0080 C40A     		.2byte	(.L54-.L56)/2
 767 0082 C301     		.2byte	(.L76-.L56)/2
 768 0084 2302     		.2byte	(.L77-.L56)/2
 769 0086 C40A     		.2byte	(.L54-.L56)/2
 770 0088 8302     		.2byte	(.L78-.L56)/2
 771 008a C40A     		.2byte	(.L54-.L56)/2
 772 008c C40A     		.2byte	(.L54-.L56)/2
 773 008e 8E02     		.2byte	(.L79-.L56)/2
 774 0090 C40A     		.2byte	(.L54-.L56)/2
 775 0092 C40A     		.2byte	(.L54-.L56)/2
 776 0094 A402     		.2byte	(.L80-.L56)/2
 777 0096 C40A     		.2byte	(.L54-.L56)/2
 778 0098 D002     		.2byte	(.L81-.L56)/2
 779 009a EA02     		.2byte	(.L82-.L56)/2
 780 009c 9103     		.2byte	(.L83-.L56)/2
 781 009e B103     		.2byte	(.L84-.L56)/2
 782 00a0 5E04     		.2byte	(.L85-.L56)/2
 783 00a2 7E04     		.2byte	(.L86-.L56)/2
 784 00a4 2C05     		.2byte	(.L87-.L56)/2
 785 00a6 DC05     		.2byte	(.L88-.L56)/2
 786 00a8 F805     		.2byte	(.L89-.L56)/2
 787 00aa B906     		.2byte	(.L90-.L56)/2
 788 00ac 7C07     		.2byte	(.L91-.L56)/2
 789 00ae 3C08     		.2byte	(.L92-.L56)/2
 790 00b0 FF08     		.2byte	(.L93-.L56)/2
 791 00b2 C40A     		.2byte	(.L54-.L56)/2
 792 00b4 C40A     		.2byte	(.L54-.L56)/2
 793 00b6 C40A     		.2byte	(.L54-.L56)/2
 794 00b8 C40A     		.2byte	(.L54-.L56)/2
 795 00ba C40A     		.2byte	(.L54-.L56)/2
 796 00bc 2A09     		.2byte	(.L94-.L56)/2
 797 00be 4D09     		.2byte	(.L95-.L56)/2
 798 00c0 C40A     		.2byte	(.L54-.L56)/2
 799 00c2 9609     		.2byte	(.L96-.L56)/2
 800 00c4 B509     		.2byte	(.L97-.L56)/2
 801 00c6 C40A     		.2byte	(.L54-.L56)/2
 802 00c8 DE09     		.2byte	(.L98-.L56)/2
 803 00ca C40A     		.2byte	(.L54-.L56)/2
 804 00cc 040A     		.2byte	(.L99-.L56)/2
 805 00ce 3D0A     		.2byte	(.L100-.L56)/2
 806 00d0 C40A     		.2byte	(.L54-.L56)/2
 807 00d2 8D0A     		.2byte	(.L101-.L56)/2
 808 00d4 C40A     		.2byte	(.L54-.L56)/2
 809 00d6 9A0A     		.2byte	(.L102-.L56)/2
ARM GAS  C:\Users\164\AppData\Local\Temp\cc4PZf78.s 			page 49


 810 00d8 C40A     		.2byte	(.L54-.L56)/2
 811 00da C40A     		.2byte	(.L54-.L56)/2
 812 00dc C40A     		.2byte	(.L54-.L56)/2
 813 00de C40A     		.2byte	(.L54-.L56)/2
 814 00e0 C40A     		.2byte	(.L54-.L56)/2
 815 00e2 AF0A     		.2byte	(.L103-.L56)/2
 816              		.p2align 1
 817              	.L57:
 818              	.LVL94:
 819              	.LBB187:
 820              	.LBB188:
 170:..\..\mruby_c2\Design01.cydsn/vm.c ****   int rb = GETARG_B(code);
 821              		.loc 1 170 0
 822 00e4 E70D     		lsrs	r7, r4, #23
 823              	.LVL95:
 171:..\..\mruby_c2\Design01.cydsn/vm.c **** 
 824              		.loc 1 171 0
 825 00e6 C4F38834 		ubfx	r4, r4, #14, #9
 826              	.LVL96:
 173:..\..\mruby_c2\Design01.cydsn/vm.c ****   mrbc_dup(&regs[rb]);
 827              		.loc 1 173 0
 828 00ea 06EB0717 		add	r7, r6, r7, lsl #4
 829              	.LVL97:
 830 00ee 3846     		mov	r0, r7
 831 00f0 FFF7FEFF 		bl	mrbc_release
 832              	.LVL98:
 174:..\..\mruby_c2\Design01.cydsn/vm.c ****   regs[ra] = regs[rb];
 833              		.loc 1 174 0
 834 00f4 06EB0416 		add	r6, r6, r4, lsl #4
 835              	.LVL99:
 836 00f8 3046     		mov	r0, r6
 837 00fa FFF7FEFF 		bl	mrbc_dup
 838              	.LVL100:
 175:..\..\mruby_c2\Design01.cydsn/vm.c **** 
 839              		.loc 1 175 0
 840 00fe 96E80F00 		ldmia	r6, {r0, r1, r2, r3}
 841 0102 87E80F00 		stmia	r7, {r0, r1, r2, r3}
 842              	.LVL101:
 843              	.LBE188:
 844              	.LBE187:
1755:..\..\mruby_c2\Design01.cydsn/vm.c ****     case OP_NOP:        ret = op_nop       (vm, code, regs); break;
1756:..\..\mruby_c2\Design01.cydsn/vm.c ****     case OP_MOVE:       ret = op_move      (vm, code, regs); break;
 845              		.loc 1 1756 0
 846 0106 0027     		movs	r7, #0
 847 0108 01F06CBA 		b	.L55
 848              	.LVL102:
 849              	.L58:
 850              	.LBB189:
 851              	.LBB190:
 194:..\..\mruby_c2\Design01.cydsn/vm.c ****   int rb = GETARG_Bx(code);
 852              		.loc 1 194 0
 853 010c E30D     		lsrs	r3, r4, #23
 854              	.LVL103:
 195:..\..\mruby_c2\Design01.cydsn/vm.c **** 
 855              		.loc 1 195 0
 856 010e C4F3CF14 		ubfx	r4, r4, #7, #16
 857              	.LVL104:
ARM GAS  C:\Users\164\AppData\Local\Temp\cc4PZf78.s 			page 50


 197:..\..\mruby_c2\Design01.cydsn/vm.c **** 
 858              		.loc 1 197 0
 859 0112 06EB0316 		add	r6, r6, r3, lsl #4
 860              	.LVL105:
 861 0116 3046     		mov	r0, r6
 862 0118 FFF7FEFF 		bl	mrbc_release
 863              	.LVL106:
 201:..\..\mruby_c2\Design01.cydsn/vm.c ****   regs[ra] = *pool_obj;
 864              		.loc 1 201 0
 865 011c EB68     		ldr	r3, [r5, #12]
 866 011e 1B69     		ldr	r3, [r3, #16]
 867 0120 53F82430 		ldr	r3, [r3, r4, lsl #2]
 868              	.LVL107:
 202:..\..\mruby_c2\Design01.cydsn/vm.c **** 
 869              		.loc 1 202 0
 870 0124 0FCB     		ldmia	r3, {r0, r1, r2, r3}
 871              	.LVL108:
 872 0126 86E80F00 		stmia	r6, {r0, r1, r2, r3}
 873              	.LVL109:
 874              	.LBE190:
 875              	.LBE189:
1757:..\..\mruby_c2\Design01.cydsn/vm.c ****     case OP_LOADL:      ret = op_loadl     (vm, code, regs); break;
 876              		.loc 1 1757 0
 877 012a 0027     		movs	r7, #0
 878 012c 01F05ABA 		b	.L55
 879              	.LVL110:
 880              	.L59:
 881              	.LBB191:
 882              	.LBB192:
 221:..\..\mruby_c2\Design01.cydsn/vm.c **** 
 883              		.loc 1 221 0
 884 0130 E70D     		lsrs	r7, r4, #23
 885              	.LVL111:
 223:..\..\mruby_c2\Design01.cydsn/vm.c ****   regs[ra].tt = MRB_TT_FIXNUM;
 886              		.loc 1 223 0
 887 0132 3F01     		lsls	r7, r7, #4
 888              	.LVL112:
 889 0134 06EB0708 		add	r8, r6, r7
 890 0138 4046     		mov	r0, r8
 891 013a FFF7FEFF 		bl	mrbc_release
 892              	.LVL113:
 224:..\..\mruby_c2\Design01.cydsn/vm.c ****   regs[ra].i = GETARG_sBx(code);
 893              		.loc 1 224 0
 894 013e 0423     		movs	r3, #4
 895 0140 F355     		strb	r3, [r6, r7]
 225:..\..\mruby_c2\Design01.cydsn/vm.c **** 
 896              		.loc 1 225 0
 897 0142 C4F3CF14 		ubfx	r4, r4, #7, #16
 898              	.LVL114:
 899 0146 A4F5FF44 		sub	r4, r4, #32640
 900 014a 7F3C     		subs	r4, r4, #127
 901 014c C8F80840 		str	r4, [r8, #8]
 902              	.LVL115:
 903              	.LBE192:
 904              	.LBE191:
1758:..\..\mruby_c2\Design01.cydsn/vm.c ****     case OP_LOADI:      ret = op_loadi     (vm, code, regs); break;
 905              		.loc 1 1758 0
ARM GAS  C:\Users\164\AppData\Local\Temp\cc4PZf78.s 			page 51


 906 0150 0027     		movs	r7, #0
 907 0152 01F047BA 		b	.L55
 908              	.LVL116:
 909              	.L60:
 910              	.LBB193:
 911              	.LBB194:
 244:..\..\mruby_c2\Design01.cydsn/vm.c ****   int rb = GETARG_Bx(code);
 912              		.loc 1 244 0
 913 0156 E70D     		lsrs	r7, r4, #23
 914              	.LVL117:
 246:..\..\mruby_c2\Design01.cydsn/vm.c ****   mrb_sym sym_id = str_to_symid(sym_name);
 915              		.loc 1 246 0
 916 0158 EB68     		ldr	r3, [r5, #12]
 917              	.LVL118:
 918 015a C4F3CF11 		ubfx	r1, r4, #7, #16
 919              	.LVL119:
 920 015e 5869     		ldr	r0, [r3, #20]
 921 0160 FFF7FEFF 		bl	mrbc_get_irep_symbol
 922              	.LVL120:
 247:..\..\mruby_c2\Design01.cydsn/vm.c **** 
 923              		.loc 1 247 0
 924 0164 FFF7FEFF 		bl	str_to_symid
 925              	.LVL121:
 926 0168 8046     		mov	r8, r0
 927              	.LVL122:
 249:..\..\mruby_c2\Design01.cydsn/vm.c ****   regs[ra].tt = MRB_TT_SYMBOL;
 928              		.loc 1 249 0
 929 016a 3C01     		lsls	r4, r7, #4
 930              	.LVL123:
 931 016c 3719     		adds	r7, r6, r4
 932              	.LVL124:
 933 016e 3846     		mov	r0, r7
 934 0170 FFF7FEFF 		bl	mrbc_release
 935              	.LVL125:
 250:..\..\mruby_c2\Design01.cydsn/vm.c ****   regs[ra].i = sym_id;
 936              		.loc 1 250 0
 937 0174 0623     		movs	r3, #6
 938 0176 3355     		strb	r3, [r6, r4]
 251:..\..\mruby_c2\Design01.cydsn/vm.c **** 
 939              		.loc 1 251 0
 940 0178 C7F80880 		str	r8, [r7, #8]
 941              	.LVL126:
 942              	.LBE194:
 943              	.LBE193:
1759:..\..\mruby_c2\Design01.cydsn/vm.c ****     case OP_LOADSYM:    ret = op_loadsym   (vm, code, regs); break;
 944              		.loc 1 1759 0
 945 017c 0027     		movs	r7, #0
 946 017e 01F031BA 		b	.L55
 947              	.LVL127:
 948              	.L61:
 949              	.LBB195:
 950              	.LBB196:
 270:..\..\mruby_c2\Design01.cydsn/vm.c **** 
 951              		.loc 1 270 0
 952 0182 E40D     		lsrs	r4, r4, #23
 953              	.LVL128:
 272:..\..\mruby_c2\Design01.cydsn/vm.c ****   regs[ra].tt = MRB_TT_NIL;
ARM GAS  C:\Users\164\AppData\Local\Temp\cc4PZf78.s 			page 52


 954              		.loc 1 272 0
 955 0184 2401     		lsls	r4, r4, #4
 956              	.LVL129:
 957 0186 3019     		adds	r0, r6, r4
 958 0188 FFF7FEFF 		bl	mrbc_release
 959              	.LVL130:
 273:..\..\mruby_c2\Design01.cydsn/vm.c **** 
 960              		.loc 1 273 0
 961 018c 0123     		movs	r3, #1
 962 018e 3355     		strb	r3, [r6, r4]
 963              	.LVL131:
 964              	.LBE196:
 965              	.LBE195:
1760:..\..\mruby_c2\Design01.cydsn/vm.c ****     case OP_LOADNIL:    ret = op_loadnil   (vm, code, regs); break;
 966              		.loc 1 1760 0
 967 0190 0027     		movs	r7, #0
 968 0192 01F027BA 		b	.L55
 969              	.LVL132:
 970              	.L62:
 971              	.LBB197:
 972              	.LBB198:
 292:..\..\mruby_c2\Design01.cydsn/vm.c **** 
 973              		.loc 1 292 0
 974 0196 E40D     		lsrs	r4, r4, #23
 975              	.LVL133:
 294:..\..\mruby_c2\Design01.cydsn/vm.c ****   mrbc_dup(&regs[0]);       // TODO: Need?
 976              		.loc 1 294 0
 977 0198 06EB0414 		add	r4, r6, r4, lsl #4
 978              	.LVL134:
 979 019c 2046     		mov	r0, r4
 980 019e FFF7FEFF 		bl	mrbc_release
 981              	.LVL135:
 295:..\..\mruby_c2\Design01.cydsn/vm.c ****   regs[ra] = regs[0];
 982              		.loc 1 295 0
 983 01a2 3046     		mov	r0, r6
 984 01a4 FFF7FEFF 		bl	mrbc_dup
 985              	.LVL136:
 296:..\..\mruby_c2\Design01.cydsn/vm.c **** 
 986              		.loc 1 296 0
 987 01a8 96E80F00 		ldmia	r6, {r0, r1, r2, r3}
 988 01ac 84E80F00 		stmia	r4, {r0, r1, r2, r3}
 989              	.LVL137:
 990              	.LBE198:
 991              	.LBE197:
1761:..\..\mruby_c2\Design01.cydsn/vm.c ****     case OP_LOADSELF:   ret = op_loadself  (vm, code, regs); break;
 992              		.loc 1 1761 0
 993 01b0 0027     		movs	r7, #0
 994 01b2 01F017BA 		b	.L55
 995              	.LVL138:
 996              	.L63:
 997              	.LBB199:
 998              	.LBB200:
 315:..\..\mruby_c2\Design01.cydsn/vm.c **** 
 999              		.loc 1 315 0
 1000 01b6 E40D     		lsrs	r4, r4, #23
 1001              	.LVL139:
 317:..\..\mruby_c2\Design01.cydsn/vm.c ****   regs[ra].tt = MRB_TT_TRUE;
ARM GAS  C:\Users\164\AppData\Local\Temp\cc4PZf78.s 			page 53


 1002              		.loc 1 317 0
 1003 01b8 2401     		lsls	r4, r4, #4
 1004              	.LVL140:
 1005 01ba 3019     		adds	r0, r6, r4
 1006 01bc FFF7FEFF 		bl	mrbc_release
 1007              	.LVL141:
 318:..\..\mruby_c2\Design01.cydsn/vm.c **** 
 1008              		.loc 1 318 0
 1009 01c0 0323     		movs	r3, #3
 1010 01c2 3355     		strb	r3, [r6, r4]
 1011              	.LVL142:
 1012              	.LBE200:
 1013              	.LBE199:
1762:..\..\mruby_c2\Design01.cydsn/vm.c ****     case OP_LOADT:      ret = op_loadt     (vm, code, regs); break;
 1014              		.loc 1 1762 0
 1015 01c4 0027     		movs	r7, #0
 1016 01c6 01F00DBA 		b	.L55
 1017              	.LVL143:
 1018              	.L64:
 1019              	.LBB201:
 1020              	.LBB202:
 337:..\..\mruby_c2\Design01.cydsn/vm.c **** 
 1021              		.loc 1 337 0
 1022 01ca E40D     		lsrs	r4, r4, #23
 1023              	.LVL144:
 339:..\..\mruby_c2\Design01.cydsn/vm.c ****   regs[ra].tt = MRB_TT_FALSE;
 1024              		.loc 1 339 0
 1025 01cc 2401     		lsls	r4, r4, #4
 1026              	.LVL145:
 1027 01ce 3019     		adds	r0, r6, r4
 1028 01d0 FFF7FEFF 		bl	mrbc_release
 1029              	.LVL146:
 340:..\..\mruby_c2\Design01.cydsn/vm.c **** 
 1030              		.loc 1 340 0
 1031 01d4 0223     		movs	r3, #2
 1032 01d6 3355     		strb	r3, [r6, r4]
 1033              	.LVL147:
 1034              	.LBE202:
 1035              	.LBE201:
1763:..\..\mruby_c2\Design01.cydsn/vm.c ****     case OP_LOADF:      ret = op_loadf     (vm, code, regs); break;
 1036              		.loc 1 1763 0
 1037 01d8 0027     		movs	r7, #0
 1038 01da 01F003BA 		b	.L55
 1039              	.LVL148:
 1040              	.L65:
 1041              	.LBB203:
 1042              	.LBB204:
 359:..\..\mruby_c2\Design01.cydsn/vm.c ****   int rb = GETARG_Bx(code);
 1043              		.loc 1 359 0
 1044 01de E70D     		lsrs	r7, r4, #23
 1045              	.LVL149:
 361:..\..\mruby_c2\Design01.cydsn/vm.c ****   mrb_sym sym_id = str_to_symid(sym_name);
 1046              		.loc 1 361 0
 1047 01e0 EB68     		ldr	r3, [r5, #12]
 1048              	.LVL150:
 1049 01e2 C4F3CF11 		ubfx	r1, r4, #7, #16
 1050              	.LVL151:
ARM GAS  C:\Users\164\AppData\Local\Temp\cc4PZf78.s 			page 54


 1051 01e6 5869     		ldr	r0, [r3, #20]
 1052 01e8 FFF7FEFF 		bl	mrbc_get_irep_symbol
 1053              	.LVL152:
 362:..\..\mruby_c2\Design01.cydsn/vm.c **** 
 1054              		.loc 1 362 0
 1055 01ec FFF7FEFF 		bl	str_to_symid
 1056              	.LVL153:
 1057 01f0 8046     		mov	r8, r0
 1058              	.LVL154:
 364:..\..\mruby_c2\Design01.cydsn/vm.c ****   regs[ra] = global_object_get(sym_id);
 1059              		.loc 1 364 0
 1060 01f2 06EB0716 		add	r6, r6, r7, lsl #4
 1061              	.LVL155:
 1062 01f6 3046     		mov	r0, r6
 1063 01f8 FFF7FEFF 		bl	mrbc_release
 1064              	.LVL156:
 365:..\..\mruby_c2\Design01.cydsn/vm.c **** 
 1065              		.loc 1 365 0
 1066 01fc 06AC     		add	r4, sp, #24
 1067              	.LVL157:
 1068 01fe 4146     		mov	r1, r8
 1069 0200 2046     		mov	r0, r4
 1070 0202 FFF7FEFF 		bl	global_object_get
 1071              	.LVL158:
 1072 0206 94E80F00 		ldmia	r4, {r0, r1, r2, r3}
 1073 020a 86E80F00 		stmia	r6, {r0, r1, r2, r3}
 1074              	.LVL159:
 1075              	.LBE204:
 1076              	.LBE203:
1764:..\..\mruby_c2\Design01.cydsn/vm.c ****     case OP_GETGLOBAL:  ret = op_getglobal (vm, code, regs); break;
 1077              		.loc 1 1764 0
 1078 020e 0027     		movs	r7, #0
 1079              	.LVL160:
 1080 0210 01F0E8B9 		b	.L55
 1081              	.LVL161:
 1082              	.L66:
 1083              	.LBB205:
 1084              	.LBB206:
 384:..\..\mruby_c2\Design01.cydsn/vm.c ****   int rb = GETARG_Bx(code);
 1085              		.loc 1 384 0
 1086 0214 E70D     		lsrs	r7, r4, #23
 1087              	.LVL162:
 386:..\..\mruby_c2\Design01.cydsn/vm.c ****   mrb_sym sym_id = str_to_symid(sym_name);
 1088              		.loc 1 386 0
 1089 0216 EB68     		ldr	r3, [r5, #12]
 1090              	.LVL163:
 1091 0218 C4F3CF11 		ubfx	r1, r4, #7, #16
 1092              	.LVL164:
 1093 021c 5869     		ldr	r0, [r3, #20]
 1094 021e FFF7FEFF 		bl	mrbc_get_irep_symbol
 1095              	.LVL165:
 387:..\..\mruby_c2\Design01.cydsn/vm.c ****   global_object_add(sym_id, regs[ra]);
 1096              		.loc 1 387 0
 1097 0222 FFF7FEFF 		bl	str_to_symid
 1098              	.LVL166:
 1099 0226 0446     		mov	r4, r0
 1100              	.LVL167:
ARM GAS  C:\Users\164\AppData\Local\Temp\cc4PZf78.s 			page 55


 388:..\..\mruby_c2\Design01.cydsn/vm.c **** 
 1101              		.loc 1 388 0
 1102 0228 06EB0716 		add	r6, r6, r7, lsl #4
 1103              	.LVL168:
 1104 022c 06F10803 		add	r3, r6, #8
 1105 0230 93E80300 		ldmia	r3, {r0, r1}
 1106 0234 8DE80300 		stmia	sp, {r0, r1}
 1107 0238 96E80C00 		ldmia	r6, {r2, r3}
 1108 023c 2046     		mov	r0, r4
 1109 023e FFF7FEFF 		bl	global_object_add
 1110              	.LVL169:
 1111              	.LBE206:
 1112              	.LBE205:
1765:..\..\mruby_c2\Design01.cydsn/vm.c ****     case OP_SETGLOBAL:  ret = op_setglobal (vm, code, regs); break;
 1113              		.loc 1 1765 0
 1114 0242 0027     		movs	r7, #0
 1115              	.LVL170:
 1116 0244 01F0CEB9 		b	.L55
 1117              	.LVL171:
 1118              	.L67:
 1119              	.LBB207:
 1120              	.LBB208:
 407:..\..\mruby_c2\Design01.cydsn/vm.c ****   int rb = GETARG_Bx(code);
 1121              		.loc 1 407 0
 1122 0248 E70D     		lsrs	r7, r4, #23
 1123              	.LVL172:
 410:..\..\mruby_c2\Design01.cydsn/vm.c ****   mrb_sym sym_id = str_to_symid(sym_name+1);	// skip '@'
 1124              		.loc 1 410 0
 1125 024a EB68     		ldr	r3, [r5, #12]
 1126              	.LVL173:
 1127 024c C4F3CF11 		ubfx	r1, r4, #7, #16
 1128              	.LVL174:
 1129 0250 5869     		ldr	r0, [r3, #20]
 1130 0252 FFF7FEFF 		bl	mrbc_get_irep_symbol
 1131              	.LVL175:
 411:..\..\mruby_c2\Design01.cydsn/vm.c **** 
 1132              		.loc 1 411 0
 1133 0256 0130     		adds	r0, r0, #1
 1134              	.LVL176:
 1135 0258 FFF7FEFF 		bl	str_to_symid
 1136              	.LVL177:
 413:..\..\mruby_c2\Design01.cydsn/vm.c **** 
 1137              		.loc 1 413 0
 1138 025c 0AAC     		add	r4, sp, #40
 1139              	.LVL178:
 1140 025e 0246     		mov	r2, r0
 1141 0260 3146     		mov	r1, r6
 1142 0262 2046     		mov	r0, r4
 1143              	.LVL179:
 1144 0264 FFF7FEFF 		bl	mrbc_instance_getiv
 1145              	.LVL180:
 415:..\..\mruby_c2\Design01.cydsn/vm.c ****   regs[ra] = val;
 1146              		.loc 1 415 0
 1147 0268 06EB0716 		add	r6, r6, r7, lsl #4
 1148              	.LVL181:
 1149 026c 3046     		mov	r0, r6
 1150 026e FFF7FEFF 		bl	mrbc_release
ARM GAS  C:\Users\164\AppData\Local\Temp\cc4PZf78.s 			page 56


 1151              	.LVL182:
 416:..\..\mruby_c2\Design01.cydsn/vm.c **** 
 1152              		.loc 1 416 0
 1153 0272 94E80F00 		ldmia	r4, {r0, r1, r2, r3}
 1154 0276 86E80F00 		stmia	r6, {r0, r1, r2, r3}
 1155              	.LVL183:
 1156              	.LBE208:
 1157              	.LBE207:
1766:..\..\mruby_c2\Design01.cydsn/vm.c ****     case OP_GETIV:      ret = op_getiv     (vm, code, regs); break;
 1158              		.loc 1 1766 0
 1159 027a 0027     		movs	r7, #0
 1160              	.LVL184:
 1161 027c 01F0B2B9 		b	.L55
 1162              	.LVL185:
 1163              	.L68:
 1164              	.LBB209:
 1165              	.LBB210:
 435:..\..\mruby_c2\Design01.cydsn/vm.c ****   int rb = GETARG_Bx(code);
 1166              		.loc 1 435 0
 1167 0280 E70D     		lsrs	r7, r4, #23
 1168              	.LVL186:
 438:..\..\mruby_c2\Design01.cydsn/vm.c ****   mrb_sym sym_id = str_to_symid(sym_name+1);	// skip '@'
 1169              		.loc 1 438 0
 1170 0282 EB68     		ldr	r3, [r5, #12]
 1171              	.LVL187:
 1172 0284 C4F3CF11 		ubfx	r1, r4, #7, #16
 1173              	.LVL188:
 1174 0288 5869     		ldr	r0, [r3, #20]
 1175 028a FFF7FEFF 		bl	mrbc_get_irep_symbol
 1176              	.LVL189:
 439:..\..\mruby_c2\Design01.cydsn/vm.c **** 
 1177              		.loc 1 439 0
 1178 028e 0130     		adds	r0, r0, #1
 1179              	.LVL190:
 1180 0290 FFF7FEFF 		bl	str_to_symid
 1181              	.LVL191:
 441:..\..\mruby_c2\Design01.cydsn/vm.c **** 
 1182              		.loc 1 441 0
 1183 0294 06EB0712 		add	r2, r6, r7, lsl #4
 1184 0298 0146     		mov	r1, r0
 1185 029a 3046     		mov	r0, r6
 1186              	.LVL192:
 1187 029c FFF7FEFF 		bl	mrbc_instance_setiv
 1188              	.LVL193:
 1189              	.LBE210:
 1190              	.LBE209:
1767:..\..\mruby_c2\Design01.cydsn/vm.c ****     case OP_SETIV:      ret = op_setiv     (vm, code, regs); break;
 1191              		.loc 1 1767 0
 1192 02a0 0027     		movs	r7, #0
 1193              	.LVL194:
 1194 02a2 01F09FB9 		b	.L55
 1195              	.LVL195:
 1196              	.L69:
 1197              	.LBB211:
 1198              	.LBB212:
 460:..\..\mruby_c2\Design01.cydsn/vm.c ****   int rb = GETARG_Bx(code);
 1199              		.loc 1 460 0
ARM GAS  C:\Users\164\AppData\Local\Temp\cc4PZf78.s 			page 57


 1200 02a6 E70D     		lsrs	r7, r4, #23
 1201              	.LVL196:
 462:..\..\mruby_c2\Design01.cydsn/vm.c ****   mrb_sym sym_id = str_to_symid(sym_name);
 1202              		.loc 1 462 0
 1203 02a8 EB68     		ldr	r3, [r5, #12]
 1204              	.LVL197:
 1205 02aa C4F3CF11 		ubfx	r1, r4, #7, #16
 1206              	.LVL198:
 1207 02ae 5869     		ldr	r0, [r3, #20]
 1208 02b0 FFF7FEFF 		bl	mrbc_get_irep_symbol
 1209              	.LVL199:
 463:..\..\mruby_c2\Design01.cydsn/vm.c **** 
 1210              		.loc 1 463 0
 1211 02b4 FFF7FEFF 		bl	str_to_symid
 1212              	.LVL200:
 1213 02b8 8046     		mov	r8, r0
 1214              	.LVL201:
 465:..\..\mruby_c2\Design01.cydsn/vm.c ****   regs[ra] = const_object_get(sym_id);
 1215              		.loc 1 465 0
 1216 02ba 06EB0716 		add	r6, r6, r7, lsl #4
 1217              	.LVL202:
 1218 02be 3046     		mov	r0, r6
 1219 02c0 FFF7FEFF 		bl	mrbc_release
 1220              	.LVL203:
 466:..\..\mruby_c2\Design01.cydsn/vm.c **** 
 1221              		.loc 1 466 0
 1222 02c4 06AC     		add	r4, sp, #24
 1223              	.LVL204:
 1224 02c6 4146     		mov	r1, r8
 1225 02c8 2046     		mov	r0, r4
 1226 02ca FFF7FEFF 		bl	const_object_get
 1227              	.LVL205:
 1228 02ce 94E80F00 		ldmia	r4, {r0, r1, r2, r3}
 1229 02d2 86E80F00 		stmia	r6, {r0, r1, r2, r3}
 1230              	.LVL206:
 1231              	.LBE212:
 1232              	.LBE211:
1768:..\..\mruby_c2\Design01.cydsn/vm.c ****     case OP_GETCONST:   ret = op_getconst  (vm, code, regs); break;
 1233              		.loc 1 1768 0
 1234 02d6 0027     		movs	r7, #0
 1235              	.LVL207:
 1236 02d8 01F084B9 		b	.L55
 1237              	.LVL208:
 1238              	.L70:
 1239              	.LBB213:
 1240              	.LBB214:
 485:..\..\mruby_c2\Design01.cydsn/vm.c ****   int rb = GETARG_Bx(code);
 1241              		.loc 1 485 0
 1242 02dc E70D     		lsrs	r7, r4, #23
 1243              	.LVL209:
 487:..\..\mruby_c2\Design01.cydsn/vm.c ****   mrb_sym sym_id = str_to_symid(sym_name);
 1244              		.loc 1 487 0
 1245 02de EB68     		ldr	r3, [r5, #12]
 1246              	.LVL210:
 1247 02e0 C4F3CF11 		ubfx	r1, r4, #7, #16
 1248              	.LVL211:
 1249 02e4 5869     		ldr	r0, [r3, #20]
ARM GAS  C:\Users\164\AppData\Local\Temp\cc4PZf78.s 			page 58


 1250 02e6 FFF7FEFF 		bl	mrbc_get_irep_symbol
 1251              	.LVL212:
 488:..\..\mruby_c2\Design01.cydsn/vm.c ****   const_object_add(sym_id, &regs[ra]);
 1252              		.loc 1 488 0
 1253 02ea FFF7FEFF 		bl	str_to_symid
 1254              	.LVL213:
 489:..\..\mruby_c2\Design01.cydsn/vm.c **** 
 1255              		.loc 1 489 0
 1256 02ee 06EB0711 		add	r1, r6, r7, lsl #4
 1257 02f2 FFF7FEFF 		bl	const_object_add
 1258              	.LVL214:
 1259              	.LBE214:
 1260              	.LBE213:
1769:..\..\mruby_c2\Design01.cydsn/vm.c ****     case OP_SETCONST:   ret = op_setconst  (vm, code, regs); break;
 1261              		.loc 1 1769 0
 1262 02f6 0027     		movs	r7, #0
 1263              	.LVL215:
 1264 02f8 01F074B9 		b	.L55
 1265              	.LVL216:
 1266              	.L71:
 1267              	.LBB215:
 1268              	.LBB216:
 509:..\..\mruby_c2\Design01.cydsn/vm.c ****   int rb = GETARG_B(code);
 1269              		.loc 1 509 0
 1270 02fc E00D     		lsrs	r0, r4, #23
 1271              	.LVL217:
 510:..\..\mruby_c2\Design01.cydsn/vm.c ****   int rc = GETARG_C(code);   // UP
 1272              		.loc 1 510 0
 1273 02fe C4F38837 		ubfx	r7, r4, #14, #9
 1274              	.LVL218:
 511:..\..\mruby_c2\Design01.cydsn/vm.c ****   
 1275              		.loc 1 511 0
 1276 0302 C4F3C614 		ubfx	r4, r4, #7, #7
 1277              	.LVL219:
 513:..\..\mruby_c2\Design01.cydsn/vm.c ****   mrb_value *up_regs = callinfo->current_regs;
 1278              		.loc 1 513 0
 1279 0306 05F5CC63 		add	r3, r5, #1632
 1280              	.LVL220:
 1281 030a B5F85C26 		ldrh	r2, [r5, #1628]
 1282 030e 141B     		subs	r4, r2, r4
 1283              	.LVL221:
 1284 0310 04EB8404 		add	r4, r4, r4, lsl #2
 1285 0314 A200     		lsls	r2, r4, #2
 1286 0316 283A     		subs	r2, r2, #40
 1287 0318 1344     		add	r3, r3, r2
 1288              	.LVL222:
 514:..\..\mruby_c2\Design01.cydsn/vm.c ****   
 1289              		.loc 1 514 0
 1290 031a 9C68     		ldr	r4, [r3, #8]
 1291              	.LVL223:
 516:..\..\mruby_c2\Design01.cydsn/vm.c ****   mrbc_dup( &up_regs[rb] );
 1292              		.loc 1 516 0
 1293 031c 06EB0016 		add	r6, r6, r0, lsl #4
 1294              	.LVL224:
 1295 0320 3046     		mov	r0, r6
 1296              	.LVL225:
 1297 0322 FFF7FEFF 		bl	mrbc_release
ARM GAS  C:\Users\164\AppData\Local\Temp\cc4PZf78.s 			page 59


 1298              	.LVL226:
 517:..\..\mruby_c2\Design01.cydsn/vm.c ****   regs[ra] = up_regs[rb];
 1299              		.loc 1 517 0
 1300 0326 04EB0717 		add	r7, r4, r7, lsl #4
 1301              	.LVL227:
 1302 032a 3846     		mov	r0, r7
 1303 032c FFF7FEFF 		bl	mrbc_dup
 1304              	.LVL228:
 518:..\..\mruby_c2\Design01.cydsn/vm.c ****   
 1305              		.loc 1 518 0
 1306 0330 97E80F00 		ldmia	r7, {r0, r1, r2, r3}
 1307 0334 86E80F00 		stmia	r6, {r0, r1, r2, r3}
 1308              	.LVL229:
 1309              	.LBE216:
 1310              	.LBE215:
1770:..\..\mruby_c2\Design01.cydsn/vm.c ****     case OP_GETUPVAR:   ret = op_getupvar  (vm, code, regs); break;
 1311              		.loc 1 1770 0
 1312 0338 0027     		movs	r7, #0
 1313 033a 01F053B9 		b	.L55
 1314              	.LVL230:
 1315              	.L72:
 1316              	.LBB217:
 1317              	.LBB218:
 538:..\..\mruby_c2\Design01.cydsn/vm.c ****   int rb = GETARG_B(code);
 1318              		.loc 1 538 0
 1319 033e E70D     		lsrs	r7, r4, #23
 1320              	.LVL231:
 539:..\..\mruby_c2\Design01.cydsn/vm.c ****   int rc = GETARG_C(code);   // UP
 1321              		.loc 1 539 0
 1322 0340 C4F38830 		ubfx	r0, r4, #14, #9
 1323              	.LVL232:
 540:..\..\mruby_c2\Design01.cydsn/vm.c ****   
 1324              		.loc 1 540 0
 1325 0344 C4F3C614 		ubfx	r4, r4, #7, #7
 1326              	.LVL233:
 542:..\..\mruby_c2\Design01.cydsn/vm.c ****   mrb_value *up_regs = callinfo->current_regs;
 1327              		.loc 1 542 0
 1328 0348 05F5CC63 		add	r3, r5, #1632
 1329              	.LVL234:
 1330 034c B5F85C26 		ldrh	r2, [r5, #1628]
 1331 0350 141B     		subs	r4, r2, r4
 1332              	.LVL235:
 1333 0352 04EB8404 		add	r4, r4, r4, lsl #2
 1334 0356 A200     		lsls	r2, r4, #2
 1335 0358 283A     		subs	r2, r2, #40
 1336 035a 1344     		add	r3, r3, r2
 1337              	.LVL236:
 543:..\..\mruby_c2\Design01.cydsn/vm.c **** 
 1338              		.loc 1 543 0
 1339 035c 9B68     		ldr	r3, [r3, #8]
 1340              	.LVL237:
 545:..\..\mruby_c2\Design01.cydsn/vm.c ****   mrbc_dup( &regs[ra] );
 1341              		.loc 1 545 0
 1342 035e 03EB0014 		add	r4, r3, r0, lsl #4
 1343 0362 2046     		mov	r0, r4
 1344              	.LVL238:
 1345 0364 FFF7FEFF 		bl	mrbc_release
ARM GAS  C:\Users\164\AppData\Local\Temp\cc4PZf78.s 			page 60


 1346              	.LVL239:
 546:..\..\mruby_c2\Design01.cydsn/vm.c ****   up_regs[rb] = regs[ra];
 1347              		.loc 1 546 0
 1348 0368 06EB0716 		add	r6, r6, r7, lsl #4
 1349              	.LVL240:
 1350 036c 3046     		mov	r0, r6
 1351 036e FFF7FEFF 		bl	mrbc_dup
 1352              	.LVL241:
 547:..\..\mruby_c2\Design01.cydsn/vm.c **** 
 1353              		.loc 1 547 0
 1354 0372 96E80F00 		ldmia	r6, {r0, r1, r2, r3}
 1355 0376 84E80F00 		stmia	r4, {r0, r1, r2, r3}
 1356              	.LVL242:
 1357              	.LBE218:
 1358              	.LBE217:
1771:..\..\mruby_c2\Design01.cydsn/vm.c ****     case OP_SETUPVAR:   ret = op_setupvar  (vm, code, regs); break;
 1359              		.loc 1 1771 0
 1360 037a 0027     		movs	r7, #0
 1361              	.LVL243:
 1362 037c 01F032B9 		b	.L55
 1363              	.LVL244:
 1364              	.L73:
 1365              	.LBB219:
 1366              	.LBB220:
 567:..\..\mruby_c2\Design01.cydsn/vm.c ****   return 0;
 1367              		.loc 1 567 0
 1368 0380 02EBD412 		add	r2, r2, r4, lsr #7
 1369 0384 A2F50042 		sub	r2, r2, #32768
 1370 0388 2A82     		strh	r2, [r5, #16]	@ movhi
 1371              	.LVL245:
 1372              	.LBE220:
 1373              	.LBE219:
1772:..\..\mruby_c2\Design01.cydsn/vm.c ****     case OP_JMP:        ret = op_jmp       (vm, code, regs); break;
 1374              		.loc 1 1772 0
 1375 038a 0027     		movs	r7, #0
 1376 038c 01F02AB9 		b	.L55
 1377              	.LVL246:
 1378              	.L74:
 1379              	.LBB221:
 1380              	.LBB222:
 585:..\..\mruby_c2\Design01.cydsn/vm.c ****     vm->pc += GETARG_sBx(code) - 1;
 1381              		.loc 1 585 0
 1382 0390 E30D     		lsrs	r3, r4, #23
 1383              	.LVL247:
 1384 0392 1B01     		lsls	r3, r3, #4
 1385 0394 F356     		ldrsb	r3, [r6, r3]
 1386 0396 022B     		cmp	r3, #2
 1387 0398 41F31F81 		ble	.L272
 586:..\..\mruby_c2\Design01.cydsn/vm.c ****   }
 1388              		.loc 1 586 0
 1389 039c 02EBD413 		add	r3, r2, r4, lsr #7
 1390 03a0 A3F50043 		sub	r3, r3, #32768
 1391 03a4 2B82     		strh	r3, [r5, #16]	@ movhi
 1392              	.LBE222:
 1393              	.LBE221:
1773:..\..\mruby_c2\Design01.cydsn/vm.c ****     case OP_JMPIF:      ret = op_jmpif     (vm, code, regs); break;
 1394              		.loc 1 1773 0
ARM GAS  C:\Users\164\AppData\Local\Temp\cc4PZf78.s 			page 61


 1395 03a6 0027     		movs	r7, #0
 1396              	.LVL248:
 1397 03a8 01F01CB9 		b	.L55
 1398              	.LVL249:
 1399              	.L75:
 1400              	.LBB223:
 1401              	.LBB224:
 605:..\..\mruby_c2\Design01.cydsn/vm.c ****     vm->pc += GETARG_sBx(code) - 1;
 1402              		.loc 1 605 0
 1403 03ac E30D     		lsrs	r3, r4, #23
 1404              	.LVL250:
 1405 03ae 1B01     		lsls	r3, r3, #4
 1406 03b0 F356     		ldrsb	r3, [r6, r3]
 1407 03b2 022B     		cmp	r3, #2
 1408 03b4 01F31381 		bgt	.L273
 606:..\..\mruby_c2\Design01.cydsn/vm.c ****   }
 1409              		.loc 1 606 0
 1410 03b8 02EBD413 		add	r3, r2, r4, lsr #7
 1411 03bc A3F50043 		sub	r3, r3, #32768
 1412 03c0 2B82     		strh	r3, [r5, #16]	@ movhi
 1413              	.LBE224:
 1414              	.LBE223:
1774:..\..\mruby_c2\Design01.cydsn/vm.c ****     case OP_JMPNOT:     ret = op_jmpnot    (vm, code, regs); break;
 1415              		.loc 1 1774 0
 1416 03c2 0027     		movs	r7, #0
 1417              	.LVL251:
 1418 03c4 01F00EB9 		b	.L55
 1419              	.LVL252:
 1420              	.L76:
 1421              	.LBB225:
 1422              	.LBB226:
 626:..\..\mruby_c2\Design01.cydsn/vm.c ****   int rb = GETARG_B(code);  // index of method sym
 1423              		.loc 1 626 0
 1424 03c8 E70D     		lsrs	r7, r4, #23
 1425              	.LVL253:
 627:..\..\mruby_c2\Design01.cydsn/vm.c ****   int rc = GETARG_C(code);  // number of params
 1426              		.loc 1 627 0
 1427 03ca C4F3883B 		ubfx	fp, r4, #14, #9
 1428              	.LVL254:
 628:..\..\mruby_c2\Design01.cydsn/vm.c ****   mrb_value recv = regs[ra];
 1429              		.loc 1 628 0
 1430 03ce C4F3C61A 		ubfx	r10, r4, #7, #7
 1431              	.LVL255:
 629:..\..\mruby_c2\Design01.cydsn/vm.c **** 
 1432              		.loc 1 629 0
 1433 03d2 4FEA0719 		lsl	r9, r7, #4
 1434 03d6 06EB0908 		add	r8, r6, r9
 1435 03da 98E80F00 		ldmia	r8, {r0, r1, r2, r3}
 1436              	.LVL256:
 1437 03de 0DF1380E 		add	lr, sp, #56
 1438 03e2 0EE90F00 		stmdb	lr, {r0, r1, r2, r3}
 632:..\..\mruby_c2\Design01.cydsn/vm.c ****   switch( GET_OPCODE(code) ) {
 1439              		.loc 1 632 0
 1440 03e6 5744     		add	r7, r7, r10
 1441              	.LVL257:
 1442 03e8 0137     		adds	r7, r7, #1
 1443              	.LVL258:
ARM GAS  C:\Users\164\AppData\Local\Temp\cc4PZf78.s 			page 62


 633:..\..\mruby_c2\Design01.cydsn/vm.c ****   case OP_SEND:
 1444              		.loc 1 633 0
 1445 03ea 04F07F04 		and	r4, r4, #127
 1446              	.LVL259:
 1447 03ee 202C     		cmp	r4, #32
 1448 03f0 02D0     		beq	.L105
 1449 03f2 212C     		cmp	r4, #33
 1450 03f4 07D0     		beq	.L106
 1451 03f6 0CE0     		b	.L104
 1452              	.L105:
 636:..\..\mruby_c2\Design01.cydsn/vm.c ****     regs[bidx].tt = MRB_TT_NIL;
 1453              		.loc 1 636 0
 1454 03f8 3C01     		lsls	r4, r7, #4
 1455 03fa 3019     		adds	r0, r6, r4
 1456 03fc FFF7FEFF 		bl	mrbc_release
 1457              	.LVL260:
 637:..\..\mruby_c2\Design01.cydsn/vm.c ****     break;
 1458              		.loc 1 637 0
 1459 0400 0123     		movs	r3, #1
 1460 0402 3355     		strb	r3, [r6, r4]
 1461 0404 05E0     		b	.L104
 1462              	.L106:
 642:..\..\mruby_c2\Design01.cydsn/vm.c ****       // TODO: fix the following behavior
 1463              		.loc 1 642 0
 1464 0406 3B01     		lsls	r3, r7, #4
 1465 0408 F356     		ldrsb	r3, [r6, r3]
 1466 040a 012B     		cmp	r3, #1
 1467 040c 01D0     		beq	.L104
 1468 040e 152B     		cmp	r3, #21
 1469 0410 37D1     		bne	.L107
 1470              	.L104:
 654:..\..\mruby_c2\Design01.cydsn/vm.c ****   mrb_sym sym_id = str_to_symid(sym_name);
 1471              		.loc 1 654 0
 1472 0412 EB68     		ldr	r3, [r5, #12]
 1473 0414 5946     		mov	r1, fp
 1474 0416 5869     		ldr	r0, [r3, #20]
 1475 0418 FFF7FEFF 		bl	mrbc_get_irep_symbol
 1476              	.LVL261:
 1477 041c 0646     		mov	r6, r0
 1478              	.LVL262:
 655:..\..\mruby_c2\Design01.cydsn/vm.c ****   mrb_proc *m = find_method(vm, recv, sym_id);
 1479              		.loc 1 655 0
 1480 041e FFF7FEFF 		bl	str_to_symid
 1481              	.LVL263:
 656:..\..\mruby_c2\Design01.cydsn/vm.c **** 
 1482              		.loc 1 656 0
 1483 0422 0290     		str	r0, [sp, #8]
 1484 0424 0EAB     		add	r3, sp, #56
 1485 0426 13E90300 		ldmdb	r3, {r0, r1}
 1486              	.LVL264:
 1487 042a 8DE80300 		stmia	sp, {r0, r1}
 1488 042e 0AAB     		add	r3, sp, #40
 1489 0430 0CCB     		ldmia	r3, {r2, r3}
 1490 0432 2846     		mov	r0, r5
 1491 0434 FFF7FEFF 		bl	find_method
 1492              	.LVL265:
 658:..\..\mruby_c2\Design01.cydsn/vm.c ****     console_printf("No method. vtype=%d method='%s'\n", recv.tt, sym_name);
ARM GAS  C:\Users\164\AppData\Local\Temp\cc4PZf78.s 			page 63


 1493              		.loc 1 658 0
 1494 0438 0446     		mov	r4, r0
 1495 043a 30B9     		cbnz	r0, .L108
 659:..\..\mruby_c2\Design01.cydsn/vm.c ****     return 0;
 1496              		.loc 1 659 0
 1497 043c 3246     		mov	r2, r6
 1498 043e 9DF92810 		ldrsb	r1, [sp, #40]
 1499 0442 BF48     		ldr	r0, .L287
 1500              	.LVL266:
 1501 0444 FFF7FEFF 		bl	console_printf
 1502              	.LVL267:
 1503 0448 1BE0     		b	.L107
 1504              	.LVL268:
 1505              	.L108:
 664:..\..\mruby_c2\Design01.cydsn/vm.c ****     m->func(vm, regs + ra, rc);
 1506              		.loc 1 664 0
 1507 044a C378     		ldrb	r3, [r0, #3]	@ zero_extendqisi2
 1508 044c 13F0010F 		tst	r3, #1
 1509 0450 0AD0     		beq	.L109
 1510              	.LBB227:
 665:..\..\mruby_c2\Design01.cydsn/vm.c **** 
 1511              		.loc 1 665 0
 1512 0452 C368     		ldr	r3, [r0, #12]
 1513 0454 5246     		mov	r2, r10
 1514 0456 4146     		mov	r1, r8
 1515 0458 2846     		mov	r0, r5
 1516              	.LVL269:
 1517 045a 9847     		blx	r3
 1518              	.LVL270:
 667:..\..\mruby_c2\Design01.cydsn/vm.c ****     while( release_reg <= bidx ) {
 1519              		.loc 1 667 0
 1520 045c 3B46     		mov	r3, r7
 1521 045e 00E0     		b	.L110
 1522              	.LVL271:
 1523              	.L111:
 670:..\..\mruby_c2\Design01.cydsn/vm.c ****     }
 1524              		.loc 1 670 0
 1525 0460 0133     		adds	r3, r3, #1
 1526              	.LVL272:
 1527              	.L110:
 668:..\..\mruby_c2\Design01.cydsn/vm.c ****       // mrbc_release(&regs[release_reg]);
 1528              		.loc 1 668 0
 1529 0462 9F42     		cmp	r7, r3
 1530 0464 FCDA     		bge	.L111
 1531 0466 0CE0     		b	.L107
 1532              	.LVL273:
 1533              	.L109:
 1534              	.LBE227:
 677:..\..\mruby_c2\Design01.cydsn/vm.c **** 
 1535              		.loc 1 677 0
 1536 0468 5146     		mov	r1, r10
 1537 046a 2846     		mov	r0, r5
 1538              	.LVL274:
 1539 046c FFF7FEFF 		bl	mrbc_push_callinfo
 1540              	.LVL275:
 680:..\..\mruby_c2\Design01.cydsn/vm.c ****   vm->pc_irep = m->irep;
 1541              		.loc 1 680 0
ARM GAS  C:\Users\164\AppData\Local\Temp\cc4PZf78.s 			page 64


 1542 0470 0023     		movs	r3, #0
 1543 0472 2B82     		strh	r3, [r5, #16]	@ movhi
 681:..\..\mruby_c2\Design01.cydsn/vm.c **** 
 1544              		.loc 1 681 0
 1545 0474 E368     		ldr	r3, [r4, #12]
 1546 0476 EB60     		str	r3, [r5, #12]
 684:..\..\mruby_c2\Design01.cydsn/vm.c **** 
 1547              		.loc 1 684 0
 1548 0478 D5F85836 		ldr	r3, [r5, #1624]
 1549 047c 4B44     		add	r3, r3, r9
 1550 047e C5F85836 		str	r3, [r5, #1624]
 1551              	.LVL276:
 1552              	.L107:
 1553              	.LBE226:
 1554              	.LBE225:
1775:..\..\mruby_c2\Design01.cydsn/vm.c ****     case OP_SEND:       ret = op_send      (vm, code, regs); break;
 1555              		.loc 1 1775 0
 1556 0482 0027     		movs	r7, #0
 1557 0484 01F0AEB8 		b	.L55
 1558              	.LVL277:
 1559              	.L77:
 1560              	.LBB228:
 1561              	.LBB229:
 626:..\..\mruby_c2\Design01.cydsn/vm.c ****   int rb = GETARG_B(code);  // index of method sym
 1562              		.loc 1 626 0
 1563 0488 E70D     		lsrs	r7, r4, #23
 1564              	.LVL278:
 627:..\..\mruby_c2\Design01.cydsn/vm.c ****   int rc = GETARG_C(code);  // number of params
 1565              		.loc 1 627 0
 1566 048a C4F3883B 		ubfx	fp, r4, #14, #9
 1567              	.LVL279:
 628:..\..\mruby_c2\Design01.cydsn/vm.c ****   mrb_value recv = regs[ra];
 1568              		.loc 1 628 0
 1569 048e C4F3C61A 		ubfx	r10, r4, #7, #7
 1570              	.LVL280:
 629:..\..\mruby_c2\Design01.cydsn/vm.c **** 
 1571              		.loc 1 629 0
 1572 0492 4FEA0719 		lsl	r9, r7, #4
 1573 0496 06EB0908 		add	r8, r6, r9
 1574 049a 98E80F00 		ldmia	r8, {r0, r1, r2, r3}
 1575              	.LVL281:
 1576 049e 0DF1380E 		add	lr, sp, #56
 1577 04a2 0EE90F00 		stmdb	lr, {r0, r1, r2, r3}
 632:..\..\mruby_c2\Design01.cydsn/vm.c ****   switch( GET_OPCODE(code) ) {
 1578              		.loc 1 632 0
 1579 04a6 5744     		add	r7, r7, r10
 1580              	.LVL282:
 1581 04a8 0137     		adds	r7, r7, #1
 1582              	.LVL283:
 633:..\..\mruby_c2\Design01.cydsn/vm.c ****   case OP_SEND:
 1583              		.loc 1 633 0
 1584 04aa 04F07F04 		and	r4, r4, #127
 1585              	.LVL284:
 1586 04ae 202C     		cmp	r4, #32
 1587 04b0 02D0     		beq	.L113
 1588 04b2 212C     		cmp	r4, #33
 1589 04b4 07D0     		beq	.L114
ARM GAS  C:\Users\164\AppData\Local\Temp\cc4PZf78.s 			page 65


 1590 04b6 0CE0     		b	.L112
 1591              	.L113:
 636:..\..\mruby_c2\Design01.cydsn/vm.c ****     regs[bidx].tt = MRB_TT_NIL;
 1592              		.loc 1 636 0
 1593 04b8 3C01     		lsls	r4, r7, #4
 1594 04ba 3019     		adds	r0, r6, r4
 1595 04bc FFF7FEFF 		bl	mrbc_release
 1596              	.LVL285:
 637:..\..\mruby_c2\Design01.cydsn/vm.c ****     break;
 1597              		.loc 1 637 0
 1598 04c0 0123     		movs	r3, #1
 1599 04c2 3355     		strb	r3, [r6, r4]
 1600 04c4 05E0     		b	.L112
 1601              	.L114:
 642:..\..\mruby_c2\Design01.cydsn/vm.c ****       // TODO: fix the following behavior
 1602              		.loc 1 642 0
 1603 04c6 3B01     		lsls	r3, r7, #4
 1604 04c8 F356     		ldrsb	r3, [r6, r3]
 1605 04ca 012B     		cmp	r3, #1
 1606 04cc 01D0     		beq	.L112
 1607 04ce 152B     		cmp	r3, #21
 1608 04d0 37D1     		bne	.L115
 1609              	.L112:
 654:..\..\mruby_c2\Design01.cydsn/vm.c ****   mrb_sym sym_id = str_to_symid(sym_name);
 1610              		.loc 1 654 0
 1611 04d2 EB68     		ldr	r3, [r5, #12]
 1612 04d4 5946     		mov	r1, fp
 1613 04d6 5869     		ldr	r0, [r3, #20]
 1614 04d8 FFF7FEFF 		bl	mrbc_get_irep_symbol
 1615              	.LVL286:
 1616 04dc 0646     		mov	r6, r0
 1617              	.LVL287:
 655:..\..\mruby_c2\Design01.cydsn/vm.c ****   mrb_proc *m = find_method(vm, recv, sym_id);
 1618              		.loc 1 655 0
 1619 04de FFF7FEFF 		bl	str_to_symid
 1620              	.LVL288:
 656:..\..\mruby_c2\Design01.cydsn/vm.c **** 
 1621              		.loc 1 656 0
 1622 04e2 0290     		str	r0, [sp, #8]
 1623 04e4 0EAB     		add	r3, sp, #56
 1624 04e6 13E90300 		ldmdb	r3, {r0, r1}
 1625              	.LVL289:
 1626 04ea 8DE80300 		stmia	sp, {r0, r1}
 1627 04ee 0AAB     		add	r3, sp, #40
 1628 04f0 0CCB     		ldmia	r3, {r2, r3}
 1629 04f2 2846     		mov	r0, r5
 1630 04f4 FFF7FEFF 		bl	find_method
 1631              	.LVL290:
 658:..\..\mruby_c2\Design01.cydsn/vm.c ****     console_printf("No method. vtype=%d method='%s'\n", recv.tt, sym_name);
 1632              		.loc 1 658 0
 1633 04f8 0446     		mov	r4, r0
 1634 04fa 30B9     		cbnz	r0, .L116
 659:..\..\mruby_c2\Design01.cydsn/vm.c ****     return 0;
 1635              		.loc 1 659 0
 1636 04fc 3246     		mov	r2, r6
 1637 04fe 9DF92810 		ldrsb	r1, [sp, #40]
 1638 0502 8F48     		ldr	r0, .L287
ARM GAS  C:\Users\164\AppData\Local\Temp\cc4PZf78.s 			page 66


 1639              	.LVL291:
 1640 0504 FFF7FEFF 		bl	console_printf
 1641              	.LVL292:
 1642 0508 1BE0     		b	.L115
 1643              	.LVL293:
 1644              	.L116:
 664:..\..\mruby_c2\Design01.cydsn/vm.c ****     m->func(vm, regs + ra, rc);
 1645              		.loc 1 664 0
 1646 050a C378     		ldrb	r3, [r0, #3]	@ zero_extendqisi2
 1647 050c 13F0010F 		tst	r3, #1
 1648 0510 0AD0     		beq	.L117
 1649              	.LBB230:
 665:..\..\mruby_c2\Design01.cydsn/vm.c **** 
 1650              		.loc 1 665 0
 1651 0512 C368     		ldr	r3, [r0, #12]
 1652 0514 5246     		mov	r2, r10
 1653 0516 4146     		mov	r1, r8
 1654 0518 2846     		mov	r0, r5
 1655              	.LVL294:
 1656 051a 9847     		blx	r3
 1657              	.LVL295:
 667:..\..\mruby_c2\Design01.cydsn/vm.c ****     while( release_reg <= bidx ) {
 1658              		.loc 1 667 0
 1659 051c 3B46     		mov	r3, r7
 1660 051e 00E0     		b	.L118
 1661              	.LVL296:
 1662              	.L119:
 670:..\..\mruby_c2\Design01.cydsn/vm.c ****     }
 1663              		.loc 1 670 0
 1664 0520 0133     		adds	r3, r3, #1
 1665              	.LVL297:
 1666              	.L118:
 668:..\..\mruby_c2\Design01.cydsn/vm.c ****       // mrbc_release(&regs[release_reg]);
 1667              		.loc 1 668 0
 1668 0522 9F42     		cmp	r7, r3
 1669 0524 FCDA     		bge	.L119
 1670 0526 0CE0     		b	.L115
 1671              	.LVL298:
 1672              	.L117:
 1673              	.LBE230:
 677:..\..\mruby_c2\Design01.cydsn/vm.c **** 
 1674              		.loc 1 677 0
 1675 0528 5146     		mov	r1, r10
 1676 052a 2846     		mov	r0, r5
 1677              	.LVL299:
 1678 052c FFF7FEFF 		bl	mrbc_push_callinfo
 1679              	.LVL300:
 680:..\..\mruby_c2\Design01.cydsn/vm.c ****   vm->pc_irep = m->irep;
 1680              		.loc 1 680 0
 1681 0530 0023     		movs	r3, #0
 1682 0532 2B82     		strh	r3, [r5, #16]	@ movhi
 681:..\..\mruby_c2\Design01.cydsn/vm.c **** 
 1683              		.loc 1 681 0
 1684 0534 E368     		ldr	r3, [r4, #12]
 1685 0536 EB60     		str	r3, [r5, #12]
 684:..\..\mruby_c2\Design01.cydsn/vm.c **** 
 1686              		.loc 1 684 0
ARM GAS  C:\Users\164\AppData\Local\Temp\cc4PZf78.s 			page 67


 1687 0538 D5F85836 		ldr	r3, [r5, #1624]
 1688 053c 4B44     		add	r3, r3, r9
 1689 053e C5F85836 		str	r3, [r5, #1624]
 1690              	.LVL301:
 1691              	.L115:
 1692              	.LBE229:
 1693              	.LBE228:
1776:..\..\mruby_c2\Design01.cydsn/vm.c ****     case OP_SENDB:      ret = op_send      (vm, code, regs); break;  // reuse
 1694              		.loc 1 1776 0
 1695 0542 0027     		movs	r7, #0
 1696 0544 01F04EB8 		b	.L55
 1697              	.LVL302:
 1698              	.L78:
 1699              	.LBB231:
 1700              	.LBB232:
 703:..\..\mruby_c2\Design01.cydsn/vm.c **** 
 1701              		.loc 1 703 0
 1702 0548 0021     		movs	r1, #0
 1703 054a 2846     		mov	r0, r5
 1704 054c FFF7FEFF 		bl	mrbc_push_callinfo
 1705              	.LVL303:
 706:..\..\mruby_c2\Design01.cydsn/vm.c ****   vm->pc_irep = regs[0].proc->irep;
 1706              		.loc 1 706 0
 1707 0550 0027     		movs	r7, #0
 1708              	.LVL304:
 1709 0552 2F82     		strh	r7, [r5, #16]	@ movhi
 707:..\..\mruby_c2\Design01.cydsn/vm.c **** 
 1710              		.loc 1 707 0
 1711 0554 B368     		ldr	r3, [r6, #8]
 1712 0556 DB68     		ldr	r3, [r3, #12]
 1713 0558 EB60     		str	r3, [r5, #12]
 1714              	.LVL305:
 1715              	.LBE232:
 1716              	.LBE231:
1777:..\..\mruby_c2\Design01.cydsn/vm.c ****     case OP_CALL:       ret = op_call      (vm, code, regs); break;
 1717              		.loc 1 1777 0
 1718 055a 01F043B8 		b	.L55
 1719              	.LVL306:
 1720              	.L79:
 1721              	.LBB233:
 1722              	.LBB234:
 727:..\..\mruby_c2\Design01.cydsn/vm.c ****   uint32_t enter_param = GETARG_Ax(code);
 1723              		.loc 1 727 0
 1724 055e 05F5CC61 		add	r1, r5, #1632
 1725 0562 B5F85C36 		ldrh	r3, [r5, #1628]
 1726              	.LVL307:
 1727 0566 03EB8303 		add	r3, r3, r3, lsl #2
 1728 056a 9B00     		lsls	r3, r3, #2
 1729 056c 143B     		subs	r3, r3, #20
 1730 056e 0B44     		add	r3, r3, r1
 1731              	.LVL308:
 730:..\..\mruby_c2\Design01.cydsn/vm.c ****   if( def_args > 0 ){
 1732              		.loc 1 730 0
 1733 0570 C4F34461 		ubfx	r1, r4, #25, #5
 1734              	.LVL309:
 731:..\..\mruby_c2\Design01.cydsn/vm.c ****     vm->pc += callinfo->n_args - args;
 1735              		.loc 1 731 0
ARM GAS  C:\Users\164\AppData\Local\Temp\cc4PZf78.s 			page 68


 1736 0574 14F0F87F 		tst	r4, #32505856
 1737 0578 01F03380 		beq	.L274
 732:..\..\mruby_c2\Design01.cydsn/vm.c ****   }
 1738              		.loc 1 732 0
 1739 057c 1B7C     		ldrb	r3, [r3, #16]	@ zero_extendqisi2
 1740              	.LVL310:
 1741 057e 5B1A     		subs	r3, r3, r1
 1742 0580 1A44     		add	r2, r2, r3
 1743 0582 2A82     		strh	r2, [r5, #16]	@ movhi
 1744              	.LBE234:
 1745              	.LBE233:
1778:..\..\mruby_c2\Design01.cydsn/vm.c ****     case OP_ENTER:      ret = op_enter     (vm, code, regs); break;
 1746              		.loc 1 1778 0
 1747 0584 0027     		movs	r7, #0
 1748              	.LVL311:
 1749 0586 01F02DB8 		b	.L55
 1750              	.LVL312:
 1751              	.L80:
 1752              	.LBB235:
 1753              	.LBB236:
 752:..\..\mruby_c2\Design01.cydsn/vm.c ****   //  if( ra != 0 ){
 1754              		.loc 1 752 0
 1755 058a E40D     		lsrs	r4, r4, #23
 1756              	.LVL313:
 754:..\..\mruby_c2\Design01.cydsn/vm.c ****   mrbc_dup(&v);
 1757              		.loc 1 754 0
 1758 058c 06EB0414 		add	r4, r6, r4, lsl #4
 1759              	.LVL314:
 1760 0590 0AAF     		add	r7, sp, #40
 1761              	.LVL315:
 1762 0592 94E80F00 		ldmia	r4, {r0, r1, r2, r3}
 1763              	.LVL316:
 1764 0596 87E80F00 		stmia	r7, {r0, r1, r2, r3}
 755:..\..\mruby_c2\Design01.cydsn/vm.c ****   mrbc_release(&regs[0]);
 1765              		.loc 1 755 0
 1766 059a 3846     		mov	r0, r7
 1767 059c FFF7FEFF 		bl	mrbc_dup
 1768              	.LVL317:
 756:..\..\mruby_c2\Design01.cydsn/vm.c ****   regs[0] = v;
 1769              		.loc 1 756 0
 1770 05a0 3046     		mov	r0, r6
 1771 05a2 FFF7FEFF 		bl	mrbc_release
 1772              	.LVL318:
 757:..\..\mruby_c2\Design01.cydsn/vm.c ****   //  }
 1773              		.loc 1 757 0
 1774 05a6 97E80F00 		ldmia	r7, {r0, r1, r2, r3}
 1775 05aa 86E80F00 		stmia	r6, {r0, r1, r2, r3}
 760:..\..\mruby_c2\Design01.cydsn/vm.c ****   mrb_callinfo *callinfo = vm->callinfo + vm->callinfo_top;
 1776              		.loc 1 760 0
 1777 05ae B5F85C36 		ldrh	r3, [r5, #1628]
 1778 05b2 013B     		subs	r3, r3, #1
 1779 05b4 9BB2     		uxth	r3, r3
 1780 05b6 A5F85C36 		strh	r3, [r5, #1628]	@ movhi
 761:..\..\mruby_c2\Design01.cydsn/vm.c ****   mrb_value *regs_ptr = vm->current_regs;
 1781              		.loc 1 761 0
 1782 05ba 05F5CC62 		add	r2, r5, #1632
 1783 05be 03EB8303 		add	r3, r3, r3, lsl #2
ARM GAS  C:\Users\164\AppData\Local\Temp\cc4PZf78.s 			page 69


 1784 05c2 02EB8301 		add	r1, r2, r3, lsl #2
 1785              	.LVL319:
 763:..\..\mruby_c2\Design01.cydsn/vm.c ****   // clear regs and restore vm->reg_top
 1786              		.loc 1 763 0
 1787 05c6 8868     		ldr	r0, [r1, #8]
 1788 05c8 C5F85806 		str	r0, [r5, #1624]
 1789              	.LVL320:
 771:..\..\mruby_c2\Design01.cydsn/vm.c ****   vm->pc = callinfo->pc;
 1790              		.loc 1 771 0
 1791 05cc 52F82330 		ldr	r3, [r2, r3, lsl #2]
 1792 05d0 EB60     		str	r3, [r5, #12]
 772:..\..\mruby_c2\Design01.cydsn/vm.c ****   vm->target_class = callinfo->target_class;
 1793              		.loc 1 772 0
 1794 05d2 8B88     		ldrh	r3, [r1, #4]
 1795 05d4 2B82     		strh	r3, [r5, #16]	@ movhi
 773:..\..\mruby_c2\Design01.cydsn/vm.c ****   return 0;
 1796              		.loc 1 773 0
 1797 05d6 CB68     		ldr	r3, [r1, #12]
 1798 05d8 C5F8303E 		str	r3, [r5, #3632]
 1799              	.LVL321:
 1800              	.LBE236:
 1801              	.LBE235:
1779:..\..\mruby_c2\Design01.cydsn/vm.c ****     case OP_RETURN:     ret = op_return    (vm, code, regs); break;
 1802              		.loc 1 1779 0
 1803 05dc 0027     		movs	r7, #0
 1804 05de 01F001B8 		b	.L55
 1805              	.LVL322:
 1806              	.L81:
 1807              	.LBB237:
 1808              	.LBB238:
 791:..\..\mruby_c2\Design01.cydsn/vm.c **** 
 1809              		.loc 1 791 0
 1810 05e2 E40D     		lsrs	r4, r4, #23
 1811              	.LVL323:
 793:..\..\mruby_c2\Design01.cydsn/vm.c **** 
 1812              		.loc 1 793 0
 1813 05e4 06F11007 		add	r7, r6, #16
 1814              	.LVL324:
 795:..\..\mruby_c2\Design01.cydsn/vm.c ****     return -1;  // EYIELD
 1815              		.loc 1 795 0
 1816 05e8 96F91030 		ldrsb	r3, [r6, #16]
 1817              	.LVL325:
 1818 05ec 012B     		cmp	r3, #1
 1819 05ee 0ED0     		beq	.L275
 799:..\..\mruby_c2\Design01.cydsn/vm.c ****   mrbc_dup( stack );
 1820              		.loc 1 799 0
 1821 05f0 06EB0414 		add	r4, r6, r4, lsl #4
 1822              	.LVL326:
 1823 05f4 2046     		mov	r0, r4
 1824 05f6 FFF7FEFF 		bl	mrbc_release
 1825              	.LVL327:
 800:..\..\mruby_c2\Design01.cydsn/vm.c ****   regs[ra] = stack[0];
 1826              		.loc 1 800 0
 1827 05fa 3846     		mov	r0, r7
 1828 05fc FFF7FEFF 		bl	mrbc_dup
 1829              	.LVL328:
 801:..\..\mruby_c2\Design01.cydsn/vm.c **** 
ARM GAS  C:\Users\164\AppData\Local\Temp\cc4PZf78.s 			page 70


 1830              		.loc 1 801 0
 1831 0600 97E80F00 		ldmia	r7, {r0, r1, r2, r3}
 1832 0604 84E80F00 		stmia	r4, {r0, r1, r2, r3}
 803:..\..\mruby_c2\Design01.cydsn/vm.c **** }
 1833              		.loc 1 803 0
 1834 0608 0027     		movs	r7, #0
 1835              	.LVL329:
 1836 060a 00F0EBBF 		b	.L55
 1837              	.LVL330:
 1838              	.L275:
 796:..\..\mruby_c2\Design01.cydsn/vm.c ****   }
 1839              		.loc 1 796 0
 1840 060e 4FF0FF37 		mov	r7, #-1
 1841              	.LVL331:
 1842              	.LBE238:
 1843              	.LBE237:
1780:..\..\mruby_c2\Design01.cydsn/vm.c ****     case OP_BLKPUSH:    ret = op_blkpush   (vm, code, regs); break;
 1844              		.loc 1 1780 0
 1845 0612 00F0E7BF 		b	.L55
 1846              	.LVL332:
 1847              	.L82:
 1848              	.LBB239:
 1849              	.LBB240:
 821:..\..\mruby_c2\Design01.cydsn/vm.c **** 
 1850              		.loc 1 821 0
 1851 0616 E30D     		lsrs	r3, r4, #23
 1852              	.LVL333:
 823:..\..\mruby_c2\Design01.cydsn/vm.c ****     if( regs[ra+1].tt == MRB_TT_FIXNUM ) {	// in case of Fixnum, Fixnum
 1853              		.loc 1 823 0
 1854 0618 1A01     		lsls	r2, r3, #4
 1855 061a B718     		adds	r7, r6, r2
 1856              	.LVL334:
 1857 061c B156     		ldrsb	r1, [r6, r2]
 1858 061e 0429     		cmp	r1, #4
 1859 0620 1CD1     		bne	.L121
 824:..\..\mruby_c2\Design01.cydsn/vm.c ****       regs[ra].i += regs[ra+1].i;
 1860              		.loc 1 824 0
 1861 0622 581C     		adds	r0, r3, #1
 1862 0624 0001     		lsls	r0, r0, #4
 1863 0626 06EB000E 		add	lr, r6, r0
 1864 062a 3056     		ldrsb	r0, [r6, r0]
 1865 062c 0428     		cmp	r0, #4
 1866 062e 05D1     		bne	.L122
 825:..\..\mruby_c2\Design01.cydsn/vm.c ****       return 0;
 1867              		.loc 1 825 0
 1868 0630 DEF80830 		ldr	r3, [lr, #8]
 1869              	.LVL335:
 1870 0634 BA68     		ldr	r2, [r7, #8]
 1871 0636 1344     		add	r3, r3, r2
 1872 0638 BB60     		str	r3, [r7, #8]
 1873 063a 90E0     		b	.L123
 1874              	.LVL336:
 1875              	.L122:
 829:..\..\mruby_c2\Design01.cydsn/vm.c ****       regs[ra].tt = MRB_TT_FLOAT;
 1876              		.loc 1 829 0
 1877 063c 0528     		cmp	r0, #5
 1878 063e 0DD1     		bne	.L121
ARM GAS  C:\Users\164\AppData\Local\Temp\cc4PZf78.s 			page 71


 830:..\..\mruby_c2\Design01.cydsn/vm.c ****       regs[ra].d = regs[ra].i + regs[ra+1].d;
 1879              		.loc 1 830 0
 1880 0640 0523     		movs	r3, #5
 1881              	.LVL337:
 1882 0642 B354     		strb	r3, [r6, r2]
 831:..\..\mruby_c2\Design01.cydsn/vm.c ****       return 0;
 1883              		.loc 1 831 0
 1884 0644 DEE90289 		ldrd	r8, [lr, #8]
 1885 0648 B868     		ldr	r0, [r7, #8]
 1886 064a FFF7FEFF 		bl	__aeabi_i2d
 1887              	.LVL338:
 1888 064e 4246     		mov	r2, r8
 1889 0650 4B46     		mov	r3, r9
 1890 0652 FFF7FEFF 		bl	__aeabi_dadd
 1891              	.LVL339:
 1892 0656 C7E90201 		strd	r0, [r7, #8]
 1893 065a 80E0     		b	.L123
 1894              	.LVL340:
 1895              	.L121:
 835:..\..\mruby_c2\Design01.cydsn/vm.c ****     if( regs[ra+1].tt == MRB_TT_FIXNUM ) {	// in case of Float, Fixnum
 1896              		.loc 1 835 0
 1897 065c 0529     		cmp	r1, #5
 1898 065e 1ED1     		bne	.L124
 836:..\..\mruby_c2\Design01.cydsn/vm.c ****       regs[ra].d += regs[ra+1].i;
 1899              		.loc 1 836 0
 1900 0660 0133     		adds	r3, r3, #1
 1901              	.LVL341:
 1902 0662 1B01     		lsls	r3, r3, #4
 1903              	.LVL342:
 1904 0664 F218     		adds	r2, r6, r3
 1905 0666 F356     		ldrsb	r3, [r6, r3]
 1906 0668 042B     		cmp	r3, #4
 1907 066a 0BD1     		bne	.L125
 837:..\..\mruby_c2\Design01.cydsn/vm.c ****       return 0;
 1908              		.loc 1 837 0
 1909 066c 9068     		ldr	r0, [r2, #8]
 1910 066e FFF7FEFF 		bl	__aeabi_i2d
 1911              	.LVL343:
 1912 0672 0246     		mov	r2, r0
 1913 0674 0B46     		mov	r3, r1
 1914 0676 D7E90201 		ldrd	r0, [r7, #8]
 1915 067a FFF7FEFF 		bl	__aeabi_dadd
 1916              	.LVL344:
 1917 067e C7E90201 		strd	r0, [r7, #8]
 1918 0682 6CE0     		b	.L123
 1919              	.L125:
 840:..\..\mruby_c2\Design01.cydsn/vm.c ****       regs[ra].d += regs[ra+1].d;
 1920              		.loc 1 840 0
 1921 0684 052B     		cmp	r3, #5
 1922 0686 0AD1     		bne	.L124
 841:..\..\mruby_c2\Design01.cydsn/vm.c ****       return 0;
 1923              		.loc 1 841 0
 1924 0688 02F10803 		add	r3, r2, #8
 1925 068c D3E90023 		ldrd	r2, [r3]
 1926 0690 D7E90201 		ldrd	r0, [r7, #8]
 1927 0694 FFF7FEFF 		bl	__aeabi_dadd
 1928              	.LVL345:
ARM GAS  C:\Users\164\AppData\Local\Temp\cc4PZf78.s 			page 72


 1929 0698 C7E90201 		strd	r0, [r7, #8]
 1930 069c 5FE0     		b	.L123
 1931              	.L124:
 1932              	.LVL346:
 1933              	.LBB241:
 1934              	.LBB242:
 626:..\..\mruby_c2\Design01.cydsn/vm.c ****   int rb = GETARG_B(code);  // index of method sym
 1935              		.loc 1 626 0
 1936 069e E70D     		lsrs	r7, r4, #23
 1937              	.LVL347:
 627:..\..\mruby_c2\Design01.cydsn/vm.c ****   int rc = GETARG_C(code);  // number of params
 1938              		.loc 1 627 0
 1939 06a0 C4F3883B 		ubfx	fp, r4, #14, #9
 1940              	.LVL348:
 628:..\..\mruby_c2\Design01.cydsn/vm.c ****   mrb_value recv = regs[ra];
 1941              		.loc 1 628 0
 1942 06a4 C4F3C61A 		ubfx	r10, r4, #7, #7
 1943              	.LVL349:
 629:..\..\mruby_c2\Design01.cydsn/vm.c **** 
 1944              		.loc 1 629 0
 1945 06a8 4FEA0719 		lsl	r9, r7, #4
 1946 06ac 06EB0908 		add	r8, r6, r9
 1947 06b0 98E80F00 		ldmia	r8, {r0, r1, r2, r3}
 1948 06b4 0DF1380E 		add	lr, sp, #56
 1949 06b8 0EE90F00 		stmdb	lr, {r0, r1, r2, r3}
 632:..\..\mruby_c2\Design01.cydsn/vm.c ****   switch( GET_OPCODE(code) ) {
 1950              		.loc 1 632 0
 1951 06bc 5744     		add	r7, r7, r10
 1952              	.LVL350:
 1953 06be 0137     		adds	r7, r7, #1
 1954              	.LVL351:
 633:..\..\mruby_c2\Design01.cydsn/vm.c ****   case OP_SEND:
 1955              		.loc 1 633 0
 1956 06c0 04F07F04 		and	r4, r4, #127
 1957              	.LVL352:
 1958 06c4 202C     		cmp	r4, #32
 1959 06c6 02D0     		beq	.L127
 1960 06c8 212C     		cmp	r4, #33
 1961 06ca 07D0     		beq	.L128
 1962 06cc 0CE0     		b	.L126
 1963              	.L127:
 636:..\..\mruby_c2\Design01.cydsn/vm.c ****     regs[bidx].tt = MRB_TT_NIL;
 1964              		.loc 1 636 0
 1965 06ce 3C01     		lsls	r4, r7, #4
 1966 06d0 3019     		adds	r0, r6, r4
 1967 06d2 FFF7FEFF 		bl	mrbc_release
 1968              	.LVL353:
 637:..\..\mruby_c2\Design01.cydsn/vm.c ****     break;
 1969              		.loc 1 637 0
 1970 06d6 0123     		movs	r3, #1
 1971 06d8 3355     		strb	r3, [r6, r4]
 1972 06da 05E0     		b	.L126
 1973              	.L128:
 642:..\..\mruby_c2\Design01.cydsn/vm.c ****       // TODO: fix the following behavior
 1974              		.loc 1 642 0
 1975 06dc 3B01     		lsls	r3, r7, #4
 1976 06de F356     		ldrsb	r3, [r6, r3]
ARM GAS  C:\Users\164\AppData\Local\Temp\cc4PZf78.s 			page 73


 1977 06e0 012B     		cmp	r3, #1
 1978 06e2 01D0     		beq	.L126
 1979 06e4 152B     		cmp	r3, #21
 1980 06e6 3AD1     		bne	.L123
 1981              	.L126:
 654:..\..\mruby_c2\Design01.cydsn/vm.c ****   mrb_sym sym_id = str_to_symid(sym_name);
 1982              		.loc 1 654 0
 1983 06e8 EB68     		ldr	r3, [r5, #12]
 1984 06ea 5946     		mov	r1, fp
 1985 06ec 5869     		ldr	r0, [r3, #20]
 1986 06ee FFF7FEFF 		bl	mrbc_get_irep_symbol
 1987              	.LVL354:
 1988 06f2 0646     		mov	r6, r0
 1989              	.LVL355:
 655:..\..\mruby_c2\Design01.cydsn/vm.c ****   mrb_proc *m = find_method(vm, recv, sym_id);
 1990              		.loc 1 655 0
 1991 06f4 FFF7FEFF 		bl	str_to_symid
 1992              	.LVL356:
 656:..\..\mruby_c2\Design01.cydsn/vm.c **** 
 1993              		.loc 1 656 0
 1994 06f8 0290     		str	r0, [sp, #8]
 1995 06fa 0EAB     		add	r3, sp, #56
 1996 06fc 13E90300 		ldmdb	r3, {r0, r1}
 1997              	.LVL357:
 1998 0700 8DE80300 		stmia	sp, {r0, r1}
 1999 0704 0AAB     		add	r3, sp, #40
 2000 0706 0CCB     		ldmia	r3, {r2, r3}
 2001 0708 2846     		mov	r0, r5
 2002 070a FFF7FEFF 		bl	find_method
 2003              	.LVL358:
 658:..\..\mruby_c2\Design01.cydsn/vm.c ****     console_printf("No method. vtype=%d method='%s'\n", recv.tt, sym_name);
 2004              		.loc 1 658 0
 2005 070e 0446     		mov	r4, r0
 2006 0710 30B9     		cbnz	r0, .L130
 659:..\..\mruby_c2\Design01.cydsn/vm.c ****     return 0;
 2007              		.loc 1 659 0
 2008 0712 3246     		mov	r2, r6
 2009 0714 9DF92810 		ldrsb	r1, [sp, #40]
 2010 0718 0948     		ldr	r0, .L287
 2011              	.LVL359:
 2012 071a FFF7FEFF 		bl	console_printf
 2013              	.LVL360:
 2014 071e 1EE0     		b	.L123
 2015              	.LVL361:
 2016              	.L130:
 664:..\..\mruby_c2\Design01.cydsn/vm.c ****     m->func(vm, regs + ra, rc);
 2017              		.loc 1 664 0
 2018 0720 C378     		ldrb	r3, [r0, #3]	@ zero_extendqisi2
 2019 0722 13F0010F 		tst	r3, #1
 2020 0726 0DD0     		beq	.L131
 2021              	.LBB243:
 665:..\..\mruby_c2\Design01.cydsn/vm.c **** 
 2022              		.loc 1 665 0
 2023 0728 C368     		ldr	r3, [r0, #12]
 2024 072a 5246     		mov	r2, r10
 2025 072c 4146     		mov	r1, r8
 2026 072e 2846     		mov	r0, r5
ARM GAS  C:\Users\164\AppData\Local\Temp\cc4PZf78.s 			page 74


 2027              	.LVL362:
 2028 0730 9847     		blx	r3
 2029              	.LVL363:
 667:..\..\mruby_c2\Design01.cydsn/vm.c ****     while( release_reg <= bidx ) {
 2030              		.loc 1 667 0
 2031 0732 3B46     		mov	r3, r7
 2032 0734 00E0     		b	.L132
 2033              	.LVL364:
 2034              	.L133:
 670:..\..\mruby_c2\Design01.cydsn/vm.c ****     }
 2035              		.loc 1 670 0
 2036 0736 0133     		adds	r3, r3, #1
 2037              	.LVL365:
 2038              	.L132:
 668:..\..\mruby_c2\Design01.cydsn/vm.c ****       // mrbc_release(&regs[release_reg]);
 2039              		.loc 1 668 0
 2040 0738 9F42     		cmp	r7, r3
 2041 073a FCDA     		bge	.L133
 2042 073c 0FE0     		b	.L123
 2043              	.L288:
 2044 073e 00BF     		.align	2
 2045              	.L287:
 2046 0740 4C000000 		.word	.LC3
 2047              	.LVL366:
 2048              	.L131:
 2049              	.LBE243:
 677:..\..\mruby_c2\Design01.cydsn/vm.c **** 
 2050              		.loc 1 677 0
 2051 0744 5146     		mov	r1, r10
 2052 0746 2846     		mov	r0, r5
 2053              	.LVL367:
 2054 0748 FFF7FEFF 		bl	mrbc_push_callinfo
 2055              	.LVL368:
 680:..\..\mruby_c2\Design01.cydsn/vm.c ****   vm->pc_irep = m->irep;
 2056              		.loc 1 680 0
 2057 074c 0023     		movs	r3, #0
 2058 074e 2B82     		strh	r3, [r5, #16]	@ movhi
 681:..\..\mruby_c2\Design01.cydsn/vm.c **** 
 2059              		.loc 1 681 0
 2060 0750 E368     		ldr	r3, [r4, #12]
 2061 0752 EB60     		str	r3, [r5, #12]
 684:..\..\mruby_c2\Design01.cydsn/vm.c **** 
 2062              		.loc 1 684 0
 2063 0754 D5F85836 		ldr	r3, [r5, #1624]
 2064 0758 4B44     		add	r3, r3, r9
 2065 075a C5F85836 		str	r3, [r5, #1624]
 2066              	.LVL369:
 2067              	.L123:
 2068              	.LBE242:
 2069              	.LBE241:
 2070              	.LBE240:
 2071              	.LBE239:
1781:..\..\mruby_c2\Design01.cydsn/vm.c ****     case OP_ADD:        ret = op_add       (vm, code, regs); break;
 2072              		.loc 1 1781 0
 2073 075e 0027     		movs	r7, #0
 2074 0760 00F040BF 		b	.L55
 2075              	.LVL370:
ARM GAS  C:\Users\164\AppData\Local\Temp\cc4PZf78.s 			page 75


 2076              	.L83:
 2077              	.LBB244:
 2078              	.LBB245:
 866:..\..\mruby_c2\Design01.cydsn/vm.c **** 
 2079              		.loc 1 866 0
 2080 0764 E30D     		lsrs	r3, r4, #23
 2081              	.LVL371:
 868:..\..\mruby_c2\Design01.cydsn/vm.c ****     regs[ra].i += GETARG_C(code);
 2082              		.loc 1 868 0
 2083 0766 1B01     		lsls	r3, r3, #4
 2084              	.LVL372:
 2085 0768 F718     		adds	r7, r6, r3
 2086              	.LVL373:
 2087 076a F356     		ldrsb	r3, [r6, r3]
 2088 076c 042B     		cmp	r3, #4
 2089 076e 05D1     		bne	.L134
 869:..\..\mruby_c2\Design01.cydsn/vm.c ****     return 0;
 2090              		.loc 1 869 0
 2091 0770 C4F3C614 		ubfx	r4, r4, #7, #7
 2092              	.LVL374:
 2093 0774 BB68     		ldr	r3, [r7, #8]
 2094 0776 2344     		add	r3, r3, r4
 2095 0778 BB60     		str	r3, [r7, #8]
 2096 077a 10E0     		b	.L135
 2097              	.LVL375:
 2098              	.L134:
 874:..\..\mruby_c2\Design01.cydsn/vm.c ****     regs[ra].d += GETARG_C(code);
 2099              		.loc 1 874 0
 2100 077c 052B     		cmp	r3, #5
 2101 077e 0CD1     		bne	.L136
 875:..\..\mruby_c2\Design01.cydsn/vm.c ****     return 0;
 2102              		.loc 1 875 0
 2103 0780 C4F3C610 		ubfx	r0, r4, #7, #7
 2104 0784 FFF7FEFF 		bl	__aeabi_ui2d
 2105              	.LVL376:
 2106 0788 0246     		mov	r2, r0
 2107 078a 0B46     		mov	r3, r1
 2108 078c D7E90201 		ldrd	r0, [r7, #8]
 2109 0790 FFF7FEFF 		bl	__aeabi_dadd
 2110              	.LVL377:
 2111 0794 C7E90201 		strd	r0, [r7, #8]
 2112 0798 01E0     		b	.L135
 2113              	.L136:
 880:..\..\mruby_c2\Design01.cydsn/vm.c ****   return 0;
 2114              		.loc 1 880 0
 2115 079a FFF7FEFF 		bl	not_supported
 2116              	.LVL378:
 2117              	.L135:
 2118              	.LBE245:
 2119              	.LBE244:
1782:..\..\mruby_c2\Design01.cydsn/vm.c ****     case OP_ADDI:       ret = op_addi      (vm, code, regs); break;
 2120              		.loc 1 1782 0
 2121 079e 0027     		movs	r7, #0
 2122 07a0 00F020BF 		b	.L55
 2123              	.LVL379:
 2124              	.L84:
 2125              	.LBB246:
ARM GAS  C:\Users\164\AppData\Local\Temp\cc4PZf78.s 			page 76


 2126              	.LBB247:
 898:..\..\mruby_c2\Design01.cydsn/vm.c **** 
 2127              		.loc 1 898 0
 2128 07a4 4FEAD458 		lsr	r8, r4, #23
 2129              	.LVL380:
 900:..\..\mruby_c2\Design01.cydsn/vm.c ****     if( regs[ra+1].tt == MRB_TT_FIXNUM ) {	// in case of Fixnum, Fixnum
 2130              		.loc 1 900 0
 2131 07a8 4FEA0813 		lsl	r3, r8, #4
 2132              	.LVL381:
 2133 07ac F718     		adds	r7, r6, r3
 2134              	.LVL382:
 2135 07ae F256     		ldrsb	r2, [r6, r3]
 2136 07b0 042A     		cmp	r2, #4
 2137 07b2 1BD1     		bne	.L137
 901:..\..\mruby_c2\Design01.cydsn/vm.c ****       regs[ra].i -= regs[ra+1].i;
 2138              		.loc 1 901 0
 2139 07b4 08F10101 		add	r1, r8, #1
 2140 07b8 0901     		lsls	r1, r1, #4
 2141 07ba 7018     		adds	r0, r6, r1
 2142 07bc 7156     		ldrsb	r1, [r6, r1]
 2143 07be 0429     		cmp	r1, #4
 2144 07c0 04D1     		bne	.L138
 902:..\..\mruby_c2\Design01.cydsn/vm.c ****       return 0;
 2145              		.loc 1 902 0
 2146 07c2 8268     		ldr	r2, [r0, #8]
 2147 07c4 BB68     		ldr	r3, [r7, #8]
 2148 07c6 9B1A     		subs	r3, r3, r2
 2149 07c8 BB60     		str	r3, [r7, #8]
 2150 07ca 95E0     		b	.L139
 2151              	.L138:
 906:..\..\mruby_c2\Design01.cydsn/vm.c ****       regs[ra].tt = MRB_TT_FLOAT;
 2152              		.loc 1 906 0
 2153 07cc 0529     		cmp	r1, #5
 2154 07ce 0DD1     		bne	.L137
 907:..\..\mruby_c2\Design01.cydsn/vm.c ****       regs[ra].d = regs[ra].i - regs[ra+1].d;
 2155              		.loc 1 907 0
 2156 07d0 0522     		movs	r2, #5
 2157 07d2 F254     		strb	r2, [r6, r3]
 908:..\..\mruby_c2\Design01.cydsn/vm.c ****       return 0;
 2158              		.loc 1 908 0
 2159 07d4 D0E90289 		ldrd	r8, [r0, #8]
 2160              	.LVL383:
 2161 07d8 B868     		ldr	r0, [r7, #8]
 2162 07da FFF7FEFF 		bl	__aeabi_i2d
 2163              	.LVL384:
 2164 07de 4246     		mov	r2, r8
 2165 07e0 4B46     		mov	r3, r9
 2166 07e2 FFF7FEFF 		bl	__aeabi_dsub
 2167              	.LVL385:
 2168 07e6 C7E90201 		strd	r0, [r7, #8]
 2169 07ea 85E0     		b	.L139
 2170              	.LVL386:
 2171              	.L137:
 912:..\..\mruby_c2\Design01.cydsn/vm.c ****     if( regs[ra+1].tt == MRB_TT_FIXNUM ) {	// in case of Float, Fixnum
 2172              		.loc 1 912 0
 2173 07ec 052A     		cmp	r2, #5
 2174 07ee 1FD1     		bne	.L140
ARM GAS  C:\Users\164\AppData\Local\Temp\cc4PZf78.s 			page 77


 913:..\..\mruby_c2\Design01.cydsn/vm.c ****       regs[ra].d -= regs[ra+1].i;
 2175              		.loc 1 913 0
 2176 07f0 08F10103 		add	r3, r8, #1
 2177 07f4 1B01     		lsls	r3, r3, #4
 2178 07f6 F218     		adds	r2, r6, r3
 2179 07f8 F356     		ldrsb	r3, [r6, r3]
 2180 07fa 042B     		cmp	r3, #4
 2181 07fc 0BD1     		bne	.L141
 914:..\..\mruby_c2\Design01.cydsn/vm.c ****       return 0;
 2182              		.loc 1 914 0
 2183 07fe 9068     		ldr	r0, [r2, #8]
 2184 0800 FFF7FEFF 		bl	__aeabi_i2d
 2185              	.LVL387:
 2186 0804 0246     		mov	r2, r0
 2187 0806 0B46     		mov	r3, r1
 2188 0808 D7E90201 		ldrd	r0, [r7, #8]
 2189 080c FFF7FEFF 		bl	__aeabi_dsub
 2190              	.LVL388:
 2191 0810 C7E90201 		strd	r0, [r7, #8]
 2192 0814 70E0     		b	.L139
 2193              	.L141:
 917:..\..\mruby_c2\Design01.cydsn/vm.c ****       regs[ra].d -= regs[ra+1].d;
 2194              		.loc 1 917 0
 2195 0816 052B     		cmp	r3, #5
 2196 0818 0AD1     		bne	.L140
 918:..\..\mruby_c2\Design01.cydsn/vm.c ****       return 0;
 2197              		.loc 1 918 0
 2198 081a 02F10803 		add	r3, r2, #8
 2199 081e D3E90023 		ldrd	r2, [r3]
 2200 0822 D7E90201 		ldrd	r0, [r7, #8]
 2201 0826 FFF7FEFF 		bl	__aeabi_dsub
 2202              	.LVL389:
 2203 082a C7E90201 		strd	r0, [r7, #8]
 2204 082e 63E0     		b	.L139
 2205              	.L140:
 2206              	.LVL390:
 2207              	.LBB248:
 2208              	.LBB249:
 626:..\..\mruby_c2\Design01.cydsn/vm.c ****   int rb = GETARG_B(code);  // index of method sym
 2209              		.loc 1 626 0
 2210 0830 E70D     		lsrs	r7, r4, #23
 2211              	.LVL391:
 627:..\..\mruby_c2\Design01.cydsn/vm.c ****   int rc = GETARG_C(code);  // number of params
 2212              		.loc 1 627 0
 2213 0832 C4F38833 		ubfx	r3, r4, #14, #9
 2214 0836 0593     		str	r3, [sp, #20]
 2215              	.LVL392:
 628:..\..\mruby_c2\Design01.cydsn/vm.c ****   mrb_value recv = regs[ra];
 2216              		.loc 1 628 0
 2217 0838 C4F3C61B 		ubfx	fp, r4, #7, #7
 2218              	.LVL393:
 629:..\..\mruby_c2\Design01.cydsn/vm.c **** 
 2219              		.loc 1 629 0
 2220 083c 4FEA071A 		lsl	r10, r7, #4
 2221 0840 06EB0A09 		add	r9, r6, r10
 2222 0844 99E80F00 		ldmia	r9, {r0, r1, r2, r3}
 2223              	.LVL394:
ARM GAS  C:\Users\164\AppData\Local\Temp\cc4PZf78.s 			page 78


 2224 0848 0DF1380E 		add	lr, sp, #56
 2225 084c 0EE90F00 		stmdb	lr, {r0, r1, r2, r3}
 632:..\..\mruby_c2\Design01.cydsn/vm.c ****   switch( GET_OPCODE(code) ) {
 2226              		.loc 1 632 0
 2227 0850 5F44     		add	r7, r7, fp
 2228              	.LVL395:
 2229 0852 0137     		adds	r7, r7, #1
 2230              	.LVL396:
 633:..\..\mruby_c2\Design01.cydsn/vm.c ****   case OP_SEND:
 2231              		.loc 1 633 0
 2232 0854 04F07F04 		and	r4, r4, #127
 2233              	.LVL397:
 2234 0858 202C     		cmp	r4, #32
 2235 085a 02D0     		beq	.L143
 2236 085c 212C     		cmp	r4, #33
 2237 085e 07D0     		beq	.L144
 2238 0860 0CE0     		b	.L142
 2239              	.L143:
 636:..\..\mruby_c2\Design01.cydsn/vm.c ****     regs[bidx].tt = MRB_TT_NIL;
 2240              		.loc 1 636 0
 2241 0862 3C01     		lsls	r4, r7, #4
 2242 0864 3019     		adds	r0, r6, r4
 2243 0866 FFF7FEFF 		bl	mrbc_release
 2244              	.LVL398:
 637:..\..\mruby_c2\Design01.cydsn/vm.c ****     break;
 2245              		.loc 1 637 0
 2246 086a 0123     		movs	r3, #1
 2247 086c 3355     		strb	r3, [r6, r4]
 2248 086e 05E0     		b	.L142
 2249              	.L144:
 642:..\..\mruby_c2\Design01.cydsn/vm.c ****       // TODO: fix the following behavior
 2250              		.loc 1 642 0
 2251 0870 3B01     		lsls	r3, r7, #4
 2252 0872 F356     		ldrsb	r3, [r6, r3]
 2253 0874 012B     		cmp	r3, #1
 2254 0876 01D0     		beq	.L142
 2255 0878 152B     		cmp	r3, #21
 2256 087a 37D1     		bne	.L145
 2257              	.L142:
 654:..\..\mruby_c2\Design01.cydsn/vm.c ****   mrb_sym sym_id = str_to_symid(sym_name);
 2258              		.loc 1 654 0
 2259 087c EB68     		ldr	r3, [r5, #12]
 2260 087e 0599     		ldr	r1, [sp, #20]
 2261 0880 5869     		ldr	r0, [r3, #20]
 2262 0882 FFF7FEFF 		bl	mrbc_get_irep_symbol
 2263              	.LVL399:
 2264 0886 0590     		str	r0, [sp, #20]
 2265              	.LVL400:
 655:..\..\mruby_c2\Design01.cydsn/vm.c ****   mrb_proc *m = find_method(vm, recv, sym_id);
 2266              		.loc 1 655 0
 2267 0888 FFF7FEFF 		bl	str_to_symid
 2268              	.LVL401:
 656:..\..\mruby_c2\Design01.cydsn/vm.c **** 
 2269              		.loc 1 656 0
 2270 088c 0290     		str	r0, [sp, #8]
 2271 088e 0EAB     		add	r3, sp, #56
 2272 0890 13E90300 		ldmdb	r3, {r0, r1}
ARM GAS  C:\Users\164\AppData\Local\Temp\cc4PZf78.s 			page 79


 2273              	.LVL402:
 2274 0894 8DE80300 		stmia	sp, {r0, r1}
 2275 0898 0AAB     		add	r3, sp, #40
 2276 089a 0CCB     		ldmia	r3, {r2, r3}
 2277 089c 2846     		mov	r0, r5
 2278 089e FFF7FEFF 		bl	find_method
 2279              	.LVL403:
 658:..\..\mruby_c2\Design01.cydsn/vm.c ****     console_printf("No method. vtype=%d method='%s'\n", recv.tt, sym_name);
 2280              		.loc 1 658 0
 2281 08a2 0446     		mov	r4, r0
 2282 08a4 30B9     		cbnz	r0, .L146
 659:..\..\mruby_c2\Design01.cydsn/vm.c ****     return 0;
 2283              		.loc 1 659 0
 2284 08a6 059A     		ldr	r2, [sp, #20]
 2285 08a8 9DF92810 		ldrsb	r1, [sp, #40]
 2286 08ac AE48     		ldr	r0, .L289
 2287              	.LVL404:
 2288 08ae FFF7FEFF 		bl	console_printf
 2289              	.LVL405:
 2290 08b2 1BE0     		b	.L145
 2291              	.LVL406:
 2292              	.L146:
 664:..\..\mruby_c2\Design01.cydsn/vm.c ****     m->func(vm, regs + ra, rc);
 2293              		.loc 1 664 0
 2294 08b4 C378     		ldrb	r3, [r0, #3]	@ zero_extendqisi2
 2295 08b6 13F0010F 		tst	r3, #1
 2296 08ba 0AD0     		beq	.L147
 2297              	.LBB250:
 665:..\..\mruby_c2\Design01.cydsn/vm.c **** 
 2298              		.loc 1 665 0
 2299 08bc C368     		ldr	r3, [r0, #12]
 2300 08be 5A46     		mov	r2, fp
 2301 08c0 4946     		mov	r1, r9
 2302 08c2 2846     		mov	r0, r5
 2303              	.LVL407:
 2304 08c4 9847     		blx	r3
 2305              	.LVL408:
 667:..\..\mruby_c2\Design01.cydsn/vm.c ****     while( release_reg <= bidx ) {
 2306              		.loc 1 667 0
 2307 08c6 3B46     		mov	r3, r7
 2308 08c8 00E0     		b	.L148
 2309              	.LVL409:
 2310              	.L149:
 670:..\..\mruby_c2\Design01.cydsn/vm.c ****     }
 2311              		.loc 1 670 0
 2312 08ca 0133     		adds	r3, r3, #1
 2313              	.LVL410:
 2314              	.L148:
 668:..\..\mruby_c2\Design01.cydsn/vm.c ****       // mrbc_release(&regs[release_reg]);
 2315              		.loc 1 668 0
 2316 08cc 9F42     		cmp	r7, r3
 2317 08ce FCDA     		bge	.L149
 2318 08d0 0CE0     		b	.L145
 2319              	.LVL411:
 2320              	.L147:
 2321              	.LBE250:
 677:..\..\mruby_c2\Design01.cydsn/vm.c **** 
ARM GAS  C:\Users\164\AppData\Local\Temp\cc4PZf78.s 			page 80


 2322              		.loc 1 677 0
 2323 08d2 5946     		mov	r1, fp
 2324 08d4 2846     		mov	r0, r5
 2325              	.LVL412:
 2326 08d6 FFF7FEFF 		bl	mrbc_push_callinfo
 2327              	.LVL413:
 680:..\..\mruby_c2\Design01.cydsn/vm.c ****   vm->pc_irep = m->irep;
 2328              		.loc 1 680 0
 2329 08da 0023     		movs	r3, #0
 2330 08dc 2B82     		strh	r3, [r5, #16]	@ movhi
 681:..\..\mruby_c2\Design01.cydsn/vm.c **** 
 2331              		.loc 1 681 0
 2332 08de E368     		ldr	r3, [r4, #12]
 2333 08e0 EB60     		str	r3, [r5, #12]
 684:..\..\mruby_c2\Design01.cydsn/vm.c **** 
 2334              		.loc 1 684 0
 2335 08e2 D5F85836 		ldr	r3, [r5, #1624]
 2336 08e6 5344     		add	r3, r3, r10
 2337 08e8 C5F85836 		str	r3, [r5, #1624]
 2338              	.LVL414:
 2339              	.L145:
 2340              	.LBE249:
 2341              	.LBE248:
 926:..\..\mruby_c2\Design01.cydsn/vm.c ****   return 0;
 2342              		.loc 1 926 0
 2343 08ec 08F10100 		add	r0, r8, #1
 2344 08f0 06EB0010 		add	r0, r6, r0, lsl #4
 2345 08f4 FFF7FEFF 		bl	mrbc_release
 2346              	.LVL415:
 2347              	.L139:
 2348              	.LBE247:
 2349              	.LBE246:
1783:..\..\mruby_c2\Design01.cydsn/vm.c ****     case OP_SUB:        ret = op_sub       (vm, code, regs); break;
 2350              		.loc 1 1783 0
 2351 08f8 0027     		movs	r7, #0
 2352 08fa 00F073BE 		b	.L55
 2353              	.LVL416:
 2354              	.L85:
 2355              	.LBB251:
 2356              	.LBB252:
 944:..\..\mruby_c2\Design01.cydsn/vm.c **** 
 2357              		.loc 1 944 0
 2358 08fe E30D     		lsrs	r3, r4, #23
 2359              	.LVL417:
 946:..\..\mruby_c2\Design01.cydsn/vm.c ****     regs[ra].i -= GETARG_C(code);
 2360              		.loc 1 946 0
 2361 0900 1B01     		lsls	r3, r3, #4
 2362              	.LVL418:
 2363 0902 F718     		adds	r7, r6, r3
 2364              	.LVL419:
 2365 0904 F356     		ldrsb	r3, [r6, r3]
 2366 0906 042B     		cmp	r3, #4
 2367 0908 05D1     		bne	.L150
 947:..\..\mruby_c2\Design01.cydsn/vm.c ****     return 0;
 2368              		.loc 1 947 0
 2369 090a C4F3C614 		ubfx	r4, r4, #7, #7
 2370              	.LVL420:
ARM GAS  C:\Users\164\AppData\Local\Temp\cc4PZf78.s 			page 81


 2371 090e BB68     		ldr	r3, [r7, #8]
 2372 0910 1B1B     		subs	r3, r3, r4
 2373 0912 BB60     		str	r3, [r7, #8]
 2374 0914 10E0     		b	.L151
 2375              	.LVL421:
 2376              	.L150:
 952:..\..\mruby_c2\Design01.cydsn/vm.c ****     regs[ra].d -= GETARG_C(code);
 2377              		.loc 1 952 0
 2378 0916 052B     		cmp	r3, #5
 2379 0918 0CD1     		bne	.L152
 953:..\..\mruby_c2\Design01.cydsn/vm.c ****     return 0;
 2380              		.loc 1 953 0
 2381 091a C4F3C610 		ubfx	r0, r4, #7, #7
 2382 091e FFF7FEFF 		bl	__aeabi_ui2d
 2383              	.LVL422:
 2384 0922 0246     		mov	r2, r0
 2385 0924 0B46     		mov	r3, r1
 2386 0926 D7E90201 		ldrd	r0, [r7, #8]
 2387 092a FFF7FEFF 		bl	__aeabi_dsub
 2388              	.LVL423:
 2389 092e C7E90201 		strd	r0, [r7, #8]
 2390 0932 01E0     		b	.L151
 2391              	.L152:
 958:..\..\mruby_c2\Design01.cydsn/vm.c ****   return 0;
 2392              		.loc 1 958 0
 2393 0934 FFF7FEFF 		bl	not_supported
 2394              	.LVL424:
 2395              	.L151:
 2396              	.LBE252:
 2397              	.LBE251:
1784:..\..\mruby_c2\Design01.cydsn/vm.c ****     case OP_SUBI:       ret = op_subi      (vm, code, regs); break;
 2398              		.loc 1 1784 0
 2399 0938 0027     		movs	r7, #0
 2400 093a 00F053BE 		b	.L55
 2401              	.LVL425:
 2402              	.L86:
 2403              	.LBB253:
 2404              	.LBB254:
 976:..\..\mruby_c2\Design01.cydsn/vm.c **** 
 2405              		.loc 1 976 0
 2406 093e 4FEAD458 		lsr	r8, r4, #23
 2407              	.LVL426:
 978:..\..\mruby_c2\Design01.cydsn/vm.c ****     if( regs[ra+1].tt == MRB_TT_FIXNUM ) {	// in case of Fixnum, Fixnum
 2408              		.loc 1 978 0
 2409 0942 4FEA0813 		lsl	r3, r8, #4
 2410              	.LVL427:
 2411 0946 F718     		adds	r7, r6, r3
 2412              	.LVL428:
 2413 0948 F256     		ldrsb	r2, [r6, r3]
 2414 094a 042A     		cmp	r2, #4
 2415 094c 1CD1     		bne	.L153
 979:..\..\mruby_c2\Design01.cydsn/vm.c ****       regs[ra].i *= regs[ra+1].i;
 2416              		.loc 1 979 0
 2417 094e 08F10101 		add	r1, r8, #1
 2418 0952 0901     		lsls	r1, r1, #4
 2419 0954 7018     		adds	r0, r6, r1
 2420 0956 7156     		ldrsb	r1, [r6, r1]
ARM GAS  C:\Users\164\AppData\Local\Temp\cc4PZf78.s 			page 82


 2421 0958 0429     		cmp	r1, #4
 2422 095a 05D1     		bne	.L154
 980:..\..\mruby_c2\Design01.cydsn/vm.c ****       return 0;
 2423              		.loc 1 980 0
 2424 095c 8368     		ldr	r3, [r0, #8]
 2425 095e BA68     		ldr	r2, [r7, #8]
 2426 0960 03FB02F3 		mul	r3, r3, r2
 2427 0964 BB60     		str	r3, [r7, #8]
 2428 0966 95E0     		b	.L155
 2429              	.L154:
 984:..\..\mruby_c2\Design01.cydsn/vm.c ****       regs[ra].tt = MRB_TT_FLOAT;
 2430              		.loc 1 984 0
 2431 0968 0529     		cmp	r1, #5
 2432 096a 0DD1     		bne	.L153
 985:..\..\mruby_c2\Design01.cydsn/vm.c ****       regs[ra].d = regs[ra].i * regs[ra+1].d;
 2433              		.loc 1 985 0
 2434 096c 0522     		movs	r2, #5
 2435 096e F254     		strb	r2, [r6, r3]
 986:..\..\mruby_c2\Design01.cydsn/vm.c ****       return 0;
 2436              		.loc 1 986 0
 2437 0970 D0E90289 		ldrd	r8, [r0, #8]
 2438              	.LVL429:
 2439 0974 B868     		ldr	r0, [r7, #8]
 2440 0976 FFF7FEFF 		bl	__aeabi_i2d
 2441              	.LVL430:
 2442 097a 4246     		mov	r2, r8
 2443 097c 4B46     		mov	r3, r9
 2444 097e FFF7FEFF 		bl	__aeabi_dmul
 2445              	.LVL431:
 2446 0982 C7E90201 		strd	r0, [r7, #8]
 2447 0986 85E0     		b	.L155
 2448              	.LVL432:
 2449              	.L153:
 990:..\..\mruby_c2\Design01.cydsn/vm.c ****     if( regs[ra+1].tt == MRB_TT_FIXNUM ) {	// in case of Float, Fixnum
 2450              		.loc 1 990 0
 2451 0988 052A     		cmp	r2, #5
 2452 098a 1FD1     		bne	.L156
 991:..\..\mruby_c2\Design01.cydsn/vm.c ****       regs[ra].d *= regs[ra+1].i;
 2453              		.loc 1 991 0
 2454 098c 08F10103 		add	r3, r8, #1
 2455 0990 1B01     		lsls	r3, r3, #4
 2456 0992 F218     		adds	r2, r6, r3
 2457 0994 F356     		ldrsb	r3, [r6, r3]
 2458 0996 042B     		cmp	r3, #4
 2459 0998 0BD1     		bne	.L157
 992:..\..\mruby_c2\Design01.cydsn/vm.c ****       return 0;
 2460              		.loc 1 992 0
 2461 099a 9068     		ldr	r0, [r2, #8]
 2462 099c FFF7FEFF 		bl	__aeabi_i2d
 2463              	.LVL433:
 2464 09a0 0246     		mov	r2, r0
 2465 09a2 0B46     		mov	r3, r1
 2466 09a4 D7E90201 		ldrd	r0, [r7, #8]
 2467 09a8 FFF7FEFF 		bl	__aeabi_dmul
 2468              	.LVL434:
 2469 09ac C7E90201 		strd	r0, [r7, #8]
 2470 09b0 70E0     		b	.L155
ARM GAS  C:\Users\164\AppData\Local\Temp\cc4PZf78.s 			page 83


 2471              	.L157:
 995:..\..\mruby_c2\Design01.cydsn/vm.c ****       regs[ra].d *= regs[ra+1].d;
 2472              		.loc 1 995 0
 2473 09b2 052B     		cmp	r3, #5
 2474 09b4 0AD1     		bne	.L156
 996:..\..\mruby_c2\Design01.cydsn/vm.c ****       return 0;
 2475              		.loc 1 996 0
 2476 09b6 02F10803 		add	r3, r2, #8
 2477 09ba D3E90023 		ldrd	r2, [r3]
 2478 09be D7E90201 		ldrd	r0, [r7, #8]
 2479 09c2 FFF7FEFF 		bl	__aeabi_dmul
 2480              	.LVL435:
 2481 09c6 C7E90201 		strd	r0, [r7, #8]
 2482 09ca 63E0     		b	.L155
 2483              	.L156:
 2484              	.LVL436:
 2485              	.LBB255:
 2486              	.LBB256:
 626:..\..\mruby_c2\Design01.cydsn/vm.c ****   int rb = GETARG_B(code);  // index of method sym
 2487              		.loc 1 626 0
 2488 09cc E70D     		lsrs	r7, r4, #23
 2489              	.LVL437:
 627:..\..\mruby_c2\Design01.cydsn/vm.c ****   int rc = GETARG_C(code);  // number of params
 2490              		.loc 1 627 0
 2491 09ce C4F38833 		ubfx	r3, r4, #14, #9
 2492 09d2 0593     		str	r3, [sp, #20]
 2493              	.LVL438:
 628:..\..\mruby_c2\Design01.cydsn/vm.c ****   mrb_value recv = regs[ra];
 2494              		.loc 1 628 0
 2495 09d4 C4F3C61B 		ubfx	fp, r4, #7, #7
 2496              	.LVL439:
 629:..\..\mruby_c2\Design01.cydsn/vm.c **** 
 2497              		.loc 1 629 0
 2498 09d8 4FEA071A 		lsl	r10, r7, #4
 2499 09dc 06EB0A09 		add	r9, r6, r10
 2500 09e0 99E80F00 		ldmia	r9, {r0, r1, r2, r3}
 2501              	.LVL440:
 2502 09e4 0DF1380E 		add	lr, sp, #56
 2503 09e8 0EE90F00 		stmdb	lr, {r0, r1, r2, r3}
 632:..\..\mruby_c2\Design01.cydsn/vm.c ****   switch( GET_OPCODE(code) ) {
 2504              		.loc 1 632 0
 2505 09ec 5F44     		add	r7, r7, fp
 2506              	.LVL441:
 2507 09ee 0137     		adds	r7, r7, #1
 2508              	.LVL442:
 633:..\..\mruby_c2\Design01.cydsn/vm.c ****   case OP_SEND:
 2509              		.loc 1 633 0
 2510 09f0 04F07F04 		and	r4, r4, #127
 2511              	.LVL443:
 2512 09f4 202C     		cmp	r4, #32
 2513 09f6 02D0     		beq	.L159
 2514 09f8 212C     		cmp	r4, #33
 2515 09fa 07D0     		beq	.L160
 2516 09fc 0CE0     		b	.L158
 2517              	.L159:
 636:..\..\mruby_c2\Design01.cydsn/vm.c ****     regs[bidx].tt = MRB_TT_NIL;
 2518              		.loc 1 636 0
ARM GAS  C:\Users\164\AppData\Local\Temp\cc4PZf78.s 			page 84


 2519 09fe 3C01     		lsls	r4, r7, #4
 2520 0a00 3019     		adds	r0, r6, r4
 2521 0a02 FFF7FEFF 		bl	mrbc_release
 2522              	.LVL444:
 637:..\..\mruby_c2\Design01.cydsn/vm.c ****     break;
 2523              		.loc 1 637 0
 2524 0a06 0123     		movs	r3, #1
 2525 0a08 3355     		strb	r3, [r6, r4]
 2526 0a0a 05E0     		b	.L158
 2527              	.L160:
 642:..\..\mruby_c2\Design01.cydsn/vm.c ****       // TODO: fix the following behavior
 2528              		.loc 1 642 0
 2529 0a0c 3B01     		lsls	r3, r7, #4
 2530 0a0e F356     		ldrsb	r3, [r6, r3]
 2531 0a10 012B     		cmp	r3, #1
 2532 0a12 01D0     		beq	.L158
 2533 0a14 152B     		cmp	r3, #21
 2534 0a16 37D1     		bne	.L161
 2535              	.L158:
 654:..\..\mruby_c2\Design01.cydsn/vm.c ****   mrb_sym sym_id = str_to_symid(sym_name);
 2536              		.loc 1 654 0
 2537 0a18 EB68     		ldr	r3, [r5, #12]
 2538 0a1a 0599     		ldr	r1, [sp, #20]
 2539 0a1c 5869     		ldr	r0, [r3, #20]
 2540 0a1e FFF7FEFF 		bl	mrbc_get_irep_symbol
 2541              	.LVL445:
 2542 0a22 0590     		str	r0, [sp, #20]
 2543              	.LVL446:
 655:..\..\mruby_c2\Design01.cydsn/vm.c ****   mrb_proc *m = find_method(vm, recv, sym_id);
 2544              		.loc 1 655 0
 2545 0a24 FFF7FEFF 		bl	str_to_symid
 2546              	.LVL447:
 656:..\..\mruby_c2\Design01.cydsn/vm.c **** 
 2547              		.loc 1 656 0
 2548 0a28 0290     		str	r0, [sp, #8]
 2549 0a2a 0EAB     		add	r3, sp, #56
 2550 0a2c 13E90300 		ldmdb	r3, {r0, r1}
 2551              	.LVL448:
 2552 0a30 8DE80300 		stmia	sp, {r0, r1}
 2553 0a34 0AAB     		add	r3, sp, #40
 2554 0a36 0CCB     		ldmia	r3, {r2, r3}
 2555 0a38 2846     		mov	r0, r5
 2556 0a3a FFF7FEFF 		bl	find_method
 2557              	.LVL449:
 658:..\..\mruby_c2\Design01.cydsn/vm.c ****     console_printf("No method. vtype=%d method='%s'\n", recv.tt, sym_name);
 2558              		.loc 1 658 0
 2559 0a3e 0446     		mov	r4, r0
 2560 0a40 30B9     		cbnz	r0, .L162
 659:..\..\mruby_c2\Design01.cydsn/vm.c ****     return 0;
 2561              		.loc 1 659 0
 2562 0a42 059A     		ldr	r2, [sp, #20]
 2563 0a44 9DF92810 		ldrsb	r1, [sp, #40]
 2564 0a48 4748     		ldr	r0, .L289
 2565              	.LVL450:
 2566 0a4a FFF7FEFF 		bl	console_printf
 2567              	.LVL451:
 2568 0a4e 1BE0     		b	.L161
ARM GAS  C:\Users\164\AppData\Local\Temp\cc4PZf78.s 			page 85


 2569              	.LVL452:
 2570              	.L162:
 664:..\..\mruby_c2\Design01.cydsn/vm.c ****     m->func(vm, regs + ra, rc);
 2571              		.loc 1 664 0
 2572 0a50 C378     		ldrb	r3, [r0, #3]	@ zero_extendqisi2
 2573 0a52 13F0010F 		tst	r3, #1
 2574 0a56 0AD0     		beq	.L163
 2575              	.LBB257:
 665:..\..\mruby_c2\Design01.cydsn/vm.c **** 
 2576              		.loc 1 665 0
 2577 0a58 C368     		ldr	r3, [r0, #12]
 2578 0a5a 5A46     		mov	r2, fp
 2579 0a5c 4946     		mov	r1, r9
 2580 0a5e 2846     		mov	r0, r5
 2581              	.LVL453:
 2582 0a60 9847     		blx	r3
 2583              	.LVL454:
 667:..\..\mruby_c2\Design01.cydsn/vm.c ****     while( release_reg <= bidx ) {
 2584              		.loc 1 667 0
 2585 0a62 3B46     		mov	r3, r7
 2586 0a64 00E0     		b	.L164
 2587              	.LVL455:
 2588              	.L165:
 670:..\..\mruby_c2\Design01.cydsn/vm.c ****     }
 2589              		.loc 1 670 0
 2590 0a66 0133     		adds	r3, r3, #1
 2591              	.LVL456:
 2592              	.L164:
 668:..\..\mruby_c2\Design01.cydsn/vm.c ****       // mrbc_release(&regs[release_reg]);
 2593              		.loc 1 668 0
 2594 0a68 9F42     		cmp	r7, r3
 2595 0a6a FCDA     		bge	.L165
 2596 0a6c 0CE0     		b	.L161
 2597              	.LVL457:
 2598              	.L163:
 2599              	.LBE257:
 677:..\..\mruby_c2\Design01.cydsn/vm.c **** 
 2600              		.loc 1 677 0
 2601 0a6e 5946     		mov	r1, fp
 2602 0a70 2846     		mov	r0, r5
 2603              	.LVL458:
 2604 0a72 FFF7FEFF 		bl	mrbc_push_callinfo
 2605              	.LVL459:
 680:..\..\mruby_c2\Design01.cydsn/vm.c ****   vm->pc_irep = m->irep;
 2606              		.loc 1 680 0
 2607 0a76 0023     		movs	r3, #0
 2608 0a78 2B82     		strh	r3, [r5, #16]	@ movhi
 681:..\..\mruby_c2\Design01.cydsn/vm.c **** 
 2609              		.loc 1 681 0
 2610 0a7a E368     		ldr	r3, [r4, #12]
 2611 0a7c EB60     		str	r3, [r5, #12]
 684:..\..\mruby_c2\Design01.cydsn/vm.c **** 
 2612              		.loc 1 684 0
 2613 0a7e D5F85836 		ldr	r3, [r5, #1624]
 2614 0a82 5344     		add	r3, r3, r10
 2615 0a84 C5F85836 		str	r3, [r5, #1624]
 2616              	.LVL460:
ARM GAS  C:\Users\164\AppData\Local\Temp\cc4PZf78.s 			page 86


 2617              	.L161:
 2618              	.LBE256:
 2619              	.LBE255:
1004:..\..\mruby_c2\Design01.cydsn/vm.c ****   return 0;
 2620              		.loc 1 1004 0
 2621 0a88 08F10100 		add	r0, r8, #1
 2622 0a8c 06EB0010 		add	r0, r6, r0, lsl #4
 2623 0a90 FFF7FEFF 		bl	mrbc_release
 2624              	.LVL461:
 2625              	.L155:
 2626              	.LBE254:
 2627              	.LBE253:
1785:..\..\mruby_c2\Design01.cydsn/vm.c ****     case OP_MUL:        ret = op_mul       (vm, code, regs); break;
 2628              		.loc 1 1785 0
 2629 0a94 0027     		movs	r7, #0
 2630 0a96 00F0A5BD 		b	.L55
 2631              	.LVL462:
 2632              	.L87:
 2633              	.LBB258:
 2634              	.LBB259:
1022:..\..\mruby_c2\Design01.cydsn/vm.c **** 
 2635              		.loc 1 1022 0
 2636 0a9a 4FEAD458 		lsr	r8, r4, #23
 2637              	.LVL463:
1024:..\..\mruby_c2\Design01.cydsn/vm.c ****     if( regs[ra+1].tt == MRB_TT_FIXNUM ) {	// in case of Fixnum, Fixnum
 2638              		.loc 1 1024 0
 2639 0a9e 4FEA0813 		lsl	r3, r8, #4
 2640              	.LVL464:
 2641 0aa2 F718     		adds	r7, r6, r3
 2642              	.LVL465:
 2643 0aa4 F256     		ldrsb	r2, [r6, r3]
 2644 0aa6 042A     		cmp	r2, #4
 2645 0aa8 1CD1     		bne	.L166
1025:..\..\mruby_c2\Design01.cydsn/vm.c ****       regs[ra].i /= regs[ra+1].i;
 2646              		.loc 1 1025 0
 2647 0aaa 08F10101 		add	r1, r8, #1
 2648 0aae 0901     		lsls	r1, r1, #4
 2649 0ab0 7018     		adds	r0, r6, r1
 2650 0ab2 7156     		ldrsb	r1, [r6, r1]
 2651 0ab4 0429     		cmp	r1, #4
 2652 0ab6 05D1     		bne	.L167
1026:..\..\mruby_c2\Design01.cydsn/vm.c ****       return 0;
 2653              		.loc 1 1026 0
 2654 0ab8 8268     		ldr	r2, [r0, #8]
 2655 0aba BB68     		ldr	r3, [r7, #8]
 2656 0abc 93FBF2F3 		sdiv	r3, r3, r2
 2657 0ac0 BB60     		str	r3, [r7, #8]
 2658 0ac2 97E0     		b	.L168
 2659              	.L167:
1030:..\..\mruby_c2\Design01.cydsn/vm.c ****       regs[ra].tt = MRB_TT_FLOAT;
 2660              		.loc 1 1030 0
 2661 0ac4 0529     		cmp	r1, #5
 2662 0ac6 0DD1     		bne	.L166
1031:..\..\mruby_c2\Design01.cydsn/vm.c ****       regs[ra].d = regs[ra].i / regs[ra+1].d;
 2663              		.loc 1 1031 0
 2664 0ac8 0522     		movs	r2, #5
 2665 0aca F254     		strb	r2, [r6, r3]
ARM GAS  C:\Users\164\AppData\Local\Temp\cc4PZf78.s 			page 87


1032:..\..\mruby_c2\Design01.cydsn/vm.c ****       return 0;
 2666              		.loc 1 1032 0
 2667 0acc D0E90289 		ldrd	r8, [r0, #8]
 2668              	.LVL466:
 2669 0ad0 B868     		ldr	r0, [r7, #8]
 2670 0ad2 FFF7FEFF 		bl	__aeabi_i2d
 2671              	.LVL467:
 2672 0ad6 4246     		mov	r2, r8
 2673 0ad8 4B46     		mov	r3, r9
 2674 0ada FFF7FEFF 		bl	__aeabi_ddiv
 2675              	.LVL468:
 2676 0ade C7E90201 		strd	r0, [r7, #8]
 2677 0ae2 87E0     		b	.L168
 2678              	.LVL469:
 2679              	.L166:
1036:..\..\mruby_c2\Design01.cydsn/vm.c ****     if( regs[ra+1].tt == MRB_TT_FIXNUM ) {	// in case of Float, Fixnum
 2680              		.loc 1 1036 0
 2681 0ae4 052A     		cmp	r2, #5
 2682 0ae6 1FD1     		bne	.L169
1037:..\..\mruby_c2\Design01.cydsn/vm.c ****       regs[ra].d /= regs[ra+1].i;
 2683              		.loc 1 1037 0
 2684 0ae8 08F10103 		add	r3, r8, #1
 2685 0aec 1B01     		lsls	r3, r3, #4
 2686 0aee F218     		adds	r2, r6, r3
 2687 0af0 F356     		ldrsb	r3, [r6, r3]
 2688 0af2 042B     		cmp	r3, #4
 2689 0af4 0BD1     		bne	.L170
1038:..\..\mruby_c2\Design01.cydsn/vm.c ****       return 0;
 2690              		.loc 1 1038 0
 2691 0af6 9068     		ldr	r0, [r2, #8]
 2692 0af8 FFF7FEFF 		bl	__aeabi_i2d
 2693              	.LVL470:
 2694 0afc 0246     		mov	r2, r0
 2695 0afe 0B46     		mov	r3, r1
 2696 0b00 D7E90201 		ldrd	r0, [r7, #8]
 2697 0b04 FFF7FEFF 		bl	__aeabi_ddiv
 2698              	.LVL471:
 2699 0b08 C7E90201 		strd	r0, [r7, #8]
 2700 0b0c 72E0     		b	.L168
 2701              	.L170:
1041:..\..\mruby_c2\Design01.cydsn/vm.c ****       regs[ra].d /= regs[ra+1].d;
 2702              		.loc 1 1041 0
 2703 0b0e 052B     		cmp	r3, #5
 2704 0b10 0AD1     		bne	.L169
1042:..\..\mruby_c2\Design01.cydsn/vm.c ****       return 0;
 2705              		.loc 1 1042 0
 2706 0b12 02F10803 		add	r3, r2, #8
 2707 0b16 D3E90023 		ldrd	r2, [r3]
 2708 0b1a D7E90201 		ldrd	r0, [r7, #8]
 2709 0b1e FFF7FEFF 		bl	__aeabi_ddiv
 2710              	.LVL472:
 2711 0b22 C7E90201 		strd	r0, [r7, #8]
 2712 0b26 65E0     		b	.L168
 2713              	.L169:
 2714              	.LVL473:
 2715              	.LBB260:
 2716              	.LBB261:
ARM GAS  C:\Users\164\AppData\Local\Temp\cc4PZf78.s 			page 88


 626:..\..\mruby_c2\Design01.cydsn/vm.c ****   int rb = GETARG_B(code);  // index of method sym
 2717              		.loc 1 626 0
 2718 0b28 E70D     		lsrs	r7, r4, #23
 2719              	.LVL474:
 627:..\..\mruby_c2\Design01.cydsn/vm.c ****   int rc = GETARG_C(code);  // number of params
 2720              		.loc 1 627 0
 2721 0b2a C4F38833 		ubfx	r3, r4, #14, #9
 2722 0b2e 0593     		str	r3, [sp, #20]
 2723              	.LVL475:
 628:..\..\mruby_c2\Design01.cydsn/vm.c ****   mrb_value recv = regs[ra];
 2724              		.loc 1 628 0
 2725 0b30 C4F3C61B 		ubfx	fp, r4, #7, #7
 2726              	.LVL476:
 629:..\..\mruby_c2\Design01.cydsn/vm.c **** 
 2727              		.loc 1 629 0
 2728 0b34 4FEA071A 		lsl	r10, r7, #4
 2729 0b38 06EB0A09 		add	r9, r6, r10
 2730 0b3c 99E80F00 		ldmia	r9, {r0, r1, r2, r3}
 2731              	.LVL477:
 2732 0b40 0DF1380E 		add	lr, sp, #56
 2733 0b44 0EE90F00 		stmdb	lr, {r0, r1, r2, r3}
 632:..\..\mruby_c2\Design01.cydsn/vm.c ****   switch( GET_OPCODE(code) ) {
 2734              		.loc 1 632 0
 2735 0b48 5F44     		add	r7, r7, fp
 2736              	.LVL478:
 2737 0b4a 0137     		adds	r7, r7, #1
 2738              	.LVL479:
 633:..\..\mruby_c2\Design01.cydsn/vm.c ****   case OP_SEND:
 2739              		.loc 1 633 0
 2740 0b4c 04F07F04 		and	r4, r4, #127
 2741              	.LVL480:
 2742 0b50 202C     		cmp	r4, #32
 2743 0b52 02D0     		beq	.L172
 2744 0b54 212C     		cmp	r4, #33
 2745 0b56 09D0     		beq	.L173
 2746 0b58 0EE0     		b	.L171
 2747              	.L172:
 636:..\..\mruby_c2\Design01.cydsn/vm.c ****     regs[bidx].tt = MRB_TT_NIL;
 2748              		.loc 1 636 0
 2749 0b5a 3C01     		lsls	r4, r7, #4
 2750 0b5c 3019     		adds	r0, r6, r4
 2751 0b5e FFF7FEFF 		bl	mrbc_release
 2752              	.LVL481:
 637:..\..\mruby_c2\Design01.cydsn/vm.c ****     break;
 2753              		.loc 1 637 0
 2754 0b62 0123     		movs	r3, #1
 2755 0b64 3355     		strb	r3, [r6, r4]
 2756 0b66 07E0     		b	.L171
 2757              	.L290:
 2758              		.align	2
 2759              	.L289:
 2760 0b68 4C000000 		.word	.LC3
 2761              	.L173:
 642:..\..\mruby_c2\Design01.cydsn/vm.c ****       // TODO: fix the following behavior
 2762              		.loc 1 642 0
 2763 0b6c 3B01     		lsls	r3, r7, #4
 2764 0b6e F356     		ldrsb	r3, [r6, r3]
ARM GAS  C:\Users\164\AppData\Local\Temp\cc4PZf78.s 			page 89


 2765 0b70 012B     		cmp	r3, #1
 2766 0b72 01D0     		beq	.L171
 2767 0b74 152B     		cmp	r3, #21
 2768 0b76 37D1     		bne	.L174
 2769              	.L171:
 654:..\..\mruby_c2\Design01.cydsn/vm.c ****   mrb_sym sym_id = str_to_symid(sym_name);
 2770              		.loc 1 654 0
 2771 0b78 EB68     		ldr	r3, [r5, #12]
 2772 0b7a 0599     		ldr	r1, [sp, #20]
 2773 0b7c 5869     		ldr	r0, [r3, #20]
 2774 0b7e FFF7FEFF 		bl	mrbc_get_irep_symbol
 2775              	.LVL482:
 2776 0b82 0590     		str	r0, [sp, #20]
 2777              	.LVL483:
 655:..\..\mruby_c2\Design01.cydsn/vm.c ****   mrb_proc *m = find_method(vm, recv, sym_id);
 2778              		.loc 1 655 0
 2779 0b84 FFF7FEFF 		bl	str_to_symid
 2780              	.LVL484:
 656:..\..\mruby_c2\Design01.cydsn/vm.c **** 
 2781              		.loc 1 656 0
 2782 0b88 0290     		str	r0, [sp, #8]
 2783 0b8a 0EAB     		add	r3, sp, #56
 2784 0b8c 13E90300 		ldmdb	r3, {r0, r1}
 2785              	.LVL485:
 2786 0b90 8DE80300 		stmia	sp, {r0, r1}
 2787 0b94 0AAB     		add	r3, sp, #40
 2788 0b96 0CCB     		ldmia	r3, {r2, r3}
 2789 0b98 2846     		mov	r0, r5
 2790 0b9a FFF7FEFF 		bl	find_method
 2791              	.LVL486:
 658:..\..\mruby_c2\Design01.cydsn/vm.c ****     console_printf("No method. vtype=%d method='%s'\n", recv.tt, sym_name);
 2792              		.loc 1 658 0
 2793 0b9e 0446     		mov	r4, r0
 2794 0ba0 30B9     		cbnz	r0, .L175
 659:..\..\mruby_c2\Design01.cydsn/vm.c ****     return 0;
 2795              		.loc 1 659 0
 2796 0ba2 059A     		ldr	r2, [sp, #20]
 2797 0ba4 9DF92810 		ldrsb	r1, [sp, #40]
 2798 0ba8 B948     		ldr	r0, .L291
 2799              	.LVL487:
 2800 0baa FFF7FEFF 		bl	console_printf
 2801              	.LVL488:
 2802 0bae 1BE0     		b	.L174
 2803              	.LVL489:
 2804              	.L175:
 664:..\..\mruby_c2\Design01.cydsn/vm.c ****     m->func(vm, regs + ra, rc);
 2805              		.loc 1 664 0
 2806 0bb0 C378     		ldrb	r3, [r0, #3]	@ zero_extendqisi2
 2807 0bb2 13F0010F 		tst	r3, #1
 2808 0bb6 0AD0     		beq	.L176
 2809              	.LBB262:
 665:..\..\mruby_c2\Design01.cydsn/vm.c **** 
 2810              		.loc 1 665 0
 2811 0bb8 C368     		ldr	r3, [r0, #12]
 2812 0bba 5A46     		mov	r2, fp
 2813 0bbc 4946     		mov	r1, r9
 2814 0bbe 2846     		mov	r0, r5
ARM GAS  C:\Users\164\AppData\Local\Temp\cc4PZf78.s 			page 90


 2815              	.LVL490:
 2816 0bc0 9847     		blx	r3
 2817              	.LVL491:
 667:..\..\mruby_c2\Design01.cydsn/vm.c ****     while( release_reg <= bidx ) {
 2818              		.loc 1 667 0
 2819 0bc2 3B46     		mov	r3, r7
 2820 0bc4 00E0     		b	.L177
 2821              	.LVL492:
 2822              	.L178:
 670:..\..\mruby_c2\Design01.cydsn/vm.c ****     }
 2823              		.loc 1 670 0
 2824 0bc6 0133     		adds	r3, r3, #1
 2825              	.LVL493:
 2826              	.L177:
 668:..\..\mruby_c2\Design01.cydsn/vm.c ****       // mrbc_release(&regs[release_reg]);
 2827              		.loc 1 668 0
 2828 0bc8 9F42     		cmp	r7, r3
 2829 0bca FCDA     		bge	.L178
 2830 0bcc 0CE0     		b	.L174
 2831              	.LVL494:
 2832              	.L176:
 2833              	.LBE262:
 677:..\..\mruby_c2\Design01.cydsn/vm.c **** 
 2834              		.loc 1 677 0
 2835 0bce 5946     		mov	r1, fp
 2836 0bd0 2846     		mov	r0, r5
 2837              	.LVL495:
 2838 0bd2 FFF7FEFF 		bl	mrbc_push_callinfo
 2839              	.LVL496:
 680:..\..\mruby_c2\Design01.cydsn/vm.c ****   vm->pc_irep = m->irep;
 2840              		.loc 1 680 0
 2841 0bd6 0023     		movs	r3, #0
 2842 0bd8 2B82     		strh	r3, [r5, #16]	@ movhi
 681:..\..\mruby_c2\Design01.cydsn/vm.c **** 
 2843              		.loc 1 681 0
 2844 0bda E368     		ldr	r3, [r4, #12]
 2845 0bdc EB60     		str	r3, [r5, #12]
 684:..\..\mruby_c2\Design01.cydsn/vm.c **** 
 2846              		.loc 1 684 0
 2847 0bde D5F85836 		ldr	r3, [r5, #1624]
 2848 0be2 5344     		add	r3, r3, r10
 2849 0be4 C5F85836 		str	r3, [r5, #1624]
 2850              	.LVL497:
 2851              	.L174:
 2852              	.LBE261:
 2853              	.LBE260:
1050:..\..\mruby_c2\Design01.cydsn/vm.c ****   return 0;
 2854              		.loc 1 1050 0
 2855 0be8 08F10100 		add	r0, r8, #1
 2856 0bec 06EB0010 		add	r0, r6, r0, lsl #4
 2857 0bf0 FFF7FEFF 		bl	mrbc_release
 2858              	.LVL498:
 2859              	.L168:
 2860              	.LBE259:
 2861              	.LBE258:
1786:..\..\mruby_c2\Design01.cydsn/vm.c ****     case OP_DIV:        ret = op_div       (vm, code, regs); break;
 2862              		.loc 1 1786 0
ARM GAS  C:\Users\164\AppData\Local\Temp\cc4PZf78.s 			page 91


 2863 0bf4 0027     		movs	r7, #0
 2864 0bf6 00F0F5BC 		b	.L55
 2865              	.LVL499:
 2866              	.L88:
 2867              	.LBB263:
 2868              	.LBB264:
1068:..\..\mruby_c2\Design01.cydsn/vm.c ****   int result = mrbc_compare(&regs[ra], &regs[ra+1]);
 2869              		.loc 1 1068 0
 2870 0bfa E40D     		lsrs	r4, r4, #23
 2871              	.LVL500:
1069:..\..\mruby_c2\Design01.cydsn/vm.c **** 
 2872              		.loc 1 1069 0
 2873 0bfc 2701     		lsls	r7, r4, #4
 2874              	.LVL501:
 2875 0bfe 06EB0708 		add	r8, r6, r7
 2876 0c02 0134     		adds	r4, r4, #1
 2877              	.LVL502:
 2878 0c04 06EB0414 		add	r4, r6, r4, lsl #4
 2879              	.LVL503:
 2880 0c08 2146     		mov	r1, r4
 2881 0c0a 4046     		mov	r0, r8
 2882 0c0c FFF7FEFF 		bl	mrbc_compare
 2883              	.LVL504:
 2884 0c10 8146     		mov	r9, r0
 2885              	.LVL505:
1071:..\..\mruby_c2\Design01.cydsn/vm.c ****   mrbc_release(&regs[ra]);
 2886              		.loc 1 1071 0
 2887 0c12 2046     		mov	r0, r4
 2888              	.LVL506:
 2889 0c14 FFF7FEFF 		bl	mrbc_release
 2890              	.LVL507:
1072:..\..\mruby_c2\Design01.cydsn/vm.c ****   regs[ra].tt = result ? MRB_TT_FALSE : MRB_TT_TRUE;
 2891              		.loc 1 1072 0
 2892 0c18 4046     		mov	r0, r8
 2893 0c1a FFF7FEFF 		bl	mrbc_release
 2894              	.LVL508:
1073:..\..\mruby_c2\Design01.cydsn/vm.c **** 
 2895              		.loc 1 1073 0
 2896 0c1e B9F1000F 		cmp	r9, #0
 2897 0c22 01D0     		beq	.L276
 2898 0c24 0223     		movs	r3, #2
 2899 0c26 00E0     		b	.L179
 2900              	.L276:
 2901 0c28 0323     		movs	r3, #3
 2902              	.L179:
 2903 0c2a F355     		strb	r3, [r6, r7]
 2904              	.LVL509:
 2905              	.LBE264:
 2906              	.LBE263:
1787:..\..\mruby_c2\Design01.cydsn/vm.c ****     case OP_EQ:         ret = op_eq        (vm, code, regs); break;
 2907              		.loc 1 1787 0
 2908 0c2c 0027     		movs	r7, #0
 2909 0c2e 00F0D9BC 		b	.L55
 2910              	.LVL510:
 2911              	.L89:
 2912              	.LBB265:
 2913              	.LBB266:
ARM GAS  C:\Users\164\AppData\Local\Temp\cc4PZf78.s 			page 92


1092:..\..\mruby_c2\Design01.cydsn/vm.c ****   int result;
 2914              		.loc 1 1092 0
 2915 0c32 4FEAD458 		lsr	r8, r4, #23
 2916              	.LVL511:
1095:..\..\mruby_c2\Design01.cydsn/vm.c ****     if( regs[ra+1].tt == MRB_TT_FIXNUM ) {
 2917              		.loc 1 1095 0
 2918 0c36 4FEA0817 		lsl	r7, r8, #4
 2919              	.LVL512:
 2920 0c3a F119     		adds	r1, r6, r7
 2921 0c3c F357     		ldrsb	r3, [r6, r7]
 2922              	.LVL513:
 2923 0c3e 042B     		cmp	r3, #4
 2924 0c40 1FD1     		bne	.L180
1096:..\..\mruby_c2\Design01.cydsn/vm.c ****       result = regs[ra].i < regs[ra+1].i;	// in case of Fixnum, Fixnum
 2925              		.loc 1 1096 0
 2926 0c42 08F10102 		add	r2, r8, #1
 2927 0c46 1201     		lsls	r2, r2, #4
 2928 0c48 B018     		adds	r0, r6, r2
 2929 0c4a B256     		ldrsb	r2, [r6, r2]
 2930 0c4c 042A     		cmp	r2, #4
 2931 0c4e 06D1     		bne	.L181
1097:..\..\mruby_c2\Design01.cydsn/vm.c ****       goto DONE;
 2932              		.loc 1 1097 0
 2933 0c50 8B68     		ldr	r3, [r1, #8]
 2934 0c52 8268     		ldr	r2, [r0, #8]
 2935 0c54 9342     		cmp	r3, r2
 2936 0c56 ACBF     		ite	ge
 2937 0c58 0023     		movge	r3, #0
 2938 0c5a 0123     		movlt	r3, #1
 2939              	.LVL514:
 2940 0c5c A2E0     		b	.L182
 2941              	.LVL515:
 2942              	.L181:
1101:..\..\mruby_c2\Design01.cydsn/vm.c ****       result = regs[ra].i < regs[ra+1].d;	// in case of Fixnum, Float
 2943              		.loc 1 1101 0
 2944 0c5e 052A     		cmp	r2, #5
 2945 0c60 0FD1     		bne	.L180
1102:..\..\mruby_c2\Design01.cydsn/vm.c ****       goto DONE;
 2946              		.loc 1 1102 0
 2947 0c62 D0E90289 		ldrd	r8, [r0, #8]
 2948              	.LVL516:
 2949 0c66 8868     		ldr	r0, [r1, #8]
 2950 0c68 FFF7FEFF 		bl	__aeabi_i2d
 2951              	.LVL517:
 2952 0c6c 4FF00104 		mov	r4, #1
 2953              	.LVL518:
 2954 0c70 4246     		mov	r2, r8
 2955 0c72 4B46     		mov	r3, r9
 2956 0c74 FFF7FEFF 		bl	__aeabi_dcmplt
 2957              	.LVL519:
 2958 0c78 08B9     		cbnz	r0, .L183
 2959 0c7a 4FF00004 		mov	r4, #0
 2960              	.L183:
 2961 0c7e E3B2     		uxtb	r3, r4
 2962              	.LVL520:
 2963 0c80 90E0     		b	.L182
 2964              	.LVL521:
ARM GAS  C:\Users\164\AppData\Local\Temp\cc4PZf78.s 			page 93


 2965              	.L180:
1106:..\..\mruby_c2\Design01.cydsn/vm.c ****     if( regs[ra+1].tt == MRB_TT_FIXNUM ) {
 2966              		.loc 1 1106 0
 2967 0c82 052B     		cmp	r3, #5
 2968 0c84 29D1     		bne	.L184
1107:..\..\mruby_c2\Design01.cydsn/vm.c ****       result = regs[ra].d < regs[ra+1].i;	// in case of Float, Fixnum
 2969              		.loc 1 1107 0
 2970 0c86 08F10103 		add	r3, r8, #1
 2971 0c8a 1B01     		lsls	r3, r3, #4
 2972 0c8c F218     		adds	r2, r6, r3
 2973 0c8e F356     		ldrsb	r3, [r6, r3]
 2974 0c90 042B     		cmp	r3, #4
 2975 0c92 11D1     		bne	.L185
1108:..\..\mruby_c2\Design01.cydsn/vm.c ****       goto DONE;
 2976              		.loc 1 1108 0
 2977 0c94 D1E90289 		ldrd	r8, [r1, #8]
 2978              	.LVL522:
 2979 0c98 9068     		ldr	r0, [r2, #8]
 2980 0c9a FFF7FEFF 		bl	__aeabi_i2d
 2981              	.LVL523:
 2982 0c9e 4FF00104 		mov	r4, #1
 2983              	.LVL524:
 2984 0ca2 0246     		mov	r2, r0
 2985 0ca4 0B46     		mov	r3, r1
 2986 0ca6 4046     		mov	r0, r8
 2987 0ca8 4946     		mov	r1, r9
 2988 0caa FFF7FEFF 		bl	__aeabi_dcmplt
 2989              	.LVL525:
 2990 0cae 08B9     		cbnz	r0, .L186
 2991 0cb0 4FF00004 		mov	r4, #0
 2992              	.L186:
 2993 0cb4 E3B2     		uxtb	r3, r4
 2994              	.LVL526:
 2995 0cb6 75E0     		b	.L182
 2996              	.LVL527:
 2997              	.L185:
1111:..\..\mruby_c2\Design01.cydsn/vm.c ****       result = regs[ra].d < regs[ra+1].d;	// in case of Float, Float
 2998              		.loc 1 1111 0
 2999 0cb8 052B     		cmp	r3, #5
 3000 0cba 0ED1     		bne	.L184
1112:..\..\mruby_c2\Design01.cydsn/vm.c ****       goto DONE;
 3001              		.loc 1 1112 0
 3002 0cbc 4FF00104 		mov	r4, #1
 3003              	.LVL528:
 3004 0cc0 02F10803 		add	r3, r2, #8
 3005 0cc4 D3E90023 		ldrd	r2, [r3]
 3006 0cc8 D1E90201 		ldrd	r0, [r1, #8]
 3007 0ccc FFF7FEFF 		bl	__aeabi_dcmplt
 3008              	.LVL529:
 3009 0cd0 08B9     		cbnz	r0, .L187
 3010 0cd2 4FF00004 		mov	r4, #0
 3011              	.L187:
 3012 0cd6 E3B2     		uxtb	r3, r4
 3013              	.LVL530:
 3014 0cd8 64E0     		b	.L182
 3015              	.LVL531:
 3016              	.L184:
ARM GAS  C:\Users\164\AppData\Local\Temp\cc4PZf78.s 			page 94


 3017              	.LBB267:
 3018              	.LBB268:
 626:..\..\mruby_c2\Design01.cydsn/vm.c ****   int rb = GETARG_B(code);  // index of method sym
 3019              		.loc 1 626 0
 3020 0cda E70D     		lsrs	r7, r4, #23
 3021              	.LVL532:
 627:..\..\mruby_c2\Design01.cydsn/vm.c ****   int rc = GETARG_C(code);  // number of params
 3022              		.loc 1 627 0
 3023 0cdc C4F38833 		ubfx	r3, r4, #14, #9
 3024 0ce0 0593     		str	r3, [sp, #20]
 3025              	.LVL533:
 628:..\..\mruby_c2\Design01.cydsn/vm.c ****   mrb_value recv = regs[ra];
 3026              		.loc 1 628 0
 3027 0ce2 C4F3C61B 		ubfx	fp, r4, #7, #7
 3028              	.LVL534:
 629:..\..\mruby_c2\Design01.cydsn/vm.c **** 
 3029              		.loc 1 629 0
 3030 0ce6 4FEA071A 		lsl	r10, r7, #4
 3031 0cea 06EB0A09 		add	r9, r6, r10
 3032 0cee 99E80F00 		ldmia	r9, {r0, r1, r2, r3}
 3033              	.LVL535:
 3034 0cf2 0DF1380E 		add	lr, sp, #56
 3035 0cf6 0EE90F00 		stmdb	lr, {r0, r1, r2, r3}
 632:..\..\mruby_c2\Design01.cydsn/vm.c ****   switch( GET_OPCODE(code) ) {
 3036              		.loc 1 632 0
 3037 0cfa 5F44     		add	r7, r7, fp
 3038              	.LVL536:
 3039 0cfc 0137     		adds	r7, r7, #1
 3040              	.LVL537:
 633:..\..\mruby_c2\Design01.cydsn/vm.c ****   case OP_SEND:
 3041              		.loc 1 633 0
 3042 0cfe 04F07F04 		and	r4, r4, #127
 3043              	.LVL538:
 3044 0d02 202C     		cmp	r4, #32
 3045 0d04 02D0     		beq	.L189
 3046 0d06 212C     		cmp	r4, #33
 3047 0d08 07D0     		beq	.L190
 3048 0d0a 0CE0     		b	.L188
 3049              	.L189:
 636:..\..\mruby_c2\Design01.cydsn/vm.c ****     regs[bidx].tt = MRB_TT_NIL;
 3050              		.loc 1 636 0
 3051 0d0c 3C01     		lsls	r4, r7, #4
 3052 0d0e 3019     		adds	r0, r6, r4
 3053 0d10 FFF7FEFF 		bl	mrbc_release
 3054              	.LVL539:
 637:..\..\mruby_c2\Design01.cydsn/vm.c ****     break;
 3055              		.loc 1 637 0
 3056 0d14 0123     		movs	r3, #1
 3057 0d16 3355     		strb	r3, [r6, r4]
 3058 0d18 05E0     		b	.L188
 3059              	.L190:
 642:..\..\mruby_c2\Design01.cydsn/vm.c ****       // TODO: fix the following behavior
 3060              		.loc 1 642 0
 3061 0d1a 3B01     		lsls	r3, r7, #4
 3062 0d1c F356     		ldrsb	r3, [r6, r3]
 3063 0d1e 012B     		cmp	r3, #1
 3064 0d20 01D0     		beq	.L188
ARM GAS  C:\Users\164\AppData\Local\Temp\cc4PZf78.s 			page 95


 3065 0d22 152B     		cmp	r3, #21
 3066 0d24 37D1     		bne	.L191
 3067              	.L188:
 654:..\..\mruby_c2\Design01.cydsn/vm.c ****   mrb_sym sym_id = str_to_symid(sym_name);
 3068              		.loc 1 654 0
 3069 0d26 EB68     		ldr	r3, [r5, #12]
 3070 0d28 0599     		ldr	r1, [sp, #20]
 3071 0d2a 5869     		ldr	r0, [r3, #20]
 3072 0d2c FFF7FEFF 		bl	mrbc_get_irep_symbol
 3073              	.LVL540:
 3074 0d30 0590     		str	r0, [sp, #20]
 3075              	.LVL541:
 655:..\..\mruby_c2\Design01.cydsn/vm.c ****   mrb_proc *m = find_method(vm, recv, sym_id);
 3076              		.loc 1 655 0
 3077 0d32 FFF7FEFF 		bl	str_to_symid
 3078              	.LVL542:
 656:..\..\mruby_c2\Design01.cydsn/vm.c **** 
 3079              		.loc 1 656 0
 3080 0d36 0290     		str	r0, [sp, #8]
 3081 0d38 0EAB     		add	r3, sp, #56
 3082 0d3a 13E90300 		ldmdb	r3, {r0, r1}
 3083              	.LVL543:
 3084 0d3e 8DE80300 		stmia	sp, {r0, r1}
 3085 0d42 0AAB     		add	r3, sp, #40
 3086 0d44 0CCB     		ldmia	r3, {r2, r3}
 3087 0d46 2846     		mov	r0, r5
 3088 0d48 FFF7FEFF 		bl	find_method
 3089              	.LVL544:
 658:..\..\mruby_c2\Design01.cydsn/vm.c ****     console_printf("No method. vtype=%d method='%s'\n", recv.tt, sym_name);
 3090              		.loc 1 658 0
 3091 0d4c 0446     		mov	r4, r0
 3092 0d4e 30B9     		cbnz	r0, .L192
 659:..\..\mruby_c2\Design01.cydsn/vm.c ****     return 0;
 3093              		.loc 1 659 0
 3094 0d50 059A     		ldr	r2, [sp, #20]
 3095 0d52 9DF92810 		ldrsb	r1, [sp, #40]
 3096 0d56 4E48     		ldr	r0, .L291
 3097              	.LVL545:
 3098 0d58 FFF7FEFF 		bl	console_printf
 3099              	.LVL546:
 3100 0d5c 1BE0     		b	.L191
 3101              	.LVL547:
 3102              	.L192:
 664:..\..\mruby_c2\Design01.cydsn/vm.c ****     m->func(vm, regs + ra, rc);
 3103              		.loc 1 664 0
 3104 0d5e C378     		ldrb	r3, [r0, #3]	@ zero_extendqisi2
 3105 0d60 13F0010F 		tst	r3, #1
 3106 0d64 0AD0     		beq	.L193
 3107              	.LBB269:
 665:..\..\mruby_c2\Design01.cydsn/vm.c **** 
 3108              		.loc 1 665 0
 3109 0d66 C368     		ldr	r3, [r0, #12]
 3110 0d68 5A46     		mov	r2, fp
 3111 0d6a 4946     		mov	r1, r9
 3112 0d6c 2846     		mov	r0, r5
 3113              	.LVL548:
 3114 0d6e 9847     		blx	r3
ARM GAS  C:\Users\164\AppData\Local\Temp\cc4PZf78.s 			page 96


 3115              	.LVL549:
 667:..\..\mruby_c2\Design01.cydsn/vm.c ****     while( release_reg <= bidx ) {
 3116              		.loc 1 667 0
 3117 0d70 3B46     		mov	r3, r7
 3118 0d72 00E0     		b	.L194
 3119              	.LVL550:
 3120              	.L195:
 670:..\..\mruby_c2\Design01.cydsn/vm.c ****     }
 3121              		.loc 1 670 0
 3122 0d74 0133     		adds	r3, r3, #1
 3123              	.LVL551:
 3124              	.L194:
 668:..\..\mruby_c2\Design01.cydsn/vm.c ****       // mrbc_release(&regs[release_reg]);
 3125              		.loc 1 668 0
 3126 0d76 9F42     		cmp	r7, r3
 3127 0d78 FCDA     		bge	.L195
 3128 0d7a 0CE0     		b	.L191
 3129              	.LVL552:
 3130              	.L193:
 3131              	.LBE269:
 677:..\..\mruby_c2\Design01.cydsn/vm.c **** 
 3132              		.loc 1 677 0
 3133 0d7c 5946     		mov	r1, fp
 3134 0d7e 2846     		mov	r0, r5
 3135              	.LVL553:
 3136 0d80 FFF7FEFF 		bl	mrbc_push_callinfo
 3137              	.LVL554:
 680:..\..\mruby_c2\Design01.cydsn/vm.c ****   vm->pc_irep = m->irep;
 3138              		.loc 1 680 0
 3139 0d84 0023     		movs	r3, #0
 3140 0d86 2B82     		strh	r3, [r5, #16]	@ movhi
 681:..\..\mruby_c2\Design01.cydsn/vm.c **** 
 3141              		.loc 1 681 0
 3142 0d88 E368     		ldr	r3, [r4, #12]
 3143 0d8a EB60     		str	r3, [r5, #12]
 684:..\..\mruby_c2\Design01.cydsn/vm.c **** 
 3144              		.loc 1 684 0
 3145 0d8c D5F85836 		ldr	r3, [r5, #1624]
 3146 0d90 5344     		add	r3, r3, r10
 3147 0d92 C5F85836 		str	r3, [r5, #1624]
 3148              	.LVL555:
 3149              	.L191:
 3150              	.LBE268:
 3151              	.LBE267:
1120:..\..\mruby_c2\Design01.cydsn/vm.c ****   return 0;
 3152              		.loc 1 1120 0
 3153 0d96 08F10100 		add	r0, r8, #1
 3154 0d9a 06EB0010 		add	r0, r6, r0, lsl #4
 3155 0d9e FFF7FEFF 		bl	mrbc_release
 3156              	.LVL556:
 3157 0da2 04E0     		b	.L196
 3158              	.LVL557:
 3159              	.L182:
1124:..\..\mruby_c2\Design01.cydsn/vm.c ****   return 0;
 3160              		.loc 1 1124 0
 3161 0da4 0BB1     		cbz	r3, .L277
 3162 0da6 0323     		movs	r3, #3
ARM GAS  C:\Users\164\AppData\Local\Temp\cc4PZf78.s 			page 97


 3163              	.LVL558:
 3164 0da8 00E0     		b	.L197
 3165              	.LVL559:
 3166              	.L277:
 3167 0daa 0223     		movs	r3, #2
 3168              	.LVL560:
 3169              	.L197:
 3170 0dac F355     		strb	r3, [r6, r7]
 3171              	.L196:
 3172              	.LVL561:
 3173              	.LBE266:
 3174              	.LBE265:
1788:..\..\mruby_c2\Design01.cydsn/vm.c ****     case OP_LT:         ret = op_lt        (vm, code, regs); break;
 3175              		.loc 1 1788 0
 3176 0dae 0027     		movs	r7, #0
 3177 0db0 00F018BC 		b	.L55
 3178              	.LVL562:
 3179              	.L90:
 3180              	.LBB270:
 3181              	.LBB271:
1142:..\..\mruby_c2\Design01.cydsn/vm.c ****   int result;
 3182              		.loc 1 1142 0
 3183 0db4 4FEAD458 		lsr	r8, r4, #23
 3184              	.LVL563:
1145:..\..\mruby_c2\Design01.cydsn/vm.c ****     if( regs[ra+1].tt == MRB_TT_FIXNUM ) {
 3185              		.loc 1 1145 0
 3186 0db8 4FEA0817 		lsl	r7, r8, #4
 3187              	.LVL564:
 3188 0dbc F119     		adds	r1, r6, r7
 3189 0dbe F357     		ldrsb	r3, [r6, r7]
 3190              	.LVL565:
 3191 0dc0 042B     		cmp	r3, #4
 3192 0dc2 1FD1     		bne	.L198
1146:..\..\mruby_c2\Design01.cydsn/vm.c ****       result = regs[ra].i <= regs[ra+1].i;	// in case of Fixnum, Fixnum
 3193              		.loc 1 1146 0
 3194 0dc4 08F10102 		add	r2, r8, #1
 3195 0dc8 1201     		lsls	r2, r2, #4
 3196 0dca B018     		adds	r0, r6, r2
 3197 0dcc B256     		ldrsb	r2, [r6, r2]
 3198 0dce 042A     		cmp	r2, #4
 3199 0dd0 06D1     		bne	.L199
1147:..\..\mruby_c2\Design01.cydsn/vm.c ****       goto DONE;
 3200              		.loc 1 1147 0
 3201 0dd2 8B68     		ldr	r3, [r1, #8]
 3202 0dd4 8268     		ldr	r2, [r0, #8]
 3203 0dd6 9342     		cmp	r3, r2
 3204 0dd8 CCBF     		ite	gt
 3205 0dda 0023     		movgt	r3, #0
 3206 0ddc 0123     		movle	r3, #1
 3207              	.LVL566:
 3208 0dde A5E0     		b	.L200
 3209              	.LVL567:
 3210              	.L199:
1151:..\..\mruby_c2\Design01.cydsn/vm.c ****       result = regs[ra].i <= regs[ra+1].d;	// in case of Fixnum, Float
 3211              		.loc 1 1151 0
 3212 0de0 052A     		cmp	r2, #5
 3213 0de2 0FD1     		bne	.L198
ARM GAS  C:\Users\164\AppData\Local\Temp\cc4PZf78.s 			page 98


1152:..\..\mruby_c2\Design01.cydsn/vm.c ****       goto DONE;
 3214              		.loc 1 1152 0
 3215 0de4 D0E90289 		ldrd	r8, [r0, #8]
 3216              	.LVL568:
 3217 0de8 8868     		ldr	r0, [r1, #8]
 3218 0dea FFF7FEFF 		bl	__aeabi_i2d
 3219              	.LVL569:
 3220 0dee 4FF00104 		mov	r4, #1
 3221              	.LVL570:
 3222 0df2 4246     		mov	r2, r8
 3223 0df4 4B46     		mov	r3, r9
 3224 0df6 FFF7FEFF 		bl	__aeabi_dcmple
 3225              	.LVL571:
 3226 0dfa 08B9     		cbnz	r0, .L201
 3227 0dfc 4FF00004 		mov	r4, #0
 3228              	.L201:
 3229 0e00 E3B2     		uxtb	r3, r4
 3230              	.LVL572:
 3231 0e02 93E0     		b	.L200
 3232              	.LVL573:
 3233              	.L198:
1156:..\..\mruby_c2\Design01.cydsn/vm.c ****     if( regs[ra+1].tt == MRB_TT_FIXNUM ) {
 3234              		.loc 1 1156 0
 3235 0e04 052B     		cmp	r3, #5
 3236 0e06 29D1     		bne	.L202
1157:..\..\mruby_c2\Design01.cydsn/vm.c ****       result = regs[ra].d <= regs[ra+1].i;	// in case of Float, Fixnum
 3237              		.loc 1 1157 0
 3238 0e08 08F10103 		add	r3, r8, #1
 3239 0e0c 1B01     		lsls	r3, r3, #4
 3240 0e0e F218     		adds	r2, r6, r3
 3241 0e10 F356     		ldrsb	r3, [r6, r3]
 3242 0e12 042B     		cmp	r3, #4
 3243 0e14 11D1     		bne	.L203
1158:..\..\mruby_c2\Design01.cydsn/vm.c ****       goto DONE;
 3244              		.loc 1 1158 0
 3245 0e16 D1E90289 		ldrd	r8, [r1, #8]
 3246              	.LVL574:
 3247 0e1a 9068     		ldr	r0, [r2, #8]
 3248 0e1c FFF7FEFF 		bl	__aeabi_i2d
 3249              	.LVL575:
 3250 0e20 4FF00104 		mov	r4, #1
 3251              	.LVL576:
 3252 0e24 0246     		mov	r2, r0
 3253 0e26 0B46     		mov	r3, r1
 3254 0e28 4046     		mov	r0, r8
 3255 0e2a 4946     		mov	r1, r9
 3256 0e2c FFF7FEFF 		bl	__aeabi_dcmple
 3257              	.LVL577:
 3258 0e30 08B9     		cbnz	r0, .L204
 3259 0e32 4FF00004 		mov	r4, #0
 3260              	.L204:
 3261 0e36 E3B2     		uxtb	r3, r4
 3262              	.LVL578:
 3263 0e38 78E0     		b	.L200
 3264              	.LVL579:
 3265              	.L203:
1161:..\..\mruby_c2\Design01.cydsn/vm.c ****       result = regs[ra].d <= regs[ra+1].d;	// in case of Float, Float
ARM GAS  C:\Users\164\AppData\Local\Temp\cc4PZf78.s 			page 99


 3266              		.loc 1 1161 0
 3267 0e3a 052B     		cmp	r3, #5
 3268 0e3c 0ED1     		bne	.L202
1162:..\..\mruby_c2\Design01.cydsn/vm.c ****       goto DONE;
 3269              		.loc 1 1162 0
 3270 0e3e 4FF00104 		mov	r4, #1
 3271              	.LVL580:
 3272 0e42 02F10803 		add	r3, r2, #8
 3273 0e46 D3E90023 		ldrd	r2, [r3]
 3274 0e4a D1E90201 		ldrd	r0, [r1, #8]
 3275 0e4e FFF7FEFF 		bl	__aeabi_dcmple
 3276              	.LVL581:
 3277 0e52 08B9     		cbnz	r0, .L205
 3278 0e54 4FF00004 		mov	r4, #0
 3279              	.L205:
 3280 0e58 E3B2     		uxtb	r3, r4
 3281              	.LVL582:
 3282 0e5a 67E0     		b	.L200
 3283              	.LVL583:
 3284              	.L202:
 3285              	.LBB272:
 3286              	.LBB273:
 626:..\..\mruby_c2\Design01.cydsn/vm.c ****   int rb = GETARG_B(code);  // index of method sym
 3287              		.loc 1 626 0
 3288 0e5c E70D     		lsrs	r7, r4, #23
 3289              	.LVL584:
 627:..\..\mruby_c2\Design01.cydsn/vm.c ****   int rc = GETARG_C(code);  // number of params
 3290              		.loc 1 627 0
 3291 0e5e C4F38833 		ubfx	r3, r4, #14, #9
 3292 0e62 0593     		str	r3, [sp, #20]
 3293              	.LVL585:
 628:..\..\mruby_c2\Design01.cydsn/vm.c ****   mrb_value recv = regs[ra];
 3294              		.loc 1 628 0
 3295 0e64 C4F3C61B 		ubfx	fp, r4, #7, #7
 3296              	.LVL586:
 629:..\..\mruby_c2\Design01.cydsn/vm.c **** 
 3297              		.loc 1 629 0
 3298 0e68 4FEA071A 		lsl	r10, r7, #4
 3299 0e6c 06EB0A09 		add	r9, r6, r10
 3300 0e70 99E80F00 		ldmia	r9, {r0, r1, r2, r3}
 3301              	.LVL587:
 3302 0e74 0DF1380E 		add	lr, sp, #56
 3303 0e78 0EE90F00 		stmdb	lr, {r0, r1, r2, r3}
 632:..\..\mruby_c2\Design01.cydsn/vm.c ****   switch( GET_OPCODE(code) ) {
 3304              		.loc 1 632 0
 3305 0e7c 5F44     		add	r7, r7, fp
 3306              	.LVL588:
 3307 0e7e 0137     		adds	r7, r7, #1
 3308              	.LVL589:
 633:..\..\mruby_c2\Design01.cydsn/vm.c ****   case OP_SEND:
 3309              		.loc 1 633 0
 3310 0e80 04F07F04 		and	r4, r4, #127
 3311              	.LVL590:
 3312 0e84 202C     		cmp	r4, #32
 3313 0e86 05D0     		beq	.L207
 3314 0e88 212C     		cmp	r4, #33
 3315 0e8a 0AD0     		beq	.L208
ARM GAS  C:\Users\164\AppData\Local\Temp\cc4PZf78.s 			page 100


 3316 0e8c 0FE0     		b	.L206
 3317              	.L292:
 3318 0e8e 00BF     		.align	2
 3319              	.L291:
 3320 0e90 4C000000 		.word	.LC3
 3321              	.L207:
 636:..\..\mruby_c2\Design01.cydsn/vm.c ****     regs[bidx].tt = MRB_TT_NIL;
 3322              		.loc 1 636 0
 3323 0e94 3C01     		lsls	r4, r7, #4
 3324 0e96 3019     		adds	r0, r6, r4
 3325 0e98 FFF7FEFF 		bl	mrbc_release
 3326              	.LVL591:
 637:..\..\mruby_c2\Design01.cydsn/vm.c ****     break;
 3327              		.loc 1 637 0
 3328 0e9c 0123     		movs	r3, #1
 3329 0e9e 3355     		strb	r3, [r6, r4]
 3330 0ea0 05E0     		b	.L206
 3331              	.L208:
 642:..\..\mruby_c2\Design01.cydsn/vm.c ****       // TODO: fix the following behavior
 3332              		.loc 1 642 0
 3333 0ea2 3B01     		lsls	r3, r7, #4
 3334 0ea4 F356     		ldrsb	r3, [r6, r3]
 3335 0ea6 012B     		cmp	r3, #1
 3336 0ea8 01D0     		beq	.L206
 3337 0eaa 152B     		cmp	r3, #21
 3338 0eac 37D1     		bne	.L209
 3339              	.L206:
 654:..\..\mruby_c2\Design01.cydsn/vm.c ****   mrb_sym sym_id = str_to_symid(sym_name);
 3340              		.loc 1 654 0
 3341 0eae EB68     		ldr	r3, [r5, #12]
 3342 0eb0 0599     		ldr	r1, [sp, #20]
 3343 0eb2 5869     		ldr	r0, [r3, #20]
 3344 0eb4 FFF7FEFF 		bl	mrbc_get_irep_symbol
 3345              	.LVL592:
 3346 0eb8 0590     		str	r0, [sp, #20]
 3347              	.LVL593:
 655:..\..\mruby_c2\Design01.cydsn/vm.c ****   mrb_proc *m = find_method(vm, recv, sym_id);
 3348              		.loc 1 655 0
 3349 0eba FFF7FEFF 		bl	str_to_symid
 3350              	.LVL594:
 656:..\..\mruby_c2\Design01.cydsn/vm.c **** 
 3351              		.loc 1 656 0
 3352 0ebe 0290     		str	r0, [sp, #8]
 3353 0ec0 0EAB     		add	r3, sp, #56
 3354 0ec2 13E90300 		ldmdb	r3, {r0, r1}
 3355              	.LVL595:
 3356 0ec6 8DE80300 		stmia	sp, {r0, r1}
 3357 0eca 0AAB     		add	r3, sp, #40
 3358 0ecc 0CCB     		ldmia	r3, {r2, r3}
 3359 0ece 2846     		mov	r0, r5
 3360 0ed0 FFF7FEFF 		bl	find_method
 3361              	.LVL596:
 658:..\..\mruby_c2\Design01.cydsn/vm.c ****     console_printf("No method. vtype=%d method='%s'\n", recv.tt, sym_name);
 3362              		.loc 1 658 0
 3363 0ed4 0446     		mov	r4, r0
 3364 0ed6 30B9     		cbnz	r0, .L210
 659:..\..\mruby_c2\Design01.cydsn/vm.c ****     return 0;
ARM GAS  C:\Users\164\AppData\Local\Temp\cc4PZf78.s 			page 101


 3365              		.loc 1 659 0
 3366 0ed8 059A     		ldr	r2, [sp, #20]
 3367 0eda 9DF92810 		ldrsb	r1, [sp, #40]
 3368 0ede B148     		ldr	r0, .L293
 3369              	.LVL597:
 3370 0ee0 FFF7FEFF 		bl	console_printf
 3371              	.LVL598:
 3372 0ee4 1BE0     		b	.L209
 3373              	.LVL599:
 3374              	.L210:
 664:..\..\mruby_c2\Design01.cydsn/vm.c ****     m->func(vm, regs + ra, rc);
 3375              		.loc 1 664 0
 3376 0ee6 C378     		ldrb	r3, [r0, #3]	@ zero_extendqisi2
 3377 0ee8 13F0010F 		tst	r3, #1
 3378 0eec 0AD0     		beq	.L211
 3379              	.LBB274:
 665:..\..\mruby_c2\Design01.cydsn/vm.c **** 
 3380              		.loc 1 665 0
 3381 0eee C368     		ldr	r3, [r0, #12]
 3382 0ef0 5A46     		mov	r2, fp
 3383 0ef2 4946     		mov	r1, r9
 3384 0ef4 2846     		mov	r0, r5
 3385              	.LVL600:
 3386 0ef6 9847     		blx	r3
 3387              	.LVL601:
 667:..\..\mruby_c2\Design01.cydsn/vm.c ****     while( release_reg <= bidx ) {
 3388              		.loc 1 667 0
 3389 0ef8 3B46     		mov	r3, r7
 3390 0efa 00E0     		b	.L212
 3391              	.LVL602:
 3392              	.L213:
 670:..\..\mruby_c2\Design01.cydsn/vm.c ****     }
 3393              		.loc 1 670 0
 3394 0efc 0133     		adds	r3, r3, #1
 3395              	.LVL603:
 3396              	.L212:
 668:..\..\mruby_c2\Design01.cydsn/vm.c ****       // mrbc_release(&regs[release_reg]);
 3397              		.loc 1 668 0
 3398 0efe 9F42     		cmp	r7, r3
 3399 0f00 FCDA     		bge	.L213
 3400 0f02 0CE0     		b	.L209
 3401              	.LVL604:
 3402              	.L211:
 3403              	.LBE274:
 677:..\..\mruby_c2\Design01.cydsn/vm.c **** 
 3404              		.loc 1 677 0
 3405 0f04 5946     		mov	r1, fp
 3406 0f06 2846     		mov	r0, r5
 3407              	.LVL605:
 3408 0f08 FFF7FEFF 		bl	mrbc_push_callinfo
 3409              	.LVL606:
 680:..\..\mruby_c2\Design01.cydsn/vm.c ****   vm->pc_irep = m->irep;
 3410              		.loc 1 680 0
 3411 0f0c 0023     		movs	r3, #0
 3412 0f0e 2B82     		strh	r3, [r5, #16]	@ movhi
 681:..\..\mruby_c2\Design01.cydsn/vm.c **** 
 3413              		.loc 1 681 0
ARM GAS  C:\Users\164\AppData\Local\Temp\cc4PZf78.s 			page 102


 3414 0f10 E368     		ldr	r3, [r4, #12]
 3415 0f12 EB60     		str	r3, [r5, #12]
 684:..\..\mruby_c2\Design01.cydsn/vm.c **** 
 3416              		.loc 1 684 0
 3417 0f14 D5F85836 		ldr	r3, [r5, #1624]
 3418 0f18 5344     		add	r3, r3, r10
 3419 0f1a C5F85836 		str	r3, [r5, #1624]
 3420              	.LVL607:
 3421              	.L209:
 3422              	.LBE273:
 3423              	.LBE272:
1170:..\..\mruby_c2\Design01.cydsn/vm.c ****   return 0;
 3424              		.loc 1 1170 0
 3425 0f1e 08F10100 		add	r0, r8, #1
 3426 0f22 06EB0010 		add	r0, r6, r0, lsl #4
 3427 0f26 FFF7FEFF 		bl	mrbc_release
 3428              	.LVL608:
 3429 0f2a 04E0     		b	.L214
 3430              	.LVL609:
 3431              	.L200:
1174:..\..\mruby_c2\Design01.cydsn/vm.c ****   return 0;
 3432              		.loc 1 1174 0
 3433 0f2c 0BB1     		cbz	r3, .L278
 3434 0f2e 0323     		movs	r3, #3
 3435              	.LVL610:
 3436 0f30 00E0     		b	.L215
 3437              	.LVL611:
 3438              	.L278:
 3439 0f32 0223     		movs	r3, #2
 3440              	.LVL612:
 3441              	.L215:
 3442 0f34 F355     		strb	r3, [r6, r7]
 3443              	.L214:
 3444              	.LVL613:
 3445              	.LBE271:
 3446              	.LBE270:
1789:..\..\mruby_c2\Design01.cydsn/vm.c ****     case OP_LE:         ret = op_le        (vm, code, regs); break;
 3447              		.loc 1 1789 0
 3448 0f36 0027     		movs	r7, #0
 3449 0f38 54E3     		b	.L55
 3450              	.LVL614:
 3451              	.L91:
 3452              	.LBB275:
 3453              	.LBB276:
1192:..\..\mruby_c2\Design01.cydsn/vm.c ****   int result;
 3454              		.loc 1 1192 0
 3455 0f3a 4FEAD458 		lsr	r8, r4, #23
 3456              	.LVL615:
1195:..\..\mruby_c2\Design01.cydsn/vm.c ****     if( regs[ra+1].tt == MRB_TT_FIXNUM ) {
 3457              		.loc 1 1195 0
 3458 0f3e 4FEA0817 		lsl	r7, r8, #4
 3459              	.LVL616:
 3460 0f42 F119     		adds	r1, r6, r7
 3461 0f44 F357     		ldrsb	r3, [r6, r7]
 3462              	.LVL617:
 3463 0f46 042B     		cmp	r3, #4
 3464 0f48 1FD1     		bne	.L216
ARM GAS  C:\Users\164\AppData\Local\Temp\cc4PZf78.s 			page 103


1196:..\..\mruby_c2\Design01.cydsn/vm.c ****       result = regs[ra].i > regs[ra+1].i;	// in case of Fixnum, Fixnum
 3465              		.loc 1 1196 0
 3466 0f4a 08F10102 		add	r2, r8, #1
 3467 0f4e 1201     		lsls	r2, r2, #4
 3468 0f50 B018     		adds	r0, r6, r2
 3469 0f52 B256     		ldrsb	r2, [r6, r2]
 3470 0f54 042A     		cmp	r2, #4
 3471 0f56 06D1     		bne	.L217
1197:..\..\mruby_c2\Design01.cydsn/vm.c ****       goto DONE;
 3472              		.loc 1 1197 0
 3473 0f58 8B68     		ldr	r3, [r1, #8]
 3474 0f5a 8268     		ldr	r2, [r0, #8]
 3475 0f5c 9342     		cmp	r3, r2
 3476 0f5e D4BF     		ite	le
 3477 0f60 0023     		movle	r3, #0
 3478 0f62 0123     		movgt	r3, #1
 3479              	.LVL618:
 3480 0f64 A2E0     		b	.L218
 3481              	.LVL619:
 3482              	.L217:
1201:..\..\mruby_c2\Design01.cydsn/vm.c ****       result = regs[ra].i > regs[ra+1].d;	// in case of Fixnum, Float
 3483              		.loc 1 1201 0
 3484 0f66 052A     		cmp	r2, #5
 3485 0f68 0FD1     		bne	.L216
1202:..\..\mruby_c2\Design01.cydsn/vm.c ****       goto DONE;
 3486              		.loc 1 1202 0
 3487 0f6a D0E90289 		ldrd	r8, [r0, #8]
 3488              	.LVL620:
 3489 0f6e 8868     		ldr	r0, [r1, #8]
 3490 0f70 FFF7FEFF 		bl	__aeabi_i2d
 3491              	.LVL621:
 3492 0f74 4FF00104 		mov	r4, #1
 3493              	.LVL622:
 3494 0f78 4246     		mov	r2, r8
 3495 0f7a 4B46     		mov	r3, r9
 3496 0f7c FFF7FEFF 		bl	__aeabi_dcmpgt
 3497              	.LVL623:
 3498 0f80 08B9     		cbnz	r0, .L219
 3499 0f82 4FF00004 		mov	r4, #0
 3500              	.L219:
 3501 0f86 E3B2     		uxtb	r3, r4
 3502              	.LVL624:
 3503 0f88 90E0     		b	.L218
 3504              	.LVL625:
 3505              	.L216:
1206:..\..\mruby_c2\Design01.cydsn/vm.c ****     if( regs[ra+1].tt == MRB_TT_FIXNUM ) {
 3506              		.loc 1 1206 0
 3507 0f8a 052B     		cmp	r3, #5
 3508 0f8c 29D1     		bne	.L220
1207:..\..\mruby_c2\Design01.cydsn/vm.c ****       result = regs[ra].d > regs[ra+1].i;	// in case of Float, Fixnum
 3509              		.loc 1 1207 0
 3510 0f8e 08F10103 		add	r3, r8, #1
 3511 0f92 1B01     		lsls	r3, r3, #4
 3512 0f94 F218     		adds	r2, r6, r3
 3513 0f96 F356     		ldrsb	r3, [r6, r3]
 3514 0f98 042B     		cmp	r3, #4
 3515 0f9a 11D1     		bne	.L221
ARM GAS  C:\Users\164\AppData\Local\Temp\cc4PZf78.s 			page 104


1208:..\..\mruby_c2\Design01.cydsn/vm.c ****       goto DONE;
 3516              		.loc 1 1208 0
 3517 0f9c D1E90289 		ldrd	r8, [r1, #8]
 3518              	.LVL626:
 3519 0fa0 9068     		ldr	r0, [r2, #8]
 3520 0fa2 FFF7FEFF 		bl	__aeabi_i2d
 3521              	.LVL627:
 3522 0fa6 4FF00104 		mov	r4, #1
 3523              	.LVL628:
 3524 0faa 0246     		mov	r2, r0
 3525 0fac 0B46     		mov	r3, r1
 3526 0fae 4046     		mov	r0, r8
 3527 0fb0 4946     		mov	r1, r9
 3528 0fb2 FFF7FEFF 		bl	__aeabi_dcmpgt
 3529              	.LVL629:
 3530 0fb6 08B9     		cbnz	r0, .L222
 3531 0fb8 4FF00004 		mov	r4, #0
 3532              	.L222:
 3533 0fbc E3B2     		uxtb	r3, r4
 3534              	.LVL630:
 3535 0fbe 75E0     		b	.L218
 3536              	.LVL631:
 3537              	.L221:
1211:..\..\mruby_c2\Design01.cydsn/vm.c ****       result = regs[ra].d > regs[ra+1].d;	// in case of Float, Float
 3538              		.loc 1 1211 0
 3539 0fc0 052B     		cmp	r3, #5
 3540 0fc2 0ED1     		bne	.L220
1212:..\..\mruby_c2\Design01.cydsn/vm.c ****       goto DONE;
 3541              		.loc 1 1212 0
 3542 0fc4 4FF00104 		mov	r4, #1
 3543              	.LVL632:
 3544 0fc8 02F10803 		add	r3, r2, #8
 3545 0fcc D3E90023 		ldrd	r2, [r3]
 3546 0fd0 D1E90201 		ldrd	r0, [r1, #8]
 3547 0fd4 FFF7FEFF 		bl	__aeabi_dcmpgt
 3548              	.LVL633:
 3549 0fd8 08B9     		cbnz	r0, .L223
 3550 0fda 4FF00004 		mov	r4, #0
 3551              	.L223:
 3552 0fde E3B2     		uxtb	r3, r4
 3553              	.LVL634:
 3554 0fe0 64E0     		b	.L218
 3555              	.LVL635:
 3556              	.L220:
 3557              	.LBB277:
 3558              	.LBB278:
 626:..\..\mruby_c2\Design01.cydsn/vm.c ****   int rb = GETARG_B(code);  // index of method sym
 3559              		.loc 1 626 0
 3560 0fe2 E70D     		lsrs	r7, r4, #23
 3561              	.LVL636:
 627:..\..\mruby_c2\Design01.cydsn/vm.c ****   int rc = GETARG_C(code);  // number of params
 3562              		.loc 1 627 0
 3563 0fe4 C4F38833 		ubfx	r3, r4, #14, #9
 3564 0fe8 0593     		str	r3, [sp, #20]
 3565              	.LVL637:
 628:..\..\mruby_c2\Design01.cydsn/vm.c ****   mrb_value recv = regs[ra];
 3566              		.loc 1 628 0
ARM GAS  C:\Users\164\AppData\Local\Temp\cc4PZf78.s 			page 105


 3567 0fea C4F3C61B 		ubfx	fp, r4, #7, #7
 3568              	.LVL638:
 629:..\..\mruby_c2\Design01.cydsn/vm.c **** 
 3569              		.loc 1 629 0
 3570 0fee 4FEA071A 		lsl	r10, r7, #4
 3571 0ff2 06EB0A09 		add	r9, r6, r10
 3572 0ff6 99E80F00 		ldmia	r9, {r0, r1, r2, r3}
 3573              	.LVL639:
 3574 0ffa 0DF1380E 		add	lr, sp, #56
 3575 0ffe 0EE90F00 		stmdb	lr, {r0, r1, r2, r3}
 632:..\..\mruby_c2\Design01.cydsn/vm.c ****   switch( GET_OPCODE(code) ) {
 3576              		.loc 1 632 0
 3577 1002 5F44     		add	r7, r7, fp
 3578              	.LVL640:
 3579 1004 0137     		adds	r7, r7, #1
 3580              	.LVL641:
 633:..\..\mruby_c2\Design01.cydsn/vm.c ****   case OP_SEND:
 3581              		.loc 1 633 0
 3582 1006 04F07F04 		and	r4, r4, #127
 3583              	.LVL642:
 3584 100a 202C     		cmp	r4, #32
 3585 100c 02D0     		beq	.L225
 3586 100e 212C     		cmp	r4, #33
 3587 1010 07D0     		beq	.L226
 3588 1012 0CE0     		b	.L224
 3589              	.L225:
 636:..\..\mruby_c2\Design01.cydsn/vm.c ****     regs[bidx].tt = MRB_TT_NIL;
 3590              		.loc 1 636 0
 3591 1014 3C01     		lsls	r4, r7, #4
 3592 1016 3019     		adds	r0, r6, r4
 3593 1018 FFF7FEFF 		bl	mrbc_release
 3594              	.LVL643:
 637:..\..\mruby_c2\Design01.cydsn/vm.c ****     break;
 3595              		.loc 1 637 0
 3596 101c 0123     		movs	r3, #1
 3597 101e 3355     		strb	r3, [r6, r4]
 3598 1020 05E0     		b	.L224
 3599              	.L226:
 642:..\..\mruby_c2\Design01.cydsn/vm.c ****       // TODO: fix the following behavior
 3600              		.loc 1 642 0
 3601 1022 3B01     		lsls	r3, r7, #4
 3602 1024 F356     		ldrsb	r3, [r6, r3]
 3603 1026 012B     		cmp	r3, #1
 3604 1028 01D0     		beq	.L224
 3605 102a 152B     		cmp	r3, #21
 3606 102c 37D1     		bne	.L227
 3607              	.L224:
 654:..\..\mruby_c2\Design01.cydsn/vm.c ****   mrb_sym sym_id = str_to_symid(sym_name);
 3608              		.loc 1 654 0
 3609 102e EB68     		ldr	r3, [r5, #12]
 3610 1030 0599     		ldr	r1, [sp, #20]
 3611 1032 5869     		ldr	r0, [r3, #20]
 3612 1034 FFF7FEFF 		bl	mrbc_get_irep_symbol
 3613              	.LVL644:
 3614 1038 0590     		str	r0, [sp, #20]
 3615              	.LVL645:
 655:..\..\mruby_c2\Design01.cydsn/vm.c ****   mrb_proc *m = find_method(vm, recv, sym_id);
ARM GAS  C:\Users\164\AppData\Local\Temp\cc4PZf78.s 			page 106


 3616              		.loc 1 655 0
 3617 103a FFF7FEFF 		bl	str_to_symid
 3618              	.LVL646:
 656:..\..\mruby_c2\Design01.cydsn/vm.c **** 
 3619              		.loc 1 656 0
 3620 103e 0290     		str	r0, [sp, #8]
 3621 1040 0EAB     		add	r3, sp, #56
 3622 1042 13E90300 		ldmdb	r3, {r0, r1}
 3623              	.LVL647:
 3624 1046 8DE80300 		stmia	sp, {r0, r1}
 3625 104a 0AAB     		add	r3, sp, #40
 3626 104c 0CCB     		ldmia	r3, {r2, r3}
 3627 104e 2846     		mov	r0, r5
 3628 1050 FFF7FEFF 		bl	find_method
 3629              	.LVL648:
 658:..\..\mruby_c2\Design01.cydsn/vm.c ****     console_printf("No method. vtype=%d method='%s'\n", recv.tt, sym_name);
 3630              		.loc 1 658 0
 3631 1054 0446     		mov	r4, r0
 3632 1056 30B9     		cbnz	r0, .L228
 659:..\..\mruby_c2\Design01.cydsn/vm.c ****     return 0;
 3633              		.loc 1 659 0
 3634 1058 059A     		ldr	r2, [sp, #20]
 3635 105a 9DF92810 		ldrsb	r1, [sp, #40]
 3636 105e 5148     		ldr	r0, .L293
 3637              	.LVL649:
 3638 1060 FFF7FEFF 		bl	console_printf
 3639              	.LVL650:
 3640 1064 1BE0     		b	.L227
 3641              	.LVL651:
 3642              	.L228:
 664:..\..\mruby_c2\Design01.cydsn/vm.c ****     m->func(vm, regs + ra, rc);
 3643              		.loc 1 664 0
 3644 1066 C378     		ldrb	r3, [r0, #3]	@ zero_extendqisi2
 3645 1068 13F0010F 		tst	r3, #1
 3646 106c 0AD0     		beq	.L229
 3647              	.LBB279:
 665:..\..\mruby_c2\Design01.cydsn/vm.c **** 
 3648              		.loc 1 665 0
 3649 106e C368     		ldr	r3, [r0, #12]
 3650 1070 5A46     		mov	r2, fp
 3651 1072 4946     		mov	r1, r9
 3652 1074 2846     		mov	r0, r5
 3653              	.LVL652:
 3654 1076 9847     		blx	r3
 3655              	.LVL653:
 667:..\..\mruby_c2\Design01.cydsn/vm.c ****     while( release_reg <= bidx ) {
 3656              		.loc 1 667 0
 3657 1078 3B46     		mov	r3, r7
 3658 107a 00E0     		b	.L230
 3659              	.LVL654:
 3660              	.L231:
 670:..\..\mruby_c2\Design01.cydsn/vm.c ****     }
 3661              		.loc 1 670 0
 3662 107c 0133     		adds	r3, r3, #1
 3663              	.LVL655:
 3664              	.L230:
 668:..\..\mruby_c2\Design01.cydsn/vm.c ****       // mrbc_release(&regs[release_reg]);
ARM GAS  C:\Users\164\AppData\Local\Temp\cc4PZf78.s 			page 107


 3665              		.loc 1 668 0
 3666 107e 9F42     		cmp	r7, r3
 3667 1080 FCDA     		bge	.L231
 3668 1082 0CE0     		b	.L227
 3669              	.LVL656:
 3670              	.L229:
 3671              	.LBE279:
 677:..\..\mruby_c2\Design01.cydsn/vm.c **** 
 3672              		.loc 1 677 0
 3673 1084 5946     		mov	r1, fp
 3674 1086 2846     		mov	r0, r5
 3675              	.LVL657:
 3676 1088 FFF7FEFF 		bl	mrbc_push_callinfo
 3677              	.LVL658:
 680:..\..\mruby_c2\Design01.cydsn/vm.c ****   vm->pc_irep = m->irep;
 3678              		.loc 1 680 0
 3679 108c 0023     		movs	r3, #0
 3680 108e 2B82     		strh	r3, [r5, #16]	@ movhi
 681:..\..\mruby_c2\Design01.cydsn/vm.c **** 
 3681              		.loc 1 681 0
 3682 1090 E368     		ldr	r3, [r4, #12]
 3683 1092 EB60     		str	r3, [r5, #12]
 684:..\..\mruby_c2\Design01.cydsn/vm.c **** 
 3684              		.loc 1 684 0
 3685 1094 D5F85836 		ldr	r3, [r5, #1624]
 3686 1098 5344     		add	r3, r3, r10
 3687 109a C5F85836 		str	r3, [r5, #1624]
 3688              	.LVL659:
 3689              	.L227:
 3690              	.LBE278:
 3691              	.LBE277:
1220:..\..\mruby_c2\Design01.cydsn/vm.c ****   return 0;
 3692              		.loc 1 1220 0
 3693 109e 08F10100 		add	r0, r8, #1
 3694 10a2 06EB0010 		add	r0, r6, r0, lsl #4
 3695 10a6 FFF7FEFF 		bl	mrbc_release
 3696              	.LVL660:
 3697 10aa 04E0     		b	.L232
 3698              	.LVL661:
 3699              	.L218:
1224:..\..\mruby_c2\Design01.cydsn/vm.c ****   return 0;
 3700              		.loc 1 1224 0
 3701 10ac 0BB1     		cbz	r3, .L279
 3702 10ae 0323     		movs	r3, #3
 3703              	.LVL662:
 3704 10b0 00E0     		b	.L233
 3705              	.LVL663:
 3706              	.L279:
 3707 10b2 0223     		movs	r3, #2
 3708              	.LVL664:
 3709              	.L233:
 3710 10b4 F355     		strb	r3, [r6, r7]
 3711              	.L232:
 3712              	.LVL665:
 3713              	.LBE276:
 3714              	.LBE275:
1790:..\..\mruby_c2\Design01.cydsn/vm.c ****     case OP_GT:         ret = op_gt        (vm, code, regs); break;
ARM GAS  C:\Users\164\AppData\Local\Temp\cc4PZf78.s 			page 108


 3715              		.loc 1 1790 0
 3716 10b6 0027     		movs	r7, #0
 3717 10b8 94E2     		b	.L55
 3718              	.LVL666:
 3719              	.L92:
 3720              	.LBB280:
 3721              	.LBB281:
1242:..\..\mruby_c2\Design01.cydsn/vm.c ****   int result;
 3722              		.loc 1 1242 0
 3723 10ba 4FEAD458 		lsr	r8, r4, #23
 3724              	.LVL667:
1245:..\..\mruby_c2\Design01.cydsn/vm.c ****     if( regs[ra+1].tt == MRB_TT_FIXNUM ) {
 3725              		.loc 1 1245 0
 3726 10be 4FEA0817 		lsl	r7, r8, #4
 3727              	.LVL668:
 3728 10c2 F119     		adds	r1, r6, r7
 3729 10c4 F357     		ldrsb	r3, [r6, r7]
 3730              	.LVL669:
 3731 10c6 042B     		cmp	r3, #4
 3732 10c8 1FD1     		bne	.L234
1246:..\..\mruby_c2\Design01.cydsn/vm.c ****       result = regs[ra].i >= regs[ra+1].i;	// in case of Fixnum, Fixnum
 3733              		.loc 1 1246 0
 3734 10ca 08F10102 		add	r2, r8, #1
 3735 10ce 1201     		lsls	r2, r2, #4
 3736 10d0 B018     		adds	r0, r6, r2
 3737 10d2 B256     		ldrsb	r2, [r6, r2]
 3738 10d4 042A     		cmp	r2, #4
 3739 10d6 06D1     		bne	.L235
1247:..\..\mruby_c2\Design01.cydsn/vm.c ****       goto DONE;
 3740              		.loc 1 1247 0
 3741 10d8 8B68     		ldr	r3, [r1, #8]
 3742 10da 8268     		ldr	r2, [r0, #8]
 3743 10dc 9342     		cmp	r3, r2
 3744 10de B4BF     		ite	lt
 3745 10e0 0023     		movlt	r3, #0
 3746 10e2 0123     		movge	r3, #1
 3747              	.LVL670:
 3748 10e4 A5E0     		b	.L236
 3749              	.LVL671:
 3750              	.L235:
1251:..\..\mruby_c2\Design01.cydsn/vm.c ****       result = regs[ra].i >= regs[ra+1].d;	// in case of Fixnum, Float
 3751              		.loc 1 1251 0
 3752 10e6 052A     		cmp	r2, #5
 3753 10e8 0FD1     		bne	.L234
1252:..\..\mruby_c2\Design01.cydsn/vm.c ****       goto DONE;
 3754              		.loc 1 1252 0
 3755 10ea D0E90289 		ldrd	r8, [r0, #8]
 3756              	.LVL672:
 3757 10ee 8868     		ldr	r0, [r1, #8]
 3758 10f0 FFF7FEFF 		bl	__aeabi_i2d
 3759              	.LVL673:
 3760 10f4 4FF00104 		mov	r4, #1
 3761              	.LVL674:
 3762 10f8 4246     		mov	r2, r8
 3763 10fa 4B46     		mov	r3, r9
 3764 10fc FFF7FEFF 		bl	__aeabi_dcmpge
 3765              	.LVL675:
ARM GAS  C:\Users\164\AppData\Local\Temp\cc4PZf78.s 			page 109


 3766 1100 08B9     		cbnz	r0, .L237
 3767 1102 4FF00004 		mov	r4, #0
 3768              	.L237:
 3769 1106 E3B2     		uxtb	r3, r4
 3770              	.LVL676:
 3771 1108 93E0     		b	.L236
 3772              	.LVL677:
 3773              	.L234:
1256:..\..\mruby_c2\Design01.cydsn/vm.c ****     if( regs[ra+1].tt == MRB_TT_FIXNUM ) {
 3774              		.loc 1 1256 0
 3775 110a 052B     		cmp	r3, #5
 3776 110c 29D1     		bne	.L238
1257:..\..\mruby_c2\Design01.cydsn/vm.c ****       result = regs[ra].d >= regs[ra+1].i;	// in case of Float, Fixnum
 3777              		.loc 1 1257 0
 3778 110e 08F10103 		add	r3, r8, #1
 3779 1112 1B01     		lsls	r3, r3, #4
 3780 1114 F218     		adds	r2, r6, r3
 3781 1116 F356     		ldrsb	r3, [r6, r3]
 3782 1118 042B     		cmp	r3, #4
 3783 111a 11D1     		bne	.L239
1258:..\..\mruby_c2\Design01.cydsn/vm.c ****       goto DONE;
 3784              		.loc 1 1258 0
 3785 111c D1E90289 		ldrd	r8, [r1, #8]
 3786              	.LVL678:
 3787 1120 9068     		ldr	r0, [r2, #8]
 3788 1122 FFF7FEFF 		bl	__aeabi_i2d
 3789              	.LVL679:
 3790 1126 4FF00104 		mov	r4, #1
 3791              	.LVL680:
 3792 112a 0246     		mov	r2, r0
 3793 112c 0B46     		mov	r3, r1
 3794 112e 4046     		mov	r0, r8
 3795 1130 4946     		mov	r1, r9
 3796 1132 FFF7FEFF 		bl	__aeabi_dcmpge
 3797              	.LVL681:
 3798 1136 08B9     		cbnz	r0, .L240
 3799 1138 4FF00004 		mov	r4, #0
 3800              	.L240:
 3801 113c E3B2     		uxtb	r3, r4
 3802              	.LVL682:
 3803 113e 78E0     		b	.L236
 3804              	.LVL683:
 3805              	.L239:
1261:..\..\mruby_c2\Design01.cydsn/vm.c ****       result = regs[ra].d >= regs[ra+1].d;	// in case of Float, Float
 3806              		.loc 1 1261 0
 3807 1140 052B     		cmp	r3, #5
 3808 1142 0ED1     		bne	.L238
1262:..\..\mruby_c2\Design01.cydsn/vm.c ****       goto DONE;
 3809              		.loc 1 1262 0
 3810 1144 4FF00104 		mov	r4, #1
 3811              	.LVL684:
 3812 1148 02F10803 		add	r3, r2, #8
 3813 114c D3E90023 		ldrd	r2, [r3]
 3814 1150 D1E90201 		ldrd	r0, [r1, #8]
 3815 1154 FFF7FEFF 		bl	__aeabi_dcmpge
 3816              	.LVL685:
 3817 1158 08B9     		cbnz	r0, .L241
ARM GAS  C:\Users\164\AppData\Local\Temp\cc4PZf78.s 			page 110


 3818 115a 4FF00004 		mov	r4, #0
 3819              	.L241:
 3820 115e E3B2     		uxtb	r3, r4
 3821              	.LVL686:
 3822 1160 67E0     		b	.L236
 3823              	.LVL687:
 3824              	.L238:
 3825              	.LBB282:
 3826              	.LBB283:
 626:..\..\mruby_c2\Design01.cydsn/vm.c ****   int rb = GETARG_B(code);  // index of method sym
 3827              		.loc 1 626 0
 3828 1162 E70D     		lsrs	r7, r4, #23
 3829              	.LVL688:
 627:..\..\mruby_c2\Design01.cydsn/vm.c ****   int rc = GETARG_C(code);  // number of params
 3830              		.loc 1 627 0
 3831 1164 C4F38833 		ubfx	r3, r4, #14, #9
 3832 1168 0593     		str	r3, [sp, #20]
 3833              	.LVL689:
 628:..\..\mruby_c2\Design01.cydsn/vm.c ****   mrb_value recv = regs[ra];
 3834              		.loc 1 628 0
 3835 116a C4F3C61B 		ubfx	fp, r4, #7, #7
 3836              	.LVL690:
 629:..\..\mruby_c2\Design01.cydsn/vm.c **** 
 3837              		.loc 1 629 0
 3838 116e 4FEA071A 		lsl	r10, r7, #4
 3839 1172 06EB0A09 		add	r9, r6, r10
 3840 1176 99E80F00 		ldmia	r9, {r0, r1, r2, r3}
 3841              	.LVL691:
 3842 117a 0DF1380E 		add	lr, sp, #56
 3843 117e 0EE90F00 		stmdb	lr, {r0, r1, r2, r3}
 632:..\..\mruby_c2\Design01.cydsn/vm.c ****   switch( GET_OPCODE(code) ) {
 3844              		.loc 1 632 0
 3845 1182 5F44     		add	r7, r7, fp
 3846              	.LVL692:
 3847 1184 0137     		adds	r7, r7, #1
 3848              	.LVL693:
 633:..\..\mruby_c2\Design01.cydsn/vm.c ****   case OP_SEND:
 3849              		.loc 1 633 0
 3850 1186 04F07F04 		and	r4, r4, #127
 3851              	.LVL694:
 3852 118a 202C     		cmp	r4, #32
 3853 118c 02D0     		beq	.L243
 3854 118e 212C     		cmp	r4, #33
 3855 1190 0AD0     		beq	.L244
 3856 1192 0FE0     		b	.L242
 3857              	.L243:
 636:..\..\mruby_c2\Design01.cydsn/vm.c ****     regs[bidx].tt = MRB_TT_NIL;
 3858              		.loc 1 636 0
 3859 1194 3C01     		lsls	r4, r7, #4
 3860 1196 3019     		adds	r0, r6, r4
 3861 1198 FFF7FEFF 		bl	mrbc_release
 3862              	.LVL695:
 637:..\..\mruby_c2\Design01.cydsn/vm.c ****     break;
 3863              		.loc 1 637 0
 3864 119c 0123     		movs	r3, #1
 3865 119e 3355     		strb	r3, [r6, r4]
 3866 11a0 08E0     		b	.L242
ARM GAS  C:\Users\164\AppData\Local\Temp\cc4PZf78.s 			page 111


 3867              	.L294:
 3868 11a2 00BF     		.align	2
 3869              	.L293:
 3870 11a4 4C000000 		.word	.LC3
 3871              	.L244:
 642:..\..\mruby_c2\Design01.cydsn/vm.c ****       // TODO: fix the following behavior
 3872              		.loc 1 642 0
 3873 11a8 3B01     		lsls	r3, r7, #4
 3874 11aa F356     		ldrsb	r3, [r6, r3]
 3875 11ac 012B     		cmp	r3, #1
 3876 11ae 01D0     		beq	.L242
 3877 11b0 152B     		cmp	r3, #21
 3878 11b2 37D1     		bne	.L245
 3879              	.L242:
 654:..\..\mruby_c2\Design01.cydsn/vm.c ****   mrb_sym sym_id = str_to_symid(sym_name);
 3880              		.loc 1 654 0
 3881 11b4 EB68     		ldr	r3, [r5, #12]
 3882 11b6 0599     		ldr	r1, [sp, #20]
 3883 11b8 5869     		ldr	r0, [r3, #20]
 3884 11ba FFF7FEFF 		bl	mrbc_get_irep_symbol
 3885              	.LVL696:
 3886 11be 0590     		str	r0, [sp, #20]
 3887              	.LVL697:
 655:..\..\mruby_c2\Design01.cydsn/vm.c ****   mrb_proc *m = find_method(vm, recv, sym_id);
 3888              		.loc 1 655 0
 3889 11c0 FFF7FEFF 		bl	str_to_symid
 3890              	.LVL698:
 656:..\..\mruby_c2\Design01.cydsn/vm.c **** 
 3891              		.loc 1 656 0
 3892 11c4 0290     		str	r0, [sp, #8]
 3893 11c6 0EAB     		add	r3, sp, #56
 3894 11c8 13E90300 		ldmdb	r3, {r0, r1}
 3895              	.LVL699:
 3896 11cc 8DE80300 		stmia	sp, {r0, r1}
 3897 11d0 0AAB     		add	r3, sp, #40
 3898 11d2 0CCB     		ldmia	r3, {r2, r3}
 3899 11d4 2846     		mov	r0, r5
 3900 11d6 FFF7FEFF 		bl	find_method
 3901              	.LVL700:
 658:..\..\mruby_c2\Design01.cydsn/vm.c ****     console_printf("No method. vtype=%d method='%s'\n", recv.tt, sym_name);
 3902              		.loc 1 658 0
 3903 11da 0446     		mov	r4, r0
 3904 11dc 30B9     		cbnz	r0, .L246
 659:..\..\mruby_c2\Design01.cydsn/vm.c ****     return 0;
 3905              		.loc 1 659 0
 3906 11de 059A     		ldr	r2, [sp, #20]
 3907 11e0 9DF92810 		ldrsb	r1, [sp, #40]
 3908 11e4 C248     		ldr	r0, .L295
 3909              	.LVL701:
 3910 11e6 FFF7FEFF 		bl	console_printf
 3911              	.LVL702:
 3912 11ea 1BE0     		b	.L245
 3913              	.LVL703:
 3914              	.L246:
 664:..\..\mruby_c2\Design01.cydsn/vm.c ****     m->func(vm, regs + ra, rc);
 3915              		.loc 1 664 0
 3916 11ec C378     		ldrb	r3, [r0, #3]	@ zero_extendqisi2
ARM GAS  C:\Users\164\AppData\Local\Temp\cc4PZf78.s 			page 112


 3917 11ee 13F0010F 		tst	r3, #1
 3918 11f2 0AD0     		beq	.L247
 3919              	.LBB284:
 665:..\..\mruby_c2\Design01.cydsn/vm.c **** 
 3920              		.loc 1 665 0
 3921 11f4 C368     		ldr	r3, [r0, #12]
 3922 11f6 5A46     		mov	r2, fp
 3923 11f8 4946     		mov	r1, r9
 3924 11fa 2846     		mov	r0, r5
 3925              	.LVL704:
 3926 11fc 9847     		blx	r3
 3927              	.LVL705:
 667:..\..\mruby_c2\Design01.cydsn/vm.c ****     while( release_reg <= bidx ) {
 3928              		.loc 1 667 0
 3929 11fe 3B46     		mov	r3, r7
 3930 1200 00E0     		b	.L248
 3931              	.LVL706:
 3932              	.L249:
 670:..\..\mruby_c2\Design01.cydsn/vm.c ****     }
 3933              		.loc 1 670 0
 3934 1202 0133     		adds	r3, r3, #1
 3935              	.LVL707:
 3936              	.L248:
 668:..\..\mruby_c2\Design01.cydsn/vm.c ****       // mrbc_release(&regs[release_reg]);
 3937              		.loc 1 668 0
 3938 1204 9F42     		cmp	r7, r3
 3939 1206 FCDA     		bge	.L249
 3940 1208 0CE0     		b	.L245
 3941              	.LVL708:
 3942              	.L247:
 3943              	.LBE284:
 677:..\..\mruby_c2\Design01.cydsn/vm.c **** 
 3944              		.loc 1 677 0
 3945 120a 5946     		mov	r1, fp
 3946 120c 2846     		mov	r0, r5
 3947              	.LVL709:
 3948 120e FFF7FEFF 		bl	mrbc_push_callinfo
 3949              	.LVL710:
 680:..\..\mruby_c2\Design01.cydsn/vm.c ****   vm->pc_irep = m->irep;
 3950              		.loc 1 680 0
 3951 1212 0023     		movs	r3, #0
 3952 1214 2B82     		strh	r3, [r5, #16]	@ movhi
 681:..\..\mruby_c2\Design01.cydsn/vm.c **** 
 3953              		.loc 1 681 0
 3954 1216 E368     		ldr	r3, [r4, #12]
 3955 1218 EB60     		str	r3, [r5, #12]
 684:..\..\mruby_c2\Design01.cydsn/vm.c **** 
 3956              		.loc 1 684 0
 3957 121a D5F85836 		ldr	r3, [r5, #1624]
 3958 121e 5344     		add	r3, r3, r10
 3959 1220 C5F85836 		str	r3, [r5, #1624]
 3960              	.LVL711:
 3961              	.L245:
 3962              	.LBE283:
 3963              	.LBE282:
1270:..\..\mruby_c2\Design01.cydsn/vm.c ****   return 0;
 3964              		.loc 1 1270 0
ARM GAS  C:\Users\164\AppData\Local\Temp\cc4PZf78.s 			page 113


 3965 1224 08F10100 		add	r0, r8, #1
 3966 1228 06EB0010 		add	r0, r6, r0, lsl #4
 3967 122c FFF7FEFF 		bl	mrbc_release
 3968              	.LVL712:
 3969 1230 04E0     		b	.L250
 3970              	.LVL713:
 3971              	.L236:
1274:..\..\mruby_c2\Design01.cydsn/vm.c ****   return 0;
 3972              		.loc 1 1274 0
 3973 1232 0BB1     		cbz	r3, .L280
 3974 1234 0323     		movs	r3, #3
 3975              	.LVL714:
 3976 1236 00E0     		b	.L251
 3977              	.LVL715:
 3978              	.L280:
 3979 1238 0223     		movs	r3, #2
 3980              	.LVL716:
 3981              	.L251:
 3982 123a F355     		strb	r3, [r6, r7]
 3983              	.L250:
 3984              	.LVL717:
 3985              	.LBE281:
 3986              	.LBE280:
1791:..\..\mruby_c2\Design01.cydsn/vm.c ****     case OP_GE:         ret = op_ge        (vm, code, regs); break;
 3987              		.loc 1 1791 0
 3988 123c 0027     		movs	r7, #0
 3989 123e D1E1     		b	.L55
 3990              	.LVL718:
 3991              	.L93:
 3992              	.LBB285:
 3993              	.LBB286:
1292:..\..\mruby_c2\Design01.cydsn/vm.c ****   int rb = GETARG_B(code);
 3994              		.loc 1 1292 0
 3995 1240 E70D     		lsrs	r7, r4, #23
 3996              	.LVL719:
1293:..\..\mruby_c2\Design01.cydsn/vm.c ****   int rc = GETARG_C(code);
 3997              		.loc 1 1293 0
 3998 1242 C4F38838 		ubfx	r8, r4, #14, #9
 3999              	.LVL720:
1294:..\..\mruby_c2\Design01.cydsn/vm.c **** 
 4000              		.loc 1 1294 0
 4001 1246 C4F3C619 		ubfx	r9, r4, #7, #7
 4002              	.LVL721:
1296:..\..\mruby_c2\Design01.cydsn/vm.c ****   if( value.array == NULL ) return -1;	// ENOMEM
 4003              		.loc 1 1296 0
 4004 124a 4A46     		mov	r2, r9
 4005 124c 2946     		mov	r1, r5
 4006 124e 0AA8     		add	r0, sp, #40
 4007 1250 FFF7FEFF 		bl	mrbc_array_new
 4008              	.LVL722:
1297:..\..\mruby_c2\Design01.cydsn/vm.c **** 
 4009              		.loc 1 1297 0
 4010 1254 0C9C     		ldr	r4, [sp, #48]
 4011              	.LVL723:
 4012 1256 DCB1     		cbz	r4, .L281
1299:..\..\mruby_c2\Design01.cydsn/vm.c ****   memset( &regs[rb], 0, sizeof(mrb_value) * rc );
 4013              		.loc 1 1299 0
ARM GAS  C:\Users\164\AppData\Local\Temp\cc4PZf78.s 			page 114


 4014 1258 06EB0818 		add	r8, r6, r8, lsl #4
 4015              	.LVL724:
 4016 125c 4FEA091A 		lsl	r10, r9, #4
 4017 1260 5246     		mov	r2, r10
 4018 1262 4146     		mov	r1, r8
 4019 1264 A068     		ldr	r0, [r4, #8]
 4020 1266 FFF7FEFF 		bl	memcpy
 4021              	.LVL725:
1300:..\..\mruby_c2\Design01.cydsn/vm.c ****   value.array->n_stored = rc;
 4022              		.loc 1 1300 0
 4023 126a 5246     		mov	r2, r10
 4024 126c 0021     		movs	r1, #0
 4025 126e 4046     		mov	r0, r8
 4026 1270 FFF7FEFF 		bl	memset
 4027              	.LVL726:
1301:..\..\mruby_c2\Design01.cydsn/vm.c **** 
 4028              		.loc 1 1301 0
 4029 1274 A4F80690 		strh	r9, [r4, #6]	@ movhi
1303:..\..\mruby_c2\Design01.cydsn/vm.c ****   regs[ra] = value;
 4030              		.loc 1 1303 0
 4031 1278 06EB0716 		add	r6, r6, r7, lsl #4
 4032              	.LVL727:
 4033 127c 3046     		mov	r0, r6
 4034 127e FFF7FEFF 		bl	mrbc_release
 4035              	.LVL728:
1304:..\..\mruby_c2\Design01.cydsn/vm.c **** 
 4036              		.loc 1 1304 0
 4037 1282 0EAB     		add	r3, sp, #56
 4038 1284 13E90F00 		ldmdb	r3, {r0, r1, r2, r3}
 4039 1288 86E80F00 		stmia	r6, {r0, r1, r2, r3}
1306:..\..\mruby_c2\Design01.cydsn/vm.c **** }
 4040              		.loc 1 1306 0
 4041 128c 0027     		movs	r7, #0
 4042              	.LVL729:
 4043 128e A9E1     		b	.L55
 4044              	.LVL730:
 4045              	.L281:
1297:..\..\mruby_c2\Design01.cydsn/vm.c **** 
 4046              		.loc 1 1297 0
 4047 1290 4FF0FF37 		mov	r7, #-1
 4048              	.LVL731:
 4049              	.LBE286:
 4050              	.LBE285:
1792:..\..\mruby_c2\Design01.cydsn/vm.c ****     case OP_ARRAY:      ret = op_array     (vm, code, regs); break;
 4051              		.loc 1 1792 0
 4052 1294 A6E1     		b	.L55
 4053              	.LVL732:
 4054              	.L94:
 4055              	.LBB287:
 4056              	.LBB288:
1324:..\..\mruby_c2\Design01.cydsn/vm.c ****   int rb = GETARG_Bx(code);
 4057              		.loc 1 1324 0
 4058 1296 E70D     		lsrs	r7, r4, #23
 4059              	.LVL733:
1325:..\..\mruby_c2\Design01.cydsn/vm.c ****   mrb_object *pool_obj = vm->pc_irep->pools[rb];
 4060              		.loc 1 1325 0
 4061 1298 C4F3CF14 		ubfx	r4, r4, #7, #16
ARM GAS  C:\Users\164\AppData\Local\Temp\cc4PZf78.s 			page 115


 4062              	.LVL734:
1326:..\..\mruby_c2\Design01.cydsn/vm.c **** 
 4063              		.loc 1 1326 0
 4064 129c EB68     		ldr	r3, [r5, #12]
 4065              	.LVL735:
 4066 129e 1B69     		ldr	r3, [r3, #16]
 4067 12a0 53F82430 		ldr	r3, [r3, r4, lsl #2]
 4068              	.LVL736:
1329:..\..\mruby_c2\Design01.cydsn/vm.c ****   mrb_value value = mrbc_string_new(vm, pool_obj->str, len);
 4069              		.loc 1 1329 0
 4070 12a4 9A68     		ldr	r2, [r3, #8]
 4071              	.LVL737:
 4072              	.LBB289:
 4073              	.LBB290:
 140:..\..\mruby_c2\Design01.cydsn/vm.h ****   return (x << 8) | (x >> 8);
 4074              		.loc 2 140 0
 4075 12a6 32F8021C 		ldrh	r1, [r2, #-2]
 4076              	.LVL738:
 4077              		.loc 2 141 0
 4078 12aa 0B0A     		lsrs	r3, r1, #8
 4079              	.LVL739:
 4080 12ac 43EA0123 		orr	r3, r3, r1, lsl #8
 4081              	.LVL740:
 4082              	.LBE290:
 4083              	.LBE289:
1330:..\..\mruby_c2\Design01.cydsn/vm.c ****   if( value.string == NULL ) return -1;		// ENOMEM
 4084              		.loc 1 1330 0
 4085 12b0 9BB2     		uxth	r3, r3
 4086              	.LVL741:
 4087 12b2 2946     		mov	r1, r5
 4088 12b4 0AA8     		add	r0, sp, #40
 4089 12b6 FFF7FEFF 		bl	mrbc_string_new
 4090              	.LVL742:
1331:..\..\mruby_c2\Design01.cydsn/vm.c **** 
 4091              		.loc 1 1331 0
 4092 12ba 0C9B     		ldr	r3, [sp, #48]
 4093 12bc 5BB1     		cbz	r3, .L282
1333:..\..\mruby_c2\Design01.cydsn/vm.c ****   regs[ra] = value;
 4094              		.loc 1 1333 0
 4095 12be 06EB0716 		add	r6, r6, r7, lsl #4
 4096              	.LVL743:
 4097 12c2 3046     		mov	r0, r6
 4098 12c4 FFF7FEFF 		bl	mrbc_release
 4099              	.LVL744:
1334:..\..\mruby_c2\Design01.cydsn/vm.c **** 
 4100              		.loc 1 1334 0
 4101 12c8 0EAB     		add	r3, sp, #56
 4102 12ca 13E90F00 		ldmdb	r3, {r0, r1, r2, r3}
 4103 12ce 86E80F00 		stmia	r6, {r0, r1, r2, r3}
1339:..\..\mruby_c2\Design01.cydsn/vm.c **** }
 4104              		.loc 1 1339 0
 4105 12d2 0027     		movs	r7, #0
 4106              	.LVL745:
 4107 12d4 86E1     		b	.L55
 4108              	.LVL746:
 4109              	.L282:
1331:..\..\mruby_c2\Design01.cydsn/vm.c **** 
ARM GAS  C:\Users\164\AppData\Local\Temp\cc4PZf78.s 			page 116


 4110              		.loc 1 1331 0
 4111 12d6 4FF0FF37 		mov	r7, #-1
 4112              	.LVL747:
 4113              	.LBE288:
 4114              	.LBE287:
1793:..\..\mruby_c2\Design01.cydsn/vm.c ****     case OP_STRING:     ret = op_string    (vm, code, regs); break;
 4115              		.loc 1 1793 0
 4116 12da 83E1     		b	.L55
 4117              	.LVL748:
 4118              	.L95:
 4119              	.LBB291:
 4120              	.LBB292:
1357:..\..\mruby_c2\Design01.cydsn/vm.c ****   int rb = GETARG_B(code);
 4121              		.loc 1 1357 0
 4122 12dc E70D     		lsrs	r7, r4, #23
 4123              	.LVL749:
1358:..\..\mruby_c2\Design01.cydsn/vm.c **** 
 4124              		.loc 1 1358 0
 4125 12de C4F38834 		ubfx	r4, r4, #14, #9
 4126              	.LVL750:
1361:..\..\mruby_c2\Design01.cydsn/vm.c ****   mrb_proc *m;
 4127              		.loc 1 1361 0
 4128 12e2 8448     		ldr	r0, .L295+4
 4129 12e4 FFF7FEFF 		bl	str_to_symid
 4130              	.LVL751:
 4131 12e8 8046     		mov	r8, r0
 4132              	.LVL752:
1363:..\..\mruby_c2\Design01.cydsn/vm.c ****   if( m && m->c_func ){
 4133              		.loc 1 1363 0
 4134 12ea 06EB0717 		add	r7, r6, r7, lsl #4
 4135              	.LVL753:
 4136 12ee 0290     		str	r0, [sp, #8]
 4137 12f0 07F10803 		add	r3, r7, #8
 4138 12f4 93E80300 		ldmia	r3, {r0, r1}
 4139              	.LVL754:
 4140 12f8 8DE80300 		stmia	sp, {r0, r1}
 4141 12fc 97E80C00 		ldmia	r7, {r2, r3}
 4142 1300 2846     		mov	r0, r5
 4143 1302 FFF7FEFF 		bl	find_method
 4144              	.LVL755:
1364:..\..\mruby_c2\Design01.cydsn/vm.c ****     m->func(vm, regs+ra, 0);
 4145              		.loc 1 1364 0
 4146 1306 40B1     		cbz	r0, .L254
 4147 1308 C278     		ldrb	r2, [r0, #3]	@ zero_extendqisi2
 4148 130a 12F0010F 		tst	r2, #1
 4149 130e 04D0     		beq	.L254
1365:..\..\mruby_c2\Design01.cydsn/vm.c ****   } 
 4150              		.loc 1 1365 0
 4151 1310 C368     		ldr	r3, [r0, #12]
 4152 1312 0022     		movs	r2, #0
 4153 1314 3946     		mov	r1, r7
 4154 1316 2846     		mov	r0, r5
 4155              	.LVL756:
 4156 1318 9847     		blx	r3
 4157              	.LVL757:
 4158              	.L254:
1367:..\..\mruby_c2\Design01.cydsn/vm.c ****   if( m && m->c_func ){
ARM GAS  C:\Users\164\AppData\Local\Temp\cc4PZf78.s 			page 117


 4159              		.loc 1 1367 0
 4160 131a 06EB0416 		add	r6, r6, r4, lsl #4
 4161              	.LVL758:
 4162 131e CDF80880 		str	r8, [sp, #8]
 4163 1322 06F10803 		add	r3, r6, #8
 4164 1326 93E80300 		ldmia	r3, {r0, r1}
 4165 132a 8DE80300 		stmia	sp, {r0, r1}
 4166 132e 96E80C00 		ldmia	r6, {r2, r3}
 4167 1332 2846     		mov	r0, r5
 4168 1334 FFF7FEFF 		bl	find_method
 4169              	.LVL759:
1368:..\..\mruby_c2\Design01.cydsn/vm.c ****     m->func(vm, regs+rb, 0);
 4170              		.loc 1 1368 0
 4171 1338 40B1     		cbz	r0, .L255
 4172 133a C278     		ldrb	r2, [r0, #3]	@ zero_extendqisi2
 4173 133c 12F0010F 		tst	r2, #1
 4174 1340 04D0     		beq	.L255
1369:..\..\mruby_c2\Design01.cydsn/vm.c ****   }
 4175              		.loc 1 1369 0
 4176 1342 C368     		ldr	r3, [r0, #12]
 4177 1344 0022     		movs	r2, #0
 4178 1346 3146     		mov	r1, r6
 4179 1348 2846     		mov	r0, r5
 4180              	.LVL760:
 4181 134a 9847     		blx	r3
 4182              	.LVL761:
 4183              	.L255:
1372:..\..\mruby_c2\Design01.cydsn/vm.c ****   mrbc_release(&regs[ra]);
 4184              		.loc 1 1372 0
 4185 134c 0DF12808 		add	r8, sp, #40
 4186 1350 3346     		mov	r3, r6
 4187 1352 3A46     		mov	r2, r7
 4188 1354 2946     		mov	r1, r5
 4189 1356 4046     		mov	r0, r8
 4190 1358 FFF7FEFF 		bl	mrbc_string_add
 4191              	.LVL762:
1373:..\..\mruby_c2\Design01.cydsn/vm.c ****   regs[ra] = v;
 4192              		.loc 1 1373 0
 4193 135c 3846     		mov	r0, r7
 4194 135e FFF7FEFF 		bl	mrbc_release
 4195              	.LVL763:
1374:..\..\mruby_c2\Design01.cydsn/vm.c **** 
 4196              		.loc 1 1374 0
 4197 1362 98E80F00 		ldmia	r8, {r0, r1, r2, r3}
 4198 1366 87E80F00 		stmia	r7, {r0, r1, r2, r3}
 4199              	.LVL764:
 4200              	.LBE292:
 4201              	.LBE291:
1794:..\..\mruby_c2\Design01.cydsn/vm.c ****     case OP_STRCAT:     ret = op_strcat    (vm, code, regs); break;
 4202              		.loc 1 1794 0
 4203 136a 0027     		movs	r7, #0
 4204 136c 3AE1     		b	.L55
 4205              	.LVL765:
 4206              	.L96:
 4207              	.LBB293:
 4208              	.LBB294:
1398:..\..\mruby_c2\Design01.cydsn/vm.c ****   int rb = GETARG_Bz(code);      // sequence position in irep list
ARM GAS  C:\Users\164\AppData\Local\Temp\cc4PZf78.s 			page 118


 4209              		.loc 1 1398 0
 4210 136e 4FEAD458 		lsr	r8, r4, #23
 4211              	.LVL766:
1399:..\..\mruby_c2\Design01.cydsn/vm.c ****   // int c = GETARG_C(code);    // TODO: Add flags support for OP_LAMBDA
 4212              		.loc 1 1399 0
 4213 1372 C4F34D24 		ubfx	r4, r4, #9, #14
 4214              	.LVL767:
1401:..\..\mruby_c2\Design01.cydsn/vm.c **** 
 4215              		.loc 1 1401 0
 4216 1376 6049     		ldr	r1, .L295+8
 4217 1378 2846     		mov	r0, r5
 4218 137a FFF7FEFF 		bl	mrbc_rproc_alloc
 4219              	.LVL768:
 4220 137e 0746     		mov	r7, r0
 4221              	.LVL769:
1403:..\..\mruby_c2\Design01.cydsn/vm.c ****   proc->irep = vm->pc_irep->reps[rb];
 4222              		.loc 1 1403 0
 4223 1380 C378     		ldrb	r3, [r0, #3]	@ zero_extendqisi2
 4224 1382 6FF30003 		bfc	r3, #0, #1
 4225 1386 C370     		strb	r3, [r0, #3]
1404:..\..\mruby_c2\Design01.cydsn/vm.c **** 
 4226              		.loc 1 1404 0
 4227 1388 EB68     		ldr	r3, [r5, #12]
 4228 138a 9B69     		ldr	r3, [r3, #24]
 4229 138c 53F82430 		ldr	r3, [r3, r4, lsl #2]
 4230 1390 C360     		str	r3, [r0, #12]
1406:..\..\mruby_c2\Design01.cydsn/vm.c ****   regs[ra].tt = MRB_TT_PROC;
 4231              		.loc 1 1406 0
 4232 1392 4FEA0814 		lsl	r4, r8, #4
 4233              	.LVL770:
 4234 1396 06EB0408 		add	r8, r6, r4
 4235              	.LVL771:
 4236 139a 4046     		mov	r0, r8
 4237              	.LVL772:
 4238 139c FFF7FEFF 		bl	mrbc_release
 4239              	.LVL773:
1407:..\..\mruby_c2\Design01.cydsn/vm.c ****   regs[ra].proc = proc;
 4240              		.loc 1 1407 0
 4241 13a0 1523     		movs	r3, #21
 4242 13a2 3355     		strb	r3, [r6, r4]
1408:..\..\mruby_c2\Design01.cydsn/vm.c **** 
 4243              		.loc 1 1408 0
 4244 13a4 C8F80870 		str	r7, [r8, #8]
 4245              	.LVL774:
 4246              	.LBE294:
 4247              	.LBE293:
1795:..\..\mruby_c2\Design01.cydsn/vm.c **** //    case OP_HASH:       ret = op_hash      (vm, code, regs); break;
1796:..\..\mruby_c2\Design01.cydsn/vm.c ****     case OP_LAMBDA:     ret = op_lambda    (vm, code, regs); break;
 4248              		.loc 1 1796 0
 4249 13a8 0027     		movs	r7, #0
 4250 13aa 1BE1     		b	.L55
 4251              	.LVL775:
 4252              	.L97:
 4253              	.LBB295:
 4254              	.LBB296:
1427:..\..\mruby_c2\Design01.cydsn/vm.c ****   int rb = GETARG_B(code);
 4255              		.loc 1 1427 0
ARM GAS  C:\Users\164\AppData\Local\Temp\cc4PZf78.s 			page 119


 4256 13ac E70D     		lsrs	r7, r4, #23
 4257              	.LVL776:
1428:..\..\mruby_c2\Design01.cydsn/vm.c ****   int rc = GETARG_C(code);
 4258              		.loc 1 1428 0
 4259 13ae C4F38838 		ubfx	r8, r4, #14, #9
 4260              	.LVL777:
1429:..\..\mruby_c2\Design01.cydsn/vm.c **** 
 4261              		.loc 1 1429 0
 4262 13b2 C4F3C614 		ubfx	r4, r4, #7, #7
 4263              	.LVL778:
1431:..\..\mruby_c2\Design01.cydsn/vm.c ****   mrbc_dup(&regs[rb+1]);
 4264              		.loc 1 1431 0
 4265 13b6 06EB0819 		add	r9, r6, r8, lsl #4
 4266 13ba 4846     		mov	r0, r9
 4267 13bc FFF7FEFF 		bl	mrbc_dup
 4268              	.LVL779:
1432:..\..\mruby_c2\Design01.cydsn/vm.c **** 
 4269              		.loc 1 1432 0
 4270 13c0 08F10108 		add	r8, r8, #1
 4271              	.LVL780:
 4272 13c4 06EB0818 		add	r8, r6, r8, lsl #4
 4273              	.LVL781:
 4274 13c8 4046     		mov	r0, r8
 4275 13ca FFF7FEFF 		bl	mrbc_dup
 4276              	.LVL782:
1434:..\..\mruby_c2\Design01.cydsn/vm.c ****   if( value.range == NULL ) return -1;		// ENOMEM
 4277              		.loc 1 1434 0
 4278 13ce 0094     		str	r4, [sp]
 4279 13d0 4346     		mov	r3, r8
 4280 13d2 4A46     		mov	r2, r9
 4281 13d4 2946     		mov	r1, r5
 4282 13d6 0AA8     		add	r0, sp, #40
 4283 13d8 FFF7FEFF 		bl	mrbc_range_new
 4284              	.LVL783:
1435:..\..\mruby_c2\Design01.cydsn/vm.c **** 
 4285              		.loc 1 1435 0
 4286 13dc 0C9B     		ldr	r3, [sp, #48]
 4287 13de 5BB1     		cbz	r3, .L283
1437:..\..\mruby_c2\Design01.cydsn/vm.c ****   regs[ra] = value;
 4288              		.loc 1 1437 0
 4289 13e0 06EB0716 		add	r6, r6, r7, lsl #4
 4290              	.LVL784:
 4291 13e4 3046     		mov	r0, r6
 4292 13e6 FFF7FEFF 		bl	mrbc_release
 4293              	.LVL785:
1438:..\..\mruby_c2\Design01.cydsn/vm.c **** 
 4294              		.loc 1 1438 0
 4295 13ea 0EAB     		add	r3, sp, #56
 4296 13ec 13E90F00 		ldmdb	r3, {r0, r1, r2, r3}
 4297 13f0 86E80F00 		stmia	r6, {r0, r1, r2, r3}
1440:..\..\mruby_c2\Design01.cydsn/vm.c **** }
 4298              		.loc 1 1440 0
 4299 13f4 0027     		movs	r7, #0
 4300              	.LVL786:
 4301 13f6 F5E0     		b	.L55
 4302              	.LVL787:
 4303              	.L283:
ARM GAS  C:\Users\164\AppData\Local\Temp\cc4PZf78.s 			page 120


1435:..\..\mruby_c2\Design01.cydsn/vm.c **** 
 4304              		.loc 1 1435 0
 4305 13f8 4FF0FF37 		mov	r7, #-1
 4306              	.LVL788:
 4307              	.LBE296:
 4308              	.LBE295:
1797:..\..\mruby_c2\Design01.cydsn/vm.c ****     case OP_RANGE:      ret = op_range     (vm, code, regs); break;
 4309              		.loc 1 1797 0
 4310 13fc F2E0     		b	.L55
 4311              	.LVL789:
 4312              	.L98:
 4313              	.LBB297:
 4314              	.LBB298:
1459:..\..\mruby_c2\Design01.cydsn/vm.c ****   int rb = GETARG_B(code);
 4315              		.loc 1 1459 0
 4316 13fe 4FEAD458 		lsr	r8, r4, #23
 4317              	.LVL790:
1462:..\..\mruby_c2\Design01.cydsn/vm.c ****   const char *sym_name = mrbc_get_irep_symbol(cur_irep->ptr_to_sym, rb);
 4318              		.loc 1 1462 0
 4319 1402 EB68     		ldr	r3, [r5, #12]
 4320              	.LVL791:
1463:..\..\mruby_c2\Design01.cydsn/vm.c ****   mrb_class *super = (regs[ra+1].tt == MRB_TT_CLASS) ? regs[ra+1].cls : mrbc_class_object;
 4321              		.loc 1 1463 0
 4322 1404 C4F38831 		ubfx	r1, r4, #14, #9
 4323              	.LVL792:
 4324 1408 5869     		ldr	r0, [r3, #20]
 4325 140a FFF7FEFF 		bl	mrbc_get_irep_symbol
 4326              	.LVL793:
 4327 140e 0146     		mov	r1, r0
 4328              	.LVL794:
1464:..\..\mruby_c2\Design01.cydsn/vm.c **** 
 4329              		.loc 1 1464 0
 4330 1410 08F10103 		add	r3, r8, #1
 4331 1414 1B01     		lsls	r3, r3, #4
 4332 1416 F218     		adds	r2, r6, r3
 4333 1418 F356     		ldrsb	r3, [r6, r3]
 4334 141a 072B     		cmp	r3, #7
 4335 141c 01D1     		bne	.L257
 4336 141e 9268     		ldr	r2, [r2, #8]
 4337 1420 01E0     		b	.L258
 4338              	.L257:
 4339 1422 364B     		ldr	r3, .L295+12
 4340 1424 1A68     		ldr	r2, [r3]
 4341              	.L258:
 4342              	.LVL795:
1466:..\..\mruby_c2\Design01.cydsn/vm.c **** 
 4343              		.loc 1 1466 0
 4344 1426 2846     		mov	r0, r5
 4345              	.LVL796:
 4346 1428 FFF7FEFF 		bl	mrbc_define_class
 4347              	.LVL797:
1468:..\..\mruby_c2\Design01.cydsn/vm.c ****   ret.cls = cls;
 4348              		.loc 1 1468 0
 4349 142c 0AAB     		add	r3, sp, #40
 4350 142e 0027     		movs	r7, #0
 4351              	.LVL798:
 4352 1430 0A97     		str	r7, [sp, #40]
ARM GAS  C:\Users\164\AppData\Local\Temp\cc4PZf78.s 			page 121


 4353 1432 0B97     		str	r7, [sp, #44]
 4354 1434 0D97     		str	r7, [sp, #52]
 4355 1436 0722     		movs	r2, #7
 4356 1438 8DF82820 		strb	r2, [sp, #40]
1469:..\..\mruby_c2\Design01.cydsn/vm.c **** 
 4357              		.loc 1 1469 0
 4358 143c 0C90     		str	r0, [sp, #48]
1471:..\..\mruby_c2\Design01.cydsn/vm.c **** 
 4359              		.loc 1 1471 0
 4360 143e 06EB0816 		add	r6, r6, r8, lsl #4
 4361              	.LVL799:
 4362 1442 0FCB     		ldmia	r3, {r0, r1, r2, r3}
 4363              	.LVL800:
 4364 1444 86E80F00 		stmia	r6, {r0, r1, r2, r3}
 4365              	.LVL801:
 4366              	.LBE298:
 4367              	.LBE297:
1798:..\..\mruby_c2\Design01.cydsn/vm.c ****     case OP_CLASS:      ret = op_class     (vm, code, regs); break;
 4368              		.loc 1 1798 0
 4369 1448 CCE0     		b	.L55
 4370              	.LVL802:
 4371              	.L99:
 4372              	.LBB299:
 4373              	.LBB300:
1490:..\..\mruby_c2\Design01.cydsn/vm.c ****   int rb = GETARG_Bx(code);
 4374              		.loc 1 1490 0
 4375 144a 4FEAD45E 		lsr	lr, r4, #23
 4376              	.LVL803:
1491:..\..\mruby_c2\Design01.cydsn/vm.c **** 
 4377              		.loc 1 1491 0
 4378 144e C4F3CF14 		ubfx	r4, r4, #7, #16
 4379              	.LVL804:
1493:..\..\mruby_c2\Design01.cydsn/vm.c **** 
 4380              		.loc 1 1493 0
 4381 1452 4FEA0E1E 		lsl	lr, lr, #4
 4382              	.LVL805:
 4383 1456 7644     		add	r6, r6, lr
 4384              	.LVL806:
 4385 1458 0DF1280C 		add	ip, sp, #40
 4386 145c 96E80F00 		ldmia	r6, {r0, r1, r2, r3}
 4387              	.LVL807:
 4388 1460 8CE80F00 		stmia	ip, {r0, r1, r2, r3}
 4389              	.LVL808:
1496:..\..\mruby_c2\Design01.cydsn/vm.c ****   callinfo->current_regs = vm->current_regs;
 4390              		.loc 1 1496 0
 4391 1464 05F5CC61 		add	r1, r5, #1632
 4392 1468 B5F85C36 		ldrh	r3, [r5, #1628]
 4393 146c 03EB8303 		add	r3, r3, r3, lsl #2
 4394 1470 01EB8302 		add	r2, r1, r3, lsl #2
 4395              	.LVL809:
1497:..\..\mruby_c2\Design01.cydsn/vm.c ****   callinfo->pc_irep = vm->pc_irep;
 4396              		.loc 1 1497 0
 4397 1474 D5F85806 		ldr	r0, [r5, #1624]
 4398 1478 9060     		str	r0, [r2, #8]
1498:..\..\mruby_c2\Design01.cydsn/vm.c ****   callinfo->pc = vm->pc;
 4399              		.loc 1 1498 0
 4400 147a E868     		ldr	r0, [r5, #12]
ARM GAS  C:\Users\164\AppData\Local\Temp\cc4PZf78.s 			page 122


 4401 147c 41F82300 		str	r0, [r1, r3, lsl #2]
1499:..\..\mruby_c2\Design01.cydsn/vm.c ****   callinfo->target_class = vm->target_class;
 4402              		.loc 1 1499 0
 4403 1480 2B8A     		ldrh	r3, [r5, #16]
 4404 1482 9380     		strh	r3, [r2, #4]	@ movhi
1500:..\..\mruby_c2\Design01.cydsn/vm.c ****   callinfo->n_args = 0;
 4405              		.loc 1 1500 0
 4406 1484 D5F8303E 		ldr	r3, [r5, #3632]
 4407 1488 D360     		str	r3, [r2, #12]
1501:..\..\mruby_c2\Design01.cydsn/vm.c ****   vm->callinfo_top++;
 4408              		.loc 1 1501 0
 4409 148a 0027     		movs	r7, #0
 4410              	.LVL810:
 4411 148c 1774     		strb	r7, [r2, #16]
1502:..\..\mruby_c2\Design01.cydsn/vm.c **** 
 4412              		.loc 1 1502 0
 4413 148e B5F85C36 		ldrh	r3, [r5, #1628]
 4414 1492 0133     		adds	r3, r3, #1
 4415 1494 A5F85C36 		strh	r3, [r5, #1628]	@ movhi
1505:..\..\mruby_c2\Design01.cydsn/vm.c ****   vm->pc_irep = vm->irep->reps[rb];
 4416              		.loc 1 1505 0
 4417 1498 2F82     		strh	r7, [r5, #16]	@ movhi
1506:..\..\mruby_c2\Design01.cydsn/vm.c **** 
 4418              		.loc 1 1506 0
 4419 149a 2B68     		ldr	r3, [r5]
 4420 149c 9B69     		ldr	r3, [r3, #24]
 4421 149e 53F82430 		ldr	r3, [r3, r4, lsl #2]
 4422 14a2 EB60     		str	r3, [r5, #12]
1509:..\..\mruby_c2\Design01.cydsn/vm.c **** 
 4423              		.loc 1 1509 0
 4424 14a4 D5F85836 		ldr	r3, [r5, #1624]
 4425 14a8 7344     		add	r3, r3, lr
 4426 14aa C5F85836 		str	r3, [r5, #1624]
1511:..\..\mruby_c2\Design01.cydsn/vm.c **** 
 4427              		.loc 1 1511 0
 4428 14ae 6146     		mov	r1, ip
 4429 14b0 2846     		mov	r0, r5
 4430 14b2 FFF7FEFF 		bl	find_class_by_object
 4431              	.LVL811:
 4432 14b6 C5F8300E 		str	r0, [r5, #3632]
 4433              	.LVL812:
 4434              	.LBE300:
 4435              	.LBE299:
1799:..\..\mruby_c2\Design01.cydsn/vm.c ****     case OP_EXEC:       ret = op_exec      (vm, code, regs); break;
 4436              		.loc 1 1799 0
 4437 14ba 93E0     		b	.L55
 4438              	.LVL813:
 4439              	.L100:
 4440              	.LBB301:
 4441              	.LBB302:
1531:..\..\mruby_c2\Design01.cydsn/vm.c ****   int rb = GETARG_B(code);
 4442              		.loc 1 1531 0
 4443 14bc E30D     		lsrs	r3, r4, #23
 4444              	.LVL814:
1532:..\..\mruby_c2\Design01.cydsn/vm.c ****   mrb_proc *proc = regs[ra+1].proc;
 4445              		.loc 1 1532 0
 4446 14be C4F38831 		ubfx	r1, r4, #14, #9
ARM GAS  C:\Users\164\AppData\Local\Temp\cc4PZf78.s 			page 123


 4447              	.LVL815:
1533:..\..\mruby_c2\Design01.cydsn/vm.c **** 
 4448              		.loc 1 1533 0
 4449 14c2 5F1C     		adds	r7, r3, #1
 4450              	.LVL816:
 4451 14c4 3F01     		lsls	r7, r7, #4
 4452 14c6 F219     		adds	r2, r6, r7
 4453 14c8 9468     		ldr	r4, [r2, #8]
 4454              	.LVL817:
1535:..\..\mruby_c2\Design01.cydsn/vm.c ****     mrb_class *cls = regs[ra].cls;
 4455              		.loc 1 1535 0
 4456 14ca 1B01     		lsls	r3, r3, #4
 4457              	.LVL818:
 4458 14cc F218     		adds	r2, r6, r3
 4459 14ce F356     		ldrsb	r3, [r6, r3]
 4460 14d0 072B     		cmp	r3, #7
 4461 14d2 41D1     		bne	.L259
 4462              	.LBB303:
1536:..\..\mruby_c2\Design01.cydsn/vm.c **** 
 4463              		.loc 1 1536 0
 4464 14d4 D2F80880 		ldr	r8, [r2, #8]
 4465              	.LVL819:
1539:..\..\mruby_c2\Design01.cydsn/vm.c ****     const char *sym_name = mrbc_get_irep_symbol(cur_irep->ptr_to_sym, rb);
 4466              		.loc 1 1539 0
 4467 14d8 EB68     		ldr	r3, [r5, #12]
 4468              	.LVL820:
1540:..\..\mruby_c2\Design01.cydsn/vm.c ****     int sym_id = str_to_symid(sym_name);
 4469              		.loc 1 1540 0
 4470 14da 5869     		ldr	r0, [r3, #20]
 4471 14dc FFF7FEFF 		bl	mrbc_get_irep_symbol
 4472              	.LVL821:
1541:..\..\mruby_c2\Design01.cydsn/vm.c **** 
 4473              		.loc 1 1541 0
 4474 14e0 FFF7FEFF 		bl	str_to_symid
 4475              	.LVL822:
 4476 14e4 8146     		mov	r9, r0
 4477              	.LVL823:
1544:..\..\mruby_c2\Design01.cydsn/vm.c ****     void *pp = &cls->procs;
 4478              		.loc 1 1544 0
 4479 14e6 4146     		mov	r1, r8
 4480 14e8 51F8083F 		ldr	r3, [r1, #8]!
 4481              	.LVL824:
 4482 14ec 0FE0     		b	.L260
 4483              	.L296:
 4484 14ee 00BF     		.align	2
 4485              	.L295:
 4486 14f0 4C000000 		.word	.LC3
 4487 14f4 70000000 		.word	.LC4
 4488 14f8 78000000 		.word	.LC5
 4489 14fc 00000000 		.word	mrbc_class_object
 4490              	.L262:
1547:..\..\mruby_c2\Design01.cydsn/vm.c ****       pp = &p->next;
 4491              		.loc 1 1547 0
 4492 1500 B3F90420 		ldrsh	r2, [r3, #4]
 4493 1504 9042     		cmp	r0, r2
 4494 1506 04D0     		beq	.L261
1548:..\..\mruby_c2\Design01.cydsn/vm.c ****       p = p->next;
ARM GAS  C:\Users\164\AppData\Local\Temp\cc4PZf78.s 			page 124


 4495              		.loc 1 1548 0
 4496 1508 03F10801 		add	r1, r3, #8
 4497              	.LVL825:
1549:..\..\mruby_c2\Design01.cydsn/vm.c ****     }
 4498              		.loc 1 1549 0
 4499 150c 9B68     		ldr	r3, [r3, #8]
 4500              	.LVL826:
 4501              	.L260:
1546:..\..\mruby_c2\Design01.cydsn/vm.c ****       if( p->sym_id == sym_id ) break;
 4502              		.loc 1 1546 0
 4503 150e 002B     		cmp	r3, #0
 4504 1510 F6D1     		bne	.L262
 4505              	.L261:
1551:..\..\mruby_c2\Design01.cydsn/vm.c ****       // found it.
 4506              		.loc 1 1551 0
 4507 1512 83B1     		cbz	r3, .L263
1553:..\..\mruby_c2\Design01.cydsn/vm.c ****       if( !p->c_func ) {
 4508              		.loc 1 1553 0
 4509 1514 9A68     		ldr	r2, [r3, #8]
 4510 1516 0A60     		str	r2, [r1]
1554:..\..\mruby_c2\Design01.cydsn/vm.c **** 	mrb_value v = {.tt = MRB_TT_PROC};
 4511              		.loc 1 1554 0
 4512 1518 DA78     		ldrb	r2, [r3, #3]	@ zero_extendqisi2
 4513 151a 12F0010F 		tst	r2, #1
 4514 151e 0AD1     		bne	.L263
 4515              	.LBB304:
1555:..\..\mruby_c2\Design01.cydsn/vm.c **** 	v.proc = p;
 4516              		.loc 1 1555 0
 4517 1520 0022     		movs	r2, #0
 4518 1522 0A92     		str	r2, [sp, #40]
 4519 1524 0B92     		str	r2, [sp, #44]
 4520 1526 0D92     		str	r2, [sp, #52]
 4521 1528 1522     		movs	r2, #21
 4522 152a 8DF82820 		strb	r2, [sp, #40]
1556:..\..\mruby_c2\Design01.cydsn/vm.c **** 	mrbc_release(&v);
 4523              		.loc 1 1556 0
 4524 152e 0C93     		str	r3, [sp, #48]
1557:..\..\mruby_c2\Design01.cydsn/vm.c ****       }
 4525              		.loc 1 1557 0
 4526 1530 0AA8     		add	r0, sp, #40
 4527              	.LVL827:
 4528 1532 FFF7FEFF 		bl	mrbc_release
 4529              	.LVL828:
 4530              	.L263:
 4531              	.LBE304:
1562:..\..\mruby_c2\Design01.cydsn/vm.c ****     proc->sym_id = sym_id;
 4532              		.loc 1 1562 0
 4533 1536 E378     		ldrb	r3, [r4, #3]	@ zero_extendqisi2
 4534 1538 6FF30003 		bfc	r3, #0, #1
 4535 153c E370     		strb	r3, [r4, #3]
1563:..\..\mruby_c2\Design01.cydsn/vm.c **** #ifdef MRBC_DEBUG
 4536              		.loc 1 1563 0
 4537 153e A4F80490 		strh	r9, [r4, #4]	@ movhi
1567:..\..\mruby_c2\Design01.cydsn/vm.c ****     cls->procs = proc;
 4538              		.loc 1 1567 0
 4539 1542 D8F80830 		ldr	r3, [r8, #8]
 4540 1546 A360     		str	r3, [r4, #8]
ARM GAS  C:\Users\164\AppData\Local\Temp\cc4PZf78.s 			page 125


1568:..\..\mruby_c2\Design01.cydsn/vm.c **** 
 4541              		.loc 1 1568 0
 4542 1548 C8F80840 		str	r4, [r8, #8]
1570:..\..\mruby_c2\Design01.cydsn/vm.c ****     regs[ra+1].tt = MRB_TT_EMPTY;
 4543              		.loc 1 1570 0
 4544 154c 0021     		movs	r1, #0
 4545 154e 2046     		mov	r0, r4
 4546 1550 FFF7FEFF 		bl	mrbc_set_vm_id
 4547              	.LVL829:
1571:..\..\mruby_c2\Design01.cydsn/vm.c ****   }
 4548              		.loc 1 1571 0
 4549 1554 0023     		movs	r3, #0
 4550 1556 F355     		strb	r3, [r6, r7]
 4551              	.LVL830:
 4552              	.L259:
 4553              	.LBE303:
 4554              	.LBE302:
 4555              	.LBE301:
1800:..\..\mruby_c2\Design01.cydsn/vm.c ****     case OP_METHOD:     ret = op_method    (vm, code, regs); break;
 4556              		.loc 1 1800 0
 4557 1558 0027     		movs	r7, #0
 4558 155a 43E0     		b	.L55
 4559              	.LVL831:
 4560              	.L101:
 4561              	.LBB305:
 4562              	.LBB306:
1591:..\..\mruby_c2\Design01.cydsn/vm.c **** 
 4563              		.loc 1 1591 0
 4564 155c E40D     		lsrs	r4, r4, #23
 4565              	.LVL832:
1593:..\..\mruby_c2\Design01.cydsn/vm.c ****   regs[ra].tt = MRB_TT_CLASS;
 4566              		.loc 1 1593 0
 4567 155e 2401     		lsls	r4, r4, #4
 4568              	.LVL833:
 4569 1560 3719     		adds	r7, r6, r4
 4570              	.LVL834:
 4571 1562 3846     		mov	r0, r7
 4572 1564 FFF7FEFF 		bl	mrbc_release
 4573              	.LVL835:
1594:..\..\mruby_c2\Design01.cydsn/vm.c ****   regs[ra].cls = vm->target_class;
 4574              		.loc 1 1594 0
 4575 1568 0723     		movs	r3, #7
 4576 156a 3355     		strb	r3, [r6, r4]
1595:..\..\mruby_c2\Design01.cydsn/vm.c **** 
 4577              		.loc 1 1595 0
 4578 156c D5F8303E 		ldr	r3, [r5, #3632]
 4579 1570 BB60     		str	r3, [r7, #8]
 4580              	.LVL836:
 4581              	.LBE306:
 4582              	.LBE305:
1801:..\..\mruby_c2\Design01.cydsn/vm.c ****     case OP_TCLASS:     ret = op_tclass    (vm, code, regs); break;
 4583              		.loc 1 1801 0
 4584 1572 0027     		movs	r7, #0
 4585 1574 36E0     		b	.L55
 4586              	.LVL837:
 4587              	.L102:
 4588              	.LBB307:
ARM GAS  C:\Users\164\AppData\Local\Temp\cc4PZf78.s 			page 126


 4589              	.LBB308:
1615:..\..\mruby_c2\Design01.cydsn/vm.c ****     int i;
 4590              		.loc 1 1615 0
 4591 1576 04F07F04 		and	r4, r4, #127
 4592              	.LVL838:
 4593 157a 4A2C     		cmp	r4, #74
 4594 157c 0AD1     		bne	.L265
 4595 157e 06E0     		b	.L284
 4596              	.LVL839:
 4597              	.L266:
 4598              	.LBB309:
1618:..\..\mruby_c2\Design01.cydsn/vm.c ****     }
 4599              		.loc 1 1618 0
 4600 1580 2001     		lsls	r0, r4, #4
 4601 1582 1830     		adds	r0, r0, #24
 4602 1584 2844     		add	r0, r0, r5
 4603 1586 FFF7FEFF 		bl	mrbc_release
 4604              	.LVL840:
1617:..\..\mruby_c2\Design01.cydsn/vm.c ****       mrbc_release(&vm->regs[i]);
 4605              		.loc 1 1617 0
 4606 158a 0134     		adds	r4, r4, #1
 4607              	.LVL841:
 4608 158c 00E0     		b	.L264
 4609              	.LVL842:
 4610              	.L284:
 4611              	.LBE309:
1615:..\..\mruby_c2\Design01.cydsn/vm.c ****     int i;
 4612              		.loc 1 1615 0
 4613 158e 0024     		movs	r4, #0
 4614              	.LVL843:
 4615              	.L264:
 4616              	.LBB310:
1617:..\..\mruby_c2\Design01.cydsn/vm.c ****       mrbc_release(&vm->regs[i]);
 4617              		.loc 1 1617 0
 4618 1590 632C     		cmp	r4, #99
 4619 1592 F5DD     		ble	.L266
 4620              	.LVL844:
 4621              	.L265:
 4622              	.LBE310:
1622:..\..\mruby_c2\Design01.cydsn/vm.c ****   
 4623              		.loc 1 1622 0
 4624 1594 0123     		movs	r3, #1
 4625 1596 85F8383E 		strb	r3, [r5, #3640]
 4626              	.LVL845:
 4627              	.LBE308:
 4628              	.LBE307:
1802:..\..\mruby_c2\Design01.cydsn/vm.c ****     case OP_STOP:       ret = op_stop      (vm, code, regs); break;
 4629              		.loc 1 1802 0
 4630 159a 4FF0FF37 		mov	r7, #-1
 4631 159e 21E0     		b	.L55
 4632              	.LVL846:
 4633              	.L103:
 4634              	.LBB311:
 4635              	.LBB312:
1615:..\..\mruby_c2\Design01.cydsn/vm.c ****     int i;
 4636              		.loc 1 1615 0
 4637 15a0 04F07F04 		and	r4, r4, #127
ARM GAS  C:\Users\164\AppData\Local\Temp\cc4PZf78.s 			page 127


 4638              	.LVL847:
 4639 15a4 4A2C     		cmp	r4, #74
 4640 15a6 0AD1     		bne	.L268
 4641 15a8 06E0     		b	.L285
 4642              	.LVL848:
 4643              	.L269:
 4644              	.LBB313:
1618:..\..\mruby_c2\Design01.cydsn/vm.c ****     }
 4645              		.loc 1 1618 0
 4646 15aa 2001     		lsls	r0, r4, #4
 4647 15ac 1830     		adds	r0, r0, #24
 4648 15ae 2844     		add	r0, r0, r5
 4649 15b0 FFF7FEFF 		bl	mrbc_release
 4650              	.LVL849:
1617:..\..\mruby_c2\Design01.cydsn/vm.c ****       mrbc_release(&vm->regs[i]);
 4651              		.loc 1 1617 0
 4652 15b4 0134     		adds	r4, r4, #1
 4653              	.LVL850:
 4654 15b6 00E0     		b	.L267
 4655              	.LVL851:
 4656              	.L285:
 4657              	.LBE313:
1615:..\..\mruby_c2\Design01.cydsn/vm.c ****     int i;
 4658              		.loc 1 1615 0
 4659 15b8 0024     		movs	r4, #0
 4660              	.LVL852:
 4661              	.L267:
 4662              	.LBB314:
1617:..\..\mruby_c2\Design01.cydsn/vm.c ****       mrbc_release(&vm->regs[i]);
 4663              		.loc 1 1617 0
 4664 15ba 632C     		cmp	r4, #99
 4665 15bc F5DD     		ble	.L269
 4666              	.LVL853:
 4667              	.L268:
 4668              	.LBE314:
1622:..\..\mruby_c2\Design01.cydsn/vm.c ****   
 4669              		.loc 1 1622 0
 4670 15be 0123     		movs	r3, #1
 4671 15c0 85F8383E 		strb	r3, [r5, #3640]
 4672              	.LVL854:
 4673              	.LBE312:
 4674              	.LBE311:
1803:..\..\mruby_c2\Design01.cydsn/vm.c ****     case OP_ABORT:      ret = op_stop      (vm, code, regs); break;  // reuse
 4675              		.loc 1 1803 0
 4676 15c4 4FF0FF37 		mov	r7, #-1
 4677 15c8 0CE0     		b	.L55
 4678              	.LVL855:
 4679              	.L54:
1804:..\..\mruby_c2\Design01.cydsn/vm.c ****     default:
1805:..\..\mruby_c2\Design01.cydsn/vm.c ****       console_printf("Skip OP=%02x\n", GET_OPCODE(code));
 4680              		.loc 1 1805 0
 4681 15ca 04F07F01 		and	r1, r4, #127
 4682 15ce 0C48     		ldr	r0, .L297
 4683 15d0 FFF7FEFF 		bl	console_printf
 4684              	.LVL856:
1806:..\..\mruby_c2\Design01.cydsn/vm.c ****       break;
 4685              		.loc 1 1806 0
ARM GAS  C:\Users\164\AppData\Local\Temp\cc4PZf78.s 			page 128


 4686 15d4 06E0     		b	.L55
 4687              	.LVL857:
 4688              	.L271:
1755:..\..\mruby_c2\Design01.cydsn/vm.c ****     case OP_MOVE:       ret = op_move      (vm, code, regs); break;
 4689              		.loc 1 1755 0
 4690 15d6 0027     		movs	r7, #0
 4691              	.LVL858:
 4692 15d8 04E0     		b	.L55
 4693              	.LVL859:
 4694              	.L272:
1773:..\..\mruby_c2\Design01.cydsn/vm.c ****     case OP_JMPNOT:     ret = op_jmpnot    (vm, code, regs); break;
 4695              		.loc 1 1773 0
 4696 15da 0027     		movs	r7, #0
 4697              	.LVL860:
 4698 15dc 02E0     		b	.L55
 4699              	.LVL861:
 4700              	.L273:
1774:..\..\mruby_c2\Design01.cydsn/vm.c ****     case OP_SEND:       ret = op_send      (vm, code, regs); break;
 4701              		.loc 1 1774 0
 4702 15de 0027     		movs	r7, #0
 4703              	.LVL862:
 4704 15e0 00E0     		b	.L55
 4705              	.LVL863:
 4706              	.L274:
1778:..\..\mruby_c2\Design01.cydsn/vm.c ****     case OP_RETURN:     ret = op_return    (vm, code, regs); break;
 4707              		.loc 1 1778 0
 4708 15e2 0027     		movs	r7, #0
 4709              	.LVL864:
 4710              	.L55:
 4711              	.LBE184:
1807:..\..\mruby_c2\Design01.cydsn/vm.c ****     }
1808:..\..\mruby_c2\Design01.cydsn/vm.c ****   } while( !vm->flag_preemption );
 4712              		.loc 1 1808 0
 4713 15e4 95F8383E 		ldrb	r3, [r5, #3640]	@ zero_extendqisi2
 4714 15e8 5BB2     		sxtb	r3, r3
 4715 15ea 002B     		cmp	r3, #0
 4716 15ec 3EF40DAD 		beq	.L270
1809:..\..\mruby_c2\Design01.cydsn/vm.c **** 
1810:..\..\mruby_c2\Design01.cydsn/vm.c ****   vm->flag_preemption = 0;
 4717              		.loc 1 1810 0
 4718 15f0 0023     		movs	r3, #0
 4719 15f2 85F8383E 		strb	r3, [r5, #3640]
1811:..\..\mruby_c2\Design01.cydsn/vm.c **** 
1812:..\..\mruby_c2\Design01.cydsn/vm.c ****   return ret;
1813:..\..\mruby_c2\Design01.cydsn/vm.c **** }
 4720              		.loc 1 1813 0
 4721 15f6 3846     		mov	r0, r7
 4722 15f8 0FB0     		add	sp, sp, #60
 4723              		.cfi_def_cfa_offset 36
 4724              		@ sp needed
 4725 15fa BDE8F08F 		pop	{r4, r5, r6, r7, r8, r9, r10, fp, pc}
 4726              	.LVL865:
 4727              	.L298:
 4728 15fe 00BF     		.align	2
 4729              	.L297:
 4730 1600 84000000 		.word	.LC6
 4731              		.cfi_endproc
ARM GAS  C:\Users\164\AppData\Local\Temp\cc4PZf78.s 			page 129


 4732              	.LFE146:
 4733              		.size	mrbc_vm_run, .-mrbc_vm_run
 4734              		.section	.rodata
 4735              		.align	2
 4736              		.set	.LANCHOR1,. + 0
 4737              		.type	__func__.7695, %object
 4738              		.size	__func__.7695, 14
 4739              	__func__.7695:
 4740 0000 6D726263 		.ascii	"mrbc_vm_close\000"
 4740      5F766D5F 
 4740      636C6F73 
 4740      6500
 4741              		.section	.rodata.str1.4,"aMS",%progbits,1
 4742              		.align	2
 4743              	.LC0:
 4744 0000 4E6F7420 		.ascii	"Not supported!\012\000"
 4744      73757070 
 4744      6F727465 
 4744      64210A00 
 4745              	.LC1:
 4746 0010 69203C20 		.ascii	"i < Num(free_vm_bitmap)\000"
 4746      4E756D28 
 4746      66726565 
 4746      5F766D5F 
 4746      6269746D 
 4747              	.LC2:
 4748 0028 2E2E5C2E 		.ascii	"..\\..\\mruby_c2\\Design01.cydsn\\vm.c\000"
 4748      2E5C6D72 
 4748      7562795F 
 4748      63325C44 
 4748      65736967 
 4749 004b 00       		.space	1
 4750              	.LC3:
 4751 004c 4E6F206D 		.ascii	"No method. vtype=%d method='%s'\012\000"
 4751      6574686F 
 4751      642E2076 
 4751      74797065 
 4751      3D256420 
 4752 006d 000000   		.space	3
 4753              	.LC4:
 4754 0070 746F5F73 		.ascii	"to_s\000"
 4754      00
 4755 0075 000000   		.space	3
 4756              	.LC5:
 4757 0078 286C616D 		.ascii	"(lambda)\000"
 4757      62646129 
 4757      00
 4758 0081 000000   		.space	3
 4759              	.LC6:
 4760 0084 536B6970 		.ascii	"Skip OP=%02x\012\000"
 4760      204F503D 
 4760      25303278 
 4760      0A00
 4761              		.bss
 4762              		.align	2
 4763              		.set	.LANCHOR0,. + 0
 4764              		.type	free_vm_bitmap, %object
ARM GAS  C:\Users\164\AppData\Local\Temp\cc4PZf78.s 			page 130


 4765              		.size	free_vm_bitmap, 4
 4766              	free_vm_bitmap:
 4767 0000 00000000 		.space	4
 4768              		.text
 4769              	.Letext0:
 4770              		.file 3 "c:\\program files (x86)\\cypress\\psoc creator\\4.2\\psoc creator\\import\\gnu\\arm\\5.4.
 4771              		.file 4 "c:\\program files (x86)\\cypress\\psoc creator\\4.2\\psoc creator\\import\\gnu\\arm\\5.4.
 4772              		.file 5 "..\\..\\mruby_c2\\Design01.cydsn\\value.h"
 4773              		.file 6 "..\\..\\mruby_c2\\Design01.cydsn\\c_array.h"
 4774              		.file 7 "..\\..\\mruby_c2\\Design01.cydsn\\c_string.h"
 4775              		.file 8 "..\\..\\mruby_c2\\Design01.cydsn\\c_range.h"
 4776              		.file 9 "..\\..\\mruby_c2\\Design01.cydsn\\c_hash.h"
 4777              		.file 10 "..\\..\\mruby_c2\\Design01.cydsn\\static.h"
 4778              		.file 11 "Generated_Source\\PSoC5/core_cm3.h"
 4779              		.file 12 "..\\..\\mruby_c2\\Design01.cydsn\\console.h"
 4780              		.file 13 "..\\..\\mruby_c2\\Design01.cydsn\\alloc.h"
 4781              		.file 14 "c:\\program files (x86)\\cypress\\psoc creator\\4.2\\psoc creator\\import\\gnu\\arm\\5.4
 4782              		.file 15 "..\\..\\mruby_c2\\Design01.cydsn\\global.h"
 4783              		.file 16 "..\\..\\mruby_c2\\Design01.cydsn\\symbol.h"
 4784              		.file 17 "..\\..\\mruby_c2\\Design01.cydsn\\class.h"
 4785              		.file 18 "..\\..\\mruby_c2\\Design01.cydsn\\opcode.h"
 4786              		.section	.debug_info,"",%progbits
 4787              	.Ldebug_info0:
 4788 0000 CE3F0000 		.4byte	0x3fce
 4789 0004 0400     		.2byte	0x4
 4790 0006 00000000 		.4byte	.Ldebug_abbrev0
 4791 000a 04       		.byte	0x4
 4792 000b 01       		.uleb128 0x1
 4793 000c 03020000 		.4byte	.LASF260
 4794 0010 0C       		.byte	0xc
 4795 0011 EA090000 		.4byte	.LASF261
 4796 0015 91000000 		.4byte	.LASF262
 4797 0019 30000000 		.4byte	.Ldebug_ranges0+0x30
 4798 001d 00000000 		.4byte	0
 4799 0021 00000000 		.4byte	.Ldebug_line0
 4800 0025 02       		.uleb128 0x2
 4801 0026 7F070000 		.4byte	.LASF0
 4802 002a 03       		.byte	0x3
 4803 002b 1B       		.byte	0x1b
 4804 002c 30000000 		.4byte	0x30
 4805 0030 03       		.uleb128 0x3
 4806 0031 01       		.byte	0x1
 4807 0032 06       		.byte	0x6
 4808 0033 97020000 		.4byte	.LASF2
 4809 0037 02       		.uleb128 0x2
 4810 0038 76010000 		.4byte	.LASF1
 4811 003c 03       		.byte	0x3
 4812 003d 1D       		.byte	0x1d
 4813 003e 42000000 		.4byte	0x42
 4814 0042 03       		.uleb128 0x3
 4815 0043 01       		.byte	0x1
 4816 0044 08       		.byte	0x8
 4817 0045 C4020000 		.4byte	.LASF3
 4818 0049 02       		.uleb128 0x2
 4819 004a 69080000 		.4byte	.LASF4
 4820 004e 03       		.byte	0x3
 4821 004f 29       		.byte	0x29
ARM GAS  C:\Users\164\AppData\Local\Temp\cc4PZf78.s 			page 131


 4822 0050 54000000 		.4byte	0x54
 4823 0054 03       		.uleb128 0x3
 4824 0055 02       		.byte	0x2
 4825 0056 05       		.byte	0x5
 4826 0057 37090000 		.4byte	.LASF5
 4827 005b 02       		.uleb128 0x2
 4828 005c A5030000 		.4byte	.LASF6
 4829 0060 03       		.byte	0x3
 4830 0061 2B       		.byte	0x2b
 4831 0062 66000000 		.4byte	0x66
 4832 0066 03       		.uleb128 0x3
 4833 0067 02       		.byte	0x2
 4834 0068 07       		.byte	0x7
 4835 0069 6A0A0000 		.4byte	.LASF7
 4836 006d 02       		.uleb128 0x2
 4837 006e BC0A0000 		.4byte	.LASF8
 4838 0072 03       		.byte	0x3
 4839 0073 3F       		.byte	0x3f
 4840 0074 78000000 		.4byte	0x78
 4841 0078 03       		.uleb128 0x3
 4842 0079 04       		.byte	0x4
 4843 007a 05       		.byte	0x5
 4844 007b D4010000 		.4byte	.LASF9
 4845 007f 02       		.uleb128 0x2
 4846 0080 94050000 		.4byte	.LASF10
 4847 0084 03       		.byte	0x3
 4848 0085 41       		.byte	0x41
 4849 0086 8A000000 		.4byte	0x8a
 4850 008a 03       		.uleb128 0x3
 4851 008b 04       		.byte	0x4
 4852 008c 07       		.byte	0x7
 4853 008d B5040000 		.4byte	.LASF11
 4854 0091 03       		.uleb128 0x3
 4855 0092 08       		.byte	0x8
 4856 0093 05       		.byte	0x5
 4857 0094 B5050000 		.4byte	.LASF12
 4858 0098 03       		.uleb128 0x3
 4859 0099 08       		.byte	0x8
 4860 009a 07       		.byte	0x7
 4861 009b 9D070000 		.4byte	.LASF13
 4862 009f 04       		.uleb128 0x4
 4863 00a0 04       		.byte	0x4
 4864 00a1 05       		.byte	0x5
 4865 00a2 696E7400 		.ascii	"int\000"
 4866 00a6 03       		.uleb128 0x3
 4867 00a7 04       		.byte	0x4
 4868 00a8 07       		.byte	0x7
 4869 00a9 4F060000 		.4byte	.LASF14
 4870 00ad 02       		.uleb128 0x2
 4871 00ae 15000000 		.4byte	.LASF15
 4872 00b2 04       		.byte	0x4
 4873 00b3 14       		.byte	0x14
 4874 00b4 25000000 		.4byte	0x25
 4875 00b8 02       		.uleb128 0x2
 4876 00b9 A3020000 		.4byte	.LASF16
 4877 00bd 04       		.byte	0x4
 4878 00be 18       		.byte	0x18
ARM GAS  C:\Users\164\AppData\Local\Temp\cc4PZf78.s 			page 132


 4879 00bf 37000000 		.4byte	0x37
 4880 00c3 02       		.uleb128 0x2
 4881 00c4 5D090000 		.4byte	.LASF17
 4882 00c8 04       		.byte	0x4
 4883 00c9 20       		.byte	0x20
 4884 00ca 49000000 		.4byte	0x49
 4885 00ce 02       		.uleb128 0x2
 4886 00cf D6070000 		.4byte	.LASF18
 4887 00d3 04       		.byte	0x4
 4888 00d4 24       		.byte	0x24
 4889 00d5 5B000000 		.4byte	0x5b
 4890 00d9 02       		.uleb128 0x2
 4891 00da 4B000000 		.4byte	.LASF19
 4892 00de 04       		.byte	0x4
 4893 00df 2C       		.byte	0x2c
 4894 00e0 6D000000 		.4byte	0x6d
 4895 00e4 02       		.uleb128 0x2
 4896 00e5 360A0000 		.4byte	.LASF20
 4897 00e9 04       		.byte	0x4
 4898 00ea 30       		.byte	0x30
 4899 00eb 7F000000 		.4byte	0x7f
 4900 00ef 03       		.uleb128 0x3
 4901 00f0 08       		.byte	0x8
 4902 00f1 04       		.byte	0x4
 4903 00f2 2F070000 		.4byte	.LASF21
 4904 00f6 03       		.uleb128 0x3
 4905 00f7 04       		.byte	0x4
 4906 00f8 07       		.byte	0x7
 4907 00f9 1C000000 		.4byte	.LASF22
 4908 00fd 05       		.uleb128 0x5
 4909 00fe 04       		.byte	0x4
 4910 00ff 03       		.uleb128 0x3
 4911 0100 01       		.byte	0x1
 4912 0101 08       		.byte	0x8
 4913 0102 6F030000 		.4byte	.LASF23
 4914 0106 06       		.uleb128 0x6
 4915 0107 04       		.byte	0x4
 4916 0108 0C010000 		.4byte	0x10c
 4917 010c 07       		.uleb128 0x7
 4918 010d FF000000 		.4byte	0xff
 4919 0111 02       		.uleb128 0x2
 4920 0112 1E0B0000 		.4byte	.LASF24
 4921 0116 05       		.byte	0x5
 4922 0117 1C       		.byte	0x1c
 4923 0118 C3000000 		.4byte	0xc3
 4924 011c 02       		.uleb128 0x2
 4925 011d 08030000 		.4byte	.LASF25
 4926 0121 05       		.byte	0x5
 4927 0122 2C       		.byte	0x2c
 4928 0123 27010000 		.4byte	0x127
 4929 0127 06       		.uleb128 0x6
 4930 0128 04       		.byte	0x4
 4931 0129 2D010000 		.4byte	0x12d
 4932 012d 08       		.uleb128 0x8
 4933 012e 42010000 		.4byte	0x142
 4934 0132 09       		.uleb128 0x9
 4935 0133 42010000 		.4byte	0x142
ARM GAS  C:\Users\164\AppData\Local\Temp\cc4PZf78.s 			page 133


 4936 0137 09       		.uleb128 0x9
 4937 0138 F7010000 		.4byte	0x1f7
 4938 013c 09       		.uleb128 0x9
 4939 013d 9F000000 		.4byte	0x9f
 4940 0141 00       		.byte	0
 4941 0142 06       		.uleb128 0x6
 4942 0143 04       		.byte	0x4
 4943 0144 48010000 		.4byte	0x148
 4944 0148 0A       		.uleb128 0xa
 4945 0149 564D00   		.ascii	"VM\000"
 4946 014c 400E     		.2byte	0xe40
 4947 014e 02       		.byte	0x2
 4948 014f 40       		.byte	0x40
 4949 0150 F7010000 		.4byte	0x1f7
 4950 0154 0B       		.uleb128 0xb
 4951 0155 24050000 		.4byte	.LASF26
 4952 0159 02       		.byte	0x2
 4953 015a 41       		.byte	0x41
 4954 015b 7E060000 		.4byte	0x67e
 4955 015f 00       		.byte	0
 4956 0160 0B       		.uleb128 0xb
 4957 0161 E9030000 		.4byte	.LASF27
 4958 0165 02       		.byte	0x2
 4959 0166 43       		.byte	0x43
 4960 0167 B8000000 		.4byte	0xb8
 4961 016b 04       		.byte	0x4
 4962 016c 0C       		.uleb128 0xc
 4963 016d 6D726200 		.ascii	"mrb\000"
 4964 0171 02       		.byte	0x2
 4965 0172 44       		.byte	0x44
 4966 0173 9B060000 		.4byte	0x69b
 4967 0177 08       		.byte	0x8
 4968 0178 0B       		.uleb128 0xb
 4969 0179 74030000 		.4byte	.LASF28
 4970 017d 02       		.byte	0x2
 4971 017e 46       		.byte	0x46
 4972 017f 7E060000 		.4byte	0x67e
 4973 0183 0C       		.byte	0xc
 4974 0184 0C       		.uleb128 0xc
 4975 0185 706300   		.ascii	"pc\000"
 4976 0188 02       		.byte	0x2
 4977 0189 47       		.byte	0x47
 4978 018a CE000000 		.4byte	0xce
 4979 018e 10       		.byte	0x10
 4980 018f 0B       		.uleb128 0xb
 4981 0190 7B080000 		.4byte	.LASF29
 4982 0194 02       		.byte	0x2
 4983 0195 4A       		.byte	0x4a
 4984 0196 A6060000 		.4byte	0x6a6
 4985 019a 18       		.byte	0x18
 4986 019b 0D       		.uleb128 0xd
 4987 019c A8050000 		.4byte	.LASF30
 4988 01a0 02       		.byte	0x2
 4989 01a1 4B       		.byte	0x4b
 4990 01a2 84060000 		.4byte	0x684
 4991 01a6 5806     		.2byte	0x658
 4992 01a8 0D       		.uleb128 0xd
ARM GAS  C:\Users\164\AppData\Local\Temp\cc4PZf78.s 			page 134


 4993 01a9 3B060000 		.4byte	.LASF31
 4994 01ad 02       		.byte	0x2
 4995 01ae 4C       		.byte	0x4c
 4996 01af CE000000 		.4byte	0xce
 4997 01b3 5C06     		.2byte	0x65c
 4998 01b5 0D       		.uleb128 0xd
 4999 01b6 6A040000 		.4byte	.LASF32
 5000 01ba 02       		.byte	0x2
 5001 01bb 4D       		.byte	0x4d
 5002 01bc B6060000 		.4byte	0x6b6
 5003 01c0 6006     		.2byte	0x660
 5004 01c2 0D       		.uleb128 0xd
 5005 01c3 A10A0000 		.4byte	.LASF33
 5006 01c7 02       		.byte	0x2
 5007 01c8 4F       		.byte	0x4f
 5008 01c9 8A060000 		.4byte	0x68a
 5009 01cd 300E     		.2byte	0xe30
 5010 01cf 0D       		.uleb128 0xd
 5011 01d0 45080000 		.4byte	.LASF34
 5012 01d4 02       		.byte	0x2
 5013 01d5 51       		.byte	0x51
 5014 01d6 D9000000 		.4byte	0xd9
 5015 01da 340E     		.2byte	0xe34
 5016 01dc 0D       		.uleb128 0xd
 5017 01dd C0060000 		.4byte	.LASF35
 5018 01e1 02       		.byte	0x2
 5019 01e2 53       		.byte	0x53
 5020 01e3 C6060000 		.4byte	0x6c6
 5021 01e7 380E     		.2byte	0xe38
 5022 01e9 0D       		.uleb128 0xd
 5023 01ea 17080000 		.4byte	.LASF36
 5024 01ee 02       		.byte	0x2
 5025 01ef 54       		.byte	0x54
 5026 01f0 AD000000 		.4byte	0xad
 5027 01f4 390E     		.2byte	0xe39
 5028 01f6 00       		.byte	0
 5029 01f7 06       		.uleb128 0x6
 5030 01f8 04       		.byte	0x4
 5031 01f9 FD010000 		.4byte	0x1fd
 5032 01fd 0E       		.uleb128 0xe
 5033 01fe BC020000 		.4byte	.LASF37
 5034 0202 10       		.byte	0x10
 5035 0203 05       		.byte	0x5
 5036 0204 68       		.byte	0x68
 5037 0205 1E020000 		.4byte	0x21e
 5038 0209 0F       		.uleb128 0xf
 5039 020a 747400   		.ascii	"tt\000"
 5040 020d 05       		.byte	0x5
 5041 020e 69       		.byte	0x69
 5042 020f 85020000 		.4byte	0x285
 5043 0213 01       		.byte	0x1
 5044 0214 08       		.byte	0x8
 5045 0215 00       		.byte	0
 5046 0216 00       		.byte	0
 5047 0217 10       		.uleb128 0x10
 5048 0218 90020000 		.4byte	0x290
 5049 021c 08       		.byte	0x8
ARM GAS  C:\Users\164\AppData\Local\Temp\cc4PZf78.s 			page 135


 5050 021d 00       		.byte	0
 5051 021e 11       		.uleb128 0x11
 5052 021f 01       		.byte	0x1
 5053 0220 30000000 		.4byte	0x30
 5054 0224 05       		.byte	0x5
 5055 0225 33       		.byte	0x33
 5056 0226 85020000 		.4byte	0x285
 5057 022a 12       		.uleb128 0x12
 5058 022b 3F0A0000 		.4byte	.LASF38
 5059 022f 7F       		.sleb128 -1
 5060 0230 13       		.uleb128 0x13
 5061 0231 73040000 		.4byte	.LASF39
 5062 0235 00       		.byte	0
 5063 0236 13       		.uleb128 0x13
 5064 0237 B3080000 		.4byte	.LASF40
 5065 023b 01       		.byte	0x1
 5066 023c 13       		.uleb128 0x13
 5067 023d DC030000 		.4byte	.LASF41
 5068 0241 02       		.byte	0x2
 5069 0242 13       		.uleb128 0x13
 5070 0243 00000000 		.4byte	.LASF42
 5071 0247 03       		.byte	0x3
 5072 0248 13       		.uleb128 0x13
 5073 0249 FB080000 		.4byte	.LASF43
 5074 024d 04       		.byte	0x4
 5075 024e 13       		.uleb128 0x13
 5076 024f DD090000 		.4byte	.LASF44
 5077 0253 05       		.byte	0x5
 5078 0254 13       		.uleb128 0x13
 5079 0255 29050000 		.4byte	.LASF45
 5080 0259 06       		.byte	0x6
 5081 025a 13       		.uleb128 0x13
 5082 025b 49010000 		.4byte	.LASF46
 5083 025f 07       		.byte	0x7
 5084 0260 13       		.uleb128 0x13
 5085 0261 5C0A0000 		.4byte	.LASF47
 5086 0265 14       		.byte	0x14
 5087 0266 13       		.uleb128 0x13
 5088 0267 BE080000 		.4byte	.LASF48
 5089 026b 15       		.byte	0x15
 5090 026c 13       		.uleb128 0x13
 5091 026d C3030000 		.4byte	.LASF49
 5092 0271 16       		.byte	0x16
 5093 0272 13       		.uleb128 0x13
 5094 0273 68010000 		.4byte	.LASF50
 5095 0277 17       		.byte	0x17
 5096 0278 13       		.uleb128 0x13
 5097 0279 43050000 		.4byte	.LASF51
 5098 027d 18       		.byte	0x18
 5099 027e 13       		.uleb128 0x13
 5100 027f 37050000 		.4byte	.LASF52
 5101 0283 19       		.byte	0x19
 5102 0284 00       		.byte	0
 5103 0285 02       		.uleb128 0x2
 5104 0286 E40A0000 		.4byte	.LASF53
 5105 028a 05       		.byte	0x5
 5106 028b 49       		.byte	0x49
ARM GAS  C:\Users\164\AppData\Local\Temp\cc4PZf78.s 			page 136


 5107 028c 1E020000 		.4byte	0x21e
 5108 0290 14       		.uleb128 0x14
 5109 0291 08       		.byte	0x8
 5110 0292 05       		.byte	0x5
 5111 0293 6A       		.byte	0x6a
 5112 0294 0E030000 		.4byte	0x30e
 5113 0298 15       		.uleb128 0x15
 5114 0299 6900     		.ascii	"i\000"
 5115 029b 05       		.byte	0x5
 5116 029c 6B       		.byte	0x6b
 5117 029d D9000000 		.4byte	0xd9
 5118 02a1 15       		.uleb128 0x15
 5119 02a2 6400     		.ascii	"d\000"
 5120 02a4 05       		.byte	0x5
 5121 02a5 6D       		.byte	0x6d
 5122 02a6 0E030000 		.4byte	0x30e
 5123 02aa 15       		.uleb128 0x15
 5124 02ab 636C7300 		.ascii	"cls\000"
 5125 02af 05       		.byte	0x5
 5126 02b0 6F       		.byte	0x6f
 5127 02b1 46030000 		.4byte	0x346
 5128 02b5 16       		.uleb128 0x16
 5129 02b6 4C070000 		.4byte	.LASF54
 5130 02ba 05       		.byte	0x5
 5131 02bb 70       		.byte	0x70
 5132 02bc F7010000 		.4byte	0x1f7
 5133 02c0 16       		.uleb128 0x16
 5134 02c1 5A000000 		.4byte	.LASF55
 5135 02c5 05       		.byte	0x5
 5136 02c6 71       		.byte	0x71
 5137 02c7 97030000 		.4byte	0x397
 5138 02cb 16       		.uleb128 0x16
 5139 02cc D7030000 		.4byte	.LASF56
 5140 02d0 05       		.byte	0x5
 5141 02d1 72       		.byte	0x72
 5142 02d2 F1030000 		.4byte	0x3f1
 5143 02d6 16       		.uleb128 0x16
 5144 02d7 57040000 		.4byte	.LASF57
 5145 02db 05       		.byte	0x5
 5146 02dc 73       		.byte	0x73
 5147 02dd 42040000 		.4byte	0x442
 5148 02e1 16       		.uleb128 0x16
 5149 02e2 48060000 		.4byte	.LASF58
 5150 02e6 05       		.byte	0x5
 5151 02e7 74       		.byte	0x74
 5152 02e8 87040000 		.4byte	0x487
 5153 02ec 15       		.uleb128 0x15
 5154 02ed 73747200 		.ascii	"str\000"
 5155 02f1 05       		.byte	0x5
 5156 02f2 75       		.byte	0x75
 5157 02f3 06010000 		.4byte	0x106
 5158 02f7 16       		.uleb128 0x16
 5159 02f8 57090000 		.4byte	.LASF59
 5160 02fc 05       		.byte	0x5
 5161 02fd 76       		.byte	0x76
 5162 02fe D8040000 		.4byte	0x4d8
 5163 0302 16       		.uleb128 0x16
ARM GAS  C:\Users\164\AppData\Local\Temp\cc4PZf78.s 			page 137


 5164 0303 DF0A0000 		.4byte	.LASF60
 5165 0307 05       		.byte	0x5
 5166 0308 77       		.byte	0x77
 5167 0309 29050000 		.4byte	0x529
 5168 030d 00       		.byte	0
 5169 030e 03       		.uleb128 0x3
 5170 030f 08       		.byte	0x8
 5171 0310 04       		.byte	0x4
 5172 0311 E2050000 		.4byte	.LASF61
 5173 0315 0E       		.uleb128 0xe
 5174 0316 61010000 		.4byte	.LASF62
 5175 031a 0C       		.byte	0xc
 5176 031b 05       		.byte	0x5
 5177 031c 81       		.byte	0x81
 5178 031d 46030000 		.4byte	0x346
 5179 0321 0B       		.uleb128 0xb
 5180 0322 E0000000 		.4byte	.LASF63
 5181 0326 05       		.byte	0x5
 5182 0327 82       		.byte	0x82
 5183 0328 11010000 		.4byte	0x111
 5184 032c 00       		.byte	0
 5185 032d 0B       		.uleb128 0xb
 5186 032e 56010000 		.4byte	.LASF64
 5187 0332 05       		.byte	0x5
 5188 0333 86       		.byte	0x86
 5189 0334 46030000 		.4byte	0x346
 5190 0338 04       		.byte	0x4
 5191 0339 0B       		.uleb128 0xb
 5192 033a 86050000 		.4byte	.LASF65
 5193 033e 05       		.byte	0x5
 5194 033f 87       		.byte	0x87
 5195 0340 F1030000 		.4byte	0x3f1
 5196 0344 08       		.byte	0x8
 5197 0345 00       		.byte	0
 5198 0346 06       		.uleb128 0x6
 5199 0347 04       		.byte	0x4
 5200 0348 15030000 		.4byte	0x315
 5201 034c 0E       		.uleb128 0xe
 5202 034d 24060000 		.4byte	.LASF66
 5203 0351 0C       		.byte	0xc
 5204 0352 05       		.byte	0x5
 5205 0353 8F       		.byte	0x8f
 5206 0354 97030000 		.4byte	0x397
 5207 0358 0B       		.uleb128 0xb
 5208 0359 FE020000 		.4byte	.LASF67
 5209 035d 05       		.byte	0x5
 5210 035e 90       		.byte	0x90
 5211 035f CE000000 		.4byte	0xce
 5212 0363 00       		.byte	0
 5213 0364 0F       		.uleb128 0xf
 5214 0365 747400   		.ascii	"tt\000"
 5215 0368 05       		.byte	0x5
 5216 0369 90       		.byte	0x90
 5217 036a 85020000 		.4byte	0x285
 5218 036e 01       		.byte	0x1
 5219 036f 08       		.byte	0x8
 5220 0370 00       		.byte	0
ARM GAS  C:\Users\164\AppData\Local\Temp\cc4PZf78.s 			page 138


 5221 0371 02       		.byte	0x2
 5222 0372 0C       		.uleb128 0xc
 5223 0373 636C7300 		.ascii	"cls\000"
 5224 0377 05       		.byte	0x5
 5225 0378 92       		.byte	0x92
 5226 0379 46030000 		.4byte	0x346
 5227 037d 04       		.byte	0x4
 5228 037e 0B       		.uleb128 0xb
 5229 037f 5C010000 		.4byte	.LASF68
 5230 0383 05       		.byte	0x5
 5231 0384 93       		.byte	0x93
 5232 0385 55050000 		.4byte	0x555
 5233 0389 08       		.byte	0x8
 5234 038a 0B       		.uleb128 0xb
 5235 038b 050B0000 		.4byte	.LASF69
 5236 038f 05       		.byte	0x5
 5237 0390 94       		.byte	0x94
 5238 0391 5B050000 		.4byte	0x55b
 5239 0395 0C       		.byte	0xc
 5240 0396 00       		.byte	0
 5241 0397 06       		.uleb128 0x6
 5242 0398 04       		.byte	0x4
 5243 0399 4C030000 		.4byte	0x34c
 5244 039d 0E       		.uleb128 0xe
 5245 039e AE0A0000 		.4byte	.LASF70
 5246 03a2 10       		.byte	0x10
 5247 03a3 05       		.byte	0x5
 5248 03a4 9C       		.byte	0x9c
 5249 03a5 F1030000 		.4byte	0x3f1
 5250 03a9 0B       		.uleb128 0xb
 5251 03aa FE020000 		.4byte	.LASF67
 5252 03ae 05       		.byte	0x5
 5253 03af 9D       		.byte	0x9d
 5254 03b0 CE000000 		.4byte	0xce
 5255 03b4 00       		.byte	0
 5256 03b5 0F       		.uleb128 0xf
 5257 03b6 747400   		.ascii	"tt\000"
 5258 03b9 05       		.byte	0x5
 5259 03ba 9D       		.byte	0x9d
 5260 03bb 85020000 		.4byte	0x285
 5261 03bf 01       		.byte	0x1
 5262 03c0 08       		.byte	0x8
 5263 03c1 00       		.byte	0
 5264 03c2 02       		.byte	0x2
 5265 03c3 17       		.uleb128 0x17
 5266 03c4 CF070000 		.4byte	.LASF71
 5267 03c8 05       		.byte	0x5
 5268 03c9 9F       		.byte	0x9f
 5269 03ca A6000000 		.4byte	0xa6
 5270 03ce 04       		.byte	0x4
 5271 03cf 01       		.byte	0x1
 5272 03d0 07       		.byte	0x7
 5273 03d1 00       		.byte	0
 5274 03d2 0B       		.uleb128 0xb
 5275 03d3 E0000000 		.4byte	.LASF63
 5276 03d7 05       		.byte	0x5
 5277 03d8 A0       		.byte	0xa0
ARM GAS  C:\Users\164\AppData\Local\Temp\cc4PZf78.s 			page 139


 5278 03d9 11010000 		.4byte	0x111
 5279 03dd 04       		.byte	0x4
 5280 03de 0B       		.uleb128 0xb
 5281 03df 000B0000 		.4byte	.LASF72
 5282 03e3 05       		.byte	0x5
 5283 03e4 A4       		.byte	0xa4
 5284 03e5 F1030000 		.4byte	0x3f1
 5285 03e9 08       		.byte	0x8
 5286 03ea 10       		.uleb128 0x10
 5287 03eb 6A050000 		.4byte	0x56a
 5288 03ef 0C       		.byte	0xc
 5289 03f0 00       		.byte	0
 5290 03f1 06       		.uleb128 0x6
 5291 03f2 04       		.byte	0x4
 5292 03f3 9D030000 		.4byte	0x39d
 5293 03f7 0E       		.uleb128 0xe
 5294 03f8 D0030000 		.4byte	.LASF73
 5295 03fc 0C       		.byte	0xc
 5296 03fd 06       		.byte	0x6
 5297 03fe 1B       		.byte	0x1b
 5298 03ff 42040000 		.4byte	0x442
 5299 0403 0B       		.uleb128 0xb
 5300 0404 FE020000 		.4byte	.LASF67
 5301 0408 06       		.byte	0x6
 5302 0409 1C       		.byte	0x1c
 5303 040a CE000000 		.4byte	0xce
 5304 040e 00       		.byte	0
 5305 040f 0F       		.uleb128 0xf
 5306 0410 747400   		.ascii	"tt\000"
 5307 0413 06       		.byte	0x6
 5308 0414 1C       		.byte	0x1c
 5309 0415 85020000 		.4byte	0x285
 5310 0419 01       		.byte	0x1
 5311 041a 08       		.byte	0x8
 5312 041b 00       		.byte	0
 5313 041c 02       		.byte	0x2
 5314 041d 0B       		.uleb128 0xb
 5315 041e 50050000 		.4byte	.LASF74
 5316 0422 06       		.byte	0x6
 5317 0423 1E       		.byte	0x1e
 5318 0424 CE000000 		.4byte	0xce
 5319 0428 04       		.byte	0x4
 5320 0429 0B       		.uleb128 0xb
 5321 042a EC040000 		.4byte	.LASF75
 5322 042e 06       		.byte	0x6
 5323 042f 1F       		.byte	0x1f
 5324 0430 CE000000 		.4byte	0xce
 5325 0434 06       		.byte	0x6
 5326 0435 0B       		.uleb128 0xb
 5327 0436 050B0000 		.4byte	.LASF69
 5328 043a 06       		.byte	0x6
 5329 043b 20       		.byte	0x20
 5330 043c 84060000 		.4byte	0x684
 5331 0440 08       		.byte	0x8
 5332 0441 00       		.byte	0
 5333 0442 06       		.uleb128 0x6
 5334 0443 04       		.byte	0x4
ARM GAS  C:\Users\164\AppData\Local\Temp\cc4PZf78.s 			page 140


 5335 0444 F7030000 		.4byte	0x3f7
 5336 0448 0E       		.uleb128 0xe
 5337 0449 E4040000 		.4byte	.LASF76
 5338 044d 0C       		.byte	0xc
 5339 044e 07       		.byte	0x7
 5340 044f 1D       		.byte	0x1d
 5341 0450 87040000 		.4byte	0x487
 5342 0454 0B       		.uleb128 0xb
 5343 0455 FE020000 		.4byte	.LASF67
 5344 0459 07       		.byte	0x7
 5345 045a 1E       		.byte	0x1e
 5346 045b CE000000 		.4byte	0xce
 5347 045f 00       		.byte	0
 5348 0460 0F       		.uleb128 0xf
 5349 0461 747400   		.ascii	"tt\000"
 5350 0464 07       		.byte	0x7
 5351 0465 1E       		.byte	0x1e
 5352 0466 85020000 		.4byte	0x285
 5353 046a 01       		.byte	0x1
 5354 046b 08       		.byte	0x8
 5355 046c 00       		.byte	0
 5356 046d 02       		.byte	0x2
 5357 046e 0B       		.uleb128 0xb
 5358 046f 98070000 		.4byte	.LASF77
 5359 0473 07       		.byte	0x7
 5360 0474 20       		.byte	0x20
 5361 0475 CE000000 		.4byte	0xce
 5362 0479 04       		.byte	0x4
 5363 047a 0B       		.uleb128 0xb
 5364 047b 050B0000 		.4byte	.LASF69
 5365 047f 07       		.byte	0x7
 5366 0480 21       		.byte	0x21
 5367 0481 13060000 		.4byte	0x613
 5368 0485 08       		.byte	0x8
 5369 0486 00       		.byte	0
 5370 0487 06       		.uleb128 0x6
 5371 0488 04       		.byte	0x4
 5372 0489 48040000 		.4byte	0x448
 5373 048d 0E       		.uleb128 0xe
 5374 048e 5A050000 		.4byte	.LASF78
 5375 0492 28       		.byte	0x28
 5376 0493 08       		.byte	0x8
 5377 0494 1C       		.byte	0x1c
 5378 0495 D8040000 		.4byte	0x4d8
 5379 0499 0B       		.uleb128 0xb
 5380 049a FE020000 		.4byte	.LASF67
 5381 049e 08       		.byte	0x8
 5382 049f 1D       		.byte	0x1d
 5383 04a0 CE000000 		.4byte	0xce
 5384 04a4 00       		.byte	0
 5385 04a5 0F       		.uleb128 0xf
 5386 04a6 747400   		.ascii	"tt\000"
 5387 04a9 08       		.byte	0x8
 5388 04aa 1D       		.byte	0x1d
 5389 04ab 85020000 		.4byte	0x285
 5390 04af 01       		.byte	0x1
 5391 04b0 08       		.byte	0x8
ARM GAS  C:\Users\164\AppData\Local\Temp\cc4PZf78.s 			page 141


 5392 04b1 00       		.byte	0
 5393 04b2 02       		.byte	0x2
 5394 04b3 0B       		.uleb128 0xb
 5395 04b4 F0060000 		.4byte	.LASF79
 5396 04b8 08       		.byte	0x8
 5397 04b9 1F       		.byte	0x1f
 5398 04ba B8000000 		.4byte	0xb8
 5399 04be 03       		.byte	0x3
 5400 04bf 0B       		.uleb128 0xb
 5401 04c0 BA060000 		.4byte	.LASF80
 5402 04c4 08       		.byte	0x8
 5403 04c5 20       		.byte	0x20
 5404 04c6 3A050000 		.4byte	0x53a
 5405 04ca 08       		.byte	0x8
 5406 04cb 0B       		.uleb128 0xb
 5407 04cc 260B0000 		.4byte	.LASF81
 5408 04d0 08       		.byte	0x8
 5409 04d1 21       		.byte	0x21
 5410 04d2 3A050000 		.4byte	0x53a
 5411 04d6 18       		.byte	0x18
 5412 04d7 00       		.byte	0
 5413 04d8 06       		.uleb128 0x6
 5414 04d9 04       		.byte	0x4
 5415 04da 8D040000 		.4byte	0x48d
 5416 04de 0E       		.uleb128 0xe
 5417 04df B4060000 		.4byte	.LASF82
 5418 04e3 0C       		.byte	0xc
 5419 04e4 09       		.byte	0x9
 5420 04e5 1C       		.byte	0x1c
 5421 04e6 29050000 		.4byte	0x529
 5422 04ea 0B       		.uleb128 0xb
 5423 04eb FE020000 		.4byte	.LASF67
 5424 04ef 09       		.byte	0x9
 5425 04f0 1F       		.byte	0x1f
 5426 04f1 CE000000 		.4byte	0xce
 5427 04f5 00       		.byte	0
 5428 04f6 0F       		.uleb128 0xf
 5429 04f7 747400   		.ascii	"tt\000"
 5430 04fa 09       		.byte	0x9
 5431 04fb 1F       		.byte	0x1f
 5432 04fc 85020000 		.4byte	0x285
 5433 0500 01       		.byte	0x1
 5434 0501 08       		.byte	0x8
 5435 0502 00       		.byte	0
 5436 0503 02       		.byte	0x2
 5437 0504 0B       		.uleb128 0xb
 5438 0505 50050000 		.4byte	.LASF74
 5439 0509 09       		.byte	0x9
 5440 050a 21       		.byte	0x21
 5441 050b CE000000 		.4byte	0xce
 5442 050f 04       		.byte	0x4
 5443 0510 0B       		.uleb128 0xb
 5444 0511 EC040000 		.4byte	.LASF75
 5445 0515 09       		.byte	0x9
 5446 0516 22       		.byte	0x22
 5447 0517 CE000000 		.4byte	0xce
 5448 051b 06       		.byte	0x6
ARM GAS  C:\Users\164\AppData\Local\Temp\cc4PZf78.s 			page 142


 5449 051c 0B       		.uleb128 0xb
 5450 051d 050B0000 		.4byte	.LASF69
 5451 0521 09       		.byte	0x9
 5452 0522 23       		.byte	0x23
 5453 0523 84060000 		.4byte	0x684
 5454 0527 08       		.byte	0x8
 5455 0528 00       		.byte	0
 5456 0529 06       		.uleb128 0x6
 5457 052a 04       		.byte	0x4
 5458 052b DE040000 		.4byte	0x4de
 5459 052f 02       		.uleb128 0x2
 5460 0530 1F0A0000 		.4byte	.LASF83
 5461 0534 05       		.byte	0x5
 5462 0535 79       		.byte	0x79
 5463 0536 FD010000 		.4byte	0x1fd
 5464 053a 02       		.uleb128 0x2
 5465 053b 4D0A0000 		.4byte	.LASF84
 5466 053f 05       		.byte	0x5
 5467 0540 7A       		.byte	0x7a
 5468 0541 FD010000 		.4byte	0x1fd
 5469 0545 02       		.uleb128 0x2
 5470 0546 B3010000 		.4byte	.LASF85
 5471 054a 05       		.byte	0x5
 5472 054b 88       		.byte	0x88
 5473 054c 15030000 		.4byte	0x315
 5474 0550 18       		.uleb128 0x18
 5475 0551 14010000 		.4byte	.LASF263
 5476 0555 06       		.uleb128 0x6
 5477 0556 04       		.byte	0x4
 5478 0557 50050000 		.4byte	0x550
 5479 055b 19       		.uleb128 0x19
 5480 055c B8000000 		.4byte	0xb8
 5481 0560 6A050000 		.4byte	0x56a
 5482 0564 1A       		.uleb128 0x1a
 5483 0565 F6000000 		.4byte	0xf6
 5484 0569 00       		.byte	0
 5485 056a 14       		.uleb128 0x14
 5486 056b 04       		.byte	0x4
 5487 056c 05       		.byte	0x5
 5488 056d A5       		.byte	0xa5
 5489 056e 89050000 		.4byte	0x589
 5490 0572 16       		.uleb128 0x16
 5491 0573 24050000 		.4byte	.LASF26
 5492 0577 05       		.byte	0x5
 5493 0578 A6       		.byte	0xa6
 5494 0579 02060000 		.4byte	0x602
 5495 057d 16       		.uleb128 0x16
 5496 057e 52090000 		.4byte	.LASF86
 5497 0582 05       		.byte	0x5
 5498 0583 A7       		.byte	0xa7
 5499 0584 1C010000 		.4byte	0x11c
 5500 0588 00       		.byte	0
 5501 0589 0E       		.uleb128 0xe
 5502 058a 92080000 		.4byte	.LASF87
 5503 058e 1C       		.byte	0x1c
 5504 058f 02       		.byte	0x2
 5505 0590 20       		.byte	0x20
ARM GAS  C:\Users\164\AppData\Local\Temp\cc4PZf78.s 			page 143


 5506 0591 02060000 		.4byte	0x602
 5507 0595 0B       		.uleb128 0xb
 5508 0596 EE0A0000 		.4byte	.LASF88
 5509 059a 02       		.byte	0x2
 5510 059b 21       		.byte	0x21
 5511 059c CE000000 		.4byte	0xce
 5512 05a0 00       		.byte	0
 5513 05a1 0B       		.uleb128 0xb
 5514 05a2 C60A0000 		.4byte	.LASF89
 5515 05a6 02       		.byte	0x2
 5516 05a7 22       		.byte	0x22
 5517 05a8 CE000000 		.4byte	0xce
 5518 05ac 02       		.byte	0x2
 5519 05ad 0B       		.uleb128 0xb
 5520 05ae 44010000 		.4byte	.LASF90
 5521 05b2 02       		.byte	0x2
 5522 05b3 23       		.byte	0x23
 5523 05b4 CE000000 		.4byte	0xce
 5524 05b8 04       		.byte	0x4
 5525 05b9 0B       		.uleb128 0xb
 5526 05ba 47070000 		.4byte	.LASF91
 5527 05be 02       		.byte	0x2
 5528 05bf 24       		.byte	0x24
 5529 05c0 CE000000 		.4byte	0xce
 5530 05c4 06       		.byte	0x6
 5531 05c5 0B       		.uleb128 0xb
 5532 05c6 A9080000 		.4byte	.LASF92
 5533 05ca 02       		.byte	0x2
 5534 05cb 25       		.byte	0x25
 5535 05cc CE000000 		.4byte	0xce
 5536 05d0 08       		.byte	0x8
 5537 05d1 0B       		.uleb128 0xb
 5538 05d2 AE080000 		.4byte	.LASF93
 5539 05d6 02       		.byte	0x2
 5540 05d7 27       		.byte	0x27
 5541 05d8 13060000 		.4byte	0x613
 5542 05dc 0C       		.byte	0xc
 5543 05dd 0B       		.uleb128 0xb
 5544 05de 5A030000 		.4byte	.LASF94
 5545 05e2 02       		.byte	0x2
 5546 05e3 28       		.byte	0x28
 5547 05e4 19060000 		.4byte	0x619
 5548 05e8 10       		.byte	0x10
 5549 05e9 0B       		.uleb128 0xb
 5550 05ea FC030000 		.4byte	.LASF95
 5551 05ee 02       		.byte	0x2
 5552 05ef 29       		.byte	0x29
 5553 05f0 13060000 		.4byte	0x613
 5554 05f4 14       		.byte	0x14
 5555 05f5 0B       		.uleb128 0xb
 5556 05f6 7B000000 		.4byte	.LASF96
 5557 05fa 02       		.byte	0x2
 5558 05fb 2A       		.byte	0x2a
 5559 05fc 25060000 		.4byte	0x625
 5560 0600 18       		.byte	0x18
 5561 0601 00       		.byte	0
 5562 0602 06       		.uleb128 0x6
ARM GAS  C:\Users\164\AppData\Local\Temp\cc4PZf78.s 			page 144


 5563 0603 04       		.byte	0x4
 5564 0604 89050000 		.4byte	0x589
 5565 0608 02       		.uleb128 0x2
 5566 0609 66030000 		.4byte	.LASF97
 5567 060d 05       		.byte	0x5
 5568 060e A9       		.byte	0xa9
 5569 060f 9D030000 		.4byte	0x39d
 5570 0613 06       		.uleb128 0x6
 5571 0614 04       		.byte	0x4
 5572 0615 B8000000 		.4byte	0xb8
 5573 0619 06       		.uleb128 0x6
 5574 061a 04       		.byte	0x4
 5575 061b 1F060000 		.4byte	0x61f
 5576 061f 06       		.uleb128 0x6
 5577 0620 04       		.byte	0x4
 5578 0621 2F050000 		.4byte	0x52f
 5579 0625 06       		.uleb128 0x6
 5580 0626 04       		.byte	0x4
 5581 0627 02060000 		.4byte	0x602
 5582 062b 02       		.uleb128 0x2
 5583 062c 0D0A0000 		.4byte	.LASF98
 5584 0630 02       		.byte	0x2
 5585 0631 2C       		.byte	0x2c
 5586 0632 89050000 		.4byte	0x589
 5587 0636 0E       		.uleb128 0xe
 5588 0637 09090000 		.4byte	.LASF99
 5589 063b 14       		.byte	0x14
 5590 063c 02       		.byte	0x2
 5591 063d 33       		.byte	0x33
 5592 063e 7E060000 		.4byte	0x67e
 5593 0642 0B       		.uleb128 0xb
 5594 0643 74030000 		.4byte	.LASF28
 5595 0647 02       		.byte	0x2
 5596 0648 34       		.byte	0x34
 5597 0649 7E060000 		.4byte	0x67e
 5598 064d 00       		.byte	0
 5599 064e 0C       		.uleb128 0xc
 5600 064f 706300   		.ascii	"pc\000"
 5601 0652 02       		.byte	0x2
 5602 0653 35       		.byte	0x35
 5603 0654 CE000000 		.4byte	0xce
 5604 0658 04       		.byte	0x4
 5605 0659 0B       		.uleb128 0xb
 5606 065a A8050000 		.4byte	.LASF30
 5607 065e 02       		.byte	0x2
 5608 065f 36       		.byte	0x36
 5609 0660 84060000 		.4byte	0x684
 5610 0664 08       		.byte	0x8
 5611 0665 0B       		.uleb128 0xb
 5612 0666 A10A0000 		.4byte	.LASF33
 5613 066a 02       		.byte	0x2
 5614 066b 37       		.byte	0x37
 5615 066c 8A060000 		.4byte	0x68a
 5616 0670 0C       		.byte	0xc
 5617 0671 0B       		.uleb128 0xb
 5618 0672 24010000 		.4byte	.LASF100
 5619 0676 02       		.byte	0x2
ARM GAS  C:\Users\164\AppData\Local\Temp\cc4PZf78.s 			page 145


 5620 0677 38       		.byte	0x38
 5621 0678 B8000000 		.4byte	0xb8
 5622 067c 10       		.byte	0x10
 5623 067d 00       		.byte	0
 5624 067e 06       		.uleb128 0x6
 5625 067f 04       		.byte	0x4
 5626 0680 2B060000 		.4byte	0x62b
 5627 0684 06       		.uleb128 0x6
 5628 0685 04       		.byte	0x4
 5629 0686 3A050000 		.4byte	0x53a
 5630 068a 06       		.uleb128 0x6
 5631 068b 04       		.byte	0x4
 5632 068c 45050000 		.4byte	0x545
 5633 0690 02       		.uleb128 0x2
 5634 0691 EF030000 		.4byte	.LASF101
 5635 0695 02       		.byte	0x2
 5636 0696 39       		.byte	0x39
 5637 0697 36060000 		.4byte	0x636
 5638 069b 06       		.uleb128 0x6
 5639 069c 04       		.byte	0x4
 5640 069d A1060000 		.4byte	0x6a1
 5641 06a1 07       		.uleb128 0x7
 5642 06a2 B8000000 		.4byte	0xb8
 5643 06a6 19       		.uleb128 0x19
 5644 06a7 3A050000 		.4byte	0x53a
 5645 06ab B6060000 		.4byte	0x6b6
 5646 06af 1B       		.uleb128 0x1b
 5647 06b0 F6000000 		.4byte	0xf6
 5648 06b4 63       		.byte	0x63
 5649 06b5 00       		.byte	0
 5650 06b6 19       		.uleb128 0x19
 5651 06b7 90060000 		.4byte	0x690
 5652 06bb C6060000 		.4byte	0x6c6
 5653 06bf 1B       		.uleb128 0x1b
 5654 06c0 F6000000 		.4byte	0xf6
 5655 06c4 63       		.byte	0x63
 5656 06c5 00       		.byte	0
 5657 06c6 1C       		.uleb128 0x1c
 5658 06c7 AD000000 		.4byte	0xad
 5659 06cb 02       		.uleb128 0x2
 5660 06cc 78070000 		.4byte	.LASF102
 5661 06d0 02       		.byte	0x2
 5662 06d1 55       		.byte	0x55
 5663 06d2 48010000 		.4byte	0x148
 5664 06d6 1D       		.uleb128 0x1d
 5665 06d7 3A000000 		.4byte	.LASF264
 5666 06db 01       		.byte	0x1
 5667 06dc 42000000 		.4byte	0x42
 5668 06e0 12       		.byte	0x12
 5669 06e1 35       		.byte	0x35
 5670 06e2 0D080000 		.4byte	0x80d
 5671 06e6 13       		.uleb128 0x13
 5672 06e7 50040000 		.4byte	.LASF103
 5673 06eb 00       		.byte	0
 5674 06ec 13       		.uleb128 0x13
 5675 06ed 4A090000 		.4byte	.LASF104
 5676 06f1 01       		.byte	0x1
ARM GAS  C:\Users\164\AppData\Local\Temp\cc4PZf78.s 			page 146


 5677 06f2 13       		.uleb128 0x13
 5678 06f3 AA010000 		.4byte	.LASF105
 5679 06f7 02       		.byte	0x2
 5680 06f8 13       		.uleb128 0x13
 5681 06f9 A1010000 		.4byte	.LASF106
 5682 06fd 03       		.byte	0x3
 5683 06fe 13       		.uleb128 0x13
 5684 06ff 22030000 		.4byte	.LASF107
 5685 0703 04       		.byte	0x4
 5686 0704 13       		.uleb128 0x13
 5687 0705 0C080000 		.4byte	.LASF108
 5688 0709 05       		.byte	0x5
 5689 070a 13       		.uleb128 0x13
 5690 070b CA090000 		.4byte	.LASF109
 5691 070f 06       		.byte	0x6
 5692 0710 13       		.uleb128 0x13
 5693 0711 BD010000 		.4byte	.LASF110
 5694 0715 07       		.byte	0x7
 5695 0716 13       		.uleb128 0x13
 5696 0717 98010000 		.4byte	.LASF111
 5697 071b 08       		.byte	0x8
 5698 071c 13       		.uleb128 0x13
 5699 071d 940A0000 		.4byte	.LASF112
 5700 0721 09       		.byte	0x9
 5701 0722 13       		.uleb128 0x13
 5702 0723 2B040000 		.4byte	.LASF113
 5703 0727 0A       		.byte	0xa
 5704 0728 13       		.uleb128 0x13
 5705 0729 AE090000 		.4byte	.LASF114
 5706 072d 0D       		.byte	0xd
 5707 072e 13       		.uleb128 0x13
 5708 072f 0C000000 		.4byte	.LASF115
 5709 0733 0E       		.byte	0xe
 5710 0734 13       		.uleb128 0x13
 5711 0735 BA070000 		.4byte	.LASF116
 5712 0739 11       		.byte	0x11
 5713 073a 13       		.uleb128 0x13
 5714 073b 3B070000 		.4byte	.LASF117
 5715 073f 12       		.byte	0x12
 5716 0740 13       		.uleb128 0x13
 5717 0741 F5040000 		.4byte	.LASF118
 5718 0745 15       		.byte	0x15
 5719 0746 13       		.uleb128 0x13
 5720 0747 88040000 		.4byte	.LASF119
 5721 074b 16       		.byte	0x16
 5722 074c 13       		.uleb128 0x13
 5723 074d 67050000 		.4byte	.LASF120
 5724 0751 17       		.byte	0x17
 5725 0752 13       		.uleb128 0x13
 5726 0753 FD060000 		.4byte	.LASF121
 5727 0757 18       		.byte	0x18
 5728 0758 13       		.uleb128 0x13
 5729 0759 6E050000 		.4byte	.LASF122
 5730 075d 19       		.byte	0x19
 5731 075e 13       		.uleb128 0x13
 5732 075f 80040000 		.4byte	.LASF123
 5733 0763 20       		.byte	0x20
ARM GAS  C:\Users\164\AppData\Local\Temp\cc4PZf78.s 			page 147


 5734 0764 13       		.uleb128 0x13
 5735 0765 E7060000 		.4byte	.LASF124
 5736 0769 21       		.byte	0x21
 5737 076a 13       		.uleb128 0x13
 5738 076b DC040000 		.4byte	.LASF125
 5739 076f 23       		.byte	0x23
 5740 0770 13       		.uleb128 0x13
 5741 0771 90060000 		.4byte	.LASF126
 5742 0775 26       		.byte	0x26
 5743 0776 13       		.uleb128 0x13
 5744 0777 8E010000 		.4byte	.LASF127
 5745 077b 29       		.byte	0x29
 5746 077c 13       		.uleb128 0x13
 5747 077d B8030000 		.4byte	.LASF128
 5748 0781 2B       		.byte	0x2b
 5749 0782 13       		.uleb128 0x13
 5750 0783 5D040000 		.4byte	.LASF129
 5751 0787 2C       		.byte	0x2c
 5752 0788 13       		.uleb128 0x13
 5753 0789 73080000 		.4byte	.LASF130
 5754 078d 2D       		.byte	0x2d
 5755 078e 13       		.uleb128 0x13
 5756 078f 1D060000 		.4byte	.LASF131
 5757 0793 2E       		.byte	0x2e
 5758 0794 13       		.uleb128 0x13
 5759 0795 AB020000 		.4byte	.LASF132
 5760 0799 2F       		.byte	0x2f
 5761 079a 13       		.uleb128 0x13
 5762 079b 14040000 		.4byte	.LASF133
 5763 079f 30       		.byte	0x30
 5764 07a0 13       		.uleb128 0x13
 5765 07a1 80010000 		.4byte	.LASF134
 5766 07a5 31       		.byte	0x31
 5767 07a6 13       		.uleb128 0x13
 5768 07a7 91020000 		.4byte	.LASF135
 5769 07ab 32       		.byte	0x32
 5770 07ac 13       		.uleb128 0x13
 5771 07ad D6040000 		.4byte	.LASF136
 5772 07b1 33       		.byte	0x33
 5773 07b2 13       		.uleb128 0x13
 5774 07b3 AF040000 		.4byte	.LASF137
 5775 07b7 34       		.byte	0x34
 5776 07b8 13       		.uleb128 0x13
 5777 07b9 4A030000 		.4byte	.LASF138
 5778 07bd 35       		.byte	0x35
 5779 07be 13       		.uleb128 0x13
 5780 07bf 36030000 		.4byte	.LASF139
 5781 07c3 36       		.byte	0x36
 5782 07c4 13       		.uleb128 0x13
 5783 07c5 C6070000 		.4byte	.LASF140
 5784 07c9 37       		.byte	0x37
 5785 07ca 13       		.uleb128 0x13
 5786 07cb A4090000 		.4byte	.LASF141
 5787 07cf 3D       		.byte	0x3d
 5788 07d0 13       		.uleb128 0x13
 5789 07d1 E3020000 		.4byte	.LASF142
 5790 07d5 3E       		.byte	0x3e
ARM GAS  C:\Users\164\AppData\Local\Temp\cc4PZf78.s 			page 148


 5791 07d6 13       		.uleb128 0x13
 5792 07d7 E6010000 		.4byte	.LASF143
 5793 07db 3F       		.byte	0x3f
 5794 07dc 13       		.uleb128 0x13
 5795 07dd 86060000 		.4byte	.LASF144
 5796 07e1 40       		.byte	0x40
 5797 07e2 13       		.uleb128 0x13
 5798 07e3 9B090000 		.4byte	.LASF145
 5799 07e7 41       		.byte	0x41
 5800 07e8 13       		.uleb128 0x13
 5801 07e9 C1090000 		.4byte	.LASF146
 5802 07ed 43       		.byte	0x43
 5803 07ee 13       		.uleb128 0x13
 5804 07ef 65090000 		.4byte	.LASF147
 5805 07f3 45       		.byte	0x45
 5806 07f4 13       		.uleb128 0x13
 5807 07f5 88070000 		.4byte	.LASF148
 5808 07f9 46       		.byte	0x46
 5809 07fa 13       		.uleb128 0x13
 5810 07fb 25070000 		.4byte	.LASF149
 5811 07ff 48       		.byte	0x48
 5812 0800 13       		.uleb128 0x13
 5813 0801 01050000 		.4byte	.LASF150
 5814 0805 4A       		.byte	0x4a
 5815 0806 13       		.uleb128 0x13
 5816 0807 6E060000 		.4byte	.LASF151
 5817 080b 50       		.byte	0x50
 5818 080c 00       		.byte	0
 5819 080d 03       		.uleb128 0x3
 5820 080e 04       		.byte	0x4
 5821 080f 04       		.byte	0x4
 5822 0810 2E060000 		.4byte	.LASF152
 5823 0814 06       		.uleb128 0x6
 5824 0815 04       		.byte	0x4
 5825 0816 1A080000 		.4byte	0x81a
 5826 081a 1E       		.uleb128 0x1e
 5827 081b 19       		.uleb128 0x19
 5828 081c E4000000 		.4byte	0xe4
 5829 0820 2B080000 		.4byte	0x82b
 5830 0824 1B       		.uleb128 0x1b
 5831 0825 F6000000 		.4byte	0xf6
 5832 0829 00       		.byte	0
 5833 082a 00       		.byte	0
 5834 082b 1F       		.uleb128 0x1f
 5835 082c 09050000 		.4byte	.LASF153
 5836 0830 02       		.byte	0x2
 5837 0831 84       		.byte	0x84
 5838 0832 CE000000 		.4byte	0xce
 5839 0836 03       		.byte	0x3
 5840 0837 4E080000 		.4byte	0x84e
 5841 083b 20       		.uleb128 0x20
 5842 083c 7300     		.ascii	"s\000"
 5843 083e 02       		.byte	0x2
 5844 083f 84       		.byte	0x84
 5845 0840 14080000 		.4byte	0x814
 5846 0844 21       		.uleb128 0x21
 5847 0845 7800     		.ascii	"x\000"
ARM GAS  C:\Users\164\AppData\Local\Temp\cc4PZf78.s 			page 149


 5848 0847 02       		.byte	0x2
 5849 0848 8C       		.byte	0x8c
 5850 0849 CE000000 		.4byte	0xce
 5851 084d 00       		.byte	0
 5852 084e 1F       		.uleb128 0x1f
 5853 084f C3050000 		.4byte	.LASF154
 5854 0853 02       		.byte	0x2
 5855 0854 6A       		.byte	0x6a
 5856 0855 E4000000 		.4byte	0xe4
 5857 0859 03       		.byte	0x3
 5858 085a 71080000 		.4byte	0x871
 5859 085e 20       		.uleb128 0x20
 5860 085f 7300     		.ascii	"s\000"
 5861 0861 02       		.byte	0x2
 5862 0862 6A       		.byte	0x6a
 5863 0863 14080000 		.4byte	0x814
 5864 0867 21       		.uleb128 0x21
 5865 0868 7800     		.ascii	"x\000"
 5866 086a 02       		.byte	0x2
 5867 086b 77       		.byte	0x77
 5868 086c E4000000 		.4byte	0xe4
 5869 0870 00       		.byte	0
 5870 0871 1F       		.uleb128 0x1f
 5871 0872 79090000 		.4byte	.LASF155
 5872 0876 01       		.byte	0x1
 5873 0877 97       		.byte	0x97
 5874 0878 9F000000 		.4byte	0x9f
 5875 087c 03       		.byte	0x3
 5876 087d A2080000 		.4byte	0x8a2
 5877 0881 20       		.uleb128 0x20
 5878 0882 766D00   		.ascii	"vm\000"
 5879 0885 01       		.byte	0x1
 5880 0886 97       		.byte	0x97
 5881 0887 A2080000 		.4byte	0x8a2
 5882 088b 22       		.uleb128 0x22
 5883 088c AE080000 		.4byte	.LASF93
 5884 0890 01       		.byte	0x1
 5885 0891 97       		.byte	0x97
 5886 0892 E4000000 		.4byte	0xe4
 5887 0896 22       		.uleb128 0x22
 5888 0897 7B080000 		.4byte	.LASF29
 5889 089b 01       		.byte	0x1
 5890 089c 97       		.byte	0x97
 5891 089d 84060000 		.4byte	0x684
 5892 08a1 00       		.byte	0
 5893 08a2 06       		.uleb128 0x6
 5894 08a3 04       		.byte	0x4
 5895 08a4 CB060000 		.4byte	0x6cb
 5896 08a8 1F       		.uleb128 0x1f
 5897 08a9 89080000 		.4byte	.LASF156
 5898 08ad 01       		.byte	0x1
 5899 08ae DB       		.byte	0xdb
 5900 08af 9F000000 		.4byte	0x9f
 5901 08b3 03       		.byte	0x3
 5902 08b4 E3080000 		.4byte	0x8e3
 5903 08b8 20       		.uleb128 0x20
 5904 08b9 766D00   		.ascii	"vm\000"
ARM GAS  C:\Users\164\AppData\Local\Temp\cc4PZf78.s 			page 150


 5905 08bc 01       		.byte	0x1
 5906 08bd DB       		.byte	0xdb
 5907 08be A2080000 		.4byte	0x8a2
 5908 08c2 22       		.uleb128 0x22
 5909 08c3 AE080000 		.4byte	.LASF93
 5910 08c7 01       		.byte	0x1
 5911 08c8 DB       		.byte	0xdb
 5912 08c9 E4000000 		.4byte	0xe4
 5913 08cd 22       		.uleb128 0x22
 5914 08ce 7B080000 		.4byte	.LASF29
 5915 08d2 01       		.byte	0x1
 5916 08d3 DB       		.byte	0xdb
 5917 08d4 84060000 		.4byte	0x684
 5918 08d8 21       		.uleb128 0x21
 5919 08d9 726100   		.ascii	"ra\000"
 5920 08dc 01       		.byte	0x1
 5921 08dd DD       		.byte	0xdd
 5922 08de 9F000000 		.4byte	0x9f
 5923 08e2 00       		.byte	0
 5924 08e3 23       		.uleb128 0x23
 5925 08e4 7C030000 		.4byte	.LASF157
 5926 08e8 01       		.byte	0x1
 5927 08e9 0C01     		.2byte	0x10c
 5928 08eb 9F000000 		.4byte	0x9f
 5929 08ef 03       		.byte	0x3
 5930 08f0 23090000 		.4byte	0x923
 5931 08f4 24       		.uleb128 0x24
 5932 08f5 766D00   		.ascii	"vm\000"
 5933 08f8 01       		.byte	0x1
 5934 08f9 0C01     		.2byte	0x10c
 5935 08fb A2080000 		.4byte	0x8a2
 5936 08ff 25       		.uleb128 0x25
 5937 0900 AE080000 		.4byte	.LASF93
 5938 0904 01       		.byte	0x1
 5939 0905 0C01     		.2byte	0x10c
 5940 0907 E4000000 		.4byte	0xe4
 5941 090b 25       		.uleb128 0x25
 5942 090c 7B080000 		.4byte	.LASF29
 5943 0910 01       		.byte	0x1
 5944 0911 0C01     		.2byte	0x10c
 5945 0913 84060000 		.4byte	0x684
 5946 0917 26       		.uleb128 0x26
 5947 0918 726100   		.ascii	"ra\000"
 5948 091b 01       		.byte	0x1
 5949 091c 0E01     		.2byte	0x10e
 5950 091e 9F000000 		.4byte	0x9f
 5951 0922 00       		.byte	0
 5952 0923 23       		.uleb128 0x23
 5953 0924 A0080000 		.4byte	.LASF158
 5954 0928 01       		.byte	0x1
 5955 0929 3901     		.2byte	0x139
 5956 092b 9F000000 		.4byte	0x9f
 5957 092f 03       		.byte	0x3
 5958 0930 63090000 		.4byte	0x963
 5959 0934 24       		.uleb128 0x24
 5960 0935 766D00   		.ascii	"vm\000"
 5961 0938 01       		.byte	0x1
ARM GAS  C:\Users\164\AppData\Local\Temp\cc4PZf78.s 			page 151


 5962 0939 3901     		.2byte	0x139
 5963 093b A2080000 		.4byte	0x8a2
 5964 093f 25       		.uleb128 0x25
 5965 0940 AE080000 		.4byte	.LASF93
 5966 0944 01       		.byte	0x1
 5967 0945 3901     		.2byte	0x139
 5968 0947 E4000000 		.4byte	0xe4
 5969 094b 25       		.uleb128 0x25
 5970 094c 7B080000 		.4byte	.LASF29
 5971 0950 01       		.byte	0x1
 5972 0951 3901     		.2byte	0x139
 5973 0953 84060000 		.4byte	0x684
 5974 0957 26       		.uleb128 0x26
 5975 0958 726100   		.ascii	"ra\000"
 5976 095b 01       		.byte	0x1
 5977 095c 3B01     		.2byte	0x13b
 5978 095e 9F000000 		.4byte	0x9f
 5979 0962 00       		.byte	0
 5980 0963 23       		.uleb128 0x23
 5981 0964 80080000 		.4byte	.LASF159
 5982 0968 01       		.byte	0x1
 5983 0969 4F01     		.2byte	0x14f
 5984 096b 9F000000 		.4byte	0x9f
 5985 096f 03       		.byte	0x3
 5986 0970 A3090000 		.4byte	0x9a3
 5987 0974 24       		.uleb128 0x24
 5988 0975 766D00   		.ascii	"vm\000"
 5989 0978 01       		.byte	0x1
 5990 0979 4F01     		.2byte	0x14f
 5991 097b A2080000 		.4byte	0x8a2
 5992 097f 25       		.uleb128 0x25
 5993 0980 AE080000 		.4byte	.LASF93
 5994 0984 01       		.byte	0x1
 5995 0985 4F01     		.2byte	0x14f
 5996 0987 E4000000 		.4byte	0xe4
 5997 098b 25       		.uleb128 0x25
 5998 098c 7B080000 		.4byte	.LASF29
 5999 0990 01       		.byte	0x1
 6000 0991 4F01     		.2byte	0x14f
 6001 0993 84060000 		.4byte	0x684
 6002 0997 26       		.uleb128 0x26
 6003 0998 726100   		.ascii	"ra\000"
 6004 099b 01       		.byte	0x1
 6005 099c 5101     		.2byte	0x151
 6006 099e 9F000000 		.4byte	0x9f
 6007 09a2 00       		.byte	0
 6008 09a3 23       		.uleb128 0x23
 6009 09a4 CC0A0000 		.4byte	.LASF160
 6010 09a8 01       		.byte	0x1
 6011 09a9 3502     		.2byte	0x235
 6012 09ab 9F000000 		.4byte	0x9f
 6013 09af 03       		.byte	0x3
 6014 09b0 D8090000 		.4byte	0x9d8
 6015 09b4 24       		.uleb128 0x24
 6016 09b5 766D00   		.ascii	"vm\000"
 6017 09b8 01       		.byte	0x1
 6018 09b9 3502     		.2byte	0x235
ARM GAS  C:\Users\164\AppData\Local\Temp\cc4PZf78.s 			page 152


 6019 09bb A2080000 		.4byte	0x8a2
 6020 09bf 25       		.uleb128 0x25
 6021 09c0 AE080000 		.4byte	.LASF93
 6022 09c4 01       		.byte	0x1
 6023 09c5 3502     		.2byte	0x235
 6024 09c7 E4000000 		.4byte	0xe4
 6025 09cb 25       		.uleb128 0x25
 6026 09cc 7B080000 		.4byte	.LASF29
 6027 09d0 01       		.byte	0x1
 6028 09d1 3502     		.2byte	0x235
 6029 09d3 84060000 		.4byte	0x684
 6030 09d7 00       		.byte	0
 6031 09d8 23       		.uleb128 0x23
 6032 09d9 2D030000 		.4byte	.LASF161
 6033 09dd 01       		.byte	0x1
 6034 09de 4702     		.2byte	0x247
 6035 09e0 9F000000 		.4byte	0x9f
 6036 09e4 03       		.byte	0x3
 6037 09e5 0D0A0000 		.4byte	0xa0d
 6038 09e9 24       		.uleb128 0x24
 6039 09ea 766D00   		.ascii	"vm\000"
 6040 09ed 01       		.byte	0x1
 6041 09ee 4702     		.2byte	0x247
 6042 09f0 A2080000 		.4byte	0x8a2
 6043 09f4 25       		.uleb128 0x25
 6044 09f5 AE080000 		.4byte	.LASF93
 6045 09f9 01       		.byte	0x1
 6046 09fa 4702     		.2byte	0x247
 6047 09fc E4000000 		.4byte	0xe4
 6048 0a00 25       		.uleb128 0x25
 6049 0a01 7B080000 		.4byte	.LASF29
 6050 0a05 01       		.byte	0x1
 6051 0a06 4702     		.2byte	0x247
 6052 0a08 84060000 		.4byte	0x684
 6053 0a0c 00       		.byte	0
 6054 0a0d 23       		.uleb128 0x23
 6055 0a0e B7090000 		.4byte	.LASF162
 6056 0a12 01       		.byte	0x1
 6057 0a13 5B02     		.2byte	0x25b
 6058 0a15 9F000000 		.4byte	0x9f
 6059 0a19 03       		.byte	0x3
 6060 0a1a 420A0000 		.4byte	0xa42
 6061 0a1e 24       		.uleb128 0x24
 6062 0a1f 766D00   		.ascii	"vm\000"
 6063 0a22 01       		.byte	0x1
 6064 0a23 5B02     		.2byte	0x25b
 6065 0a25 A2080000 		.4byte	0x8a2
 6066 0a29 25       		.uleb128 0x25
 6067 0a2a AE080000 		.4byte	.LASF93
 6068 0a2e 01       		.byte	0x1
 6069 0a2f 5B02     		.2byte	0x25b
 6070 0a31 E4000000 		.4byte	0xe4
 6071 0a35 25       		.uleb128 0x25
 6072 0a36 7B080000 		.4byte	.LASF29
 6073 0a3a 01       		.byte	0x1
 6074 0a3b 5B02     		.2byte	0x25b
 6075 0a3d 84060000 		.4byte	0x684
ARM GAS  C:\Users\164\AppData\Local\Temp\cc4PZf78.s 			page 153


 6076 0a41 00       		.byte	0
 6077 0a42 23       		.uleb128 0x23
 6078 0a43 B0030000 		.4byte	.LASF163
 6079 0a47 01       		.byte	0x1
 6080 0a48 BD02     		.2byte	0x2bd
 6081 0a4a 9F000000 		.4byte	0x9f
 6082 0a4e 03       		.byte	0x3
 6083 0a4f 770A0000 		.4byte	0xa77
 6084 0a53 24       		.uleb128 0x24
 6085 0a54 766D00   		.ascii	"vm\000"
 6086 0a57 01       		.byte	0x1
 6087 0a58 BD02     		.2byte	0x2bd
 6088 0a5a A2080000 		.4byte	0x8a2
 6089 0a5e 25       		.uleb128 0x25
 6090 0a5f AE080000 		.4byte	.LASF93
 6091 0a63 01       		.byte	0x1
 6092 0a64 BD02     		.2byte	0x2bd
 6093 0a66 E4000000 		.4byte	0xe4
 6094 0a6a 25       		.uleb128 0x25
 6095 0a6b 7B080000 		.4byte	.LASF29
 6096 0a6f 01       		.byte	0x1
 6097 0a70 BD02     		.2byte	0x2bd
 6098 0a72 84060000 		.4byte	0x684
 6099 0a76 00       		.byte	0
 6100 0a77 23       		.uleb128 0x23
 6101 0a78 160A0000 		.4byte	.LASF164
 6102 0a7c 01       		.byte	0x1
 6103 0a7d D502     		.2byte	0x2d5
 6104 0a7f 9F000000 		.4byte	0x9f
 6105 0a83 03       		.byte	0x3
 6106 0a84 DC0A0000 		.4byte	0xadc
 6107 0a88 24       		.uleb128 0x24
 6108 0a89 766D00   		.ascii	"vm\000"
 6109 0a8c 01       		.byte	0x1
 6110 0a8d D502     		.2byte	0x2d5
 6111 0a8f A2080000 		.4byte	0x8a2
 6112 0a93 25       		.uleb128 0x25
 6113 0a94 AE080000 		.4byte	.LASF93
 6114 0a98 01       		.byte	0x1
 6115 0a99 D502     		.2byte	0x2d5
 6116 0a9b E4000000 		.4byte	0xe4
 6117 0a9f 25       		.uleb128 0x25
 6118 0aa0 7B080000 		.4byte	.LASF29
 6119 0aa4 01       		.byte	0x1
 6120 0aa5 D502     		.2byte	0x2d5
 6121 0aa7 84060000 		.4byte	0x684
 6122 0aab 27       		.uleb128 0x27
 6123 0aac 6A040000 		.4byte	.LASF32
 6124 0ab0 01       		.byte	0x1
 6125 0ab1 D702     		.2byte	0x2d7
 6126 0ab3 DC0A0000 		.4byte	0xadc
 6127 0ab7 27       		.uleb128 0x27
 6128 0ab8 D30A0000 		.4byte	.LASF165
 6129 0abc 01       		.byte	0x1
 6130 0abd D802     		.2byte	0x2d8
 6131 0abf E4000000 		.4byte	0xe4
 6132 0ac3 27       		.uleb128 0x27
ARM GAS  C:\Users\164\AppData\Local\Temp\cc4PZf78.s 			page 154


 6133 0ac4 340B0000 		.4byte	.LASF166
 6134 0ac8 01       		.byte	0x1
 6135 0ac9 D902     		.2byte	0x2d9
 6136 0acb 9F000000 		.4byte	0x9f
 6137 0acf 27       		.uleb128 0x27
 6138 0ad0 78050000 		.4byte	.LASF167
 6139 0ad4 01       		.byte	0x1
 6140 0ad5 DA02     		.2byte	0x2da
 6141 0ad7 9F000000 		.4byte	0x9f
 6142 0adb 00       		.byte	0
 6143 0adc 06       		.uleb128 0x6
 6144 0add 04       		.byte	0x4
 6145 0ade 90060000 		.4byte	0x690
 6146 0ae2 23       		.uleb128 0x23
 6147 0ae3 41000000 		.4byte	.LASF168
 6148 0ae7 01       		.byte	0x1
 6149 0ae8 3506     		.2byte	0x635
 6150 0aea 9F000000 		.4byte	0x9f
 6151 0aee 03       		.byte	0x3
 6152 0aef 220B0000 		.4byte	0xb22
 6153 0af3 24       		.uleb128 0x24
 6154 0af4 766D00   		.ascii	"vm\000"
 6155 0af7 01       		.byte	0x1
 6156 0af8 3506     		.2byte	0x635
 6157 0afa A2080000 		.4byte	0x8a2
 6158 0afe 25       		.uleb128 0x25
 6159 0aff AE080000 		.4byte	.LASF93
 6160 0b03 01       		.byte	0x1
 6161 0b04 3506     		.2byte	0x635
 6162 0b06 E4000000 		.4byte	0xe4
 6163 0b0a 25       		.uleb128 0x25
 6164 0b0b 7B080000 		.4byte	.LASF29
 6165 0b0f 01       		.byte	0x1
 6166 0b10 3506     		.2byte	0x635
 6167 0b12 84060000 		.4byte	0x684
 6168 0b16 26       		.uleb128 0x26
 6169 0b17 726100   		.ascii	"ra\000"
 6170 0b1a 01       		.byte	0x1
 6171 0b1b 3706     		.2byte	0x637
 6172 0b1d 9F000000 		.4byte	0x9f
 6173 0b21 00       		.byte	0
 6174 0b22 23       		.uleb128 0x23
 6175 0b23 B40A0000 		.4byte	.LASF169
 6176 0b27 01       		.byte	0x1
 6177 0b28 4D06     		.2byte	0x64d
 6178 0b2a 9F000000 		.4byte	0x9f
 6179 0b2e 03       		.byte	0x3
 6180 0b2f 630B0000 		.4byte	0xb63
 6181 0b33 24       		.uleb128 0x24
 6182 0b34 766D00   		.ascii	"vm\000"
 6183 0b37 01       		.byte	0x1
 6184 0b38 4D06     		.2byte	0x64d
 6185 0b3a A2080000 		.4byte	0x8a2
 6186 0b3e 25       		.uleb128 0x25
 6187 0b3f AE080000 		.4byte	.LASF93
 6188 0b43 01       		.byte	0x1
 6189 0b44 4D06     		.2byte	0x64d
ARM GAS  C:\Users\164\AppData\Local\Temp\cc4PZf78.s 			page 155


 6190 0b46 E4000000 		.4byte	0xe4
 6191 0b4a 25       		.uleb128 0x25
 6192 0b4b 7B080000 		.4byte	.LASF29
 6193 0b4f 01       		.byte	0x1
 6194 0b50 4D06     		.2byte	0x64d
 6195 0b52 84060000 		.4byte	0x684
 6196 0b56 28       		.uleb128 0x28
 6197 0b57 26       		.uleb128 0x26
 6198 0b58 6900     		.ascii	"i\000"
 6199 0b5a 01       		.byte	0x1
 6200 0b5b 5006     		.2byte	0x650
 6201 0b5d 9F000000 		.4byte	0x9f
 6202 0b61 00       		.byte	0
 6203 0b62 00       		.byte	0
 6204 0b63 29       		.uleb128 0x29
 6205 0b64 29080000 		.4byte	.LASF265
 6206 0b68 01       		.byte	0x1
 6207 0b69 62       		.byte	0x62
 6208 0b6a 00000000 		.4byte	.LFB93
 6209 0b6e 10000000 		.4byte	.LFE93-.LFB93
 6210 0b72 01       		.uleb128 0x1
 6211 0b73 9C       		.byte	0x9c
 6212 0b74 8C0B0000 		.4byte	0xb8c
 6213 0b78 2A       		.uleb128 0x2a
 6214 0b79 08000000 		.4byte	.LVL0
 6215 0b7d A13E0000 		.4byte	0x3ea1
 6216 0b81 2B       		.uleb128 0x2b
 6217 0b82 01       		.uleb128 0x1
 6218 0b83 50       		.byte	0x50
 6219 0b84 05       		.uleb128 0x5
 6220 0b85 03       		.byte	0x3
 6221 0b86 00000000 		.4byte	.LC0
 6222 0b8a 00       		.byte	0
 6223 0b8b 00       		.byte	0
 6224 0b8c 2C       		.uleb128 0x2c
 6225 0b8d 53070000 		.4byte	.LASF170
 6226 0b91 01       		.byte	0x1
 6227 0b92 42       		.byte	0x42
 6228 0b93 06010000 		.4byte	0x106
 6229 0b97 00000000 		.4byte	.LFB91
 6230 0b9b 40000000 		.4byte	.LFE91-.LFB91
 6231 0b9f 01       		.uleb128 0x1
 6232 0ba0 9C       		.byte	0x9c
 6233 0ba1 3E0C0000 		.4byte	0xc3e
 6234 0ba5 2D       		.uleb128 0x2d
 6235 0ba6 7000     		.ascii	"p\000"
 6236 0ba8 01       		.byte	0x1
 6237 0ba9 42       		.byte	0x42
 6238 0baa 9B060000 		.4byte	0x69b
 6239 0bae 00000000 		.4byte	.LLST0
 6240 0bb2 2D       		.uleb128 0x2d
 6241 0bb3 6E00     		.ascii	"n\000"
 6242 0bb5 01       		.byte	0x1
 6243 0bb6 42       		.byte	0x42
 6244 0bb7 9F000000 		.4byte	0x9f
 6245 0bbb 36000000 		.4byte	.LLST1
 6246 0bbf 2E       		.uleb128 0x2e
ARM GAS  C:\Users\164\AppData\Local\Temp\cc4PZf78.s 			page 156


 6247 0bc0 636E7400 		.ascii	"cnt\000"
 6248 0bc4 01       		.byte	0x1
 6249 0bc5 44       		.byte	0x44
 6250 0bc6 9F000000 		.4byte	0x9f
 6251 0bca 54000000 		.4byte	.LLST2
 6252 0bce 2F       		.uleb128 0x2f
 6253 0bcf 4E080000 		.4byte	0x84e
 6254 0bd3 02000000 		.4byte	.LBB42
 6255 0bd7 18000000 		.4byte	.LBE42-.LBB42
 6256 0bdb 01       		.byte	0x1
 6257 0bdc 44       		.byte	0x44
 6258 0bdd FE0B0000 		.4byte	0xbfe
 6259 0be1 30       		.uleb128 0x30
 6260 0be2 5E080000 		.4byte	0x85e
 6261 0be6 EF000000 		.4byte	.LLST3
 6262 0bea 31       		.uleb128 0x31
 6263 0beb 02000000 		.4byte	.LBB43
 6264 0bef 18000000 		.4byte	.LBE43-.LBB43
 6265 0bf3 32       		.uleb128 0x32
 6266 0bf4 67080000 		.4byte	0x867
 6267 0bf8 02010000 		.4byte	.LLST4
 6268 0bfc 00       		.byte	0
 6269 0bfd 00       		.byte	0
 6270 0bfe 31       		.uleb128 0x31
 6271 0bff 22000000 		.4byte	.LBB44
 6272 0c03 10000000 		.4byte	.LBE44-.LBB44
 6273 0c07 21       		.uleb128 0x21
 6274 0c08 7300     		.ascii	"s\000"
 6275 0c0a 01       		.byte	0x1
 6276 0c0b 48       		.byte	0x48
 6277 0c0c CE000000 		.4byte	0xce
 6278 0c10 33       		.uleb128 0x33
 6279 0c11 2B080000 		.4byte	0x82b
 6280 0c15 22000000 		.4byte	.LBB45
 6281 0c19 0A000000 		.4byte	.LBE45-.LBB45
 6282 0c1d 01       		.byte	0x1
 6283 0c1e 48       		.byte	0x48
 6284 0c1f 30       		.uleb128 0x30
 6285 0c20 3B080000 		.4byte	0x83b
 6286 0c24 15010000 		.4byte	.LLST5
 6287 0c28 31       		.uleb128 0x31
 6288 0c29 22000000 		.4byte	.LBB46
 6289 0c2d 0A000000 		.4byte	.LBE46-.LBB46
 6290 0c31 32       		.uleb128 0x32
 6291 0c32 44080000 		.4byte	0x844
 6292 0c36 28010000 		.4byte	.LLST6
 6293 0c3a 00       		.byte	0
 6294 0c3b 00       		.byte	0
 6295 0c3c 00       		.byte	0
 6296 0c3d 00       		.byte	0
 6297 0c3e 2C       		.uleb128 0x2c
 6298 0c3f EE010000 		.4byte	.LASF171
 6299 0c43 01       		.byte	0x1
 6300 0c44 56       		.byte	0x56
 6301 0c45 06010000 		.4byte	0x106
 6302 0c49 00000000 		.4byte	.LFB92
 6303 0c4d 2C000000 		.4byte	.LFE92-.LFB92
ARM GAS  C:\Users\164\AppData\Local\Temp\cc4PZf78.s 			page 157


 6304 0c51 01       		.uleb128 0x1
 6305 0c52 9C       		.byte	0x9c
 6306 0c53 B80C0000 		.4byte	0xcb8
 6307 0c57 2D       		.uleb128 0x2d
 6308 0c58 766D00   		.ascii	"vm\000"
 6309 0c5b 01       		.byte	0x1
 6310 0c5c 56       		.byte	0x56
 6311 0c5d A2080000 		.4byte	0x8a2
 6312 0c61 3B010000 		.4byte	.LLST7
 6313 0c65 34       		.uleb128 0x34
 6314 0c66 AE080000 		.4byte	.LASF93
 6315 0c6a 01       		.byte	0x1
 6316 0c6b 58       		.byte	0x58
 6317 0c6c E4000000 		.4byte	0xe4
 6318 0c70 2E       		.uleb128 0x2e
 6319 0c71 726200   		.ascii	"rb\000"
 6320 0c74 01       		.byte	0x1
 6321 0c75 59       		.byte	0x59
 6322 0c76 9F000000 		.4byte	0x9f
 6323 0c7a 5C010000 		.4byte	.LLST8
 6324 0c7e 2F       		.uleb128 0x2f
 6325 0c7f 4E080000 		.4byte	0x84e
 6326 0c83 0A000000 		.4byte	.LBB47
 6327 0c87 16000000 		.4byte	.LBE47-.LBB47
 6328 0c8b 01       		.byte	0x1
 6329 0c8c 58       		.byte	0x58
 6330 0c8d AE0C0000 		.4byte	0xcae
 6331 0c91 30       		.uleb128 0x30
 6332 0c92 5E080000 		.4byte	0x85e
 6333 0c96 82010000 		.4byte	.LLST9
 6334 0c9a 31       		.uleb128 0x31
 6335 0c9b 0A000000 		.4byte	.LBB48
 6336 0c9f 16000000 		.4byte	.LBE48-.LBB48
 6337 0ca3 32       		.uleb128 0x32
 6338 0ca4 67080000 		.4byte	0x867
 6339 0ca8 D1010000 		.4byte	.LLST10
 6340 0cac 00       		.byte	0
 6341 0cad 00       		.byte	0
 6342 0cae 35       		.uleb128 0x35
 6343 0caf 2A000000 		.4byte	.LVL23
 6344 0cb3 8C0B0000 		.4byte	0xb8c
 6345 0cb7 00       		.byte	0
 6346 0cb8 36       		.uleb128 0x36
 6347 0cb9 F9070000 		.4byte	.LASF172
 6348 0cbd 01       		.byte	0x1
 6349 0cbe 6E       		.byte	0x6e
 6350 0cbf 00000000 		.4byte	.LFB94
 6351 0cc3 36000000 		.4byte	.LFE94-.LFB94
 6352 0cc7 01       		.uleb128 0x1
 6353 0cc8 9C       		.byte	0x9c
 6354 0cc9 F60C0000 		.4byte	0xcf6
 6355 0ccd 37       		.uleb128 0x37
 6356 0cce 766D00   		.ascii	"vm\000"
 6357 0cd1 01       		.byte	0x1
 6358 0cd2 6E       		.byte	0x6e
 6359 0cd3 A2080000 		.4byte	0x8a2
 6360 0cd7 01       		.uleb128 0x1
ARM GAS  C:\Users\164\AppData\Local\Temp\cc4PZf78.s 			page 158


 6361 0cd8 50       		.byte	0x50
 6362 0cd9 38       		.uleb128 0x38
 6363 0cda 24010000 		.4byte	.LASF100
 6364 0cde 01       		.byte	0x1
 6365 0cdf 6E       		.byte	0x6e
 6366 0ce0 9F000000 		.4byte	0x9f
 6367 0ce4 01       		.uleb128 0x1
 6368 0ce5 51       		.byte	0x51
 6369 0ce6 39       		.uleb128 0x39
 6370 0ce7 6A040000 		.4byte	.LASF32
 6371 0ceb 01       		.byte	0x1
 6372 0cec 70       		.byte	0x70
 6373 0ced DC0A0000 		.4byte	0xadc
 6374 0cf1 FE010000 		.4byte	.LLST11
 6375 0cf5 00       		.byte	0
 6376 0cf6 36       		.uleb128 0x36
 6377 0cf7 DF070000 		.4byte	.LASF173
 6378 0cfb 01       		.byte	0x1
 6379 0cfc 80       		.byte	0x80
 6380 0cfd 00000000 		.4byte	.LFB95
 6381 0d01 32000000 		.4byte	.LFE95-.LFB95
 6382 0d05 01       		.uleb128 0x1
 6383 0d06 9C       		.byte	0x9c
 6384 0d07 270D0000 		.4byte	0xd27
 6385 0d0b 37       		.uleb128 0x37
 6386 0d0c 766D00   		.ascii	"vm\000"
 6387 0d0f 01       		.byte	0x1
 6388 0d10 80       		.byte	0x80
 6389 0d11 A2080000 		.4byte	0x8a2
 6390 0d15 01       		.uleb128 0x1
 6391 0d16 50       		.byte	0x50
 6392 0d17 39       		.uleb128 0x39
 6393 0d18 6A040000 		.4byte	.LASF32
 6394 0d1c 01       		.byte	0x1
 6395 0d1d 83       		.byte	0x83
 6396 0d1e DC0A0000 		.4byte	0xadc
 6397 0d22 11020000 		.4byte	.LLST12
 6398 0d26 00       		.byte	0
 6399 0d27 1F       		.uleb128 0x1f
 6400 0d28 64040000 		.4byte	.LASF174
 6401 0d2c 01       		.byte	0x1
 6402 0d2d 2E       		.byte	0x2e
 6403 0d2e 9F000000 		.4byte	0x9f
 6404 0d32 03       		.byte	0x3
 6405 0d33 4A0D0000 		.4byte	0xd4a
 6406 0d37 20       		.uleb128 0x20
 6407 0d38 7800     		.ascii	"x\000"
 6408 0d3a 01       		.byte	0x1
 6409 0d3b 2E       		.byte	0x2e
 6410 0d3c E4000000 		.4byte	0xe4
 6411 0d40 21       		.uleb128 0x21
 6412 0d41 6E00     		.ascii	"n\000"
 6413 0d43 01       		.byte	0x1
 6414 0d44 32       		.byte	0x32
 6415 0d45 9F000000 		.4byte	0x9f
 6416 0d49 00       		.byte	0
 6417 0d4a 3A       		.uleb128 0x3a
ARM GAS  C:\Users\164\AppData\Local\Temp\cc4PZf78.s 			page 159


 6418 0d4b 2B010000 		.4byte	.LASF175
 6419 0d4f 01       		.byte	0x1
 6420 0d50 6406     		.2byte	0x664
 6421 0d52 A2080000 		.4byte	0x8a2
 6422 0d56 00000000 		.4byte	.LFB142
 6423 0d5a A8000000 		.4byte	.LFE142-.LFB142
 6424 0d5e 01       		.uleb128 0x1
 6425 0d5f 9C       		.byte	0x9c
 6426 0d60 2C0E0000 		.4byte	0xe2c
 6427 0d64 3B       		.uleb128 0x3b
 6428 0d65 37080000 		.4byte	.LASF176
 6429 0d69 01       		.byte	0x1
 6430 0d6a 6406     		.2byte	0x664
 6431 0d6c A2080000 		.4byte	0x8a2
 6432 0d70 24020000 		.4byte	.LLST13
 6433 0d74 3C       		.uleb128 0x3c
 6434 0d75 766D00   		.ascii	"vm\000"
 6435 0d78 01       		.byte	0x1
 6436 0d79 6606     		.2byte	0x666
 6437 0d7b A2080000 		.4byte	0x8a2
 6438 0d7f 66020000 		.4byte	.LLST14
 6439 0d83 3D       		.uleb128 0x3d
 6440 0d84 E9030000 		.4byte	.LASF27
 6441 0d88 01       		.byte	0x1
 6442 0d89 6E06     		.2byte	0x66e
 6443 0d8b 9F000000 		.4byte	0x9f
 6444 0d8f B0020000 		.4byte	.LLST15
 6445 0d93 3C       		.uleb128 0x3c
 6446 0d94 6900     		.ascii	"i\000"
 6447 0d96 01       		.byte	0x1
 6448 0d97 6F06     		.2byte	0x66f
 6449 0d99 9F000000 		.4byte	0x9f
 6450 0d9d F1020000 		.4byte	.LLST16
 6451 0da1 3E       		.uleb128 0x3e
 6452 0da2 1A000000 		.4byte	.LBB52
 6453 0da6 52000000 		.4byte	.LBE52-.LBB52
 6454 0daa E60D0000 		.4byte	0xde6
 6455 0dae 26       		.uleb128 0x26
 6456 0daf 6E00     		.ascii	"n\000"
 6457 0db1 01       		.byte	0x1
 6458 0db2 7106     		.2byte	0x671
 6459 0db4 9F000000 		.4byte	0x9f
 6460 0db8 3F       		.uleb128 0x3f
 6461 0db9 270D0000 		.4byte	0xd27
 6462 0dbd 20000000 		.4byte	.LBB53
 6463 0dc1 30000000 		.4byte	.LBE53-.LBB53
 6464 0dc5 01       		.byte	0x1
 6465 0dc6 7106     		.2byte	0x671
 6466 0dc8 30       		.uleb128 0x30
 6467 0dc9 370D0000 		.4byte	0xd37
 6468 0dcd 26030000 		.4byte	.LLST17
 6469 0dd1 31       		.uleb128 0x31
 6470 0dd2 20000000 		.4byte	.LBB54
 6471 0dd6 30000000 		.4byte	.LBE54-.LBB54
 6472 0dda 32       		.uleb128 0x32
 6473 0ddb 400D0000 		.4byte	0xd40
 6474 0ddf 52030000 		.4byte	.LLST18
ARM GAS  C:\Users\164\AppData\Local\Temp\cc4PZf78.s 			page 160


 6475 0de3 00       		.byte	0
 6476 0de4 00       		.byte	0
 6477 0de5 00       		.byte	0
 6478 0de6 40       		.uleb128 0x40
 6479 0de7 0E000000 		.4byte	.LVL33
 6480 0deb AC3E0000 		.4byte	0x3eac
 6481 0def FB0D0000 		.4byte	0xdfb
 6482 0df3 2B       		.uleb128 0x2b
 6483 0df4 01       		.uleb128 0x1
 6484 0df5 50       		.byte	0x50
 6485 0df6 03       		.uleb128 0x3
 6486 0df7 0A       		.byte	0xa
 6487 0df8 400E     		.2byte	0xe40
 6488 0dfa 00       		.byte	0
 6489 0dfb 40       		.uleb128 0x40
 6490 0dfc 7E000000 		.4byte	.LVL57
 6491 0e00 B73E0000 		.4byte	0x3eb7
 6492 0e04 0F0E0000 		.4byte	0xe0f
 6493 0e08 2B       		.uleb128 0x2b
 6494 0e09 01       		.uleb128 0x1
 6495 0e0a 50       		.byte	0x50
 6496 0e0b 02       		.uleb128 0x2
 6497 0e0c 75       		.byte	0x75
 6498 0e0d 00       		.sleb128 0
 6499 0e0e 00       		.byte	0
 6500 0e0f 2A       		.uleb128 0x2a
 6501 0e10 8E000000 		.4byte	.LVL60
 6502 0e14 C23E0000 		.4byte	0x3ec2
 6503 0e18 2B       		.uleb128 0x2b
 6504 0e19 01       		.uleb128 0x1
 6505 0e1a 50       		.byte	0x50
 6506 0e1b 02       		.uleb128 0x2
 6507 0e1c 75       		.byte	0x75
 6508 0e1d 00       		.sleb128 0
 6509 0e1e 2B       		.uleb128 0x2b
 6510 0e1f 01       		.uleb128 0x1
 6511 0e20 51       		.byte	0x51
 6512 0e21 01       		.uleb128 0x1
 6513 0e22 30       		.byte	0x30
 6514 0e23 2B       		.uleb128 0x2b
 6515 0e24 01       		.uleb128 0x1
 6516 0e25 52       		.byte	0x52
 6517 0e26 03       		.uleb128 0x3
 6518 0e27 0A       		.byte	0xa
 6519 0e28 400E     		.2byte	0xe40
 6520 0e2a 00       		.byte	0
 6521 0e2b 00       		.byte	0
 6522 0e2c 41       		.uleb128 0x41
 6523 0e2d 3C030000 		.4byte	.LASF177
 6524 0e31 01       		.byte	0x1
 6525 0e32 8D06     		.2byte	0x68d
 6526 0e34 00000000 		.4byte	.LFB143
 6527 0e38 74000000 		.4byte	.LFE143-.LFB143
 6528 0e3c 01       		.uleb128 0x1
 6529 0e3d 9C       		.byte	0x9c
 6530 0e3e C60E0000 		.4byte	0xec6
 6531 0e42 42       		.uleb128 0x42
ARM GAS  C:\Users\164\AppData\Local\Temp\cc4PZf78.s 			page 161


 6532 0e43 766D00   		.ascii	"vm\000"
 6533 0e46 01       		.byte	0x1
 6534 0e47 8D06     		.2byte	0x68d
 6535 0e49 A2080000 		.4byte	0x8a2
 6536 0e4d 89030000 		.4byte	.LLST19
 6537 0e51 3C       		.uleb128 0x3c
 6538 0e52 6900     		.ascii	"i\000"
 6539 0e54 01       		.byte	0x1
 6540 0e55 9006     		.2byte	0x690
 6541 0e57 9F000000 		.4byte	0x9f
 6542 0e5b CB030000 		.4byte	.LLST20
 6543 0e5f 3C       		.uleb128 0x3c
 6544 0e60 6E00     		.ascii	"n\000"
 6545 0e62 01       		.byte	0x1
 6546 0e63 9106     		.2byte	0x691
 6547 0e65 9F000000 		.4byte	0x9f
 6548 0e69 E9030000 		.4byte	.LLST21
 6549 0e6d 43       		.uleb128 0x43
 6550 0e6e 72000000 		.4byte	.LASF178
 6551 0e72 D60E0000 		.4byte	0xed6
 6552 0e76 05       		.uleb128 0x5
 6553 0e77 03       		.byte	0x3
 6554 0e78 00000000 		.4byte	__func__.7695
 6555 0e7c 40       		.uleb128 0x40
 6556 0e7d 32000000 		.4byte	.LVL71
 6557 0e81 CB3E0000 		.4byte	0x3ecb
 6558 0e85 AC0E0000 		.4byte	0xeac
 6559 0e89 2B       		.uleb128 0x2b
 6560 0e8a 01       		.uleb128 0x1
 6561 0e8b 50       		.byte	0x50
 6562 0e8c 05       		.uleb128 0x5
 6563 0e8d 03       		.byte	0x3
 6564 0e8e 28000000 		.4byte	.LC2
 6565 0e92 2B       		.uleb128 0x2b
 6566 0e93 01       		.uleb128 0x1
 6567 0e94 51       		.byte	0x51
 6568 0e95 03       		.uleb128 0x3
 6569 0e96 0A       		.byte	0xa
 6570 0e97 9206     		.2byte	0x692
 6571 0e99 2B       		.uleb128 0x2b
 6572 0e9a 01       		.uleb128 0x1
 6573 0e9b 52       		.byte	0x52
 6574 0e9c 05       		.uleb128 0x5
 6575 0e9d 03       		.byte	0x3
 6576 0e9e 00000000 		.4byte	.LANCHOR1
 6577 0ea2 2B       		.uleb128 0x2b
 6578 0ea3 01       		.uleb128 0x1
 6579 0ea4 53       		.byte	0x53
 6580 0ea5 05       		.uleb128 0x5
 6581 0ea6 03       		.byte	0x3
 6582 0ea7 10000000 		.4byte	.LC1
 6583 0eab 00       		.byte	0
 6584 0eac 35       		.uleb128 0x35
 6585 0ead 50000000 		.4byte	.LVL74
 6586 0eb1 D63E0000 		.4byte	0x3ed6
 6587 0eb5 2A       		.uleb128 0x2a
 6588 0eb6 5C000000 		.4byte	.LVL75
ARM GAS  C:\Users\164\AppData\Local\Temp\cc4PZf78.s 			page 162


 6589 0eba B73E0000 		.4byte	0x3eb7
 6590 0ebe 2B       		.uleb128 0x2b
 6591 0ebf 01       		.uleb128 0x1
 6592 0ec0 50       		.byte	0x50
 6593 0ec1 02       		.uleb128 0x2
 6594 0ec2 74       		.byte	0x74
 6595 0ec3 00       		.sleb128 0
 6596 0ec4 00       		.byte	0
 6597 0ec5 00       		.byte	0
 6598 0ec6 19       		.uleb128 0x19
 6599 0ec7 0C010000 		.4byte	0x10c
 6600 0ecb D60E0000 		.4byte	0xed6
 6601 0ecf 1B       		.uleb128 0x1b
 6602 0ed0 F6000000 		.4byte	0xf6
 6603 0ed4 0D       		.byte	0xd
 6604 0ed5 00       		.byte	0
 6605 0ed6 07       		.uleb128 0x7
 6606 0ed7 C60E0000 		.4byte	0xec6
 6607 0edb 41       		.uleb128 0x41
 6608 0edc 860A0000 		.4byte	.LASF179
 6609 0ee0 01       		.byte	0x1
 6610 0ee1 A206     		.2byte	0x6a2
 6611 0ee3 00000000 		.4byte	.LFB144
 6612 0ee7 4C000000 		.4byte	.LFE144-.LFB144
 6613 0eeb 01       		.uleb128 0x1
 6614 0eec 9C       		.byte	0x9c
 6615 0eed 400F0000 		.4byte	0xf40
 6616 0ef1 42       		.uleb128 0x42
 6617 0ef2 766D00   		.ascii	"vm\000"
 6618 0ef5 01       		.byte	0x1
 6619 0ef6 A206     		.2byte	0x6a2
 6620 0ef8 A2080000 		.4byte	0x8a2
 6621 0efc 07040000 		.4byte	.LLST22
 6622 0f00 40       		.uleb128 0x40
 6623 0f01 1C000000 		.4byte	.LVL79
 6624 0f05 C23E0000 		.4byte	0x3ec2
 6625 0f09 210F0000 		.4byte	0xf21
 6626 0f0d 2B       		.uleb128 0x2b
 6627 0f0e 01       		.uleb128 0x1
 6628 0f0f 50       		.byte	0x50
 6629 0f10 02       		.uleb128 0x2
 6630 0f11 74       		.byte	0x74
 6631 0f12 18       		.sleb128 24
 6632 0f13 2B       		.uleb128 0x2b
 6633 0f14 01       		.uleb128 0x1
 6634 0f15 51       		.byte	0x51
 6635 0f16 02       		.uleb128 0x2
 6636 0f17 75       		.byte	0x75
 6637 0f18 00       		.sleb128 0
 6638 0f19 2B       		.uleb128 0x2b
 6639 0f1a 01       		.uleb128 0x1
 6640 0f1b 52       		.byte	0x52
 6641 0f1c 03       		.uleb128 0x3
 6642 0f1d 0A       		.byte	0xa
 6643 0f1e 4006     		.2byte	0x640
 6644 0f20 00       		.byte	0
 6645 0f21 2A       		.uleb128 0x2a
ARM GAS  C:\Users\164\AppData\Local\Temp\cc4PZf78.s 			page 163


 6646 0f22 38000000 		.4byte	.LVL80
 6647 0f26 C23E0000 		.4byte	0x3ec2
 6648 0f2a 2B       		.uleb128 0x2b
 6649 0f2b 01       		.uleb128 0x1
 6650 0f2c 50       		.byte	0x50
 6651 0f2d 03       		.uleb128 0x3
 6652 0f2e 74       		.byte	0x74
 6653 0f2f E00C     		.sleb128 1632
 6654 0f31 2B       		.uleb128 0x2b
 6655 0f32 01       		.uleb128 0x1
 6656 0f33 51       		.byte	0x51
 6657 0f34 02       		.uleb128 0x2
 6658 0f35 75       		.byte	0x75
 6659 0f36 00       		.sleb128 0
 6660 0f37 2B       		.uleb128 0x2b
 6661 0f38 01       		.uleb128 0x1
 6662 0f39 52       		.byte	0x52
 6663 0f3a 03       		.uleb128 0x3
 6664 0f3b 0A       		.byte	0xa
 6665 0f3c D007     		.2byte	0x7d0
 6666 0f3e 00       		.byte	0
 6667 0f3f 00       		.byte	0
 6668 0f40 41       		.uleb128 0x41
 6669 0f41 2A0A0000 		.4byte	.LASF180
 6670 0f45 01       		.byte	0x1
 6671 0f46 BE06     		.2byte	0x6be
 6672 0f48 00000000 		.4byte	.LFB145
 6673 0f4c 10000000 		.4byte	.LFE145-.LFB145
 6674 0f50 01       		.uleb128 0x1
 6675 0f51 9C       		.byte	0x9c
 6676 0f52 7F0F0000 		.4byte	0xf7f
 6677 0f56 42       		.uleb128 0x42
 6678 0f57 766D00   		.ascii	"vm\000"
 6679 0f5a 01       		.byte	0x1
 6680 0f5b BE06     		.2byte	0x6be
 6681 0f5d A2080000 		.4byte	0x8a2
 6682 0f61 33040000 		.4byte	.LLST23
 6683 0f65 35       		.uleb128 0x35
 6684 0f66 08000000 		.4byte	.LVL83
 6685 0f6a E13E0000 		.4byte	0x3ee1
 6686 0f6e 2A       		.uleb128 0x2a
 6687 0f6f 0E000000 		.4byte	.LVL84
 6688 0f73 EC3E0000 		.4byte	0x3eec
 6689 0f77 2B       		.uleb128 0x2b
 6690 0f78 01       		.uleb128 0x1
 6691 0f79 50       		.byte	0x50
 6692 0f7a 02       		.uleb128 0x2
 6693 0f7b 74       		.byte	0x74
 6694 0f7c 00       		.sleb128 0
 6695 0f7d 00       		.byte	0
 6696 0f7e 00       		.byte	0
 6697 0f7f 1F       		.uleb128 0x1f
 6698 0f80 8C050000 		.4byte	.LASF181
 6699 0f84 01       		.byte	0x1
 6700 0f85 A8       		.byte	0xa8
 6701 0f86 9F000000 		.4byte	0x9f
 6702 0f8a 03       		.byte	0x3
ARM GAS  C:\Users\164\AppData\Local\Temp\cc4PZf78.s 			page 164


 6703 0f8b C40F0000 		.4byte	0xfc4
 6704 0f8f 20       		.uleb128 0x20
 6705 0f90 766D00   		.ascii	"vm\000"
 6706 0f93 01       		.byte	0x1
 6707 0f94 A8       		.byte	0xa8
 6708 0f95 A2080000 		.4byte	0x8a2
 6709 0f99 22       		.uleb128 0x22
 6710 0f9a AE080000 		.4byte	.LASF93
 6711 0f9e 01       		.byte	0x1
 6712 0f9f A8       		.byte	0xa8
 6713 0fa0 E4000000 		.4byte	0xe4
 6714 0fa4 22       		.uleb128 0x22
 6715 0fa5 7B080000 		.4byte	.LASF29
 6716 0fa9 01       		.byte	0x1
 6717 0faa A8       		.byte	0xa8
 6718 0fab 84060000 		.4byte	0x684
 6719 0faf 21       		.uleb128 0x21
 6720 0fb0 726100   		.ascii	"ra\000"
 6721 0fb3 01       		.byte	0x1
 6722 0fb4 AA       		.byte	0xaa
 6723 0fb5 9F000000 		.4byte	0x9f
 6724 0fb9 21       		.uleb128 0x21
 6725 0fba 726200   		.ascii	"rb\000"
 6726 0fbd 01       		.byte	0x1
 6727 0fbe AB       		.byte	0xab
 6728 0fbf 9F000000 		.4byte	0x9f
 6729 0fc3 00       		.byte	0
 6730 0fc4 1F       		.uleb128 0x1f
 6731 0fc5 97080000 		.4byte	.LASF182
 6732 0fc9 01       		.byte	0x1
 6733 0fca C0       		.byte	0xc0
 6734 0fcb 9F000000 		.4byte	0x9f
 6735 0fcf 03       		.byte	0x3
 6736 0fd0 14100000 		.4byte	0x1014
 6737 0fd4 20       		.uleb128 0x20
 6738 0fd5 766D00   		.ascii	"vm\000"
 6739 0fd8 01       		.byte	0x1
 6740 0fd9 C0       		.byte	0xc0
 6741 0fda A2080000 		.4byte	0x8a2
 6742 0fde 22       		.uleb128 0x22
 6743 0fdf AE080000 		.4byte	.LASF93
 6744 0fe3 01       		.byte	0x1
 6745 0fe4 C0       		.byte	0xc0
 6746 0fe5 E4000000 		.4byte	0xe4
 6747 0fe9 22       		.uleb128 0x22
 6748 0fea 7B080000 		.4byte	.LASF29
 6749 0fee 01       		.byte	0x1
 6750 0fef C0       		.byte	0xc0
 6751 0ff0 84060000 		.4byte	0x684
 6752 0ff4 21       		.uleb128 0x21
 6753 0ff5 726100   		.ascii	"ra\000"
 6754 0ff8 01       		.byte	0x1
 6755 0ff9 C2       		.byte	0xc2
 6756 0ffa 9F000000 		.4byte	0x9f
 6757 0ffe 21       		.uleb128 0x21
 6758 0fff 726200   		.ascii	"rb\000"
 6759 1002 01       		.byte	0x1
ARM GAS  C:\Users\164\AppData\Local\Temp\cc4PZf78.s 			page 165


 6760 1003 C3       		.byte	0xc3
 6761 1004 9F000000 		.4byte	0x9f
 6762 1008 34       		.uleb128 0x34
 6763 1009 9F050000 		.4byte	.LASF183
 6764 100d 01       		.byte	0x1
 6765 100e C9       		.byte	0xc9
 6766 100f 1F060000 		.4byte	0x61f
 6767 1013 00       		.byte	0
 6768 1014 1F       		.uleb128 0x1f
 6769 1015 1A090000 		.4byte	.LASF184
 6770 1019 01       		.byte	0x1
 6771 101a F2       		.byte	0xf2
 6772 101b 9F000000 		.4byte	0x9f
 6773 101f 03       		.byte	0x3
 6774 1020 6F100000 		.4byte	0x106f
 6775 1024 20       		.uleb128 0x20
 6776 1025 766D00   		.ascii	"vm\000"
 6777 1028 01       		.byte	0x1
 6778 1029 F2       		.byte	0xf2
 6779 102a A2080000 		.4byte	0x8a2
 6780 102e 22       		.uleb128 0x22
 6781 102f AE080000 		.4byte	.LASF93
 6782 1033 01       		.byte	0x1
 6783 1034 F2       		.byte	0xf2
 6784 1035 E4000000 		.4byte	0xe4
 6785 1039 22       		.uleb128 0x22
 6786 103a 7B080000 		.4byte	.LASF29
 6787 103e 01       		.byte	0x1
 6788 103f F2       		.byte	0xf2
 6789 1040 84060000 		.4byte	0x684
 6790 1044 21       		.uleb128 0x21
 6791 1045 726100   		.ascii	"ra\000"
 6792 1048 01       		.byte	0x1
 6793 1049 F4       		.byte	0xf4
 6794 104a 9F000000 		.4byte	0x9f
 6795 104e 21       		.uleb128 0x21
 6796 104f 726200   		.ascii	"rb\000"
 6797 1052 01       		.byte	0x1
 6798 1053 F5       		.byte	0xf5
 6799 1054 9F000000 		.4byte	0x9f
 6800 1058 34       		.uleb128 0x34
 6801 1059 F2080000 		.4byte	.LASF185
 6802 105d 01       		.byte	0x1
 6803 105e F6       		.byte	0xf6
 6804 105f 06010000 		.4byte	0x106
 6805 1063 34       		.uleb128 0x34
 6806 1064 E0000000 		.4byte	.LASF63
 6807 1068 01       		.byte	0x1
 6808 1069 F7       		.byte	0xf7
 6809 106a 11010000 		.4byte	0x111
 6810 106e 00       		.byte	0
 6811 106f 23       		.uleb128 0x23
 6812 1070 87030000 		.4byte	.LASF186
 6813 1074 01       		.byte	0x1
 6814 1075 2201     		.2byte	0x122
 6815 1077 9F000000 		.4byte	0x9f
 6816 107b 03       		.byte	0x3
ARM GAS  C:\Users\164\AppData\Local\Temp\cc4PZf78.s 			page 166


 6817 107c AF100000 		.4byte	0x10af
 6818 1080 24       		.uleb128 0x24
 6819 1081 766D00   		.ascii	"vm\000"
 6820 1084 01       		.byte	0x1
 6821 1085 2201     		.2byte	0x122
 6822 1087 A2080000 		.4byte	0x8a2
 6823 108b 25       		.uleb128 0x25
 6824 108c AE080000 		.4byte	.LASF93
 6825 1090 01       		.byte	0x1
 6826 1091 2201     		.2byte	0x122
 6827 1093 E4000000 		.4byte	0xe4
 6828 1097 25       		.uleb128 0x25
 6829 1098 7B080000 		.4byte	.LASF29
 6830 109c 01       		.byte	0x1
 6831 109d 2201     		.2byte	0x122
 6832 109f 84060000 		.4byte	0x684
 6833 10a3 26       		.uleb128 0x26
 6834 10a4 726100   		.ascii	"ra\000"
 6835 10a7 01       		.byte	0x1
 6836 10a8 2401     		.2byte	0x124
 6837 10aa 9F000000 		.4byte	0x9f
 6838 10ae 00       		.byte	0
 6839 10af 23       		.uleb128 0x23
 6840 10b0 D9080000 		.4byte	.LASF187
 6841 10b4 01       		.byte	0x1
 6842 10b5 6501     		.2byte	0x165
 6843 10b7 9F000000 		.4byte	0x9f
 6844 10bb 03       		.byte	0x3
 6845 10bc 12110000 		.4byte	0x1112
 6846 10c0 24       		.uleb128 0x24
 6847 10c1 766D00   		.ascii	"vm\000"
 6848 10c4 01       		.byte	0x1
 6849 10c5 6501     		.2byte	0x165
 6850 10c7 A2080000 		.4byte	0x8a2
 6851 10cb 25       		.uleb128 0x25
 6852 10cc AE080000 		.4byte	.LASF93
 6853 10d0 01       		.byte	0x1
 6854 10d1 6501     		.2byte	0x165
 6855 10d3 E4000000 		.4byte	0xe4
 6856 10d7 25       		.uleb128 0x25
 6857 10d8 7B080000 		.4byte	.LASF29
 6858 10dc 01       		.byte	0x1
 6859 10dd 6501     		.2byte	0x165
 6860 10df 84060000 		.4byte	0x684
 6861 10e3 26       		.uleb128 0x26
 6862 10e4 726100   		.ascii	"ra\000"
 6863 10e7 01       		.byte	0x1
 6864 10e8 6701     		.2byte	0x167
 6865 10ea 9F000000 		.4byte	0x9f
 6866 10ee 26       		.uleb128 0x26
 6867 10ef 726200   		.ascii	"rb\000"
 6868 10f2 01       		.byte	0x1
 6869 10f3 6801     		.2byte	0x168
 6870 10f5 9F000000 		.4byte	0x9f
 6871 10f9 27       		.uleb128 0x27
 6872 10fa F2080000 		.4byte	.LASF185
 6873 10fe 01       		.byte	0x1
ARM GAS  C:\Users\164\AppData\Local\Temp\cc4PZf78.s 			page 167


 6874 10ff 6901     		.2byte	0x169
 6875 1101 06010000 		.4byte	0x106
 6876 1105 27       		.uleb128 0x27
 6877 1106 E0000000 		.4byte	.LASF63
 6878 110a 01       		.byte	0x1
 6879 110b 6A01     		.2byte	0x16a
 6880 110d 11010000 		.4byte	0x111
 6881 1111 00       		.byte	0
 6882 1112 23       		.uleb128 0x23
 6883 1113 17050000 		.4byte	.LASF188
 6884 1117 01       		.byte	0x1
 6885 1118 7E01     		.2byte	0x17e
 6886 111a 9F000000 		.4byte	0x9f
 6887 111e 03       		.byte	0x3
 6888 111f 75110000 		.4byte	0x1175
 6889 1123 24       		.uleb128 0x24
 6890 1124 766D00   		.ascii	"vm\000"
 6891 1127 01       		.byte	0x1
 6892 1128 7E01     		.2byte	0x17e
 6893 112a A2080000 		.4byte	0x8a2
 6894 112e 25       		.uleb128 0x25
 6895 112f AE080000 		.4byte	.LASF93
 6896 1133 01       		.byte	0x1
 6897 1134 7E01     		.2byte	0x17e
 6898 1136 E4000000 		.4byte	0xe4
 6899 113a 25       		.uleb128 0x25
 6900 113b 7B080000 		.4byte	.LASF29
 6901 113f 01       		.byte	0x1
 6902 1140 7E01     		.2byte	0x17e
 6903 1142 84060000 		.4byte	0x684
 6904 1146 26       		.uleb128 0x26
 6905 1147 726100   		.ascii	"ra\000"
 6906 114a 01       		.byte	0x1
 6907 114b 8001     		.2byte	0x180
 6908 114d 9F000000 		.4byte	0x9f
 6909 1151 26       		.uleb128 0x26
 6910 1152 726200   		.ascii	"rb\000"
 6911 1155 01       		.byte	0x1
 6912 1156 8101     		.2byte	0x181
 6913 1158 9F000000 		.4byte	0x9f
 6914 115c 27       		.uleb128 0x27
 6915 115d F2080000 		.4byte	.LASF185
 6916 1161 01       		.byte	0x1
 6917 1162 8201     		.2byte	0x182
 6918 1164 06010000 		.4byte	0x106
 6919 1168 27       		.uleb128 0x27
 6920 1169 E0000000 		.4byte	.LASF63
 6921 116d 01       		.byte	0x1
 6922 116e 8301     		.2byte	0x183
 6923 1170 11010000 		.4byte	0x111
 6924 1174 00       		.byte	0
 6925 1175 23       		.uleb128 0x23
 6926 1176 DD010000 		.4byte	.LASF189
 6927 117a 01       		.byte	0x1
 6928 117b 9501     		.2byte	0x195
 6929 117d 9F000000 		.4byte	0x9f
 6930 1181 03       		.byte	0x3
ARM GAS  C:\Users\164\AppData\Local\Temp\cc4PZf78.s 			page 168


 6931 1182 E4110000 		.4byte	0x11e4
 6932 1186 24       		.uleb128 0x24
 6933 1187 766D00   		.ascii	"vm\000"
 6934 118a 01       		.byte	0x1
 6935 118b 9501     		.2byte	0x195
 6936 118d A2080000 		.4byte	0x8a2
 6937 1191 25       		.uleb128 0x25
 6938 1192 AE080000 		.4byte	.LASF93
 6939 1196 01       		.byte	0x1
 6940 1197 9501     		.2byte	0x195
 6941 1199 E4000000 		.4byte	0xe4
 6942 119d 25       		.uleb128 0x25
 6943 119e 7B080000 		.4byte	.LASF29
 6944 11a2 01       		.byte	0x1
 6945 11a3 9501     		.2byte	0x195
 6946 11a5 84060000 		.4byte	0x684
 6947 11a9 26       		.uleb128 0x26
 6948 11aa 726100   		.ascii	"ra\000"
 6949 11ad 01       		.byte	0x1
 6950 11ae 9701     		.2byte	0x197
 6951 11b0 9F000000 		.4byte	0x9f
 6952 11b4 26       		.uleb128 0x26
 6953 11b5 726200   		.ascii	"rb\000"
 6954 11b8 01       		.byte	0x1
 6955 11b9 9801     		.2byte	0x198
 6956 11bb 9F000000 		.4byte	0x9f
 6957 11bf 27       		.uleb128 0x27
 6958 11c0 F2080000 		.4byte	.LASF185
 6959 11c4 01       		.byte	0x1
 6960 11c5 9A01     		.2byte	0x19a
 6961 11c7 06010000 		.4byte	0x106
 6962 11cb 27       		.uleb128 0x27
 6963 11cc E0000000 		.4byte	.LASF63
 6964 11d0 01       		.byte	0x1
 6965 11d1 9B01     		.2byte	0x19b
 6966 11d3 11010000 		.4byte	0x111
 6967 11d7 26       		.uleb128 0x26
 6968 11d8 76616C00 		.ascii	"val\000"
 6969 11dc 01       		.byte	0x1
 6970 11dd 9D01     		.2byte	0x19d
 6971 11df 3A050000 		.4byte	0x53a
 6972 11e3 00       		.byte	0
 6973 11e4 23       		.uleb128 0x23
 6974 11e5 1C070000 		.4byte	.LASF190
 6975 11e9 01       		.byte	0x1
 6976 11ea B101     		.2byte	0x1b1
 6977 11ec 9F000000 		.4byte	0x9f
 6978 11f0 03       		.byte	0x3
 6979 11f1 47120000 		.4byte	0x1247
 6980 11f5 24       		.uleb128 0x24
 6981 11f6 766D00   		.ascii	"vm\000"
 6982 11f9 01       		.byte	0x1
 6983 11fa B101     		.2byte	0x1b1
 6984 11fc A2080000 		.4byte	0x8a2
 6985 1200 25       		.uleb128 0x25
 6986 1201 AE080000 		.4byte	.LASF93
 6987 1205 01       		.byte	0x1
ARM GAS  C:\Users\164\AppData\Local\Temp\cc4PZf78.s 			page 169


 6988 1206 B101     		.2byte	0x1b1
 6989 1208 E4000000 		.4byte	0xe4
 6990 120c 25       		.uleb128 0x25
 6991 120d 7B080000 		.4byte	.LASF29
 6992 1211 01       		.byte	0x1
 6993 1212 B101     		.2byte	0x1b1
 6994 1214 84060000 		.4byte	0x684
 6995 1218 26       		.uleb128 0x26
 6996 1219 726100   		.ascii	"ra\000"
 6997 121c 01       		.byte	0x1
 6998 121d B301     		.2byte	0x1b3
 6999 121f 9F000000 		.4byte	0x9f
 7000 1223 26       		.uleb128 0x26
 7001 1224 726200   		.ascii	"rb\000"
 7002 1227 01       		.byte	0x1
 7003 1228 B401     		.2byte	0x1b4
 7004 122a 9F000000 		.4byte	0x9f
 7005 122e 27       		.uleb128 0x27
 7006 122f F2080000 		.4byte	.LASF185
 7007 1233 01       		.byte	0x1
 7008 1234 B601     		.2byte	0x1b6
 7009 1236 06010000 		.4byte	0x106
 7010 123a 27       		.uleb128 0x27
 7011 123b E0000000 		.4byte	.LASF63
 7012 123f 01       		.byte	0x1
 7013 1240 B701     		.2byte	0x1b7
 7014 1242 11010000 		.4byte	0x111
 7015 1246 00       		.byte	0
 7016 1247 23       		.uleb128 0x23
 7017 1248 38010000 		.4byte	.LASF191
 7018 124c 01       		.byte	0x1
 7019 124d CA01     		.2byte	0x1ca
 7020 124f 9F000000 		.4byte	0x9f
 7021 1253 03       		.byte	0x3
 7022 1254 AA120000 		.4byte	0x12aa
 7023 1258 24       		.uleb128 0x24
 7024 1259 766D00   		.ascii	"vm\000"
 7025 125c 01       		.byte	0x1
 7026 125d CA01     		.2byte	0x1ca
 7027 125f A2080000 		.4byte	0x8a2
 7028 1263 25       		.uleb128 0x25
 7029 1264 AE080000 		.4byte	.LASF93
 7030 1268 01       		.byte	0x1
 7031 1269 CA01     		.2byte	0x1ca
 7032 126b E4000000 		.4byte	0xe4
 7033 126f 25       		.uleb128 0x25
 7034 1270 7B080000 		.4byte	.LASF29
 7035 1274 01       		.byte	0x1
 7036 1275 CA01     		.2byte	0x1ca
 7037 1277 84060000 		.4byte	0x684
 7038 127b 26       		.uleb128 0x26
 7039 127c 726100   		.ascii	"ra\000"
 7040 127f 01       		.byte	0x1
 7041 1280 CC01     		.2byte	0x1cc
 7042 1282 9F000000 		.4byte	0x9f
 7043 1286 26       		.uleb128 0x26
 7044 1287 726200   		.ascii	"rb\000"
ARM GAS  C:\Users\164\AppData\Local\Temp\cc4PZf78.s 			page 170


 7045 128a 01       		.byte	0x1
 7046 128b CD01     		.2byte	0x1cd
 7047 128d 9F000000 		.4byte	0x9f
 7048 1291 27       		.uleb128 0x27
 7049 1292 F2080000 		.4byte	.LASF185
 7050 1296 01       		.byte	0x1
 7051 1297 CE01     		.2byte	0x1ce
 7052 1299 06010000 		.4byte	0x106
 7053 129d 27       		.uleb128 0x27
 7054 129e E0000000 		.4byte	.LASF63
 7055 12a2 01       		.byte	0x1
 7056 12a3 CF01     		.2byte	0x1cf
 7057 12a5 11010000 		.4byte	0x111
 7058 12a9 00       		.byte	0
 7059 12aa 23       		.uleb128 0x23
 7060 12ab 80000000 		.4byte	.LASF192
 7061 12af 01       		.byte	0x1
 7062 12b0 E401     		.2byte	0x1e4
 7063 12b2 9F000000 		.4byte	0x9f
 7064 12b6 03       		.byte	0x3
 7065 12b7 0D130000 		.4byte	0x130d
 7066 12bb 24       		.uleb128 0x24
 7067 12bc 766D00   		.ascii	"vm\000"
 7068 12bf 01       		.byte	0x1
 7069 12c0 E401     		.2byte	0x1e4
 7070 12c2 A2080000 		.4byte	0x8a2
 7071 12c6 25       		.uleb128 0x25
 7072 12c7 AE080000 		.4byte	.LASF93
 7073 12cb 01       		.byte	0x1
 7074 12cc E401     		.2byte	0x1e4
 7075 12ce E4000000 		.4byte	0xe4
 7076 12d2 25       		.uleb128 0x25
 7077 12d3 7B080000 		.4byte	.LASF29
 7078 12d7 01       		.byte	0x1
 7079 12d8 E401     		.2byte	0x1e4
 7080 12da 84060000 		.4byte	0x684
 7081 12de 26       		.uleb128 0x26
 7082 12df 726100   		.ascii	"ra\000"
 7083 12e2 01       		.byte	0x1
 7084 12e3 E501     		.2byte	0x1e5
 7085 12e5 9F000000 		.4byte	0x9f
 7086 12e9 26       		.uleb128 0x26
 7087 12ea 726200   		.ascii	"rb\000"
 7088 12ed 01       		.byte	0x1
 7089 12ee E601     		.2byte	0x1e6
 7090 12f0 9F000000 		.4byte	0x9f
 7091 12f4 27       		.uleb128 0x27
 7092 12f5 F2080000 		.4byte	.LASF185
 7093 12f9 01       		.byte	0x1
 7094 12fa E701     		.2byte	0x1e7
 7095 12fc 06010000 		.4byte	0x106
 7096 1300 27       		.uleb128 0x27
 7097 1301 E0000000 		.4byte	.LASF63
 7098 1305 01       		.byte	0x1
 7099 1306 E801     		.2byte	0x1e8
 7100 1308 11010000 		.4byte	0x111
 7101 130c 00       		.byte	0
ARM GAS  C:\Users\164\AppData\Local\Temp\cc4PZf78.s 			page 171


 7102 130d 23       		.uleb128 0x23
 7103 130e 6D090000 		.4byte	.LASF193
 7104 1312 01       		.byte	0x1
 7105 1313 FB01     		.2byte	0x1fb
 7106 1315 9F000000 		.4byte	0x9f
 7107 1319 03       		.byte	0x3
 7108 131a 7B130000 		.4byte	0x137b
 7109 131e 24       		.uleb128 0x24
 7110 131f 766D00   		.ascii	"vm\000"
 7111 1322 01       		.byte	0x1
 7112 1323 FB01     		.2byte	0x1fb
 7113 1325 A2080000 		.4byte	0x8a2
 7114 1329 25       		.uleb128 0x25
 7115 132a AE080000 		.4byte	.LASF93
 7116 132e 01       		.byte	0x1
 7117 132f FB01     		.2byte	0x1fb
 7118 1331 E4000000 		.4byte	0xe4
 7119 1335 25       		.uleb128 0x25
 7120 1336 7B080000 		.4byte	.LASF29
 7121 133a 01       		.byte	0x1
 7122 133b FB01     		.2byte	0x1fb
 7123 133d 84060000 		.4byte	0x684
 7124 1341 26       		.uleb128 0x26
 7125 1342 726100   		.ascii	"ra\000"
 7126 1345 01       		.byte	0x1
 7127 1346 FD01     		.2byte	0x1fd
 7128 1348 9F000000 		.4byte	0x9f
 7129 134c 26       		.uleb128 0x26
 7130 134d 726200   		.ascii	"rb\000"
 7131 1350 01       		.byte	0x1
 7132 1351 FE01     		.2byte	0x1fe
 7133 1353 9F000000 		.4byte	0x9f
 7134 1357 26       		.uleb128 0x26
 7135 1358 726300   		.ascii	"rc\000"
 7136 135b 01       		.byte	0x1
 7137 135c FF01     		.2byte	0x1ff
 7138 135e 9F000000 		.4byte	0x9f
 7139 1362 27       		.uleb128 0x27
 7140 1363 6A040000 		.4byte	.LASF32
 7141 1367 01       		.byte	0x1
 7142 1368 0102     		.2byte	0x201
 7143 136a DC0A0000 		.4byte	0xadc
 7144 136e 27       		.uleb128 0x27
 7145 136f 12090000 		.4byte	.LASF194
 7146 1373 01       		.byte	0x1
 7147 1374 0202     		.2byte	0x202
 7148 1376 84060000 		.4byte	0x684
 7149 137a 00       		.byte	0
 7150 137b 23       		.uleb128 0x23
 7151 137c E6080000 		.4byte	.LASF195
 7152 1380 01       		.byte	0x1
 7153 1381 1802     		.2byte	0x218
 7154 1383 9F000000 		.4byte	0x9f
 7155 1387 03       		.byte	0x3
 7156 1388 E9130000 		.4byte	0x13e9
 7157 138c 24       		.uleb128 0x24
 7158 138d 766D00   		.ascii	"vm\000"
ARM GAS  C:\Users\164\AppData\Local\Temp\cc4PZf78.s 			page 172


 7159 1390 01       		.byte	0x1
 7160 1391 1802     		.2byte	0x218
 7161 1393 A2080000 		.4byte	0x8a2
 7162 1397 25       		.uleb128 0x25
 7163 1398 AE080000 		.4byte	.LASF93
 7164 139c 01       		.byte	0x1
 7165 139d 1802     		.2byte	0x218
 7166 139f E4000000 		.4byte	0xe4
 7167 13a3 25       		.uleb128 0x25
 7168 13a4 7B080000 		.4byte	.LASF29
 7169 13a8 01       		.byte	0x1
 7170 13a9 1802     		.2byte	0x218
 7171 13ab 84060000 		.4byte	0x684
 7172 13af 26       		.uleb128 0x26
 7173 13b0 726100   		.ascii	"ra\000"
 7174 13b3 01       		.byte	0x1
 7175 13b4 1A02     		.2byte	0x21a
 7176 13b6 9F000000 		.4byte	0x9f
 7177 13ba 26       		.uleb128 0x26
 7178 13bb 726200   		.ascii	"rb\000"
 7179 13be 01       		.byte	0x1
 7180 13bf 1B02     		.2byte	0x21b
 7181 13c1 9F000000 		.4byte	0x9f
 7182 13c5 26       		.uleb128 0x26
 7183 13c6 726300   		.ascii	"rc\000"
 7184 13c9 01       		.byte	0x1
 7185 13ca 1C02     		.2byte	0x21c
 7186 13cc 9F000000 		.4byte	0x9f
 7187 13d0 27       		.uleb128 0x27
 7188 13d1 6A040000 		.4byte	.LASF32
 7189 13d5 01       		.byte	0x1
 7190 13d6 1E02     		.2byte	0x21e
 7191 13d8 DC0A0000 		.4byte	0xadc
 7192 13dc 27       		.uleb128 0x27
 7193 13dd 12090000 		.4byte	.LASF194
 7194 13e1 01       		.byte	0x1
 7195 13e2 1F02     		.2byte	0x21f
 7196 13e4 84060000 		.4byte	0x684
 7197 13e8 00       		.byte	0
 7198 13e9 23       		.uleb128 0x23
 7199 13ea 13030000 		.4byte	.LASF196
 7200 13ee 01       		.byte	0x1
 7201 13ef 7002     		.2byte	0x270
 7202 13f1 9F000000 		.4byte	0x9f
 7203 13f5 03       		.byte	0x3
 7204 13f6 87140000 		.4byte	0x1487
 7205 13fa 24       		.uleb128 0x24
 7206 13fb 766D00   		.ascii	"vm\000"
 7207 13fe 01       		.byte	0x1
 7208 13ff 7002     		.2byte	0x270
 7209 1401 A2080000 		.4byte	0x8a2
 7210 1405 25       		.uleb128 0x25
 7211 1406 AE080000 		.4byte	.LASF93
 7212 140a 01       		.byte	0x1
 7213 140b 7002     		.2byte	0x270
 7214 140d E4000000 		.4byte	0xe4
 7215 1411 25       		.uleb128 0x25
ARM GAS  C:\Users\164\AppData\Local\Temp\cc4PZf78.s 			page 173


 7216 1412 7B080000 		.4byte	.LASF29
 7217 1416 01       		.byte	0x1
 7218 1417 7002     		.2byte	0x270
 7219 1419 84060000 		.4byte	0x684
 7220 141d 26       		.uleb128 0x26
 7221 141e 726100   		.ascii	"ra\000"
 7222 1421 01       		.byte	0x1
 7223 1422 7202     		.2byte	0x272
 7224 1424 9F000000 		.4byte	0x9f
 7225 1428 26       		.uleb128 0x26
 7226 1429 726200   		.ascii	"rb\000"
 7227 142c 01       		.byte	0x1
 7228 142d 7302     		.2byte	0x273
 7229 142f 9F000000 		.4byte	0x9f
 7230 1433 26       		.uleb128 0x26
 7231 1434 726300   		.ascii	"rc\000"
 7232 1437 01       		.byte	0x1
 7233 1438 7402     		.2byte	0x274
 7234 143a 9F000000 		.4byte	0x9f
 7235 143e 27       		.uleb128 0x27
 7236 143f 17070000 		.4byte	.LASF197
 7237 1443 01       		.byte	0x1
 7238 1444 7502     		.2byte	0x275
 7239 1446 3A050000 		.4byte	0x53a
 7240 144a 27       		.uleb128 0x27
 7241 144b 8C000000 		.4byte	.LASF198
 7242 144f 01       		.byte	0x1
 7243 1450 7802     		.2byte	0x278
 7244 1452 9F000000 		.4byte	0x9f
 7245 1456 27       		.uleb128 0x27
 7246 1457 F2080000 		.4byte	.LASF185
 7247 145b 01       		.byte	0x1
 7248 145c 8E02     		.2byte	0x28e
 7249 145e 06010000 		.4byte	0x106
 7250 1462 27       		.uleb128 0x27
 7251 1463 E0000000 		.4byte	.LASF63
 7252 1467 01       		.byte	0x1
 7253 1468 8F02     		.2byte	0x28f
 7254 146a 11010000 		.4byte	0x111
 7255 146e 26       		.uleb128 0x26
 7256 146f 6D00     		.ascii	"m\000"
 7257 1471 01       		.byte	0x1
 7258 1472 9002     		.2byte	0x290
 7259 1474 87140000 		.4byte	0x1487
 7260 1478 28       		.uleb128 0x28
 7261 1479 27       		.uleb128 0x27
 7262 147a FA000000 		.4byte	.LASF199
 7263 147e 01       		.byte	0x1
 7264 147f 9B02     		.2byte	0x29b
 7265 1481 9F000000 		.4byte	0x9f
 7266 1485 00       		.byte	0
 7267 1486 00       		.byte	0
 7268 1487 06       		.uleb128 0x6
 7269 1488 04       		.byte	0x4
 7270 1489 08060000 		.4byte	0x608
 7271 148d 23       		.uleb128 0x23
 7272 148e FB050000 		.4byte	.LASF200
ARM GAS  C:\Users\164\AppData\Local\Temp\cc4PZf78.s 			page 174


 7273 1492 01       		.byte	0x1
 7274 1493 ED02     		.2byte	0x2ed
 7275 1495 9F000000 		.4byte	0x9f
 7276 1499 03       		.byte	0x3
 7277 149a EF140000 		.4byte	0x14ef
 7278 149e 24       		.uleb128 0x24
 7279 149f 766D00   		.ascii	"vm\000"
 7280 14a2 01       		.byte	0x1
 7281 14a3 ED02     		.2byte	0x2ed
 7282 14a5 A2080000 		.4byte	0x8a2
 7283 14a9 25       		.uleb128 0x25
 7284 14aa AE080000 		.4byte	.LASF93
 7285 14ae 01       		.byte	0x1
 7286 14af ED02     		.2byte	0x2ed
 7287 14b1 E4000000 		.4byte	0xe4
 7288 14b5 25       		.uleb128 0x25
 7289 14b6 7B080000 		.4byte	.LASF29
 7290 14ba 01       		.byte	0x1
 7291 14bb ED02     		.2byte	0x2ed
 7292 14bd 84060000 		.4byte	0x684
 7293 14c1 26       		.uleb128 0x26
 7294 14c2 726100   		.ascii	"ra\000"
 7295 14c5 01       		.byte	0x1
 7296 14c6 F002     		.2byte	0x2f0
 7297 14c8 9F000000 		.4byte	0x9f
 7298 14cc 26       		.uleb128 0x26
 7299 14cd 7600     		.ascii	"v\000"
 7300 14cf 01       		.byte	0x1
 7301 14d0 F202     		.2byte	0x2f2
 7302 14d2 3A050000 		.4byte	0x53a
 7303 14d6 27       		.uleb128 0x27
 7304 14d7 6A040000 		.4byte	.LASF32
 7305 14db 01       		.byte	0x1
 7306 14dc F902     		.2byte	0x2f9
 7307 14de DC0A0000 		.4byte	0xadc
 7308 14e2 27       		.uleb128 0x27
 7309 14e3 F1000000 		.4byte	.LASF201
 7310 14e7 01       		.byte	0x1
 7311 14e8 FA02     		.2byte	0x2fa
 7312 14ea 84060000 		.4byte	0x684
 7313 14ee 00       		.byte	0
 7314 14ef 23       		.uleb128 0x23
 7315 14f0 05060000 		.4byte	.LASF202
 7316 14f4 01       		.byte	0x1
 7317 14f5 1503     		.2byte	0x315
 7318 14f7 9F000000 		.4byte	0x9f
 7319 14fb 03       		.byte	0x3
 7320 14fc 3B150000 		.4byte	0x153b
 7321 1500 24       		.uleb128 0x24
 7322 1501 766D00   		.ascii	"vm\000"
 7323 1504 01       		.byte	0x1
 7324 1505 1503     		.2byte	0x315
 7325 1507 A2080000 		.4byte	0x8a2
 7326 150b 25       		.uleb128 0x25
 7327 150c AE080000 		.4byte	.LASF93
 7328 1510 01       		.byte	0x1
 7329 1511 1503     		.2byte	0x315
ARM GAS  C:\Users\164\AppData\Local\Temp\cc4PZf78.s 			page 175


 7330 1513 E4000000 		.4byte	0xe4
 7331 1517 25       		.uleb128 0x25
 7332 1518 7B080000 		.4byte	.LASF29
 7333 151c 01       		.byte	0x1
 7334 151d 1503     		.2byte	0x315
 7335 151f 84060000 		.4byte	0x684
 7336 1523 26       		.uleb128 0x26
 7337 1524 726100   		.ascii	"ra\000"
 7338 1527 01       		.byte	0x1
 7339 1528 1703     		.2byte	0x317
 7340 152a 9F000000 		.4byte	0x9f
 7341 152e 27       		.uleb128 0x27
 7342 152f E9050000 		.4byte	.LASF203
 7343 1533 01       		.byte	0x1
 7344 1534 1903     		.2byte	0x319
 7345 1536 84060000 		.4byte	0x684
 7346 153a 00       		.byte	0
 7347 153b 23       		.uleb128 0x23
 7348 153c 94090000 		.4byte	.LASF204
 7349 1540 01       		.byte	0x1
 7350 1541 3303     		.2byte	0x333
 7351 1543 9F000000 		.4byte	0x9f
 7352 1547 03       		.byte	0x3
 7353 1548 7B150000 		.4byte	0x157b
 7354 154c 24       		.uleb128 0x24
 7355 154d 766D00   		.ascii	"vm\000"
 7356 1550 01       		.byte	0x1
 7357 1551 3303     		.2byte	0x333
 7358 1553 A2080000 		.4byte	0x8a2
 7359 1557 25       		.uleb128 0x25
 7360 1558 AE080000 		.4byte	.LASF93
 7361 155c 01       		.byte	0x1
 7362 155d 3303     		.2byte	0x333
 7363 155f E4000000 		.4byte	0xe4
 7364 1563 25       		.uleb128 0x25
 7365 1564 7B080000 		.4byte	.LASF29
 7366 1568 01       		.byte	0x1
 7367 1569 3303     		.2byte	0x333
 7368 156b 84060000 		.4byte	0x684
 7369 156f 26       		.uleb128 0x26
 7370 1570 726100   		.ascii	"ra\000"
 7371 1573 01       		.byte	0x1
 7372 1574 3503     		.2byte	0x335
 7373 1576 9F000000 		.4byte	0x9f
 7374 157a 00       		.byte	0
 7375 157b 23       		.uleb128 0x23
 7376 157c D0060000 		.4byte	.LASF205
 7377 1580 01       		.byte	0x1
 7378 1581 6003     		.2byte	0x360
 7379 1583 9F000000 		.4byte	0x9f
 7380 1587 03       		.byte	0x3
 7381 1588 BB150000 		.4byte	0x15bb
 7382 158c 24       		.uleb128 0x24
 7383 158d 766D00   		.ascii	"vm\000"
 7384 1590 01       		.byte	0x1
 7385 1591 6003     		.2byte	0x360
 7386 1593 A2080000 		.4byte	0x8a2
ARM GAS  C:\Users\164\AppData\Local\Temp\cc4PZf78.s 			page 176


 7387 1597 25       		.uleb128 0x25
 7388 1598 AE080000 		.4byte	.LASF93
 7389 159c 01       		.byte	0x1
 7390 159d 6003     		.2byte	0x360
 7391 159f E4000000 		.4byte	0xe4
 7392 15a3 25       		.uleb128 0x25
 7393 15a4 7B080000 		.4byte	.LASF29
 7394 15a8 01       		.byte	0x1
 7395 15a9 6003     		.2byte	0x360
 7396 15ab 84060000 		.4byte	0x684
 7397 15af 26       		.uleb128 0x26
 7398 15b0 726100   		.ascii	"ra\000"
 7399 15b3 01       		.byte	0x1
 7400 15b4 6203     		.2byte	0x362
 7401 15b6 9F000000 		.4byte	0x9f
 7402 15ba 00       		.byte	0
 7403 15bb 23       		.uleb128 0x23
 7404 15bc 53000000 		.4byte	.LASF206
 7405 15c0 01       		.byte	0x1
 7406 15c1 8003     		.2byte	0x380
 7407 15c3 9F000000 		.4byte	0x9f
 7408 15c7 03       		.byte	0x3
 7409 15c8 FB150000 		.4byte	0x15fb
 7410 15cc 24       		.uleb128 0x24
 7411 15cd 766D00   		.ascii	"vm\000"
 7412 15d0 01       		.byte	0x1
 7413 15d1 8003     		.2byte	0x380
 7414 15d3 A2080000 		.4byte	0x8a2
 7415 15d7 25       		.uleb128 0x25
 7416 15d8 AE080000 		.4byte	.LASF93
 7417 15dc 01       		.byte	0x1
 7418 15dd 8003     		.2byte	0x380
 7419 15df E4000000 		.4byte	0xe4
 7420 15e3 25       		.uleb128 0x25
 7421 15e4 7B080000 		.4byte	.LASF29
 7422 15e8 01       		.byte	0x1
 7423 15e9 8003     		.2byte	0x380
 7424 15eb 84060000 		.4byte	0x684
 7425 15ef 26       		.uleb128 0x26
 7426 15f0 726100   		.ascii	"ra\000"
 7427 15f3 01       		.byte	0x1
 7428 15f4 8203     		.2byte	0x382
 7429 15f6 9F000000 		.4byte	0x9f
 7430 15fa 00       		.byte	0
 7431 15fb 23       		.uleb128 0x23
 7432 15fc D8000000 		.4byte	.LASF207
 7433 1600 01       		.byte	0x1
 7434 1601 AE03     		.2byte	0x3ae
 7435 1603 9F000000 		.4byte	0x9f
 7436 1607 03       		.byte	0x3
 7437 1608 3B160000 		.4byte	0x163b
 7438 160c 24       		.uleb128 0x24
 7439 160d 766D00   		.ascii	"vm\000"
 7440 1610 01       		.byte	0x1
 7441 1611 AE03     		.2byte	0x3ae
 7442 1613 A2080000 		.4byte	0x8a2
 7443 1617 25       		.uleb128 0x25
ARM GAS  C:\Users\164\AppData\Local\Temp\cc4PZf78.s 			page 177


 7444 1618 AE080000 		.4byte	.LASF93
 7445 161c 01       		.byte	0x1
 7446 161d AE03     		.2byte	0x3ae
 7447 161f E4000000 		.4byte	0xe4
 7448 1623 25       		.uleb128 0x25
 7449 1624 7B080000 		.4byte	.LASF29
 7450 1628 01       		.byte	0x1
 7451 1629 AE03     		.2byte	0x3ae
 7452 162b 84060000 		.4byte	0x684
 7453 162f 26       		.uleb128 0x26
 7454 1630 726100   		.ascii	"ra\000"
 7455 1633 01       		.byte	0x1
 7456 1634 B003     		.2byte	0x3b0
 7457 1636 9F000000 		.4byte	0x9f
 7458 163a 00       		.byte	0
 7459 163b 23       		.uleb128 0x23
 7460 163c 1B030000 		.4byte	.LASF208
 7461 1640 01       		.byte	0x1
 7462 1641 CE03     		.2byte	0x3ce
 7463 1643 9F000000 		.4byte	0x9f
 7464 1647 03       		.byte	0x3
 7465 1648 7B160000 		.4byte	0x167b
 7466 164c 24       		.uleb128 0x24
 7467 164d 766D00   		.ascii	"vm\000"
 7468 1650 01       		.byte	0x1
 7469 1651 CE03     		.2byte	0x3ce
 7470 1653 A2080000 		.4byte	0x8a2
 7471 1657 25       		.uleb128 0x25
 7472 1658 AE080000 		.4byte	.LASF93
 7473 165c 01       		.byte	0x1
 7474 165d CE03     		.2byte	0x3ce
 7475 165f E4000000 		.4byte	0xe4
 7476 1663 25       		.uleb128 0x25
 7477 1664 7B080000 		.4byte	.LASF29
 7478 1668 01       		.byte	0x1
 7479 1669 CE03     		.2byte	0x3ce
 7480 166b 84060000 		.4byte	0x684
 7481 166f 26       		.uleb128 0x26
 7482 1670 726100   		.ascii	"ra\000"
 7483 1673 01       		.byte	0x1
 7484 1674 D003     		.2byte	0x3d0
 7485 1676 9F000000 		.4byte	0x9f
 7486 167a 00       		.byte	0
 7487 167b 23       		.uleb128 0x23
 7488 167c 10070000 		.4byte	.LASF209
 7489 1680 01       		.byte	0x1
 7490 1681 FC03     		.2byte	0x3fc
 7491 1683 9F000000 		.4byte	0x9f
 7492 1687 03       		.byte	0x3
 7493 1688 BB160000 		.4byte	0x16bb
 7494 168c 24       		.uleb128 0x24
 7495 168d 766D00   		.ascii	"vm\000"
 7496 1690 01       		.byte	0x1
 7497 1691 FC03     		.2byte	0x3fc
 7498 1693 A2080000 		.4byte	0x8a2
 7499 1697 25       		.uleb128 0x25
 7500 1698 AE080000 		.4byte	.LASF93
ARM GAS  C:\Users\164\AppData\Local\Temp\cc4PZf78.s 			page 178


 7501 169c 01       		.byte	0x1
 7502 169d FC03     		.2byte	0x3fc
 7503 169f E4000000 		.4byte	0xe4
 7504 16a3 25       		.uleb128 0x25
 7505 16a4 7B080000 		.4byte	.LASF29
 7506 16a8 01       		.byte	0x1
 7507 16a9 FC03     		.2byte	0x3fc
 7508 16ab 84060000 		.4byte	0x684
 7509 16af 26       		.uleb128 0x26
 7510 16b0 726100   		.ascii	"ra\000"
 7511 16b3 01       		.byte	0x1
 7512 16b4 FE03     		.2byte	0x3fe
 7513 16b6 9F000000 		.4byte	0x9f
 7514 16ba 00       		.byte	0
 7515 16bb 23       		.uleb128 0x23
 7516 16bc 61050000 		.4byte	.LASF210
 7517 16c0 01       		.byte	0x1
 7518 16c1 2A04     		.2byte	0x42a
 7519 16c3 9F000000 		.4byte	0x9f
 7520 16c7 03       		.byte	0x3
 7521 16c8 07170000 		.4byte	0x1707
 7522 16cc 24       		.uleb128 0x24
 7523 16cd 766D00   		.ascii	"vm\000"
 7524 16d0 01       		.byte	0x1
 7525 16d1 2A04     		.2byte	0x42a
 7526 16d3 A2080000 		.4byte	0x8a2
 7527 16d7 25       		.uleb128 0x25
 7528 16d8 AE080000 		.4byte	.LASF93
 7529 16dc 01       		.byte	0x1
 7530 16dd 2A04     		.2byte	0x42a
 7531 16df E4000000 		.4byte	0xe4
 7532 16e3 25       		.uleb128 0x25
 7533 16e4 7B080000 		.4byte	.LASF29
 7534 16e8 01       		.byte	0x1
 7535 16e9 2A04     		.2byte	0x42a
 7536 16eb 84060000 		.4byte	0x684
 7537 16ef 26       		.uleb128 0x26
 7538 16f0 726100   		.ascii	"ra\000"
 7539 16f3 01       		.byte	0x1
 7540 16f4 2C04     		.2byte	0x42c
 7541 16f6 9F000000 		.4byte	0x9f
 7542 16fa 27       		.uleb128 0x27
 7543 16fb 87010000 		.4byte	.LASF211
 7544 16ff 01       		.byte	0x1
 7545 1700 2D04     		.2byte	0x42d
 7546 1702 9F000000 		.4byte	0x9f
 7547 1706 00       		.byte	0
 7548 1707 23       		.uleb128 0x23
 7549 1708 B4070000 		.4byte	.LASF212
 7550 170c 01       		.byte	0x1
 7551 170d 4204     		.2byte	0x442
 7552 170f 9F000000 		.4byte	0x9f
 7553 1713 03       		.byte	0x3
 7554 1714 5B170000 		.4byte	0x175b
 7555 1718 24       		.uleb128 0x24
 7556 1719 766D00   		.ascii	"vm\000"
 7557 171c 01       		.byte	0x1
ARM GAS  C:\Users\164\AppData\Local\Temp\cc4PZf78.s 			page 179


 7558 171d 4204     		.2byte	0x442
 7559 171f A2080000 		.4byte	0x8a2
 7560 1723 25       		.uleb128 0x25
 7561 1724 AE080000 		.4byte	.LASF93
 7562 1728 01       		.byte	0x1
 7563 1729 4204     		.2byte	0x442
 7564 172b E4000000 		.4byte	0xe4
 7565 172f 25       		.uleb128 0x25
 7566 1730 7B080000 		.4byte	.LASF29
 7567 1734 01       		.byte	0x1
 7568 1735 4204     		.2byte	0x442
 7569 1737 84060000 		.4byte	0x684
 7570 173b 26       		.uleb128 0x26
 7571 173c 726100   		.ascii	"ra\000"
 7572 173f 01       		.byte	0x1
 7573 1740 4404     		.2byte	0x444
 7574 1742 9F000000 		.4byte	0x9f
 7575 1746 27       		.uleb128 0x27
 7576 1747 87010000 		.4byte	.LASF211
 7577 174b 01       		.byte	0x1
 7578 174c 4504     		.2byte	0x445
 7579 174e 9F000000 		.4byte	0x9f
 7580 1752 44       		.uleb128 0x44
 7581 1753 570A0000 		.4byte	.LASF214
 7582 1757 01       		.byte	0x1
 7583 1758 6304     		.2byte	0x463
 7584 175a 00       		.byte	0
 7585 175b 23       		.uleb128 0x23
 7586 175c 92070000 		.4byte	.LASF213
 7587 1760 01       		.byte	0x1
 7588 1761 7404     		.2byte	0x474
 7589 1763 9F000000 		.4byte	0x9f
 7590 1767 03       		.byte	0x3
 7591 1768 AF170000 		.4byte	0x17af
 7592 176c 24       		.uleb128 0x24
 7593 176d 766D00   		.ascii	"vm\000"
 7594 1770 01       		.byte	0x1
 7595 1771 7404     		.2byte	0x474
 7596 1773 A2080000 		.4byte	0x8a2
 7597 1777 25       		.uleb128 0x25
 7598 1778 AE080000 		.4byte	.LASF93
 7599 177c 01       		.byte	0x1
 7600 177d 7404     		.2byte	0x474
 7601 177f E4000000 		.4byte	0xe4
 7602 1783 25       		.uleb128 0x25
 7603 1784 7B080000 		.4byte	.LASF29
 7604 1788 01       		.byte	0x1
 7605 1789 7404     		.2byte	0x474
 7606 178b 84060000 		.4byte	0x684
 7607 178f 26       		.uleb128 0x26
 7608 1790 726100   		.ascii	"ra\000"
 7609 1793 01       		.byte	0x1
 7610 1794 7604     		.2byte	0x476
 7611 1796 9F000000 		.4byte	0x9f
 7612 179a 27       		.uleb128 0x27
 7613 179b 87010000 		.4byte	.LASF211
 7614 179f 01       		.byte	0x1
ARM GAS  C:\Users\164\AppData\Local\Temp\cc4PZf78.s 			page 180


 7615 17a0 7704     		.2byte	0x477
 7616 17a2 9F000000 		.4byte	0x9f
 7617 17a6 44       		.uleb128 0x44
 7618 17a7 570A0000 		.4byte	.LASF214
 7619 17ab 01       		.byte	0x1
 7620 17ac 9504     		.2byte	0x495
 7621 17ae 00       		.byte	0
 7622 17af 23       		.uleb128 0x23
 7623 17b0 F5050000 		.4byte	.LASF215
 7624 17b4 01       		.byte	0x1
 7625 17b5 A604     		.2byte	0x4a6
 7626 17b7 9F000000 		.4byte	0x9f
 7627 17bb 03       		.byte	0x3
 7628 17bc 03180000 		.4byte	0x1803
 7629 17c0 24       		.uleb128 0x24
 7630 17c1 766D00   		.ascii	"vm\000"
 7631 17c4 01       		.byte	0x1
 7632 17c5 A604     		.2byte	0x4a6
 7633 17c7 A2080000 		.4byte	0x8a2
 7634 17cb 25       		.uleb128 0x25
 7635 17cc AE080000 		.4byte	.LASF93
 7636 17d0 01       		.byte	0x1
 7637 17d1 A604     		.2byte	0x4a6
 7638 17d3 E4000000 		.4byte	0xe4
 7639 17d7 25       		.uleb128 0x25
 7640 17d8 7B080000 		.4byte	.LASF29
 7641 17dc 01       		.byte	0x1
 7642 17dd A604     		.2byte	0x4a6
 7643 17df 84060000 		.4byte	0x684
 7644 17e3 26       		.uleb128 0x26
 7645 17e4 726100   		.ascii	"ra\000"
 7646 17e7 01       		.byte	0x1
 7647 17e8 A804     		.2byte	0x4a8
 7648 17ea 9F000000 		.4byte	0x9f
 7649 17ee 27       		.uleb128 0x27
 7650 17ef 87010000 		.4byte	.LASF211
 7651 17f3 01       		.byte	0x1
 7652 17f4 A904     		.2byte	0x4a9
 7653 17f6 9F000000 		.4byte	0x9f
 7654 17fa 44       		.uleb128 0x44
 7655 17fb 570A0000 		.4byte	.LASF214
 7656 17ff 01       		.byte	0x1
 7657 1800 C704     		.2byte	0x4c7
 7658 1802 00       		.byte	0
 7659 1803 23       		.uleb128 0x23
 7660 1804 EF050000 		.4byte	.LASF216
 7661 1808 01       		.byte	0x1
 7662 1809 D804     		.2byte	0x4d8
 7663 180b 9F000000 		.4byte	0x9f
 7664 180f 03       		.byte	0x3
 7665 1810 57180000 		.4byte	0x1857
 7666 1814 24       		.uleb128 0x24
 7667 1815 766D00   		.ascii	"vm\000"
 7668 1818 01       		.byte	0x1
 7669 1819 D804     		.2byte	0x4d8
 7670 181b A2080000 		.4byte	0x8a2
 7671 181f 25       		.uleb128 0x25
ARM GAS  C:\Users\164\AppData\Local\Temp\cc4PZf78.s 			page 181


 7672 1820 AE080000 		.4byte	.LASF93
 7673 1824 01       		.byte	0x1
 7674 1825 D804     		.2byte	0x4d8
 7675 1827 E4000000 		.4byte	0xe4
 7676 182b 25       		.uleb128 0x25
 7677 182c 7B080000 		.4byte	.LASF29
 7678 1830 01       		.byte	0x1
 7679 1831 D804     		.2byte	0x4d8
 7680 1833 84060000 		.4byte	0x684
 7681 1837 26       		.uleb128 0x26
 7682 1838 726100   		.ascii	"ra\000"
 7683 183b 01       		.byte	0x1
 7684 183c DA04     		.2byte	0x4da
 7685 183e 9F000000 		.4byte	0x9f
 7686 1842 27       		.uleb128 0x27
 7687 1843 87010000 		.4byte	.LASF211
 7688 1847 01       		.byte	0x1
 7689 1848 DB04     		.2byte	0x4db
 7690 184a 9F000000 		.4byte	0x9f
 7691 184e 44       		.uleb128 0x44
 7692 184f 570A0000 		.4byte	.LASF214
 7693 1853 01       		.byte	0x1
 7694 1854 F904     		.2byte	0x4f9
 7695 1856 00       		.byte	0
 7696 1857 23       		.uleb128 0x23
 7697 1858 2B0B0000 		.4byte	.LASF217
 7698 185c 01       		.byte	0x1
 7699 185d 0A05     		.2byte	0x50a
 7700 185f 9F000000 		.4byte	0x9f
 7701 1863 03       		.byte	0x3
 7702 1864 B9180000 		.4byte	0x18b9
 7703 1868 24       		.uleb128 0x24
 7704 1869 766D00   		.ascii	"vm\000"
 7705 186c 01       		.byte	0x1
 7706 186d 0A05     		.2byte	0x50a
 7707 186f A2080000 		.4byte	0x8a2
 7708 1873 25       		.uleb128 0x25
 7709 1874 AE080000 		.4byte	.LASF93
 7710 1878 01       		.byte	0x1
 7711 1879 0A05     		.2byte	0x50a
 7712 187b E4000000 		.4byte	0xe4
 7713 187f 25       		.uleb128 0x25
 7714 1880 7B080000 		.4byte	.LASF29
 7715 1884 01       		.byte	0x1
 7716 1885 0A05     		.2byte	0x50a
 7717 1887 84060000 		.4byte	0x684
 7718 188b 26       		.uleb128 0x26
 7719 188c 726100   		.ascii	"ra\000"
 7720 188f 01       		.byte	0x1
 7721 1890 0C05     		.2byte	0x50c
 7722 1892 9F000000 		.4byte	0x9f
 7723 1896 26       		.uleb128 0x26
 7724 1897 726200   		.ascii	"rb\000"
 7725 189a 01       		.byte	0x1
 7726 189b 0D05     		.2byte	0x50d
 7727 189d 9F000000 		.4byte	0x9f
 7728 18a1 26       		.uleb128 0x26
ARM GAS  C:\Users\164\AppData\Local\Temp\cc4PZf78.s 			page 182


 7729 18a2 726300   		.ascii	"rc\000"
 7730 18a5 01       		.byte	0x1
 7731 18a6 0E05     		.2byte	0x50e
 7732 18a8 9F000000 		.4byte	0x9f
 7733 18ac 27       		.uleb128 0x27
 7734 18ad 60030000 		.4byte	.LASF218
 7735 18b1 01       		.byte	0x1
 7736 18b2 1005     		.2byte	0x510
 7737 18b4 3A050000 		.4byte	0x53a
 7738 18b8 00       		.byte	0
 7739 18b9 23       		.uleb128 0x23
 7740 18ba 50030000 		.4byte	.LASF219
 7741 18be 01       		.byte	0x1
 7742 18bf 2905     		.2byte	0x529
 7743 18c1 9F000000 		.4byte	0x9f
 7744 18c5 03       		.byte	0x3
 7745 18c6 28190000 		.4byte	0x1928
 7746 18ca 24       		.uleb128 0x24
 7747 18cb 766D00   		.ascii	"vm\000"
 7748 18ce 01       		.byte	0x1
 7749 18cf 2905     		.2byte	0x529
 7750 18d1 A2080000 		.4byte	0x8a2
 7751 18d5 25       		.uleb128 0x25
 7752 18d6 AE080000 		.4byte	.LASF93
 7753 18da 01       		.byte	0x1
 7754 18db 2905     		.2byte	0x529
 7755 18dd E4000000 		.4byte	0xe4
 7756 18e1 25       		.uleb128 0x25
 7757 18e2 7B080000 		.4byte	.LASF29
 7758 18e6 01       		.byte	0x1
 7759 18e7 2905     		.2byte	0x529
 7760 18e9 84060000 		.4byte	0x684
 7761 18ed 26       		.uleb128 0x26
 7762 18ee 726100   		.ascii	"ra\000"
 7763 18f1 01       		.byte	0x1
 7764 18f2 2C05     		.2byte	0x52c
 7765 18f4 9F000000 		.4byte	0x9f
 7766 18f8 26       		.uleb128 0x26
 7767 18f9 726200   		.ascii	"rb\000"
 7768 18fc 01       		.byte	0x1
 7769 18fd 2D05     		.2byte	0x52d
 7770 18ff 9F000000 		.4byte	0x9f
 7771 1903 27       		.uleb128 0x27
 7772 1904 9F050000 		.4byte	.LASF183
 7773 1908 01       		.byte	0x1
 7774 1909 2E05     		.2byte	0x52e
 7775 190b 1F060000 		.4byte	0x61f
 7776 190f 26       		.uleb128 0x26
 7777 1910 6C656E00 		.ascii	"len\000"
 7778 1914 01       		.byte	0x1
 7779 1915 3105     		.2byte	0x531
 7780 1917 9F000000 		.4byte	0x9f
 7781 191b 27       		.uleb128 0x27
 7782 191c 60030000 		.4byte	.LASF218
 7783 1920 01       		.byte	0x1
 7784 1921 3205     		.2byte	0x532
 7785 1923 3A050000 		.4byte	0x53a
ARM GAS  C:\Users\164\AppData\Local\Temp\cc4PZf78.s 			page 183


 7786 1927 00       		.byte	0
 7787 1928 23       		.uleb128 0x23
 7788 1929 06070000 		.4byte	.LASF220
 7789 192d 01       		.byte	0x1
 7790 192e 4A05     		.2byte	0x54a
 7791 1930 9F000000 		.4byte	0x9f
 7792 1934 03       		.byte	0x3
 7793 1935 93190000 		.4byte	0x1993
 7794 1939 24       		.uleb128 0x24
 7795 193a 766D00   		.ascii	"vm\000"
 7796 193d 01       		.byte	0x1
 7797 193e 4A05     		.2byte	0x54a
 7798 1940 A2080000 		.4byte	0x8a2
 7799 1944 25       		.uleb128 0x25
 7800 1945 AE080000 		.4byte	.LASF93
 7801 1949 01       		.byte	0x1
 7802 194a 4A05     		.2byte	0x54a
 7803 194c E4000000 		.4byte	0xe4
 7804 1950 25       		.uleb128 0x25
 7805 1951 7B080000 		.4byte	.LASF29
 7806 1955 01       		.byte	0x1
 7807 1956 4A05     		.2byte	0x54a
 7808 1958 84060000 		.4byte	0x684
 7809 195c 26       		.uleb128 0x26
 7810 195d 726100   		.ascii	"ra\000"
 7811 1960 01       		.byte	0x1
 7812 1961 4D05     		.2byte	0x54d
 7813 1963 9F000000 		.4byte	0x9f
 7814 1967 26       		.uleb128 0x26
 7815 1968 726200   		.ascii	"rb\000"
 7816 196b 01       		.byte	0x1
 7817 196c 4E05     		.2byte	0x54e
 7818 196e 9F000000 		.4byte	0x9f
 7819 1972 27       		.uleb128 0x27
 7820 1973 E0000000 		.4byte	.LASF63
 7821 1977 01       		.byte	0x1
 7822 1978 5105     		.2byte	0x551
 7823 197a 11010000 		.4byte	0x111
 7824 197e 26       		.uleb128 0x26
 7825 197f 6D00     		.ascii	"m\000"
 7826 1981 01       		.byte	0x1
 7827 1982 5205     		.2byte	0x552
 7828 1984 87140000 		.4byte	0x1487
 7829 1988 26       		.uleb128 0x26
 7830 1989 7600     		.ascii	"v\000"
 7831 198b 01       		.byte	0x1
 7832 198c 5C05     		.2byte	0x55c
 7833 198e 3A050000 		.4byte	0x53a
 7834 1992 00       		.byte	0
 7835 1993 23       		.uleb128 0x23
 7836 1994 F60A0000 		.4byte	.LASF221
 7837 1998 01       		.byte	0x1
 7838 1999 7405     		.2byte	0x574
 7839 199b 9F000000 		.4byte	0x9f
 7840 199f 03       		.byte	0x3
 7841 19a0 EA190000 		.4byte	0x19ea
 7842 19a4 24       		.uleb128 0x24
ARM GAS  C:\Users\164\AppData\Local\Temp\cc4PZf78.s 			page 184


 7843 19a5 766D00   		.ascii	"vm\000"
 7844 19a8 01       		.byte	0x1
 7845 19a9 7405     		.2byte	0x574
 7846 19ab A2080000 		.4byte	0x8a2
 7847 19af 25       		.uleb128 0x25
 7848 19b0 AE080000 		.4byte	.LASF93
 7849 19b4 01       		.byte	0x1
 7850 19b5 7405     		.2byte	0x574
 7851 19b7 E4000000 		.4byte	0xe4
 7852 19bb 25       		.uleb128 0x25
 7853 19bc 7B080000 		.4byte	.LASF29
 7854 19c0 01       		.byte	0x1
 7855 19c1 7405     		.2byte	0x574
 7856 19c3 84060000 		.4byte	0x684
 7857 19c7 26       		.uleb128 0x26
 7858 19c8 726100   		.ascii	"ra\000"
 7859 19cb 01       		.byte	0x1
 7860 19cc 7605     		.2byte	0x576
 7861 19ce 9F000000 		.4byte	0x9f
 7862 19d2 26       		.uleb128 0x26
 7863 19d3 726200   		.ascii	"rb\000"
 7864 19d6 01       		.byte	0x1
 7865 19d7 7705     		.2byte	0x577
 7866 19d9 9F000000 		.4byte	0x9f
 7867 19dd 27       		.uleb128 0x27
 7868 19de D7030000 		.4byte	.LASF56
 7869 19e2 01       		.byte	0x1
 7870 19e3 7905     		.2byte	0x579
 7871 19e5 87140000 		.4byte	0x1487
 7872 19e9 00       		.byte	0
 7873 19ea 23       		.uleb128 0x23
 7874 19eb 7D050000 		.4byte	.LASF222
 7875 19ef 01       		.byte	0x1
 7876 19f0 9105     		.2byte	0x591
 7877 19f2 9F000000 		.4byte	0x9f
 7878 19f6 03       		.byte	0x3
 7879 19f7 4C1A0000 		.4byte	0x1a4c
 7880 19fb 24       		.uleb128 0x24
 7881 19fc 766D00   		.ascii	"vm\000"
 7882 19ff 01       		.byte	0x1
 7883 1a00 9105     		.2byte	0x591
 7884 1a02 A2080000 		.4byte	0x8a2
 7885 1a06 25       		.uleb128 0x25
 7886 1a07 AE080000 		.4byte	.LASF93
 7887 1a0b 01       		.byte	0x1
 7888 1a0c 9105     		.2byte	0x591
 7889 1a0e E4000000 		.4byte	0xe4
 7890 1a12 25       		.uleb128 0x25
 7891 1a13 7B080000 		.4byte	.LASF29
 7892 1a17 01       		.byte	0x1
 7893 1a18 9105     		.2byte	0x591
 7894 1a1a 84060000 		.4byte	0x684
 7895 1a1e 26       		.uleb128 0x26
 7896 1a1f 726100   		.ascii	"ra\000"
 7897 1a22 01       		.byte	0x1
 7898 1a23 9305     		.2byte	0x593
 7899 1a25 9F000000 		.4byte	0x9f
ARM GAS  C:\Users\164\AppData\Local\Temp\cc4PZf78.s 			page 185


 7900 1a29 26       		.uleb128 0x26
 7901 1a2a 726200   		.ascii	"rb\000"
 7902 1a2d 01       		.byte	0x1
 7903 1a2e 9405     		.2byte	0x594
 7904 1a30 9F000000 		.4byte	0x9f
 7905 1a34 26       		.uleb128 0x26
 7906 1a35 726300   		.ascii	"rc\000"
 7907 1a38 01       		.byte	0x1
 7908 1a39 9505     		.2byte	0x595
 7909 1a3b 9F000000 		.4byte	0x9f
 7910 1a3f 27       		.uleb128 0x27
 7911 1a40 60030000 		.4byte	.LASF218
 7912 1a44 01       		.byte	0x1
 7913 1a45 9A05     		.2byte	0x59a
 7914 1a47 3A050000 		.4byte	0x53a
 7915 1a4b 00       		.byte	0
 7916 1a4c 23       		.uleb128 0x23
 7917 1a4d 41090000 		.4byte	.LASF223
 7918 1a51 01       		.byte	0x1
 7919 1a52 B105     		.2byte	0x5b1
 7920 1a54 9F000000 		.4byte	0x9f
 7921 1a58 03       		.byte	0x3
 7922 1a59 D31A0000 		.4byte	0x1ad3
 7923 1a5d 24       		.uleb128 0x24
 7924 1a5e 766D00   		.ascii	"vm\000"
 7925 1a61 01       		.byte	0x1
 7926 1a62 B105     		.2byte	0x5b1
 7927 1a64 A2080000 		.4byte	0x8a2
 7928 1a68 25       		.uleb128 0x25
 7929 1a69 AE080000 		.4byte	.LASF93
 7930 1a6d 01       		.byte	0x1
 7931 1a6e B105     		.2byte	0x5b1
 7932 1a70 E4000000 		.4byte	0xe4
 7933 1a74 25       		.uleb128 0x25
 7934 1a75 7B080000 		.4byte	.LASF29
 7935 1a79 01       		.byte	0x1
 7936 1a7a B105     		.2byte	0x5b1
 7937 1a7c 84060000 		.4byte	0x684
 7938 1a80 26       		.uleb128 0x26
 7939 1a81 726100   		.ascii	"ra\000"
 7940 1a84 01       		.byte	0x1
 7941 1a85 B305     		.2byte	0x5b3
 7942 1a87 9F000000 		.4byte	0x9f
 7943 1a8b 26       		.uleb128 0x26
 7944 1a8c 726200   		.ascii	"rb\000"
 7945 1a8f 01       		.byte	0x1
 7946 1a90 B405     		.2byte	0x5b4
 7947 1a92 9F000000 		.4byte	0x9f
 7948 1a96 27       		.uleb128 0x27
 7949 1a97 B3020000 		.4byte	.LASF224
 7950 1a9b 01       		.byte	0x1
 7951 1a9c B605     		.2byte	0x5b6
 7952 1a9e 7E060000 		.4byte	0x67e
 7953 1aa2 27       		.uleb128 0x27
 7954 1aa3 F2080000 		.4byte	.LASF185
 7955 1aa7 01       		.byte	0x1
 7956 1aa8 B705     		.2byte	0x5b7
ARM GAS  C:\Users\164\AppData\Local\Temp\cc4PZf78.s 			page 186


 7957 1aaa 06010000 		.4byte	0x106
 7958 1aae 27       		.uleb128 0x27
 7959 1aaf 56010000 		.4byte	.LASF64
 7960 1ab3 01       		.byte	0x1
 7961 1ab4 B805     		.2byte	0x5b8
 7962 1ab6 8A060000 		.4byte	0x68a
 7963 1aba 26       		.uleb128 0x26
 7964 1abb 636C7300 		.ascii	"cls\000"
 7965 1abf 01       		.byte	0x1
 7966 1ac0 BA05     		.2byte	0x5ba
 7967 1ac2 8A060000 		.4byte	0x68a
 7968 1ac6 26       		.uleb128 0x26
 7969 1ac7 72657400 		.ascii	"ret\000"
 7970 1acb 01       		.byte	0x1
 7971 1acc BC05     		.2byte	0x5bc
 7972 1ace 3A050000 		.4byte	0x53a
 7973 1ad2 00       		.byte	0
 7974 1ad3 23       		.uleb128 0x23
 7975 1ad4 F1070000 		.4byte	.LASF225
 7976 1ad8 01       		.byte	0x1
 7977 1ad9 D005     		.2byte	0x5d0
 7978 1adb 9F000000 		.4byte	0x9f
 7979 1adf 03       		.byte	0x3
 7980 1ae0 361B0000 		.4byte	0x1b36
 7981 1ae4 24       		.uleb128 0x24
 7982 1ae5 766D00   		.ascii	"vm\000"
 7983 1ae8 01       		.byte	0x1
 7984 1ae9 D005     		.2byte	0x5d0
 7985 1aeb A2080000 		.4byte	0x8a2
 7986 1aef 25       		.uleb128 0x25
 7987 1af0 AE080000 		.4byte	.LASF93
 7988 1af4 01       		.byte	0x1
 7989 1af5 D005     		.2byte	0x5d0
 7990 1af7 E4000000 		.4byte	0xe4
 7991 1afb 25       		.uleb128 0x25
 7992 1afc 7B080000 		.4byte	.LASF29
 7993 1b00 01       		.byte	0x1
 7994 1b01 D005     		.2byte	0x5d0
 7995 1b03 84060000 		.4byte	0x684
 7996 1b07 26       		.uleb128 0x26
 7997 1b08 726100   		.ascii	"ra\000"
 7998 1b0b 01       		.byte	0x1
 7999 1b0c D205     		.2byte	0x5d2
 8000 1b0e 9F000000 		.4byte	0x9f
 8001 1b12 26       		.uleb128 0x26
 8002 1b13 726200   		.ascii	"rb\000"
 8003 1b16 01       		.byte	0x1
 8004 1b17 D305     		.2byte	0x5d3
 8005 1b19 9F000000 		.4byte	0x9f
 8006 1b1d 27       		.uleb128 0x27
 8007 1b1e 17070000 		.4byte	.LASF197
 8008 1b22 01       		.byte	0x1
 8009 1b23 D505     		.2byte	0x5d5
 8010 1b25 3A050000 		.4byte	0x53a
 8011 1b29 27       		.uleb128 0x27
 8012 1b2a 6A040000 		.4byte	.LASF32
 8013 1b2e 01       		.byte	0x1
ARM GAS  C:\Users\164\AppData\Local\Temp\cc4PZf78.s 			page 187


 8014 1b2f D805     		.2byte	0x5d8
 8015 1b31 DC0A0000 		.4byte	0xadc
 8016 1b35 00       		.byte	0
 8017 1b36 23       		.uleb128 0x23
 8018 1b37 E7000000 		.4byte	.LASF226
 8019 1b3b 01       		.byte	0x1
 8020 1b3c F905     		.2byte	0x5f9
 8021 1b3e 9F000000 		.4byte	0x9f
 8022 1b42 03       		.byte	0x3
 8023 1b43 E01B0000 		.4byte	0x1be0
 8024 1b47 24       		.uleb128 0x24
 8025 1b48 766D00   		.ascii	"vm\000"
 8026 1b4b 01       		.byte	0x1
 8027 1b4c F905     		.2byte	0x5f9
 8028 1b4e A2080000 		.4byte	0x8a2
 8029 1b52 25       		.uleb128 0x25
 8030 1b53 AE080000 		.4byte	.LASF93
 8031 1b57 01       		.byte	0x1
 8032 1b58 F905     		.2byte	0x5f9
 8033 1b5a E4000000 		.4byte	0xe4
 8034 1b5e 25       		.uleb128 0x25
 8035 1b5f 7B080000 		.4byte	.LASF29
 8036 1b63 01       		.byte	0x1
 8037 1b64 F905     		.2byte	0x5f9
 8038 1b66 84060000 		.4byte	0x684
 8039 1b6a 26       		.uleb128 0x26
 8040 1b6b 726100   		.ascii	"ra\000"
 8041 1b6e 01       		.byte	0x1
 8042 1b6f FB05     		.2byte	0x5fb
 8043 1b71 9F000000 		.4byte	0x9f
 8044 1b75 26       		.uleb128 0x26
 8045 1b76 726200   		.ascii	"rb\000"
 8046 1b79 01       		.byte	0x1
 8047 1b7a FC05     		.2byte	0x5fc
 8048 1b7c 9F000000 		.4byte	0x9f
 8049 1b80 27       		.uleb128 0x27
 8050 1b81 D7030000 		.4byte	.LASF56
 8051 1b85 01       		.byte	0x1
 8052 1b86 FD05     		.2byte	0x5fd
 8053 1b88 87140000 		.4byte	0x1487
 8054 1b8c 28       		.uleb128 0x28
 8055 1b8d 26       		.uleb128 0x26
 8056 1b8e 636C7300 		.ascii	"cls\000"
 8057 1b92 01       		.byte	0x1
 8058 1b93 0006     		.2byte	0x600
 8059 1b95 8A060000 		.4byte	0x68a
 8060 1b99 27       		.uleb128 0x27
 8061 1b9a B3020000 		.4byte	.LASF224
 8062 1b9e 01       		.byte	0x1
 8063 1b9f 0306     		.2byte	0x603
 8064 1ba1 7E060000 		.4byte	0x67e
 8065 1ba5 27       		.uleb128 0x27
 8066 1ba6 F2080000 		.4byte	.LASF185
 8067 1baa 01       		.byte	0x1
 8068 1bab 0406     		.2byte	0x604
 8069 1bad 06010000 		.4byte	0x106
 8070 1bb1 27       		.uleb128 0x27
ARM GAS  C:\Users\164\AppData\Local\Temp\cc4PZf78.s 			page 188


 8071 1bb2 E0000000 		.4byte	.LASF63
 8072 1bb6 01       		.byte	0x1
 8073 1bb7 0506     		.2byte	0x605
 8074 1bb9 9F000000 		.4byte	0x9f
 8075 1bbd 26       		.uleb128 0x26
 8076 1bbe 7000     		.ascii	"p\000"
 8077 1bc0 01       		.byte	0x1
 8078 1bc1 0806     		.2byte	0x608
 8079 1bc3 87140000 		.4byte	0x1487
 8080 1bc7 26       		.uleb128 0x26
 8081 1bc8 707000   		.ascii	"pp\000"
 8082 1bcb 01       		.byte	0x1
 8083 1bcc 0906     		.2byte	0x609
 8084 1bce FD000000 		.4byte	0xfd
 8085 1bd2 28       		.uleb128 0x28
 8086 1bd3 26       		.uleb128 0x26
 8087 1bd4 7600     		.ascii	"v\000"
 8088 1bd6 01       		.byte	0x1
 8089 1bd7 1306     		.2byte	0x613
 8090 1bd9 3A050000 		.4byte	0x53a
 8091 1bdd 00       		.byte	0
 8092 1bde 00       		.byte	0
 8093 1bdf 00       		.byte	0
 8094 1be0 45       		.uleb128 0x45
 8095 1be1 50080000 		.4byte	.LASF227
 8096 1be5 01       		.byte	0x1
 8097 1be6 CC06     		.2byte	0x6cc
 8098 1be8 9F000000 		.4byte	0x9f
 8099 1bec 00000000 		.4byte	.LFB146
 8100 1bf0 04160000 		.4byte	.LFE146-.LFB146
 8101 1bf4 01       		.uleb128 0x1
 8102 1bf5 9C       		.byte	0x9c
 8103 1bf6 743E0000 		.4byte	0x3e74
 8104 1bfa 42       		.uleb128 0x42
 8105 1bfb 766D00   		.ascii	"vm\000"
 8106 1bfe 01       		.byte	0x1
 8107 1bff CC06     		.2byte	0x6cc
 8108 1c01 A2080000 		.4byte	0x8a2
 8109 1c05 51040000 		.4byte	.LLST24
 8110 1c09 3C       		.uleb128 0x3c
 8111 1c0a 72657400 		.ascii	"ret\000"
 8112 1c0e 01       		.byte	0x1
 8113 1c0f CE06     		.2byte	0x6ce
 8114 1c11 9F000000 		.4byte	0x9f
 8115 1c15 7D040000 		.4byte	.LLST25
 8116 1c19 31       		.uleb128 0x31
 8117 1c1a 0A000000 		.4byte	.LBB184
 8118 1c1e DA150000 		.4byte	.LBE184-.LBB184
 8119 1c22 27       		.uleb128 0x27
 8120 1c23 AE080000 		.4byte	.LASF93
 8121 1c27 01       		.byte	0x1
 8122 1c28 D206     		.2byte	0x6d2
 8123 1c2a E4000000 		.4byte	0xe4
 8124 1c2e 3D       		.uleb128 0x3d
 8125 1c2f 7B080000 		.4byte	.LASF29
 8126 1c33 01       		.byte	0x1
 8127 1c34 D606     		.2byte	0x6d6
ARM GAS  C:\Users\164\AppData\Local\Temp\cc4PZf78.s 			page 189


 8128 1c36 84060000 		.4byte	0x684
 8129 1c3a CD060000 		.4byte	.LLST26
 8130 1c3e 3D       		.uleb128 0x3d
 8131 1c3f 34060000 		.4byte	.LASF228
 8132 1c43 01       		.byte	0x1
 8133 1c44 D906     		.2byte	0x6d9
 8134 1c46 9F000000 		.4byte	0x9f
 8135 1c4a C2070000 		.4byte	.LLST27
 8136 1c4e 46       		.uleb128 0x46
 8137 1c4f 4E080000 		.4byte	0x84e
 8138 1c53 10000000 		.4byte	.LBB185
 8139 1c57 1A000000 		.4byte	.LBE185-.LBB185
 8140 1c5b 01       		.byte	0x1
 8141 1c5c D206     		.2byte	0x6d2
 8142 1c5e 7F1C0000 		.4byte	0x1c7f
 8143 1c62 30       		.uleb128 0x30
 8144 1c63 5E080000 		.4byte	0x85e
 8145 1c67 B00C0000 		.4byte	.LLST28
 8146 1c6b 31       		.uleb128 0x31
 8147 1c6c 10000000 		.4byte	.LBB186
 8148 1c70 1A000000 		.4byte	.LBE186-.LBB186
 8149 1c74 32       		.uleb128 0x32
 8150 1c75 67080000 		.4byte	0x867
 8151 1c79 E00C0000 		.4byte	.LLST29
 8152 1c7d 00       		.byte	0
 8153 1c7e 00       		.byte	0
 8154 1c7f 46       		.uleb128 0x46
 8155 1c80 7F0F0000 		.4byte	0xf7f
 8156 1c84 E4000000 		.4byte	.LBB187
 8157 1c88 22000000 		.4byte	.LBE187-.LBB187
 8158 1c8c 01       		.byte	0x1
 8159 1c8d DC06     		.2byte	0x6dc
 8160 1c8f EF1C0000 		.4byte	0x1cef
 8161 1c93 30       		.uleb128 0x30
 8162 1c94 A40F0000 		.4byte	0xfa4
 8163 1c98 F30C0000 		.4byte	.LLST30
 8164 1c9c 30       		.uleb128 0x30
 8165 1c9d 990F0000 		.4byte	0xf99
 8166 1ca1 060D0000 		.4byte	.LLST31
 8167 1ca5 30       		.uleb128 0x30
 8168 1ca6 8F0F0000 		.4byte	0xf8f
 8169 1caa 190D0000 		.4byte	.LLST32
 8170 1cae 31       		.uleb128 0x31
 8171 1caf E4000000 		.4byte	.LBB188
 8172 1cb3 22000000 		.4byte	.LBE188-.LBB188
 8173 1cb7 32       		.uleb128 0x32
 8174 1cb8 AF0F0000 		.4byte	0xfaf
 8175 1cbc 2C0D0000 		.4byte	.LLST33
 8176 1cc0 32       		.uleb128 0x32
 8177 1cc1 B90F0000 		.4byte	0xfb9
 8178 1cc5 3F0D0000 		.4byte	.LLST34
 8179 1cc9 40       		.uleb128 0x40
 8180 1cca F4000000 		.4byte	.LVL98
 8181 1cce F73E0000 		.4byte	0x3ef7
 8182 1cd2 DD1C0000 		.4byte	0x1cdd
 8183 1cd6 2B       		.uleb128 0x2b
 8184 1cd7 01       		.uleb128 0x1
ARM GAS  C:\Users\164\AppData\Local\Temp\cc4PZf78.s 			page 190


 8185 1cd8 50       		.byte	0x50
 8186 1cd9 02       		.uleb128 0x2
 8187 1cda 77       		.byte	0x77
 8188 1cdb 00       		.sleb128 0
 8189 1cdc 00       		.byte	0
 8190 1cdd 2A       		.uleb128 0x2a
 8191 1cde FE000000 		.4byte	.LVL100
 8192 1ce2 023F0000 		.4byte	0x3f02
 8193 1ce6 2B       		.uleb128 0x2b
 8194 1ce7 01       		.uleb128 0x1
 8195 1ce8 50       		.byte	0x50
 8196 1ce9 02       		.uleb128 0x2
 8197 1cea 76       		.byte	0x76
 8198 1ceb 00       		.sleb128 0
 8199 1cec 00       		.byte	0
 8200 1ced 00       		.byte	0
 8201 1cee 00       		.byte	0
 8202 1cef 46       		.uleb128 0x46
 8203 1cf0 C40F0000 		.4byte	0xfc4
 8204 1cf4 0C010000 		.4byte	.LBB189
 8205 1cf8 1E000000 		.4byte	.LBE189-.LBB189
 8206 1cfc 01       		.byte	0x1
 8207 1cfd DD06     		.2byte	0x6dd
 8208 1cff 541D0000 		.4byte	0x1d54
 8209 1d03 30       		.uleb128 0x30
 8210 1d04 E90F0000 		.4byte	0xfe9
 8211 1d08 520D0000 		.4byte	.LLST35
 8212 1d0c 30       		.uleb128 0x30
 8213 1d0d DE0F0000 		.4byte	0xfde
 8214 1d11 720D0000 		.4byte	.LLST36
 8215 1d15 30       		.uleb128 0x30
 8216 1d16 D40F0000 		.4byte	0xfd4
 8217 1d1a 850D0000 		.4byte	.LLST37
 8218 1d1e 31       		.uleb128 0x31
 8219 1d1f 0C010000 		.4byte	.LBB190
 8220 1d23 1E000000 		.4byte	.LBE190-.LBB190
 8221 1d27 32       		.uleb128 0x32
 8222 1d28 F40F0000 		.4byte	0xff4
 8223 1d2c 980D0000 		.4byte	.LLST38
 8224 1d30 32       		.uleb128 0x32
 8225 1d31 FE0F0000 		.4byte	0xffe
 8226 1d35 AB0D0000 		.4byte	.LLST39
 8227 1d39 32       		.uleb128 0x32
 8228 1d3a 08100000 		.4byte	0x1008
 8229 1d3e BE0D0000 		.4byte	.LLST40
 8230 1d42 2A       		.uleb128 0x2a
 8231 1d43 1C010000 		.4byte	.LVL106
 8232 1d47 F73E0000 		.4byte	0x3ef7
 8233 1d4b 2B       		.uleb128 0x2b
 8234 1d4c 01       		.uleb128 0x1
 8235 1d4d 50       		.byte	0x50
 8236 1d4e 02       		.uleb128 0x2
 8237 1d4f 76       		.byte	0x76
 8238 1d50 00       		.sleb128 0
 8239 1d51 00       		.byte	0
 8240 1d52 00       		.byte	0
 8241 1d53 00       		.byte	0
ARM GAS  C:\Users\164\AppData\Local\Temp\cc4PZf78.s 			page 191


 8242 1d54 46       		.uleb128 0x46
 8243 1d55 A8080000 		.4byte	0x8a8
 8244 1d59 30010000 		.4byte	.LBB191
 8245 1d5d 20000000 		.4byte	.LBE191-.LBB191
 8246 1d61 01       		.byte	0x1
 8247 1d62 DE06     		.2byte	0x6de
 8248 1d64 A71D0000 		.4byte	0x1da7
 8249 1d68 30       		.uleb128 0x30
 8250 1d69 CD080000 		.4byte	0x8cd
 8251 1d6d E60D0000 		.4byte	.LLST41
 8252 1d71 30       		.uleb128 0x30
 8253 1d72 C2080000 		.4byte	0x8c2
 8254 1d76 F90D0000 		.4byte	.LLST42
 8255 1d7a 30       		.uleb128 0x30
 8256 1d7b B8080000 		.4byte	0x8b8
 8257 1d7f 0C0E0000 		.4byte	.LLST43
 8258 1d83 31       		.uleb128 0x31
 8259 1d84 30010000 		.4byte	.LBB192
 8260 1d88 20000000 		.4byte	.LBE192-.LBB192
 8261 1d8c 32       		.uleb128 0x32
 8262 1d8d D8080000 		.4byte	0x8d8
 8263 1d91 1F0E0000 		.4byte	.LLST44
 8264 1d95 2A       		.uleb128 0x2a
 8265 1d96 3E010000 		.4byte	.LVL113
 8266 1d9a F73E0000 		.4byte	0x3ef7
 8267 1d9e 2B       		.uleb128 0x2b
 8268 1d9f 01       		.uleb128 0x1
 8269 1da0 50       		.byte	0x50
 8270 1da1 02       		.uleb128 0x2
 8271 1da2 78       		.byte	0x78
 8272 1da3 00       		.sleb128 0
 8273 1da4 00       		.byte	0
 8274 1da5 00       		.byte	0
 8275 1da6 00       		.byte	0
 8276 1da7 46       		.uleb128 0x46
 8277 1da8 14100000 		.4byte	0x1014
 8278 1dac 56010000 		.4byte	.LBB193
 8279 1db0 26000000 		.4byte	.LBE193-.LBB193
 8280 1db4 01       		.byte	0x1
 8281 1db5 DF06     		.2byte	0x6df
 8282 1db7 381E0000 		.4byte	0x1e38
 8283 1dbb 30       		.uleb128 0x30
 8284 1dbc 39100000 		.4byte	0x1039
 8285 1dc0 410E0000 		.4byte	.LLST45
 8286 1dc4 30       		.uleb128 0x30
 8287 1dc5 2E100000 		.4byte	0x102e
 8288 1dc9 540E0000 		.4byte	.LLST46
 8289 1dcd 30       		.uleb128 0x30
 8290 1dce 24100000 		.4byte	0x1024
 8291 1dd2 670E0000 		.4byte	.LLST47
 8292 1dd6 31       		.uleb128 0x31
 8293 1dd7 56010000 		.4byte	.LBB194
 8294 1ddb 26000000 		.4byte	.LBE194-.LBB194
 8295 1ddf 32       		.uleb128 0x32
 8296 1de0 44100000 		.4byte	0x1044
 8297 1de4 7A0E0000 		.4byte	.LLST48
 8298 1de8 32       		.uleb128 0x32
ARM GAS  C:\Users\164\AppData\Local\Temp\cc4PZf78.s 			page 192


 8299 1de9 4E100000 		.4byte	0x104e
 8300 1ded 8D0E0000 		.4byte	.LLST49
 8301 1df1 32       		.uleb128 0x32
 8302 1df2 58100000 		.4byte	0x1058
 8303 1df6 C60E0000 		.4byte	.LLST50
 8304 1dfa 32       		.uleb128 0x32
 8305 1dfb 63100000 		.4byte	0x1063
 8306 1dff D90E0000 		.4byte	.LLST51
 8307 1e03 40       		.uleb128 0x40
 8308 1e04 64010000 		.4byte	.LVL120
 8309 1e08 8C0B0000 		.4byte	0xb8c
 8310 1e0c 1D1E0000 		.4byte	0x1e1d
 8311 1e10 2B       		.uleb128 0x2b
 8312 1e11 01       		.uleb128 0x1
 8313 1e12 51       		.byte	0x51
 8314 1e13 08       		.uleb128 0x8
 8315 1e14 74       		.byte	0x74
 8316 1e15 00       		.sleb128 0
 8317 1e16 09       		.byte	0x9
 8318 1e17 ED       		.byte	0xed
 8319 1e18 24       		.byte	0x24
 8320 1e19 09       		.byte	0x9
 8321 1e1a F4       		.byte	0xf4
 8322 1e1b 25       		.byte	0x25
 8323 1e1c 00       		.byte	0
 8324 1e1d 35       		.uleb128 0x35
 8325 1e1e 68010000 		.4byte	.LVL121
 8326 1e22 0D3F0000 		.4byte	0x3f0d
 8327 1e26 2A       		.uleb128 0x2a
 8328 1e27 74010000 		.4byte	.LVL125
 8329 1e2b F73E0000 		.4byte	0x3ef7
 8330 1e2f 2B       		.uleb128 0x2b
 8331 1e30 01       		.uleb128 0x1
 8332 1e31 50       		.byte	0x50
 8333 1e32 02       		.uleb128 0x2
 8334 1e33 77       		.byte	0x77
 8335 1e34 00       		.sleb128 0
 8336 1e35 00       		.byte	0
 8337 1e36 00       		.byte	0
 8338 1e37 00       		.byte	0
 8339 1e38 46       		.uleb128 0x46
 8340 1e39 E3080000 		.4byte	0x8e3
 8341 1e3d 82010000 		.4byte	.LBB195
 8342 1e41 0E000000 		.4byte	.LBE195-.LBB195
 8343 1e45 01       		.byte	0x1
 8344 1e46 E006     		.2byte	0x6e0
 8345 1e48 8E1E0000 		.4byte	0x1e8e
 8346 1e4c 30       		.uleb128 0x30
 8347 1e4d 0B090000 		.4byte	0x90b
 8348 1e51 EC0E0000 		.4byte	.LLST52
 8349 1e55 30       		.uleb128 0x30
 8350 1e56 FF080000 		.4byte	0x8ff
 8351 1e5a FF0E0000 		.4byte	.LLST53
 8352 1e5e 30       		.uleb128 0x30
 8353 1e5f F4080000 		.4byte	0x8f4
 8354 1e63 120F0000 		.4byte	.LLST54
 8355 1e67 31       		.uleb128 0x31
ARM GAS  C:\Users\164\AppData\Local\Temp\cc4PZf78.s 			page 193


 8356 1e68 82010000 		.4byte	.LBB196
 8357 1e6c 0E000000 		.4byte	.LBE196-.LBB196
 8358 1e70 32       		.uleb128 0x32
 8359 1e71 17090000 		.4byte	0x917
 8360 1e75 250F0000 		.4byte	.LLST55
 8361 1e79 2A       		.uleb128 0x2a
 8362 1e7a 8C010000 		.4byte	.LVL130
 8363 1e7e F73E0000 		.4byte	0x3ef7
 8364 1e82 2B       		.uleb128 0x2b
 8365 1e83 01       		.uleb128 0x1
 8366 1e84 50       		.byte	0x50
 8367 1e85 05       		.uleb128 0x5
 8368 1e86 76       		.byte	0x76
 8369 1e87 00       		.sleb128 0
 8370 1e88 74       		.byte	0x74
 8371 1e89 00       		.sleb128 0
 8372 1e8a 22       		.byte	0x22
 8373 1e8b 00       		.byte	0
 8374 1e8c 00       		.byte	0
 8375 1e8d 00       		.byte	0
 8376 1e8e 46       		.uleb128 0x46
 8377 1e8f 6F100000 		.4byte	0x106f
 8378 1e93 96010000 		.4byte	.LBB197
 8379 1e97 1A000000 		.4byte	.LBE197-.LBB197
 8380 1e9b 01       		.byte	0x1
 8381 1e9c E106     		.2byte	0x6e1
 8382 1e9e F51E0000 		.4byte	0x1ef5
 8383 1ea2 30       		.uleb128 0x30
 8384 1ea3 97100000 		.4byte	0x1097
 8385 1ea7 380F0000 		.4byte	.LLST56
 8386 1eab 30       		.uleb128 0x30
 8387 1eac 8B100000 		.4byte	0x108b
 8388 1eb0 4B0F0000 		.4byte	.LLST57
 8389 1eb4 30       		.uleb128 0x30
 8390 1eb5 80100000 		.4byte	0x1080
 8391 1eb9 5E0F0000 		.4byte	.LLST58
 8392 1ebd 31       		.uleb128 0x31
 8393 1ebe 96010000 		.4byte	.LBB198
 8394 1ec2 1A000000 		.4byte	.LBE198-.LBB198
 8395 1ec6 32       		.uleb128 0x32
 8396 1ec7 A3100000 		.4byte	0x10a3
 8397 1ecb 710F0000 		.4byte	.LLST59
 8398 1ecf 40       		.uleb128 0x40
 8399 1ed0 A2010000 		.4byte	.LVL135
 8400 1ed4 F73E0000 		.4byte	0x3ef7
 8401 1ed8 E31E0000 		.4byte	0x1ee3
 8402 1edc 2B       		.uleb128 0x2b
 8403 1edd 01       		.uleb128 0x1
 8404 1ede 50       		.byte	0x50
 8405 1edf 02       		.uleb128 0x2
 8406 1ee0 74       		.byte	0x74
 8407 1ee1 00       		.sleb128 0
 8408 1ee2 00       		.byte	0
 8409 1ee3 2A       		.uleb128 0x2a
 8410 1ee4 A8010000 		.4byte	.LVL136
 8411 1ee8 023F0000 		.4byte	0x3f02
 8412 1eec 2B       		.uleb128 0x2b
ARM GAS  C:\Users\164\AppData\Local\Temp\cc4PZf78.s 			page 194


 8413 1eed 01       		.uleb128 0x1
 8414 1eee 50       		.byte	0x50
 8415 1eef 02       		.uleb128 0x2
 8416 1ef0 76       		.byte	0x76
 8417 1ef1 00       		.sleb128 0
 8418 1ef2 00       		.byte	0
 8419 1ef3 00       		.byte	0
 8420 1ef4 00       		.byte	0
 8421 1ef5 46       		.uleb128 0x46
 8422 1ef6 23090000 		.4byte	0x923
 8423 1efa B6010000 		.4byte	.LBB199
 8424 1efe 0E000000 		.4byte	.LBE199-.LBB199
 8425 1f02 01       		.byte	0x1
 8426 1f03 E206     		.2byte	0x6e2
 8427 1f05 4B1F0000 		.4byte	0x1f4b
 8428 1f09 30       		.uleb128 0x30
 8429 1f0a 4B090000 		.4byte	0x94b
 8430 1f0e 840F0000 		.4byte	.LLST60
 8431 1f12 30       		.uleb128 0x30
 8432 1f13 3F090000 		.4byte	0x93f
 8433 1f17 970F0000 		.4byte	.LLST61
 8434 1f1b 30       		.uleb128 0x30
 8435 1f1c 34090000 		.4byte	0x934
 8436 1f20 AA0F0000 		.4byte	.LLST62
 8437 1f24 31       		.uleb128 0x31
 8438 1f25 B6010000 		.4byte	.LBB200
 8439 1f29 0E000000 		.4byte	.LBE200-.LBB200
 8440 1f2d 32       		.uleb128 0x32
 8441 1f2e 57090000 		.4byte	0x957
 8442 1f32 BD0F0000 		.4byte	.LLST63
 8443 1f36 2A       		.uleb128 0x2a
 8444 1f37 C0010000 		.4byte	.LVL141
 8445 1f3b F73E0000 		.4byte	0x3ef7
 8446 1f3f 2B       		.uleb128 0x2b
 8447 1f40 01       		.uleb128 0x1
 8448 1f41 50       		.byte	0x50
 8449 1f42 05       		.uleb128 0x5
 8450 1f43 76       		.byte	0x76
 8451 1f44 00       		.sleb128 0
 8452 1f45 74       		.byte	0x74
 8453 1f46 00       		.sleb128 0
 8454 1f47 22       		.byte	0x22
 8455 1f48 00       		.byte	0
 8456 1f49 00       		.byte	0
 8457 1f4a 00       		.byte	0
 8458 1f4b 46       		.uleb128 0x46
 8459 1f4c 63090000 		.4byte	0x963
 8460 1f50 CA010000 		.4byte	.LBB201
 8461 1f54 0E000000 		.4byte	.LBE201-.LBB201
 8462 1f58 01       		.byte	0x1
 8463 1f59 E306     		.2byte	0x6e3
 8464 1f5b A11F0000 		.4byte	0x1fa1
 8465 1f5f 30       		.uleb128 0x30
 8466 1f60 8B090000 		.4byte	0x98b
 8467 1f64 D00F0000 		.4byte	.LLST64
 8468 1f68 30       		.uleb128 0x30
 8469 1f69 7F090000 		.4byte	0x97f
ARM GAS  C:\Users\164\AppData\Local\Temp\cc4PZf78.s 			page 195


 8470 1f6d E30F0000 		.4byte	.LLST65
 8471 1f71 30       		.uleb128 0x30
 8472 1f72 74090000 		.4byte	0x974
 8473 1f76 F60F0000 		.4byte	.LLST66
 8474 1f7a 31       		.uleb128 0x31
 8475 1f7b CA010000 		.4byte	.LBB202
 8476 1f7f 0E000000 		.4byte	.LBE202-.LBB202
 8477 1f83 32       		.uleb128 0x32
 8478 1f84 97090000 		.4byte	0x997
 8479 1f88 09100000 		.4byte	.LLST67
 8480 1f8c 2A       		.uleb128 0x2a
 8481 1f8d D4010000 		.4byte	.LVL146
 8482 1f91 F73E0000 		.4byte	0x3ef7
 8483 1f95 2B       		.uleb128 0x2b
 8484 1f96 01       		.uleb128 0x1
 8485 1f97 50       		.byte	0x50
 8486 1f98 05       		.uleb128 0x5
 8487 1f99 76       		.byte	0x76
 8488 1f9a 00       		.sleb128 0
 8489 1f9b 74       		.byte	0x74
 8490 1f9c 00       		.sleb128 0
 8491 1f9d 22       		.byte	0x22
 8492 1f9e 00       		.byte	0
 8493 1f9f 00       		.byte	0
 8494 1fa0 00       		.byte	0
 8495 1fa1 46       		.uleb128 0x46
 8496 1fa2 AF100000 		.4byte	0x10af
 8497 1fa6 DE010000 		.4byte	.LBB203
 8498 1faa 30000000 		.4byte	.LBE203-.LBB203
 8499 1fae 01       		.byte	0x1
 8500 1faf E406     		.2byte	0x6e4
 8501 1fb1 4C200000 		.4byte	0x204c
 8502 1fb5 30       		.uleb128 0x30
 8503 1fb6 D7100000 		.4byte	0x10d7
 8504 1fba 1C100000 		.4byte	.LLST68
 8505 1fbe 30       		.uleb128 0x30
 8506 1fbf CB100000 		.4byte	0x10cb
 8507 1fc3 2F100000 		.4byte	.LLST69
 8508 1fc7 30       		.uleb128 0x30
 8509 1fc8 C0100000 		.4byte	0x10c0
 8510 1fcc 42100000 		.4byte	.LLST70
 8511 1fd0 31       		.uleb128 0x31
 8512 1fd1 DE010000 		.4byte	.LBB204
 8513 1fd5 30000000 		.4byte	.LBE204-.LBB204
 8514 1fd9 32       		.uleb128 0x32
 8515 1fda E3100000 		.4byte	0x10e3
 8516 1fde 55100000 		.4byte	.LLST71
 8517 1fe2 32       		.uleb128 0x32
 8518 1fe3 EE100000 		.4byte	0x10ee
 8519 1fe7 68100000 		.4byte	.LLST72
 8520 1feb 32       		.uleb128 0x32
 8521 1fec F9100000 		.4byte	0x10f9
 8522 1ff0 A1100000 		.4byte	.LLST73
 8523 1ff4 32       		.uleb128 0x32
 8524 1ff5 05110000 		.4byte	0x1105
 8525 1ff9 B4100000 		.4byte	.LLST74
 8526 1ffd 40       		.uleb128 0x40
ARM GAS  C:\Users\164\AppData\Local\Temp\cc4PZf78.s 			page 196


 8527 1ffe EC010000 		.4byte	.LVL152
 8528 2002 8C0B0000 		.4byte	0xb8c
 8529 2006 17200000 		.4byte	0x2017
 8530 200a 2B       		.uleb128 0x2b
 8531 200b 01       		.uleb128 0x1
 8532 200c 51       		.byte	0x51
 8533 200d 08       		.uleb128 0x8
 8534 200e 74       		.byte	0x74
 8535 200f 00       		.sleb128 0
 8536 2010 09       		.byte	0x9
 8537 2011 ED       		.byte	0xed
 8538 2012 24       		.byte	0x24
 8539 2013 09       		.byte	0x9
 8540 2014 F4       		.byte	0xf4
 8541 2015 25       		.byte	0x25
 8542 2016 00       		.byte	0
 8543 2017 35       		.uleb128 0x35
 8544 2018 F0010000 		.4byte	.LVL153
 8545 201c 0D3F0000 		.4byte	0x3f0d
 8546 2020 40       		.uleb128 0x40
 8547 2021 FC010000 		.4byte	.LVL156
 8548 2025 F73E0000 		.4byte	0x3ef7
 8549 2029 34200000 		.4byte	0x2034
 8550 202d 2B       		.uleb128 0x2b
 8551 202e 01       		.uleb128 0x1
 8552 202f 50       		.byte	0x50
 8553 2030 02       		.uleb128 0x2
 8554 2031 76       		.byte	0x76
 8555 2032 00       		.sleb128 0
 8556 2033 00       		.byte	0
 8557 2034 2A       		.uleb128 0x2a
 8558 2035 06020000 		.4byte	.LVL158
 8559 2039 183F0000 		.4byte	0x3f18
 8560 203d 2B       		.uleb128 0x2b
 8561 203e 01       		.uleb128 0x1
 8562 203f 50       		.byte	0x50
 8563 2040 02       		.uleb128 0x2
 8564 2041 74       		.byte	0x74
 8565 2042 00       		.sleb128 0
 8566 2043 2B       		.uleb128 0x2b
 8567 2044 01       		.uleb128 0x1
 8568 2045 51       		.byte	0x51
 8569 2046 02       		.uleb128 0x2
 8570 2047 78       		.byte	0x78
 8571 2048 00       		.sleb128 0
 8572 2049 00       		.byte	0
 8573 204a 00       		.byte	0
 8574 204b 00       		.byte	0
 8575 204c 46       		.uleb128 0x46
 8576 204d 12110000 		.4byte	0x1112
 8577 2051 14020000 		.4byte	.LBB205
 8578 2055 2E000000 		.4byte	.LBE205-.LBB205
 8579 2059 01       		.byte	0x1
 8580 205a E506     		.2byte	0x6e5
 8581 205c DD200000 		.4byte	0x20dd
 8582 2060 30       		.uleb128 0x30
 8583 2061 3A110000 		.4byte	0x113a
ARM GAS  C:\Users\164\AppData\Local\Temp\cc4PZf78.s 			page 197


 8584 2065 C7100000 		.4byte	.LLST75
 8585 2069 30       		.uleb128 0x30
 8586 206a 2E110000 		.4byte	0x112e
 8587 206e DA100000 		.4byte	.LLST76
 8588 2072 30       		.uleb128 0x30
 8589 2073 23110000 		.4byte	0x1123
 8590 2077 ED100000 		.4byte	.LLST77
 8591 207b 31       		.uleb128 0x31
 8592 207c 14020000 		.4byte	.LBB206
 8593 2080 2E000000 		.4byte	.LBE206-.LBB206
 8594 2084 32       		.uleb128 0x32
 8595 2085 46110000 		.4byte	0x1146
 8596 2089 00110000 		.4byte	.LLST78
 8597 208d 32       		.uleb128 0x32
 8598 208e 51110000 		.4byte	0x1151
 8599 2092 13110000 		.4byte	.LLST79
 8600 2096 32       		.uleb128 0x32
 8601 2097 5C110000 		.4byte	0x115c
 8602 209b 4C110000 		.4byte	.LLST80
 8603 209f 32       		.uleb128 0x32
 8604 20a0 68110000 		.4byte	0x1168
 8605 20a4 5F110000 		.4byte	.LLST81
 8606 20a8 40       		.uleb128 0x40
 8607 20a9 22020000 		.4byte	.LVL165
 8608 20ad 8C0B0000 		.4byte	0xb8c
 8609 20b1 C2200000 		.4byte	0x20c2
 8610 20b5 2B       		.uleb128 0x2b
 8611 20b6 01       		.uleb128 0x1
 8612 20b7 51       		.byte	0x51
 8613 20b8 08       		.uleb128 0x8
 8614 20b9 74       		.byte	0x74
 8615 20ba 00       		.sleb128 0
 8616 20bb 09       		.byte	0x9
 8617 20bc ED       		.byte	0xed
 8618 20bd 24       		.byte	0x24
 8619 20be 09       		.byte	0x9
 8620 20bf F4       		.byte	0xf4
 8621 20c0 25       		.byte	0x25
 8622 20c1 00       		.byte	0
 8623 20c2 35       		.uleb128 0x35
 8624 20c3 26020000 		.4byte	.LVL166
 8625 20c7 0D3F0000 		.4byte	0x3f0d
 8626 20cb 2A       		.uleb128 0x2a
 8627 20cc 42020000 		.4byte	.LVL169
 8628 20d0 233F0000 		.4byte	0x3f23
 8629 20d4 2B       		.uleb128 0x2b
 8630 20d5 01       		.uleb128 0x1
 8631 20d6 50       		.byte	0x50
 8632 20d7 02       		.uleb128 0x2
 8633 20d8 74       		.byte	0x74
 8634 20d9 00       		.sleb128 0
 8635 20da 00       		.byte	0
 8636 20db 00       		.byte	0
 8637 20dc 00       		.byte	0
 8638 20dd 46       		.uleb128 0x46
 8639 20de 75110000 		.4byte	0x1175
 8640 20e2 48020000 		.4byte	.LBB207
ARM GAS  C:\Users\164\AppData\Local\Temp\cc4PZf78.s 			page 198


 8641 20e6 32000000 		.4byte	.LBE207-.LBB207
 8642 20ea 01       		.byte	0x1
 8643 20eb E606     		.2byte	0x6e6
 8644 20ed 90210000 		.4byte	0x2190
 8645 20f1 30       		.uleb128 0x30
 8646 20f2 9D110000 		.4byte	0x119d
 8647 20f6 72110000 		.4byte	.LLST82
 8648 20fa 30       		.uleb128 0x30
 8649 20fb 91110000 		.4byte	0x1191
 8650 20ff 85110000 		.4byte	.LLST83
 8651 2103 30       		.uleb128 0x30
 8652 2104 86110000 		.4byte	0x1186
 8653 2108 98110000 		.4byte	.LLST84
 8654 210c 31       		.uleb128 0x31
 8655 210d 48020000 		.4byte	.LBB208
 8656 2111 32000000 		.4byte	.LBE208-.LBB208
 8657 2115 32       		.uleb128 0x32
 8658 2116 A9110000 		.4byte	0x11a9
 8659 211a AB110000 		.4byte	.LLST85
 8660 211e 32       		.uleb128 0x32
 8661 211f B4110000 		.4byte	0x11b4
 8662 2123 BE110000 		.4byte	.LLST86
 8663 2127 32       		.uleb128 0x32
 8664 2128 BF110000 		.4byte	0x11bf
 8665 212c F7110000 		.4byte	.LLST87
 8666 2130 32       		.uleb128 0x32
 8667 2131 CB110000 		.4byte	0x11cb
 8668 2135 17120000 		.4byte	.LLST88
 8669 2139 47       		.uleb128 0x47
 8670 213a D7110000 		.4byte	0x11d7
 8671 213e 02       		.uleb128 0x2
 8672 213f 91       		.byte	0x91
 8673 2140 48       		.sleb128 -56
 8674 2141 40       		.uleb128 0x40
 8675 2142 56020000 		.4byte	.LVL175
 8676 2146 8C0B0000 		.4byte	0xb8c
 8677 214a 5B210000 		.4byte	0x215b
 8678 214e 2B       		.uleb128 0x2b
 8679 214f 01       		.uleb128 0x1
 8680 2150 51       		.byte	0x51
 8681 2151 08       		.uleb128 0x8
 8682 2152 74       		.byte	0x74
 8683 2153 00       		.sleb128 0
 8684 2154 09       		.byte	0x9
 8685 2155 ED       		.byte	0xed
 8686 2156 24       		.byte	0x24
 8687 2157 09       		.byte	0x9
 8688 2158 F4       		.byte	0xf4
 8689 2159 25       		.byte	0x25
 8690 215a 00       		.byte	0
 8691 215b 35       		.uleb128 0x35
 8692 215c 5C020000 		.4byte	.LVL177
 8693 2160 0D3F0000 		.4byte	0x3f0d
 8694 2164 40       		.uleb128 0x40
 8695 2165 68020000 		.4byte	.LVL180
 8696 2169 2E3F0000 		.4byte	0x3f2e
 8697 216d 7E210000 		.4byte	0x217e
ARM GAS  C:\Users\164\AppData\Local\Temp\cc4PZf78.s 			page 199


 8698 2171 2B       		.uleb128 0x2b
 8699 2172 01       		.uleb128 0x1
 8700 2173 50       		.byte	0x50
 8701 2174 02       		.uleb128 0x2
 8702 2175 74       		.byte	0x74
 8703 2176 00       		.sleb128 0
 8704 2177 2B       		.uleb128 0x2b
 8705 2178 01       		.uleb128 0x1
 8706 2179 51       		.byte	0x51
 8707 217a 02       		.uleb128 0x2
 8708 217b 76       		.byte	0x76
 8709 217c 00       		.sleb128 0
 8710 217d 00       		.byte	0
 8711 217e 2A       		.uleb128 0x2a
 8712 217f 72020000 		.4byte	.LVL182
 8713 2183 F73E0000 		.4byte	0x3ef7
 8714 2187 2B       		.uleb128 0x2b
 8715 2188 01       		.uleb128 0x1
 8716 2189 50       		.byte	0x50
 8717 218a 02       		.uleb128 0x2
 8718 218b 76       		.byte	0x76
 8719 218c 00       		.sleb128 0
 8720 218d 00       		.byte	0
 8721 218e 00       		.byte	0
 8722 218f 00       		.byte	0
 8723 2190 46       		.uleb128 0x46
 8724 2191 E4110000 		.4byte	0x11e4
 8725 2195 80020000 		.4byte	.LBB209
 8726 2199 20000000 		.4byte	.LBE209-.LBB209
 8727 219d 01       		.byte	0x1
 8728 219e E706     		.2byte	0x6e7
 8729 21a0 2C220000 		.4byte	0x222c
 8730 21a4 30       		.uleb128 0x30
 8731 21a5 0C120000 		.4byte	0x120c
 8732 21a9 2A120000 		.4byte	.LLST89
 8733 21ad 30       		.uleb128 0x30
 8734 21ae 00120000 		.4byte	0x1200
 8735 21b2 3D120000 		.4byte	.LLST90
 8736 21b6 30       		.uleb128 0x30
 8737 21b7 F5110000 		.4byte	0x11f5
 8738 21bb 50120000 		.4byte	.LLST91
 8739 21bf 31       		.uleb128 0x31
 8740 21c0 80020000 		.4byte	.LBB210
 8741 21c4 20000000 		.4byte	.LBE210-.LBB210
 8742 21c8 32       		.uleb128 0x32
 8743 21c9 18120000 		.4byte	0x1218
 8744 21cd 63120000 		.4byte	.LLST92
 8745 21d1 32       		.uleb128 0x32
 8746 21d2 23120000 		.4byte	0x1223
 8747 21d6 85120000 		.4byte	.LLST93
 8748 21da 32       		.uleb128 0x32
 8749 21db 2E120000 		.4byte	0x122e
 8750 21df BE120000 		.4byte	.LLST94
 8751 21e3 32       		.uleb128 0x32
 8752 21e4 3A120000 		.4byte	0x123a
 8753 21e8 DE120000 		.4byte	.LLST95
 8754 21ec 40       		.uleb128 0x40
ARM GAS  C:\Users\164\AppData\Local\Temp\cc4PZf78.s 			page 200


 8755 21ed 8E020000 		.4byte	.LVL189
 8756 21f1 8C0B0000 		.4byte	0xb8c
 8757 21f5 06220000 		.4byte	0x2206
 8758 21f9 2B       		.uleb128 0x2b
 8759 21fa 01       		.uleb128 0x1
 8760 21fb 51       		.byte	0x51
 8761 21fc 08       		.uleb128 0x8
 8762 21fd 74       		.byte	0x74
 8763 21fe 00       		.sleb128 0
 8764 21ff 09       		.byte	0x9
 8765 2200 ED       		.byte	0xed
 8766 2201 24       		.byte	0x24
 8767 2202 09       		.byte	0x9
 8768 2203 F4       		.byte	0xf4
 8769 2204 25       		.byte	0x25
 8770 2205 00       		.byte	0
 8771 2206 35       		.uleb128 0x35
 8772 2207 94020000 		.4byte	.LVL191
 8773 220b 0D3F0000 		.4byte	0x3f0d
 8774 220f 2A       		.uleb128 0x2a
 8775 2210 A0020000 		.4byte	.LVL193
 8776 2214 393F0000 		.4byte	0x3f39
 8777 2218 2B       		.uleb128 0x2b
 8778 2219 01       		.uleb128 0x1
 8779 221a 50       		.byte	0x50
 8780 221b 02       		.uleb128 0x2
 8781 221c 76       		.byte	0x76
 8782 221d 00       		.sleb128 0
 8783 221e 2B       		.uleb128 0x2b
 8784 221f 01       		.uleb128 0x1
 8785 2220 52       		.byte	0x52
 8786 2221 07       		.uleb128 0x7
 8787 2222 77       		.byte	0x77
 8788 2223 00       		.sleb128 0
 8789 2224 34       		.byte	0x34
 8790 2225 24       		.byte	0x24
 8791 2226 76       		.byte	0x76
 8792 2227 00       		.sleb128 0
 8793 2228 22       		.byte	0x22
 8794 2229 00       		.byte	0
 8795 222a 00       		.byte	0
 8796 222b 00       		.byte	0
 8797 222c 46       		.uleb128 0x46
 8798 222d 47120000 		.4byte	0x1247
 8799 2231 A6020000 		.4byte	.LBB211
 8800 2235 30000000 		.4byte	.LBE211-.LBB211
 8801 2239 01       		.byte	0x1
 8802 223a E806     		.2byte	0x6e8
 8803 223c D7220000 		.4byte	0x22d7
 8804 2240 30       		.uleb128 0x30
 8805 2241 6F120000 		.4byte	0x126f
 8806 2245 F1120000 		.4byte	.LLST96
 8807 2249 30       		.uleb128 0x30
 8808 224a 63120000 		.4byte	0x1263
 8809 224e 04130000 		.4byte	.LLST97
 8810 2252 30       		.uleb128 0x30
 8811 2253 58120000 		.4byte	0x1258
ARM GAS  C:\Users\164\AppData\Local\Temp\cc4PZf78.s 			page 201


 8812 2257 17130000 		.4byte	.LLST98
 8813 225b 31       		.uleb128 0x31
 8814 225c A6020000 		.4byte	.LBB212
 8815 2260 30000000 		.4byte	.LBE212-.LBB212
 8816 2264 32       		.uleb128 0x32
 8817 2265 7B120000 		.4byte	0x127b
 8818 2269 2A130000 		.4byte	.LLST99
 8819 226d 32       		.uleb128 0x32
 8820 226e 86120000 		.4byte	0x1286
 8821 2272 3D130000 		.4byte	.LLST100
 8822 2276 32       		.uleb128 0x32
 8823 2277 91120000 		.4byte	0x1291
 8824 227b 76130000 		.4byte	.LLST101
 8825 227f 32       		.uleb128 0x32
 8826 2280 9D120000 		.4byte	0x129d
 8827 2284 89130000 		.4byte	.LLST102
 8828 2288 40       		.uleb128 0x40
 8829 2289 B4020000 		.4byte	.LVL199
 8830 228d 8C0B0000 		.4byte	0xb8c
 8831 2291 A2220000 		.4byte	0x22a2
 8832 2295 2B       		.uleb128 0x2b
 8833 2296 01       		.uleb128 0x1
 8834 2297 51       		.byte	0x51
 8835 2298 08       		.uleb128 0x8
 8836 2299 74       		.byte	0x74
 8837 229a 00       		.sleb128 0
 8838 229b 09       		.byte	0x9
 8839 229c ED       		.byte	0xed
 8840 229d 24       		.byte	0x24
 8841 229e 09       		.byte	0x9
 8842 229f F4       		.byte	0xf4
 8843 22a0 25       		.byte	0x25
 8844 22a1 00       		.byte	0
 8845 22a2 35       		.uleb128 0x35
 8846 22a3 B8020000 		.4byte	.LVL200
 8847 22a7 0D3F0000 		.4byte	0x3f0d
 8848 22ab 40       		.uleb128 0x40
 8849 22ac C4020000 		.4byte	.LVL203
 8850 22b0 F73E0000 		.4byte	0x3ef7
 8851 22b4 BF220000 		.4byte	0x22bf
 8852 22b8 2B       		.uleb128 0x2b
 8853 22b9 01       		.uleb128 0x1
 8854 22ba 50       		.byte	0x50
 8855 22bb 02       		.uleb128 0x2
 8856 22bc 76       		.byte	0x76
 8857 22bd 00       		.sleb128 0
 8858 22be 00       		.byte	0
 8859 22bf 2A       		.uleb128 0x2a
 8860 22c0 CE020000 		.4byte	.LVL205
 8861 22c4 443F0000 		.4byte	0x3f44
 8862 22c8 2B       		.uleb128 0x2b
 8863 22c9 01       		.uleb128 0x1
 8864 22ca 50       		.byte	0x50
 8865 22cb 02       		.uleb128 0x2
 8866 22cc 74       		.byte	0x74
 8867 22cd 00       		.sleb128 0
 8868 22ce 2B       		.uleb128 0x2b
ARM GAS  C:\Users\164\AppData\Local\Temp\cc4PZf78.s 			page 202


 8869 22cf 01       		.uleb128 0x1
 8870 22d0 51       		.byte	0x51
 8871 22d1 02       		.uleb128 0x2
 8872 22d2 78       		.byte	0x78
 8873 22d3 00       		.sleb128 0
 8874 22d4 00       		.byte	0
 8875 22d5 00       		.byte	0
 8876 22d6 00       		.byte	0
 8877 22d7 46       		.uleb128 0x46
 8878 22d8 AA120000 		.4byte	0x12aa
 8879 22dc DC020000 		.4byte	.LBB213
 8880 22e0 1A000000 		.4byte	.LBE213-.LBB213
 8881 22e4 01       		.byte	0x1
 8882 22e5 E906     		.2byte	0x6e9
 8883 22e7 6D230000 		.4byte	0x236d
 8884 22eb 30       		.uleb128 0x30
 8885 22ec D2120000 		.4byte	0x12d2
 8886 22f0 9C130000 		.4byte	.LLST103
 8887 22f4 30       		.uleb128 0x30
 8888 22f5 C6120000 		.4byte	0x12c6
 8889 22f9 AF130000 		.4byte	.LLST104
 8890 22fd 30       		.uleb128 0x30
 8891 22fe BB120000 		.4byte	0x12bb
 8892 2302 C2130000 		.4byte	.LLST105
 8893 2306 31       		.uleb128 0x31
 8894 2307 DC020000 		.4byte	.LBB214
 8895 230b 1A000000 		.4byte	.LBE214-.LBB214
 8896 230f 32       		.uleb128 0x32
 8897 2310 DE120000 		.4byte	0x12de
 8898 2314 D5130000 		.4byte	.LLST106
 8899 2318 32       		.uleb128 0x32
 8900 2319 E9120000 		.4byte	0x12e9
 8901 231d F7130000 		.4byte	.LLST107
 8902 2321 32       		.uleb128 0x32
 8903 2322 F4120000 		.4byte	0x12f4
 8904 2326 30140000 		.4byte	.LLST108
 8905 232a 32       		.uleb128 0x32
 8906 232b 00130000 		.4byte	0x1300
 8907 232f 43140000 		.4byte	.LLST109
 8908 2333 40       		.uleb128 0x40
 8909 2334 EA020000 		.4byte	.LVL212
 8910 2338 8C0B0000 		.4byte	0xb8c
 8911 233c 4D230000 		.4byte	0x234d
 8912 2340 2B       		.uleb128 0x2b
 8913 2341 01       		.uleb128 0x1
 8914 2342 51       		.byte	0x51
 8915 2343 08       		.uleb128 0x8
 8916 2344 74       		.byte	0x74
 8917 2345 00       		.sleb128 0
 8918 2346 09       		.byte	0x9
 8919 2347 ED       		.byte	0xed
 8920 2348 24       		.byte	0x24
 8921 2349 09       		.byte	0x9
 8922 234a F4       		.byte	0xf4
 8923 234b 25       		.byte	0x25
 8924 234c 00       		.byte	0
 8925 234d 35       		.uleb128 0x35
ARM GAS  C:\Users\164\AppData\Local\Temp\cc4PZf78.s 			page 203


 8926 234e EE020000 		.4byte	.LVL213
 8927 2352 0D3F0000 		.4byte	0x3f0d
 8928 2356 2A       		.uleb128 0x2a
 8929 2357 F6020000 		.4byte	.LVL214
 8930 235b 4F3F0000 		.4byte	0x3f4f
 8931 235f 2B       		.uleb128 0x2b
 8932 2360 01       		.uleb128 0x1
 8933 2361 51       		.byte	0x51
 8934 2362 07       		.uleb128 0x7
 8935 2363 77       		.byte	0x77
 8936 2364 00       		.sleb128 0
 8937 2365 34       		.byte	0x34
 8938 2366 24       		.byte	0x24
 8939 2367 76       		.byte	0x76
 8940 2368 00       		.sleb128 0
 8941 2369 22       		.byte	0x22
 8942 236a 00       		.byte	0
 8943 236b 00       		.byte	0
 8944 236c 00       		.byte	0
 8945 236d 46       		.uleb128 0x46
 8946 236e 0D130000 		.4byte	0x130d
 8947 2372 FC020000 		.4byte	.LBB215
 8948 2376 3C000000 		.4byte	.LBE215-.LBB215
 8949 237a 01       		.byte	0x1
 8950 237b EA06     		.2byte	0x6ea
 8951 237d F8230000 		.4byte	0x23f8
 8952 2381 30       		.uleb128 0x30
 8953 2382 35130000 		.4byte	0x1335
 8954 2386 56140000 		.4byte	.LLST110
 8955 238a 30       		.uleb128 0x30
 8956 238b 29130000 		.4byte	0x1329
 8957 238f 76140000 		.4byte	.LLST111
 8958 2393 30       		.uleb128 0x30
 8959 2394 1E130000 		.4byte	0x131e
 8960 2398 89140000 		.4byte	.LLST112
 8961 239c 31       		.uleb128 0x31
 8962 239d FC020000 		.4byte	.LBB216
 8963 23a1 3C000000 		.4byte	.LBE216-.LBB216
 8964 23a5 32       		.uleb128 0x32
 8965 23a6 41130000 		.4byte	0x1341
 8966 23aa 9C140000 		.4byte	.LLST113
 8967 23ae 32       		.uleb128 0x32
 8968 23af 4C130000 		.4byte	0x134c
 8969 23b3 AF140000 		.4byte	.LLST114
 8970 23b7 32       		.uleb128 0x32
 8971 23b8 57130000 		.4byte	0x1357
 8972 23bc C2140000 		.4byte	.LLST115
 8973 23c0 32       		.uleb128 0x32
 8974 23c1 62130000 		.4byte	0x1362
 8975 23c5 D5140000 		.4byte	.LLST116
 8976 23c9 32       		.uleb128 0x32
 8977 23ca 6E130000 		.4byte	0x136e
 8978 23ce E8140000 		.4byte	.LLST117
 8979 23d2 40       		.uleb128 0x40
 8980 23d3 26030000 		.4byte	.LVL226
 8981 23d7 F73E0000 		.4byte	0x3ef7
 8982 23db E6230000 		.4byte	0x23e6
ARM GAS  C:\Users\164\AppData\Local\Temp\cc4PZf78.s 			page 204


 8983 23df 2B       		.uleb128 0x2b
 8984 23e0 01       		.uleb128 0x1
 8985 23e1 50       		.byte	0x50
 8986 23e2 02       		.uleb128 0x2
 8987 23e3 76       		.byte	0x76
 8988 23e4 00       		.sleb128 0
 8989 23e5 00       		.byte	0
 8990 23e6 2A       		.uleb128 0x2a
 8991 23e7 30030000 		.4byte	.LVL228
 8992 23eb 023F0000 		.4byte	0x3f02
 8993 23ef 2B       		.uleb128 0x2b
 8994 23f0 01       		.uleb128 0x1
 8995 23f1 50       		.byte	0x50
 8996 23f2 02       		.uleb128 0x2
 8997 23f3 77       		.byte	0x77
 8998 23f4 00       		.sleb128 0
 8999 23f5 00       		.byte	0
 9000 23f6 00       		.byte	0
 9001 23f7 00       		.byte	0
 9002 23f8 46       		.uleb128 0x46
 9003 23f9 7B130000 		.4byte	0x137b
 9004 23fd 3E030000 		.4byte	.LBB217
 9005 2401 3C000000 		.4byte	.LBE217-.LBB217
 9006 2405 01       		.byte	0x1
 9007 2406 EB06     		.2byte	0x6eb
 9008 2408 83240000 		.4byte	0x2483
 9009 240c 30       		.uleb128 0x30
 9010 240d A3130000 		.4byte	0x13a3
 9011 2411 FB140000 		.4byte	.LLST118
 9012 2415 30       		.uleb128 0x30
 9013 2416 97130000 		.4byte	0x1397
 9014 241a 0E150000 		.4byte	.LLST119
 9015 241e 30       		.uleb128 0x30
 9016 241f 8C130000 		.4byte	0x138c
 9017 2423 21150000 		.4byte	.LLST120
 9018 2427 31       		.uleb128 0x31
 9019 2428 3E030000 		.4byte	.LBB218
 9020 242c 3C000000 		.4byte	.LBE218-.LBB218
 9021 2430 32       		.uleb128 0x32
 9022 2431 AF130000 		.4byte	0x13af
 9023 2435 34150000 		.4byte	.LLST121
 9024 2439 32       		.uleb128 0x32
 9025 243a BA130000 		.4byte	0x13ba
 9026 243e 47150000 		.4byte	.LLST122
 9027 2442 32       		.uleb128 0x32
 9028 2443 C5130000 		.4byte	0x13c5
 9029 2447 5A150000 		.4byte	.LLST123
 9030 244b 32       		.uleb128 0x32
 9031 244c D0130000 		.4byte	0x13d0
 9032 2450 6D150000 		.4byte	.LLST124
 9033 2454 32       		.uleb128 0x32
 9034 2455 DC130000 		.4byte	0x13dc
 9035 2459 93150000 		.4byte	.LLST125
 9036 245d 40       		.uleb128 0x40
 9037 245e 68030000 		.4byte	.LVL239
 9038 2462 F73E0000 		.4byte	0x3ef7
 9039 2466 71240000 		.4byte	0x2471
ARM GAS  C:\Users\164\AppData\Local\Temp\cc4PZf78.s 			page 205


 9040 246a 2B       		.uleb128 0x2b
 9041 246b 01       		.uleb128 0x1
 9042 246c 50       		.byte	0x50
 9043 246d 02       		.uleb128 0x2
 9044 246e 74       		.byte	0x74
 9045 246f 00       		.sleb128 0
 9046 2470 00       		.byte	0
 9047 2471 2A       		.uleb128 0x2a
 9048 2472 72030000 		.4byte	.LVL241
 9049 2476 023F0000 		.4byte	0x3f02
 9050 247a 2B       		.uleb128 0x2b
 9051 247b 01       		.uleb128 0x1
 9052 247c 50       		.byte	0x50
 9053 247d 02       		.uleb128 0x2
 9054 247e 76       		.byte	0x76
 9055 247f 00       		.sleb128 0
 9056 2480 00       		.byte	0
 9057 2481 00       		.byte	0
 9058 2482 00       		.byte	0
 9059 2483 46       		.uleb128 0x46
 9060 2484 A3090000 		.4byte	0x9a3
 9061 2488 80030000 		.4byte	.LBB219
 9062 248c 0A000000 		.4byte	.LBE219-.LBB219
 9063 2490 01       		.byte	0x1
 9064 2491 EC06     		.2byte	0x6ec
 9065 2493 B3240000 		.4byte	0x24b3
 9066 2497 30       		.uleb128 0x30
 9067 2498 CB090000 		.4byte	0x9cb
 9068 249c A6150000 		.4byte	.LLST126
 9069 24a0 30       		.uleb128 0x30
 9070 24a1 BF090000 		.4byte	0x9bf
 9071 24a5 B9150000 		.4byte	.LLST127
 9072 24a9 30       		.uleb128 0x30
 9073 24aa B4090000 		.4byte	0x9b4
 9074 24ae CC150000 		.4byte	.LLST128
 9075 24b2 00       		.byte	0
 9076 24b3 46       		.uleb128 0x46
 9077 24b4 D8090000 		.4byte	0x9d8
 9078 24b8 90030000 		.4byte	.LBB221
 9079 24bc 16000000 		.4byte	.LBE221-.LBB221
 9080 24c0 01       		.byte	0x1
 9081 24c1 ED06     		.2byte	0x6ed
 9082 24c3 E3240000 		.4byte	0x24e3
 9083 24c7 30       		.uleb128 0x30
 9084 24c8 000A0000 		.4byte	0xa00
 9085 24cc DF150000 		.4byte	.LLST129
 9086 24d0 30       		.uleb128 0x30
 9087 24d1 F4090000 		.4byte	0x9f4
 9088 24d5 FD150000 		.4byte	.LLST130
 9089 24d9 30       		.uleb128 0x30
 9090 24da E9090000 		.4byte	0x9e9
 9091 24de 1B160000 		.4byte	.LLST131
 9092 24e2 00       		.byte	0
 9093 24e3 46       		.uleb128 0x46
 9094 24e4 0D0A0000 		.4byte	0xa0d
 9095 24e8 AC030000 		.4byte	.LBB223
 9096 24ec 16000000 		.4byte	.LBE223-.LBB223
ARM GAS  C:\Users\164\AppData\Local\Temp\cc4PZf78.s 			page 206


 9097 24f0 01       		.byte	0x1
 9098 24f1 EE06     		.2byte	0x6ee
 9099 24f3 13250000 		.4byte	0x2513
 9100 24f7 30       		.uleb128 0x30
 9101 24f8 350A0000 		.4byte	0xa35
 9102 24fc 39160000 		.4byte	.LLST132
 9103 2500 30       		.uleb128 0x30
 9104 2501 290A0000 		.4byte	0xa29
 9105 2505 57160000 		.4byte	.LLST133
 9106 2509 30       		.uleb128 0x30
 9107 250a 1E0A0000 		.4byte	0xa1e
 9108 250e 75160000 		.4byte	.LLST134
 9109 2512 00       		.byte	0
 9110 2513 46       		.uleb128 0x46
 9111 2514 E9130000 		.4byte	0x13e9
 9112 2518 C8030000 		.4byte	.LBB225
 9113 251c BA000000 		.4byte	.LBE225-.LBB225
 9114 2520 01       		.byte	0x1
 9115 2521 EF06     		.2byte	0x6ef
 9116 2523 55260000 		.4byte	0x2655
 9117 2527 30       		.uleb128 0x30
 9118 2528 11140000 		.4byte	0x1411
 9119 252c 93160000 		.4byte	.LLST135
 9120 2530 30       		.uleb128 0x30
 9121 2531 05140000 		.4byte	0x1405
 9122 2535 A6160000 		.4byte	.LLST136
 9123 2539 30       		.uleb128 0x30
 9124 253a FA130000 		.4byte	0x13fa
 9125 253e B9160000 		.4byte	.LLST137
 9126 2542 31       		.uleb128 0x31
 9127 2543 C8030000 		.4byte	.LBB226
 9128 2547 BA000000 		.4byte	.LBE226-.LBB226
 9129 254b 32       		.uleb128 0x32
 9130 254c 1D140000 		.4byte	0x141d
 9131 2550 CC160000 		.4byte	.LLST138
 9132 2554 32       		.uleb128 0x32
 9133 2555 28140000 		.4byte	0x1428
 9134 2559 EE160000 		.4byte	.LLST139
 9135 255d 32       		.uleb128 0x32
 9136 255e 33140000 		.4byte	0x1433
 9137 2562 01170000 		.4byte	.LLST140
 9138 2566 47       		.uleb128 0x47
 9139 2567 3E140000 		.4byte	0x143e
 9140 256b 02       		.uleb128 0x2
 9141 256c 91       		.byte	0x91
 9142 256d 48       		.sleb128 -56
 9143 256e 32       		.uleb128 0x32
 9144 256f 4A140000 		.4byte	0x144a
 9145 2573 14170000 		.4byte	.LLST141
 9146 2577 32       		.uleb128 0x32
 9147 2578 56140000 		.4byte	0x1456
 9148 257c 27170000 		.4byte	.LLST142
 9149 2580 32       		.uleb128 0x32
 9150 2581 62140000 		.4byte	0x1462
 9151 2585 45170000 		.4byte	.LLST143
 9152 2589 32       		.uleb128 0x32
 9153 258a 6E140000 		.4byte	0x146e
ARM GAS  C:\Users\164\AppData\Local\Temp\cc4PZf78.s 			page 207


 9154 258e 58170000 		.4byte	.LLST144
 9155 2592 3E       		.uleb128 0x3e
 9156 2593 52040000 		.4byte	.LBB227
 9157 2597 16000000 		.4byte	.LBE227-.LBB227
 9158 259b C1250000 		.4byte	0x25c1
 9159 259f 32       		.uleb128 0x32
 9160 25a0 79140000 		.4byte	0x1479
 9161 25a4 A2170000 		.4byte	.LLST145
 9162 25a8 48       		.uleb128 0x48
 9163 25a9 5C040000 		.4byte	.LVL270
 9164 25ad 2B       		.uleb128 0x2b
 9165 25ae 01       		.uleb128 0x1
 9166 25af 50       		.byte	0x50
 9167 25b0 02       		.uleb128 0x2
 9168 25b1 75       		.byte	0x75
 9169 25b2 00       		.sleb128 0
 9170 25b3 2B       		.uleb128 0x2b
 9171 25b4 01       		.uleb128 0x1
 9172 25b5 51       		.byte	0x51
 9173 25b6 02       		.uleb128 0x2
 9174 25b7 78       		.byte	0x78
 9175 25b8 00       		.sleb128 0
 9176 25b9 2B       		.uleb128 0x2b
 9177 25ba 01       		.uleb128 0x1
 9178 25bb 52       		.byte	0x52
 9179 25bc 02       		.uleb128 0x2
 9180 25bd 7A       		.byte	0x7a
 9181 25be 00       		.sleb128 0
 9182 25bf 00       		.byte	0
 9183 25c0 00       		.byte	0
 9184 25c1 40       		.uleb128 0x40
 9185 25c2 00040000 		.4byte	.LVL260
 9186 25c6 F73E0000 		.4byte	0x3ef7
 9187 25ca D8250000 		.4byte	0x25d8
 9188 25ce 2B       		.uleb128 0x2b
 9189 25cf 01       		.uleb128 0x1
 9190 25d0 50       		.byte	0x50
 9191 25d1 05       		.uleb128 0x5
 9192 25d2 76       		.byte	0x76
 9193 25d3 00       		.sleb128 0
 9194 25d4 74       		.byte	0x74
 9195 25d5 00       		.sleb128 0
 9196 25d6 22       		.byte	0x22
 9197 25d7 00       		.byte	0
 9198 25d8 40       		.uleb128 0x40
 9199 25d9 1C040000 		.4byte	.LVL261
 9200 25dd 8C0B0000 		.4byte	0xb8c
 9201 25e1 EC250000 		.4byte	0x25ec
 9202 25e5 2B       		.uleb128 0x2b
 9203 25e6 01       		.uleb128 0x1
 9204 25e7 51       		.byte	0x51
 9205 25e8 02       		.uleb128 0x2
 9206 25e9 7B       		.byte	0x7b
 9207 25ea 00       		.sleb128 0
 9208 25eb 00       		.byte	0
 9209 25ec 40       		.uleb128 0x40
 9210 25ed 22040000 		.4byte	.LVL263
ARM GAS  C:\Users\164\AppData\Local\Temp\cc4PZf78.s 			page 208


 9211 25f1 0D3F0000 		.4byte	0x3f0d
 9212 25f5 00260000 		.4byte	0x2600
 9213 25f9 2B       		.uleb128 0x2b
 9214 25fa 01       		.uleb128 0x1
 9215 25fb 50       		.byte	0x50
 9216 25fc 02       		.uleb128 0x2
 9217 25fd 76       		.byte	0x76
 9218 25fe 00       		.sleb128 0
 9219 25ff 00       		.byte	0
 9220 2600 40       		.uleb128 0x40
 9221 2601 38040000 		.4byte	.LVL265
 9222 2605 5A3F0000 		.4byte	0x3f5a
 9223 2609 14260000 		.4byte	0x2614
 9224 260d 2B       		.uleb128 0x2b
 9225 260e 01       		.uleb128 0x1
 9226 260f 50       		.byte	0x50
 9227 2610 02       		.uleb128 0x2
 9228 2611 75       		.byte	0x75
 9229 2612 00       		.sleb128 0
 9230 2613 00       		.byte	0
 9231 2614 40       		.uleb128 0x40
 9232 2615 48040000 		.4byte	.LVL267
 9233 2619 A13E0000 		.4byte	0x3ea1
 9234 261d 3D260000 		.4byte	0x263d
 9235 2621 2B       		.uleb128 0x2b
 9236 2622 01       		.uleb128 0x1
 9237 2623 50       		.byte	0x50
 9238 2624 05       		.uleb128 0x5
 9239 2625 03       		.byte	0x3
 9240 2626 4C000000 		.4byte	.LC3
 9241 262a 2B       		.uleb128 0x2b
 9242 262b 01       		.uleb128 0x1
 9243 262c 51       		.byte	0x51
 9244 262d 08       		.uleb128 0x8
 9245 262e 91       		.byte	0x91
 9246 262f 48       		.sleb128 -56
 9247 2630 94       		.byte	0x94
 9248 2631 01       		.byte	0x1
 9249 2632 48       		.byte	0x48
 9250 2633 24       		.byte	0x24
 9251 2634 48       		.byte	0x48
 9252 2635 26       		.byte	0x26
 9253 2636 2B       		.uleb128 0x2b
 9254 2637 01       		.uleb128 0x1
 9255 2638 52       		.byte	0x52
 9256 2639 02       		.uleb128 0x2
 9257 263a 76       		.byte	0x76
 9258 263b 00       		.sleb128 0
 9259 263c 00       		.byte	0
 9260 263d 2A       		.uleb128 0x2a
 9261 263e 70040000 		.4byte	.LVL275
 9262 2642 B80C0000 		.4byte	0xcb8
 9263 2646 2B       		.uleb128 0x2b
 9264 2647 01       		.uleb128 0x1
 9265 2648 50       		.byte	0x50
 9266 2649 02       		.uleb128 0x2
 9267 264a 75       		.byte	0x75
ARM GAS  C:\Users\164\AppData\Local\Temp\cc4PZf78.s 			page 209


 9268 264b 00       		.sleb128 0
 9269 264c 2B       		.uleb128 0x2b
 9270 264d 01       		.uleb128 0x1
 9271 264e 51       		.byte	0x51
 9272 264f 02       		.uleb128 0x2
 9273 2650 7A       		.byte	0x7a
 9274 2651 00       		.sleb128 0
 9275 2652 00       		.byte	0
 9276 2653 00       		.byte	0
 9277 2654 00       		.byte	0
 9278 2655 46       		.uleb128 0x46
 9279 2656 E9130000 		.4byte	0x13e9
 9280 265a 88040000 		.4byte	.LBB228
 9281 265e BA000000 		.4byte	.LBE228-.LBB228
 9282 2662 01       		.byte	0x1
 9283 2663 F006     		.2byte	0x6f0
 9284 2665 97270000 		.4byte	0x2797
 9285 2669 30       		.uleb128 0x30
 9286 266a 11140000 		.4byte	0x1411
 9287 266e C0170000 		.4byte	.LLST146
 9288 2672 30       		.uleb128 0x30
 9289 2673 05140000 		.4byte	0x1405
 9290 2677 D3170000 		.4byte	.LLST147
 9291 267b 30       		.uleb128 0x30
 9292 267c FA130000 		.4byte	0x13fa
 9293 2680 E6170000 		.4byte	.LLST148
 9294 2684 31       		.uleb128 0x31
 9295 2685 88040000 		.4byte	.LBB229
 9296 2689 BA000000 		.4byte	.LBE229-.LBB229
 9297 268d 32       		.uleb128 0x32
 9298 268e 1D140000 		.4byte	0x141d
 9299 2692 F9170000 		.4byte	.LLST149
 9300 2696 32       		.uleb128 0x32
 9301 2697 28140000 		.4byte	0x1428
 9302 269b 1B180000 		.4byte	.LLST150
 9303 269f 32       		.uleb128 0x32
 9304 26a0 33140000 		.4byte	0x1433
 9305 26a4 2E180000 		.4byte	.LLST151
 9306 26a8 47       		.uleb128 0x47
 9307 26a9 3E140000 		.4byte	0x143e
 9308 26ad 02       		.uleb128 0x2
 9309 26ae 91       		.byte	0x91
 9310 26af 48       		.sleb128 -56
 9311 26b0 32       		.uleb128 0x32
 9312 26b1 4A140000 		.4byte	0x144a
 9313 26b5 41180000 		.4byte	.LLST152
 9314 26b9 32       		.uleb128 0x32
 9315 26ba 56140000 		.4byte	0x1456
 9316 26be 54180000 		.4byte	.LLST153
 9317 26c2 32       		.uleb128 0x32
 9318 26c3 62140000 		.4byte	0x1462
 9319 26c7 72180000 		.4byte	.LLST154
 9320 26cb 32       		.uleb128 0x32
 9321 26cc 6E140000 		.4byte	0x146e
 9322 26d0 85180000 		.4byte	.LLST155
 9323 26d4 3E       		.uleb128 0x3e
 9324 26d5 12050000 		.4byte	.LBB230
ARM GAS  C:\Users\164\AppData\Local\Temp\cc4PZf78.s 			page 210


 9325 26d9 16000000 		.4byte	.LBE230-.LBB230
 9326 26dd 03270000 		.4byte	0x2703
 9327 26e1 32       		.uleb128 0x32
 9328 26e2 79140000 		.4byte	0x1479
 9329 26e6 CF180000 		.4byte	.LLST156
 9330 26ea 48       		.uleb128 0x48
 9331 26eb 1C050000 		.4byte	.LVL295
 9332 26ef 2B       		.uleb128 0x2b
 9333 26f0 01       		.uleb128 0x1
 9334 26f1 50       		.byte	0x50
 9335 26f2 02       		.uleb128 0x2
 9336 26f3 75       		.byte	0x75
 9337 26f4 00       		.sleb128 0
 9338 26f5 2B       		.uleb128 0x2b
 9339 26f6 01       		.uleb128 0x1
 9340 26f7 51       		.byte	0x51
 9341 26f8 02       		.uleb128 0x2
 9342 26f9 78       		.byte	0x78
 9343 26fa 00       		.sleb128 0
 9344 26fb 2B       		.uleb128 0x2b
 9345 26fc 01       		.uleb128 0x1
 9346 26fd 52       		.byte	0x52
 9347 26fe 02       		.uleb128 0x2
 9348 26ff 7A       		.byte	0x7a
 9349 2700 00       		.sleb128 0
 9350 2701 00       		.byte	0
 9351 2702 00       		.byte	0
 9352 2703 40       		.uleb128 0x40
 9353 2704 C0040000 		.4byte	.LVL285
 9354 2708 F73E0000 		.4byte	0x3ef7
 9355 270c 1A270000 		.4byte	0x271a
 9356 2710 2B       		.uleb128 0x2b
 9357 2711 01       		.uleb128 0x1
 9358 2712 50       		.byte	0x50
 9359 2713 05       		.uleb128 0x5
 9360 2714 76       		.byte	0x76
 9361 2715 00       		.sleb128 0
 9362 2716 74       		.byte	0x74
 9363 2717 00       		.sleb128 0
 9364 2718 22       		.byte	0x22
 9365 2719 00       		.byte	0
 9366 271a 40       		.uleb128 0x40
 9367 271b DC040000 		.4byte	.LVL286
 9368 271f 8C0B0000 		.4byte	0xb8c
 9369 2723 2E270000 		.4byte	0x272e
 9370 2727 2B       		.uleb128 0x2b
 9371 2728 01       		.uleb128 0x1
 9372 2729 51       		.byte	0x51
 9373 272a 02       		.uleb128 0x2
 9374 272b 7B       		.byte	0x7b
 9375 272c 00       		.sleb128 0
 9376 272d 00       		.byte	0
 9377 272e 40       		.uleb128 0x40
 9378 272f E2040000 		.4byte	.LVL288
 9379 2733 0D3F0000 		.4byte	0x3f0d
 9380 2737 42270000 		.4byte	0x2742
 9381 273b 2B       		.uleb128 0x2b
ARM GAS  C:\Users\164\AppData\Local\Temp\cc4PZf78.s 			page 211


 9382 273c 01       		.uleb128 0x1
 9383 273d 50       		.byte	0x50
 9384 273e 02       		.uleb128 0x2
 9385 273f 76       		.byte	0x76
 9386 2740 00       		.sleb128 0
 9387 2741 00       		.byte	0
 9388 2742 40       		.uleb128 0x40
 9389 2743 F8040000 		.4byte	.LVL290
 9390 2747 5A3F0000 		.4byte	0x3f5a
 9391 274b 56270000 		.4byte	0x2756
 9392 274f 2B       		.uleb128 0x2b
 9393 2750 01       		.uleb128 0x1
 9394 2751 50       		.byte	0x50
 9395 2752 02       		.uleb128 0x2
 9396 2753 75       		.byte	0x75
 9397 2754 00       		.sleb128 0
 9398 2755 00       		.byte	0
 9399 2756 40       		.uleb128 0x40
 9400 2757 08050000 		.4byte	.LVL292
 9401 275b A13E0000 		.4byte	0x3ea1
 9402 275f 7F270000 		.4byte	0x277f
 9403 2763 2B       		.uleb128 0x2b
 9404 2764 01       		.uleb128 0x1
 9405 2765 50       		.byte	0x50
 9406 2766 05       		.uleb128 0x5
 9407 2767 03       		.byte	0x3
 9408 2768 4C000000 		.4byte	.LC3
 9409 276c 2B       		.uleb128 0x2b
 9410 276d 01       		.uleb128 0x1
 9411 276e 51       		.byte	0x51
 9412 276f 08       		.uleb128 0x8
 9413 2770 91       		.byte	0x91
 9414 2771 48       		.sleb128 -56
 9415 2772 94       		.byte	0x94
 9416 2773 01       		.byte	0x1
 9417 2774 48       		.byte	0x48
 9418 2775 24       		.byte	0x24
 9419 2776 48       		.byte	0x48
 9420 2777 26       		.byte	0x26
 9421 2778 2B       		.uleb128 0x2b
 9422 2779 01       		.uleb128 0x1
 9423 277a 52       		.byte	0x52
 9424 277b 02       		.uleb128 0x2
 9425 277c 76       		.byte	0x76
 9426 277d 00       		.sleb128 0
 9427 277e 00       		.byte	0
 9428 277f 2A       		.uleb128 0x2a
 9429 2780 30050000 		.4byte	.LVL300
 9430 2784 B80C0000 		.4byte	0xcb8
 9431 2788 2B       		.uleb128 0x2b
 9432 2789 01       		.uleb128 0x1
 9433 278a 50       		.byte	0x50
 9434 278b 02       		.uleb128 0x2
 9435 278c 75       		.byte	0x75
 9436 278d 00       		.sleb128 0
 9437 278e 2B       		.uleb128 0x2b
 9438 278f 01       		.uleb128 0x1
ARM GAS  C:\Users\164\AppData\Local\Temp\cc4PZf78.s 			page 212


 9439 2790 51       		.byte	0x51
 9440 2791 02       		.uleb128 0x2
 9441 2792 7A       		.byte	0x7a
 9442 2793 00       		.sleb128 0
 9443 2794 00       		.byte	0
 9444 2795 00       		.byte	0
 9445 2796 00       		.byte	0
 9446 2797 46       		.uleb128 0x46
 9447 2798 420A0000 		.4byte	0xa42
 9448 279c 48050000 		.4byte	.LBB231
 9449 27a0 12000000 		.4byte	.LBE231-.LBB231
 9450 27a4 01       		.byte	0x1
 9451 27a5 F106     		.2byte	0x6f1
 9452 27a7 DC270000 		.4byte	0x27dc
 9453 27ab 30       		.uleb128 0x30
 9454 27ac 6A0A0000 		.4byte	0xa6a
 9455 27b0 ED180000 		.4byte	.LLST157
 9456 27b4 30       		.uleb128 0x30
 9457 27b5 5E0A0000 		.4byte	0xa5e
 9458 27b9 00190000 		.4byte	.LLST158
 9459 27bd 30       		.uleb128 0x30
 9460 27be 530A0000 		.4byte	0xa53
 9461 27c2 13190000 		.4byte	.LLST159
 9462 27c6 2A       		.uleb128 0x2a
 9463 27c7 50050000 		.4byte	.LVL303
 9464 27cb B80C0000 		.4byte	0xcb8
 9465 27cf 2B       		.uleb128 0x2b
 9466 27d0 01       		.uleb128 0x1
 9467 27d1 50       		.byte	0x50
 9468 27d2 02       		.uleb128 0x2
 9469 27d3 75       		.byte	0x75
 9470 27d4 00       		.sleb128 0
 9471 27d5 2B       		.uleb128 0x2b
 9472 27d6 01       		.uleb128 0x1
 9473 27d7 51       		.byte	0x51
 9474 27d8 01       		.uleb128 0x1
 9475 27d9 30       		.byte	0x30
 9476 27da 00       		.byte	0
 9477 27db 00       		.byte	0
 9478 27dc 46       		.uleb128 0x46
 9479 27dd 770A0000 		.4byte	0xa77
 9480 27e1 5E050000 		.4byte	.LBB233
 9481 27e5 26000000 		.4byte	.LBE233-.LBB233
 9482 27e9 01       		.byte	0x1
 9483 27ea F206     		.2byte	0x6f2
 9484 27ec 3A280000 		.4byte	0x283a
 9485 27f0 30       		.uleb128 0x30
 9486 27f1 9F0A0000 		.4byte	0xa9f
 9487 27f5 26190000 		.4byte	.LLST160
 9488 27f9 30       		.uleb128 0x30
 9489 27fa 930A0000 		.4byte	0xa93
 9490 27fe 44190000 		.4byte	.LLST161
 9491 2802 30       		.uleb128 0x30
 9492 2803 880A0000 		.4byte	0xa88
 9493 2807 62190000 		.4byte	.LLST162
 9494 280b 31       		.uleb128 0x31
 9495 280c 5E050000 		.4byte	.LBB234
ARM GAS  C:\Users\164\AppData\Local\Temp\cc4PZf78.s 			page 213


 9496 2810 26000000 		.4byte	.LBE234-.LBB234
 9497 2814 32       		.uleb128 0x32
 9498 2815 AB0A0000 		.4byte	0xaab
 9499 2819 80190000 		.4byte	.LLST163
 9500 281d 32       		.uleb128 0x32
 9501 281e B70A0000 		.4byte	0xab7
 9502 2822 BC190000 		.4byte	.LLST164
 9503 2826 32       		.uleb128 0x32
 9504 2827 C30A0000 		.4byte	0xac3
 9505 282b E2190000 		.4byte	.LLST165
 9506 282f 32       		.uleb128 0x32
 9507 2830 CF0A0000 		.4byte	0xacf
 9508 2834 101A0000 		.4byte	.LLST166
 9509 2838 00       		.byte	0
 9510 2839 00       		.byte	0
 9511 283a 46       		.uleb128 0x46
 9512 283b 8D140000 		.4byte	0x148d
 9513 283f 8A050000 		.4byte	.LBB235
 9514 2843 52000000 		.4byte	.LBE235-.LBB235
 9515 2847 01       		.byte	0x1
 9516 2848 F306     		.2byte	0x6f3
 9517 284a BB280000 		.4byte	0x28bb
 9518 284e 30       		.uleb128 0x30
 9519 284f B5140000 		.4byte	0x14b5
 9520 2853 2E1A0000 		.4byte	.LLST167
 9521 2857 30       		.uleb128 0x30
 9522 2858 A9140000 		.4byte	0x14a9
 9523 285c 411A0000 		.4byte	.LLST168
 9524 2860 30       		.uleb128 0x30
 9525 2861 9E140000 		.4byte	0x149e
 9526 2865 541A0000 		.4byte	.LLST169
 9527 2869 31       		.uleb128 0x31
 9528 286a 8A050000 		.4byte	.LBB236
 9529 286e 52000000 		.4byte	.LBE236-.LBB236
 9530 2872 32       		.uleb128 0x32
 9531 2873 C1140000 		.4byte	0x14c1
 9532 2877 671A0000 		.4byte	.LLST170
 9533 287b 47       		.uleb128 0x47
 9534 287c CC140000 		.4byte	0x14cc
 9535 2880 02       		.uleb128 0x2
 9536 2881 91       		.byte	0x91
 9537 2882 48       		.sleb128 -56
 9538 2883 32       		.uleb128 0x32
 9539 2884 D6140000 		.4byte	0x14d6
 9540 2888 7A1A0000 		.4byte	.LLST171
 9541 288c 32       		.uleb128 0x32
 9542 288d E2140000 		.4byte	0x14e2
 9543 2891 8D1A0000 		.4byte	.LLST172
 9544 2895 40       		.uleb128 0x40
 9545 2896 A0050000 		.4byte	.LVL317
 9546 289a 023F0000 		.4byte	0x3f02
 9547 289e A9280000 		.4byte	0x28a9
 9548 28a2 2B       		.uleb128 0x2b
 9549 28a3 01       		.uleb128 0x1
 9550 28a4 50       		.byte	0x50
 9551 28a5 02       		.uleb128 0x2
 9552 28a6 77       		.byte	0x77
ARM GAS  C:\Users\164\AppData\Local\Temp\cc4PZf78.s 			page 214


 9553 28a7 00       		.sleb128 0
 9554 28a8 00       		.byte	0
 9555 28a9 2A       		.uleb128 0x2a
 9556 28aa A6050000 		.4byte	.LVL318
 9557 28ae F73E0000 		.4byte	0x3ef7
 9558 28b2 2B       		.uleb128 0x2b
 9559 28b3 01       		.uleb128 0x1
 9560 28b4 50       		.byte	0x50
 9561 28b5 02       		.uleb128 0x2
 9562 28b6 76       		.byte	0x76
 9563 28b7 00       		.sleb128 0
 9564 28b8 00       		.byte	0
 9565 28b9 00       		.byte	0
 9566 28ba 00       		.byte	0
 9567 28bb 46       		.uleb128 0x46
 9568 28bc EF140000 		.4byte	0x14ef
 9569 28c0 E2050000 		.4byte	.LBB237
 9570 28c4 30000000 		.4byte	.LBE237-.LBB237
 9571 28c8 01       		.byte	0x1
 9572 28c9 F406     		.2byte	0x6f4
 9573 28cb 2B290000 		.4byte	0x292b
 9574 28cf 30       		.uleb128 0x30
 9575 28d0 17150000 		.4byte	0x1517
 9576 28d4 A21A0000 		.4byte	.LLST173
 9577 28d8 30       		.uleb128 0x30
 9578 28d9 0B150000 		.4byte	0x150b
 9579 28dd B51A0000 		.4byte	.LLST174
 9580 28e1 30       		.uleb128 0x30
 9581 28e2 00150000 		.4byte	0x1500
 9582 28e6 C81A0000 		.4byte	.LLST175
 9583 28ea 31       		.uleb128 0x31
 9584 28eb E2050000 		.4byte	.LBB238
 9585 28ef 30000000 		.4byte	.LBE238-.LBB238
 9586 28f3 32       		.uleb128 0x32
 9587 28f4 23150000 		.4byte	0x1523
 9588 28f8 DB1A0000 		.4byte	.LLST176
 9589 28fc 32       		.uleb128 0x32
 9590 28fd 2E150000 		.4byte	0x152e
 9591 2901 F91A0000 		.4byte	.LLST177
 9592 2905 40       		.uleb128 0x40
 9593 2906 FA050000 		.4byte	.LVL327
 9594 290a F73E0000 		.4byte	0x3ef7
 9595 290e 19290000 		.4byte	0x2919
 9596 2912 2B       		.uleb128 0x2b
 9597 2913 01       		.uleb128 0x1
 9598 2914 50       		.byte	0x50
 9599 2915 02       		.uleb128 0x2
 9600 2916 74       		.byte	0x74
 9601 2917 00       		.sleb128 0
 9602 2918 00       		.byte	0
 9603 2919 2A       		.uleb128 0x2a
 9604 291a 00060000 		.4byte	.LVL328
 9605 291e 023F0000 		.4byte	0x3f02
 9606 2922 2B       		.uleb128 0x2b
 9607 2923 01       		.uleb128 0x1
 9608 2924 50       		.byte	0x50
 9609 2925 02       		.uleb128 0x2
ARM GAS  C:\Users\164\AppData\Local\Temp\cc4PZf78.s 			page 215


 9610 2926 77       		.byte	0x77
 9611 2927 00       		.sleb128 0
 9612 2928 00       		.byte	0
 9613 2929 00       		.byte	0
 9614 292a 00       		.byte	0
 9615 292b 46       		.uleb128 0x46
 9616 292c 3B150000 		.4byte	0x153b
 9617 2930 16060000 		.4byte	.LBB239
 9618 2934 48010000 		.4byte	.LBE239-.LBB239
 9619 2938 01       		.byte	0x1
 9620 2939 F506     		.2byte	0x6f5
 9621 293b AC2A0000 		.4byte	0x2aac
 9622 293f 30       		.uleb128 0x30
 9623 2940 63150000 		.4byte	0x1563
 9624 2944 241B0000 		.4byte	.LLST178
 9625 2948 30       		.uleb128 0x30
 9626 2949 57150000 		.4byte	0x1557
 9627 294d 371B0000 		.4byte	.LLST179
 9628 2951 30       		.uleb128 0x30
 9629 2952 4C150000 		.4byte	0x154c
 9630 2956 4A1B0000 		.4byte	.LLST180
 9631 295a 31       		.uleb128 0x31
 9632 295b 16060000 		.4byte	.LBB240
 9633 295f 48010000 		.4byte	.LBE240-.LBB240
 9634 2963 32       		.uleb128 0x32
 9635 2964 6F150000 		.4byte	0x156f
 9636 2968 5D1B0000 		.4byte	.LLST181
 9637 296c 3F       		.uleb128 0x3f
 9638 296d E9130000 		.4byte	0x13e9
 9639 2971 9E060000 		.4byte	.LBB241
 9640 2975 C0000000 		.4byte	.LBE241-.LBB241
 9641 2979 01       		.byte	0x1
 9642 297a 5003     		.2byte	0x350
 9643 297c 30       		.uleb128 0x30
 9644 297d 11140000 		.4byte	0x1411
 9645 2981 C01B0000 		.4byte	.LLST182
 9646 2985 30       		.uleb128 0x30
 9647 2986 05140000 		.4byte	0x1405
 9648 298a D31B0000 		.4byte	.LLST183
 9649 298e 30       		.uleb128 0x30
 9650 298f FA130000 		.4byte	0x13fa
 9651 2993 E61B0000 		.4byte	.LLST184
 9652 2997 31       		.uleb128 0x31
 9653 2998 9E060000 		.4byte	.LBB242
 9654 299c C0000000 		.4byte	.LBE242-.LBB242
 9655 29a0 32       		.uleb128 0x32
 9656 29a1 1D140000 		.4byte	0x141d
 9657 29a5 F91B0000 		.4byte	.LLST185
 9658 29a9 32       		.uleb128 0x32
 9659 29aa 28140000 		.4byte	0x1428
 9660 29ae 1B1C0000 		.4byte	.LLST186
 9661 29b2 32       		.uleb128 0x32
 9662 29b3 33140000 		.4byte	0x1433
 9663 29b7 2E1C0000 		.4byte	.LLST187
 9664 29bb 47       		.uleb128 0x47
 9665 29bc 3E140000 		.4byte	0x143e
 9666 29c0 02       		.uleb128 0x2
ARM GAS  C:\Users\164\AppData\Local\Temp\cc4PZf78.s 			page 216


 9667 29c1 91       		.byte	0x91
 9668 29c2 48       		.sleb128 -56
 9669 29c3 32       		.uleb128 0x32
 9670 29c4 4A140000 		.4byte	0x144a
 9671 29c8 411C0000 		.4byte	.LLST188
 9672 29cc 32       		.uleb128 0x32
 9673 29cd 56140000 		.4byte	0x1456
 9674 29d1 541C0000 		.4byte	.LLST189
 9675 29d5 32       		.uleb128 0x32
 9676 29d6 62140000 		.4byte	0x1462
 9677 29da 721C0000 		.4byte	.LLST190
 9678 29de 32       		.uleb128 0x32
 9679 29df 6E140000 		.4byte	0x146e
 9680 29e3 851C0000 		.4byte	.LLST191
 9681 29e7 3E       		.uleb128 0x3e
 9682 29e8 28070000 		.4byte	.LBB243
 9683 29ec 1C000000 		.4byte	.LBE243-.LBB243
 9684 29f0 162A0000 		.4byte	0x2a16
 9685 29f4 32       		.uleb128 0x32
 9686 29f5 79140000 		.4byte	0x1479
 9687 29f9 CF1C0000 		.4byte	.LLST192
 9688 29fd 48       		.uleb128 0x48
 9689 29fe 32070000 		.4byte	.LVL363
 9690 2a02 2B       		.uleb128 0x2b
 9691 2a03 01       		.uleb128 0x1
 9692 2a04 50       		.byte	0x50
 9693 2a05 02       		.uleb128 0x2
 9694 2a06 75       		.byte	0x75
 9695 2a07 00       		.sleb128 0
 9696 2a08 2B       		.uleb128 0x2b
 9697 2a09 01       		.uleb128 0x1
 9698 2a0a 51       		.byte	0x51
 9699 2a0b 02       		.uleb128 0x2
 9700 2a0c 78       		.byte	0x78
 9701 2a0d 00       		.sleb128 0
 9702 2a0e 2B       		.uleb128 0x2b
 9703 2a0f 01       		.uleb128 0x1
 9704 2a10 52       		.byte	0x52
 9705 2a11 02       		.uleb128 0x2
 9706 2a12 7A       		.byte	0x7a
 9707 2a13 00       		.sleb128 0
 9708 2a14 00       		.byte	0
 9709 2a15 00       		.byte	0
 9710 2a16 40       		.uleb128 0x40
 9711 2a17 D6060000 		.4byte	.LVL353
 9712 2a1b F73E0000 		.4byte	0x3ef7
 9713 2a1f 2D2A0000 		.4byte	0x2a2d
 9714 2a23 2B       		.uleb128 0x2b
 9715 2a24 01       		.uleb128 0x1
 9716 2a25 50       		.byte	0x50
 9717 2a26 05       		.uleb128 0x5
 9718 2a27 76       		.byte	0x76
 9719 2a28 00       		.sleb128 0
 9720 2a29 74       		.byte	0x74
 9721 2a2a 00       		.sleb128 0
 9722 2a2b 22       		.byte	0x22
 9723 2a2c 00       		.byte	0
ARM GAS  C:\Users\164\AppData\Local\Temp\cc4PZf78.s 			page 217


 9724 2a2d 40       		.uleb128 0x40
 9725 2a2e F2060000 		.4byte	.LVL354
 9726 2a32 8C0B0000 		.4byte	0xb8c
 9727 2a36 412A0000 		.4byte	0x2a41
 9728 2a3a 2B       		.uleb128 0x2b
 9729 2a3b 01       		.uleb128 0x1
 9730 2a3c 51       		.byte	0x51
 9731 2a3d 02       		.uleb128 0x2
 9732 2a3e 7B       		.byte	0x7b
 9733 2a3f 00       		.sleb128 0
 9734 2a40 00       		.byte	0
 9735 2a41 40       		.uleb128 0x40
 9736 2a42 F8060000 		.4byte	.LVL356
 9737 2a46 0D3F0000 		.4byte	0x3f0d
 9738 2a4a 552A0000 		.4byte	0x2a55
 9739 2a4e 2B       		.uleb128 0x2b
 9740 2a4f 01       		.uleb128 0x1
 9741 2a50 50       		.byte	0x50
 9742 2a51 02       		.uleb128 0x2
 9743 2a52 76       		.byte	0x76
 9744 2a53 00       		.sleb128 0
 9745 2a54 00       		.byte	0
 9746 2a55 40       		.uleb128 0x40
 9747 2a56 0E070000 		.4byte	.LVL358
 9748 2a5a 5A3F0000 		.4byte	0x3f5a
 9749 2a5e 692A0000 		.4byte	0x2a69
 9750 2a62 2B       		.uleb128 0x2b
 9751 2a63 01       		.uleb128 0x1
 9752 2a64 50       		.byte	0x50
 9753 2a65 02       		.uleb128 0x2
 9754 2a66 75       		.byte	0x75
 9755 2a67 00       		.sleb128 0
 9756 2a68 00       		.byte	0
 9757 2a69 40       		.uleb128 0x40
 9758 2a6a 1E070000 		.4byte	.LVL360
 9759 2a6e A13E0000 		.4byte	0x3ea1
 9760 2a72 922A0000 		.4byte	0x2a92
 9761 2a76 2B       		.uleb128 0x2b
 9762 2a77 01       		.uleb128 0x1
 9763 2a78 50       		.byte	0x50
 9764 2a79 05       		.uleb128 0x5
 9765 2a7a 03       		.byte	0x3
 9766 2a7b 4C000000 		.4byte	.LC3
 9767 2a7f 2B       		.uleb128 0x2b
 9768 2a80 01       		.uleb128 0x1
 9769 2a81 51       		.byte	0x51
 9770 2a82 08       		.uleb128 0x8
 9771 2a83 91       		.byte	0x91
 9772 2a84 48       		.sleb128 -56
 9773 2a85 94       		.byte	0x94
 9774 2a86 01       		.byte	0x1
 9775 2a87 48       		.byte	0x48
 9776 2a88 24       		.byte	0x24
 9777 2a89 48       		.byte	0x48
 9778 2a8a 26       		.byte	0x26
 9779 2a8b 2B       		.uleb128 0x2b
 9780 2a8c 01       		.uleb128 0x1
ARM GAS  C:\Users\164\AppData\Local\Temp\cc4PZf78.s 			page 218


 9781 2a8d 52       		.byte	0x52
 9782 2a8e 02       		.uleb128 0x2
 9783 2a8f 76       		.byte	0x76
 9784 2a90 00       		.sleb128 0
 9785 2a91 00       		.byte	0
 9786 2a92 2A       		.uleb128 0x2a
 9787 2a93 4C070000 		.4byte	.LVL368
 9788 2a97 B80C0000 		.4byte	0xcb8
 9789 2a9b 2B       		.uleb128 0x2b
 9790 2a9c 01       		.uleb128 0x1
 9791 2a9d 50       		.byte	0x50
 9792 2a9e 02       		.uleb128 0x2
 9793 2a9f 75       		.byte	0x75
 9794 2aa0 00       		.sleb128 0
 9795 2aa1 2B       		.uleb128 0x2b
 9796 2aa2 01       		.uleb128 0x1
 9797 2aa3 51       		.byte	0x51
 9798 2aa4 02       		.uleb128 0x2
 9799 2aa5 7A       		.byte	0x7a
 9800 2aa6 00       		.sleb128 0
 9801 2aa7 00       		.byte	0
 9802 2aa8 00       		.byte	0
 9803 2aa9 00       		.byte	0
 9804 2aaa 00       		.byte	0
 9805 2aab 00       		.byte	0
 9806 2aac 46       		.uleb128 0x46
 9807 2aad 7B150000 		.4byte	0x157b
 9808 2ab1 64070000 		.4byte	.LBB244
 9809 2ab5 3A000000 		.4byte	.LBE244-.LBB244
 9810 2ab9 01       		.byte	0x1
 9811 2aba F606     		.2byte	0x6f6
 9812 2abc F82A0000 		.4byte	0x2af8
 9813 2ac0 30       		.uleb128 0x30
 9814 2ac1 A3150000 		.4byte	0x15a3
 9815 2ac5 ED1C0000 		.4byte	.LLST193
 9816 2ac9 30       		.uleb128 0x30
 9817 2aca 97150000 		.4byte	0x1597
 9818 2ace 001D0000 		.4byte	.LLST194
 9819 2ad2 30       		.uleb128 0x30
 9820 2ad3 8C150000 		.4byte	0x158c
 9821 2ad7 1E1D0000 		.4byte	.LLST195
 9822 2adb 31       		.uleb128 0x31
 9823 2adc 64070000 		.4byte	.LBB245
 9824 2ae0 3A000000 		.4byte	.LBE245-.LBB245
 9825 2ae4 32       		.uleb128 0x32
 9826 2ae5 AF150000 		.4byte	0x15af
 9827 2ae9 311D0000 		.4byte	.LLST196
 9828 2aed 35       		.uleb128 0x35
 9829 2aee 9E070000 		.4byte	.LVL378
 9830 2af2 630B0000 		.4byte	0xb63
 9831 2af6 00       		.byte	0
 9832 2af7 00       		.byte	0
 9833 2af8 46       		.uleb128 0x46
 9834 2af9 BB150000 		.4byte	0x15bb
 9835 2afd A4070000 		.4byte	.LBB246
 9836 2b01 54010000 		.4byte	.LBE246-.LBB246
 9837 2b05 01       		.byte	0x1
ARM GAS  C:\Users\164\AppData\Local\Temp\cc4PZf78.s 			page 219


 9838 2b06 F706     		.2byte	0x6f7
 9839 2b08 982C0000 		.4byte	0x2c98
 9840 2b0c 30       		.uleb128 0x30
 9841 2b0d E3150000 		.4byte	0x15e3
 9842 2b11 621D0000 		.4byte	.LLST197
 9843 2b15 30       		.uleb128 0x30
 9844 2b16 D7150000 		.4byte	0x15d7
 9845 2b1a 751D0000 		.4byte	.LLST198
 9846 2b1e 30       		.uleb128 0x30
 9847 2b1f CC150000 		.4byte	0x15cc
 9848 2b23 881D0000 		.4byte	.LLST199
 9849 2b27 31       		.uleb128 0x31
 9850 2b28 A4070000 		.4byte	.LBB247
 9851 2b2c 54010000 		.4byte	.LBE247-.LBB247
 9852 2b30 32       		.uleb128 0x32
 9853 2b31 EF150000 		.4byte	0x15ef
 9854 2b35 9B1D0000 		.4byte	.LLST200
 9855 2b39 46       		.uleb128 0x46
 9856 2b3a E9130000 		.4byte	0x13e9
 9857 2b3e 30080000 		.4byte	.LBB248
 9858 2b42 BC000000 		.4byte	.LBE248-.LBB248
 9859 2b46 01       		.byte	0x1
 9860 2b47 9D03     		.2byte	0x39d
 9861 2b49 812C0000 		.4byte	0x2c81
 9862 2b4d 30       		.uleb128 0x30
 9863 2b4e 11140000 		.4byte	0x1411
 9864 2b52 C81D0000 		.4byte	.LLST201
 9865 2b56 30       		.uleb128 0x30
 9866 2b57 05140000 		.4byte	0x1405
 9867 2b5b DB1D0000 		.4byte	.LLST202
 9868 2b5f 30       		.uleb128 0x30
 9869 2b60 FA130000 		.4byte	0x13fa
 9870 2b64 EE1D0000 		.4byte	.LLST203
 9871 2b68 31       		.uleb128 0x31
 9872 2b69 30080000 		.4byte	.LBB249
 9873 2b6d BC000000 		.4byte	.LBE249-.LBB249
 9874 2b71 32       		.uleb128 0x32
 9875 2b72 1D140000 		.4byte	0x141d
 9876 2b76 011E0000 		.4byte	.LLST204
 9877 2b7a 32       		.uleb128 0x32
 9878 2b7b 28140000 		.4byte	0x1428
 9879 2b7f 231E0000 		.4byte	.LLST205
 9880 2b83 32       		.uleb128 0x32
 9881 2b84 33140000 		.4byte	0x1433
 9882 2b88 431E0000 		.4byte	.LLST206
 9883 2b8c 47       		.uleb128 0x47
 9884 2b8d 3E140000 		.4byte	0x143e
 9885 2b91 02       		.uleb128 0x2
 9886 2b92 91       		.byte	0x91
 9887 2b93 48       		.sleb128 -56
 9888 2b94 32       		.uleb128 0x32
 9889 2b95 4A140000 		.4byte	0x144a
 9890 2b99 561E0000 		.4byte	.LLST207
 9891 2b9d 32       		.uleb128 0x32
 9892 2b9e 56140000 		.4byte	0x1456
 9893 2ba2 691E0000 		.4byte	.LLST208
 9894 2ba6 32       		.uleb128 0x32
ARM GAS  C:\Users\164\AppData\Local\Temp\cc4PZf78.s 			page 220


 9895 2ba7 62140000 		.4byte	0x1462
 9896 2bab 891E0000 		.4byte	.LLST209
 9897 2baf 32       		.uleb128 0x32
 9898 2bb0 6E140000 		.4byte	0x146e
 9899 2bb4 9C1E0000 		.4byte	.LLST210
 9900 2bb8 3E       		.uleb128 0x3e
 9901 2bb9 BC080000 		.4byte	.LBB250
 9902 2bbd 16000000 		.4byte	.LBE250-.LBB250
 9903 2bc1 E72B0000 		.4byte	0x2be7
 9904 2bc5 32       		.uleb128 0x32
 9905 2bc6 79140000 		.4byte	0x1479
 9906 2bca E61E0000 		.4byte	.LLST211
 9907 2bce 48       		.uleb128 0x48
 9908 2bcf C6080000 		.4byte	.LVL408
 9909 2bd3 2B       		.uleb128 0x2b
 9910 2bd4 01       		.uleb128 0x1
 9911 2bd5 50       		.byte	0x50
 9912 2bd6 02       		.uleb128 0x2
 9913 2bd7 75       		.byte	0x75
 9914 2bd8 00       		.sleb128 0
 9915 2bd9 2B       		.uleb128 0x2b
 9916 2bda 01       		.uleb128 0x1
 9917 2bdb 51       		.byte	0x51
 9918 2bdc 02       		.uleb128 0x2
 9919 2bdd 79       		.byte	0x79
 9920 2bde 00       		.sleb128 0
 9921 2bdf 2B       		.uleb128 0x2b
 9922 2be0 01       		.uleb128 0x1
 9923 2be1 52       		.byte	0x52
 9924 2be2 02       		.uleb128 0x2
 9925 2be3 7B       		.byte	0x7b
 9926 2be4 00       		.sleb128 0
 9927 2be5 00       		.byte	0
 9928 2be6 00       		.byte	0
 9929 2be7 40       		.uleb128 0x40
 9930 2be8 6A080000 		.4byte	.LVL398
 9931 2bec F73E0000 		.4byte	0x3ef7
 9932 2bf0 FE2B0000 		.4byte	0x2bfe
 9933 2bf4 2B       		.uleb128 0x2b
 9934 2bf5 01       		.uleb128 0x1
 9935 2bf6 50       		.byte	0x50
 9936 2bf7 05       		.uleb128 0x5
 9937 2bf8 76       		.byte	0x76
 9938 2bf9 00       		.sleb128 0
 9939 2bfa 74       		.byte	0x74
 9940 2bfb 00       		.sleb128 0
 9941 2bfc 22       		.byte	0x22
 9942 2bfd 00       		.byte	0
 9943 2bfe 40       		.uleb128 0x40
 9944 2bff 86080000 		.4byte	.LVL399
 9945 2c03 8C0B0000 		.4byte	0xb8c
 9946 2c07 142C0000 		.4byte	0x2c14
 9947 2c0b 2B       		.uleb128 0x2b
 9948 2c0c 01       		.uleb128 0x1
 9949 2c0d 51       		.byte	0x51
 9950 2c0e 04       		.uleb128 0x4
 9951 2c0f 91       		.byte	0x91
ARM GAS  C:\Users\164\AppData\Local\Temp\cc4PZf78.s 			page 221


 9952 2c10 B47F     		.sleb128 -76
 9953 2c12 06       		.byte	0x6
 9954 2c13 00       		.byte	0
 9955 2c14 40       		.uleb128 0x40
 9956 2c15 8C080000 		.4byte	.LVL401
 9957 2c19 0D3F0000 		.4byte	0x3f0d
 9958 2c1d 2A2C0000 		.4byte	0x2c2a
 9959 2c21 2B       		.uleb128 0x2b
 9960 2c22 01       		.uleb128 0x1
 9961 2c23 50       		.byte	0x50
 9962 2c24 04       		.uleb128 0x4
 9963 2c25 91       		.byte	0x91
 9964 2c26 B47F     		.sleb128 -76
 9965 2c28 06       		.byte	0x6
 9966 2c29 00       		.byte	0
 9967 2c2a 40       		.uleb128 0x40
 9968 2c2b A2080000 		.4byte	.LVL403
 9969 2c2f 5A3F0000 		.4byte	0x3f5a
 9970 2c33 3E2C0000 		.4byte	0x2c3e
 9971 2c37 2B       		.uleb128 0x2b
 9972 2c38 01       		.uleb128 0x1
 9973 2c39 50       		.byte	0x50
 9974 2c3a 02       		.uleb128 0x2
 9975 2c3b 75       		.byte	0x75
 9976 2c3c 00       		.sleb128 0
 9977 2c3d 00       		.byte	0
 9978 2c3e 40       		.uleb128 0x40
 9979 2c3f B2080000 		.4byte	.LVL405
 9980 2c43 A13E0000 		.4byte	0x3ea1
 9981 2c47 692C0000 		.4byte	0x2c69
 9982 2c4b 2B       		.uleb128 0x2b
 9983 2c4c 01       		.uleb128 0x1
 9984 2c4d 50       		.byte	0x50
 9985 2c4e 05       		.uleb128 0x5
 9986 2c4f 03       		.byte	0x3
 9987 2c50 4C000000 		.4byte	.LC3
 9988 2c54 2B       		.uleb128 0x2b
 9989 2c55 01       		.uleb128 0x1
 9990 2c56 51       		.byte	0x51
 9991 2c57 08       		.uleb128 0x8
 9992 2c58 91       		.byte	0x91
 9993 2c59 48       		.sleb128 -56
 9994 2c5a 94       		.byte	0x94
 9995 2c5b 01       		.byte	0x1
 9996 2c5c 48       		.byte	0x48
 9997 2c5d 24       		.byte	0x24
 9998 2c5e 48       		.byte	0x48
 9999 2c5f 26       		.byte	0x26
 10000 2c60 2B       		.uleb128 0x2b
 10001 2c61 01       		.uleb128 0x1
 10002 2c62 52       		.byte	0x52
 10003 2c63 04       		.uleb128 0x4
 10004 2c64 91       		.byte	0x91
 10005 2c65 B47F     		.sleb128 -76
 10006 2c67 06       		.byte	0x6
 10007 2c68 00       		.byte	0
 10008 2c69 2A       		.uleb128 0x2a
ARM GAS  C:\Users\164\AppData\Local\Temp\cc4PZf78.s 			page 222


 10009 2c6a DA080000 		.4byte	.LVL413
 10010 2c6e B80C0000 		.4byte	0xcb8
 10011 2c72 2B       		.uleb128 0x2b
 10012 2c73 01       		.uleb128 0x1
 10013 2c74 50       		.byte	0x50
 10014 2c75 02       		.uleb128 0x2
 10015 2c76 75       		.byte	0x75
 10016 2c77 00       		.sleb128 0
 10017 2c78 2B       		.uleb128 0x2b
 10018 2c79 01       		.uleb128 0x1
 10019 2c7a 51       		.byte	0x51
 10020 2c7b 02       		.uleb128 0x2
 10021 2c7c 7B       		.byte	0x7b
 10022 2c7d 00       		.sleb128 0
 10023 2c7e 00       		.byte	0
 10024 2c7f 00       		.byte	0
 10025 2c80 00       		.byte	0
 10026 2c81 2A       		.uleb128 0x2a
 10027 2c82 F8080000 		.4byte	.LVL415
 10028 2c86 F73E0000 		.4byte	0x3ef7
 10029 2c8a 2B       		.uleb128 0x2b
 10030 2c8b 01       		.uleb128 0x1
 10031 2c8c 50       		.byte	0x50
 10032 2c8d 07       		.uleb128 0x7
 10033 2c8e 78       		.byte	0x78
 10034 2c8f 01       		.sleb128 1
 10035 2c90 34       		.byte	0x34
 10036 2c91 24       		.byte	0x24
 10037 2c92 76       		.byte	0x76
 10038 2c93 00       		.sleb128 0
 10039 2c94 22       		.byte	0x22
 10040 2c95 00       		.byte	0
 10041 2c96 00       		.byte	0
 10042 2c97 00       		.byte	0
 10043 2c98 46       		.uleb128 0x46
 10044 2c99 FB150000 		.4byte	0x15fb
 10045 2c9d FE080000 		.4byte	.LBB251
 10046 2ca1 3A000000 		.4byte	.LBE251-.LBB251
 10047 2ca5 01       		.byte	0x1
 10048 2ca6 F806     		.2byte	0x6f8
 10049 2ca8 E42C0000 		.4byte	0x2ce4
 10050 2cac 30       		.uleb128 0x30
 10051 2cad 23160000 		.4byte	0x1623
 10052 2cb1 041F0000 		.4byte	.LLST212
 10053 2cb5 30       		.uleb128 0x30
 10054 2cb6 17160000 		.4byte	0x1617
 10055 2cba 171F0000 		.4byte	.LLST213
 10056 2cbe 30       		.uleb128 0x30
 10057 2cbf 0C160000 		.4byte	0x160c
 10058 2cc3 351F0000 		.4byte	.LLST214
 10059 2cc7 31       		.uleb128 0x31
 10060 2cc8 FE080000 		.4byte	.LBB252
 10061 2ccc 3A000000 		.4byte	.LBE252-.LBB252
 10062 2cd0 32       		.uleb128 0x32
 10063 2cd1 2F160000 		.4byte	0x162f
 10064 2cd5 481F0000 		.4byte	.LLST215
 10065 2cd9 35       		.uleb128 0x35
ARM GAS  C:\Users\164\AppData\Local\Temp\cc4PZf78.s 			page 223


 10066 2cda 38090000 		.4byte	.LVL424
 10067 2cde 630B0000 		.4byte	0xb63
 10068 2ce2 00       		.byte	0
 10069 2ce3 00       		.byte	0
 10070 2ce4 46       		.uleb128 0x46
 10071 2ce5 3B160000 		.4byte	0x163b
 10072 2ce9 3E090000 		.4byte	.LBB253
 10073 2ced 56010000 		.4byte	.LBE253-.LBB253
 10074 2cf1 01       		.byte	0x1
 10075 2cf2 F906     		.2byte	0x6f9
 10076 2cf4 842E0000 		.4byte	0x2e84
 10077 2cf8 30       		.uleb128 0x30
 10078 2cf9 63160000 		.4byte	0x1663
 10079 2cfd 791F0000 		.4byte	.LLST216
 10080 2d01 30       		.uleb128 0x30
 10081 2d02 57160000 		.4byte	0x1657
 10082 2d06 8C1F0000 		.4byte	.LLST217
 10083 2d0a 30       		.uleb128 0x30
 10084 2d0b 4C160000 		.4byte	0x164c
 10085 2d0f 9F1F0000 		.4byte	.LLST218
 10086 2d13 31       		.uleb128 0x31
 10087 2d14 3E090000 		.4byte	.LBB254
 10088 2d18 56010000 		.4byte	.LBE254-.LBB254
 10089 2d1c 32       		.uleb128 0x32
 10090 2d1d 6F160000 		.4byte	0x166f
 10091 2d21 B21F0000 		.4byte	.LLST219
 10092 2d25 46       		.uleb128 0x46
 10093 2d26 E9130000 		.4byte	0x13e9
 10094 2d2a CC090000 		.4byte	.LBB255
 10095 2d2e BC000000 		.4byte	.LBE255-.LBB255
 10096 2d32 01       		.byte	0x1
 10097 2d33 EB03     		.2byte	0x3eb
 10098 2d35 6D2E0000 		.4byte	0x2e6d
 10099 2d39 30       		.uleb128 0x30
 10100 2d3a 11140000 		.4byte	0x1411
 10101 2d3e DF1F0000 		.4byte	.LLST220
 10102 2d42 30       		.uleb128 0x30
 10103 2d43 05140000 		.4byte	0x1405
 10104 2d47 F21F0000 		.4byte	.LLST221
 10105 2d4b 30       		.uleb128 0x30
 10106 2d4c FA130000 		.4byte	0x13fa
 10107 2d50 05200000 		.4byte	.LLST222
 10108 2d54 31       		.uleb128 0x31
 10109 2d55 CC090000 		.4byte	.LBB256
 10110 2d59 BC000000 		.4byte	.LBE256-.LBB256
 10111 2d5d 32       		.uleb128 0x32
 10112 2d5e 1D140000 		.4byte	0x141d
 10113 2d62 18200000 		.4byte	.LLST223
 10114 2d66 32       		.uleb128 0x32
 10115 2d67 28140000 		.4byte	0x1428
 10116 2d6b 3A200000 		.4byte	.LLST224
 10117 2d6f 32       		.uleb128 0x32
 10118 2d70 33140000 		.4byte	0x1433
 10119 2d74 5A200000 		.4byte	.LLST225
 10120 2d78 47       		.uleb128 0x47
 10121 2d79 3E140000 		.4byte	0x143e
 10122 2d7d 02       		.uleb128 0x2
ARM GAS  C:\Users\164\AppData\Local\Temp\cc4PZf78.s 			page 224


 10123 2d7e 91       		.byte	0x91
 10124 2d7f 48       		.sleb128 -56
 10125 2d80 32       		.uleb128 0x32
 10126 2d81 4A140000 		.4byte	0x144a
 10127 2d85 6D200000 		.4byte	.LLST226
 10128 2d89 32       		.uleb128 0x32
 10129 2d8a 56140000 		.4byte	0x1456
 10130 2d8e 80200000 		.4byte	.LLST227
 10131 2d92 32       		.uleb128 0x32
 10132 2d93 62140000 		.4byte	0x1462
 10133 2d97 A0200000 		.4byte	.LLST228
 10134 2d9b 32       		.uleb128 0x32
 10135 2d9c 6E140000 		.4byte	0x146e
 10136 2da0 B3200000 		.4byte	.LLST229
 10137 2da4 3E       		.uleb128 0x3e
 10138 2da5 580A0000 		.4byte	.LBB257
 10139 2da9 16000000 		.4byte	.LBE257-.LBB257
 10140 2dad D32D0000 		.4byte	0x2dd3
 10141 2db1 32       		.uleb128 0x32
 10142 2db2 79140000 		.4byte	0x1479
 10143 2db6 FD200000 		.4byte	.LLST230
 10144 2dba 48       		.uleb128 0x48
 10145 2dbb 620A0000 		.4byte	.LVL454
 10146 2dbf 2B       		.uleb128 0x2b
 10147 2dc0 01       		.uleb128 0x1
 10148 2dc1 50       		.byte	0x50
 10149 2dc2 02       		.uleb128 0x2
 10150 2dc3 75       		.byte	0x75
 10151 2dc4 00       		.sleb128 0
 10152 2dc5 2B       		.uleb128 0x2b
 10153 2dc6 01       		.uleb128 0x1
 10154 2dc7 51       		.byte	0x51
 10155 2dc8 02       		.uleb128 0x2
 10156 2dc9 79       		.byte	0x79
 10157 2dca 00       		.sleb128 0
 10158 2dcb 2B       		.uleb128 0x2b
 10159 2dcc 01       		.uleb128 0x1
 10160 2dcd 52       		.byte	0x52
 10161 2dce 02       		.uleb128 0x2
 10162 2dcf 7B       		.byte	0x7b
 10163 2dd0 00       		.sleb128 0
 10164 2dd1 00       		.byte	0
 10165 2dd2 00       		.byte	0
 10166 2dd3 40       		.uleb128 0x40
 10167 2dd4 060A0000 		.4byte	.LVL444
 10168 2dd8 F73E0000 		.4byte	0x3ef7
 10169 2ddc EA2D0000 		.4byte	0x2dea
 10170 2de0 2B       		.uleb128 0x2b
 10171 2de1 01       		.uleb128 0x1
 10172 2de2 50       		.byte	0x50
 10173 2de3 05       		.uleb128 0x5
 10174 2de4 76       		.byte	0x76
 10175 2de5 00       		.sleb128 0
 10176 2de6 74       		.byte	0x74
 10177 2de7 00       		.sleb128 0
 10178 2de8 22       		.byte	0x22
 10179 2de9 00       		.byte	0
ARM GAS  C:\Users\164\AppData\Local\Temp\cc4PZf78.s 			page 225


 10180 2dea 40       		.uleb128 0x40
 10181 2deb 220A0000 		.4byte	.LVL445
 10182 2def 8C0B0000 		.4byte	0xb8c
 10183 2df3 002E0000 		.4byte	0x2e00
 10184 2df7 2B       		.uleb128 0x2b
 10185 2df8 01       		.uleb128 0x1
 10186 2df9 51       		.byte	0x51
 10187 2dfa 04       		.uleb128 0x4
 10188 2dfb 91       		.byte	0x91
 10189 2dfc B47F     		.sleb128 -76
 10190 2dfe 06       		.byte	0x6
 10191 2dff 00       		.byte	0
 10192 2e00 40       		.uleb128 0x40
 10193 2e01 280A0000 		.4byte	.LVL447
 10194 2e05 0D3F0000 		.4byte	0x3f0d
 10195 2e09 162E0000 		.4byte	0x2e16
 10196 2e0d 2B       		.uleb128 0x2b
 10197 2e0e 01       		.uleb128 0x1
 10198 2e0f 50       		.byte	0x50
 10199 2e10 04       		.uleb128 0x4
 10200 2e11 91       		.byte	0x91
 10201 2e12 B47F     		.sleb128 -76
 10202 2e14 06       		.byte	0x6
 10203 2e15 00       		.byte	0
 10204 2e16 40       		.uleb128 0x40
 10205 2e17 3E0A0000 		.4byte	.LVL449
 10206 2e1b 5A3F0000 		.4byte	0x3f5a
 10207 2e1f 2A2E0000 		.4byte	0x2e2a
 10208 2e23 2B       		.uleb128 0x2b
 10209 2e24 01       		.uleb128 0x1
 10210 2e25 50       		.byte	0x50
 10211 2e26 02       		.uleb128 0x2
 10212 2e27 75       		.byte	0x75
 10213 2e28 00       		.sleb128 0
 10214 2e29 00       		.byte	0
 10215 2e2a 40       		.uleb128 0x40
 10216 2e2b 4E0A0000 		.4byte	.LVL451
 10217 2e2f A13E0000 		.4byte	0x3ea1
 10218 2e33 552E0000 		.4byte	0x2e55
 10219 2e37 2B       		.uleb128 0x2b
 10220 2e38 01       		.uleb128 0x1
 10221 2e39 50       		.byte	0x50
 10222 2e3a 05       		.uleb128 0x5
 10223 2e3b 03       		.byte	0x3
 10224 2e3c 4C000000 		.4byte	.LC3
 10225 2e40 2B       		.uleb128 0x2b
 10226 2e41 01       		.uleb128 0x1
 10227 2e42 51       		.byte	0x51
 10228 2e43 08       		.uleb128 0x8
 10229 2e44 91       		.byte	0x91
 10230 2e45 48       		.sleb128 -56
 10231 2e46 94       		.byte	0x94
 10232 2e47 01       		.byte	0x1
 10233 2e48 48       		.byte	0x48
 10234 2e49 24       		.byte	0x24
 10235 2e4a 48       		.byte	0x48
 10236 2e4b 26       		.byte	0x26
ARM GAS  C:\Users\164\AppData\Local\Temp\cc4PZf78.s 			page 226


 10237 2e4c 2B       		.uleb128 0x2b
 10238 2e4d 01       		.uleb128 0x1
 10239 2e4e 52       		.byte	0x52
 10240 2e4f 04       		.uleb128 0x4
 10241 2e50 91       		.byte	0x91
 10242 2e51 B47F     		.sleb128 -76
 10243 2e53 06       		.byte	0x6
 10244 2e54 00       		.byte	0
 10245 2e55 2A       		.uleb128 0x2a
 10246 2e56 760A0000 		.4byte	.LVL459
 10247 2e5a B80C0000 		.4byte	0xcb8
 10248 2e5e 2B       		.uleb128 0x2b
 10249 2e5f 01       		.uleb128 0x1
 10250 2e60 50       		.byte	0x50
 10251 2e61 02       		.uleb128 0x2
 10252 2e62 75       		.byte	0x75
 10253 2e63 00       		.sleb128 0
 10254 2e64 2B       		.uleb128 0x2b
 10255 2e65 01       		.uleb128 0x1
 10256 2e66 51       		.byte	0x51
 10257 2e67 02       		.uleb128 0x2
 10258 2e68 7B       		.byte	0x7b
 10259 2e69 00       		.sleb128 0
 10260 2e6a 00       		.byte	0
 10261 2e6b 00       		.byte	0
 10262 2e6c 00       		.byte	0
 10263 2e6d 2A       		.uleb128 0x2a
 10264 2e6e 940A0000 		.4byte	.LVL461
 10265 2e72 F73E0000 		.4byte	0x3ef7
 10266 2e76 2B       		.uleb128 0x2b
 10267 2e77 01       		.uleb128 0x1
 10268 2e78 50       		.byte	0x50
 10269 2e79 07       		.uleb128 0x7
 10270 2e7a 78       		.byte	0x78
 10271 2e7b 01       		.sleb128 1
 10272 2e7c 34       		.byte	0x34
 10273 2e7d 24       		.byte	0x24
 10274 2e7e 76       		.byte	0x76
 10275 2e7f 00       		.sleb128 0
 10276 2e80 22       		.byte	0x22
 10277 2e81 00       		.byte	0
 10278 2e82 00       		.byte	0
 10279 2e83 00       		.byte	0
 10280 2e84 46       		.uleb128 0x46
 10281 2e85 7B160000 		.4byte	0x167b
 10282 2e89 9A0A0000 		.4byte	.LBB258
 10283 2e8d 5A010000 		.4byte	.LBE258-.LBB258
 10284 2e91 01       		.byte	0x1
 10285 2e92 FA06     		.2byte	0x6fa
 10286 2e94 24300000 		.4byte	0x3024
 10287 2e98 30       		.uleb128 0x30
 10288 2e99 A3160000 		.4byte	0x16a3
 10289 2e9d 1B210000 		.4byte	.LLST231
 10290 2ea1 30       		.uleb128 0x30
 10291 2ea2 97160000 		.4byte	0x1697
 10292 2ea6 2E210000 		.4byte	.LLST232
 10293 2eaa 30       		.uleb128 0x30
ARM GAS  C:\Users\164\AppData\Local\Temp\cc4PZf78.s 			page 227


 10294 2eab 8C160000 		.4byte	0x168c
 10295 2eaf 41210000 		.4byte	.LLST233
 10296 2eb3 31       		.uleb128 0x31
 10297 2eb4 9A0A0000 		.4byte	.LBB259
 10298 2eb8 5A010000 		.4byte	.LBE259-.LBB259
 10299 2ebc 32       		.uleb128 0x32
 10300 2ebd AF160000 		.4byte	0x16af
 10301 2ec1 54210000 		.4byte	.LLST234
 10302 2ec5 46       		.uleb128 0x46
 10303 2ec6 E9130000 		.4byte	0x13e9
 10304 2eca 280B0000 		.4byte	.LBB260
 10305 2ece C0000000 		.4byte	.LBE260-.LBB260
 10306 2ed2 01       		.byte	0x1
 10307 2ed3 1904     		.2byte	0x419
 10308 2ed5 0D300000 		.4byte	0x300d
 10309 2ed9 30       		.uleb128 0x30
 10310 2eda 11140000 		.4byte	0x1411
 10311 2ede 81210000 		.4byte	.LLST235
 10312 2ee2 30       		.uleb128 0x30
 10313 2ee3 05140000 		.4byte	0x1405
 10314 2ee7 94210000 		.4byte	.LLST236
 10315 2eeb 30       		.uleb128 0x30
 10316 2eec FA130000 		.4byte	0x13fa
 10317 2ef0 A7210000 		.4byte	.LLST237
 10318 2ef4 31       		.uleb128 0x31
 10319 2ef5 280B0000 		.4byte	.LBB261
 10320 2ef9 C0000000 		.4byte	.LBE261-.LBB261
 10321 2efd 32       		.uleb128 0x32
 10322 2efe 1D140000 		.4byte	0x141d
 10323 2f02 BA210000 		.4byte	.LLST238
 10324 2f06 32       		.uleb128 0x32
 10325 2f07 28140000 		.4byte	0x1428
 10326 2f0b DC210000 		.4byte	.LLST239
 10327 2f0f 32       		.uleb128 0x32
 10328 2f10 33140000 		.4byte	0x1433
 10329 2f14 FC210000 		.4byte	.LLST240
 10330 2f18 47       		.uleb128 0x47
 10331 2f19 3E140000 		.4byte	0x143e
 10332 2f1d 02       		.uleb128 0x2
 10333 2f1e 91       		.byte	0x91
 10334 2f1f 48       		.sleb128 -56
 10335 2f20 32       		.uleb128 0x32
 10336 2f21 4A140000 		.4byte	0x144a
 10337 2f25 0F220000 		.4byte	.LLST241
 10338 2f29 32       		.uleb128 0x32
 10339 2f2a 56140000 		.4byte	0x1456
 10340 2f2e 22220000 		.4byte	.LLST242
 10341 2f32 32       		.uleb128 0x32
 10342 2f33 62140000 		.4byte	0x1462
 10343 2f37 42220000 		.4byte	.LLST243
 10344 2f3b 32       		.uleb128 0x32
 10345 2f3c 6E140000 		.4byte	0x146e
 10346 2f40 55220000 		.4byte	.LLST244
 10347 2f44 3E       		.uleb128 0x3e
 10348 2f45 B80B0000 		.4byte	.LBB262
 10349 2f49 16000000 		.4byte	.LBE262-.LBB262
 10350 2f4d 732F0000 		.4byte	0x2f73
ARM GAS  C:\Users\164\AppData\Local\Temp\cc4PZf78.s 			page 228


 10351 2f51 32       		.uleb128 0x32
 10352 2f52 79140000 		.4byte	0x1479
 10353 2f56 9F220000 		.4byte	.LLST245
 10354 2f5a 48       		.uleb128 0x48
 10355 2f5b C20B0000 		.4byte	.LVL491
 10356 2f5f 2B       		.uleb128 0x2b
 10357 2f60 01       		.uleb128 0x1
 10358 2f61 50       		.byte	0x50
 10359 2f62 02       		.uleb128 0x2
 10360 2f63 75       		.byte	0x75
 10361 2f64 00       		.sleb128 0
 10362 2f65 2B       		.uleb128 0x2b
 10363 2f66 01       		.uleb128 0x1
 10364 2f67 51       		.byte	0x51
 10365 2f68 02       		.uleb128 0x2
 10366 2f69 79       		.byte	0x79
 10367 2f6a 00       		.sleb128 0
 10368 2f6b 2B       		.uleb128 0x2b
 10369 2f6c 01       		.uleb128 0x1
 10370 2f6d 52       		.byte	0x52
 10371 2f6e 02       		.uleb128 0x2
 10372 2f6f 7B       		.byte	0x7b
 10373 2f70 00       		.sleb128 0
 10374 2f71 00       		.byte	0
 10375 2f72 00       		.byte	0
 10376 2f73 40       		.uleb128 0x40
 10377 2f74 620B0000 		.4byte	.LVL481
 10378 2f78 F73E0000 		.4byte	0x3ef7
 10379 2f7c 8A2F0000 		.4byte	0x2f8a
 10380 2f80 2B       		.uleb128 0x2b
 10381 2f81 01       		.uleb128 0x1
 10382 2f82 50       		.byte	0x50
 10383 2f83 05       		.uleb128 0x5
 10384 2f84 76       		.byte	0x76
 10385 2f85 00       		.sleb128 0
 10386 2f86 74       		.byte	0x74
 10387 2f87 00       		.sleb128 0
 10388 2f88 22       		.byte	0x22
 10389 2f89 00       		.byte	0
 10390 2f8a 40       		.uleb128 0x40
 10391 2f8b 820B0000 		.4byte	.LVL482
 10392 2f8f 8C0B0000 		.4byte	0xb8c
 10393 2f93 A02F0000 		.4byte	0x2fa0
 10394 2f97 2B       		.uleb128 0x2b
 10395 2f98 01       		.uleb128 0x1
 10396 2f99 51       		.byte	0x51
 10397 2f9a 04       		.uleb128 0x4
 10398 2f9b 91       		.byte	0x91
 10399 2f9c B47F     		.sleb128 -76
 10400 2f9e 06       		.byte	0x6
 10401 2f9f 00       		.byte	0
 10402 2fa0 40       		.uleb128 0x40
 10403 2fa1 880B0000 		.4byte	.LVL484
 10404 2fa5 0D3F0000 		.4byte	0x3f0d
 10405 2fa9 B62F0000 		.4byte	0x2fb6
 10406 2fad 2B       		.uleb128 0x2b
 10407 2fae 01       		.uleb128 0x1
ARM GAS  C:\Users\164\AppData\Local\Temp\cc4PZf78.s 			page 229


 10408 2faf 50       		.byte	0x50
 10409 2fb0 04       		.uleb128 0x4
 10410 2fb1 91       		.byte	0x91
 10411 2fb2 B47F     		.sleb128 -76
 10412 2fb4 06       		.byte	0x6
 10413 2fb5 00       		.byte	0
 10414 2fb6 40       		.uleb128 0x40
 10415 2fb7 9E0B0000 		.4byte	.LVL486
 10416 2fbb 5A3F0000 		.4byte	0x3f5a
 10417 2fbf CA2F0000 		.4byte	0x2fca
 10418 2fc3 2B       		.uleb128 0x2b
 10419 2fc4 01       		.uleb128 0x1
 10420 2fc5 50       		.byte	0x50
 10421 2fc6 02       		.uleb128 0x2
 10422 2fc7 75       		.byte	0x75
 10423 2fc8 00       		.sleb128 0
 10424 2fc9 00       		.byte	0
 10425 2fca 40       		.uleb128 0x40
 10426 2fcb AE0B0000 		.4byte	.LVL488
 10427 2fcf A13E0000 		.4byte	0x3ea1
 10428 2fd3 F52F0000 		.4byte	0x2ff5
 10429 2fd7 2B       		.uleb128 0x2b
 10430 2fd8 01       		.uleb128 0x1
 10431 2fd9 50       		.byte	0x50
 10432 2fda 05       		.uleb128 0x5
 10433 2fdb 03       		.byte	0x3
 10434 2fdc 4C000000 		.4byte	.LC3
 10435 2fe0 2B       		.uleb128 0x2b
 10436 2fe1 01       		.uleb128 0x1
 10437 2fe2 51       		.byte	0x51
 10438 2fe3 08       		.uleb128 0x8
 10439 2fe4 91       		.byte	0x91
 10440 2fe5 48       		.sleb128 -56
 10441 2fe6 94       		.byte	0x94
 10442 2fe7 01       		.byte	0x1
 10443 2fe8 48       		.byte	0x48
 10444 2fe9 24       		.byte	0x24
 10445 2fea 48       		.byte	0x48
 10446 2feb 26       		.byte	0x26
 10447 2fec 2B       		.uleb128 0x2b
 10448 2fed 01       		.uleb128 0x1
 10449 2fee 52       		.byte	0x52
 10450 2fef 04       		.uleb128 0x4
 10451 2ff0 91       		.byte	0x91
 10452 2ff1 B47F     		.sleb128 -76
 10453 2ff3 06       		.byte	0x6
 10454 2ff4 00       		.byte	0
 10455 2ff5 2A       		.uleb128 0x2a
 10456 2ff6 D60B0000 		.4byte	.LVL496
 10457 2ffa B80C0000 		.4byte	0xcb8
 10458 2ffe 2B       		.uleb128 0x2b
 10459 2fff 01       		.uleb128 0x1
 10460 3000 50       		.byte	0x50
 10461 3001 02       		.uleb128 0x2
 10462 3002 75       		.byte	0x75
 10463 3003 00       		.sleb128 0
 10464 3004 2B       		.uleb128 0x2b
ARM GAS  C:\Users\164\AppData\Local\Temp\cc4PZf78.s 			page 230


 10465 3005 01       		.uleb128 0x1
 10466 3006 51       		.byte	0x51
 10467 3007 02       		.uleb128 0x2
 10468 3008 7B       		.byte	0x7b
 10469 3009 00       		.sleb128 0
 10470 300a 00       		.byte	0
 10471 300b 00       		.byte	0
 10472 300c 00       		.byte	0
 10473 300d 2A       		.uleb128 0x2a
 10474 300e F40B0000 		.4byte	.LVL498
 10475 3012 F73E0000 		.4byte	0x3ef7
 10476 3016 2B       		.uleb128 0x2b
 10477 3017 01       		.uleb128 0x1
 10478 3018 50       		.byte	0x50
 10479 3019 07       		.uleb128 0x7
 10480 301a 78       		.byte	0x78
 10481 301b 01       		.sleb128 1
 10482 301c 34       		.byte	0x34
 10483 301d 24       		.byte	0x24
 10484 301e 76       		.byte	0x76
 10485 301f 00       		.sleb128 0
 10486 3020 22       		.byte	0x22
 10487 3021 00       		.byte	0
 10488 3022 00       		.byte	0
 10489 3023 00       		.byte	0
 10490 3024 46       		.uleb128 0x46
 10491 3025 BB160000 		.4byte	0x16bb
 10492 3029 FA0B0000 		.4byte	.LBB263
 10493 302d 32000000 		.4byte	.LBE263-.LBB263
 10494 3031 01       		.byte	0x1
 10495 3032 FB06     		.2byte	0x6fb
 10496 3034 AE300000 		.4byte	0x30ae
 10497 3038 30       		.uleb128 0x30
 10498 3039 E3160000 		.4byte	0x16e3
 10499 303d BD220000 		.4byte	.LLST246
 10500 3041 30       		.uleb128 0x30
 10501 3042 D7160000 		.4byte	0x16d7
 10502 3046 D0220000 		.4byte	.LLST247
 10503 304a 30       		.uleb128 0x30
 10504 304b CC160000 		.4byte	0x16cc
 10505 304f E3220000 		.4byte	.LLST248
 10506 3053 31       		.uleb128 0x31
 10507 3054 FA0B0000 		.4byte	.LBB264
 10508 3058 32000000 		.4byte	.LBE264-.LBB264
 10509 305c 32       		.uleb128 0x32
 10510 305d EF160000 		.4byte	0x16ef
 10511 3061 F6220000 		.4byte	.LLST249
 10512 3065 32       		.uleb128 0x32
 10513 3066 FA160000 		.4byte	0x16fa
 10514 306a 16230000 		.4byte	.LLST250
 10515 306e 40       		.uleb128 0x40
 10516 306f 100C0000 		.4byte	.LVL504
 10517 3073 653F0000 		.4byte	0x3f65
 10518 3077 88300000 		.4byte	0x3088
 10519 307b 2B       		.uleb128 0x2b
 10520 307c 01       		.uleb128 0x1
 10521 307d 50       		.byte	0x50
ARM GAS  C:\Users\164\AppData\Local\Temp\cc4PZf78.s 			page 231


 10522 307e 02       		.uleb128 0x2
 10523 307f 78       		.byte	0x78
 10524 3080 00       		.sleb128 0
 10525 3081 2B       		.uleb128 0x2b
 10526 3082 01       		.uleb128 0x1
 10527 3083 51       		.byte	0x51
 10528 3084 02       		.uleb128 0x2
 10529 3085 74       		.byte	0x74
 10530 3086 00       		.sleb128 0
 10531 3087 00       		.byte	0
 10532 3088 40       		.uleb128 0x40
 10533 3089 180C0000 		.4byte	.LVL507
 10534 308d F73E0000 		.4byte	0x3ef7
 10535 3091 9C300000 		.4byte	0x309c
 10536 3095 2B       		.uleb128 0x2b
 10537 3096 01       		.uleb128 0x1
 10538 3097 50       		.byte	0x50
 10539 3098 02       		.uleb128 0x2
 10540 3099 74       		.byte	0x74
 10541 309a 00       		.sleb128 0
 10542 309b 00       		.byte	0
 10543 309c 2A       		.uleb128 0x2a
 10544 309d 1E0C0000 		.4byte	.LVL508
 10545 30a1 F73E0000 		.4byte	0x3ef7
 10546 30a5 2B       		.uleb128 0x2b
 10547 30a6 01       		.uleb128 0x1
 10548 30a7 50       		.byte	0x50
 10549 30a8 02       		.uleb128 0x2
 10550 30a9 78       		.byte	0x78
 10551 30aa 00       		.sleb128 0
 10552 30ab 00       		.byte	0
 10553 30ac 00       		.byte	0
 10554 30ad 00       		.byte	0
 10555 30ae 46       		.uleb128 0x46
 10556 30af 07170000 		.4byte	0x1707
 10557 30b3 320C0000 		.4byte	.LBB265
 10558 30b7 7C010000 		.4byte	.LBE265-.LBB265
 10559 30bb 01       		.byte	0x1
 10560 30bc FC06     		.2byte	0x6fc
 10561 30be 60320000 		.4byte	0x3260
 10562 30c2 30       		.uleb128 0x30
 10563 30c3 2F170000 		.4byte	0x172f
 10564 30c7 34230000 		.4byte	.LLST251
 10565 30cb 30       		.uleb128 0x30
 10566 30cc 23170000 		.4byte	0x1723
 10567 30d0 47230000 		.4byte	.LLST252
 10568 30d4 30       		.uleb128 0x30
 10569 30d5 18170000 		.4byte	0x1718
 10570 30d9 7B230000 		.4byte	.LLST253
 10571 30dd 31       		.uleb128 0x31
 10572 30de 320C0000 		.4byte	.LBB266
 10573 30e2 7C010000 		.4byte	.LBE266-.LBB266
 10574 30e6 32       		.uleb128 0x32
 10575 30e7 3B170000 		.4byte	0x173b
 10576 30eb 8E230000 		.4byte	.LLST254
 10577 30ef 32       		.uleb128 0x32
 10578 30f0 46170000 		.4byte	0x1746
ARM GAS  C:\Users\164\AppData\Local\Temp\cc4PZf78.s 			page 232


 10579 30f4 D5230000 		.4byte	.LLST255
 10580 30f8 49       		.uleb128 0x49
 10581 30f9 52170000 		.4byte	0x1752
 10582 30fd A40D0000 		.4byte	.L182
 10583 3101 46       		.uleb128 0x46
 10584 3102 E9130000 		.4byte	0x13e9
 10585 3106 DA0C0000 		.4byte	.LBB267
 10586 310a BC000000 		.4byte	.LBE267-.LBB267
 10587 310e 01       		.byte	0x1
 10588 310f 5F04     		.2byte	0x45f
 10589 3111 49320000 		.4byte	0x3249
 10590 3115 30       		.uleb128 0x30
 10591 3116 11140000 		.4byte	0x1411
 10592 311a 1F240000 		.4byte	.LLST256
 10593 311e 30       		.uleb128 0x30
 10594 311f 05140000 		.4byte	0x1405
 10595 3123 32240000 		.4byte	.LLST257
 10596 3127 30       		.uleb128 0x30
 10597 3128 FA130000 		.4byte	0x13fa
 10598 312c 45240000 		.4byte	.LLST258
 10599 3130 31       		.uleb128 0x31
 10600 3131 DA0C0000 		.4byte	.LBB268
 10601 3135 BC000000 		.4byte	.LBE268-.LBB268
 10602 3139 32       		.uleb128 0x32
 10603 313a 1D140000 		.4byte	0x141d
 10604 313e 58240000 		.4byte	.LLST259
 10605 3142 32       		.uleb128 0x32
 10606 3143 28140000 		.4byte	0x1428
 10607 3147 7A240000 		.4byte	.LLST260
 10608 314b 32       		.uleb128 0x32
 10609 314c 33140000 		.4byte	0x1433
 10610 3150 9A240000 		.4byte	.LLST261
 10611 3154 47       		.uleb128 0x47
 10612 3155 3E140000 		.4byte	0x143e
 10613 3159 02       		.uleb128 0x2
 10614 315a 91       		.byte	0x91
 10615 315b 48       		.sleb128 -56
 10616 315c 32       		.uleb128 0x32
 10617 315d 4A140000 		.4byte	0x144a
 10618 3161 AD240000 		.4byte	.LLST262
 10619 3165 32       		.uleb128 0x32
 10620 3166 56140000 		.4byte	0x1456
 10621 316a C0240000 		.4byte	.LLST263
 10622 316e 32       		.uleb128 0x32
 10623 316f 62140000 		.4byte	0x1462
 10624 3173 E0240000 		.4byte	.LLST264
 10625 3177 32       		.uleb128 0x32
 10626 3178 6E140000 		.4byte	0x146e
 10627 317c F3240000 		.4byte	.LLST265
 10628 3180 3E       		.uleb128 0x3e
 10629 3181 660D0000 		.4byte	.LBB269
 10630 3185 16000000 		.4byte	.LBE269-.LBB269
 10631 3189 AF310000 		.4byte	0x31af
 10632 318d 32       		.uleb128 0x32
 10633 318e 79140000 		.4byte	0x1479
 10634 3192 3D250000 		.4byte	.LLST266
 10635 3196 48       		.uleb128 0x48
ARM GAS  C:\Users\164\AppData\Local\Temp\cc4PZf78.s 			page 233


 10636 3197 700D0000 		.4byte	.LVL549
 10637 319b 2B       		.uleb128 0x2b
 10638 319c 01       		.uleb128 0x1
 10639 319d 50       		.byte	0x50
 10640 319e 02       		.uleb128 0x2
 10641 319f 75       		.byte	0x75
 10642 31a0 00       		.sleb128 0
 10643 31a1 2B       		.uleb128 0x2b
 10644 31a2 01       		.uleb128 0x1
 10645 31a3 51       		.byte	0x51
 10646 31a4 02       		.uleb128 0x2
 10647 31a5 79       		.byte	0x79
 10648 31a6 00       		.sleb128 0
 10649 31a7 2B       		.uleb128 0x2b
 10650 31a8 01       		.uleb128 0x1
 10651 31a9 52       		.byte	0x52
 10652 31aa 02       		.uleb128 0x2
 10653 31ab 7B       		.byte	0x7b
 10654 31ac 00       		.sleb128 0
 10655 31ad 00       		.byte	0
 10656 31ae 00       		.byte	0
 10657 31af 40       		.uleb128 0x40
 10658 31b0 140D0000 		.4byte	.LVL539
 10659 31b4 F73E0000 		.4byte	0x3ef7
 10660 31b8 C6310000 		.4byte	0x31c6
 10661 31bc 2B       		.uleb128 0x2b
 10662 31bd 01       		.uleb128 0x1
 10663 31be 50       		.byte	0x50
 10664 31bf 05       		.uleb128 0x5
 10665 31c0 76       		.byte	0x76
 10666 31c1 00       		.sleb128 0
 10667 31c2 74       		.byte	0x74
 10668 31c3 00       		.sleb128 0
 10669 31c4 22       		.byte	0x22
 10670 31c5 00       		.byte	0
 10671 31c6 40       		.uleb128 0x40
 10672 31c7 300D0000 		.4byte	.LVL540
 10673 31cb 8C0B0000 		.4byte	0xb8c
 10674 31cf DC310000 		.4byte	0x31dc
 10675 31d3 2B       		.uleb128 0x2b
 10676 31d4 01       		.uleb128 0x1
 10677 31d5 51       		.byte	0x51
 10678 31d6 04       		.uleb128 0x4
 10679 31d7 91       		.byte	0x91
 10680 31d8 B47F     		.sleb128 -76
 10681 31da 06       		.byte	0x6
 10682 31db 00       		.byte	0
 10683 31dc 40       		.uleb128 0x40
 10684 31dd 360D0000 		.4byte	.LVL542
 10685 31e1 0D3F0000 		.4byte	0x3f0d
 10686 31e5 F2310000 		.4byte	0x31f2
 10687 31e9 2B       		.uleb128 0x2b
 10688 31ea 01       		.uleb128 0x1
 10689 31eb 50       		.byte	0x50
 10690 31ec 04       		.uleb128 0x4
 10691 31ed 91       		.byte	0x91
 10692 31ee B47F     		.sleb128 -76
ARM GAS  C:\Users\164\AppData\Local\Temp\cc4PZf78.s 			page 234


 10693 31f0 06       		.byte	0x6
 10694 31f1 00       		.byte	0
 10695 31f2 40       		.uleb128 0x40
 10696 31f3 4C0D0000 		.4byte	.LVL544
 10697 31f7 5A3F0000 		.4byte	0x3f5a
 10698 31fb 06320000 		.4byte	0x3206
 10699 31ff 2B       		.uleb128 0x2b
 10700 3200 01       		.uleb128 0x1
 10701 3201 50       		.byte	0x50
 10702 3202 02       		.uleb128 0x2
 10703 3203 75       		.byte	0x75
 10704 3204 00       		.sleb128 0
 10705 3205 00       		.byte	0
 10706 3206 40       		.uleb128 0x40
 10707 3207 5C0D0000 		.4byte	.LVL546
 10708 320b A13E0000 		.4byte	0x3ea1
 10709 320f 31320000 		.4byte	0x3231
 10710 3213 2B       		.uleb128 0x2b
 10711 3214 01       		.uleb128 0x1
 10712 3215 50       		.byte	0x50
 10713 3216 05       		.uleb128 0x5
 10714 3217 03       		.byte	0x3
 10715 3218 4C000000 		.4byte	.LC3
 10716 321c 2B       		.uleb128 0x2b
 10717 321d 01       		.uleb128 0x1
 10718 321e 51       		.byte	0x51
 10719 321f 08       		.uleb128 0x8
 10720 3220 91       		.byte	0x91
 10721 3221 48       		.sleb128 -56
 10722 3222 94       		.byte	0x94
 10723 3223 01       		.byte	0x1
 10724 3224 48       		.byte	0x48
 10725 3225 24       		.byte	0x24
 10726 3226 48       		.byte	0x48
 10727 3227 26       		.byte	0x26
 10728 3228 2B       		.uleb128 0x2b
 10729 3229 01       		.uleb128 0x1
 10730 322a 52       		.byte	0x52
 10731 322b 04       		.uleb128 0x4
 10732 322c 91       		.byte	0x91
 10733 322d B47F     		.sleb128 -76
 10734 322f 06       		.byte	0x6
 10735 3230 00       		.byte	0
 10736 3231 2A       		.uleb128 0x2a
 10737 3232 840D0000 		.4byte	.LVL554
 10738 3236 B80C0000 		.4byte	0xcb8
 10739 323a 2B       		.uleb128 0x2b
 10740 323b 01       		.uleb128 0x1
 10741 323c 50       		.byte	0x50
 10742 323d 02       		.uleb128 0x2
 10743 323e 75       		.byte	0x75
 10744 323f 00       		.sleb128 0
 10745 3240 2B       		.uleb128 0x2b
 10746 3241 01       		.uleb128 0x1
 10747 3242 51       		.byte	0x51
 10748 3243 02       		.uleb128 0x2
 10749 3244 7B       		.byte	0x7b
ARM GAS  C:\Users\164\AppData\Local\Temp\cc4PZf78.s 			page 235


 10750 3245 00       		.sleb128 0
 10751 3246 00       		.byte	0
 10752 3247 00       		.byte	0
 10753 3248 00       		.byte	0
 10754 3249 2A       		.uleb128 0x2a
 10755 324a A20D0000 		.4byte	.LVL556
 10756 324e F73E0000 		.4byte	0x3ef7
 10757 3252 2B       		.uleb128 0x2b
 10758 3253 01       		.uleb128 0x1
 10759 3254 50       		.byte	0x50
 10760 3255 07       		.uleb128 0x7
 10761 3256 78       		.byte	0x78
 10762 3257 01       		.sleb128 1
 10763 3258 34       		.byte	0x34
 10764 3259 24       		.byte	0x24
 10765 325a 76       		.byte	0x76
 10766 325b 00       		.sleb128 0
 10767 325c 22       		.byte	0x22
 10768 325d 00       		.byte	0
 10769 325e 00       		.byte	0
 10770 325f 00       		.byte	0
 10771 3260 46       		.uleb128 0x46
 10772 3261 5B170000 		.4byte	0x175b
 10773 3265 B40D0000 		.4byte	.LBB270
 10774 3269 82010000 		.4byte	.LBE270-.LBB270
 10775 326d 01       		.byte	0x1
 10776 326e FD06     		.2byte	0x6fd
 10777 3270 12340000 		.4byte	0x3412
 10778 3274 30       		.uleb128 0x30
 10779 3275 83170000 		.4byte	0x1783
 10780 3279 5B250000 		.4byte	.LLST267
 10781 327d 30       		.uleb128 0x30
 10782 327e 77170000 		.4byte	0x1777
 10783 3282 6E250000 		.4byte	.LLST268
 10784 3286 30       		.uleb128 0x30
 10785 3287 6C170000 		.4byte	0x176c
 10786 328b A2250000 		.4byte	.LLST269
 10787 328f 31       		.uleb128 0x31
 10788 3290 B40D0000 		.4byte	.LBB271
 10789 3294 82010000 		.4byte	.LBE271-.LBB271
 10790 3298 32       		.uleb128 0x32
 10791 3299 8F170000 		.4byte	0x178f
 10792 329d B5250000 		.4byte	.LLST270
 10793 32a1 32       		.uleb128 0x32
 10794 32a2 9A170000 		.4byte	0x179a
 10795 32a6 FC250000 		.4byte	.LLST271
 10796 32aa 49       		.uleb128 0x49
 10797 32ab A6170000 		.4byte	0x17a6
 10798 32af 2C0F0000 		.4byte	.L200
 10799 32b3 46       		.uleb128 0x46
 10800 32b4 E9130000 		.4byte	0x13e9
 10801 32b8 5C0E0000 		.4byte	.LBB272
 10802 32bc C2000000 		.4byte	.LBE272-.LBB272
 10803 32c0 01       		.byte	0x1
 10804 32c1 9104     		.2byte	0x491
 10805 32c3 FB330000 		.4byte	0x33fb
 10806 32c7 30       		.uleb128 0x30
ARM GAS  C:\Users\164\AppData\Local\Temp\cc4PZf78.s 			page 236


 10807 32c8 11140000 		.4byte	0x1411
 10808 32cc 46260000 		.4byte	.LLST272
 10809 32d0 30       		.uleb128 0x30
 10810 32d1 05140000 		.4byte	0x1405
 10811 32d5 59260000 		.4byte	.LLST273
 10812 32d9 30       		.uleb128 0x30
 10813 32da FA130000 		.4byte	0x13fa
 10814 32de 6C260000 		.4byte	.LLST274
 10815 32e2 31       		.uleb128 0x31
 10816 32e3 5C0E0000 		.4byte	.LBB273
 10817 32e7 C2000000 		.4byte	.LBE273-.LBB273
 10818 32eb 32       		.uleb128 0x32
 10819 32ec 1D140000 		.4byte	0x141d
 10820 32f0 7F260000 		.4byte	.LLST275
 10821 32f4 32       		.uleb128 0x32
 10822 32f5 28140000 		.4byte	0x1428
 10823 32f9 A1260000 		.4byte	.LLST276
 10824 32fd 32       		.uleb128 0x32
 10825 32fe 33140000 		.4byte	0x1433
 10826 3302 C1260000 		.4byte	.LLST277
 10827 3306 47       		.uleb128 0x47
 10828 3307 3E140000 		.4byte	0x143e
 10829 330b 02       		.uleb128 0x2
 10830 330c 91       		.byte	0x91
 10831 330d 48       		.sleb128 -56
 10832 330e 32       		.uleb128 0x32
 10833 330f 4A140000 		.4byte	0x144a
 10834 3313 D4260000 		.4byte	.LLST278
 10835 3317 32       		.uleb128 0x32
 10836 3318 56140000 		.4byte	0x1456
 10837 331c E7260000 		.4byte	.LLST279
 10838 3320 32       		.uleb128 0x32
 10839 3321 62140000 		.4byte	0x1462
 10840 3325 07270000 		.4byte	.LLST280
 10841 3329 32       		.uleb128 0x32
 10842 332a 6E140000 		.4byte	0x146e
 10843 332e 1A270000 		.4byte	.LLST281
 10844 3332 3E       		.uleb128 0x3e
 10845 3333 EE0E0000 		.4byte	.LBB274
 10846 3337 16000000 		.4byte	.LBE274-.LBB274
 10847 333b 61330000 		.4byte	0x3361
 10848 333f 32       		.uleb128 0x32
 10849 3340 79140000 		.4byte	0x1479
 10850 3344 64270000 		.4byte	.LLST282
 10851 3348 48       		.uleb128 0x48
 10852 3349 F80E0000 		.4byte	.LVL601
 10853 334d 2B       		.uleb128 0x2b
 10854 334e 01       		.uleb128 0x1
 10855 334f 50       		.byte	0x50
 10856 3350 02       		.uleb128 0x2
 10857 3351 75       		.byte	0x75
 10858 3352 00       		.sleb128 0
 10859 3353 2B       		.uleb128 0x2b
 10860 3354 01       		.uleb128 0x1
 10861 3355 51       		.byte	0x51
 10862 3356 02       		.uleb128 0x2
 10863 3357 79       		.byte	0x79
ARM GAS  C:\Users\164\AppData\Local\Temp\cc4PZf78.s 			page 237


 10864 3358 00       		.sleb128 0
 10865 3359 2B       		.uleb128 0x2b
 10866 335a 01       		.uleb128 0x1
 10867 335b 52       		.byte	0x52
 10868 335c 02       		.uleb128 0x2
 10869 335d 7B       		.byte	0x7b
 10870 335e 00       		.sleb128 0
 10871 335f 00       		.byte	0
 10872 3360 00       		.byte	0
 10873 3361 40       		.uleb128 0x40
 10874 3362 9C0E0000 		.4byte	.LVL591
 10875 3366 F73E0000 		.4byte	0x3ef7
 10876 336a 78330000 		.4byte	0x3378
 10877 336e 2B       		.uleb128 0x2b
 10878 336f 01       		.uleb128 0x1
 10879 3370 50       		.byte	0x50
 10880 3371 05       		.uleb128 0x5
 10881 3372 76       		.byte	0x76
 10882 3373 00       		.sleb128 0
 10883 3374 74       		.byte	0x74
 10884 3375 00       		.sleb128 0
 10885 3376 22       		.byte	0x22
 10886 3377 00       		.byte	0
 10887 3378 40       		.uleb128 0x40
 10888 3379 B80E0000 		.4byte	.LVL592
 10889 337d 8C0B0000 		.4byte	0xb8c
 10890 3381 8E330000 		.4byte	0x338e
 10891 3385 2B       		.uleb128 0x2b
 10892 3386 01       		.uleb128 0x1
 10893 3387 51       		.byte	0x51
 10894 3388 04       		.uleb128 0x4
 10895 3389 91       		.byte	0x91
 10896 338a B47F     		.sleb128 -76
 10897 338c 06       		.byte	0x6
 10898 338d 00       		.byte	0
 10899 338e 40       		.uleb128 0x40
 10900 338f BE0E0000 		.4byte	.LVL594
 10901 3393 0D3F0000 		.4byte	0x3f0d
 10902 3397 A4330000 		.4byte	0x33a4
 10903 339b 2B       		.uleb128 0x2b
 10904 339c 01       		.uleb128 0x1
 10905 339d 50       		.byte	0x50
 10906 339e 04       		.uleb128 0x4
 10907 339f 91       		.byte	0x91
 10908 33a0 B47F     		.sleb128 -76
 10909 33a2 06       		.byte	0x6
 10910 33a3 00       		.byte	0
 10911 33a4 40       		.uleb128 0x40
 10912 33a5 D40E0000 		.4byte	.LVL596
 10913 33a9 5A3F0000 		.4byte	0x3f5a
 10914 33ad B8330000 		.4byte	0x33b8
 10915 33b1 2B       		.uleb128 0x2b
 10916 33b2 01       		.uleb128 0x1
 10917 33b3 50       		.byte	0x50
 10918 33b4 02       		.uleb128 0x2
 10919 33b5 75       		.byte	0x75
 10920 33b6 00       		.sleb128 0
ARM GAS  C:\Users\164\AppData\Local\Temp\cc4PZf78.s 			page 238


 10921 33b7 00       		.byte	0
 10922 33b8 40       		.uleb128 0x40
 10923 33b9 E40E0000 		.4byte	.LVL598
 10924 33bd A13E0000 		.4byte	0x3ea1
 10925 33c1 E3330000 		.4byte	0x33e3
 10926 33c5 2B       		.uleb128 0x2b
 10927 33c6 01       		.uleb128 0x1
 10928 33c7 50       		.byte	0x50
 10929 33c8 05       		.uleb128 0x5
 10930 33c9 03       		.byte	0x3
 10931 33ca 4C000000 		.4byte	.LC3
 10932 33ce 2B       		.uleb128 0x2b
 10933 33cf 01       		.uleb128 0x1
 10934 33d0 51       		.byte	0x51
 10935 33d1 08       		.uleb128 0x8
 10936 33d2 91       		.byte	0x91
 10937 33d3 48       		.sleb128 -56
 10938 33d4 94       		.byte	0x94
 10939 33d5 01       		.byte	0x1
 10940 33d6 48       		.byte	0x48
 10941 33d7 24       		.byte	0x24
 10942 33d8 48       		.byte	0x48
 10943 33d9 26       		.byte	0x26
 10944 33da 2B       		.uleb128 0x2b
 10945 33db 01       		.uleb128 0x1
 10946 33dc 52       		.byte	0x52
 10947 33dd 04       		.uleb128 0x4
 10948 33de 91       		.byte	0x91
 10949 33df B47F     		.sleb128 -76
 10950 33e1 06       		.byte	0x6
 10951 33e2 00       		.byte	0
 10952 33e3 2A       		.uleb128 0x2a
 10953 33e4 0C0F0000 		.4byte	.LVL606
 10954 33e8 B80C0000 		.4byte	0xcb8
 10955 33ec 2B       		.uleb128 0x2b
 10956 33ed 01       		.uleb128 0x1
 10957 33ee 50       		.byte	0x50
 10958 33ef 02       		.uleb128 0x2
 10959 33f0 75       		.byte	0x75
 10960 33f1 00       		.sleb128 0
 10961 33f2 2B       		.uleb128 0x2b
 10962 33f3 01       		.uleb128 0x1
 10963 33f4 51       		.byte	0x51
 10964 33f5 02       		.uleb128 0x2
 10965 33f6 7B       		.byte	0x7b
 10966 33f7 00       		.sleb128 0
 10967 33f8 00       		.byte	0
 10968 33f9 00       		.byte	0
 10969 33fa 00       		.byte	0
 10970 33fb 2A       		.uleb128 0x2a
 10971 33fc 2A0F0000 		.4byte	.LVL608
 10972 3400 F73E0000 		.4byte	0x3ef7
 10973 3404 2B       		.uleb128 0x2b
 10974 3405 01       		.uleb128 0x1
 10975 3406 50       		.byte	0x50
 10976 3407 07       		.uleb128 0x7
 10977 3408 78       		.byte	0x78
ARM GAS  C:\Users\164\AppData\Local\Temp\cc4PZf78.s 			page 239


 10978 3409 01       		.sleb128 1
 10979 340a 34       		.byte	0x34
 10980 340b 24       		.byte	0x24
 10981 340c 76       		.byte	0x76
 10982 340d 00       		.sleb128 0
 10983 340e 22       		.byte	0x22
 10984 340f 00       		.byte	0
 10985 3410 00       		.byte	0
 10986 3411 00       		.byte	0
 10987 3412 46       		.uleb128 0x46
 10988 3413 AF170000 		.4byte	0x17af
 10989 3417 3A0F0000 		.4byte	.LBB275
 10990 341b 7C010000 		.4byte	.LBE275-.LBB275
 10991 341f 01       		.byte	0x1
 10992 3420 FE06     		.2byte	0x6fe
 10993 3422 C4350000 		.4byte	0x35c4
 10994 3426 30       		.uleb128 0x30
 10995 3427 D7170000 		.4byte	0x17d7
 10996 342b 82270000 		.4byte	.LLST283
 10997 342f 30       		.uleb128 0x30
 10998 3430 CB170000 		.4byte	0x17cb
 10999 3434 95270000 		.4byte	.LLST284
 11000 3438 30       		.uleb128 0x30
 11001 3439 C0170000 		.4byte	0x17c0
 11002 343d C9270000 		.4byte	.LLST285
 11003 3441 31       		.uleb128 0x31
 11004 3442 3A0F0000 		.4byte	.LBB276
 11005 3446 7C010000 		.4byte	.LBE276-.LBB276
 11006 344a 32       		.uleb128 0x32
 11007 344b E3170000 		.4byte	0x17e3
 11008 344f DC270000 		.4byte	.LLST286
 11009 3453 32       		.uleb128 0x32
 11010 3454 EE170000 		.4byte	0x17ee
 11011 3458 23280000 		.4byte	.LLST287
 11012 345c 49       		.uleb128 0x49
 11013 345d FA170000 		.4byte	0x17fa
 11014 3461 AC100000 		.4byte	.L218
 11015 3465 46       		.uleb128 0x46
 11016 3466 E9130000 		.4byte	0x13e9
 11017 346a E20F0000 		.4byte	.LBB277
 11018 346e BC000000 		.4byte	.LBE277-.LBB277
 11019 3472 01       		.byte	0x1
 11020 3473 C304     		.2byte	0x4c3
 11021 3475 AD350000 		.4byte	0x35ad
 11022 3479 30       		.uleb128 0x30
 11023 347a 11140000 		.4byte	0x1411
 11024 347e 6D280000 		.4byte	.LLST288
 11025 3482 30       		.uleb128 0x30
 11026 3483 05140000 		.4byte	0x1405
 11027 3487 80280000 		.4byte	.LLST289
 11028 348b 30       		.uleb128 0x30
 11029 348c FA130000 		.4byte	0x13fa
 11030 3490 93280000 		.4byte	.LLST290
 11031 3494 31       		.uleb128 0x31
 11032 3495 E20F0000 		.4byte	.LBB278
 11033 3499 BC000000 		.4byte	.LBE278-.LBB278
 11034 349d 32       		.uleb128 0x32
ARM GAS  C:\Users\164\AppData\Local\Temp\cc4PZf78.s 			page 240


 11035 349e 1D140000 		.4byte	0x141d
 11036 34a2 A6280000 		.4byte	.LLST291
 11037 34a6 32       		.uleb128 0x32
 11038 34a7 28140000 		.4byte	0x1428
 11039 34ab C8280000 		.4byte	.LLST292
 11040 34af 32       		.uleb128 0x32
 11041 34b0 33140000 		.4byte	0x1433
 11042 34b4 E8280000 		.4byte	.LLST293
 11043 34b8 47       		.uleb128 0x47
 11044 34b9 3E140000 		.4byte	0x143e
 11045 34bd 02       		.uleb128 0x2
 11046 34be 91       		.byte	0x91
 11047 34bf 48       		.sleb128 -56
 11048 34c0 32       		.uleb128 0x32
 11049 34c1 4A140000 		.4byte	0x144a
 11050 34c5 FB280000 		.4byte	.LLST294
 11051 34c9 32       		.uleb128 0x32
 11052 34ca 56140000 		.4byte	0x1456
 11053 34ce 0E290000 		.4byte	.LLST295
 11054 34d2 32       		.uleb128 0x32
 11055 34d3 62140000 		.4byte	0x1462
 11056 34d7 2E290000 		.4byte	.LLST296
 11057 34db 32       		.uleb128 0x32
 11058 34dc 6E140000 		.4byte	0x146e
 11059 34e0 41290000 		.4byte	.LLST297
 11060 34e4 3E       		.uleb128 0x3e
 11061 34e5 6E100000 		.4byte	.LBB279
 11062 34e9 16000000 		.4byte	.LBE279-.LBB279
 11063 34ed 13350000 		.4byte	0x3513
 11064 34f1 32       		.uleb128 0x32
 11065 34f2 79140000 		.4byte	0x1479
 11066 34f6 8B290000 		.4byte	.LLST298
 11067 34fa 48       		.uleb128 0x48
 11068 34fb 78100000 		.4byte	.LVL653
 11069 34ff 2B       		.uleb128 0x2b
 11070 3500 01       		.uleb128 0x1
 11071 3501 50       		.byte	0x50
 11072 3502 02       		.uleb128 0x2
 11073 3503 75       		.byte	0x75
 11074 3504 00       		.sleb128 0
 11075 3505 2B       		.uleb128 0x2b
 11076 3506 01       		.uleb128 0x1
 11077 3507 51       		.byte	0x51
 11078 3508 02       		.uleb128 0x2
 11079 3509 79       		.byte	0x79
 11080 350a 00       		.sleb128 0
 11081 350b 2B       		.uleb128 0x2b
 11082 350c 01       		.uleb128 0x1
 11083 350d 52       		.byte	0x52
 11084 350e 02       		.uleb128 0x2
 11085 350f 7B       		.byte	0x7b
 11086 3510 00       		.sleb128 0
 11087 3511 00       		.byte	0
 11088 3512 00       		.byte	0
 11089 3513 40       		.uleb128 0x40
 11090 3514 1C100000 		.4byte	.LVL643
 11091 3518 F73E0000 		.4byte	0x3ef7
ARM GAS  C:\Users\164\AppData\Local\Temp\cc4PZf78.s 			page 241


 11092 351c 2A350000 		.4byte	0x352a
 11093 3520 2B       		.uleb128 0x2b
 11094 3521 01       		.uleb128 0x1
 11095 3522 50       		.byte	0x50
 11096 3523 05       		.uleb128 0x5
 11097 3524 76       		.byte	0x76
 11098 3525 00       		.sleb128 0
 11099 3526 74       		.byte	0x74
 11100 3527 00       		.sleb128 0
 11101 3528 22       		.byte	0x22
 11102 3529 00       		.byte	0
 11103 352a 40       		.uleb128 0x40
 11104 352b 38100000 		.4byte	.LVL644
 11105 352f 8C0B0000 		.4byte	0xb8c
 11106 3533 40350000 		.4byte	0x3540
 11107 3537 2B       		.uleb128 0x2b
 11108 3538 01       		.uleb128 0x1
 11109 3539 51       		.byte	0x51
 11110 353a 04       		.uleb128 0x4
 11111 353b 91       		.byte	0x91
 11112 353c B47F     		.sleb128 -76
 11113 353e 06       		.byte	0x6
 11114 353f 00       		.byte	0
 11115 3540 40       		.uleb128 0x40
 11116 3541 3E100000 		.4byte	.LVL646
 11117 3545 0D3F0000 		.4byte	0x3f0d
 11118 3549 56350000 		.4byte	0x3556
 11119 354d 2B       		.uleb128 0x2b
 11120 354e 01       		.uleb128 0x1
 11121 354f 50       		.byte	0x50
 11122 3550 04       		.uleb128 0x4
 11123 3551 91       		.byte	0x91
 11124 3552 B47F     		.sleb128 -76
 11125 3554 06       		.byte	0x6
 11126 3555 00       		.byte	0
 11127 3556 40       		.uleb128 0x40
 11128 3557 54100000 		.4byte	.LVL648
 11129 355b 5A3F0000 		.4byte	0x3f5a
 11130 355f 6A350000 		.4byte	0x356a
 11131 3563 2B       		.uleb128 0x2b
 11132 3564 01       		.uleb128 0x1
 11133 3565 50       		.byte	0x50
 11134 3566 02       		.uleb128 0x2
 11135 3567 75       		.byte	0x75
 11136 3568 00       		.sleb128 0
 11137 3569 00       		.byte	0
 11138 356a 40       		.uleb128 0x40
 11139 356b 64100000 		.4byte	.LVL650
 11140 356f A13E0000 		.4byte	0x3ea1
 11141 3573 95350000 		.4byte	0x3595
 11142 3577 2B       		.uleb128 0x2b
 11143 3578 01       		.uleb128 0x1
 11144 3579 50       		.byte	0x50
 11145 357a 05       		.uleb128 0x5
 11146 357b 03       		.byte	0x3
 11147 357c 4C000000 		.4byte	.LC3
 11148 3580 2B       		.uleb128 0x2b
ARM GAS  C:\Users\164\AppData\Local\Temp\cc4PZf78.s 			page 242


 11149 3581 01       		.uleb128 0x1
 11150 3582 51       		.byte	0x51
 11151 3583 08       		.uleb128 0x8
 11152 3584 91       		.byte	0x91
 11153 3585 48       		.sleb128 -56
 11154 3586 94       		.byte	0x94
 11155 3587 01       		.byte	0x1
 11156 3588 48       		.byte	0x48
 11157 3589 24       		.byte	0x24
 11158 358a 48       		.byte	0x48
 11159 358b 26       		.byte	0x26
 11160 358c 2B       		.uleb128 0x2b
 11161 358d 01       		.uleb128 0x1
 11162 358e 52       		.byte	0x52
 11163 358f 04       		.uleb128 0x4
 11164 3590 91       		.byte	0x91
 11165 3591 B47F     		.sleb128 -76
 11166 3593 06       		.byte	0x6
 11167 3594 00       		.byte	0
 11168 3595 2A       		.uleb128 0x2a
 11169 3596 8C100000 		.4byte	.LVL658
 11170 359a B80C0000 		.4byte	0xcb8
 11171 359e 2B       		.uleb128 0x2b
 11172 359f 01       		.uleb128 0x1
 11173 35a0 50       		.byte	0x50
 11174 35a1 02       		.uleb128 0x2
 11175 35a2 75       		.byte	0x75
 11176 35a3 00       		.sleb128 0
 11177 35a4 2B       		.uleb128 0x2b
 11178 35a5 01       		.uleb128 0x1
 11179 35a6 51       		.byte	0x51
 11180 35a7 02       		.uleb128 0x2
 11181 35a8 7B       		.byte	0x7b
 11182 35a9 00       		.sleb128 0
 11183 35aa 00       		.byte	0
 11184 35ab 00       		.byte	0
 11185 35ac 00       		.byte	0
 11186 35ad 2A       		.uleb128 0x2a
 11187 35ae AA100000 		.4byte	.LVL660
 11188 35b2 F73E0000 		.4byte	0x3ef7
 11189 35b6 2B       		.uleb128 0x2b
 11190 35b7 01       		.uleb128 0x1
 11191 35b8 50       		.byte	0x50
 11192 35b9 07       		.uleb128 0x7
 11193 35ba 78       		.byte	0x78
 11194 35bb 01       		.sleb128 1
 11195 35bc 34       		.byte	0x34
 11196 35bd 24       		.byte	0x24
 11197 35be 76       		.byte	0x76
 11198 35bf 00       		.sleb128 0
 11199 35c0 22       		.byte	0x22
 11200 35c1 00       		.byte	0
 11201 35c2 00       		.byte	0
 11202 35c3 00       		.byte	0
 11203 35c4 46       		.uleb128 0x46
 11204 35c5 03180000 		.4byte	0x1803
 11205 35c9 BA100000 		.4byte	.LBB280
ARM GAS  C:\Users\164\AppData\Local\Temp\cc4PZf78.s 			page 243


 11206 35cd 82010000 		.4byte	.LBE280-.LBB280
 11207 35d1 01       		.byte	0x1
 11208 35d2 FF06     		.2byte	0x6ff
 11209 35d4 76370000 		.4byte	0x3776
 11210 35d8 30       		.uleb128 0x30
 11211 35d9 2B180000 		.4byte	0x182b
 11212 35dd A9290000 		.4byte	.LLST299
 11213 35e1 30       		.uleb128 0x30
 11214 35e2 1F180000 		.4byte	0x181f
 11215 35e6 BC290000 		.4byte	.LLST300
 11216 35ea 30       		.uleb128 0x30
 11217 35eb 14180000 		.4byte	0x1814
 11218 35ef F0290000 		.4byte	.LLST301
 11219 35f3 31       		.uleb128 0x31
 11220 35f4 BA100000 		.4byte	.LBB281
 11221 35f8 82010000 		.4byte	.LBE281-.LBB281
 11222 35fc 32       		.uleb128 0x32
 11223 35fd 37180000 		.4byte	0x1837
 11224 3601 032A0000 		.4byte	.LLST302
 11225 3605 32       		.uleb128 0x32
 11226 3606 42180000 		.4byte	0x1842
 11227 360a 4A2A0000 		.4byte	.LLST303
 11228 360e 49       		.uleb128 0x49
 11229 360f 4E180000 		.4byte	0x184e
 11230 3613 32120000 		.4byte	.L236
 11231 3617 46       		.uleb128 0x46
 11232 3618 E9130000 		.4byte	0x13e9
 11233 361c 62110000 		.4byte	.LBB282
 11234 3620 C2000000 		.4byte	.LBE282-.LBB282
 11235 3624 01       		.byte	0x1
 11236 3625 F504     		.2byte	0x4f5
 11237 3627 5F370000 		.4byte	0x375f
 11238 362b 30       		.uleb128 0x30
 11239 362c 11140000 		.4byte	0x1411
 11240 3630 942A0000 		.4byte	.LLST304
 11241 3634 30       		.uleb128 0x30
 11242 3635 05140000 		.4byte	0x1405
 11243 3639 A72A0000 		.4byte	.LLST305
 11244 363d 30       		.uleb128 0x30
 11245 363e FA130000 		.4byte	0x13fa
 11246 3642 BA2A0000 		.4byte	.LLST306
 11247 3646 31       		.uleb128 0x31
 11248 3647 62110000 		.4byte	.LBB283
 11249 364b C2000000 		.4byte	.LBE283-.LBB283
 11250 364f 32       		.uleb128 0x32
 11251 3650 1D140000 		.4byte	0x141d
 11252 3654 CD2A0000 		.4byte	.LLST307
 11253 3658 32       		.uleb128 0x32
 11254 3659 28140000 		.4byte	0x1428
 11255 365d EF2A0000 		.4byte	.LLST308
 11256 3661 32       		.uleb128 0x32
 11257 3662 33140000 		.4byte	0x1433
 11258 3666 0F2B0000 		.4byte	.LLST309
 11259 366a 47       		.uleb128 0x47
 11260 366b 3E140000 		.4byte	0x143e
 11261 366f 02       		.uleb128 0x2
 11262 3670 91       		.byte	0x91
ARM GAS  C:\Users\164\AppData\Local\Temp\cc4PZf78.s 			page 244


 11263 3671 48       		.sleb128 -56
 11264 3672 32       		.uleb128 0x32
 11265 3673 4A140000 		.4byte	0x144a
 11266 3677 222B0000 		.4byte	.LLST310
 11267 367b 32       		.uleb128 0x32
 11268 367c 56140000 		.4byte	0x1456
 11269 3680 352B0000 		.4byte	.LLST311
 11270 3684 32       		.uleb128 0x32
 11271 3685 62140000 		.4byte	0x1462
 11272 3689 552B0000 		.4byte	.LLST312
 11273 368d 32       		.uleb128 0x32
 11274 368e 6E140000 		.4byte	0x146e
 11275 3692 682B0000 		.4byte	.LLST313
 11276 3696 3E       		.uleb128 0x3e
 11277 3697 F4110000 		.4byte	.LBB284
 11278 369b 16000000 		.4byte	.LBE284-.LBB284
 11279 369f C5360000 		.4byte	0x36c5
 11280 36a3 32       		.uleb128 0x32
 11281 36a4 79140000 		.4byte	0x1479
 11282 36a8 B22B0000 		.4byte	.LLST314
 11283 36ac 48       		.uleb128 0x48
 11284 36ad FE110000 		.4byte	.LVL705
 11285 36b1 2B       		.uleb128 0x2b
 11286 36b2 01       		.uleb128 0x1
 11287 36b3 50       		.byte	0x50
 11288 36b4 02       		.uleb128 0x2
 11289 36b5 75       		.byte	0x75
 11290 36b6 00       		.sleb128 0
 11291 36b7 2B       		.uleb128 0x2b
 11292 36b8 01       		.uleb128 0x1
 11293 36b9 51       		.byte	0x51
 11294 36ba 02       		.uleb128 0x2
 11295 36bb 79       		.byte	0x79
 11296 36bc 00       		.sleb128 0
 11297 36bd 2B       		.uleb128 0x2b
 11298 36be 01       		.uleb128 0x1
 11299 36bf 52       		.byte	0x52
 11300 36c0 02       		.uleb128 0x2
 11301 36c1 7B       		.byte	0x7b
 11302 36c2 00       		.sleb128 0
 11303 36c3 00       		.byte	0
 11304 36c4 00       		.byte	0
 11305 36c5 40       		.uleb128 0x40
 11306 36c6 9C110000 		.4byte	.LVL695
 11307 36ca F73E0000 		.4byte	0x3ef7
 11308 36ce DC360000 		.4byte	0x36dc
 11309 36d2 2B       		.uleb128 0x2b
 11310 36d3 01       		.uleb128 0x1
 11311 36d4 50       		.byte	0x50
 11312 36d5 05       		.uleb128 0x5
 11313 36d6 76       		.byte	0x76
 11314 36d7 00       		.sleb128 0
 11315 36d8 74       		.byte	0x74
 11316 36d9 00       		.sleb128 0
 11317 36da 22       		.byte	0x22
 11318 36db 00       		.byte	0
 11319 36dc 40       		.uleb128 0x40
ARM GAS  C:\Users\164\AppData\Local\Temp\cc4PZf78.s 			page 245


 11320 36dd BE110000 		.4byte	.LVL696
 11321 36e1 8C0B0000 		.4byte	0xb8c
 11322 36e5 F2360000 		.4byte	0x36f2
 11323 36e9 2B       		.uleb128 0x2b
 11324 36ea 01       		.uleb128 0x1
 11325 36eb 51       		.byte	0x51
 11326 36ec 04       		.uleb128 0x4
 11327 36ed 91       		.byte	0x91
 11328 36ee B47F     		.sleb128 -76
 11329 36f0 06       		.byte	0x6
 11330 36f1 00       		.byte	0
 11331 36f2 40       		.uleb128 0x40
 11332 36f3 C4110000 		.4byte	.LVL698
 11333 36f7 0D3F0000 		.4byte	0x3f0d
 11334 36fb 08370000 		.4byte	0x3708
 11335 36ff 2B       		.uleb128 0x2b
 11336 3700 01       		.uleb128 0x1
 11337 3701 50       		.byte	0x50
 11338 3702 04       		.uleb128 0x4
 11339 3703 91       		.byte	0x91
 11340 3704 B47F     		.sleb128 -76
 11341 3706 06       		.byte	0x6
 11342 3707 00       		.byte	0
 11343 3708 40       		.uleb128 0x40
 11344 3709 DA110000 		.4byte	.LVL700
 11345 370d 5A3F0000 		.4byte	0x3f5a
 11346 3711 1C370000 		.4byte	0x371c
 11347 3715 2B       		.uleb128 0x2b
 11348 3716 01       		.uleb128 0x1
 11349 3717 50       		.byte	0x50
 11350 3718 02       		.uleb128 0x2
 11351 3719 75       		.byte	0x75
 11352 371a 00       		.sleb128 0
 11353 371b 00       		.byte	0
 11354 371c 40       		.uleb128 0x40
 11355 371d EA110000 		.4byte	.LVL702
 11356 3721 A13E0000 		.4byte	0x3ea1
 11357 3725 47370000 		.4byte	0x3747
 11358 3729 2B       		.uleb128 0x2b
 11359 372a 01       		.uleb128 0x1
 11360 372b 50       		.byte	0x50
 11361 372c 05       		.uleb128 0x5
 11362 372d 03       		.byte	0x3
 11363 372e 4C000000 		.4byte	.LC3
 11364 3732 2B       		.uleb128 0x2b
 11365 3733 01       		.uleb128 0x1
 11366 3734 51       		.byte	0x51
 11367 3735 08       		.uleb128 0x8
 11368 3736 91       		.byte	0x91
 11369 3737 48       		.sleb128 -56
 11370 3738 94       		.byte	0x94
 11371 3739 01       		.byte	0x1
 11372 373a 48       		.byte	0x48
 11373 373b 24       		.byte	0x24
 11374 373c 48       		.byte	0x48
 11375 373d 26       		.byte	0x26
 11376 373e 2B       		.uleb128 0x2b
ARM GAS  C:\Users\164\AppData\Local\Temp\cc4PZf78.s 			page 246


 11377 373f 01       		.uleb128 0x1
 11378 3740 52       		.byte	0x52
 11379 3741 04       		.uleb128 0x4
 11380 3742 91       		.byte	0x91
 11381 3743 B47F     		.sleb128 -76
 11382 3745 06       		.byte	0x6
 11383 3746 00       		.byte	0
 11384 3747 2A       		.uleb128 0x2a
 11385 3748 12120000 		.4byte	.LVL710
 11386 374c B80C0000 		.4byte	0xcb8
 11387 3750 2B       		.uleb128 0x2b
 11388 3751 01       		.uleb128 0x1
 11389 3752 50       		.byte	0x50
 11390 3753 02       		.uleb128 0x2
 11391 3754 75       		.byte	0x75
 11392 3755 00       		.sleb128 0
 11393 3756 2B       		.uleb128 0x2b
 11394 3757 01       		.uleb128 0x1
 11395 3758 51       		.byte	0x51
 11396 3759 02       		.uleb128 0x2
 11397 375a 7B       		.byte	0x7b
 11398 375b 00       		.sleb128 0
 11399 375c 00       		.byte	0
 11400 375d 00       		.byte	0
 11401 375e 00       		.byte	0
 11402 375f 2A       		.uleb128 0x2a
 11403 3760 30120000 		.4byte	.LVL712
 11404 3764 F73E0000 		.4byte	0x3ef7
 11405 3768 2B       		.uleb128 0x2b
 11406 3769 01       		.uleb128 0x1
 11407 376a 50       		.byte	0x50
 11408 376b 07       		.uleb128 0x7
 11409 376c 78       		.byte	0x78
 11410 376d 01       		.sleb128 1
 11411 376e 34       		.byte	0x34
 11412 376f 24       		.byte	0x24
 11413 3770 76       		.byte	0x76
 11414 3771 00       		.sleb128 0
 11415 3772 22       		.byte	0x22
 11416 3773 00       		.byte	0
 11417 3774 00       		.byte	0
 11418 3775 00       		.byte	0
 11419 3776 46       		.uleb128 0x46
 11420 3777 57180000 		.4byte	0x1857
 11421 377b 40120000 		.4byte	.LBB285
 11422 377f 54000000 		.4byte	.LBE285-.LBB285
 11423 3783 01       		.byte	0x1
 11424 3784 0007     		.2byte	0x700
 11425 3786 3C380000 		.4byte	0x383c
 11426 378a 30       		.uleb128 0x30
 11427 378b 7F180000 		.4byte	0x187f
 11428 378f D02B0000 		.4byte	.LLST315
 11429 3793 30       		.uleb128 0x30
 11430 3794 73180000 		.4byte	0x1873
 11431 3798 EE2B0000 		.4byte	.LLST316
 11432 379c 30       		.uleb128 0x30
 11433 379d 68180000 		.4byte	0x1868
ARM GAS  C:\Users\164\AppData\Local\Temp\cc4PZf78.s 			page 247


 11434 37a1 012C0000 		.4byte	.LLST317
 11435 37a5 31       		.uleb128 0x31
 11436 37a6 40120000 		.4byte	.LBB286
 11437 37aa 54000000 		.4byte	.LBE286-.LBB286
 11438 37ae 32       		.uleb128 0x32
 11439 37af 8B180000 		.4byte	0x188b
 11440 37b3 142C0000 		.4byte	.LLST318
 11441 37b7 32       		.uleb128 0x32
 11442 37b8 96180000 		.4byte	0x1896
 11443 37bc 322C0000 		.4byte	.LLST319
 11444 37c0 32       		.uleb128 0x32
 11445 37c1 A1180000 		.4byte	0x18a1
 11446 37c5 502C0000 		.4byte	.LLST320
 11447 37c9 47       		.uleb128 0x47
 11448 37ca AC180000 		.4byte	0x18ac
 11449 37ce 02       		.uleb128 0x2
 11450 37cf 91       		.byte	0x91
 11451 37d0 48       		.sleb128 -56
 11452 37d1 40       		.uleb128 0x40
 11453 37d2 54120000 		.4byte	.LVL722
 11454 37d6 703F0000 		.4byte	0x3f70
 11455 37da F1370000 		.4byte	0x37f1
 11456 37de 2B       		.uleb128 0x2b
 11457 37df 01       		.uleb128 0x1
 11458 37e0 50       		.byte	0x50
 11459 37e1 02       		.uleb128 0x2
 11460 37e2 91       		.byte	0x91
 11461 37e3 48       		.sleb128 -56
 11462 37e4 2B       		.uleb128 0x2b
 11463 37e5 01       		.uleb128 0x1
 11464 37e6 51       		.byte	0x51
 11465 37e7 02       		.uleb128 0x2
 11466 37e8 75       		.byte	0x75
 11467 37e9 00       		.sleb128 0
 11468 37ea 2B       		.uleb128 0x2b
 11469 37eb 01       		.uleb128 0x1
 11470 37ec 52       		.byte	0x52
 11471 37ed 02       		.uleb128 0x2
 11472 37ee 79       		.byte	0x79
 11473 37ef 00       		.sleb128 0
 11474 37f0 00       		.byte	0
 11475 37f1 40       		.uleb128 0x40
 11476 37f2 6A120000 		.4byte	.LVL725
 11477 37f6 7B3F0000 		.4byte	0x3f7b
 11478 37fa 0B380000 		.4byte	0x380b
 11479 37fe 2B       		.uleb128 0x2b
 11480 37ff 01       		.uleb128 0x1
 11481 3800 51       		.byte	0x51
 11482 3801 02       		.uleb128 0x2
 11483 3802 78       		.byte	0x78
 11484 3803 00       		.sleb128 0
 11485 3804 2B       		.uleb128 0x2b
 11486 3805 01       		.uleb128 0x1
 11487 3806 52       		.byte	0x52
 11488 3807 02       		.uleb128 0x2
 11489 3808 7A       		.byte	0x7a
 11490 3809 00       		.sleb128 0
ARM GAS  C:\Users\164\AppData\Local\Temp\cc4PZf78.s 			page 248


 11491 380a 00       		.byte	0
 11492 380b 40       		.uleb128 0x40
 11493 380c 74120000 		.4byte	.LVL726
 11494 3810 C23E0000 		.4byte	0x3ec2
 11495 3814 2A380000 		.4byte	0x382a
 11496 3818 2B       		.uleb128 0x2b
 11497 3819 01       		.uleb128 0x1
 11498 381a 50       		.byte	0x50
 11499 381b 02       		.uleb128 0x2
 11500 381c 78       		.byte	0x78
 11501 381d 00       		.sleb128 0
 11502 381e 2B       		.uleb128 0x2b
 11503 381f 01       		.uleb128 0x1
 11504 3820 51       		.byte	0x51
 11505 3821 01       		.uleb128 0x1
 11506 3822 30       		.byte	0x30
 11507 3823 2B       		.uleb128 0x2b
 11508 3824 01       		.uleb128 0x1
 11509 3825 52       		.byte	0x52
 11510 3826 02       		.uleb128 0x2
 11511 3827 7A       		.byte	0x7a
 11512 3828 00       		.sleb128 0
 11513 3829 00       		.byte	0
 11514 382a 2A       		.uleb128 0x2a
 11515 382b 82120000 		.4byte	.LVL728
 11516 382f F73E0000 		.4byte	0x3ef7
 11517 3833 2B       		.uleb128 0x2b
 11518 3834 01       		.uleb128 0x1
 11519 3835 50       		.byte	0x50
 11520 3836 02       		.uleb128 0x2
 11521 3837 76       		.byte	0x76
 11522 3838 00       		.sleb128 0
 11523 3839 00       		.byte	0
 11524 383a 00       		.byte	0
 11525 383b 00       		.byte	0
 11526 383c 46       		.uleb128 0x46
 11527 383d B9180000 		.4byte	0x18b9
 11528 3841 96120000 		.4byte	.LBB287
 11529 3845 44000000 		.4byte	.LBE287-.LBB287
 11530 3849 01       		.byte	0x1
 11531 384a 0107     		.2byte	0x701
 11532 384c FD380000 		.4byte	0x38fd
 11533 3850 30       		.uleb128 0x30
 11534 3851 E1180000 		.4byte	0x18e1
 11535 3855 632C0000 		.4byte	.LLST321
 11536 3859 30       		.uleb128 0x30
 11537 385a D5180000 		.4byte	0x18d5
 11538 385e 812C0000 		.4byte	.LLST322
 11539 3862 30       		.uleb128 0x30
 11540 3863 CA180000 		.4byte	0x18ca
 11541 3867 942C0000 		.4byte	.LLST323
 11542 386b 31       		.uleb128 0x31
 11543 386c 96120000 		.4byte	.LBB288
 11544 3870 44000000 		.4byte	.LBE288-.LBB288
 11545 3874 32       		.uleb128 0x32
 11546 3875 ED180000 		.4byte	0x18ed
 11547 3879 A72C0000 		.4byte	.LLST324
ARM GAS  C:\Users\164\AppData\Local\Temp\cc4PZf78.s 			page 249


 11548 387d 32       		.uleb128 0x32
 11549 387e F8180000 		.4byte	0x18f8
 11550 3882 C52C0000 		.4byte	.LLST325
 11551 3886 32       		.uleb128 0x32
 11552 3887 03190000 		.4byte	0x1903
 11553 388b D82C0000 		.4byte	.LLST326
 11554 388f 32       		.uleb128 0x32
 11555 3890 0F190000 		.4byte	0x190f
 11556 3894 002D0000 		.4byte	.LLST327
 11557 3898 47       		.uleb128 0x47
 11558 3899 1B190000 		.4byte	0x191b
 11559 389d 02       		.uleb128 0x2
 11560 389e 91       		.byte	0x91
 11561 389f 48       		.sleb128 -56
 11562 38a0 46       		.uleb128 0x46
 11563 38a1 2B080000 		.4byte	0x82b
 11564 38a5 A6120000 		.4byte	.LBB289
 11565 38a9 0A000000 		.4byte	.LBE289-.LBB289
 11566 38ad 01       		.byte	0x1
 11567 38ae 3105     		.2byte	0x531
 11568 38b0 D1380000 		.4byte	0x38d1
 11569 38b4 30       		.uleb128 0x30
 11570 38b5 3B080000 		.4byte	0x83b
 11571 38b9 242D0000 		.4byte	.LLST328
 11572 38bd 31       		.uleb128 0x31
 11573 38be A6120000 		.4byte	.LBB290
 11574 38c2 0A000000 		.4byte	.LBE290-.LBB290
 11575 38c6 32       		.uleb128 0x32
 11576 38c7 44080000 		.4byte	0x844
 11577 38cb 392D0000 		.4byte	.LLST329
 11578 38cf 00       		.byte	0
 11579 38d0 00       		.byte	0
 11580 38d1 40       		.uleb128 0x40
 11581 38d2 BA120000 		.4byte	.LVL742
 11582 38d6 843F0000 		.4byte	0x3f84
 11583 38da EB380000 		.4byte	0x38eb
 11584 38de 2B       		.uleb128 0x2b
 11585 38df 01       		.uleb128 0x1
 11586 38e0 50       		.byte	0x50
 11587 38e1 02       		.uleb128 0x2
 11588 38e2 91       		.byte	0x91
 11589 38e3 48       		.sleb128 -56
 11590 38e4 2B       		.uleb128 0x2b
 11591 38e5 01       		.uleb128 0x1
 11592 38e6 51       		.byte	0x51
 11593 38e7 02       		.uleb128 0x2
 11594 38e8 75       		.byte	0x75
 11595 38e9 00       		.sleb128 0
 11596 38ea 00       		.byte	0
 11597 38eb 2A       		.uleb128 0x2a
 11598 38ec C8120000 		.4byte	.LVL744
 11599 38f0 F73E0000 		.4byte	0x3ef7
 11600 38f4 2B       		.uleb128 0x2b
 11601 38f5 01       		.uleb128 0x1
 11602 38f6 50       		.byte	0x50
 11603 38f7 02       		.uleb128 0x2
 11604 38f8 76       		.byte	0x76
ARM GAS  C:\Users\164\AppData\Local\Temp\cc4PZf78.s 			page 250


 11605 38f9 00       		.sleb128 0
 11606 38fa 00       		.byte	0
 11607 38fb 00       		.byte	0
 11608 38fc 00       		.byte	0
 11609 38fd 46       		.uleb128 0x46
 11610 38fe 28190000 		.4byte	0x1928
 11611 3902 DC120000 		.4byte	.LBB291
 11612 3906 8E000000 		.4byte	.LBE291-.LBB291
 11613 390a 01       		.byte	0x1
 11614 390b 0207     		.2byte	0x702
 11615 390d 1C3A0000 		.4byte	0x3a1c
 11616 3911 30       		.uleb128 0x30
 11617 3912 50190000 		.4byte	0x1950
 11618 3916 4C2D0000 		.4byte	.LLST330
 11619 391a 30       		.uleb128 0x30
 11620 391b 44190000 		.4byte	0x1944
 11621 391f 5F2D0000 		.4byte	.LLST331
 11622 3923 30       		.uleb128 0x30
 11623 3924 39190000 		.4byte	0x1939
 11624 3928 722D0000 		.4byte	.LLST332
 11625 392c 31       		.uleb128 0x31
 11626 392d DC120000 		.4byte	.LBB292
 11627 3931 8E000000 		.4byte	.LBE292-.LBB292
 11628 3935 32       		.uleb128 0x32
 11629 3936 5C190000 		.4byte	0x195c
 11630 393a 852D0000 		.4byte	.LLST333
 11631 393e 32       		.uleb128 0x32
 11632 393f 67190000 		.4byte	0x1967
 11633 3943 982D0000 		.4byte	.LLST334
 11634 3947 32       		.uleb128 0x32
 11635 3948 72190000 		.4byte	0x1972
 11636 394c AB2D0000 		.4byte	.LLST335
 11637 3950 32       		.uleb128 0x32
 11638 3951 7E190000 		.4byte	0x197e
 11639 3955 BE2D0000 		.4byte	.LLST336
 11640 3959 47       		.uleb128 0x47
 11641 395a 88190000 		.4byte	0x1988
 11642 395e 02       		.uleb128 0x2
 11643 395f 91       		.byte	0x91
 11644 3960 48       		.sleb128 -56
 11645 3961 40       		.uleb128 0x40
 11646 3962 E8120000 		.4byte	.LVL751
 11647 3966 0D3F0000 		.4byte	0x3f0d
 11648 396a 78390000 		.4byte	0x3978
 11649 396e 2B       		.uleb128 0x2b
 11650 396f 01       		.uleb128 0x1
 11651 3970 50       		.byte	0x50
 11652 3971 05       		.uleb128 0x5
 11653 3972 03       		.byte	0x3
 11654 3973 70000000 		.4byte	.LC4
 11655 3977 00       		.byte	0
 11656 3978 40       		.uleb128 0x40
 11657 3979 06130000 		.4byte	.LVL755
 11658 397d 5A3F0000 		.4byte	0x3f5a
 11659 3981 93390000 		.4byte	0x3993
 11660 3985 2B       		.uleb128 0x2b
 11661 3986 01       		.uleb128 0x1
ARM GAS  C:\Users\164\AppData\Local\Temp\cc4PZf78.s 			page 251


 11662 3987 50       		.byte	0x50
 11663 3988 02       		.uleb128 0x2
 11664 3989 75       		.byte	0x75
 11665 398a 00       		.sleb128 0
 11666 398b 2B       		.uleb128 0x2b
 11667 398c 02       		.uleb128 0x2
 11668 398d 7D       		.byte	0x7d
 11669 398e 08       		.sleb128 8
 11670 398f 02       		.uleb128 0x2
 11671 3990 78       		.byte	0x78
 11672 3991 00       		.sleb128 0
 11673 3992 00       		.byte	0
 11674 3993 4A       		.uleb128 0x4a
 11675 3994 1A130000 		.4byte	.LVL757
 11676 3998 AE390000 		.4byte	0x39ae
 11677 399c 2B       		.uleb128 0x2b
 11678 399d 01       		.uleb128 0x1
 11679 399e 50       		.byte	0x50
 11680 399f 02       		.uleb128 0x2
 11681 39a0 75       		.byte	0x75
 11682 39a1 00       		.sleb128 0
 11683 39a2 2B       		.uleb128 0x2b
 11684 39a3 01       		.uleb128 0x1
 11685 39a4 51       		.byte	0x51
 11686 39a5 02       		.uleb128 0x2
 11687 39a6 77       		.byte	0x77
 11688 39a7 00       		.sleb128 0
 11689 39a8 2B       		.uleb128 0x2b
 11690 39a9 01       		.uleb128 0x1
 11691 39aa 52       		.byte	0x52
 11692 39ab 01       		.uleb128 0x1
 11693 39ac 30       		.byte	0x30
 11694 39ad 00       		.byte	0
 11695 39ae 40       		.uleb128 0x40
 11696 39af 38130000 		.4byte	.LVL759
 11697 39b3 5A3F0000 		.4byte	0x3f5a
 11698 39b7 C9390000 		.4byte	0x39c9
 11699 39bb 2B       		.uleb128 0x2b
 11700 39bc 01       		.uleb128 0x1
 11701 39bd 50       		.byte	0x50
 11702 39be 02       		.uleb128 0x2
 11703 39bf 75       		.byte	0x75
 11704 39c0 00       		.sleb128 0
 11705 39c1 2B       		.uleb128 0x2b
 11706 39c2 02       		.uleb128 0x2
 11707 39c3 7D       		.byte	0x7d
 11708 39c4 08       		.sleb128 8
 11709 39c5 02       		.uleb128 0x2
 11710 39c6 78       		.byte	0x78
 11711 39c7 00       		.sleb128 0
 11712 39c8 00       		.byte	0
 11713 39c9 4A       		.uleb128 0x4a
 11714 39ca 4C130000 		.4byte	.LVL761
 11715 39ce E4390000 		.4byte	0x39e4
 11716 39d2 2B       		.uleb128 0x2b
 11717 39d3 01       		.uleb128 0x1
 11718 39d4 50       		.byte	0x50
ARM GAS  C:\Users\164\AppData\Local\Temp\cc4PZf78.s 			page 252


 11719 39d5 02       		.uleb128 0x2
 11720 39d6 75       		.byte	0x75
 11721 39d7 00       		.sleb128 0
 11722 39d8 2B       		.uleb128 0x2b
 11723 39d9 01       		.uleb128 0x1
 11724 39da 51       		.byte	0x51
 11725 39db 02       		.uleb128 0x2
 11726 39dc 76       		.byte	0x76
 11727 39dd 00       		.sleb128 0
 11728 39de 2B       		.uleb128 0x2b
 11729 39df 01       		.uleb128 0x1
 11730 39e0 52       		.byte	0x52
 11731 39e1 01       		.uleb128 0x1
 11732 39e2 30       		.byte	0x30
 11733 39e3 00       		.byte	0
 11734 39e4 40       		.uleb128 0x40
 11735 39e5 5C130000 		.4byte	.LVL762
 11736 39e9 8F3F0000 		.4byte	0x3f8f
 11737 39ed 0A3A0000 		.4byte	0x3a0a
 11738 39f1 2B       		.uleb128 0x2b
 11739 39f2 01       		.uleb128 0x1
 11740 39f3 50       		.byte	0x50
 11741 39f4 02       		.uleb128 0x2
 11742 39f5 78       		.byte	0x78
 11743 39f6 00       		.sleb128 0
 11744 39f7 2B       		.uleb128 0x2b
 11745 39f8 01       		.uleb128 0x1
 11746 39f9 51       		.byte	0x51
 11747 39fa 02       		.uleb128 0x2
 11748 39fb 75       		.byte	0x75
 11749 39fc 00       		.sleb128 0
 11750 39fd 2B       		.uleb128 0x2b
 11751 39fe 01       		.uleb128 0x1
 11752 39ff 52       		.byte	0x52
 11753 3a00 02       		.uleb128 0x2
 11754 3a01 77       		.byte	0x77
 11755 3a02 00       		.sleb128 0
 11756 3a03 2B       		.uleb128 0x2b
 11757 3a04 01       		.uleb128 0x1
 11758 3a05 53       		.byte	0x53
 11759 3a06 02       		.uleb128 0x2
 11760 3a07 76       		.byte	0x76
 11761 3a08 00       		.sleb128 0
 11762 3a09 00       		.byte	0
 11763 3a0a 2A       		.uleb128 0x2a
 11764 3a0b 62130000 		.4byte	.LVL763
 11765 3a0f F73E0000 		.4byte	0x3ef7
 11766 3a13 2B       		.uleb128 0x2b
 11767 3a14 01       		.uleb128 0x1
 11768 3a15 50       		.byte	0x50
 11769 3a16 02       		.uleb128 0x2
 11770 3a17 77       		.byte	0x77
 11771 3a18 00       		.sleb128 0
 11772 3a19 00       		.byte	0
 11773 3a1a 00       		.byte	0
 11774 3a1b 00       		.byte	0
 11775 3a1c 46       		.uleb128 0x46
ARM GAS  C:\Users\164\AppData\Local\Temp\cc4PZf78.s 			page 253


 11776 3a1d 93190000 		.4byte	0x1993
 11777 3a21 6E130000 		.4byte	.LBB293
 11778 3a25 3A000000 		.4byte	.LBE293-.LBB293
 11779 3a29 01       		.byte	0x1
 11780 3a2a 0407     		.2byte	0x704
 11781 3a2c 9E3A0000 		.4byte	0x3a9e
 11782 3a30 30       		.uleb128 0x30
 11783 3a31 BB190000 		.4byte	0x19bb
 11784 3a35 DC2D0000 		.4byte	.LLST337
 11785 3a39 30       		.uleb128 0x30
 11786 3a3a AF190000 		.4byte	0x19af
 11787 3a3e EF2D0000 		.4byte	.LLST338
 11788 3a42 30       		.uleb128 0x30
 11789 3a43 A4190000 		.4byte	0x19a4
 11790 3a47 022E0000 		.4byte	.LLST339
 11791 3a4b 31       		.uleb128 0x31
 11792 3a4c 6E130000 		.4byte	.LBB294
 11793 3a50 3A000000 		.4byte	.LBE294-.LBB294
 11794 3a54 32       		.uleb128 0x32
 11795 3a55 C7190000 		.4byte	0x19c7
 11796 3a59 152E0000 		.4byte	.LLST340
 11797 3a5d 32       		.uleb128 0x32
 11798 3a5e D2190000 		.4byte	0x19d2
 11799 3a62 282E0000 		.4byte	.LLST341
 11800 3a66 32       		.uleb128 0x32
 11801 3a67 DD190000 		.4byte	0x19dd
 11802 3a6b 3B2E0000 		.4byte	.LLST342
 11803 3a6f 40       		.uleb128 0x40
 11804 3a70 7E130000 		.4byte	.LVL768
 11805 3a74 9A3F0000 		.4byte	0x3f9a
 11806 3a78 8C3A0000 		.4byte	0x3a8c
 11807 3a7c 2B       		.uleb128 0x2b
 11808 3a7d 01       		.uleb128 0x1
 11809 3a7e 50       		.byte	0x50
 11810 3a7f 02       		.uleb128 0x2
 11811 3a80 75       		.byte	0x75
 11812 3a81 00       		.sleb128 0
 11813 3a82 2B       		.uleb128 0x2b
 11814 3a83 01       		.uleb128 0x1
 11815 3a84 51       		.byte	0x51
 11816 3a85 05       		.uleb128 0x5
 11817 3a86 03       		.byte	0x3
 11818 3a87 78000000 		.4byte	.LC5
 11819 3a8b 00       		.byte	0
 11820 3a8c 2A       		.uleb128 0x2a
 11821 3a8d A0130000 		.4byte	.LVL773
 11822 3a91 F73E0000 		.4byte	0x3ef7
 11823 3a95 2B       		.uleb128 0x2b
 11824 3a96 01       		.uleb128 0x1
 11825 3a97 50       		.byte	0x50
 11826 3a98 02       		.uleb128 0x2
 11827 3a99 78       		.byte	0x78
 11828 3a9a 00       		.sleb128 0
 11829 3a9b 00       		.byte	0
 11830 3a9c 00       		.byte	0
 11831 3a9d 00       		.byte	0
 11832 3a9e 46       		.uleb128 0x46
ARM GAS  C:\Users\164\AppData\Local\Temp\cc4PZf78.s 			page 254


 11833 3a9f EA190000 		.4byte	0x19ea
 11834 3aa3 AC130000 		.4byte	.LBB295
 11835 3aa7 50000000 		.4byte	.LBE295-.LBB295
 11836 3aab 01       		.byte	0x1
 11837 3aac 0507     		.2byte	0x705
 11838 3aae 603B0000 		.4byte	0x3b60
 11839 3ab2 30       		.uleb128 0x30
 11840 3ab3 121A0000 		.4byte	0x1a12
 11841 3ab7 592E0000 		.4byte	.LLST343
 11842 3abb 30       		.uleb128 0x30
 11843 3abc 061A0000 		.4byte	0x1a06
 11844 3ac0 772E0000 		.4byte	.LLST344
 11845 3ac4 30       		.uleb128 0x30
 11846 3ac5 FB190000 		.4byte	0x19fb
 11847 3ac9 8A2E0000 		.4byte	.LLST345
 11848 3acd 31       		.uleb128 0x31
 11849 3ace AC130000 		.4byte	.LBB296
 11850 3ad2 50000000 		.4byte	.LBE296-.LBB296
 11851 3ad6 32       		.uleb128 0x32
 11852 3ad7 1E1A0000 		.4byte	0x1a1e
 11853 3adb 9D2E0000 		.4byte	.LLST346
 11854 3adf 32       		.uleb128 0x32
 11855 3ae0 291A0000 		.4byte	0x1a29
 11856 3ae4 BB2E0000 		.4byte	.LLST347
 11857 3ae8 32       		.uleb128 0x32
 11858 3ae9 341A0000 		.4byte	0x1a34
 11859 3aed DB2E0000 		.4byte	.LLST348
 11860 3af1 47       		.uleb128 0x47
 11861 3af2 3F1A0000 		.4byte	0x1a3f
 11862 3af6 02       		.uleb128 0x2
 11863 3af7 91       		.byte	0x91
 11864 3af8 48       		.sleb128 -56
 11865 3af9 40       		.uleb128 0x40
 11866 3afa C0130000 		.4byte	.LVL779
 11867 3afe 023F0000 		.4byte	0x3f02
 11868 3b02 0D3B0000 		.4byte	0x3b0d
 11869 3b06 2B       		.uleb128 0x2b
 11870 3b07 01       		.uleb128 0x1
 11871 3b08 50       		.byte	0x50
 11872 3b09 02       		.uleb128 0x2
 11873 3b0a 79       		.byte	0x79
 11874 3b0b 00       		.sleb128 0
 11875 3b0c 00       		.byte	0
 11876 3b0d 40       		.uleb128 0x40
 11877 3b0e CE130000 		.4byte	.LVL782
 11878 3b12 023F0000 		.4byte	0x3f02
 11879 3b16 213B0000 		.4byte	0x3b21
 11880 3b1a 2B       		.uleb128 0x2b
 11881 3b1b 01       		.uleb128 0x1
 11882 3b1c 50       		.byte	0x50
 11883 3b1d 02       		.uleb128 0x2
 11884 3b1e 78       		.byte	0x78
 11885 3b1f 00       		.sleb128 0
 11886 3b20 00       		.byte	0
 11887 3b21 40       		.uleb128 0x40
 11888 3b22 DC130000 		.4byte	.LVL783
 11889 3b26 A53F0000 		.4byte	0x3fa5
ARM GAS  C:\Users\164\AppData\Local\Temp\cc4PZf78.s 			page 255


 11890 3b2a 4E3B0000 		.4byte	0x3b4e
 11891 3b2e 2B       		.uleb128 0x2b
 11892 3b2f 01       		.uleb128 0x1
 11893 3b30 50       		.byte	0x50
 11894 3b31 02       		.uleb128 0x2
 11895 3b32 91       		.byte	0x91
 11896 3b33 48       		.sleb128 -56
 11897 3b34 2B       		.uleb128 0x2b
 11898 3b35 01       		.uleb128 0x1
 11899 3b36 51       		.byte	0x51
 11900 3b37 02       		.uleb128 0x2
 11901 3b38 75       		.byte	0x75
 11902 3b39 00       		.sleb128 0
 11903 3b3a 2B       		.uleb128 0x2b
 11904 3b3b 01       		.uleb128 0x1
 11905 3b3c 52       		.byte	0x52
 11906 3b3d 02       		.uleb128 0x2
 11907 3b3e 79       		.byte	0x79
 11908 3b3f 00       		.sleb128 0
 11909 3b40 2B       		.uleb128 0x2b
 11910 3b41 01       		.uleb128 0x1
 11911 3b42 53       		.byte	0x53
 11912 3b43 02       		.uleb128 0x2
 11913 3b44 78       		.byte	0x78
 11914 3b45 00       		.sleb128 0
 11915 3b46 2B       		.uleb128 0x2b
 11916 3b47 02       		.uleb128 0x2
 11917 3b48 7D       		.byte	0x7d
 11918 3b49 00       		.sleb128 0
 11919 3b4a 02       		.uleb128 0x2
 11920 3b4b 74       		.byte	0x74
 11921 3b4c 00       		.sleb128 0
 11922 3b4d 00       		.byte	0
 11923 3b4e 2A       		.uleb128 0x2a
 11924 3b4f EA130000 		.4byte	.LVL785
 11925 3b53 F73E0000 		.4byte	0x3ef7
 11926 3b57 2B       		.uleb128 0x2b
 11927 3b58 01       		.uleb128 0x1
 11928 3b59 50       		.byte	0x50
 11929 3b5a 02       		.uleb128 0x2
 11930 3b5b 76       		.byte	0x76
 11931 3b5c 00       		.sleb128 0
 11932 3b5d 00       		.byte	0
 11933 3b5e 00       		.byte	0
 11934 3b5f 00       		.byte	0
 11935 3b60 46       		.uleb128 0x46
 11936 3b61 4C1A0000 		.4byte	0x1a4c
 11937 3b65 FE130000 		.4byte	.LBB297
 11938 3b69 4A000000 		.4byte	.LBE297-.LBB297
 11939 3b6d 01       		.byte	0x1
 11940 3b6e 0607     		.2byte	0x706
 11941 3b70 023C0000 		.4byte	0x3c02
 11942 3b74 30       		.uleb128 0x30
 11943 3b75 741A0000 		.4byte	0x1a74
 11944 3b79 EE2E0000 		.4byte	.LLST349
 11945 3b7d 30       		.uleb128 0x30
 11946 3b7e 681A0000 		.4byte	0x1a68
ARM GAS  C:\Users\164\AppData\Local\Temp\cc4PZf78.s 			page 256


 11947 3b82 012F0000 		.4byte	.LLST350
 11948 3b86 30       		.uleb128 0x30
 11949 3b87 5D1A0000 		.4byte	0x1a5d
 11950 3b8b 142F0000 		.4byte	.LLST351
 11951 3b8f 31       		.uleb128 0x31
 11952 3b90 FE130000 		.4byte	.LBB298
 11953 3b94 4A000000 		.4byte	.LBE298-.LBB298
 11954 3b98 32       		.uleb128 0x32
 11955 3b99 801A0000 		.4byte	0x1a80
 11956 3b9d 272F0000 		.4byte	.LLST352
 11957 3ba1 32       		.uleb128 0x32
 11958 3ba2 8B1A0000 		.4byte	0x1a8b
 11959 3ba6 3A2F0000 		.4byte	.LLST353
 11960 3baa 32       		.uleb128 0x32
 11961 3bab 961A0000 		.4byte	0x1a96
 11962 3baf 732F0000 		.4byte	.LLST354
 11963 3bb3 32       		.uleb128 0x32
 11964 3bb4 A21A0000 		.4byte	0x1aa2
 11965 3bb8 862F0000 		.4byte	.LLST355
 11966 3bbc 32       		.uleb128 0x32
 11967 3bbd AE1A0000 		.4byte	0x1aae
 11968 3bc1 A42F0000 		.4byte	.LLST356
 11969 3bc5 32       		.uleb128 0x32
 11970 3bc6 BA1A0000 		.4byte	0x1aba
 11971 3bca B72F0000 		.4byte	.LLST357
 11972 3bce 47       		.uleb128 0x47
 11973 3bcf C61A0000 		.4byte	0x1ac6
 11974 3bd3 02       		.uleb128 0x2
 11975 3bd4 91       		.byte	0x91
 11976 3bd5 48       		.sleb128 -56
 11977 3bd6 40       		.uleb128 0x40
 11978 3bd7 0E140000 		.4byte	.LVL793
 11979 3bdb 8C0B0000 		.4byte	0xb8c
 11980 3bdf F03B0000 		.4byte	0x3bf0
 11981 3be3 2B       		.uleb128 0x2b
 11982 3be4 01       		.uleb128 0x1
 11983 3be5 51       		.byte	0x51
 11984 3be6 08       		.uleb128 0x8
 11985 3be7 74       		.byte	0x74
 11986 3be8 00       		.sleb128 0
 11987 3be9 09       		.byte	0x9
 11988 3bea ED       		.byte	0xed
 11989 3beb 24       		.byte	0x24
 11990 3bec 09       		.byte	0x9
 11991 3bed FB       		.byte	0xfb
 11992 3bee 25       		.byte	0x25
 11993 3bef 00       		.byte	0
 11994 3bf0 2A       		.uleb128 0x2a
 11995 3bf1 2C140000 		.4byte	.LVL797
 11996 3bf5 B03F0000 		.4byte	0x3fb0
 11997 3bf9 2B       		.uleb128 0x2b
 11998 3bfa 01       		.uleb128 0x1
 11999 3bfb 50       		.byte	0x50
 12000 3bfc 02       		.uleb128 0x2
 12001 3bfd 75       		.byte	0x75
 12002 3bfe 00       		.sleb128 0
 12003 3bff 00       		.byte	0
ARM GAS  C:\Users\164\AppData\Local\Temp\cc4PZf78.s 			page 257


 12004 3c00 00       		.byte	0
 12005 3c01 00       		.byte	0
 12006 3c02 46       		.uleb128 0x46
 12007 3c03 D31A0000 		.4byte	0x1ad3
 12008 3c07 4A140000 		.4byte	.LBB299
 12009 3c0b 70000000 		.4byte	.LBE299-.LBB299
 12010 3c0f 01       		.byte	0x1
 12011 3c10 0707     		.2byte	0x707
 12012 3c12 753C0000 		.4byte	0x3c75
 12013 3c16 30       		.uleb128 0x30
 12014 3c17 FB1A0000 		.4byte	0x1afb
 12015 3c1b D62F0000 		.4byte	.LLST358
 12016 3c1f 30       		.uleb128 0x30
 12017 3c20 EF1A0000 		.4byte	0x1aef
 12018 3c24 F62F0000 		.4byte	.LLST359
 12019 3c28 30       		.uleb128 0x30
 12020 3c29 E41A0000 		.4byte	0x1ae4
 12021 3c2d 09300000 		.4byte	.LLST360
 12022 3c31 31       		.uleb128 0x31
 12023 3c32 4A140000 		.4byte	.LBB300
 12024 3c36 70000000 		.4byte	.LBE300-.LBB300
 12025 3c3a 32       		.uleb128 0x32
 12026 3c3b 071B0000 		.4byte	0x1b07
 12027 3c3f 1C300000 		.4byte	.LLST361
 12028 3c43 32       		.uleb128 0x32
 12029 3c44 121B0000 		.4byte	0x1b12
 12030 3c48 2F300000 		.4byte	.LLST362
 12031 3c4c 47       		.uleb128 0x47
 12032 3c4d 1D1B0000 		.4byte	0x1b1d
 12033 3c51 02       		.uleb128 0x2
 12034 3c52 91       		.byte	0x91
 12035 3c53 48       		.sleb128 -56
 12036 3c54 32       		.uleb128 0x32
 12037 3c55 291B0000 		.4byte	0x1b29
 12038 3c59 42300000 		.4byte	.LLST363
 12039 3c5d 2A       		.uleb128 0x2a
 12040 3c5e B6140000 		.4byte	.LVL811
 12041 3c62 BB3F0000 		.4byte	0x3fbb
 12042 3c66 2B       		.uleb128 0x2b
 12043 3c67 01       		.uleb128 0x1
 12044 3c68 50       		.byte	0x50
 12045 3c69 02       		.uleb128 0x2
 12046 3c6a 75       		.byte	0x75
 12047 3c6b 00       		.sleb128 0
 12048 3c6c 2B       		.uleb128 0x2b
 12049 3c6d 01       		.uleb128 0x1
 12050 3c6e 51       		.byte	0x51
 12051 3c6f 02       		.uleb128 0x2
 12052 3c70 91       		.byte	0x91
 12053 3c71 48       		.sleb128 -56
 12054 3c72 00       		.byte	0
 12055 3c73 00       		.byte	0
 12056 3c74 00       		.byte	0
 12057 3c75 46       		.uleb128 0x46
 12058 3c76 361B0000 		.4byte	0x1b36
 12059 3c7a BC140000 		.4byte	.LBB301
 12060 3c7e 9C000000 		.4byte	.LBE301-.LBB301
ARM GAS  C:\Users\164\AppData\Local\Temp\cc4PZf78.s 			page 258


 12061 3c82 01       		.byte	0x1
 12062 3c83 0807     		.2byte	0x708
 12063 3c85 573D0000 		.4byte	0x3d57
 12064 3c89 30       		.uleb128 0x30
 12065 3c8a 5E1B0000 		.4byte	0x1b5e
 12066 3c8e 55300000 		.4byte	.LLST364
 12067 3c92 30       		.uleb128 0x30
 12068 3c93 521B0000 		.4byte	0x1b52
 12069 3c97 68300000 		.4byte	.LLST365
 12070 3c9b 30       		.uleb128 0x30
 12071 3c9c 471B0000 		.4byte	0x1b47
 12072 3ca0 7B300000 		.4byte	.LLST366
 12073 3ca4 31       		.uleb128 0x31
 12074 3ca5 BC140000 		.4byte	.LBB302
 12075 3ca9 9C000000 		.4byte	.LBE302-.LBB302
 12076 3cad 32       		.uleb128 0x32
 12077 3cae 6A1B0000 		.4byte	0x1b6a
 12078 3cb2 8E300000 		.4byte	.LLST367
 12079 3cb6 32       		.uleb128 0x32
 12080 3cb7 751B0000 		.4byte	0x1b75
 12081 3cbb A1300000 		.4byte	.LLST368
 12082 3cbf 32       		.uleb128 0x32
 12083 3cc0 801B0000 		.4byte	0x1b80
 12084 3cc4 B4300000 		.4byte	.LLST369
 12085 3cc8 31       		.uleb128 0x31
 12086 3cc9 D4140000 		.4byte	.LBB303
 12087 3ccd 84000000 		.4byte	.LBE303-.LBB303
 12088 3cd1 32       		.uleb128 0x32
 12089 3cd2 8D1B0000 		.4byte	0x1b8d
 12090 3cd6 C7300000 		.4byte	.LLST370
 12091 3cda 32       		.uleb128 0x32
 12092 3cdb 991B0000 		.4byte	0x1b99
 12093 3cdf DA300000 		.4byte	.LLST371
 12094 3ce3 32       		.uleb128 0x32
 12095 3ce4 A51B0000 		.4byte	0x1ba5
 12096 3ce8 ED300000 		.4byte	.LLST372
 12097 3cec 32       		.uleb128 0x32
 12098 3ced B11B0000 		.4byte	0x1bb1
 12099 3cf1 00310000 		.4byte	.LLST373
 12100 3cf5 32       		.uleb128 0x32
 12101 3cf6 BD1B0000 		.4byte	0x1bbd
 12102 3cfa 1E310000 		.4byte	.LLST374
 12103 3cfe 32       		.uleb128 0x32
 12104 3cff C71B0000 		.4byte	0x1bc7
 12105 3d03 31310000 		.4byte	.LLST375
 12106 3d07 3E       		.uleb128 0x3e
 12107 3d08 20150000 		.4byte	.LBB304
 12108 3d0c 16000000 		.4byte	.LBE304-.LBB304
 12109 3d10 2D3D0000 		.4byte	0x3d2d
 12110 3d14 47       		.uleb128 0x47
 12111 3d15 D31B0000 		.4byte	0x1bd3
 12112 3d19 02       		.uleb128 0x2
 12113 3d1a 91       		.byte	0x91
 12114 3d1b 48       		.sleb128 -56
 12115 3d1c 2A       		.uleb128 0x2a
 12116 3d1d 36150000 		.4byte	.LVL828
 12117 3d21 F73E0000 		.4byte	0x3ef7
ARM GAS  C:\Users\164\AppData\Local\Temp\cc4PZf78.s 			page 259


 12118 3d25 2B       		.uleb128 0x2b
 12119 3d26 01       		.uleb128 0x1
 12120 3d27 50       		.byte	0x50
 12121 3d28 02       		.uleb128 0x2
 12122 3d29 91       		.byte	0x91
 12123 3d2a 48       		.sleb128 -56
 12124 3d2b 00       		.byte	0
 12125 3d2c 00       		.byte	0
 12126 3d2d 35       		.uleb128 0x35
 12127 3d2e E0140000 		.4byte	.LVL821
 12128 3d32 8C0B0000 		.4byte	0xb8c
 12129 3d36 35       		.uleb128 0x35
 12130 3d37 E4140000 		.4byte	.LVL822
 12131 3d3b 0D3F0000 		.4byte	0x3f0d
 12132 3d3f 2A       		.uleb128 0x2a
 12133 3d40 54150000 		.4byte	.LVL829
 12134 3d44 C63F0000 		.4byte	0x3fc6
 12135 3d48 2B       		.uleb128 0x2b
 12136 3d49 01       		.uleb128 0x1
 12137 3d4a 50       		.byte	0x50
 12138 3d4b 02       		.uleb128 0x2
 12139 3d4c 74       		.byte	0x74
 12140 3d4d 00       		.sleb128 0
 12141 3d4e 2B       		.uleb128 0x2b
 12142 3d4f 01       		.uleb128 0x1
 12143 3d50 51       		.byte	0x51
 12144 3d51 01       		.uleb128 0x1
 12145 3d52 30       		.byte	0x30
 12146 3d53 00       		.byte	0
 12147 3d54 00       		.byte	0
 12148 3d55 00       		.byte	0
 12149 3d56 00       		.byte	0
 12150 3d57 46       		.uleb128 0x46
 12151 3d58 E20A0000 		.4byte	0xae2
 12152 3d5c 5C150000 		.4byte	.LBB305
 12153 3d60 16000000 		.4byte	.LBE305-.LBB305
 12154 3d64 01       		.byte	0x1
 12155 3d65 0907     		.2byte	0x709
 12156 3d67 AA3D0000 		.4byte	0x3daa
 12157 3d6b 30       		.uleb128 0x30
 12158 3d6c 0A0B0000 		.4byte	0xb0a
 12159 3d70 44310000 		.4byte	.LLST376
 12160 3d74 30       		.uleb128 0x30
 12161 3d75 FE0A0000 		.4byte	0xafe
 12162 3d79 57310000 		.4byte	.LLST377
 12163 3d7d 30       		.uleb128 0x30
 12164 3d7e F30A0000 		.4byte	0xaf3
 12165 3d82 6A310000 		.4byte	.LLST378
 12166 3d86 31       		.uleb128 0x31
 12167 3d87 5C150000 		.4byte	.LBB306
 12168 3d8b 16000000 		.4byte	.LBE306-.LBB306
 12169 3d8f 32       		.uleb128 0x32
 12170 3d90 160B0000 		.4byte	0xb16
 12171 3d94 7D310000 		.4byte	.LLST379
 12172 3d98 2A       		.uleb128 0x2a
 12173 3d99 68150000 		.4byte	.LVL835
 12174 3d9d F73E0000 		.4byte	0x3ef7
ARM GAS  C:\Users\164\AppData\Local\Temp\cc4PZf78.s 			page 260


 12175 3da1 2B       		.uleb128 0x2b
 12176 3da2 01       		.uleb128 0x1
 12177 3da3 50       		.byte	0x50
 12178 3da4 02       		.uleb128 0x2
 12179 3da5 77       		.byte	0x77
 12180 3da6 00       		.sleb128 0
 12181 3da7 00       		.byte	0
 12182 3da8 00       		.byte	0
 12183 3da9 00       		.byte	0
 12184 3daa 46       		.uleb128 0x46
 12185 3dab 220B0000 		.4byte	0xb22
 12186 3daf 76150000 		.4byte	.LBB307
 12187 3db3 24000000 		.4byte	.LBE307-.LBB307
 12188 3db7 01       		.byte	0x1
 12189 3db8 0A07     		.2byte	0x70a
 12190 3dba 003E0000 		.4byte	0x3e00
 12191 3dbe 30       		.uleb128 0x30
 12192 3dbf 4A0B0000 		.4byte	0xb4a
 12193 3dc3 90310000 		.4byte	.LLST380
 12194 3dc7 30       		.uleb128 0x30
 12195 3dc8 3E0B0000 		.4byte	0xb3e
 12196 3dcc A3310000 		.4byte	.LLST381
 12197 3dd0 30       		.uleb128 0x30
 12198 3dd1 330B0000 		.4byte	0xb33
 12199 3dd5 B6310000 		.4byte	.LLST382
 12200 3dd9 4B       		.uleb128 0x4b
 12201 3dda 00000000 		.4byte	.Ldebug_ranges0+0
 12202 3dde 32       		.uleb128 0x32
 12203 3ddf 570B0000 		.4byte	0xb57
 12204 3de3 C9310000 		.4byte	.LLST383
 12205 3de7 2A       		.uleb128 0x2a
 12206 3de8 8A150000 		.4byte	.LVL840
 12207 3dec F73E0000 		.4byte	0x3ef7
 12208 3df0 2B       		.uleb128 0x2b
 12209 3df1 01       		.uleb128 0x1
 12210 3df2 50       		.byte	0x50
 12211 3df3 09       		.uleb128 0x9
 12212 3df4 74       		.byte	0x74
 12213 3df5 00       		.sleb128 0
 12214 3df6 34       		.byte	0x34
 12215 3df7 24       		.byte	0x24
 12216 3df8 75       		.byte	0x75
 12217 3df9 00       		.sleb128 0
 12218 3dfa 22       		.byte	0x22
 12219 3dfb 23       		.byte	0x23
 12220 3dfc 18       		.uleb128 0x18
 12221 3dfd 00       		.byte	0
 12222 3dfe 00       		.byte	0
 12223 3dff 00       		.byte	0
 12224 3e00 46       		.uleb128 0x46
 12225 3e01 220B0000 		.4byte	0xb22
 12226 3e05 A0150000 		.4byte	.LBB311
 12227 3e09 24000000 		.4byte	.LBE311-.LBB311
 12228 3e0d 01       		.byte	0x1
 12229 3e0e 0B07     		.2byte	0x70b
 12230 3e10 563E0000 		.4byte	0x3e56
 12231 3e14 30       		.uleb128 0x30
ARM GAS  C:\Users\164\AppData\Local\Temp\cc4PZf78.s 			page 261


 12232 3e15 4A0B0000 		.4byte	0xb4a
 12233 3e19 E7310000 		.4byte	.LLST384
 12234 3e1d 30       		.uleb128 0x30
 12235 3e1e 3E0B0000 		.4byte	0xb3e
 12236 3e22 FA310000 		.4byte	.LLST385
 12237 3e26 30       		.uleb128 0x30
 12238 3e27 330B0000 		.4byte	0xb33
 12239 3e2b 0D320000 		.4byte	.LLST386
 12240 3e2f 4B       		.uleb128 0x4b
 12241 3e30 18000000 		.4byte	.Ldebug_ranges0+0x18
 12242 3e34 32       		.uleb128 0x32
 12243 3e35 570B0000 		.4byte	0xb57
 12244 3e39 20320000 		.4byte	.LLST387
 12245 3e3d 2A       		.uleb128 0x2a
 12246 3e3e B4150000 		.4byte	.LVL849
 12247 3e42 F73E0000 		.4byte	0x3ef7
 12248 3e46 2B       		.uleb128 0x2b
 12249 3e47 01       		.uleb128 0x1
 12250 3e48 50       		.byte	0x50
 12251 3e49 09       		.uleb128 0x9
 12252 3e4a 74       		.byte	0x74
 12253 3e4b 00       		.sleb128 0
 12254 3e4c 34       		.byte	0x34
 12255 3e4d 24       		.byte	0x24
 12256 3e4e 75       		.byte	0x75
 12257 3e4f 00       		.sleb128 0
 12258 3e50 22       		.byte	0x22
 12259 3e51 23       		.byte	0x23
 12260 3e52 18       		.uleb128 0x18
 12261 3e53 00       		.byte	0
 12262 3e54 00       		.byte	0
 12263 3e55 00       		.byte	0
 12264 3e56 2A       		.uleb128 0x2a
 12265 3e57 D4150000 		.4byte	.LVL856
 12266 3e5b A13E0000 		.4byte	0x3ea1
 12267 3e5f 2B       		.uleb128 0x2b
 12268 3e60 01       		.uleb128 0x1
 12269 3e61 50       		.byte	0x50
 12270 3e62 05       		.uleb128 0x5
 12271 3e63 03       		.byte	0x3
 12272 3e64 84000000 		.4byte	.LC6
 12273 3e68 2B       		.uleb128 0x2b
 12274 3e69 01       		.uleb128 0x1
 12275 3e6a 51       		.byte	0x51
 12276 3e6b 05       		.uleb128 0x5
 12277 3e6c 74       		.byte	0x74
 12278 3e6d 00       		.sleb128 0
 12279 3e6e 08       		.byte	0x8
 12280 3e6f 7F       		.byte	0x7f
 12281 3e70 1A       		.byte	0x1a
 12282 3e71 00       		.byte	0
 12283 3e72 00       		.byte	0
 12284 3e73 00       		.byte	0
 12285 3e74 4C       		.uleb128 0x4c
 12286 3e75 CA080000 		.4byte	.LASF229
 12287 3e79 01       		.byte	0x1
 12288 3e7a 23       		.byte	0x23
ARM GAS  C:\Users\164\AppData\Local\Temp\cc4PZf78.s 			page 262


 12289 3e7b 1B080000 		.4byte	0x81b
 12290 3e7f 05       		.uleb128 0x5
 12291 3e80 03       		.byte	0x3
 12292 3e81 00000000 		.4byte	free_vm_bitmap
 12293 3e85 4D       		.uleb128 0x4d
 12294 3e86 93030000 		.4byte	.LASF230
 12295 3e8a 0A       		.byte	0xa
 12296 3e8b 21       		.byte	0x21
 12297 3e8c 8A060000 		.4byte	0x68a
 12298 3e90 4E       		.uleb128 0x4e
 12299 3e91 10060000 		.4byte	.LASF231
 12300 3e95 0B       		.byte	0xb
 12301 3e96 1207     		.2byte	0x712
 12302 3e98 9C3E0000 		.4byte	0x3e9c
 12303 3e9c 1C       		.uleb128 0x1c
 12304 3e9d D9000000 		.4byte	0xd9
 12305 3ea1 4F       		.uleb128 0x4f
 12306 3ea2 C7040000 		.4byte	.LASF232
 12307 3ea6 C7040000 		.4byte	.LASF232
 12308 3eaa 0C       		.byte	0xc
 12309 3eab 31       		.byte	0x31
 12310 3eac 4F       		.uleb128 0x4f
 12311 3ead 77060000 		.4byte	.LASF233
 12312 3eb1 77060000 		.4byte	.LASF233
 12313 3eb5 0D       		.byte	0xd
 12314 3eb6 1A       		.byte	0x1a
 12315 3eb7 4F       		.uleb128 0x4f
 12316 3eb8 C6010000 		.4byte	.LASF234
 12317 3ebc C6010000 		.4byte	.LASF234
 12318 3ec0 0D       		.byte	0xd
 12319 3ec1 1C       		.byte	0x1c
 12320 3ec2 50       		.uleb128 0x50
 12321 3ec3 3E080000 		.4byte	.LASF251
 12322 3ec7 3E080000 		.4byte	.LASF251
 12323 3ecb 4F       		.uleb128 0x4f
 12324 3ecc 94040000 		.4byte	.LASF235
 12325 3ed0 94040000 		.4byte	.LASF235
 12326 3ed4 0E       		.byte	0xe
 12327 3ed5 29       		.byte	0x29
 12328 3ed6 4F       		.uleb128 0x4f
 12329 3ed7 C9000000 		.4byte	.LASF236
 12330 3edb C9000000 		.4byte	.LASF236
 12331 3edf 05       		.byte	0x5
 12332 3ee0 C7       		.byte	0xc7
 12333 3ee1 4F       		.uleb128 0x4f
 12334 3ee2 38040000 		.4byte	.LASF237
 12335 3ee6 38040000 		.4byte	.LASF237
 12336 3eea 0F       		.byte	0xf
 12337 3eeb 20       		.byte	0x20
 12338 3eec 4F       		.uleb128 0x4f
 12339 3eed 06010000 		.4byte	.LASF238
 12340 3ef1 06010000 		.4byte	.LASF238
 12341 3ef5 0D       		.byte	0xd
 12342 3ef6 22       		.byte	0x22
 12343 3ef7 4F       		.uleb128 0x4f
 12344 3ef8 07040000 		.4byte	.LASF239
 12345 3efc 07040000 		.4byte	.LASF239
ARM GAS  C:\Users\164\AppData\Local\Temp\cc4PZf78.s 			page 263


 12346 3f00 05       		.byte	0x5
 12347 3f01 C2       		.byte	0xc2
 12348 3f02 4F       		.uleb128 0x4f
 12349 3f03 7D0A0000 		.4byte	.LASF240
 12350 3f07 7D0A0000 		.4byte	.LASF240
 12351 3f0b 05       		.byte	0x5
 12352 3f0c C1       		.byte	0xc1
 12353 3f0d 4F       		.uleb128 0x4f
 12354 3f0e A2040000 		.4byte	.LASF241
 12355 3f12 A2040000 		.4byte	.LASF241
 12356 3f16 10       		.byte	0x10
 12357 3f17 1B       		.byte	0x1b
 12358 3f18 4F       		.uleb128 0x4f
 12359 3f19 25090000 		.4byte	.LASF242
 12360 3f1d 25090000 		.4byte	.LASF242
 12361 3f21 0F       		.byte	0xf
 12362 3f22 1B       		.byte	0x1b
 12363 3f23 4F       		.uleb128 0x4f
 12364 3f24 5C060000 		.4byte	.LASF243
 12365 3f28 5C060000 		.4byte	.LASF243
 12366 3f2c 0F       		.byte	0xf
 12367 3f2d 1A       		.byte	0x1a
 12368 3f2e 4F       		.uleb128 0x4f
 12369 3f2f 80090000 		.4byte	.LASF244
 12370 3f33 80090000 		.4byte	.LASF244
 12371 3f37 05       		.byte	0x5
 12372 3f38 CB       		.byte	0xcb
 12373 3f39 4F       		.uleb128 0x4f
 12374 3f3a 0A0B0000 		.4byte	.LASF245
 12375 3f3e 0A0B0000 		.4byte	.LASF245
 12376 3f42 05       		.byte	0x5
 12377 3f43 CA       		.byte	0xca
 12378 3f44 4F       		.uleb128 0x4f
 12379 3f45 D1050000 		.4byte	.LASF246
 12380 3f49 D1050000 		.4byte	.LASF246
 12381 3f4d 0F       		.byte	0xf
 12382 3f4e 1E       		.byte	0x1e
 12383 3f4f 4F       		.uleb128 0x4f
 12384 3f50 D2020000 		.4byte	.LASF247
 12385 3f54 D2020000 		.4byte	.LASF247
 12386 3f58 0F       		.byte	0xf
 12387 3f59 1D       		.byte	0x1d
 12388 3f5a 4F       		.uleb128 0x4f
 12389 3f5b A8060000 		.4byte	.LASF248
 12390 3f5f A8060000 		.4byte	.LASF248
 12391 3f63 11       		.byte	0x11
 12392 3f64 1B       		.byte	0x1b
 12393 3f65 4F       		.uleb128 0x4f
 12394 3f66 5C080000 		.4byte	.LASF249
 12395 3f6a 5C080000 		.4byte	.LASF249
 12396 3f6e 05       		.byte	0x5
 12397 3f6f C0       		.byte	0xc0
 12398 3f70 4F       		.uleb128 0x4f
 12399 3f71 63000000 		.4byte	.LASF250
 12400 3f75 63000000 		.4byte	.LASF250
 12401 3f79 06       		.byte	0x6
 12402 3f7a 27       		.byte	0x27
ARM GAS  C:\Users\164\AppData\Local\Temp\cc4PZf78.s 			page 264


 12403 3f7b 50       		.uleb128 0x50
 12404 3f7c D6090000 		.4byte	.LASF252
 12405 3f80 D6090000 		.4byte	.LASF252
 12406 3f84 4F       		.uleb128 0x4f
 12407 3f85 1B040000 		.4byte	.LASF253
 12408 3f89 1B040000 		.4byte	.LASF253
 12409 3f8d 07       		.byte	0x7
 12410 3f8e 28       		.byte	0x28
 12411 3f8f 4F       		.uleb128 0x4f
 12412 3f90 68070000 		.4byte	.LASF254
 12413 3f94 68070000 		.4byte	.LASF254
 12414 3f98 07       		.byte	0x7
 12415 3f99 2E       		.byte	0x2e
 12416 3f9a 4F       		.uleb128 0x4f
 12417 3f9b ED020000 		.4byte	.LASF255
 12418 3f9f ED020000 		.4byte	.LASF255
 12419 3fa3 05       		.byte	0x5
 12420 3fa4 BF       		.byte	0xbf
 12421 3fa5 4F       		.uleb128 0x4f
 12422 3fa6 99060000 		.4byte	.LASF256
 12423 3faa 99060000 		.4byte	.LASF256
 12424 3fae 08       		.byte	0x8
 12425 3faf 28       		.byte	0x28
 12426 3fb0 4F       		.uleb128 0x4f
 12427 3fb1 3D0B0000 		.4byte	.LASF257
 12428 3fb5 3D0B0000 		.4byte	.LASF257
 12429 3fb9 11       		.byte	0x11
 12430 3fba 1E       		.byte	0x1e
 12431 3fbb 4F       		.uleb128 0x4f
 12432 3fbc 25000000 		.4byte	.LASF258
 12433 3fc0 25000000 		.4byte	.LASF258
 12434 3fc4 11       		.byte	0x11
 12435 3fc5 1A       		.byte	0x1a
 12436 3fc6 4F       		.uleb128 0x4f
 12437 3fc7 D8060000 		.4byte	.LASF259
 12438 3fcb D8060000 		.4byte	.LASF259
 12439 3fcf 0D       		.byte	0xd
 12440 3fd0 23       		.byte	0x23
 12441 3fd1 00       		.byte	0
 12442              		.section	.debug_abbrev,"",%progbits
 12443              	.Ldebug_abbrev0:
 12444 0000 01       		.uleb128 0x1
 12445 0001 11       		.uleb128 0x11
 12446 0002 01       		.byte	0x1
 12447 0003 25       		.uleb128 0x25
 12448 0004 0E       		.uleb128 0xe
 12449 0005 13       		.uleb128 0x13
 12450 0006 0B       		.uleb128 0xb
 12451 0007 03       		.uleb128 0x3
 12452 0008 0E       		.uleb128 0xe
 12453 0009 1B       		.uleb128 0x1b
 12454 000a 0E       		.uleb128 0xe
 12455 000b 55       		.uleb128 0x55
 12456 000c 17       		.uleb128 0x17
 12457 000d 11       		.uleb128 0x11
 12458 000e 01       		.uleb128 0x1
 12459 000f 10       		.uleb128 0x10
ARM GAS  C:\Users\164\AppData\Local\Temp\cc4PZf78.s 			page 265


 12460 0010 17       		.uleb128 0x17
 12461 0011 00       		.byte	0
 12462 0012 00       		.byte	0
 12463 0013 02       		.uleb128 0x2
 12464 0014 16       		.uleb128 0x16
 12465 0015 00       		.byte	0
 12466 0016 03       		.uleb128 0x3
 12467 0017 0E       		.uleb128 0xe
 12468 0018 3A       		.uleb128 0x3a
 12469 0019 0B       		.uleb128 0xb
 12470 001a 3B       		.uleb128 0x3b
 12471 001b 0B       		.uleb128 0xb
 12472 001c 49       		.uleb128 0x49
 12473 001d 13       		.uleb128 0x13
 12474 001e 00       		.byte	0
 12475 001f 00       		.byte	0
 12476 0020 03       		.uleb128 0x3
 12477 0021 24       		.uleb128 0x24
 12478 0022 00       		.byte	0
 12479 0023 0B       		.uleb128 0xb
 12480 0024 0B       		.uleb128 0xb
 12481 0025 3E       		.uleb128 0x3e
 12482 0026 0B       		.uleb128 0xb
 12483 0027 03       		.uleb128 0x3
 12484 0028 0E       		.uleb128 0xe
 12485 0029 00       		.byte	0
 12486 002a 00       		.byte	0
 12487 002b 04       		.uleb128 0x4
 12488 002c 24       		.uleb128 0x24
 12489 002d 00       		.byte	0
 12490 002e 0B       		.uleb128 0xb
 12491 002f 0B       		.uleb128 0xb
 12492 0030 3E       		.uleb128 0x3e
 12493 0031 0B       		.uleb128 0xb
 12494 0032 03       		.uleb128 0x3
 12495 0033 08       		.uleb128 0x8
 12496 0034 00       		.byte	0
 12497 0035 00       		.byte	0
 12498 0036 05       		.uleb128 0x5
 12499 0037 0F       		.uleb128 0xf
 12500 0038 00       		.byte	0
 12501 0039 0B       		.uleb128 0xb
 12502 003a 0B       		.uleb128 0xb
 12503 003b 00       		.byte	0
 12504 003c 00       		.byte	0
 12505 003d 06       		.uleb128 0x6
 12506 003e 0F       		.uleb128 0xf
 12507 003f 00       		.byte	0
 12508 0040 0B       		.uleb128 0xb
 12509 0041 0B       		.uleb128 0xb
 12510 0042 49       		.uleb128 0x49
 12511 0043 13       		.uleb128 0x13
 12512 0044 00       		.byte	0
 12513 0045 00       		.byte	0
 12514 0046 07       		.uleb128 0x7
 12515 0047 26       		.uleb128 0x26
 12516 0048 00       		.byte	0
ARM GAS  C:\Users\164\AppData\Local\Temp\cc4PZf78.s 			page 266


 12517 0049 49       		.uleb128 0x49
 12518 004a 13       		.uleb128 0x13
 12519 004b 00       		.byte	0
 12520 004c 00       		.byte	0
 12521 004d 08       		.uleb128 0x8
 12522 004e 15       		.uleb128 0x15
 12523 004f 01       		.byte	0x1
 12524 0050 27       		.uleb128 0x27
 12525 0051 19       		.uleb128 0x19
 12526 0052 01       		.uleb128 0x1
 12527 0053 13       		.uleb128 0x13
 12528 0054 00       		.byte	0
 12529 0055 00       		.byte	0
 12530 0056 09       		.uleb128 0x9
 12531 0057 05       		.uleb128 0x5
 12532 0058 00       		.byte	0
 12533 0059 49       		.uleb128 0x49
 12534 005a 13       		.uleb128 0x13
 12535 005b 00       		.byte	0
 12536 005c 00       		.byte	0
 12537 005d 0A       		.uleb128 0xa
 12538 005e 13       		.uleb128 0x13
 12539 005f 01       		.byte	0x1
 12540 0060 03       		.uleb128 0x3
 12541 0061 08       		.uleb128 0x8
 12542 0062 0B       		.uleb128 0xb
 12543 0063 05       		.uleb128 0x5
 12544 0064 3A       		.uleb128 0x3a
 12545 0065 0B       		.uleb128 0xb
 12546 0066 3B       		.uleb128 0x3b
 12547 0067 0B       		.uleb128 0xb
 12548 0068 01       		.uleb128 0x1
 12549 0069 13       		.uleb128 0x13
 12550 006a 00       		.byte	0
 12551 006b 00       		.byte	0
 12552 006c 0B       		.uleb128 0xb
 12553 006d 0D       		.uleb128 0xd
 12554 006e 00       		.byte	0
 12555 006f 03       		.uleb128 0x3
 12556 0070 0E       		.uleb128 0xe
 12557 0071 3A       		.uleb128 0x3a
 12558 0072 0B       		.uleb128 0xb
 12559 0073 3B       		.uleb128 0x3b
 12560 0074 0B       		.uleb128 0xb
 12561 0075 49       		.uleb128 0x49
 12562 0076 13       		.uleb128 0x13
 12563 0077 38       		.uleb128 0x38
 12564 0078 0B       		.uleb128 0xb
 12565 0079 00       		.byte	0
 12566 007a 00       		.byte	0
 12567 007b 0C       		.uleb128 0xc
 12568 007c 0D       		.uleb128 0xd
 12569 007d 00       		.byte	0
 12570 007e 03       		.uleb128 0x3
 12571 007f 08       		.uleb128 0x8
 12572 0080 3A       		.uleb128 0x3a
 12573 0081 0B       		.uleb128 0xb
ARM GAS  C:\Users\164\AppData\Local\Temp\cc4PZf78.s 			page 267


 12574 0082 3B       		.uleb128 0x3b
 12575 0083 0B       		.uleb128 0xb
 12576 0084 49       		.uleb128 0x49
 12577 0085 13       		.uleb128 0x13
 12578 0086 38       		.uleb128 0x38
 12579 0087 0B       		.uleb128 0xb
 12580 0088 00       		.byte	0
 12581 0089 00       		.byte	0
 12582 008a 0D       		.uleb128 0xd
 12583 008b 0D       		.uleb128 0xd
 12584 008c 00       		.byte	0
 12585 008d 03       		.uleb128 0x3
 12586 008e 0E       		.uleb128 0xe
 12587 008f 3A       		.uleb128 0x3a
 12588 0090 0B       		.uleb128 0xb
 12589 0091 3B       		.uleb128 0x3b
 12590 0092 0B       		.uleb128 0xb
 12591 0093 49       		.uleb128 0x49
 12592 0094 13       		.uleb128 0x13
 12593 0095 38       		.uleb128 0x38
 12594 0096 05       		.uleb128 0x5
 12595 0097 00       		.byte	0
 12596 0098 00       		.byte	0
 12597 0099 0E       		.uleb128 0xe
 12598 009a 13       		.uleb128 0x13
 12599 009b 01       		.byte	0x1
 12600 009c 03       		.uleb128 0x3
 12601 009d 0E       		.uleb128 0xe
 12602 009e 0B       		.uleb128 0xb
 12603 009f 0B       		.uleb128 0xb
 12604 00a0 3A       		.uleb128 0x3a
 12605 00a1 0B       		.uleb128 0xb
 12606 00a2 3B       		.uleb128 0x3b
 12607 00a3 0B       		.uleb128 0xb
 12608 00a4 01       		.uleb128 0x1
 12609 00a5 13       		.uleb128 0x13
 12610 00a6 00       		.byte	0
 12611 00a7 00       		.byte	0
 12612 00a8 0F       		.uleb128 0xf
 12613 00a9 0D       		.uleb128 0xd
 12614 00aa 00       		.byte	0
 12615 00ab 03       		.uleb128 0x3
 12616 00ac 08       		.uleb128 0x8
 12617 00ad 3A       		.uleb128 0x3a
 12618 00ae 0B       		.uleb128 0xb
 12619 00af 3B       		.uleb128 0x3b
 12620 00b0 0B       		.uleb128 0xb
 12621 00b1 49       		.uleb128 0x49
 12622 00b2 13       		.uleb128 0x13
 12623 00b3 0B       		.uleb128 0xb
 12624 00b4 0B       		.uleb128 0xb
 12625 00b5 0D       		.uleb128 0xd
 12626 00b6 0B       		.uleb128 0xb
 12627 00b7 0C       		.uleb128 0xc
 12628 00b8 0B       		.uleb128 0xb
 12629 00b9 38       		.uleb128 0x38
 12630 00ba 0B       		.uleb128 0xb
ARM GAS  C:\Users\164\AppData\Local\Temp\cc4PZf78.s 			page 268


 12631 00bb 00       		.byte	0
 12632 00bc 00       		.byte	0
 12633 00bd 10       		.uleb128 0x10
 12634 00be 0D       		.uleb128 0xd
 12635 00bf 00       		.byte	0
 12636 00c0 49       		.uleb128 0x49
 12637 00c1 13       		.uleb128 0x13
 12638 00c2 38       		.uleb128 0x38
 12639 00c3 0B       		.uleb128 0xb
 12640 00c4 00       		.byte	0
 12641 00c5 00       		.byte	0
 12642 00c6 11       		.uleb128 0x11
 12643 00c7 04       		.uleb128 0x4
 12644 00c8 01       		.byte	0x1
 12645 00c9 0B       		.uleb128 0xb
 12646 00ca 0B       		.uleb128 0xb
 12647 00cb 49       		.uleb128 0x49
 12648 00cc 13       		.uleb128 0x13
 12649 00cd 3A       		.uleb128 0x3a
 12650 00ce 0B       		.uleb128 0xb
 12651 00cf 3B       		.uleb128 0x3b
 12652 00d0 0B       		.uleb128 0xb
 12653 00d1 01       		.uleb128 0x1
 12654 00d2 13       		.uleb128 0x13
 12655 00d3 00       		.byte	0
 12656 00d4 00       		.byte	0
 12657 00d5 12       		.uleb128 0x12
 12658 00d6 28       		.uleb128 0x28
 12659 00d7 00       		.byte	0
 12660 00d8 03       		.uleb128 0x3
 12661 00d9 0E       		.uleb128 0xe
 12662 00da 1C       		.uleb128 0x1c
 12663 00db 0D       		.uleb128 0xd
 12664 00dc 00       		.byte	0
 12665 00dd 00       		.byte	0
 12666 00de 13       		.uleb128 0x13
 12667 00df 28       		.uleb128 0x28
 12668 00e0 00       		.byte	0
 12669 00e1 03       		.uleb128 0x3
 12670 00e2 0E       		.uleb128 0xe
 12671 00e3 1C       		.uleb128 0x1c
 12672 00e4 0B       		.uleb128 0xb
 12673 00e5 00       		.byte	0
 12674 00e6 00       		.byte	0
 12675 00e7 14       		.uleb128 0x14
 12676 00e8 17       		.uleb128 0x17
 12677 00e9 01       		.byte	0x1
 12678 00ea 0B       		.uleb128 0xb
 12679 00eb 0B       		.uleb128 0xb
 12680 00ec 3A       		.uleb128 0x3a
 12681 00ed 0B       		.uleb128 0xb
 12682 00ee 3B       		.uleb128 0x3b
 12683 00ef 0B       		.uleb128 0xb
 12684 00f0 01       		.uleb128 0x1
 12685 00f1 13       		.uleb128 0x13
 12686 00f2 00       		.byte	0
 12687 00f3 00       		.byte	0
ARM GAS  C:\Users\164\AppData\Local\Temp\cc4PZf78.s 			page 269


 12688 00f4 15       		.uleb128 0x15
 12689 00f5 0D       		.uleb128 0xd
 12690 00f6 00       		.byte	0
 12691 00f7 03       		.uleb128 0x3
 12692 00f8 08       		.uleb128 0x8
 12693 00f9 3A       		.uleb128 0x3a
 12694 00fa 0B       		.uleb128 0xb
 12695 00fb 3B       		.uleb128 0x3b
 12696 00fc 0B       		.uleb128 0xb
 12697 00fd 49       		.uleb128 0x49
 12698 00fe 13       		.uleb128 0x13
 12699 00ff 00       		.byte	0
 12700 0100 00       		.byte	0
 12701 0101 16       		.uleb128 0x16
 12702 0102 0D       		.uleb128 0xd
 12703 0103 00       		.byte	0
 12704 0104 03       		.uleb128 0x3
 12705 0105 0E       		.uleb128 0xe
 12706 0106 3A       		.uleb128 0x3a
 12707 0107 0B       		.uleb128 0xb
 12708 0108 3B       		.uleb128 0x3b
 12709 0109 0B       		.uleb128 0xb
 12710 010a 49       		.uleb128 0x49
 12711 010b 13       		.uleb128 0x13
 12712 010c 00       		.byte	0
 12713 010d 00       		.byte	0
 12714 010e 17       		.uleb128 0x17
 12715 010f 0D       		.uleb128 0xd
 12716 0110 00       		.byte	0
 12717 0111 03       		.uleb128 0x3
 12718 0112 0E       		.uleb128 0xe
 12719 0113 3A       		.uleb128 0x3a
 12720 0114 0B       		.uleb128 0xb
 12721 0115 3B       		.uleb128 0x3b
 12722 0116 0B       		.uleb128 0xb
 12723 0117 49       		.uleb128 0x49
 12724 0118 13       		.uleb128 0x13
 12725 0119 0B       		.uleb128 0xb
 12726 011a 0B       		.uleb128 0xb
 12727 011b 0D       		.uleb128 0xd
 12728 011c 0B       		.uleb128 0xb
 12729 011d 0C       		.uleb128 0xc
 12730 011e 0B       		.uleb128 0xb
 12731 011f 38       		.uleb128 0x38
 12732 0120 0B       		.uleb128 0xb
 12733 0121 00       		.byte	0
 12734 0122 00       		.byte	0
 12735 0123 18       		.uleb128 0x18
 12736 0124 13       		.uleb128 0x13
 12737 0125 00       		.byte	0
 12738 0126 03       		.uleb128 0x3
 12739 0127 0E       		.uleb128 0xe
 12740 0128 3C       		.uleb128 0x3c
 12741 0129 19       		.uleb128 0x19
 12742 012a 00       		.byte	0
 12743 012b 00       		.byte	0
 12744 012c 19       		.uleb128 0x19
ARM GAS  C:\Users\164\AppData\Local\Temp\cc4PZf78.s 			page 270


 12745 012d 01       		.uleb128 0x1
 12746 012e 01       		.byte	0x1
 12747 012f 49       		.uleb128 0x49
 12748 0130 13       		.uleb128 0x13
 12749 0131 01       		.uleb128 0x1
 12750 0132 13       		.uleb128 0x13
 12751 0133 00       		.byte	0
 12752 0134 00       		.byte	0
 12753 0135 1A       		.uleb128 0x1a
 12754 0136 21       		.uleb128 0x21
 12755 0137 00       		.byte	0
 12756 0138 49       		.uleb128 0x49
 12757 0139 13       		.uleb128 0x13
 12758 013a 00       		.byte	0
 12759 013b 00       		.byte	0
 12760 013c 1B       		.uleb128 0x1b
 12761 013d 21       		.uleb128 0x21
 12762 013e 00       		.byte	0
 12763 013f 49       		.uleb128 0x49
 12764 0140 13       		.uleb128 0x13
 12765 0141 2F       		.uleb128 0x2f
 12766 0142 0B       		.uleb128 0xb
 12767 0143 00       		.byte	0
 12768 0144 00       		.byte	0
 12769 0145 1C       		.uleb128 0x1c
 12770 0146 35       		.uleb128 0x35
 12771 0147 00       		.byte	0
 12772 0148 49       		.uleb128 0x49
 12773 0149 13       		.uleb128 0x13
 12774 014a 00       		.byte	0
 12775 014b 00       		.byte	0
 12776 014c 1D       		.uleb128 0x1d
 12777 014d 04       		.uleb128 0x4
 12778 014e 01       		.byte	0x1
 12779 014f 03       		.uleb128 0x3
 12780 0150 0E       		.uleb128 0xe
 12781 0151 0B       		.uleb128 0xb
 12782 0152 0B       		.uleb128 0xb
 12783 0153 49       		.uleb128 0x49
 12784 0154 13       		.uleb128 0x13
 12785 0155 3A       		.uleb128 0x3a
 12786 0156 0B       		.uleb128 0xb
 12787 0157 3B       		.uleb128 0x3b
 12788 0158 0B       		.uleb128 0xb
 12789 0159 01       		.uleb128 0x1
 12790 015a 13       		.uleb128 0x13
 12791 015b 00       		.byte	0
 12792 015c 00       		.byte	0
 12793 015d 1E       		.uleb128 0x1e
 12794 015e 26       		.uleb128 0x26
 12795 015f 00       		.byte	0
 12796 0160 00       		.byte	0
 12797 0161 00       		.byte	0
 12798 0162 1F       		.uleb128 0x1f
 12799 0163 2E       		.uleb128 0x2e
 12800 0164 01       		.byte	0x1
 12801 0165 03       		.uleb128 0x3
ARM GAS  C:\Users\164\AppData\Local\Temp\cc4PZf78.s 			page 271


 12802 0166 0E       		.uleb128 0xe
 12803 0167 3A       		.uleb128 0x3a
 12804 0168 0B       		.uleb128 0xb
 12805 0169 3B       		.uleb128 0x3b
 12806 016a 0B       		.uleb128 0xb
 12807 016b 27       		.uleb128 0x27
 12808 016c 19       		.uleb128 0x19
 12809 016d 49       		.uleb128 0x49
 12810 016e 13       		.uleb128 0x13
 12811 016f 20       		.uleb128 0x20
 12812 0170 0B       		.uleb128 0xb
 12813 0171 01       		.uleb128 0x1
 12814 0172 13       		.uleb128 0x13
 12815 0173 00       		.byte	0
 12816 0174 00       		.byte	0
 12817 0175 20       		.uleb128 0x20
 12818 0176 05       		.uleb128 0x5
 12819 0177 00       		.byte	0
 12820 0178 03       		.uleb128 0x3
 12821 0179 08       		.uleb128 0x8
 12822 017a 3A       		.uleb128 0x3a
 12823 017b 0B       		.uleb128 0xb
 12824 017c 3B       		.uleb128 0x3b
 12825 017d 0B       		.uleb128 0xb
 12826 017e 49       		.uleb128 0x49
 12827 017f 13       		.uleb128 0x13
 12828 0180 00       		.byte	0
 12829 0181 00       		.byte	0
 12830 0182 21       		.uleb128 0x21
 12831 0183 34       		.uleb128 0x34
 12832 0184 00       		.byte	0
 12833 0185 03       		.uleb128 0x3
 12834 0186 08       		.uleb128 0x8
 12835 0187 3A       		.uleb128 0x3a
 12836 0188 0B       		.uleb128 0xb
 12837 0189 3B       		.uleb128 0x3b
 12838 018a 0B       		.uleb128 0xb
 12839 018b 49       		.uleb128 0x49
 12840 018c 13       		.uleb128 0x13
 12841 018d 00       		.byte	0
 12842 018e 00       		.byte	0
 12843 018f 22       		.uleb128 0x22
 12844 0190 05       		.uleb128 0x5
 12845 0191 00       		.byte	0
 12846 0192 03       		.uleb128 0x3
 12847 0193 0E       		.uleb128 0xe
 12848 0194 3A       		.uleb128 0x3a
 12849 0195 0B       		.uleb128 0xb
 12850 0196 3B       		.uleb128 0x3b
 12851 0197 0B       		.uleb128 0xb
 12852 0198 49       		.uleb128 0x49
 12853 0199 13       		.uleb128 0x13
 12854 019a 00       		.byte	0
 12855 019b 00       		.byte	0
 12856 019c 23       		.uleb128 0x23
 12857 019d 2E       		.uleb128 0x2e
 12858 019e 01       		.byte	0x1
ARM GAS  C:\Users\164\AppData\Local\Temp\cc4PZf78.s 			page 272


 12859 019f 03       		.uleb128 0x3
 12860 01a0 0E       		.uleb128 0xe
 12861 01a1 3A       		.uleb128 0x3a
 12862 01a2 0B       		.uleb128 0xb
 12863 01a3 3B       		.uleb128 0x3b
 12864 01a4 05       		.uleb128 0x5
 12865 01a5 27       		.uleb128 0x27
 12866 01a6 19       		.uleb128 0x19
 12867 01a7 49       		.uleb128 0x49
 12868 01a8 13       		.uleb128 0x13
 12869 01a9 20       		.uleb128 0x20
 12870 01aa 0B       		.uleb128 0xb
 12871 01ab 01       		.uleb128 0x1
 12872 01ac 13       		.uleb128 0x13
 12873 01ad 00       		.byte	0
 12874 01ae 00       		.byte	0
 12875 01af 24       		.uleb128 0x24
 12876 01b0 05       		.uleb128 0x5
 12877 01b1 00       		.byte	0
 12878 01b2 03       		.uleb128 0x3
 12879 01b3 08       		.uleb128 0x8
 12880 01b4 3A       		.uleb128 0x3a
 12881 01b5 0B       		.uleb128 0xb
 12882 01b6 3B       		.uleb128 0x3b
 12883 01b7 05       		.uleb128 0x5
 12884 01b8 49       		.uleb128 0x49
 12885 01b9 13       		.uleb128 0x13
 12886 01ba 00       		.byte	0
 12887 01bb 00       		.byte	0
 12888 01bc 25       		.uleb128 0x25
 12889 01bd 05       		.uleb128 0x5
 12890 01be 00       		.byte	0
 12891 01bf 03       		.uleb128 0x3
 12892 01c0 0E       		.uleb128 0xe
 12893 01c1 3A       		.uleb128 0x3a
 12894 01c2 0B       		.uleb128 0xb
 12895 01c3 3B       		.uleb128 0x3b
 12896 01c4 05       		.uleb128 0x5
 12897 01c5 49       		.uleb128 0x49
 12898 01c6 13       		.uleb128 0x13
 12899 01c7 00       		.byte	0
 12900 01c8 00       		.byte	0
 12901 01c9 26       		.uleb128 0x26
 12902 01ca 34       		.uleb128 0x34
 12903 01cb 00       		.byte	0
 12904 01cc 03       		.uleb128 0x3
 12905 01cd 08       		.uleb128 0x8
 12906 01ce 3A       		.uleb128 0x3a
 12907 01cf 0B       		.uleb128 0xb
 12908 01d0 3B       		.uleb128 0x3b
 12909 01d1 05       		.uleb128 0x5
 12910 01d2 49       		.uleb128 0x49
 12911 01d3 13       		.uleb128 0x13
 12912 01d4 00       		.byte	0
 12913 01d5 00       		.byte	0
 12914 01d6 27       		.uleb128 0x27
 12915 01d7 34       		.uleb128 0x34
ARM GAS  C:\Users\164\AppData\Local\Temp\cc4PZf78.s 			page 273


 12916 01d8 00       		.byte	0
 12917 01d9 03       		.uleb128 0x3
 12918 01da 0E       		.uleb128 0xe
 12919 01db 3A       		.uleb128 0x3a
 12920 01dc 0B       		.uleb128 0xb
 12921 01dd 3B       		.uleb128 0x3b
 12922 01de 05       		.uleb128 0x5
 12923 01df 49       		.uleb128 0x49
 12924 01e0 13       		.uleb128 0x13
 12925 01e1 00       		.byte	0
 12926 01e2 00       		.byte	0
 12927 01e3 28       		.uleb128 0x28
 12928 01e4 0B       		.uleb128 0xb
 12929 01e5 01       		.byte	0x1
 12930 01e6 00       		.byte	0
 12931 01e7 00       		.byte	0
 12932 01e8 29       		.uleb128 0x29
 12933 01e9 2E       		.uleb128 0x2e
 12934 01ea 01       		.byte	0x1
 12935 01eb 03       		.uleb128 0x3
 12936 01ec 0E       		.uleb128 0xe
 12937 01ed 3A       		.uleb128 0x3a
 12938 01ee 0B       		.uleb128 0xb
 12939 01ef 3B       		.uleb128 0x3b
 12940 01f0 0B       		.uleb128 0xb
 12941 01f1 27       		.uleb128 0x27
 12942 01f2 19       		.uleb128 0x19
 12943 01f3 11       		.uleb128 0x11
 12944 01f4 01       		.uleb128 0x1
 12945 01f5 12       		.uleb128 0x12
 12946 01f6 06       		.uleb128 0x6
 12947 01f7 40       		.uleb128 0x40
 12948 01f8 18       		.uleb128 0x18
 12949 01f9 9742     		.uleb128 0x2117
 12950 01fb 19       		.uleb128 0x19
 12951 01fc 01       		.uleb128 0x1
 12952 01fd 13       		.uleb128 0x13
 12953 01fe 00       		.byte	0
 12954 01ff 00       		.byte	0
 12955 0200 2A       		.uleb128 0x2a
 12956 0201 898201   		.uleb128 0x4109
 12957 0204 01       		.byte	0x1
 12958 0205 11       		.uleb128 0x11
 12959 0206 01       		.uleb128 0x1
 12960 0207 31       		.uleb128 0x31
 12961 0208 13       		.uleb128 0x13
 12962 0209 00       		.byte	0
 12963 020a 00       		.byte	0
 12964 020b 2B       		.uleb128 0x2b
 12965 020c 8A8201   		.uleb128 0x410a
 12966 020f 00       		.byte	0
 12967 0210 02       		.uleb128 0x2
 12968 0211 18       		.uleb128 0x18
 12969 0212 9142     		.uleb128 0x2111
 12970 0214 18       		.uleb128 0x18
 12971 0215 00       		.byte	0
 12972 0216 00       		.byte	0
ARM GAS  C:\Users\164\AppData\Local\Temp\cc4PZf78.s 			page 274


 12973 0217 2C       		.uleb128 0x2c
 12974 0218 2E       		.uleb128 0x2e
 12975 0219 01       		.byte	0x1
 12976 021a 3F       		.uleb128 0x3f
 12977 021b 19       		.uleb128 0x19
 12978 021c 03       		.uleb128 0x3
 12979 021d 0E       		.uleb128 0xe
 12980 021e 3A       		.uleb128 0x3a
 12981 021f 0B       		.uleb128 0xb
 12982 0220 3B       		.uleb128 0x3b
 12983 0221 0B       		.uleb128 0xb
 12984 0222 27       		.uleb128 0x27
 12985 0223 19       		.uleb128 0x19
 12986 0224 49       		.uleb128 0x49
 12987 0225 13       		.uleb128 0x13
 12988 0226 11       		.uleb128 0x11
 12989 0227 01       		.uleb128 0x1
 12990 0228 12       		.uleb128 0x12
 12991 0229 06       		.uleb128 0x6
 12992 022a 40       		.uleb128 0x40
 12993 022b 18       		.uleb128 0x18
 12994 022c 9742     		.uleb128 0x2117
 12995 022e 19       		.uleb128 0x19
 12996 022f 01       		.uleb128 0x1
 12997 0230 13       		.uleb128 0x13
 12998 0231 00       		.byte	0
 12999 0232 00       		.byte	0
 13000 0233 2D       		.uleb128 0x2d
 13001 0234 05       		.uleb128 0x5
 13002 0235 00       		.byte	0
 13003 0236 03       		.uleb128 0x3
 13004 0237 08       		.uleb128 0x8
 13005 0238 3A       		.uleb128 0x3a
 13006 0239 0B       		.uleb128 0xb
 13007 023a 3B       		.uleb128 0x3b
 13008 023b 0B       		.uleb128 0xb
 13009 023c 49       		.uleb128 0x49
 13010 023d 13       		.uleb128 0x13
 13011 023e 02       		.uleb128 0x2
 13012 023f 17       		.uleb128 0x17
 13013 0240 00       		.byte	0
 13014 0241 00       		.byte	0
 13015 0242 2E       		.uleb128 0x2e
 13016 0243 34       		.uleb128 0x34
 13017 0244 00       		.byte	0
 13018 0245 03       		.uleb128 0x3
 13019 0246 08       		.uleb128 0x8
 13020 0247 3A       		.uleb128 0x3a
 13021 0248 0B       		.uleb128 0xb
 13022 0249 3B       		.uleb128 0x3b
 13023 024a 0B       		.uleb128 0xb
 13024 024b 49       		.uleb128 0x49
 13025 024c 13       		.uleb128 0x13
 13026 024d 02       		.uleb128 0x2
 13027 024e 17       		.uleb128 0x17
 13028 024f 00       		.byte	0
 13029 0250 00       		.byte	0
ARM GAS  C:\Users\164\AppData\Local\Temp\cc4PZf78.s 			page 275


 13030 0251 2F       		.uleb128 0x2f
 13031 0252 1D       		.uleb128 0x1d
 13032 0253 01       		.byte	0x1
 13033 0254 31       		.uleb128 0x31
 13034 0255 13       		.uleb128 0x13
 13035 0256 11       		.uleb128 0x11
 13036 0257 01       		.uleb128 0x1
 13037 0258 12       		.uleb128 0x12
 13038 0259 06       		.uleb128 0x6
 13039 025a 58       		.uleb128 0x58
 13040 025b 0B       		.uleb128 0xb
 13041 025c 59       		.uleb128 0x59
 13042 025d 0B       		.uleb128 0xb
 13043 025e 01       		.uleb128 0x1
 13044 025f 13       		.uleb128 0x13
 13045 0260 00       		.byte	0
 13046 0261 00       		.byte	0
 13047 0262 30       		.uleb128 0x30
 13048 0263 05       		.uleb128 0x5
 13049 0264 00       		.byte	0
 13050 0265 31       		.uleb128 0x31
 13051 0266 13       		.uleb128 0x13
 13052 0267 02       		.uleb128 0x2
 13053 0268 17       		.uleb128 0x17
 13054 0269 00       		.byte	0
 13055 026a 00       		.byte	0
 13056 026b 31       		.uleb128 0x31
 13057 026c 0B       		.uleb128 0xb
 13058 026d 01       		.byte	0x1
 13059 026e 11       		.uleb128 0x11
 13060 026f 01       		.uleb128 0x1
 13061 0270 12       		.uleb128 0x12
 13062 0271 06       		.uleb128 0x6
 13063 0272 00       		.byte	0
 13064 0273 00       		.byte	0
 13065 0274 32       		.uleb128 0x32
 13066 0275 34       		.uleb128 0x34
 13067 0276 00       		.byte	0
 13068 0277 31       		.uleb128 0x31
 13069 0278 13       		.uleb128 0x13
 13070 0279 02       		.uleb128 0x2
 13071 027a 17       		.uleb128 0x17
 13072 027b 00       		.byte	0
 13073 027c 00       		.byte	0
 13074 027d 33       		.uleb128 0x33
 13075 027e 1D       		.uleb128 0x1d
 13076 027f 01       		.byte	0x1
 13077 0280 31       		.uleb128 0x31
 13078 0281 13       		.uleb128 0x13
 13079 0282 11       		.uleb128 0x11
 13080 0283 01       		.uleb128 0x1
 13081 0284 12       		.uleb128 0x12
 13082 0285 06       		.uleb128 0x6
 13083 0286 58       		.uleb128 0x58
 13084 0287 0B       		.uleb128 0xb
 13085 0288 59       		.uleb128 0x59
 13086 0289 0B       		.uleb128 0xb
ARM GAS  C:\Users\164\AppData\Local\Temp\cc4PZf78.s 			page 276


 13087 028a 00       		.byte	0
 13088 028b 00       		.byte	0
 13089 028c 34       		.uleb128 0x34
 13090 028d 34       		.uleb128 0x34
 13091 028e 00       		.byte	0
 13092 028f 03       		.uleb128 0x3
 13093 0290 0E       		.uleb128 0xe
 13094 0291 3A       		.uleb128 0x3a
 13095 0292 0B       		.uleb128 0xb
 13096 0293 3B       		.uleb128 0x3b
 13097 0294 0B       		.uleb128 0xb
 13098 0295 49       		.uleb128 0x49
 13099 0296 13       		.uleb128 0x13
 13100 0297 00       		.byte	0
 13101 0298 00       		.byte	0
 13102 0299 35       		.uleb128 0x35
 13103 029a 898201   		.uleb128 0x4109
 13104 029d 00       		.byte	0
 13105 029e 11       		.uleb128 0x11
 13106 029f 01       		.uleb128 0x1
 13107 02a0 31       		.uleb128 0x31
 13108 02a1 13       		.uleb128 0x13
 13109 02a2 00       		.byte	0
 13110 02a3 00       		.byte	0
 13111 02a4 36       		.uleb128 0x36
 13112 02a5 2E       		.uleb128 0x2e
 13113 02a6 01       		.byte	0x1
 13114 02a7 3F       		.uleb128 0x3f
 13115 02a8 19       		.uleb128 0x19
 13116 02a9 03       		.uleb128 0x3
 13117 02aa 0E       		.uleb128 0xe
 13118 02ab 3A       		.uleb128 0x3a
 13119 02ac 0B       		.uleb128 0xb
 13120 02ad 3B       		.uleb128 0x3b
 13121 02ae 0B       		.uleb128 0xb
 13122 02af 27       		.uleb128 0x27
 13123 02b0 19       		.uleb128 0x19
 13124 02b1 11       		.uleb128 0x11
 13125 02b2 01       		.uleb128 0x1
 13126 02b3 12       		.uleb128 0x12
 13127 02b4 06       		.uleb128 0x6
 13128 02b5 40       		.uleb128 0x40
 13129 02b6 18       		.uleb128 0x18
 13130 02b7 9742     		.uleb128 0x2117
 13131 02b9 19       		.uleb128 0x19
 13132 02ba 01       		.uleb128 0x1
 13133 02bb 13       		.uleb128 0x13
 13134 02bc 00       		.byte	0
 13135 02bd 00       		.byte	0
 13136 02be 37       		.uleb128 0x37
 13137 02bf 05       		.uleb128 0x5
 13138 02c0 00       		.byte	0
 13139 02c1 03       		.uleb128 0x3
 13140 02c2 08       		.uleb128 0x8
 13141 02c3 3A       		.uleb128 0x3a
 13142 02c4 0B       		.uleb128 0xb
 13143 02c5 3B       		.uleb128 0x3b
ARM GAS  C:\Users\164\AppData\Local\Temp\cc4PZf78.s 			page 277


 13144 02c6 0B       		.uleb128 0xb
 13145 02c7 49       		.uleb128 0x49
 13146 02c8 13       		.uleb128 0x13
 13147 02c9 02       		.uleb128 0x2
 13148 02ca 18       		.uleb128 0x18
 13149 02cb 00       		.byte	0
 13150 02cc 00       		.byte	0
 13151 02cd 38       		.uleb128 0x38
 13152 02ce 05       		.uleb128 0x5
 13153 02cf 00       		.byte	0
 13154 02d0 03       		.uleb128 0x3
 13155 02d1 0E       		.uleb128 0xe
 13156 02d2 3A       		.uleb128 0x3a
 13157 02d3 0B       		.uleb128 0xb
 13158 02d4 3B       		.uleb128 0x3b
 13159 02d5 0B       		.uleb128 0xb
 13160 02d6 49       		.uleb128 0x49
 13161 02d7 13       		.uleb128 0x13
 13162 02d8 02       		.uleb128 0x2
 13163 02d9 18       		.uleb128 0x18
 13164 02da 00       		.byte	0
 13165 02db 00       		.byte	0
 13166 02dc 39       		.uleb128 0x39
 13167 02dd 34       		.uleb128 0x34
 13168 02de 00       		.byte	0
 13169 02df 03       		.uleb128 0x3
 13170 02e0 0E       		.uleb128 0xe
 13171 02e1 3A       		.uleb128 0x3a
 13172 02e2 0B       		.uleb128 0xb
 13173 02e3 3B       		.uleb128 0x3b
 13174 02e4 0B       		.uleb128 0xb
 13175 02e5 49       		.uleb128 0x49
 13176 02e6 13       		.uleb128 0x13
 13177 02e7 02       		.uleb128 0x2
 13178 02e8 17       		.uleb128 0x17
 13179 02e9 00       		.byte	0
 13180 02ea 00       		.byte	0
 13181 02eb 3A       		.uleb128 0x3a
 13182 02ec 2E       		.uleb128 0x2e
 13183 02ed 01       		.byte	0x1
 13184 02ee 3F       		.uleb128 0x3f
 13185 02ef 19       		.uleb128 0x19
 13186 02f0 03       		.uleb128 0x3
 13187 02f1 0E       		.uleb128 0xe
 13188 02f2 3A       		.uleb128 0x3a
 13189 02f3 0B       		.uleb128 0xb
 13190 02f4 3B       		.uleb128 0x3b
 13191 02f5 05       		.uleb128 0x5
 13192 02f6 27       		.uleb128 0x27
 13193 02f7 19       		.uleb128 0x19
 13194 02f8 49       		.uleb128 0x49
 13195 02f9 13       		.uleb128 0x13
 13196 02fa 11       		.uleb128 0x11
 13197 02fb 01       		.uleb128 0x1
 13198 02fc 12       		.uleb128 0x12
 13199 02fd 06       		.uleb128 0x6
 13200 02fe 40       		.uleb128 0x40
ARM GAS  C:\Users\164\AppData\Local\Temp\cc4PZf78.s 			page 278


 13201 02ff 18       		.uleb128 0x18
 13202 0300 9742     		.uleb128 0x2117
 13203 0302 19       		.uleb128 0x19
 13204 0303 01       		.uleb128 0x1
 13205 0304 13       		.uleb128 0x13
 13206 0305 00       		.byte	0
 13207 0306 00       		.byte	0
 13208 0307 3B       		.uleb128 0x3b
 13209 0308 05       		.uleb128 0x5
 13210 0309 00       		.byte	0
 13211 030a 03       		.uleb128 0x3
 13212 030b 0E       		.uleb128 0xe
 13213 030c 3A       		.uleb128 0x3a
 13214 030d 0B       		.uleb128 0xb
 13215 030e 3B       		.uleb128 0x3b
 13216 030f 05       		.uleb128 0x5
 13217 0310 49       		.uleb128 0x49
 13218 0311 13       		.uleb128 0x13
 13219 0312 02       		.uleb128 0x2
 13220 0313 17       		.uleb128 0x17
 13221 0314 00       		.byte	0
 13222 0315 00       		.byte	0
 13223 0316 3C       		.uleb128 0x3c
 13224 0317 34       		.uleb128 0x34
 13225 0318 00       		.byte	0
 13226 0319 03       		.uleb128 0x3
 13227 031a 08       		.uleb128 0x8
 13228 031b 3A       		.uleb128 0x3a
 13229 031c 0B       		.uleb128 0xb
 13230 031d 3B       		.uleb128 0x3b
 13231 031e 05       		.uleb128 0x5
 13232 031f 49       		.uleb128 0x49
 13233 0320 13       		.uleb128 0x13
 13234 0321 02       		.uleb128 0x2
 13235 0322 17       		.uleb128 0x17
 13236 0323 00       		.byte	0
 13237 0324 00       		.byte	0
 13238 0325 3D       		.uleb128 0x3d
 13239 0326 34       		.uleb128 0x34
 13240 0327 00       		.byte	0
 13241 0328 03       		.uleb128 0x3
 13242 0329 0E       		.uleb128 0xe
 13243 032a 3A       		.uleb128 0x3a
 13244 032b 0B       		.uleb128 0xb
 13245 032c 3B       		.uleb128 0x3b
 13246 032d 05       		.uleb128 0x5
 13247 032e 49       		.uleb128 0x49
 13248 032f 13       		.uleb128 0x13
 13249 0330 02       		.uleb128 0x2
 13250 0331 17       		.uleb128 0x17
 13251 0332 00       		.byte	0
 13252 0333 00       		.byte	0
 13253 0334 3E       		.uleb128 0x3e
 13254 0335 0B       		.uleb128 0xb
 13255 0336 01       		.byte	0x1
 13256 0337 11       		.uleb128 0x11
 13257 0338 01       		.uleb128 0x1
ARM GAS  C:\Users\164\AppData\Local\Temp\cc4PZf78.s 			page 279


 13258 0339 12       		.uleb128 0x12
 13259 033a 06       		.uleb128 0x6
 13260 033b 01       		.uleb128 0x1
 13261 033c 13       		.uleb128 0x13
 13262 033d 00       		.byte	0
 13263 033e 00       		.byte	0
 13264 033f 3F       		.uleb128 0x3f
 13265 0340 1D       		.uleb128 0x1d
 13266 0341 01       		.byte	0x1
 13267 0342 31       		.uleb128 0x31
 13268 0343 13       		.uleb128 0x13
 13269 0344 11       		.uleb128 0x11
 13270 0345 01       		.uleb128 0x1
 13271 0346 12       		.uleb128 0x12
 13272 0347 06       		.uleb128 0x6
 13273 0348 58       		.uleb128 0x58
 13274 0349 0B       		.uleb128 0xb
 13275 034a 59       		.uleb128 0x59
 13276 034b 05       		.uleb128 0x5
 13277 034c 00       		.byte	0
 13278 034d 00       		.byte	0
 13279 034e 40       		.uleb128 0x40
 13280 034f 898201   		.uleb128 0x4109
 13281 0352 01       		.byte	0x1
 13282 0353 11       		.uleb128 0x11
 13283 0354 01       		.uleb128 0x1
 13284 0355 31       		.uleb128 0x31
 13285 0356 13       		.uleb128 0x13
 13286 0357 01       		.uleb128 0x1
 13287 0358 13       		.uleb128 0x13
 13288 0359 00       		.byte	0
 13289 035a 00       		.byte	0
 13290 035b 41       		.uleb128 0x41
 13291 035c 2E       		.uleb128 0x2e
 13292 035d 01       		.byte	0x1
 13293 035e 3F       		.uleb128 0x3f
 13294 035f 19       		.uleb128 0x19
 13295 0360 03       		.uleb128 0x3
 13296 0361 0E       		.uleb128 0xe
 13297 0362 3A       		.uleb128 0x3a
 13298 0363 0B       		.uleb128 0xb
 13299 0364 3B       		.uleb128 0x3b
 13300 0365 05       		.uleb128 0x5
 13301 0366 27       		.uleb128 0x27
 13302 0367 19       		.uleb128 0x19
 13303 0368 11       		.uleb128 0x11
 13304 0369 01       		.uleb128 0x1
 13305 036a 12       		.uleb128 0x12
 13306 036b 06       		.uleb128 0x6
 13307 036c 40       		.uleb128 0x40
 13308 036d 18       		.uleb128 0x18
 13309 036e 9742     		.uleb128 0x2117
 13310 0370 19       		.uleb128 0x19
 13311 0371 01       		.uleb128 0x1
 13312 0372 13       		.uleb128 0x13
 13313 0373 00       		.byte	0
 13314 0374 00       		.byte	0
ARM GAS  C:\Users\164\AppData\Local\Temp\cc4PZf78.s 			page 280


 13315 0375 42       		.uleb128 0x42
 13316 0376 05       		.uleb128 0x5
 13317 0377 00       		.byte	0
 13318 0378 03       		.uleb128 0x3
 13319 0379 08       		.uleb128 0x8
 13320 037a 3A       		.uleb128 0x3a
 13321 037b 0B       		.uleb128 0xb
 13322 037c 3B       		.uleb128 0x3b
 13323 037d 05       		.uleb128 0x5
 13324 037e 49       		.uleb128 0x49
 13325 037f 13       		.uleb128 0x13
 13326 0380 02       		.uleb128 0x2
 13327 0381 17       		.uleb128 0x17
 13328 0382 00       		.byte	0
 13329 0383 00       		.byte	0
 13330 0384 43       		.uleb128 0x43
 13331 0385 34       		.uleb128 0x34
 13332 0386 00       		.byte	0
 13333 0387 03       		.uleb128 0x3
 13334 0388 0E       		.uleb128 0xe
 13335 0389 49       		.uleb128 0x49
 13336 038a 13       		.uleb128 0x13
 13337 038b 34       		.uleb128 0x34
 13338 038c 19       		.uleb128 0x19
 13339 038d 02       		.uleb128 0x2
 13340 038e 18       		.uleb128 0x18
 13341 038f 00       		.byte	0
 13342 0390 00       		.byte	0
 13343 0391 44       		.uleb128 0x44
 13344 0392 0A       		.uleb128 0xa
 13345 0393 00       		.byte	0
 13346 0394 03       		.uleb128 0x3
 13347 0395 0E       		.uleb128 0xe
 13348 0396 3A       		.uleb128 0x3a
 13349 0397 0B       		.uleb128 0xb
 13350 0398 3B       		.uleb128 0x3b
 13351 0399 05       		.uleb128 0x5
 13352 039a 00       		.byte	0
 13353 039b 00       		.byte	0
 13354 039c 45       		.uleb128 0x45
 13355 039d 2E       		.uleb128 0x2e
 13356 039e 01       		.byte	0x1
 13357 039f 3F       		.uleb128 0x3f
 13358 03a0 19       		.uleb128 0x19
 13359 03a1 03       		.uleb128 0x3
 13360 03a2 0E       		.uleb128 0xe
 13361 03a3 3A       		.uleb128 0x3a
 13362 03a4 0B       		.uleb128 0xb
 13363 03a5 3B       		.uleb128 0x3b
 13364 03a6 05       		.uleb128 0x5
 13365 03a7 27       		.uleb128 0x27
 13366 03a8 19       		.uleb128 0x19
 13367 03a9 49       		.uleb128 0x49
 13368 03aa 13       		.uleb128 0x13
 13369 03ab 11       		.uleb128 0x11
 13370 03ac 01       		.uleb128 0x1
 13371 03ad 12       		.uleb128 0x12
ARM GAS  C:\Users\164\AppData\Local\Temp\cc4PZf78.s 			page 281


 13372 03ae 06       		.uleb128 0x6
 13373 03af 40       		.uleb128 0x40
 13374 03b0 18       		.uleb128 0x18
 13375 03b1 9642     		.uleb128 0x2116
 13376 03b3 19       		.uleb128 0x19
 13377 03b4 01       		.uleb128 0x1
 13378 03b5 13       		.uleb128 0x13
 13379 03b6 00       		.byte	0
 13380 03b7 00       		.byte	0
 13381 03b8 46       		.uleb128 0x46
 13382 03b9 1D       		.uleb128 0x1d
 13383 03ba 01       		.byte	0x1
 13384 03bb 31       		.uleb128 0x31
 13385 03bc 13       		.uleb128 0x13
 13386 03bd 11       		.uleb128 0x11
 13387 03be 01       		.uleb128 0x1
 13388 03bf 12       		.uleb128 0x12
 13389 03c0 06       		.uleb128 0x6
 13390 03c1 58       		.uleb128 0x58
 13391 03c2 0B       		.uleb128 0xb
 13392 03c3 59       		.uleb128 0x59
 13393 03c4 05       		.uleb128 0x5
 13394 03c5 01       		.uleb128 0x1
 13395 03c6 13       		.uleb128 0x13
 13396 03c7 00       		.byte	0
 13397 03c8 00       		.byte	0
 13398 03c9 47       		.uleb128 0x47
 13399 03ca 34       		.uleb128 0x34
 13400 03cb 00       		.byte	0
 13401 03cc 31       		.uleb128 0x31
 13402 03cd 13       		.uleb128 0x13
 13403 03ce 02       		.uleb128 0x2
 13404 03cf 18       		.uleb128 0x18
 13405 03d0 00       		.byte	0
 13406 03d1 00       		.byte	0
 13407 03d2 48       		.uleb128 0x48
 13408 03d3 898201   		.uleb128 0x4109
 13409 03d6 01       		.byte	0x1
 13410 03d7 11       		.uleb128 0x11
 13411 03d8 01       		.uleb128 0x1
 13412 03d9 00       		.byte	0
 13413 03da 00       		.byte	0
 13414 03db 49       		.uleb128 0x49
 13415 03dc 0A       		.uleb128 0xa
 13416 03dd 00       		.byte	0
 13417 03de 31       		.uleb128 0x31
 13418 03df 13       		.uleb128 0x13
 13419 03e0 11       		.uleb128 0x11
 13420 03e1 01       		.uleb128 0x1
 13421 03e2 00       		.byte	0
 13422 03e3 00       		.byte	0
 13423 03e4 4A       		.uleb128 0x4a
 13424 03e5 898201   		.uleb128 0x4109
 13425 03e8 01       		.byte	0x1
 13426 03e9 11       		.uleb128 0x11
 13427 03ea 01       		.uleb128 0x1
 13428 03eb 01       		.uleb128 0x1
ARM GAS  C:\Users\164\AppData\Local\Temp\cc4PZf78.s 			page 282


 13429 03ec 13       		.uleb128 0x13
 13430 03ed 00       		.byte	0
 13431 03ee 00       		.byte	0
 13432 03ef 4B       		.uleb128 0x4b
 13433 03f0 0B       		.uleb128 0xb
 13434 03f1 01       		.byte	0x1
 13435 03f2 55       		.uleb128 0x55
 13436 03f3 17       		.uleb128 0x17
 13437 03f4 00       		.byte	0
 13438 03f5 00       		.byte	0
 13439 03f6 4C       		.uleb128 0x4c
 13440 03f7 34       		.uleb128 0x34
 13441 03f8 00       		.byte	0
 13442 03f9 03       		.uleb128 0x3
 13443 03fa 0E       		.uleb128 0xe
 13444 03fb 3A       		.uleb128 0x3a
 13445 03fc 0B       		.uleb128 0xb
 13446 03fd 3B       		.uleb128 0x3b
 13447 03fe 0B       		.uleb128 0xb
 13448 03ff 49       		.uleb128 0x49
 13449 0400 13       		.uleb128 0x13
 13450 0401 02       		.uleb128 0x2
 13451 0402 18       		.uleb128 0x18
 13452 0403 00       		.byte	0
 13453 0404 00       		.byte	0
 13454 0405 4D       		.uleb128 0x4d
 13455 0406 34       		.uleb128 0x34
 13456 0407 00       		.byte	0
 13457 0408 03       		.uleb128 0x3
 13458 0409 0E       		.uleb128 0xe
 13459 040a 3A       		.uleb128 0x3a
 13460 040b 0B       		.uleb128 0xb
 13461 040c 3B       		.uleb128 0x3b
 13462 040d 0B       		.uleb128 0xb
 13463 040e 49       		.uleb128 0x49
 13464 040f 13       		.uleb128 0x13
 13465 0410 3F       		.uleb128 0x3f
 13466 0411 19       		.uleb128 0x19
 13467 0412 3C       		.uleb128 0x3c
 13468 0413 19       		.uleb128 0x19
 13469 0414 00       		.byte	0
 13470 0415 00       		.byte	0
 13471 0416 4E       		.uleb128 0x4e
 13472 0417 34       		.uleb128 0x34
 13473 0418 00       		.byte	0
 13474 0419 03       		.uleb128 0x3
 13475 041a 0E       		.uleb128 0xe
 13476 041b 3A       		.uleb128 0x3a
 13477 041c 0B       		.uleb128 0xb
 13478 041d 3B       		.uleb128 0x3b
 13479 041e 05       		.uleb128 0x5
 13480 041f 49       		.uleb128 0x49
 13481 0420 13       		.uleb128 0x13
 13482 0421 3F       		.uleb128 0x3f
 13483 0422 19       		.uleb128 0x19
 13484 0423 3C       		.uleb128 0x3c
 13485 0424 19       		.uleb128 0x19
ARM GAS  C:\Users\164\AppData\Local\Temp\cc4PZf78.s 			page 283


 13486 0425 00       		.byte	0
 13487 0426 00       		.byte	0
 13488 0427 4F       		.uleb128 0x4f
 13489 0428 2E       		.uleb128 0x2e
 13490 0429 00       		.byte	0
 13491 042a 3F       		.uleb128 0x3f
 13492 042b 19       		.uleb128 0x19
 13493 042c 3C       		.uleb128 0x3c
 13494 042d 19       		.uleb128 0x19
 13495 042e 6E       		.uleb128 0x6e
 13496 042f 0E       		.uleb128 0xe
 13497 0430 03       		.uleb128 0x3
 13498 0431 0E       		.uleb128 0xe
 13499 0432 3A       		.uleb128 0x3a
 13500 0433 0B       		.uleb128 0xb
 13501 0434 3B       		.uleb128 0x3b
 13502 0435 0B       		.uleb128 0xb
 13503 0436 00       		.byte	0
 13504 0437 00       		.byte	0
 13505 0438 50       		.uleb128 0x50
 13506 0439 2E       		.uleb128 0x2e
 13507 043a 00       		.byte	0
 13508 043b 3F       		.uleb128 0x3f
 13509 043c 19       		.uleb128 0x19
 13510 043d 3C       		.uleb128 0x3c
 13511 043e 19       		.uleb128 0x19
 13512 043f 6E       		.uleb128 0x6e
 13513 0440 0E       		.uleb128 0xe
 13514 0441 03       		.uleb128 0x3
 13515 0442 0E       		.uleb128 0xe
 13516 0443 00       		.byte	0
 13517 0444 00       		.byte	0
 13518 0445 00       		.byte	0
 13519              		.section	.debug_loc,"",%progbits
 13520              	.Ldebug_loc0:
 13521              	.LLST0:
 13522 0000 00000000 		.4byte	.LVL1
 13523 0004 20000000 		.4byte	.LVL5
 13524 0008 0100     		.2byte	0x1
 13525 000a 50       		.byte	0x50
 13526 000b 20000000 		.4byte	.LVL5
 13527 000f 38000000 		.4byte	.LVL11
 13528 0013 0100     		.2byte	0x1
 13529 0015 50       		.byte	0x50
 13530 0016 38000000 		.4byte	.LVL11
 13531 001a 3A000000 		.4byte	.LVL12
 13532 001e 0300     		.2byte	0x3
 13533 0020 70       		.byte	0x70
 13534 0021 7E       		.sleb128 -2
 13535 0022 9F       		.byte	0x9f
 13536 0023 3A000000 		.4byte	.LVL12
 13537 0027 3C000000 		.4byte	.LVL13
 13538 002b 0100     		.2byte	0x1
 13539 002d 50       		.byte	0x50
 13540 002e 00000000 		.4byte	0
 13541 0032 00000000 		.4byte	0
 13542              	.LLST1:
ARM GAS  C:\Users\164\AppData\Local\Temp\cc4PZf78.s 			page 284


 13543 0036 00000000 		.4byte	.LVL1
 13544 003a 32000000 		.4byte	.LVL10
 13545 003e 0100     		.2byte	0x1
 13546 0040 51       		.byte	0x51
 13547 0041 32000000 		.4byte	.LVL10
 13548 0045 40000000 		.4byte	.LFE91
 13549 0049 0100     		.2byte	0x1
 13550 004b 51       		.byte	0x51
 13551 004c 00000000 		.4byte	0
 13552 0050 00000000 		.4byte	0
 13553              	.LLST2:
 13554 0054 1A000000 		.4byte	.LVL4
 13555 0058 22000000 		.4byte	.LVL6
 13556 005c 0100     		.2byte	0x1
 13557 005e 53       		.byte	0x53
 13558 005f 22000000 		.4byte	.LVL6
 13559 0063 3A000000 		.4byte	.LVL12
 13560 0067 1D00     		.2byte	0x1d
 13561 0069 74       		.byte	0x74
 13562 006a 00       		.sleb128 0
 13563 006b 38       		.byte	0x38
 13564 006c 24       		.byte	0x24
 13565 006d 08       		.byte	0x8
 13566 006e FF       		.byte	0xff
 13567 006f 40       		.byte	0x40
 13568 0070 24       		.byte	0x24
 13569 0071 1A       		.byte	0x1a
 13570 0072 74       		.byte	0x74
 13571 0073 00       		.sleb128 0
 13572 0074 38       		.byte	0x38
 13573 0075 25       		.byte	0x25
 13574 0076 0A       		.byte	0xa
 13575 0077 00FF     		.2byte	0xff00
 13576 0079 1A       		.byte	0x1a
 13577 007a 21       		.byte	0x21
 13578 007b 74       		.byte	0x74
 13579 007c 00       		.sleb128 0
 13580 007d 48       		.byte	0x48
 13581 007e 24       		.byte	0x24
 13582 007f 21       		.byte	0x21
 13583 0080 74       		.byte	0x74
 13584 0081 00       		.sleb128 0
 13585 0082 48       		.byte	0x48
 13586 0083 25       		.byte	0x25
 13587 0084 21       		.byte	0x21
 13588 0085 9F       		.byte	0x9f
 13589 0086 3A000000 		.4byte	.LVL12
 13590 008a 3C000000 		.4byte	.LVL13
 13591 008e 0100     		.2byte	0x1
 13592 0090 53       		.byte	0x53
 13593 0091 3C000000 		.4byte	.LVL13
 13594 0095 3E000000 		.4byte	.LVL14
 13595 0099 1D00     		.2byte	0x1d
 13596 009b 74       		.byte	0x74
 13597 009c 00       		.sleb128 0
 13598 009d 38       		.byte	0x38
 13599 009e 24       		.byte	0x24
ARM GAS  C:\Users\164\AppData\Local\Temp\cc4PZf78.s 			page 285


 13600 009f 08       		.byte	0x8
 13601 00a0 FF       		.byte	0xff
 13602 00a1 40       		.byte	0x40
 13603 00a2 24       		.byte	0x24
 13604 00a3 1A       		.byte	0x1a
 13605 00a4 74       		.byte	0x74
 13606 00a5 00       		.sleb128 0
 13607 00a6 38       		.byte	0x38
 13608 00a7 25       		.byte	0x25
 13609 00a8 0A       		.byte	0xa
 13610 00a9 00FF     		.2byte	0xff00
 13611 00ab 1A       		.byte	0x1a
 13612 00ac 21       		.byte	0x21
 13613 00ad 74       		.byte	0x74
 13614 00ae 00       		.sleb128 0
 13615 00af 48       		.byte	0x48
 13616 00b0 24       		.byte	0x24
 13617 00b1 21       		.byte	0x21
 13618 00b2 74       		.byte	0x74
 13619 00b3 00       		.sleb128 0
 13620 00b4 48       		.byte	0x48
 13621 00b5 25       		.byte	0x25
 13622 00b6 21       		.byte	0x21
 13623 00b7 9F       		.byte	0x9f
 13624 00b8 3E000000 		.4byte	.LVL14
 13625 00bc 40000000 		.4byte	.LFE91
 13626 00c0 2500     		.2byte	0x25
 13627 00c2 F3       		.byte	0xf3
 13628 00c3 01       		.uleb128 0x1
 13629 00c4 50       		.byte	0x50
 13630 00c5 06       		.byte	0x6
 13631 00c6 38       		.byte	0x38
 13632 00c7 24       		.byte	0x24
 13633 00c8 08       		.byte	0x8
 13634 00c9 FF       		.byte	0xff
 13635 00ca 40       		.byte	0x40
 13636 00cb 24       		.byte	0x24
 13637 00cc 1A       		.byte	0x1a
 13638 00cd F3       		.byte	0xf3
 13639 00ce 01       		.uleb128 0x1
 13640 00cf 50       		.byte	0x50
 13641 00d0 06       		.byte	0x6
 13642 00d1 38       		.byte	0x38
 13643 00d2 25       		.byte	0x25
 13644 00d3 0A       		.byte	0xa
 13645 00d4 00FF     		.2byte	0xff00
 13646 00d6 1A       		.byte	0x1a
 13647 00d7 21       		.byte	0x21
 13648 00d8 F3       		.byte	0xf3
 13649 00d9 01       		.uleb128 0x1
 13650 00da 50       		.byte	0x50
 13651 00db 06       		.byte	0x6
 13652 00dc 48       		.byte	0x48
 13653 00dd 24       		.byte	0x24
 13654 00de 21       		.byte	0x21
 13655 00df F3       		.byte	0xf3
 13656 00e0 01       		.uleb128 0x1
ARM GAS  C:\Users\164\AppData\Local\Temp\cc4PZf78.s 			page 286


 13657 00e1 50       		.byte	0x50
 13658 00e2 06       		.byte	0x6
 13659 00e3 48       		.byte	0x48
 13660 00e4 25       		.byte	0x25
 13661 00e5 21       		.byte	0x21
 13662 00e6 9F       		.byte	0x9f
 13663 00e7 00000000 		.4byte	0
 13664 00eb 00000000 		.4byte	0
 13665              	.LLST3:
 13666 00ef 02000000 		.4byte	.LVL2
 13667 00f3 1A000000 		.4byte	.LVL4
 13668 00f7 0100     		.2byte	0x1
 13669 00f9 50       		.byte	0x50
 13670 00fa 00000000 		.4byte	0
 13671 00fe 00000000 		.4byte	0
 13672              	.LLST4:
 13673 0102 04000000 		.4byte	.LVL3
 13674 0106 1A000000 		.4byte	.LVL4
 13675 010a 0100     		.2byte	0x1
 13676 010c 54       		.byte	0x54
 13677 010d 00000000 		.4byte	0
 13678 0111 00000000 		.4byte	0
 13679              	.LLST5:
 13680 0115 22000000 		.4byte	.LVL6
 13681 0119 2C000000 		.4byte	.LVL8
 13682 011d 0100     		.2byte	0x1
 13683 011f 50       		.byte	0x50
 13684 0120 00000000 		.4byte	0
 13685 0124 00000000 		.4byte	0
 13686              	.LLST6:
 13687 0128 24000000 		.4byte	.LVL7
 13688 012c 2C000000 		.4byte	.LVL8
 13689 0130 0100     		.2byte	0x1
 13690 0132 52       		.byte	0x52
 13691 0133 00000000 		.4byte	0
 13692 0137 00000000 		.4byte	0
 13693              	.LLST7:
 13694 013b 00000000 		.4byte	.LVL15
 13695 013f 26000000 		.4byte	.LVL22
 13696 0143 0100     		.2byte	0x1
 13697 0145 50       		.byte	0x50
 13698 0146 26000000 		.4byte	.LVL22
 13699 014a 2C000000 		.4byte	.LFE92
 13700 014e 0400     		.2byte	0x4
 13701 0150 F3       		.byte	0xf3
 13702 0151 01       		.uleb128 0x1
 13703 0152 50       		.byte	0x50
 13704 0153 9F       		.byte	0x9f
 13705 0154 00000000 		.4byte	0
 13706 0158 00000000 		.4byte	0
 13707              	.LLST8:
 13708 015c 20000000 		.4byte	.LVL20
 13709 0160 24000000 		.4byte	.LVL21
 13710 0164 0900     		.2byte	0x9
 13711 0166 71       		.byte	0x71
 13712 0167 00       		.sleb128 0
 13713 0168 09       		.byte	0x9
ARM GAS  C:\Users\164\AppData\Local\Temp\cc4PZf78.s 			page 287


 13714 0169 ED       		.byte	0xed
 13715 016a 24       		.byte	0x24
 13716 016b 09       		.byte	0x9
 13717 016c FB       		.byte	0xfb
 13718 016d 25       		.byte	0x25
 13719 016e 9F       		.byte	0x9f
 13720 016f 24000000 		.4byte	.LVL21
 13721 0173 29000000 		.4byte	.LVL23-1
 13722 0177 0100     		.2byte	0x1
 13723 0179 51       		.byte	0x51
 13724 017a 00000000 		.4byte	0
 13725 017e 00000000 		.4byte	0
 13726              	.LLST9:
 13727 0182 0A000000 		.4byte	.LVL16
 13728 0186 0E000000 		.4byte	.LVL17
 13729 018a 0800     		.2byte	0x8
 13730 018c 73       		.byte	0x73
 13731 018d 00       		.sleb128 0
 13732 018e 32       		.byte	0x32
 13733 018f 24       		.byte	0x24
 13734 0190 71       		.byte	0x71
 13735 0191 00       		.sleb128 0
 13736 0192 22       		.byte	0x22
 13737 0193 9F       		.byte	0x9f
 13738 0194 0E000000 		.4byte	.LVL17
 13739 0198 10000000 		.4byte	.LVL18
 13740 019c 1000     		.2byte	0x10
 13741 019e 70       		.byte	0x70
 13742 019f 10       		.sleb128 16
 13743 01a0 94       		.byte	0x94
 13744 01a1 02       		.byte	0x2
 13745 01a2 0A       		.byte	0xa
 13746 01a3 FFFF     		.2byte	0xffff
 13747 01a5 1A       		.byte	0x1a
 13748 01a6 31       		.byte	0x31
 13749 01a7 1C       		.byte	0x1c
 13750 01a8 32       		.byte	0x32
 13751 01a9 24       		.byte	0x24
 13752 01aa 71       		.byte	0x71
 13753 01ab 00       		.sleb128 0
 13754 01ac 22       		.byte	0x22
 13755 01ad 9F       		.byte	0x9f
 13756 01ae 10000000 		.4byte	.LVL18
 13757 01b2 20000000 		.4byte	.LVL20
 13758 01b6 1100     		.2byte	0x11
 13759 01b8 70       		.byte	0x70
 13760 01b9 10       		.sleb128 16
 13761 01ba 94       		.byte	0x94
 13762 01bb 02       		.byte	0x2
 13763 01bc 0A       		.byte	0xa
 13764 01bd FFFF     		.2byte	0xffff
 13765 01bf 1A       		.byte	0x1a
 13766 01c0 31       		.byte	0x31
 13767 01c1 1C       		.byte	0x1c
 13768 01c2 32       		.byte	0x32
 13769 01c3 24       		.byte	0x24
 13770 01c4 72       		.byte	0x72
ARM GAS  C:\Users\164\AppData\Local\Temp\cc4PZf78.s 			page 288


 13771 01c5 0C       		.sleb128 12
 13772 01c6 06       		.byte	0x6
 13773 01c7 22       		.byte	0x22
 13774 01c8 9F       		.byte	0x9f
 13775 01c9 00000000 		.4byte	0
 13776 01cd 00000000 		.4byte	0
 13777              	.LLST10:
 13778 01d1 0E000000 		.4byte	.LVL17
 13779 01d5 1A000000 		.4byte	.LVL19
 13780 01d9 0100     		.2byte	0x1
 13781 01db 53       		.byte	0x53
 13782 01dc 1A000000 		.4byte	.LVL19
 13783 01e0 20000000 		.4byte	.LVL20
 13784 01e4 1000     		.2byte	0x10
 13785 01e6 70       		.byte	0x70
 13786 01e7 10       		.sleb128 16
 13787 01e8 94       		.byte	0x94
 13788 01e9 02       		.byte	0x2
 13789 01ea 0A       		.byte	0xa
 13790 01eb FFFF     		.2byte	0xffff
 13791 01ed 1A       		.byte	0x1a
 13792 01ee 31       		.byte	0x31
 13793 01ef 1C       		.byte	0x1c
 13794 01f0 32       		.byte	0x32
 13795 01f1 24       		.byte	0x24
 13796 01f2 72       		.byte	0x72
 13797 01f3 0C       		.sleb128 12
 13798 01f4 06       		.byte	0x6
 13799 01f5 22       		.byte	0x22
 13800 01f6 00000000 		.4byte	0
 13801 01fa 00000000 		.4byte	0
 13802              	.LLST11:
 13803 01fe 12000000 		.4byte	.LVL25
 13804 0202 2C000000 		.4byte	.LVL26
 13805 0206 0100     		.2byte	0x1
 13806 0208 53       		.byte	0x53
 13807 0209 00000000 		.4byte	0
 13808 020d 00000000 		.4byte	0
 13809              	.LLST12:
 13810 0211 1A000000 		.4byte	.LVL28
 13811 0215 2A000000 		.4byte	.LVL29
 13812 0219 0100     		.2byte	0x1
 13813 021b 53       		.byte	0x53
 13814 021c 00000000 		.4byte	0
 13815 0220 00000000 		.4byte	0
 13816              	.LLST13:
 13817 0224 00000000 		.4byte	.LVL30
 13818 0228 0A000000 		.4byte	.LVL32
 13819 022c 0100     		.2byte	0x1
 13820 022e 50       		.byte	0x50
 13821 022f 0A000000 		.4byte	.LVL32
 13822 0233 14000000 		.4byte	.LVL34
 13823 0237 0100     		.2byte	0x1
 13824 0239 56       		.byte	0x56
 13825 023a 14000000 		.4byte	.LVL34
 13826 023e 16000000 		.4byte	.LVL35
 13827 0242 0100     		.2byte	0x1
ARM GAS  C:\Users\164\AppData\Local\Temp\cc4PZf78.s 			page 289


 13828 0244 50       		.byte	0x50
 13829 0245 16000000 		.4byte	.LVL35
 13830 0249 A4000000 		.4byte	.LVL64
 13831 024d 0100     		.2byte	0x1
 13832 024f 56       		.byte	0x56
 13833 0250 A4000000 		.4byte	.LVL64
 13834 0254 A8000000 		.4byte	.LFE142
 13835 0258 0400     		.2byte	0x4
 13836 025a F3       		.byte	0xf3
 13837 025b 01       		.uleb128 0x1
 13838 025c 50       		.byte	0x50
 13839 025d 9F       		.byte	0x9f
 13840 025e 00000000 		.4byte	0
 13841 0262 00000000 		.4byte	0
 13842              	.LLST14:
 13843 0266 02000000 		.4byte	.LVL31
 13844 026a 0A000000 		.4byte	.LVL32
 13845 026e 0100     		.2byte	0x1
 13846 0270 50       		.byte	0x50
 13847 0271 0A000000 		.4byte	.LVL32
 13848 0275 0E000000 		.4byte	.LVL33
 13849 0279 0100     		.2byte	0x1
 13850 027b 56       		.byte	0x56
 13851 027c 0E000000 		.4byte	.LVL33
 13852 0280 1A000000 		.4byte	.LVL36
 13853 0284 0100     		.2byte	0x1
 13854 0286 50       		.byte	0x50
 13855 0287 1A000000 		.4byte	.LVL36
 13856 028b 9C000000 		.4byte	.LVL61
 13857 028f 0100     		.2byte	0x1
 13858 0291 55       		.byte	0x55
 13859 0292 9C000000 		.4byte	.LVL61
 13860 0296 9E000000 		.4byte	.LVL62
 13861 029a 0100     		.2byte	0x1
 13862 029c 50       		.byte	0x50
 13863 029d 9E000000 		.4byte	.LVL62
 13864 02a1 A4000000 		.4byte	.LVL64
 13865 02a5 0100     		.2byte	0x1
 13866 02a7 55       		.byte	0x55
 13867 02a8 00000000 		.4byte	0
 13868 02ac 00000000 		.4byte	0
 13869              	.LLST15:
 13870 02b0 16000000 		.4byte	.LVL35
 13871 02b4 6A000000 		.4byte	.LVL53
 13872 02b8 0200     		.2byte	0x2
 13873 02ba 30       		.byte	0x30
 13874 02bb 9F       		.byte	0x9f
 13875 02bc 6A000000 		.4byte	.LVL53
 13876 02c0 6C000000 		.4byte	.LVL54
 13877 02c4 0100     		.2byte	0x1
 13878 02c6 54       		.byte	0x54
 13879 02c7 6C000000 		.4byte	.LVL54
 13880 02cb 74000000 		.4byte	.LVL56
 13881 02cf 0200     		.2byte	0x2
 13882 02d1 30       		.byte	0x30
 13883 02d2 9F       		.byte	0x9f
 13884 02d3 74000000 		.4byte	.LVL56
ARM GAS  C:\Users\164\AppData\Local\Temp\cc4PZf78.s 			page 290


 13885 02d7 9C000000 		.4byte	.LVL61
 13886 02db 0100     		.2byte	0x1
 13887 02dd 54       		.byte	0x54
 13888 02de A0000000 		.4byte	.LVL63
 13889 02e2 A4000000 		.4byte	.LVL64
 13890 02e6 0100     		.2byte	0x1
 13891 02e8 54       		.byte	0x54
 13892 02e9 00000000 		.4byte	0
 13893 02ed 00000000 		.4byte	0
 13894              	.LLST16:
 13895 02f1 16000000 		.4byte	.LVL35
 13896 02f5 1A000000 		.4byte	.LVL36
 13897 02f9 0200     		.2byte	0x2
 13898 02fb 30       		.byte	0x30
 13899 02fc 9F       		.byte	0x9f
 13900 02fd 1A000000 		.4byte	.LVL36
 13901 0301 7D000000 		.4byte	.LVL57-1
 13902 0305 0100     		.2byte	0x1
 13903 0307 51       		.byte	0x51
 13904 0308 82000000 		.4byte	.LVL58
 13905 030c 88000000 		.4byte	.LVL59
 13906 0310 0100     		.2byte	0x1
 13907 0312 51       		.byte	0x51
 13908 0313 A0000000 		.4byte	.LVL63
 13909 0317 A8000000 		.4byte	.LFE142
 13910 031b 0100     		.2byte	0x1
 13911 031d 51       		.byte	0x51
 13912 031e 00000000 		.4byte	0
 13913 0322 00000000 		.4byte	0
 13914              	.LLST17:
 13915 0326 20000000 		.4byte	.LVL37
 13916 032a 22000000 		.4byte	.LVL38
 13917 032e 0400     		.2byte	0x4
 13918 0330 70       		.byte	0x70
 13919 0331 00       		.sleb128 0
 13920 0332 20       		.byte	0x20
 13921 0333 9F       		.byte	0x9f
 13922 0334 22000000 		.4byte	.LVL38
 13923 0338 4C000000 		.4byte	.LVL50
 13924 033c 0100     		.2byte	0x1
 13925 033e 53       		.byte	0x53
 13926 033f 4E000000 		.4byte	.LVL51
 13927 0343 50000000 		.4byte	.LVL52
 13928 0347 0100     		.2byte	0x1
 13929 0349 53       		.byte	0x53
 13930 034a 00000000 		.4byte	0
 13931 034e 00000000 		.4byte	0
 13932              	.LLST18:
 13933 0352 24000000 		.4byte	.LVL39
 13934 0356 28000000 		.4byte	.LVL40
 13935 035a 0200     		.2byte	0x2
 13936 035c 31       		.byte	0x31
 13937 035d 9F       		.byte	0x9f
 13938 035e 28000000 		.4byte	.LVL40
 13939 0362 2E000000 		.4byte	.LVL42
 13940 0366 0200     		.2byte	0x2
 13941 0368 41       		.byte	0x41
ARM GAS  C:\Users\164\AppData\Local\Temp\cc4PZf78.s 			page 291


 13942 0369 9F       		.byte	0x9f
 13943 036a 2E000000 		.4byte	.LVL42
 13944 036e 30000000 		.4byte	.LVL43
 13945 0372 0200     		.2byte	0x2
 13946 0374 31       		.byte	0x31
 13947 0375 9F       		.byte	0x9f
 13948 0376 30000000 		.4byte	.LVL43
 13949 037a 4E000000 		.4byte	.LVL51
 13950 037e 0100     		.2byte	0x1
 13951 0380 52       		.byte	0x52
 13952 0381 00000000 		.4byte	0
 13953 0385 00000000 		.4byte	0
 13954              	.LLST19:
 13955 0389 00000000 		.4byte	.LVL65
 13956 038d 2E000000 		.4byte	.LVL70
 13957 0391 0100     		.2byte	0x1
 13958 0393 50       		.byte	0x50
 13959 0394 2E000000 		.4byte	.LVL70
 13960 0398 32000000 		.4byte	.LVL71
 13961 039c 0100     		.2byte	0x1
 13962 039e 54       		.byte	0x54
 13963 039f 32000000 		.4byte	.LVL71
 13964 03a3 3E000000 		.4byte	.LVL73
 13965 03a7 0100     		.2byte	0x1
 13966 03a9 50       		.byte	0x50
 13967 03aa 3E000000 		.4byte	.LVL73
 13968 03ae 5E000000 		.4byte	.LVL76
 13969 03b2 0100     		.2byte	0x1
 13970 03b4 54       		.byte	0x54
 13971 03b5 5E000000 		.4byte	.LVL76
 13972 03b9 74000000 		.4byte	.LFE143
 13973 03bd 0400     		.2byte	0x4
 13974 03bf F3       		.byte	0xf3
 13975 03c0 01       		.uleb128 0x1
 13976 03c1 50       		.byte	0x50
 13977 03c2 9F       		.byte	0x9f
 13978 03c3 00000000 		.4byte	0
 13979 03c7 00000000 		.4byte	0
 13980              	.LLST20:
 13981 03cb 14000000 		.4byte	.LVL66
 13982 03cf 28000000 		.4byte	.LVL69
 13983 03d3 0100     		.2byte	0x1
 13984 03d5 52       		.byte	0x52
 13985 03d6 32000000 		.4byte	.LVL71
 13986 03da 4F000000 		.4byte	.LVL74-1
 13987 03de 0100     		.2byte	0x1
 13988 03e0 52       		.byte	0x52
 13989 03e1 00000000 		.4byte	0
 13990 03e5 00000000 		.4byte	0
 13991              	.LLST21:
 13992 03e9 22000000 		.4byte	.LVL67
 13993 03ed 26000000 		.4byte	.LVL68
 13994 03f1 0100     		.2byte	0x1
 13995 03f3 53       		.byte	0x53
 13996 03f4 32000000 		.4byte	.LVL71
 13997 03f8 36000000 		.4byte	.LVL72
 13998 03fc 0100     		.2byte	0x1
ARM GAS  C:\Users\164\AppData\Local\Temp\cc4PZf78.s 			page 292


 13999 03fe 53       		.byte	0x53
 14000 03ff 00000000 		.4byte	0
 14001 0403 00000000 		.4byte	0
 14002              	.LLST22:
 14003 0407 00000000 		.4byte	.LVL77
 14004 040b 0E000000 		.4byte	.LVL78
 14005 040f 0100     		.2byte	0x1
 14006 0411 50       		.byte	0x50
 14007 0412 0E000000 		.4byte	.LVL78
 14008 0416 46000000 		.4byte	.LVL81
 14009 041a 0100     		.2byte	0x1
 14010 041c 54       		.byte	0x54
 14011 041d 46000000 		.4byte	.LVL81
 14012 0421 4C000000 		.4byte	.LFE144
 14013 0425 0400     		.2byte	0x4
 14014 0427 F3       		.byte	0xf3
 14015 0428 01       		.uleb128 0x1
 14016 0429 50       		.byte	0x50
 14017 042a 9F       		.byte	0x9f
 14018 042b 00000000 		.4byte	0
 14019 042f 00000000 		.4byte	0
 14020              	.LLST23:
 14021 0433 00000000 		.4byte	.LVL82
 14022 0437 07000000 		.4byte	.LVL83-1
 14023 043b 0100     		.2byte	0x1
 14024 043d 50       		.byte	0x50
 14025 043e 07000000 		.4byte	.LVL83-1
 14026 0442 10000000 		.4byte	.LFE145
 14027 0446 0100     		.2byte	0x1
 14028 0448 54       		.byte	0x54
 14029 0449 00000000 		.4byte	0
 14030 044d 00000000 		.4byte	0
 14031              	.LLST24:
 14032 0451 00000000 		.4byte	.LVL85
 14033 0455 0A000000 		.4byte	.LVL87
 14034 0459 0100     		.2byte	0x1
 14035 045b 50       		.byte	0x50
 14036 045c 0A000000 		.4byte	.LVL87
 14037 0460 FE150000 		.4byte	.LVL865
 14038 0464 0100     		.2byte	0x1
 14039 0466 55       		.byte	0x55
 14040 0467 FE150000 		.4byte	.LVL865
 14041 046b 04160000 		.4byte	.LFE146
 14042 046f 0400     		.2byte	0x4
 14043 0471 F3       		.byte	0xf3
 14044 0472 01       		.uleb128 0x1
 14045 0473 50       		.byte	0x50
 14046 0474 9F       		.byte	0x9f
 14047 0475 00000000 		.4byte	0
 14048 0479 00000000 		.4byte	0
 14049              	.LLST25:
 14050 047d 08000000 		.4byte	.LVL86
 14051 0481 0A000000 		.4byte	.LVL87
 14052 0485 0200     		.2byte	0x2
 14053 0487 30       		.byte	0x30
 14054 0488 9F       		.byte	0x9f
 14055 0489 0A000000 		.4byte	.LVL87
ARM GAS  C:\Users\164\AppData\Local\Temp\cc4PZf78.s 			page 293


 14056 048d E6000000 		.4byte	.LVL95
 14057 0491 0100     		.2byte	0x1
 14058 0493 57       		.byte	0x57
 14059 0494 0C010000 		.4byte	.LVL102
 14060 0498 2A010000 		.4byte	.LVL109
 14061 049c 0100     		.2byte	0x1
 14062 049e 57       		.byte	0x57
 14063 049f 30010000 		.4byte	.LVL110
 14064 04a3 32010000 		.4byte	.LVL111
 14065 04a7 0100     		.2byte	0x1
 14066 04a9 57       		.byte	0x57
 14067 04aa 56010000 		.4byte	.LVL116
 14068 04ae 58010000 		.4byte	.LVL117
 14069 04b2 0100     		.2byte	0x1
 14070 04b4 57       		.byte	0x57
 14071 04b5 82010000 		.4byte	.LVL127
 14072 04b9 90010000 		.4byte	.LVL131
 14073 04bd 0100     		.2byte	0x1
 14074 04bf 57       		.byte	0x57
 14075 04c0 96010000 		.4byte	.LVL132
 14076 04c4 B0010000 		.4byte	.LVL137
 14077 04c8 0100     		.2byte	0x1
 14078 04ca 57       		.byte	0x57
 14079 04cb B6010000 		.4byte	.LVL138
 14080 04cf C4010000 		.4byte	.LVL142
 14081 04d3 0100     		.2byte	0x1
 14082 04d5 57       		.byte	0x57
 14083 04d6 CA010000 		.4byte	.LVL143
 14084 04da D8010000 		.4byte	.LVL147
 14085 04de 0100     		.2byte	0x1
 14086 04e0 57       		.byte	0x57
 14087 04e1 DE010000 		.4byte	.LVL148
 14088 04e5 E0010000 		.4byte	.LVL149
 14089 04e9 0100     		.2byte	0x1
 14090 04eb 57       		.byte	0x57
 14091 04ec 14020000 		.4byte	.LVL161
 14092 04f0 16020000 		.4byte	.LVL162
 14093 04f4 0100     		.2byte	0x1
 14094 04f6 57       		.byte	0x57
 14095 04f7 48020000 		.4byte	.LVL171
 14096 04fb 4A020000 		.4byte	.LVL172
 14097 04ff 0100     		.2byte	0x1
 14098 0501 57       		.byte	0x57
 14099 0502 80020000 		.4byte	.LVL185
 14100 0506 82020000 		.4byte	.LVL186
 14101 050a 0100     		.2byte	0x1
 14102 050c 57       		.byte	0x57
 14103 050d A6020000 		.4byte	.LVL195
 14104 0511 A8020000 		.4byte	.LVL196
 14105 0515 0100     		.2byte	0x1
 14106 0517 57       		.byte	0x57
 14107 0518 DC020000 		.4byte	.LVL208
 14108 051c DE020000 		.4byte	.LVL209
 14109 0520 0100     		.2byte	0x1
 14110 0522 57       		.byte	0x57
 14111 0523 FC020000 		.4byte	.LVL216
 14112 0527 02030000 		.4byte	.LVL218
ARM GAS  C:\Users\164\AppData\Local\Temp\cc4PZf78.s 			page 294


 14113 052b 0100     		.2byte	0x1
 14114 052d 57       		.byte	0x57
 14115 052e 3E030000 		.4byte	.LVL230
 14116 0532 40030000 		.4byte	.LVL231
 14117 0536 0100     		.2byte	0x1
 14118 0538 57       		.byte	0x57
 14119 0539 80030000 		.4byte	.LVL244
 14120 053d 8A030000 		.4byte	.LVL245
 14121 0541 0100     		.2byte	0x1
 14122 0543 57       		.byte	0x57
 14123 0544 90030000 		.4byte	.LVL246
 14124 0548 A8030000 		.4byte	.LVL248
 14125 054c 0100     		.2byte	0x1
 14126 054e 57       		.byte	0x57
 14127 054f AC030000 		.4byte	.LVL249
 14128 0553 C4030000 		.4byte	.LVL251
 14129 0557 0100     		.2byte	0x1
 14130 0559 57       		.byte	0x57
 14131 055a C8030000 		.4byte	.LVL252
 14132 055e CA030000 		.4byte	.LVL253
 14133 0562 0100     		.2byte	0x1
 14134 0564 57       		.byte	0x57
 14135 0565 88040000 		.4byte	.LVL277
 14136 0569 8A040000 		.4byte	.LVL278
 14137 056d 0100     		.2byte	0x1
 14138 056f 57       		.byte	0x57
 14139 0570 48050000 		.4byte	.LVL302
 14140 0574 52050000 		.4byte	.LVL304
 14141 0578 0100     		.2byte	0x1
 14142 057a 57       		.byte	0x57
 14143 057b 5E050000 		.4byte	.LVL306
 14144 057f 86050000 		.4byte	.LVL311
 14145 0583 0100     		.2byte	0x1
 14146 0585 57       		.byte	0x57
 14147 0586 8A050000 		.4byte	.LVL312
 14148 058a 92050000 		.4byte	.LVL315
 14149 058e 0100     		.2byte	0x1
 14150 0590 57       		.byte	0x57
 14151 0591 E2050000 		.4byte	.LVL322
 14152 0595 E8050000 		.4byte	.LVL324
 14153 0599 0100     		.2byte	0x1
 14154 059b 57       		.byte	0x57
 14155 059c 16060000 		.4byte	.LVL332
 14156 05a0 1C060000 		.4byte	.LVL334
 14157 05a4 0100     		.2byte	0x1
 14158 05a6 57       		.byte	0x57
 14159 05a7 64070000 		.4byte	.LVL370
 14160 05ab 6A070000 		.4byte	.LVL373
 14161 05af 0100     		.2byte	0x1
 14162 05b1 57       		.byte	0x57
 14163 05b2 A4070000 		.4byte	.LVL379
 14164 05b6 AE070000 		.4byte	.LVL382
 14165 05ba 0100     		.2byte	0x1
 14166 05bc 57       		.byte	0x57
 14167 05bd FE080000 		.4byte	.LVL416
 14168 05c1 04090000 		.4byte	.LVL419
 14169 05c5 0100     		.2byte	0x1
ARM GAS  C:\Users\164\AppData\Local\Temp\cc4PZf78.s 			page 295


 14170 05c7 57       		.byte	0x57
 14171 05c8 3E090000 		.4byte	.LVL425
 14172 05cc 48090000 		.4byte	.LVL428
 14173 05d0 0100     		.2byte	0x1
 14174 05d2 57       		.byte	0x57
 14175 05d3 9A0A0000 		.4byte	.LVL462
 14176 05d7 A40A0000 		.4byte	.LVL465
 14177 05db 0100     		.2byte	0x1
 14178 05dd 57       		.byte	0x57
 14179 05de FA0B0000 		.4byte	.LVL499
 14180 05e2 FE0B0000 		.4byte	.LVL501
 14181 05e6 0100     		.2byte	0x1
 14182 05e8 57       		.byte	0x57
 14183 05e9 320C0000 		.4byte	.LVL510
 14184 05ed 3A0C0000 		.4byte	.LVL512
 14185 05f1 0100     		.2byte	0x1
 14186 05f3 57       		.byte	0x57
 14187 05f4 B40D0000 		.4byte	.LVL562
 14188 05f8 BC0D0000 		.4byte	.LVL564
 14189 05fc 0100     		.2byte	0x1
 14190 05fe 57       		.byte	0x57
 14191 05ff 3A0F0000 		.4byte	.LVL614
 14192 0603 420F0000 		.4byte	.LVL616
 14193 0607 0100     		.2byte	0x1
 14194 0609 57       		.byte	0x57
 14195 060a BA100000 		.4byte	.LVL666
 14196 060e C2100000 		.4byte	.LVL668
 14197 0612 0100     		.2byte	0x1
 14198 0614 57       		.byte	0x57
 14199 0615 40120000 		.4byte	.LVL718
 14200 0619 42120000 		.4byte	.LVL719
 14201 061d 0100     		.2byte	0x1
 14202 061f 57       		.byte	0x57
 14203 0620 96120000 		.4byte	.LVL732
 14204 0624 98120000 		.4byte	.LVL733
 14205 0628 0100     		.2byte	0x1
 14206 062a 57       		.byte	0x57
 14207 062b DC120000 		.4byte	.LVL748
 14208 062f DE120000 		.4byte	.LVL749
 14209 0633 0100     		.2byte	0x1
 14210 0635 57       		.byte	0x57
 14211 0636 6E130000 		.4byte	.LVL765
 14212 063a 80130000 		.4byte	.LVL769
 14213 063e 0100     		.2byte	0x1
 14214 0640 57       		.byte	0x57
 14215 0641 AC130000 		.4byte	.LVL775
 14216 0645 AE130000 		.4byte	.LVL776
 14217 0649 0100     		.2byte	0x1
 14218 064b 57       		.byte	0x57
 14219 064c FE130000 		.4byte	.LVL789
 14220 0650 30140000 		.4byte	.LVL798
 14221 0654 0100     		.2byte	0x1
 14222 0656 57       		.byte	0x57
 14223 0657 4A140000 		.4byte	.LVL802
 14224 065b 8C140000 		.4byte	.LVL810
 14225 065f 0100     		.2byte	0x1
 14226 0661 57       		.byte	0x57
ARM GAS  C:\Users\164\AppData\Local\Temp\cc4PZf78.s 			page 296


 14227 0662 BC140000 		.4byte	.LVL813
 14228 0666 C4140000 		.4byte	.LVL816
 14229 066a 0100     		.2byte	0x1
 14230 066c 57       		.byte	0x57
 14231 066d 5C150000 		.4byte	.LVL831
 14232 0671 62150000 		.4byte	.LVL834
 14233 0675 0100     		.2byte	0x1
 14234 0677 57       		.byte	0x57
 14235 0678 76150000 		.4byte	.LVL837
 14236 067c 9A150000 		.4byte	.LVL845
 14237 0680 0100     		.2byte	0x1
 14238 0682 57       		.byte	0x57
 14239 0683 A0150000 		.4byte	.LVL846
 14240 0687 C4150000 		.4byte	.LVL854
 14241 068b 0100     		.2byte	0x1
 14242 068d 57       		.byte	0x57
 14243 068e CA150000 		.4byte	.LVL855
 14244 0692 D8150000 		.4byte	.LVL858
 14245 0696 0100     		.2byte	0x1
 14246 0698 57       		.byte	0x57
 14247 0699 DA150000 		.4byte	.LVL859
 14248 069d DC150000 		.4byte	.LVL860
 14249 06a1 0100     		.2byte	0x1
 14250 06a3 57       		.byte	0x57
 14251 06a4 DE150000 		.4byte	.LVL861
 14252 06a8 E0150000 		.4byte	.LVL862
 14253 06ac 0100     		.2byte	0x1
 14254 06ae 57       		.byte	0x57
 14255 06af E2150000 		.4byte	.LVL863
 14256 06b3 FE150000 		.4byte	.LVL865
 14257 06b7 0100     		.2byte	0x1
 14258 06b9 57       		.byte	0x57
 14259 06ba FE150000 		.4byte	.LVL865
 14260 06be 04160000 		.4byte	.LFE146
 14261 06c2 0100     		.2byte	0x1
 14262 06c4 50       		.byte	0x50
 14263 06c5 00000000 		.4byte	0
 14264 06c9 00000000 		.4byte	0
 14265              	.LLST26:
 14266 06cd 34000000 		.4byte	.LVL92
 14267 06d1 F8000000 		.4byte	.LVL99
 14268 06d5 0100     		.2byte	0x1
 14269 06d7 56       		.byte	0x56
 14270 06d8 0C010000 		.4byte	.LVL102
 14271 06dc 16010000 		.4byte	.LVL105
 14272 06e0 0100     		.2byte	0x1
 14273 06e2 56       		.byte	0x56
 14274 06e3 16010000 		.4byte	.LVL105
 14275 06e7 1B010000 		.4byte	.LVL106-1
 14276 06eb 0300     		.2byte	0x3
 14277 06ed 75       		.byte	0x75
 14278 06ee D80C     		.sleb128 1624
 14279 06f0 30010000 		.4byte	.LVL110
 14280 06f4 F6010000 		.4byte	.LVL155
 14281 06f8 0100     		.2byte	0x1
 14282 06fa 56       		.byte	0x56
 14283 06fb 14020000 		.4byte	.LVL161
ARM GAS  C:\Users\164\AppData\Local\Temp\cc4PZf78.s 			page 297


 14284 06ff 2C020000 		.4byte	.LVL168
 14285 0703 0100     		.2byte	0x1
 14286 0705 56       		.byte	0x56
 14287 0706 48020000 		.4byte	.LVL171
 14288 070a 6C020000 		.4byte	.LVL181
 14289 070e 0100     		.2byte	0x1
 14290 0710 56       		.byte	0x56
 14291 0711 80020000 		.4byte	.LVL185
 14292 0715 BE020000 		.4byte	.LVL202
 14293 0719 0100     		.2byte	0x1
 14294 071b 56       		.byte	0x56
 14295 071c DC020000 		.4byte	.LVL208
 14296 0720 20030000 		.4byte	.LVL224
 14297 0724 0100     		.2byte	0x1
 14298 0726 56       		.byte	0x56
 14299 0727 20030000 		.4byte	.LVL224
 14300 072b 25030000 		.4byte	.LVL226-1
 14301 072f 0300     		.2byte	0x3
 14302 0731 75       		.byte	0x75
 14303 0732 D80C     		.sleb128 1624
 14304 0734 3E030000 		.4byte	.LVL230
 14305 0738 6C030000 		.4byte	.LVL240
 14306 073c 0100     		.2byte	0x1
 14307 073e 56       		.byte	0x56
 14308 073f 80030000 		.4byte	.LVL244
 14309 0743 1E040000 		.4byte	.LVL262
 14310 0747 0100     		.2byte	0x1
 14311 0749 56       		.byte	0x56
 14312 074a 88040000 		.4byte	.LVL277
 14313 074e DE040000 		.4byte	.LVL287
 14314 0752 0100     		.2byte	0x1
 14315 0754 56       		.byte	0x56
 14316 0755 48050000 		.4byte	.LVL302
 14317 0759 F4060000 		.4byte	.LVL355
 14318 075d 0100     		.2byte	0x1
 14319 075f 56       		.byte	0x56
 14320 0760 64070000 		.4byte	.LVL370
 14321 0764 7C120000 		.4byte	.LVL727
 14322 0768 0100     		.2byte	0x1
 14323 076a 56       		.byte	0x56
 14324 076b 90120000 		.4byte	.LVL730
 14325 076f C2120000 		.4byte	.LVL743
 14326 0773 0100     		.2byte	0x1
 14327 0775 56       		.byte	0x56
 14328 0776 D6120000 		.4byte	.LVL746
 14329 077a 1E130000 		.4byte	.LVL758
 14330 077e 0100     		.2byte	0x1
 14331 0780 56       		.byte	0x56
 14332 0781 6E130000 		.4byte	.LVL765
 14333 0785 E4130000 		.4byte	.LVL784
 14334 0789 0100     		.2byte	0x1
 14335 078b 56       		.byte	0x56
 14336 078c F8130000 		.4byte	.LVL787
 14337 0790 42140000 		.4byte	.LVL799
 14338 0794 0100     		.2byte	0x1
 14339 0796 56       		.byte	0x56
 14340 0797 4A140000 		.4byte	.LVL802
ARM GAS  C:\Users\164\AppData\Local\Temp\cc4PZf78.s 			page 298


 14341 079b 58140000 		.4byte	.LVL806
 14342 079f 0100     		.2byte	0x1
 14343 07a1 56       		.byte	0x56
 14344 07a2 58140000 		.4byte	.LVL806
 14345 07a6 64140000 		.4byte	.LVL808
 14346 07aa 0300     		.2byte	0x3
 14347 07ac 75       		.byte	0x75
 14348 07ad D80C     		.sleb128 1624
 14349 07af BC140000 		.4byte	.LVL813
 14350 07b3 E4150000 		.4byte	.LVL864
 14351 07b7 0100     		.2byte	0x1
 14352 07b9 56       		.byte	0x56
 14353 07ba 00000000 		.4byte	0
 14354 07be 00000000 		.4byte	0
 14355              	.LLST27:
 14356 07c2 38000000 		.4byte	.LVL93
 14357 07c6 F3000000 		.4byte	.LVL98-1
 14358 07ca 0100     		.2byte	0x1
 14359 07cc 53       		.byte	0x53
 14360 07cd 0C010000 		.4byte	.LVL102
 14361 07d1 0E010000 		.4byte	.LVL103
 14362 07d5 0100     		.2byte	0x1
 14363 07d7 53       		.byte	0x53
 14364 07d8 0E010000 		.4byte	.LVL103
 14365 07dc 12010000 		.4byte	.LVL104
 14366 07e0 0600     		.2byte	0x6
 14367 07e2 74       		.byte	0x74
 14368 07e3 00       		.sleb128 0
 14369 07e4 08       		.byte	0x8
 14370 07e5 7F       		.byte	0x7f
 14371 07e6 1A       		.byte	0x1a
 14372 07e7 9F       		.byte	0x9f
 14373 07e8 30010000 		.4byte	.LVL110
 14374 07ec 3D010000 		.4byte	.LVL113-1
 14375 07f0 0100     		.2byte	0x1
 14376 07f2 53       		.byte	0x53
 14377 07f3 3D010000 		.4byte	.LVL113-1
 14378 07f7 46010000 		.4byte	.LVL114
 14379 07fb 0600     		.2byte	0x6
 14380 07fd 74       		.byte	0x74
 14381 07fe 00       		.sleb128 0
 14382 07ff 08       		.byte	0x8
 14383 0800 7F       		.byte	0x7f
 14384 0801 1A       		.byte	0x1a
 14385 0802 9F       		.byte	0x9f
 14386 0803 56010000 		.4byte	.LVL116
 14387 0807 5A010000 		.4byte	.LVL118
 14388 080b 0100     		.2byte	0x1
 14389 080d 53       		.byte	0x53
 14390 080e 5A010000 		.4byte	.LVL118
 14391 0812 6C010000 		.4byte	.LVL123
 14392 0816 0600     		.2byte	0x6
 14393 0818 74       		.byte	0x74
 14394 0819 00       		.sleb128 0
 14395 081a 08       		.byte	0x8
 14396 081b 7F       		.byte	0x7f
 14397 081c 1A       		.byte	0x1a
ARM GAS  C:\Users\164\AppData\Local\Temp\cc4PZf78.s 			page 299


 14398 081d 9F       		.byte	0x9f
 14399 081e 82010000 		.4byte	.LVL127
 14400 0822 8B010000 		.4byte	.LVL130-1
 14401 0826 0100     		.2byte	0x1
 14402 0828 53       		.byte	0x53
 14403 0829 96010000 		.4byte	.LVL132
 14404 082d A1010000 		.4byte	.LVL135-1
 14405 0831 0100     		.2byte	0x1
 14406 0833 53       		.byte	0x53
 14407 0834 B6010000 		.4byte	.LVL138
 14408 0838 BF010000 		.4byte	.LVL141-1
 14409 083c 0100     		.2byte	0x1
 14410 083e 53       		.byte	0x53
 14411 083f CA010000 		.4byte	.LVL143
 14412 0843 D3010000 		.4byte	.LVL146-1
 14413 0847 0100     		.2byte	0x1
 14414 0849 53       		.byte	0x53
 14415 084a DE010000 		.4byte	.LVL148
 14416 084e E2010000 		.4byte	.LVL150
 14417 0852 0100     		.2byte	0x1
 14418 0854 53       		.byte	0x53
 14419 0855 E2010000 		.4byte	.LVL150
 14420 0859 FE010000 		.4byte	.LVL157
 14421 085d 0600     		.2byte	0x6
 14422 085f 74       		.byte	0x74
 14423 0860 00       		.sleb128 0
 14424 0861 08       		.byte	0x8
 14425 0862 7F       		.byte	0x7f
 14426 0863 1A       		.byte	0x1a
 14427 0864 9F       		.byte	0x9f
 14428 0865 14020000 		.4byte	.LVL161
 14429 0869 18020000 		.4byte	.LVL163
 14430 086d 0100     		.2byte	0x1
 14431 086f 53       		.byte	0x53
 14432 0870 18020000 		.4byte	.LVL163
 14433 0874 28020000 		.4byte	.LVL167
 14434 0878 0600     		.2byte	0x6
 14435 087a 74       		.byte	0x74
 14436 087b 00       		.sleb128 0
 14437 087c 08       		.byte	0x8
 14438 087d 7F       		.byte	0x7f
 14439 087e 1A       		.byte	0x1a
 14440 087f 9F       		.byte	0x9f
 14441 0880 48020000 		.4byte	.LVL171
 14442 0884 4C020000 		.4byte	.LVL173
 14443 0888 0100     		.2byte	0x1
 14444 088a 53       		.byte	0x53
 14445 088b 4C020000 		.4byte	.LVL173
 14446 088f 5E020000 		.4byte	.LVL178
 14447 0893 0600     		.2byte	0x6
 14448 0895 74       		.byte	0x74
 14449 0896 00       		.sleb128 0
 14450 0897 08       		.byte	0x8
 14451 0898 7F       		.byte	0x7f
 14452 0899 1A       		.byte	0x1a
 14453 089a 9F       		.byte	0x9f
 14454 089b 80020000 		.4byte	.LVL185
ARM GAS  C:\Users\164\AppData\Local\Temp\cc4PZf78.s 			page 300


 14455 089f 84020000 		.4byte	.LVL187
 14456 08a3 0100     		.2byte	0x1
 14457 08a5 53       		.byte	0x53
 14458 08a6 84020000 		.4byte	.LVL187
 14459 08aa A6020000 		.4byte	.LVL195
 14460 08ae 0600     		.2byte	0x6
 14461 08b0 74       		.byte	0x74
 14462 08b1 00       		.sleb128 0
 14463 08b2 08       		.byte	0x8
 14464 08b3 7F       		.byte	0x7f
 14465 08b4 1A       		.byte	0x1a
 14466 08b5 9F       		.byte	0x9f
 14467 08b6 A6020000 		.4byte	.LVL195
 14468 08ba AA020000 		.4byte	.LVL197
 14469 08be 0100     		.2byte	0x1
 14470 08c0 53       		.byte	0x53
 14471 08c1 AA020000 		.4byte	.LVL197
 14472 08c5 C6020000 		.4byte	.LVL204
 14473 08c9 0600     		.2byte	0x6
 14474 08cb 74       		.byte	0x74
 14475 08cc 00       		.sleb128 0
 14476 08cd 08       		.byte	0x8
 14477 08ce 7F       		.byte	0x7f
 14478 08cf 1A       		.byte	0x1a
 14479 08d0 9F       		.byte	0x9f
 14480 08d1 DC020000 		.4byte	.LVL208
 14481 08d5 E0020000 		.4byte	.LVL210
 14482 08d9 0100     		.2byte	0x1
 14483 08db 53       		.byte	0x53
 14484 08dc E0020000 		.4byte	.LVL210
 14485 08e0 FC020000 		.4byte	.LVL216
 14486 08e4 0600     		.2byte	0x6
 14487 08e6 74       		.byte	0x74
 14488 08e7 00       		.sleb128 0
 14489 08e8 08       		.byte	0x8
 14490 08e9 7F       		.byte	0x7f
 14491 08ea 1A       		.byte	0x1a
 14492 08eb 9F       		.byte	0x9f
 14493 08ec FC020000 		.4byte	.LVL216
 14494 08f0 0A030000 		.4byte	.LVL220
 14495 08f4 0100     		.2byte	0x1
 14496 08f6 53       		.byte	0x53
 14497 08f7 3E030000 		.4byte	.LVL230
 14498 08fb 4C030000 		.4byte	.LVL234
 14499 08ff 0100     		.2byte	0x1
 14500 0901 53       		.byte	0x53
 14501 0902 80030000 		.4byte	.LVL244
 14502 0906 92030000 		.4byte	.LVL247
 14503 090a 0100     		.2byte	0x1
 14504 090c 53       		.byte	0x53
 14505 090d 92030000 		.4byte	.LVL247
 14506 0911 AC030000 		.4byte	.LVL249
 14507 0915 0600     		.2byte	0x6
 14508 0917 74       		.byte	0x74
 14509 0918 00       		.sleb128 0
 14510 0919 08       		.byte	0x8
 14511 091a 7F       		.byte	0x7f
ARM GAS  C:\Users\164\AppData\Local\Temp\cc4PZf78.s 			page 301


 14512 091b 1A       		.byte	0x1a
 14513 091c 9F       		.byte	0x9f
 14514 091d AC030000 		.4byte	.LVL249
 14515 0921 AE030000 		.4byte	.LVL250
 14516 0925 0100     		.2byte	0x1
 14517 0927 53       		.byte	0x53
 14518 0928 AE030000 		.4byte	.LVL250
 14519 092c C8030000 		.4byte	.LVL252
 14520 0930 0600     		.2byte	0x6
 14521 0932 74       		.byte	0x74
 14522 0933 00       		.sleb128 0
 14523 0934 08       		.byte	0x8
 14524 0935 7F       		.byte	0x7f
 14525 0936 1A       		.byte	0x1a
 14526 0937 9F       		.byte	0x9f
 14527 0938 C8030000 		.4byte	.LVL252
 14528 093c DE030000 		.4byte	.LVL256
 14529 0940 0100     		.2byte	0x1
 14530 0942 53       		.byte	0x53
 14531 0943 DE030000 		.4byte	.LVL256
 14532 0947 EE030000 		.4byte	.LVL259
 14533 094b 0600     		.2byte	0x6
 14534 094d 74       		.byte	0x74
 14535 094e 00       		.sleb128 0
 14536 094f 08       		.byte	0x8
 14537 0950 7F       		.byte	0x7f
 14538 0951 1A       		.byte	0x1a
 14539 0952 9F       		.byte	0x9f
 14540 0953 88040000 		.4byte	.LVL277
 14541 0957 9E040000 		.4byte	.LVL281
 14542 095b 0100     		.2byte	0x1
 14543 095d 53       		.byte	0x53
 14544 095e 9E040000 		.4byte	.LVL281
 14545 0962 AE040000 		.4byte	.LVL284
 14546 0966 0600     		.2byte	0x6
 14547 0968 74       		.byte	0x74
 14548 0969 00       		.sleb128 0
 14549 096a 08       		.byte	0x8
 14550 096b 7F       		.byte	0x7f
 14551 096c 1A       		.byte	0x1a
 14552 096d 9F       		.byte	0x9f
 14553 096e 48050000 		.4byte	.LVL302
 14554 0972 4F050000 		.4byte	.LVL303-1
 14555 0976 0100     		.2byte	0x1
 14556 0978 53       		.byte	0x53
 14557 0979 4F050000 		.4byte	.LVL303-1
 14558 097d 5E050000 		.4byte	.LVL306
 14559 0981 0600     		.2byte	0x6
 14560 0983 74       		.byte	0x74
 14561 0984 00       		.sleb128 0
 14562 0985 08       		.byte	0x8
 14563 0986 7F       		.byte	0x7f
 14564 0987 1A       		.byte	0x1a
 14565 0988 9F       		.byte	0x9f
 14566 0989 5E050000 		.4byte	.LVL306
 14567 098d 66050000 		.4byte	.LVL307
 14568 0991 0100     		.2byte	0x1
ARM GAS  C:\Users\164\AppData\Local\Temp\cc4PZf78.s 			page 302


 14569 0993 53       		.byte	0x53
 14570 0994 66050000 		.4byte	.LVL307
 14571 0998 8A050000 		.4byte	.LVL312
 14572 099c 0600     		.2byte	0x6
 14573 099e 74       		.byte	0x74
 14574 099f 00       		.sleb128 0
 14575 09a0 08       		.byte	0x8
 14576 09a1 7F       		.byte	0x7f
 14577 09a2 1A       		.byte	0x1a
 14578 09a3 9F       		.byte	0x9f
 14579 09a4 8A050000 		.4byte	.LVL312
 14580 09a8 96050000 		.4byte	.LVL316
 14581 09ac 0100     		.2byte	0x1
 14582 09ae 53       		.byte	0x53
 14583 09af E2050000 		.4byte	.LVL322
 14584 09b3 EC050000 		.4byte	.LVL325
 14585 09b7 0100     		.2byte	0x1
 14586 09b9 53       		.byte	0x53
 14587 09ba 16060000 		.4byte	.LVL332
 14588 09be 18060000 		.4byte	.LVL333
 14589 09c2 0100     		.2byte	0x1
 14590 09c4 53       		.byte	0x53
 14591 09c5 18060000 		.4byte	.LVL333
 14592 09c9 C4060000 		.4byte	.LVL352
 14593 09cd 0600     		.2byte	0x6
 14594 09cf 74       		.byte	0x74
 14595 09d0 00       		.sleb128 0
 14596 09d1 08       		.byte	0x8
 14597 09d2 7F       		.byte	0x7f
 14598 09d3 1A       		.byte	0x1a
 14599 09d4 9F       		.byte	0x9f
 14600 09d5 64070000 		.4byte	.LVL370
 14601 09d9 66070000 		.4byte	.LVL371
 14602 09dd 0100     		.2byte	0x1
 14603 09df 53       		.byte	0x53
 14604 09e0 66070000 		.4byte	.LVL371
 14605 09e4 74070000 		.4byte	.LVL374
 14606 09e8 0600     		.2byte	0x6
 14607 09ea 74       		.byte	0x74
 14608 09eb 00       		.sleb128 0
 14609 09ec 08       		.byte	0x8
 14610 09ed 7F       		.byte	0x7f
 14611 09ee 1A       		.byte	0x1a
 14612 09ef 9F       		.byte	0x9f
 14613 09f0 7C070000 		.4byte	.LVL375
 14614 09f4 9E070000 		.4byte	.LVL378
 14615 09f8 0600     		.2byte	0x6
 14616 09fa 74       		.byte	0x74
 14617 09fb 00       		.sleb128 0
 14618 09fc 08       		.byte	0x8
 14619 09fd 7F       		.byte	0x7f
 14620 09fe 1A       		.byte	0x1a
 14621 09ff 9F       		.byte	0x9f
 14622 0a00 A4070000 		.4byte	.LVL379
 14623 0a04 AC070000 		.4byte	.LVL381
 14624 0a08 0100     		.2byte	0x1
 14625 0a0a 53       		.byte	0x53
ARM GAS  C:\Users\164\AppData\Local\Temp\cc4PZf78.s 			page 303


 14626 0a0b AC070000 		.4byte	.LVL381
 14627 0a0f 58080000 		.4byte	.LVL397
 14628 0a13 0600     		.2byte	0x6
 14629 0a15 74       		.byte	0x74
 14630 0a16 00       		.sleb128 0
 14631 0a17 08       		.byte	0x8
 14632 0a18 7F       		.byte	0x7f
 14633 0a19 1A       		.byte	0x1a
 14634 0a1a 9F       		.byte	0x9f
 14635 0a1b FE080000 		.4byte	.LVL416
 14636 0a1f 00090000 		.4byte	.LVL417
 14637 0a23 0100     		.2byte	0x1
 14638 0a25 53       		.byte	0x53
 14639 0a26 00090000 		.4byte	.LVL417
 14640 0a2a 0E090000 		.4byte	.LVL420
 14641 0a2e 0600     		.2byte	0x6
 14642 0a30 74       		.byte	0x74
 14643 0a31 00       		.sleb128 0
 14644 0a32 08       		.byte	0x8
 14645 0a33 7F       		.byte	0x7f
 14646 0a34 1A       		.byte	0x1a
 14647 0a35 9F       		.byte	0x9f
 14648 0a36 16090000 		.4byte	.LVL421
 14649 0a3a 38090000 		.4byte	.LVL424
 14650 0a3e 0600     		.2byte	0x6
 14651 0a40 74       		.byte	0x74
 14652 0a41 00       		.sleb128 0
 14653 0a42 08       		.byte	0x8
 14654 0a43 7F       		.byte	0x7f
 14655 0a44 1A       		.byte	0x1a
 14656 0a45 9F       		.byte	0x9f
 14657 0a46 3E090000 		.4byte	.LVL425
 14658 0a4a 46090000 		.4byte	.LVL427
 14659 0a4e 0100     		.2byte	0x1
 14660 0a50 53       		.byte	0x53
 14661 0a51 46090000 		.4byte	.LVL427
 14662 0a55 F4090000 		.4byte	.LVL443
 14663 0a59 0600     		.2byte	0x6
 14664 0a5b 74       		.byte	0x74
 14665 0a5c 00       		.sleb128 0
 14666 0a5d 08       		.byte	0x8
 14667 0a5e 7F       		.byte	0x7f
 14668 0a5f 1A       		.byte	0x1a
 14669 0a60 9F       		.byte	0x9f
 14670 0a61 9A0A0000 		.4byte	.LVL462
 14671 0a65 A20A0000 		.4byte	.LVL464
 14672 0a69 0100     		.2byte	0x1
 14673 0a6b 53       		.byte	0x53
 14674 0a6c A20A0000 		.4byte	.LVL464
 14675 0a70 500B0000 		.4byte	.LVL480
 14676 0a74 0600     		.2byte	0x6
 14677 0a76 74       		.byte	0x74
 14678 0a77 00       		.sleb128 0
 14679 0a78 08       		.byte	0x8
 14680 0a79 7F       		.byte	0x7f
 14681 0a7a 1A       		.byte	0x1a
 14682 0a7b 9F       		.byte	0x9f
ARM GAS  C:\Users\164\AppData\Local\Temp\cc4PZf78.s 			page 304


 14683 0a7c FA0B0000 		.4byte	.LVL499
 14684 0a80 0F0C0000 		.4byte	.LVL504-1
 14685 0a84 0100     		.2byte	0x1
 14686 0a86 53       		.byte	0x53
 14687 0a87 320C0000 		.4byte	.LVL510
 14688 0a8b 3E0C0000 		.4byte	.LVL513
 14689 0a8f 0100     		.2byte	0x1
 14690 0a91 53       		.byte	0x53
 14691 0a92 3E0C0000 		.4byte	.LVL513
 14692 0a96 700C0000 		.4byte	.LVL518
 14693 0a9a 0600     		.2byte	0x6
 14694 0a9c 74       		.byte	0x74
 14695 0a9d 00       		.sleb128 0
 14696 0a9e 08       		.byte	0x8
 14697 0a9f 7F       		.byte	0x7f
 14698 0aa0 1A       		.byte	0x1a
 14699 0aa1 9F       		.byte	0x9f
 14700 0aa2 820C0000 		.4byte	.LVL521
 14701 0aa6 A20C0000 		.4byte	.LVL524
 14702 0aaa 0600     		.2byte	0x6
 14703 0aac 74       		.byte	0x74
 14704 0aad 00       		.sleb128 0
 14705 0aae 08       		.byte	0x8
 14706 0aaf 7F       		.byte	0x7f
 14707 0ab0 1A       		.byte	0x1a
 14708 0ab1 9F       		.byte	0x9f
 14709 0ab2 B80C0000 		.4byte	.LVL527
 14710 0ab6 C00C0000 		.4byte	.LVL528
 14711 0aba 0600     		.2byte	0x6
 14712 0abc 74       		.byte	0x74
 14713 0abd 00       		.sleb128 0
 14714 0abe 08       		.byte	0x8
 14715 0abf 7F       		.byte	0x7f
 14716 0ac0 1A       		.byte	0x1a
 14717 0ac1 9F       		.byte	0x9f
 14718 0ac2 DA0C0000 		.4byte	.LVL531
 14719 0ac6 020D0000 		.4byte	.LVL538
 14720 0aca 0600     		.2byte	0x6
 14721 0acc 74       		.byte	0x74
 14722 0acd 00       		.sleb128 0
 14723 0ace 08       		.byte	0x8
 14724 0acf 7F       		.byte	0x7f
 14725 0ad0 1A       		.byte	0x1a
 14726 0ad1 9F       		.byte	0x9f
 14727 0ad2 B40D0000 		.4byte	.LVL562
 14728 0ad6 C00D0000 		.4byte	.LVL565
 14729 0ada 0100     		.2byte	0x1
 14730 0adc 53       		.byte	0x53
 14731 0add C00D0000 		.4byte	.LVL565
 14732 0ae1 F20D0000 		.4byte	.LVL570
 14733 0ae5 0600     		.2byte	0x6
 14734 0ae7 74       		.byte	0x74
 14735 0ae8 00       		.sleb128 0
 14736 0ae9 08       		.byte	0x8
 14737 0aea 7F       		.byte	0x7f
 14738 0aeb 1A       		.byte	0x1a
 14739 0aec 9F       		.byte	0x9f
ARM GAS  C:\Users\164\AppData\Local\Temp\cc4PZf78.s 			page 305


 14740 0aed 040E0000 		.4byte	.LVL573
 14741 0af1 240E0000 		.4byte	.LVL576
 14742 0af5 0600     		.2byte	0x6
 14743 0af7 74       		.byte	0x74
 14744 0af8 00       		.sleb128 0
 14745 0af9 08       		.byte	0x8
 14746 0afa 7F       		.byte	0x7f
 14747 0afb 1A       		.byte	0x1a
 14748 0afc 9F       		.byte	0x9f
 14749 0afd 3A0E0000 		.4byte	.LVL579
 14750 0b01 420E0000 		.4byte	.LVL580
 14751 0b05 0600     		.2byte	0x6
 14752 0b07 74       		.byte	0x74
 14753 0b08 00       		.sleb128 0
 14754 0b09 08       		.byte	0x8
 14755 0b0a 7F       		.byte	0x7f
 14756 0b0b 1A       		.byte	0x1a
 14757 0b0c 9F       		.byte	0x9f
 14758 0b0d 5C0E0000 		.4byte	.LVL583
 14759 0b11 840E0000 		.4byte	.LVL590
 14760 0b15 0600     		.2byte	0x6
 14761 0b17 74       		.byte	0x74
 14762 0b18 00       		.sleb128 0
 14763 0b19 08       		.byte	0x8
 14764 0b1a 7F       		.byte	0x7f
 14765 0b1b 1A       		.byte	0x1a
 14766 0b1c 9F       		.byte	0x9f
 14767 0b1d 3A0F0000 		.4byte	.LVL614
 14768 0b21 460F0000 		.4byte	.LVL617
 14769 0b25 0100     		.2byte	0x1
 14770 0b27 53       		.byte	0x53
 14771 0b28 460F0000 		.4byte	.LVL617
 14772 0b2c 780F0000 		.4byte	.LVL622
 14773 0b30 0600     		.2byte	0x6
 14774 0b32 74       		.byte	0x74
 14775 0b33 00       		.sleb128 0
 14776 0b34 08       		.byte	0x8
 14777 0b35 7F       		.byte	0x7f
 14778 0b36 1A       		.byte	0x1a
 14779 0b37 9F       		.byte	0x9f
 14780 0b38 8A0F0000 		.4byte	.LVL625
 14781 0b3c AA0F0000 		.4byte	.LVL628
 14782 0b40 0600     		.2byte	0x6
 14783 0b42 74       		.byte	0x74
 14784 0b43 00       		.sleb128 0
 14785 0b44 08       		.byte	0x8
 14786 0b45 7F       		.byte	0x7f
 14787 0b46 1A       		.byte	0x1a
 14788 0b47 9F       		.byte	0x9f
 14789 0b48 C00F0000 		.4byte	.LVL631
 14790 0b4c C80F0000 		.4byte	.LVL632
 14791 0b50 0600     		.2byte	0x6
 14792 0b52 74       		.byte	0x74
 14793 0b53 00       		.sleb128 0
 14794 0b54 08       		.byte	0x8
 14795 0b55 7F       		.byte	0x7f
 14796 0b56 1A       		.byte	0x1a
ARM GAS  C:\Users\164\AppData\Local\Temp\cc4PZf78.s 			page 306


 14797 0b57 9F       		.byte	0x9f
 14798 0b58 E20F0000 		.4byte	.LVL635
 14799 0b5c 0A100000 		.4byte	.LVL642
 14800 0b60 0600     		.2byte	0x6
 14801 0b62 74       		.byte	0x74
 14802 0b63 00       		.sleb128 0
 14803 0b64 08       		.byte	0x8
 14804 0b65 7F       		.byte	0x7f
 14805 0b66 1A       		.byte	0x1a
 14806 0b67 9F       		.byte	0x9f
 14807 0b68 BA100000 		.4byte	.LVL666
 14808 0b6c C6100000 		.4byte	.LVL669
 14809 0b70 0100     		.2byte	0x1
 14810 0b72 53       		.byte	0x53
 14811 0b73 C6100000 		.4byte	.LVL669
 14812 0b77 F8100000 		.4byte	.LVL674
 14813 0b7b 0600     		.2byte	0x6
 14814 0b7d 74       		.byte	0x74
 14815 0b7e 00       		.sleb128 0
 14816 0b7f 08       		.byte	0x8
 14817 0b80 7F       		.byte	0x7f
 14818 0b81 1A       		.byte	0x1a
 14819 0b82 9F       		.byte	0x9f
 14820 0b83 0A110000 		.4byte	.LVL677
 14821 0b87 2A110000 		.4byte	.LVL680
 14822 0b8b 0600     		.2byte	0x6
 14823 0b8d 74       		.byte	0x74
 14824 0b8e 00       		.sleb128 0
 14825 0b8f 08       		.byte	0x8
 14826 0b90 7F       		.byte	0x7f
 14827 0b91 1A       		.byte	0x1a
 14828 0b92 9F       		.byte	0x9f
 14829 0b93 40110000 		.4byte	.LVL683
 14830 0b97 48110000 		.4byte	.LVL684
 14831 0b9b 0600     		.2byte	0x6
 14832 0b9d 74       		.byte	0x74
 14833 0b9e 00       		.sleb128 0
 14834 0b9f 08       		.byte	0x8
 14835 0ba0 7F       		.byte	0x7f
 14836 0ba1 1A       		.byte	0x1a
 14837 0ba2 9F       		.byte	0x9f
 14838 0ba3 62110000 		.4byte	.LVL687
 14839 0ba7 8A110000 		.4byte	.LVL694
 14840 0bab 0600     		.2byte	0x6
 14841 0bad 74       		.byte	0x74
 14842 0bae 00       		.sleb128 0
 14843 0baf 08       		.byte	0x8
 14844 0bb0 7F       		.byte	0x7f
 14845 0bb1 1A       		.byte	0x1a
 14846 0bb2 9F       		.byte	0x9f
 14847 0bb3 40120000 		.4byte	.LVL718
 14848 0bb7 53120000 		.4byte	.LVL722-1
 14849 0bbb 0100     		.2byte	0x1
 14850 0bbd 53       		.byte	0x53
 14851 0bbe 53120000 		.4byte	.LVL722-1
 14852 0bc2 56120000 		.4byte	.LVL723
 14853 0bc6 0600     		.2byte	0x6
ARM GAS  C:\Users\164\AppData\Local\Temp\cc4PZf78.s 			page 307


 14854 0bc8 74       		.byte	0x74
 14855 0bc9 00       		.sleb128 0
 14856 0bca 08       		.byte	0x8
 14857 0bcb 7F       		.byte	0x7f
 14858 0bcc 1A       		.byte	0x1a
 14859 0bcd 9F       		.byte	0x9f
 14860 0bce 96120000 		.4byte	.LVL732
 14861 0bd2 9E120000 		.4byte	.LVL735
 14862 0bd6 0100     		.2byte	0x1
 14863 0bd8 53       		.byte	0x53
 14864 0bd9 DC120000 		.4byte	.LVL748
 14865 0bdd E7120000 		.4byte	.LVL751-1
 14866 0be1 0100     		.2byte	0x1
 14867 0be3 53       		.byte	0x53
 14868 0be4 6E130000 		.4byte	.LVL765
 14869 0be8 7D130000 		.4byte	.LVL768-1
 14870 0bec 0100     		.2byte	0x1
 14871 0bee 53       		.byte	0x53
 14872 0bef AC130000 		.4byte	.LVL775
 14873 0bf3 BF130000 		.4byte	.LVL779-1
 14874 0bf7 0100     		.2byte	0x1
 14875 0bf9 53       		.byte	0x53
 14876 0bfa FE130000 		.4byte	.LVL789
 14877 0bfe 04140000 		.4byte	.LVL791
 14878 0c02 0100     		.2byte	0x1
 14879 0c04 53       		.byte	0x53
 14880 0c05 04140000 		.4byte	.LVL791
 14881 0c09 4A140000 		.4byte	.LVL802
 14882 0c0d 0600     		.2byte	0x6
 14883 0c0f 74       		.byte	0x74
 14884 0c10 00       		.sleb128 0
 14885 0c11 08       		.byte	0x8
 14886 0c12 7F       		.byte	0x7f
 14887 0c13 1A       		.byte	0x1a
 14888 0c14 9F       		.byte	0x9f
 14889 0c15 4A140000 		.4byte	.LVL802
 14890 0c19 60140000 		.4byte	.LVL807
 14891 0c1d 0100     		.2byte	0x1
 14892 0c1f 53       		.byte	0x53
 14893 0c20 BC140000 		.4byte	.LVL813
 14894 0c24 BE140000 		.4byte	.LVL814
 14895 0c28 0100     		.2byte	0x1
 14896 0c2a 53       		.byte	0x53
 14897 0c2b BE140000 		.4byte	.LVL814
 14898 0c2f CA140000 		.4byte	.LVL817
 14899 0c33 0600     		.2byte	0x6
 14900 0c35 74       		.byte	0x74
 14901 0c36 00       		.sleb128 0
 14902 0c37 08       		.byte	0x8
 14903 0c38 7F       		.byte	0x7f
 14904 0c39 1A       		.byte	0x1a
 14905 0c3a 9F       		.byte	0x9f
 14906 0c3b 5C150000 		.4byte	.LVL831
 14907 0c3f 67150000 		.4byte	.LVL835-1
 14908 0c43 0100     		.2byte	0x1
 14909 0c45 53       		.byte	0x53
 14910 0c46 76150000 		.4byte	.LVL837
ARM GAS  C:\Users\164\AppData\Local\Temp\cc4PZf78.s 			page 308


 14911 0c4a 80150000 		.4byte	.LVL839
 14912 0c4e 0100     		.2byte	0x1
 14913 0c50 53       		.byte	0x53
 14914 0c51 8E150000 		.4byte	.LVL842
 14915 0c55 90150000 		.4byte	.LVL843
 14916 0c59 0100     		.2byte	0x1
 14917 0c5b 53       		.byte	0x53
 14918 0c5c A0150000 		.4byte	.LVL846
 14919 0c60 AA150000 		.4byte	.LVL848
 14920 0c64 0100     		.2byte	0x1
 14921 0c66 53       		.byte	0x53
 14922 0c67 B8150000 		.4byte	.LVL851
 14923 0c6b BA150000 		.4byte	.LVL852
 14924 0c6f 0100     		.2byte	0x1
 14925 0c71 53       		.byte	0x53
 14926 0c72 CA150000 		.4byte	.LVL855
 14927 0c76 D3150000 		.4byte	.LVL856-1
 14928 0c7a 0100     		.2byte	0x1
 14929 0c7c 53       		.byte	0x53
 14930 0c7d D3150000 		.4byte	.LVL856-1
 14931 0c81 D6150000 		.4byte	.LVL857
 14932 0c85 0600     		.2byte	0x6
 14933 0c87 74       		.byte	0x74
 14934 0c88 00       		.sleb128 0
 14935 0c89 08       		.byte	0x8
 14936 0c8a 7F       		.byte	0x7f
 14937 0c8b 1A       		.byte	0x1a
 14938 0c8c 9F       		.byte	0x9f
 14939 0c8d D6150000 		.4byte	.LVL857
 14940 0c91 DA150000 		.4byte	.LVL859
 14941 0c95 0100     		.2byte	0x1
 14942 0c97 53       		.byte	0x53
 14943 0c98 DA150000 		.4byte	.LVL859
 14944 0c9c E4150000 		.4byte	.LVL864
 14945 0ca0 0600     		.2byte	0x6
 14946 0ca2 74       		.byte	0x74
 14947 0ca3 00       		.sleb128 0
 14948 0ca4 08       		.byte	0x8
 14949 0ca5 7F       		.byte	0x7f
 14950 0ca6 1A       		.byte	0x1a
 14951 0ca7 9F       		.byte	0x9f
 14952 0ca8 00000000 		.4byte	0
 14953 0cac 00000000 		.4byte	0
 14954              	.LLST28:
 14955 0cb0 10000000 		.4byte	.LVL88
 14956 0cb4 16000000 		.4byte	.LVL90
 14957 0cb8 0800     		.2byte	0x8
 14958 0cba 72       		.byte	0x72
 14959 0cbb 00       		.sleb128 0
 14960 0cbc 32       		.byte	0x32
 14961 0cbd 24       		.byte	0x24
 14962 0cbe 73       		.byte	0x73
 14963 0cbf 00       		.sleb128 0
 14964 0cc0 22       		.byte	0x22
 14965 0cc1 9F       		.byte	0x9f
 14966 0cc2 16000000 		.4byte	.LVL90
 14967 0cc6 2A000000 		.4byte	.LVL91
ARM GAS  C:\Users\164\AppData\Local\Temp\cc4PZf78.s 			page 309


 14968 0cca 0C00     		.2byte	0xc
 14969 0ccc 72       		.byte	0x72
 14970 0ccd 00       		.sleb128 0
 14971 0cce 32       		.byte	0x32
 14972 0ccf 24       		.byte	0x24
 14973 0cd0 75       		.byte	0x75
 14974 0cd1 0C       		.sleb128 12
 14975 0cd2 06       		.byte	0x6
 14976 0cd3 23       		.byte	0x23
 14977 0cd4 0C       		.uleb128 0xc
 14978 0cd5 06       		.byte	0x6
 14979 0cd6 22       		.byte	0x22
 14980 0cd7 9F       		.byte	0x9f
 14981 0cd8 00000000 		.4byte	0
 14982 0cdc 00000000 		.4byte	0
 14983              	.LLST29:
 14984 0ce0 14000000 		.4byte	.LVL89
 14985 0ce4 2A000000 		.4byte	.LVL91
 14986 0ce8 0100     		.2byte	0x1
 14987 0cea 51       		.byte	0x51
 14988 0ceb 00000000 		.4byte	0
 14989 0cef 00000000 		.4byte	0
 14990              	.LLST30:
 14991 0cf3 E4000000 		.4byte	.LVL94
 14992 0cf7 F8000000 		.4byte	.LVL99
 14993 0cfb 0100     		.2byte	0x1
 14994 0cfd 56       		.byte	0x56
 14995 0cfe 00000000 		.4byte	0
 14996 0d02 00000000 		.4byte	0
 14997              	.LLST31:
 14998 0d06 E4000000 		.4byte	.LVL94
 14999 0d0a EA000000 		.4byte	.LVL96
 15000 0d0e 0100     		.2byte	0x1
 15001 0d10 54       		.byte	0x54
 15002 0d11 00000000 		.4byte	0
 15003 0d15 00000000 		.4byte	0
 15004              	.LLST32:
 15005 0d19 E4000000 		.4byte	.LVL94
 15006 0d1d 06010000 		.4byte	.LVL101
 15007 0d21 0100     		.2byte	0x1
 15008 0d23 55       		.byte	0x55
 15009 0d24 00000000 		.4byte	0
 15010 0d28 00000000 		.4byte	0
 15011              	.LLST33:
 15012 0d2c E6000000 		.4byte	.LVL95
 15013 0d30 EE000000 		.4byte	.LVL97
 15014 0d34 0100     		.2byte	0x1
 15015 0d36 57       		.byte	0x57
 15016 0d37 00000000 		.4byte	0
 15017 0d3b 00000000 		.4byte	0
 15018              	.LLST34:
 15019 0d3f EA000000 		.4byte	.LVL96
 15020 0d43 06010000 		.4byte	.LVL101
 15021 0d47 0100     		.2byte	0x1
 15022 0d49 54       		.byte	0x54
 15023 0d4a 00000000 		.4byte	0
 15024 0d4e 00000000 		.4byte	0
ARM GAS  C:\Users\164\AppData\Local\Temp\cc4PZf78.s 			page 310


 15025              	.LLST35:
 15026 0d52 0C010000 		.4byte	.LVL102
 15027 0d56 16010000 		.4byte	.LVL105
 15028 0d5a 0100     		.2byte	0x1
 15029 0d5c 56       		.byte	0x56
 15030 0d5d 16010000 		.4byte	.LVL105
 15031 0d61 1B010000 		.4byte	.LVL106-1
 15032 0d65 0300     		.2byte	0x3
 15033 0d67 75       		.byte	0x75
 15034 0d68 D80C     		.sleb128 1624
 15035 0d6a 00000000 		.4byte	0
 15036 0d6e 00000000 		.4byte	0
 15037              	.LLST36:
 15038 0d72 0C010000 		.4byte	.LVL102
 15039 0d76 12010000 		.4byte	.LVL104
 15040 0d7a 0100     		.2byte	0x1
 15041 0d7c 54       		.byte	0x54
 15042 0d7d 00000000 		.4byte	0
 15043 0d81 00000000 		.4byte	0
 15044              	.LLST37:
 15045 0d85 0C010000 		.4byte	.LVL102
 15046 0d89 2A010000 		.4byte	.LVL109
 15047 0d8d 0100     		.2byte	0x1
 15048 0d8f 55       		.byte	0x55
 15049 0d90 00000000 		.4byte	0
 15050 0d94 00000000 		.4byte	0
 15051              	.LLST38:
 15052 0d98 0E010000 		.4byte	.LVL103
 15053 0d9c 1B010000 		.4byte	.LVL106-1
 15054 0da0 0100     		.2byte	0x1
 15055 0da2 53       		.byte	0x53
 15056 0da3 00000000 		.4byte	0
 15057 0da7 00000000 		.4byte	0
 15058              	.LLST39:
 15059 0dab 12010000 		.4byte	.LVL104
 15060 0daf 2A010000 		.4byte	.LVL109
 15061 0db3 0100     		.2byte	0x1
 15062 0db5 54       		.byte	0x54
 15063 0db6 00000000 		.4byte	0
 15064 0dba 00000000 		.4byte	0
 15065              	.LLST40:
 15066 0dbe 24010000 		.4byte	.LVL107
 15067 0dc2 26010000 		.4byte	.LVL108
 15068 0dc6 0100     		.2byte	0x1
 15069 0dc8 53       		.byte	0x53
 15070 0dc9 26010000 		.4byte	.LVL108
 15071 0dcd 2A010000 		.4byte	.LVL109
 15072 0dd1 0B00     		.2byte	0xb
 15073 0dd3 74       		.byte	0x74
 15074 0dd4 00       		.sleb128 0
 15075 0dd5 32       		.byte	0x32
 15076 0dd6 24       		.byte	0x24
 15077 0dd7 75       		.byte	0x75
 15078 0dd8 0C       		.sleb128 12
 15079 0dd9 06       		.byte	0x6
 15080 0dda 23       		.byte	0x23
 15081 0ddb 10       		.uleb128 0x10
ARM GAS  C:\Users\164\AppData\Local\Temp\cc4PZf78.s 			page 311


 15082 0ddc 06       		.byte	0x6
 15083 0ddd 22       		.byte	0x22
 15084 0dde 00000000 		.4byte	0
 15085 0de2 00000000 		.4byte	0
 15086              	.LLST41:
 15087 0de6 30010000 		.4byte	.LVL110
 15088 0dea 50010000 		.4byte	.LVL115
 15089 0dee 0100     		.2byte	0x1
 15090 0df0 56       		.byte	0x56
 15091 0df1 00000000 		.4byte	0
 15092 0df5 00000000 		.4byte	0
 15093              	.LLST42:
 15094 0df9 30010000 		.4byte	.LVL110
 15095 0dfd 46010000 		.4byte	.LVL114
 15096 0e01 0100     		.2byte	0x1
 15097 0e03 54       		.byte	0x54
 15098 0e04 00000000 		.4byte	0
 15099 0e08 00000000 		.4byte	0
 15100              	.LLST43:
 15101 0e0c 30010000 		.4byte	.LVL110
 15102 0e10 50010000 		.4byte	.LVL115
 15103 0e14 0100     		.2byte	0x1
 15104 0e16 55       		.byte	0x55
 15105 0e17 00000000 		.4byte	0
 15106 0e1b 00000000 		.4byte	0
 15107              	.LLST44:
 15108 0e1f 32010000 		.4byte	.LVL111
 15109 0e23 34010000 		.4byte	.LVL112
 15110 0e27 0100     		.2byte	0x1
 15111 0e29 57       		.byte	0x57
 15112 0e2a 34010000 		.4byte	.LVL112
 15113 0e2e 46010000 		.4byte	.LVL114
 15114 0e32 0500     		.2byte	0x5
 15115 0e34 74       		.byte	0x74
 15116 0e35 00       		.sleb128 0
 15117 0e36 47       		.byte	0x47
 15118 0e37 25       		.byte	0x25
 15119 0e38 9F       		.byte	0x9f
 15120 0e39 00000000 		.4byte	0
 15121 0e3d 00000000 		.4byte	0
 15122              	.LLST45:
 15123 0e41 56010000 		.4byte	.LVL116
 15124 0e45 7C010000 		.4byte	.LVL126
 15125 0e49 0100     		.2byte	0x1
 15126 0e4b 56       		.byte	0x56
 15127 0e4c 00000000 		.4byte	0
 15128 0e50 00000000 		.4byte	0
 15129              	.LLST46:
 15130 0e54 56010000 		.4byte	.LVL116
 15131 0e58 6C010000 		.4byte	.LVL123
 15132 0e5c 0100     		.2byte	0x1
 15133 0e5e 54       		.byte	0x54
 15134 0e5f 00000000 		.4byte	0
 15135 0e63 00000000 		.4byte	0
 15136              	.LLST47:
 15137 0e67 56010000 		.4byte	.LVL116
 15138 0e6b 7C010000 		.4byte	.LVL126
ARM GAS  C:\Users\164\AppData\Local\Temp\cc4PZf78.s 			page 312


 15139 0e6f 0100     		.2byte	0x1
 15140 0e71 55       		.byte	0x55
 15141 0e72 00000000 		.4byte	0
 15142 0e76 00000000 		.4byte	0
 15143              	.LLST48:
 15144 0e7a 58010000 		.4byte	.LVL117
 15145 0e7e 6E010000 		.4byte	.LVL124
 15146 0e82 0100     		.2byte	0x1
 15147 0e84 57       		.byte	0x57
 15148 0e85 00000000 		.4byte	0
 15149 0e89 00000000 		.4byte	0
 15150              	.LLST49:
 15151 0e8d 58010000 		.4byte	.LVL117
 15152 0e91 5E010000 		.4byte	.LVL119
 15153 0e95 0900     		.2byte	0x9
 15154 0e97 74       		.byte	0x74
 15155 0e98 00       		.sleb128 0
 15156 0e99 09       		.byte	0x9
 15157 0e9a ED       		.byte	0xed
 15158 0e9b 24       		.byte	0x24
 15159 0e9c 09       		.byte	0x9
 15160 0e9d F4       		.byte	0xf4
 15161 0e9e 25       		.byte	0x25
 15162 0e9f 9F       		.byte	0x9f
 15163 0ea0 5E010000 		.4byte	.LVL119
 15164 0ea4 63010000 		.4byte	.LVL120-1
 15165 0ea8 0100     		.2byte	0x1
 15166 0eaa 51       		.byte	0x51
 15167 0eab 63010000 		.4byte	.LVL120-1
 15168 0eaf 6C010000 		.4byte	.LVL123
 15169 0eb3 0900     		.2byte	0x9
 15170 0eb5 74       		.byte	0x74
 15171 0eb6 00       		.sleb128 0
 15172 0eb7 09       		.byte	0x9
 15173 0eb8 ED       		.byte	0xed
 15174 0eb9 24       		.byte	0x24
 15175 0eba 09       		.byte	0x9
 15176 0ebb F4       		.byte	0xf4
 15177 0ebc 25       		.byte	0x25
 15178 0ebd 9F       		.byte	0x9f
 15179 0ebe 00000000 		.4byte	0
 15180 0ec2 00000000 		.4byte	0
 15181              	.LLST50:
 15182 0ec6 64010000 		.4byte	.LVL120
 15183 0eca 67010000 		.4byte	.LVL121-1
 15184 0ece 0100     		.2byte	0x1
 15185 0ed0 50       		.byte	0x50
 15186 0ed1 00000000 		.4byte	0
 15187 0ed5 00000000 		.4byte	0
 15188              	.LLST51:
 15189 0ed9 6A010000 		.4byte	.LVL122
 15190 0edd 7C010000 		.4byte	.LVL126
 15191 0ee1 0100     		.2byte	0x1
 15192 0ee3 58       		.byte	0x58
 15193 0ee4 00000000 		.4byte	0
 15194 0ee8 00000000 		.4byte	0
 15195              	.LLST52:
ARM GAS  C:\Users\164\AppData\Local\Temp\cc4PZf78.s 			page 313


 15196 0eec 82010000 		.4byte	.LVL127
 15197 0ef0 90010000 		.4byte	.LVL131
 15198 0ef4 0100     		.2byte	0x1
 15199 0ef6 56       		.byte	0x56
 15200 0ef7 00000000 		.4byte	0
 15201 0efb 00000000 		.4byte	0
 15202              	.LLST53:
 15203 0eff 82010000 		.4byte	.LVL127
 15204 0f03 84010000 		.4byte	.LVL128
 15205 0f07 0100     		.2byte	0x1
 15206 0f09 54       		.byte	0x54
 15207 0f0a 00000000 		.4byte	0
 15208 0f0e 00000000 		.4byte	0
 15209              	.LLST54:
 15210 0f12 82010000 		.4byte	.LVL127
 15211 0f16 90010000 		.4byte	.LVL131
 15212 0f1a 0100     		.2byte	0x1
 15213 0f1c 55       		.byte	0x55
 15214 0f1d 00000000 		.4byte	0
 15215 0f21 00000000 		.4byte	0
 15216              	.LLST55:
 15217 0f25 84010000 		.4byte	.LVL128
 15218 0f29 86010000 		.4byte	.LVL129
 15219 0f2d 0100     		.2byte	0x1
 15220 0f2f 54       		.byte	0x54
 15221 0f30 00000000 		.4byte	0
 15222 0f34 00000000 		.4byte	0
 15223              	.LLST56:
 15224 0f38 96010000 		.4byte	.LVL132
 15225 0f3c B0010000 		.4byte	.LVL137
 15226 0f40 0100     		.2byte	0x1
 15227 0f42 56       		.byte	0x56
 15228 0f43 00000000 		.4byte	0
 15229 0f47 00000000 		.4byte	0
 15230              	.LLST57:
 15231 0f4b 96010000 		.4byte	.LVL132
 15232 0f4f 98010000 		.4byte	.LVL133
 15233 0f53 0100     		.2byte	0x1
 15234 0f55 54       		.byte	0x54
 15235 0f56 00000000 		.4byte	0
 15236 0f5a 00000000 		.4byte	0
 15237              	.LLST58:
 15238 0f5e 96010000 		.4byte	.LVL132
 15239 0f62 B0010000 		.4byte	.LVL137
 15240 0f66 0100     		.2byte	0x1
 15241 0f68 55       		.byte	0x55
 15242 0f69 00000000 		.4byte	0
 15243 0f6d 00000000 		.4byte	0
 15244              	.LLST59:
 15245 0f71 98010000 		.4byte	.LVL133
 15246 0f75 9C010000 		.4byte	.LVL134
 15247 0f79 0100     		.2byte	0x1
 15248 0f7b 54       		.byte	0x54
 15249 0f7c 00000000 		.4byte	0
 15250 0f80 00000000 		.4byte	0
 15251              	.LLST60:
 15252 0f84 B6010000 		.4byte	.LVL138
ARM GAS  C:\Users\164\AppData\Local\Temp\cc4PZf78.s 			page 314


 15253 0f88 C4010000 		.4byte	.LVL142
 15254 0f8c 0100     		.2byte	0x1
 15255 0f8e 56       		.byte	0x56
 15256 0f8f 00000000 		.4byte	0
 15257 0f93 00000000 		.4byte	0
 15258              	.LLST61:
 15259 0f97 B6010000 		.4byte	.LVL138
 15260 0f9b B8010000 		.4byte	.LVL139
 15261 0f9f 0100     		.2byte	0x1
 15262 0fa1 54       		.byte	0x54
 15263 0fa2 00000000 		.4byte	0
 15264 0fa6 00000000 		.4byte	0
 15265              	.LLST62:
 15266 0faa B6010000 		.4byte	.LVL138
 15267 0fae C4010000 		.4byte	.LVL142
 15268 0fb2 0100     		.2byte	0x1
 15269 0fb4 55       		.byte	0x55
 15270 0fb5 00000000 		.4byte	0
 15271 0fb9 00000000 		.4byte	0
 15272              	.LLST63:
 15273 0fbd B8010000 		.4byte	.LVL139
 15274 0fc1 BA010000 		.4byte	.LVL140
 15275 0fc5 0100     		.2byte	0x1
 15276 0fc7 54       		.byte	0x54
 15277 0fc8 00000000 		.4byte	0
 15278 0fcc 00000000 		.4byte	0
 15279              	.LLST64:
 15280 0fd0 CA010000 		.4byte	.LVL143
 15281 0fd4 D8010000 		.4byte	.LVL147
 15282 0fd8 0100     		.2byte	0x1
 15283 0fda 56       		.byte	0x56
 15284 0fdb 00000000 		.4byte	0
 15285 0fdf 00000000 		.4byte	0
 15286              	.LLST65:
 15287 0fe3 CA010000 		.4byte	.LVL143
 15288 0fe7 CC010000 		.4byte	.LVL144
 15289 0feb 0100     		.2byte	0x1
 15290 0fed 54       		.byte	0x54
 15291 0fee 00000000 		.4byte	0
 15292 0ff2 00000000 		.4byte	0
 15293              	.LLST66:
 15294 0ff6 CA010000 		.4byte	.LVL143
 15295 0ffa D8010000 		.4byte	.LVL147
 15296 0ffe 0100     		.2byte	0x1
 15297 1000 55       		.byte	0x55
 15298 1001 00000000 		.4byte	0
 15299 1005 00000000 		.4byte	0
 15300              	.LLST67:
 15301 1009 CC010000 		.4byte	.LVL144
 15302 100d CE010000 		.4byte	.LVL145
 15303 1011 0100     		.2byte	0x1
 15304 1013 54       		.byte	0x54
 15305 1014 00000000 		.4byte	0
 15306 1018 00000000 		.4byte	0
 15307              	.LLST68:
 15308 101c DE010000 		.4byte	.LVL148
 15309 1020 F6010000 		.4byte	.LVL155
ARM GAS  C:\Users\164\AppData\Local\Temp\cc4PZf78.s 			page 315


 15310 1024 0100     		.2byte	0x1
 15311 1026 56       		.byte	0x56
 15312 1027 00000000 		.4byte	0
 15313 102b 00000000 		.4byte	0
 15314              	.LLST69:
 15315 102f DE010000 		.4byte	.LVL148
 15316 1033 FE010000 		.4byte	.LVL157
 15317 1037 0100     		.2byte	0x1
 15318 1039 54       		.byte	0x54
 15319 103a 00000000 		.4byte	0
 15320 103e 00000000 		.4byte	0
 15321              	.LLST70:
 15322 1042 DE010000 		.4byte	.LVL148
 15323 1046 0E020000 		.4byte	.LVL159
 15324 104a 0100     		.2byte	0x1
 15325 104c 55       		.byte	0x55
 15326 104d 00000000 		.4byte	0
 15327 1051 00000000 		.4byte	0
 15328              	.LLST71:
 15329 1055 E0010000 		.4byte	.LVL149
 15330 1059 10020000 		.4byte	.LVL160
 15331 105d 0100     		.2byte	0x1
 15332 105f 57       		.byte	0x57
 15333 1060 00000000 		.4byte	0
 15334 1064 00000000 		.4byte	0
 15335              	.LLST72:
 15336 1068 E0010000 		.4byte	.LVL149
 15337 106c E6010000 		.4byte	.LVL151
 15338 1070 0900     		.2byte	0x9
 15339 1072 74       		.byte	0x74
 15340 1073 00       		.sleb128 0
 15341 1074 09       		.byte	0x9
 15342 1075 ED       		.byte	0xed
 15343 1076 24       		.byte	0x24
 15344 1077 09       		.byte	0x9
 15345 1078 F4       		.byte	0xf4
 15346 1079 25       		.byte	0x25
 15347 107a 9F       		.byte	0x9f
 15348 107b E6010000 		.4byte	.LVL151
 15349 107f EB010000 		.4byte	.LVL152-1
 15350 1083 0100     		.2byte	0x1
 15351 1085 51       		.byte	0x51
 15352 1086 EB010000 		.4byte	.LVL152-1
 15353 108a FE010000 		.4byte	.LVL157
 15354 108e 0900     		.2byte	0x9
 15355 1090 74       		.byte	0x74
 15356 1091 00       		.sleb128 0
 15357 1092 09       		.byte	0x9
 15358 1093 ED       		.byte	0xed
 15359 1094 24       		.byte	0x24
 15360 1095 09       		.byte	0x9
 15361 1096 F4       		.byte	0xf4
 15362 1097 25       		.byte	0x25
 15363 1098 9F       		.byte	0x9f
 15364 1099 00000000 		.4byte	0
 15365 109d 00000000 		.4byte	0
 15366              	.LLST73:
ARM GAS  C:\Users\164\AppData\Local\Temp\cc4PZf78.s 			page 316


 15367 10a1 EC010000 		.4byte	.LVL152
 15368 10a5 EF010000 		.4byte	.LVL153-1
 15369 10a9 0100     		.2byte	0x1
 15370 10ab 50       		.byte	0x50
 15371 10ac 00000000 		.4byte	0
 15372 10b0 00000000 		.4byte	0
 15373              	.LLST74:
 15374 10b4 F2010000 		.4byte	.LVL154
 15375 10b8 0E020000 		.4byte	.LVL159
 15376 10bc 0100     		.2byte	0x1
 15377 10be 58       		.byte	0x58
 15378 10bf 00000000 		.4byte	0
 15379 10c3 00000000 		.4byte	0
 15380              	.LLST75:
 15381 10c7 14020000 		.4byte	.LVL161
 15382 10cb 2C020000 		.4byte	.LVL168
 15383 10cf 0100     		.2byte	0x1
 15384 10d1 56       		.byte	0x56
 15385 10d2 00000000 		.4byte	0
 15386 10d6 00000000 		.4byte	0
 15387              	.LLST76:
 15388 10da 14020000 		.4byte	.LVL161
 15389 10de 28020000 		.4byte	.LVL167
 15390 10e2 0100     		.2byte	0x1
 15391 10e4 54       		.byte	0x54
 15392 10e5 00000000 		.4byte	0
 15393 10e9 00000000 		.4byte	0
 15394              	.LLST77:
 15395 10ed 14020000 		.4byte	.LVL161
 15396 10f1 42020000 		.4byte	.LVL169
 15397 10f5 0100     		.2byte	0x1
 15398 10f7 55       		.byte	0x55
 15399 10f8 00000000 		.4byte	0
 15400 10fc 00000000 		.4byte	0
 15401              	.LLST78:
 15402 1100 16020000 		.4byte	.LVL162
 15403 1104 44020000 		.4byte	.LVL170
 15404 1108 0100     		.2byte	0x1
 15405 110a 57       		.byte	0x57
 15406 110b 00000000 		.4byte	0
 15407 110f 00000000 		.4byte	0
 15408              	.LLST79:
 15409 1113 16020000 		.4byte	.LVL162
 15410 1117 1C020000 		.4byte	.LVL164
 15411 111b 0900     		.2byte	0x9
 15412 111d 74       		.byte	0x74
 15413 111e 00       		.sleb128 0
 15414 111f 09       		.byte	0x9
 15415 1120 ED       		.byte	0xed
 15416 1121 24       		.byte	0x24
 15417 1122 09       		.byte	0x9
 15418 1123 F4       		.byte	0xf4
 15419 1124 25       		.byte	0x25
 15420 1125 9F       		.byte	0x9f
 15421 1126 1C020000 		.4byte	.LVL164
 15422 112a 21020000 		.4byte	.LVL165-1
 15423 112e 0100     		.2byte	0x1
ARM GAS  C:\Users\164\AppData\Local\Temp\cc4PZf78.s 			page 317


 15424 1130 51       		.byte	0x51
 15425 1131 21020000 		.4byte	.LVL165-1
 15426 1135 28020000 		.4byte	.LVL167
 15427 1139 0900     		.2byte	0x9
 15428 113b 74       		.byte	0x74
 15429 113c 00       		.sleb128 0
 15430 113d 09       		.byte	0x9
 15431 113e ED       		.byte	0xed
 15432 113f 24       		.byte	0x24
 15433 1140 09       		.byte	0x9
 15434 1141 F4       		.byte	0xf4
 15435 1142 25       		.byte	0x25
 15436 1143 9F       		.byte	0x9f
 15437 1144 00000000 		.4byte	0
 15438 1148 00000000 		.4byte	0
 15439              	.LLST80:
 15440 114c 22020000 		.4byte	.LVL165
 15441 1150 25020000 		.4byte	.LVL166-1
 15442 1154 0100     		.2byte	0x1
 15443 1156 50       		.byte	0x50
 15444 1157 00000000 		.4byte	0
 15445 115b 00000000 		.4byte	0
 15446              	.LLST81:
 15447 115f 28020000 		.4byte	.LVL167
 15448 1163 42020000 		.4byte	.LVL169
 15449 1167 0100     		.2byte	0x1
 15450 1169 54       		.byte	0x54
 15451 116a 00000000 		.4byte	0
 15452 116e 00000000 		.4byte	0
 15453              	.LLST82:
 15454 1172 48020000 		.4byte	.LVL171
 15455 1176 6C020000 		.4byte	.LVL181
 15456 117a 0100     		.2byte	0x1
 15457 117c 56       		.byte	0x56
 15458 117d 00000000 		.4byte	0
 15459 1181 00000000 		.4byte	0
 15460              	.LLST83:
 15461 1185 48020000 		.4byte	.LVL171
 15462 1189 5E020000 		.4byte	.LVL178
 15463 118d 0100     		.2byte	0x1
 15464 118f 54       		.byte	0x54
 15465 1190 00000000 		.4byte	0
 15466 1194 00000000 		.4byte	0
 15467              	.LLST84:
 15468 1198 48020000 		.4byte	.LVL171
 15469 119c 7A020000 		.4byte	.LVL183
 15470 11a0 0100     		.2byte	0x1
 15471 11a2 55       		.byte	0x55
 15472 11a3 00000000 		.4byte	0
 15473 11a7 00000000 		.4byte	0
 15474              	.LLST85:
 15475 11ab 4A020000 		.4byte	.LVL172
 15476 11af 7C020000 		.4byte	.LVL184
 15477 11b3 0100     		.2byte	0x1
 15478 11b5 57       		.byte	0x57
 15479 11b6 00000000 		.4byte	0
 15480 11ba 00000000 		.4byte	0
ARM GAS  C:\Users\164\AppData\Local\Temp\cc4PZf78.s 			page 318


 15481              	.LLST86:
 15482 11be 4A020000 		.4byte	.LVL172
 15483 11c2 50020000 		.4byte	.LVL174
 15484 11c6 0900     		.2byte	0x9
 15485 11c8 74       		.byte	0x74
 15486 11c9 00       		.sleb128 0
 15487 11ca 09       		.byte	0x9
 15488 11cb ED       		.byte	0xed
 15489 11cc 24       		.byte	0x24
 15490 11cd 09       		.byte	0x9
 15491 11ce F4       		.byte	0xf4
 15492 11cf 25       		.byte	0x25
 15493 11d0 9F       		.byte	0x9f
 15494 11d1 50020000 		.4byte	.LVL174
 15495 11d5 55020000 		.4byte	.LVL175-1
 15496 11d9 0100     		.2byte	0x1
 15497 11db 51       		.byte	0x51
 15498 11dc 55020000 		.4byte	.LVL175-1
 15499 11e0 5E020000 		.4byte	.LVL178
 15500 11e4 0900     		.2byte	0x9
 15501 11e6 74       		.byte	0x74
 15502 11e7 00       		.sleb128 0
 15503 11e8 09       		.byte	0x9
 15504 11e9 ED       		.byte	0xed
 15505 11ea 24       		.byte	0x24
 15506 11eb 09       		.byte	0x9
 15507 11ec F4       		.byte	0xf4
 15508 11ed 25       		.byte	0x25
 15509 11ee 9F       		.byte	0x9f
 15510 11ef 00000000 		.4byte	0
 15511 11f3 00000000 		.4byte	0
 15512              	.LLST87:
 15513 11f7 56020000 		.4byte	.LVL175
 15514 11fb 58020000 		.4byte	.LVL176
 15515 11ff 0100     		.2byte	0x1
 15516 1201 50       		.byte	0x50
 15517 1202 58020000 		.4byte	.LVL176
 15518 1206 5B020000 		.4byte	.LVL177-1
 15519 120a 0300     		.2byte	0x3
 15520 120c 70       		.byte	0x70
 15521 120d 7F       		.sleb128 -1
 15522 120e 9F       		.byte	0x9f
 15523 120f 00000000 		.4byte	0
 15524 1213 00000000 		.4byte	0
 15525              	.LLST88:
 15526 1217 5C020000 		.4byte	.LVL177
 15527 121b 64020000 		.4byte	.LVL179
 15528 121f 0100     		.2byte	0x1
 15529 1221 50       		.byte	0x50
 15530 1222 00000000 		.4byte	0
 15531 1226 00000000 		.4byte	0
 15532              	.LLST89:
 15533 122a 80020000 		.4byte	.LVL185
 15534 122e A0020000 		.4byte	.LVL193
 15535 1232 0100     		.2byte	0x1
 15536 1234 56       		.byte	0x56
 15537 1235 00000000 		.4byte	0
ARM GAS  C:\Users\164\AppData\Local\Temp\cc4PZf78.s 			page 319


 15538 1239 00000000 		.4byte	0
 15539              	.LLST90:
 15540 123d 80020000 		.4byte	.LVL185
 15541 1241 A0020000 		.4byte	.LVL193
 15542 1245 0100     		.2byte	0x1
 15543 1247 54       		.byte	0x54
 15544 1248 00000000 		.4byte	0
 15545 124c 00000000 		.4byte	0
 15546              	.LLST91:
 15547 1250 80020000 		.4byte	.LVL185
 15548 1254 A0020000 		.4byte	.LVL193
 15549 1258 0100     		.2byte	0x1
 15550 125a 55       		.byte	0x55
 15551 125b 00000000 		.4byte	0
 15552 125f 00000000 		.4byte	0
 15553              	.LLST92:
 15554 1263 82020000 		.4byte	.LVL186
 15555 1267 A2020000 		.4byte	.LVL194
 15556 126b 0100     		.2byte	0x1
 15557 126d 57       		.byte	0x57
 15558 126e A2020000 		.4byte	.LVL194
 15559 1272 A6020000 		.4byte	.LVL195
 15560 1276 0500     		.2byte	0x5
 15561 1278 74       		.byte	0x74
 15562 1279 00       		.sleb128 0
 15563 127a 47       		.byte	0x47
 15564 127b 25       		.byte	0x25
 15565 127c 9F       		.byte	0x9f
 15566 127d 00000000 		.4byte	0
 15567 1281 00000000 		.4byte	0
 15568              	.LLST93:
 15569 1285 82020000 		.4byte	.LVL186
 15570 1289 88020000 		.4byte	.LVL188
 15571 128d 0900     		.2byte	0x9
 15572 128f 74       		.byte	0x74
 15573 1290 00       		.sleb128 0
 15574 1291 09       		.byte	0x9
 15575 1292 ED       		.byte	0xed
 15576 1293 24       		.byte	0x24
 15577 1294 09       		.byte	0x9
 15578 1295 F4       		.byte	0xf4
 15579 1296 25       		.byte	0x25
 15580 1297 9F       		.byte	0x9f
 15581 1298 88020000 		.4byte	.LVL188
 15582 129c 8D020000 		.4byte	.LVL189-1
 15583 12a0 0100     		.2byte	0x1
 15584 12a2 51       		.byte	0x51
 15585 12a3 8D020000 		.4byte	.LVL189-1
 15586 12a7 A0020000 		.4byte	.LVL193
 15587 12ab 0900     		.2byte	0x9
 15588 12ad 74       		.byte	0x74
 15589 12ae 00       		.sleb128 0
 15590 12af 09       		.byte	0x9
 15591 12b0 ED       		.byte	0xed
 15592 12b1 24       		.byte	0x24
 15593 12b2 09       		.byte	0x9
 15594 12b3 F4       		.byte	0xf4
ARM GAS  C:\Users\164\AppData\Local\Temp\cc4PZf78.s 			page 320


 15595 12b4 25       		.byte	0x25
 15596 12b5 9F       		.byte	0x9f
 15597 12b6 00000000 		.4byte	0
 15598 12ba 00000000 		.4byte	0
 15599              	.LLST94:
 15600 12be 8E020000 		.4byte	.LVL189
 15601 12c2 90020000 		.4byte	.LVL190
 15602 12c6 0100     		.2byte	0x1
 15603 12c8 50       		.byte	0x50
 15604 12c9 90020000 		.4byte	.LVL190
 15605 12cd 93020000 		.4byte	.LVL191-1
 15606 12d1 0300     		.2byte	0x3
 15607 12d3 70       		.byte	0x70
 15608 12d4 7F       		.sleb128 -1
 15609 12d5 9F       		.byte	0x9f
 15610 12d6 00000000 		.4byte	0
 15611 12da 00000000 		.4byte	0
 15612              	.LLST95:
 15613 12de 94020000 		.4byte	.LVL191
 15614 12e2 9C020000 		.4byte	.LVL192
 15615 12e6 0100     		.2byte	0x1
 15616 12e8 50       		.byte	0x50
 15617 12e9 00000000 		.4byte	0
 15618 12ed 00000000 		.4byte	0
 15619              	.LLST96:
 15620 12f1 A6020000 		.4byte	.LVL195
 15621 12f5 BE020000 		.4byte	.LVL202
 15622 12f9 0100     		.2byte	0x1
 15623 12fb 56       		.byte	0x56
 15624 12fc 00000000 		.4byte	0
 15625 1300 00000000 		.4byte	0
 15626              	.LLST97:
 15627 1304 A6020000 		.4byte	.LVL195
 15628 1308 C6020000 		.4byte	.LVL204
 15629 130c 0100     		.2byte	0x1
 15630 130e 54       		.byte	0x54
 15631 130f 00000000 		.4byte	0
 15632 1313 00000000 		.4byte	0
 15633              	.LLST98:
 15634 1317 A6020000 		.4byte	.LVL195
 15635 131b D6020000 		.4byte	.LVL206
 15636 131f 0100     		.2byte	0x1
 15637 1321 55       		.byte	0x55
 15638 1322 00000000 		.4byte	0
 15639 1326 00000000 		.4byte	0
 15640              	.LLST99:
 15641 132a A8020000 		.4byte	.LVL196
 15642 132e D8020000 		.4byte	.LVL207
 15643 1332 0100     		.2byte	0x1
 15644 1334 57       		.byte	0x57
 15645 1335 00000000 		.4byte	0
 15646 1339 00000000 		.4byte	0
 15647              	.LLST100:
 15648 133d A8020000 		.4byte	.LVL196
 15649 1341 AE020000 		.4byte	.LVL198
 15650 1345 0900     		.2byte	0x9
 15651 1347 74       		.byte	0x74
ARM GAS  C:\Users\164\AppData\Local\Temp\cc4PZf78.s 			page 321


 15652 1348 00       		.sleb128 0
 15653 1349 09       		.byte	0x9
 15654 134a ED       		.byte	0xed
 15655 134b 24       		.byte	0x24
 15656 134c 09       		.byte	0x9
 15657 134d F4       		.byte	0xf4
 15658 134e 25       		.byte	0x25
 15659 134f 9F       		.byte	0x9f
 15660 1350 AE020000 		.4byte	.LVL198
 15661 1354 B3020000 		.4byte	.LVL199-1
 15662 1358 0100     		.2byte	0x1
 15663 135a 51       		.byte	0x51
 15664 135b B3020000 		.4byte	.LVL199-1
 15665 135f C6020000 		.4byte	.LVL204
 15666 1363 0900     		.2byte	0x9
 15667 1365 74       		.byte	0x74
 15668 1366 00       		.sleb128 0
 15669 1367 09       		.byte	0x9
 15670 1368 ED       		.byte	0xed
 15671 1369 24       		.byte	0x24
 15672 136a 09       		.byte	0x9
 15673 136b F4       		.byte	0xf4
 15674 136c 25       		.byte	0x25
 15675 136d 9F       		.byte	0x9f
 15676 136e 00000000 		.4byte	0
 15677 1372 00000000 		.4byte	0
 15678              	.LLST101:
 15679 1376 B4020000 		.4byte	.LVL199
 15680 137a B7020000 		.4byte	.LVL200-1
 15681 137e 0100     		.2byte	0x1
 15682 1380 50       		.byte	0x50
 15683 1381 00000000 		.4byte	0
 15684 1385 00000000 		.4byte	0
 15685              	.LLST102:
 15686 1389 BA020000 		.4byte	.LVL201
 15687 138d D6020000 		.4byte	.LVL206
 15688 1391 0100     		.2byte	0x1
 15689 1393 58       		.byte	0x58
 15690 1394 00000000 		.4byte	0
 15691 1398 00000000 		.4byte	0
 15692              	.LLST103:
 15693 139c DC020000 		.4byte	.LVL208
 15694 13a0 F6020000 		.4byte	.LVL214
 15695 13a4 0100     		.2byte	0x1
 15696 13a6 56       		.byte	0x56
 15697 13a7 00000000 		.4byte	0
 15698 13ab 00000000 		.4byte	0
 15699              	.LLST104:
 15700 13af DC020000 		.4byte	.LVL208
 15701 13b3 F6020000 		.4byte	.LVL214
 15702 13b7 0100     		.2byte	0x1
 15703 13b9 54       		.byte	0x54
 15704 13ba 00000000 		.4byte	0
 15705 13be 00000000 		.4byte	0
 15706              	.LLST105:
 15707 13c2 DC020000 		.4byte	.LVL208
 15708 13c6 F6020000 		.4byte	.LVL214
ARM GAS  C:\Users\164\AppData\Local\Temp\cc4PZf78.s 			page 322


 15709 13ca 0100     		.2byte	0x1
 15710 13cc 55       		.byte	0x55
 15711 13cd 00000000 		.4byte	0
 15712 13d1 00000000 		.4byte	0
 15713              	.LLST106:
 15714 13d5 DE020000 		.4byte	.LVL209
 15715 13d9 F8020000 		.4byte	.LVL215
 15716 13dd 0100     		.2byte	0x1
 15717 13df 57       		.byte	0x57
 15718 13e0 F8020000 		.4byte	.LVL215
 15719 13e4 FC020000 		.4byte	.LVL216
 15720 13e8 0500     		.2byte	0x5
 15721 13ea 74       		.byte	0x74
 15722 13eb 00       		.sleb128 0
 15723 13ec 47       		.byte	0x47
 15724 13ed 25       		.byte	0x25
 15725 13ee 9F       		.byte	0x9f
 15726 13ef 00000000 		.4byte	0
 15727 13f3 00000000 		.4byte	0
 15728              	.LLST107:
 15729 13f7 DE020000 		.4byte	.LVL209
 15730 13fb E4020000 		.4byte	.LVL211
 15731 13ff 0900     		.2byte	0x9
 15732 1401 74       		.byte	0x74
 15733 1402 00       		.sleb128 0
 15734 1403 09       		.byte	0x9
 15735 1404 ED       		.byte	0xed
 15736 1405 24       		.byte	0x24
 15737 1406 09       		.byte	0x9
 15738 1407 F4       		.byte	0xf4
 15739 1408 25       		.byte	0x25
 15740 1409 9F       		.byte	0x9f
 15741 140a E4020000 		.4byte	.LVL211
 15742 140e E9020000 		.4byte	.LVL212-1
 15743 1412 0100     		.2byte	0x1
 15744 1414 51       		.byte	0x51
 15745 1415 E9020000 		.4byte	.LVL212-1
 15746 1419 F6020000 		.4byte	.LVL214
 15747 141d 0900     		.2byte	0x9
 15748 141f 74       		.byte	0x74
 15749 1420 00       		.sleb128 0
 15750 1421 09       		.byte	0x9
 15751 1422 ED       		.byte	0xed
 15752 1423 24       		.byte	0x24
 15753 1424 09       		.byte	0x9
 15754 1425 F4       		.byte	0xf4
 15755 1426 25       		.byte	0x25
 15756 1427 9F       		.byte	0x9f
 15757 1428 00000000 		.4byte	0
 15758 142c 00000000 		.4byte	0
 15759              	.LLST108:
 15760 1430 EA020000 		.4byte	.LVL212
 15761 1434 ED020000 		.4byte	.LVL213-1
 15762 1438 0100     		.2byte	0x1
 15763 143a 50       		.byte	0x50
 15764 143b 00000000 		.4byte	0
 15765 143f 00000000 		.4byte	0
ARM GAS  C:\Users\164\AppData\Local\Temp\cc4PZf78.s 			page 323


 15766              	.LLST109:
 15767 1443 EE020000 		.4byte	.LVL213
 15768 1447 F5020000 		.4byte	.LVL214-1
 15769 144b 0100     		.2byte	0x1
 15770 144d 50       		.byte	0x50
 15771 144e 00000000 		.4byte	0
 15772 1452 00000000 		.4byte	0
 15773              	.LLST110:
 15774 1456 FC020000 		.4byte	.LVL216
 15775 145a 20030000 		.4byte	.LVL224
 15776 145e 0100     		.2byte	0x1
 15777 1460 56       		.byte	0x56
 15778 1461 20030000 		.4byte	.LVL224
 15779 1465 25030000 		.4byte	.LVL226-1
 15780 1469 0300     		.2byte	0x3
 15781 146b 75       		.byte	0x75
 15782 146c D80C     		.sleb128 1624
 15783 146e 00000000 		.4byte	0
 15784 1472 00000000 		.4byte	0
 15785              	.LLST111:
 15786 1476 FC020000 		.4byte	.LVL216
 15787 147a 06030000 		.4byte	.LVL219
 15788 147e 0100     		.2byte	0x1
 15789 1480 54       		.byte	0x54
 15790 1481 00000000 		.4byte	0
 15791 1485 00000000 		.4byte	0
 15792              	.LLST112:
 15793 1489 FC020000 		.4byte	.LVL216
 15794 148d 38030000 		.4byte	.LVL229
 15795 1491 0100     		.2byte	0x1
 15796 1493 55       		.byte	0x55
 15797 1494 00000000 		.4byte	0
 15798 1498 00000000 		.4byte	0
 15799              	.LLST113:
 15800 149c FE020000 		.4byte	.LVL217
 15801 14a0 22030000 		.4byte	.LVL225
 15802 14a4 0100     		.2byte	0x1
 15803 14a6 50       		.byte	0x50
 15804 14a7 00000000 		.4byte	0
 15805 14ab 00000000 		.4byte	0
 15806              	.LLST114:
 15807 14af 02030000 		.4byte	.LVL218
 15808 14b3 2A030000 		.4byte	.LVL227
 15809 14b7 0100     		.2byte	0x1
 15810 14b9 57       		.byte	0x57
 15811 14ba 00000000 		.4byte	0
 15812 14be 00000000 		.4byte	0
 15813              	.LLST115:
 15814 14c2 06030000 		.4byte	.LVL219
 15815 14c6 10030000 		.4byte	.LVL221
 15816 14ca 0100     		.2byte	0x1
 15817 14cc 54       		.byte	0x54
 15818 14cd 00000000 		.4byte	0
 15819 14d1 00000000 		.4byte	0
 15820              	.LLST116:
 15821 14d5 1A030000 		.4byte	.LVL222
 15822 14d9 25030000 		.4byte	.LVL226-1
ARM GAS  C:\Users\164\AppData\Local\Temp\cc4PZf78.s 			page 324


 15823 14dd 0100     		.2byte	0x1
 15824 14df 53       		.byte	0x53
 15825 14e0 00000000 		.4byte	0
 15826 14e4 00000000 		.4byte	0
 15827              	.LLST117:
 15828 14e8 1C030000 		.4byte	.LVL223
 15829 14ec 38030000 		.4byte	.LVL229
 15830 14f0 0100     		.2byte	0x1
 15831 14f2 54       		.byte	0x54
 15832 14f3 00000000 		.4byte	0
 15833 14f7 00000000 		.4byte	0
 15834              	.LLST118:
 15835 14fb 3E030000 		.4byte	.LVL230
 15836 14ff 6C030000 		.4byte	.LVL240
 15837 1503 0100     		.2byte	0x1
 15838 1505 56       		.byte	0x56
 15839 1506 00000000 		.4byte	0
 15840 150a 00000000 		.4byte	0
 15841              	.LLST119:
 15842 150e 3E030000 		.4byte	.LVL230
 15843 1512 48030000 		.4byte	.LVL233
 15844 1516 0100     		.2byte	0x1
 15845 1518 54       		.byte	0x54
 15846 1519 00000000 		.4byte	0
 15847 151d 00000000 		.4byte	0
 15848              	.LLST120:
 15849 1521 3E030000 		.4byte	.LVL230
 15850 1525 7A030000 		.4byte	.LVL242
 15851 1529 0100     		.2byte	0x1
 15852 152b 55       		.byte	0x55
 15853 152c 00000000 		.4byte	0
 15854 1530 00000000 		.4byte	0
 15855              	.LLST121:
 15856 1534 40030000 		.4byte	.LVL231
 15857 1538 7C030000 		.4byte	.LVL243
 15858 153c 0100     		.2byte	0x1
 15859 153e 57       		.byte	0x57
 15860 153f 00000000 		.4byte	0
 15861 1543 00000000 		.4byte	0
 15862              	.LLST122:
 15863 1547 44030000 		.4byte	.LVL232
 15864 154b 64030000 		.4byte	.LVL238
 15865 154f 0100     		.2byte	0x1
 15866 1551 50       		.byte	0x50
 15867 1552 00000000 		.4byte	0
 15868 1556 00000000 		.4byte	0
 15869              	.LLST123:
 15870 155a 48030000 		.4byte	.LVL233
 15871 155e 52030000 		.4byte	.LVL235
 15872 1562 0100     		.2byte	0x1
 15873 1564 54       		.byte	0x54
 15874 1565 00000000 		.4byte	0
 15875 1569 00000000 		.4byte	0
 15876              	.LLST124:
 15877 156d 5C030000 		.4byte	.LVL236
 15878 1571 5E030000 		.4byte	.LVL237
 15879 1575 0100     		.2byte	0x1
ARM GAS  C:\Users\164\AppData\Local\Temp\cc4PZf78.s 			page 325


 15880 1577 53       		.byte	0x53
 15881 1578 5E030000 		.4byte	.LVL237
 15882 157c 67030000 		.4byte	.LVL239-1
 15883 1580 0900     		.2byte	0x9
 15884 1582 75       		.byte	0x75
 15885 1583 00       		.sleb128 0
 15886 1584 72       		.byte	0x72
 15887 1585 00       		.sleb128 0
 15888 1586 22       		.byte	0x22
 15889 1587 23       		.byte	0x23
 15890 1588 E00C     		.uleb128 0x660
 15891 158a 9F       		.byte	0x9f
 15892 158b 00000000 		.4byte	0
 15893 158f 00000000 		.4byte	0
 15894              	.LLST125:
 15895 1593 5E030000 		.4byte	.LVL237
 15896 1597 67030000 		.4byte	.LVL239-1
 15897 159b 0100     		.2byte	0x1
 15898 159d 53       		.byte	0x53
 15899 159e 00000000 		.4byte	0
 15900 15a2 00000000 		.4byte	0
 15901              	.LLST126:
 15902 15a6 80030000 		.4byte	.LVL244
 15903 15aa 8A030000 		.4byte	.LVL245
 15904 15ae 0100     		.2byte	0x1
 15905 15b0 56       		.byte	0x56
 15906 15b1 00000000 		.4byte	0
 15907 15b5 00000000 		.4byte	0
 15908              	.LLST127:
 15909 15b9 80030000 		.4byte	.LVL244
 15910 15bd 8A030000 		.4byte	.LVL245
 15911 15c1 0100     		.2byte	0x1
 15912 15c3 54       		.byte	0x54
 15913 15c4 00000000 		.4byte	0
 15914 15c8 00000000 		.4byte	0
 15915              	.LLST128:
 15916 15cc 80030000 		.4byte	.LVL244
 15917 15d0 8A030000 		.4byte	.LVL245
 15918 15d4 0100     		.2byte	0x1
 15919 15d6 55       		.byte	0x55
 15920 15d7 00000000 		.4byte	0
 15921 15db 00000000 		.4byte	0
 15922              	.LLST129:
 15923 15df 90030000 		.4byte	.LVL246
 15924 15e3 AC030000 		.4byte	.LVL249
 15925 15e7 0100     		.2byte	0x1
 15926 15e9 56       		.byte	0x56
 15927 15ea DA150000 		.4byte	.LVL859
 15928 15ee DE150000 		.4byte	.LVL861
 15929 15f2 0100     		.2byte	0x1
 15930 15f4 56       		.byte	0x56
 15931 15f5 00000000 		.4byte	0
 15932 15f9 00000000 		.4byte	0
 15933              	.LLST130:
 15934 15fd 90030000 		.4byte	.LVL246
 15935 1601 AC030000 		.4byte	.LVL249
 15936 1605 0100     		.2byte	0x1
ARM GAS  C:\Users\164\AppData\Local\Temp\cc4PZf78.s 			page 326


 15937 1607 54       		.byte	0x54
 15938 1608 DA150000 		.4byte	.LVL859
 15939 160c DE150000 		.4byte	.LVL861
 15940 1610 0100     		.2byte	0x1
 15941 1612 54       		.byte	0x54
 15942 1613 00000000 		.4byte	0
 15943 1617 00000000 		.4byte	0
 15944              	.LLST131:
 15945 161b 90030000 		.4byte	.LVL246
 15946 161f AC030000 		.4byte	.LVL249
 15947 1623 0100     		.2byte	0x1
 15948 1625 55       		.byte	0x55
 15949 1626 DA150000 		.4byte	.LVL859
 15950 162a DE150000 		.4byte	.LVL861
 15951 162e 0100     		.2byte	0x1
 15952 1630 55       		.byte	0x55
 15953 1631 00000000 		.4byte	0
 15954 1635 00000000 		.4byte	0
 15955              	.LLST132:
 15956 1639 AC030000 		.4byte	.LVL249
 15957 163d C8030000 		.4byte	.LVL252
 15958 1641 0100     		.2byte	0x1
 15959 1643 56       		.byte	0x56
 15960 1644 DE150000 		.4byte	.LVL861
 15961 1648 E2150000 		.4byte	.LVL863
 15962 164c 0100     		.2byte	0x1
 15963 164e 56       		.byte	0x56
 15964 164f 00000000 		.4byte	0
 15965 1653 00000000 		.4byte	0
 15966              	.LLST133:
 15967 1657 AC030000 		.4byte	.LVL249
 15968 165b C8030000 		.4byte	.LVL252
 15969 165f 0100     		.2byte	0x1
 15970 1661 54       		.byte	0x54
 15971 1662 DE150000 		.4byte	.LVL861
 15972 1666 E2150000 		.4byte	.LVL863
 15973 166a 0100     		.2byte	0x1
 15974 166c 54       		.byte	0x54
 15975 166d 00000000 		.4byte	0
 15976 1671 00000000 		.4byte	0
 15977              	.LLST134:
 15978 1675 AC030000 		.4byte	.LVL249
 15979 1679 C8030000 		.4byte	.LVL252
 15980 167d 0100     		.2byte	0x1
 15981 167f 55       		.byte	0x55
 15982 1680 DE150000 		.4byte	.LVL861
 15983 1684 E2150000 		.4byte	.LVL863
 15984 1688 0100     		.2byte	0x1
 15985 168a 55       		.byte	0x55
 15986 168b 00000000 		.4byte	0
 15987 168f 00000000 		.4byte	0
 15988              	.LLST135:
 15989 1693 C8030000 		.4byte	.LVL252
 15990 1697 1E040000 		.4byte	.LVL262
 15991 169b 0100     		.2byte	0x1
 15992 169d 56       		.byte	0x56
 15993 169e 00000000 		.4byte	0
ARM GAS  C:\Users\164\AppData\Local\Temp\cc4PZf78.s 			page 327


 15994 16a2 00000000 		.4byte	0
 15995              	.LLST136:
 15996 16a6 C8030000 		.4byte	.LVL252
 15997 16aa EE030000 		.4byte	.LVL259
 15998 16ae 0100     		.2byte	0x1
 15999 16b0 54       		.byte	0x54
 16000 16b1 00000000 		.4byte	0
 16001 16b5 00000000 		.4byte	0
 16002              	.LLST137:
 16003 16b9 C8030000 		.4byte	.LVL252
 16004 16bd 82040000 		.4byte	.LVL276
 16005 16c1 0100     		.2byte	0x1
 16006 16c3 55       		.byte	0x55
 16007 16c4 00000000 		.4byte	0
 16008 16c8 00000000 		.4byte	0
 16009              	.LLST138:
 16010 16cc CA030000 		.4byte	.LVL253
 16011 16d0 E8030000 		.4byte	.LVL257
 16012 16d4 0100     		.2byte	0x1
 16013 16d6 57       		.byte	0x57
 16014 16d7 E8030000 		.4byte	.LVL257
 16015 16db EE030000 		.4byte	.LVL259
 16016 16df 0500     		.2byte	0x5
 16017 16e1 74       		.byte	0x74
 16018 16e2 00       		.sleb128 0
 16019 16e3 47       		.byte	0x47
 16020 16e4 25       		.byte	0x25
 16021 16e5 9F       		.byte	0x9f
 16022 16e6 00000000 		.4byte	0
 16023 16ea 00000000 		.4byte	0
 16024              	.LLST139:
 16025 16ee CE030000 		.4byte	.LVL254
 16026 16f2 82040000 		.4byte	.LVL276
 16027 16f6 0100     		.2byte	0x1
 16028 16f8 5B       		.byte	0x5b
 16029 16f9 00000000 		.4byte	0
 16030 16fd 00000000 		.4byte	0
 16031              	.LLST140:
 16032 1701 D2030000 		.4byte	.LVL255
 16033 1705 82040000 		.4byte	.LVL276
 16034 1709 0100     		.2byte	0x1
 16035 170b 5A       		.byte	0x5a
 16036 170c 00000000 		.4byte	0
 16037 1710 00000000 		.4byte	0
 16038              	.LLST141:
 16039 1714 EA030000 		.4byte	.LVL258
 16040 1718 82040000 		.4byte	.LVL276
 16041 171c 0100     		.2byte	0x1
 16042 171e 57       		.byte	0x57
 16043 171f 00000000 		.4byte	0
 16044 1723 00000000 		.4byte	0
 16045              	.LLST142:
 16046 1727 1E040000 		.4byte	.LVL262
 16047 172b 21040000 		.4byte	.LVL263-1
 16048 172f 0100     		.2byte	0x1
 16049 1731 50       		.byte	0x50
 16050 1732 21040000 		.4byte	.LVL263-1
ARM GAS  C:\Users\164\AppData\Local\Temp\cc4PZf78.s 			page 328


 16051 1736 82040000 		.4byte	.LVL276
 16052 173a 0100     		.2byte	0x1
 16053 173c 56       		.byte	0x56
 16054 173d 00000000 		.4byte	0
 16055 1741 00000000 		.4byte	0
 16056              	.LLST143:
 16057 1745 22040000 		.4byte	.LVL263
 16058 1749 2A040000 		.4byte	.LVL264
 16059 174d 0100     		.2byte	0x1
 16060 174f 50       		.byte	0x50
 16061 1750 00000000 		.4byte	0
 16062 1754 00000000 		.4byte	0
 16063              	.LLST144:
 16064 1758 38040000 		.4byte	.LVL265
 16065 175c 44040000 		.4byte	.LVL266
 16066 1760 0100     		.2byte	0x1
 16067 1762 50       		.byte	0x50
 16068 1763 44040000 		.4byte	.LVL266
 16069 1767 4A040000 		.4byte	.LVL268
 16070 176b 0100     		.2byte	0x1
 16071 176d 54       		.byte	0x54
 16072 176e 4A040000 		.4byte	.LVL268
 16073 1772 5A040000 		.4byte	.LVL269
 16074 1776 0100     		.2byte	0x1
 16075 1778 50       		.byte	0x50
 16076 1779 5A040000 		.4byte	.LVL269
 16077 177d 68040000 		.4byte	.LVL273
 16078 1781 0100     		.2byte	0x1
 16079 1783 54       		.byte	0x54
 16080 1784 68040000 		.4byte	.LVL273
 16081 1788 6C040000 		.4byte	.LVL274
 16082 178c 0100     		.2byte	0x1
 16083 178e 50       		.byte	0x50
 16084 178f 6C040000 		.4byte	.LVL274
 16085 1793 82040000 		.4byte	.LVL276
 16086 1797 0100     		.2byte	0x1
 16087 1799 54       		.byte	0x54
 16088 179a 00000000 		.4byte	0
 16089 179e 00000000 		.4byte	0
 16090              	.LLST145:
 16091 17a2 5C040000 		.4byte	.LVL270
 16092 17a6 60040000 		.4byte	.LVL271
 16093 17aa 0100     		.2byte	0x1
 16094 17ac 57       		.byte	0x57
 16095 17ad 60040000 		.4byte	.LVL271
 16096 17b1 68040000 		.4byte	.LVL273
 16097 17b5 0100     		.2byte	0x1
 16098 17b7 53       		.byte	0x53
 16099 17b8 00000000 		.4byte	0
 16100 17bc 00000000 		.4byte	0
 16101              	.LLST146:
 16102 17c0 88040000 		.4byte	.LVL277
 16103 17c4 DE040000 		.4byte	.LVL287
 16104 17c8 0100     		.2byte	0x1
 16105 17ca 56       		.byte	0x56
 16106 17cb 00000000 		.4byte	0
 16107 17cf 00000000 		.4byte	0
ARM GAS  C:\Users\164\AppData\Local\Temp\cc4PZf78.s 			page 329


 16108              	.LLST147:
 16109 17d3 88040000 		.4byte	.LVL277
 16110 17d7 AE040000 		.4byte	.LVL284
 16111 17db 0100     		.2byte	0x1
 16112 17dd 54       		.byte	0x54
 16113 17de 00000000 		.4byte	0
 16114 17e2 00000000 		.4byte	0
 16115              	.LLST148:
 16116 17e6 88040000 		.4byte	.LVL277
 16117 17ea 42050000 		.4byte	.LVL301
 16118 17ee 0100     		.2byte	0x1
 16119 17f0 55       		.byte	0x55
 16120 17f1 00000000 		.4byte	0
 16121 17f5 00000000 		.4byte	0
 16122              	.LLST149:
 16123 17f9 8A040000 		.4byte	.LVL278
 16124 17fd A8040000 		.4byte	.LVL282
 16125 1801 0100     		.2byte	0x1
 16126 1803 57       		.byte	0x57
 16127 1804 A8040000 		.4byte	.LVL282
 16128 1808 AE040000 		.4byte	.LVL284
 16129 180c 0500     		.2byte	0x5
 16130 180e 74       		.byte	0x74
 16131 180f 00       		.sleb128 0
 16132 1810 47       		.byte	0x47
 16133 1811 25       		.byte	0x25
 16134 1812 9F       		.byte	0x9f
 16135 1813 00000000 		.4byte	0
 16136 1817 00000000 		.4byte	0
 16137              	.LLST150:
 16138 181b 8E040000 		.4byte	.LVL279
 16139 181f 42050000 		.4byte	.LVL301
 16140 1823 0100     		.2byte	0x1
 16141 1825 5B       		.byte	0x5b
 16142 1826 00000000 		.4byte	0
 16143 182a 00000000 		.4byte	0
 16144              	.LLST151:
 16145 182e 92040000 		.4byte	.LVL280
 16146 1832 42050000 		.4byte	.LVL301
 16147 1836 0100     		.2byte	0x1
 16148 1838 5A       		.byte	0x5a
 16149 1839 00000000 		.4byte	0
 16150 183d 00000000 		.4byte	0
 16151              	.LLST152:
 16152 1841 AA040000 		.4byte	.LVL283
 16153 1845 42050000 		.4byte	.LVL301
 16154 1849 0100     		.2byte	0x1
 16155 184b 57       		.byte	0x57
 16156 184c 00000000 		.4byte	0
 16157 1850 00000000 		.4byte	0
 16158              	.LLST153:
 16159 1854 DE040000 		.4byte	.LVL287
 16160 1858 E1040000 		.4byte	.LVL288-1
 16161 185c 0100     		.2byte	0x1
 16162 185e 50       		.byte	0x50
 16163 185f E1040000 		.4byte	.LVL288-1
 16164 1863 42050000 		.4byte	.LVL301
ARM GAS  C:\Users\164\AppData\Local\Temp\cc4PZf78.s 			page 330


 16165 1867 0100     		.2byte	0x1
 16166 1869 56       		.byte	0x56
 16167 186a 00000000 		.4byte	0
 16168 186e 00000000 		.4byte	0
 16169              	.LLST154:
 16170 1872 E2040000 		.4byte	.LVL288
 16171 1876 EA040000 		.4byte	.LVL289
 16172 187a 0100     		.2byte	0x1
 16173 187c 50       		.byte	0x50
 16174 187d 00000000 		.4byte	0
 16175 1881 00000000 		.4byte	0
 16176              	.LLST155:
 16177 1885 F8040000 		.4byte	.LVL290
 16178 1889 04050000 		.4byte	.LVL291
 16179 188d 0100     		.2byte	0x1
 16180 188f 50       		.byte	0x50
 16181 1890 04050000 		.4byte	.LVL291
 16182 1894 0A050000 		.4byte	.LVL293
 16183 1898 0100     		.2byte	0x1
 16184 189a 54       		.byte	0x54
 16185 189b 0A050000 		.4byte	.LVL293
 16186 189f 1A050000 		.4byte	.LVL294
 16187 18a3 0100     		.2byte	0x1
 16188 18a5 50       		.byte	0x50
 16189 18a6 1A050000 		.4byte	.LVL294
 16190 18aa 28050000 		.4byte	.LVL298
 16191 18ae 0100     		.2byte	0x1
 16192 18b0 54       		.byte	0x54
 16193 18b1 28050000 		.4byte	.LVL298
 16194 18b5 2C050000 		.4byte	.LVL299
 16195 18b9 0100     		.2byte	0x1
 16196 18bb 50       		.byte	0x50
 16197 18bc 2C050000 		.4byte	.LVL299
 16198 18c0 42050000 		.4byte	.LVL301
 16199 18c4 0100     		.2byte	0x1
 16200 18c6 54       		.byte	0x54
 16201 18c7 00000000 		.4byte	0
 16202 18cb 00000000 		.4byte	0
 16203              	.LLST156:
 16204 18cf 1C050000 		.4byte	.LVL295
 16205 18d3 20050000 		.4byte	.LVL296
 16206 18d7 0100     		.2byte	0x1
 16207 18d9 57       		.byte	0x57
 16208 18da 20050000 		.4byte	.LVL296
 16209 18de 28050000 		.4byte	.LVL298
 16210 18e2 0100     		.2byte	0x1
 16211 18e4 53       		.byte	0x53
 16212 18e5 00000000 		.4byte	0
 16213 18e9 00000000 		.4byte	0
 16214              	.LLST157:
 16215 18ed 48050000 		.4byte	.LVL302
 16216 18f1 5A050000 		.4byte	.LVL305
 16217 18f5 0100     		.2byte	0x1
 16218 18f7 56       		.byte	0x56
 16219 18f8 00000000 		.4byte	0
 16220 18fc 00000000 		.4byte	0
 16221              	.LLST158:
ARM GAS  C:\Users\164\AppData\Local\Temp\cc4PZf78.s 			page 331


 16222 1900 48050000 		.4byte	.LVL302
 16223 1904 5A050000 		.4byte	.LVL305
 16224 1908 0100     		.2byte	0x1
 16225 190a 54       		.byte	0x54
 16226 190b 00000000 		.4byte	0
 16227 190f 00000000 		.4byte	0
 16228              	.LLST159:
 16229 1913 48050000 		.4byte	.LVL302
 16230 1917 5A050000 		.4byte	.LVL305
 16231 191b 0100     		.2byte	0x1
 16232 191d 55       		.byte	0x55
 16233 191e 00000000 		.4byte	0
 16234 1922 00000000 		.4byte	0
 16235              	.LLST160:
 16236 1926 5E050000 		.4byte	.LVL306
 16237 192a 8A050000 		.4byte	.LVL312
 16238 192e 0100     		.2byte	0x1
 16239 1930 56       		.byte	0x56
 16240 1931 E2150000 		.4byte	.LVL863
 16241 1935 E4150000 		.4byte	.LVL864
 16242 1939 0100     		.2byte	0x1
 16243 193b 56       		.byte	0x56
 16244 193c 00000000 		.4byte	0
 16245 1940 00000000 		.4byte	0
 16246              	.LLST161:
 16247 1944 5E050000 		.4byte	.LVL306
 16248 1948 8A050000 		.4byte	.LVL312
 16249 194c 0100     		.2byte	0x1
 16250 194e 54       		.byte	0x54
 16251 194f E2150000 		.4byte	.LVL863
 16252 1953 E4150000 		.4byte	.LVL864
 16253 1957 0100     		.2byte	0x1
 16254 1959 54       		.byte	0x54
 16255 195a 00000000 		.4byte	0
 16256 195e 00000000 		.4byte	0
 16257              	.LLST162:
 16258 1962 5E050000 		.4byte	.LVL306
 16259 1966 8A050000 		.4byte	.LVL312
 16260 196a 0100     		.2byte	0x1
 16261 196c 55       		.byte	0x55
 16262 196d E2150000 		.4byte	.LVL863
 16263 1971 E4150000 		.4byte	.LVL864
 16264 1975 0100     		.2byte	0x1
 16265 1977 55       		.byte	0x55
 16266 1978 00000000 		.4byte	0
 16267 197c 00000000 		.4byte	0
 16268              	.LLST163:
 16269 1980 70050000 		.4byte	.LVL308
 16270 1984 7E050000 		.4byte	.LVL310
 16271 1988 0100     		.2byte	0x1
 16272 198a 53       		.byte	0x53
 16273 198b 7E050000 		.4byte	.LVL310
 16274 198f 8A050000 		.4byte	.LVL312
 16275 1993 1400     		.2byte	0x14
 16276 1995 75       		.byte	0x75
 16277 1996 DC0C     		.sleb128 1628
 16278 1998 94       		.byte	0x94
ARM GAS  C:\Users\164\AppData\Local\Temp\cc4PZf78.s 			page 332


 16279 1999 02       		.byte	0x2
 16280 199a 0A       		.byte	0xa
 16281 199b FFFF     		.2byte	0xffff
 16282 199d 1A       		.byte	0x1a
 16283 199e 35       		.byte	0x35
 16284 199f 1E       		.byte	0x1e
 16285 19a0 32       		.byte	0x32
 16286 19a1 24       		.byte	0x24
 16287 19a2 75       		.byte	0x75
 16288 19a3 00       		.sleb128 0
 16289 19a4 22       		.byte	0x22
 16290 19a5 23       		.byte	0x23
 16291 19a6 CC0C     		.uleb128 0x64c
 16292 19a8 9F       		.byte	0x9f
 16293 19a9 E2150000 		.4byte	.LVL863
 16294 19ad E4150000 		.4byte	.LVL864
 16295 19b1 0100     		.2byte	0x1
 16296 19b3 53       		.byte	0x53
 16297 19b4 00000000 		.4byte	0
 16298 19b8 00000000 		.4byte	0
 16299              	.LLST164:
 16300 19bc 70050000 		.4byte	.LVL308
 16301 19c0 8A050000 		.4byte	.LVL312
 16302 19c4 0500     		.2byte	0x5
 16303 19c6 74       		.byte	0x74
 16304 19c7 00       		.sleb128 0
 16305 19c8 37       		.byte	0x37
 16306 19c9 25       		.byte	0x25
 16307 19ca 9F       		.byte	0x9f
 16308 19cb E2150000 		.4byte	.LVL863
 16309 19cf E4150000 		.4byte	.LVL864
 16310 19d3 0500     		.2byte	0x5
 16311 19d5 74       		.byte	0x74
 16312 19d6 00       		.sleb128 0
 16313 19d7 37       		.byte	0x37
 16314 19d8 25       		.byte	0x25
 16315 19d9 9F       		.byte	0x9f
 16316 19da 00000000 		.4byte	0
 16317 19de 00000000 		.4byte	0
 16318              	.LLST165:
 16319 19e2 70050000 		.4byte	.LVL308
 16320 19e6 8A050000 		.4byte	.LVL312
 16321 19ea 0900     		.2byte	0x9
 16322 19ec 74       		.byte	0x74
 16323 19ed 00       		.sleb128 0
 16324 19ee 09       		.byte	0x9
 16325 19ef EB       		.byte	0xeb
 16326 19f0 24       		.byte	0x24
 16327 19f1 09       		.byte	0x9
 16328 19f2 FF       		.byte	0xff
 16329 19f3 25       		.byte	0x25
 16330 19f4 9F       		.byte	0x9f
 16331 19f5 E2150000 		.4byte	.LVL863
 16332 19f9 E4150000 		.4byte	.LVL864
 16333 19fd 0900     		.2byte	0x9
 16334 19ff 74       		.byte	0x74
 16335 1a00 00       		.sleb128 0
ARM GAS  C:\Users\164\AppData\Local\Temp\cc4PZf78.s 			page 333


 16336 1a01 09       		.byte	0x9
 16337 1a02 EB       		.byte	0xeb
 16338 1a03 24       		.byte	0x24
 16339 1a04 09       		.byte	0x9
 16340 1a05 FF       		.byte	0xff
 16341 1a06 25       		.byte	0x25
 16342 1a07 9F       		.byte	0x9f
 16343 1a08 00000000 		.4byte	0
 16344 1a0c 00000000 		.4byte	0
 16345              	.LLST166:
 16346 1a10 74050000 		.4byte	.LVL309
 16347 1a14 8A050000 		.4byte	.LVL312
 16348 1a18 0100     		.2byte	0x1
 16349 1a1a 51       		.byte	0x51
 16350 1a1b E2150000 		.4byte	.LVL863
 16351 1a1f E4150000 		.4byte	.LVL864
 16352 1a23 0100     		.2byte	0x1
 16353 1a25 51       		.byte	0x51
 16354 1a26 00000000 		.4byte	0
 16355 1a2a 00000000 		.4byte	0
 16356              	.LLST167:
 16357 1a2e 8A050000 		.4byte	.LVL312
 16358 1a32 DC050000 		.4byte	.LVL321
 16359 1a36 0100     		.2byte	0x1
 16360 1a38 56       		.byte	0x56
 16361 1a39 00000000 		.4byte	0
 16362 1a3d 00000000 		.4byte	0
 16363              	.LLST168:
 16364 1a41 8A050000 		.4byte	.LVL312
 16365 1a45 8C050000 		.4byte	.LVL313
 16366 1a49 0100     		.2byte	0x1
 16367 1a4b 54       		.byte	0x54
 16368 1a4c 00000000 		.4byte	0
 16369 1a50 00000000 		.4byte	0
 16370              	.LLST169:
 16371 1a54 8A050000 		.4byte	.LVL312
 16372 1a58 DC050000 		.4byte	.LVL321
 16373 1a5c 0100     		.2byte	0x1
 16374 1a5e 55       		.byte	0x55
 16375 1a5f 00000000 		.4byte	0
 16376 1a63 00000000 		.4byte	0
 16377              	.LLST170:
 16378 1a67 8C050000 		.4byte	.LVL313
 16379 1a6b 90050000 		.4byte	.LVL314
 16380 1a6f 0100     		.2byte	0x1
 16381 1a71 54       		.byte	0x54
 16382 1a72 00000000 		.4byte	0
 16383 1a76 00000000 		.4byte	0
 16384              	.LLST171:
 16385 1a7a C6050000 		.4byte	.LVL319
 16386 1a7e DC050000 		.4byte	.LVL321
 16387 1a82 0100     		.2byte	0x1
 16388 1a84 51       		.byte	0x51
 16389 1a85 00000000 		.4byte	0
 16390 1a89 00000000 		.4byte	0
 16391              	.LLST172:
 16392 1a8d C6050000 		.4byte	.LVL319
ARM GAS  C:\Users\164\AppData\Local\Temp\cc4PZf78.s 			page 334


 16393 1a91 CC050000 		.4byte	.LVL320
 16394 1a95 0300     		.2byte	0x3
 16395 1a97 75       		.byte	0x75
 16396 1a98 D80C     		.sleb128 1624
 16397 1a9a 00000000 		.4byte	0
 16398 1a9e 00000000 		.4byte	0
 16399              	.LLST173:
 16400 1aa2 E2050000 		.4byte	.LVL322
 16401 1aa6 12060000 		.4byte	.LVL331
 16402 1aaa 0100     		.2byte	0x1
 16403 1aac 56       		.byte	0x56
 16404 1aad 00000000 		.4byte	0
 16405 1ab1 00000000 		.4byte	0
 16406              	.LLST174:
 16407 1ab5 E2050000 		.4byte	.LVL322
 16408 1ab9 E4050000 		.4byte	.LVL323
 16409 1abd 0100     		.2byte	0x1
 16410 1abf 54       		.byte	0x54
 16411 1ac0 00000000 		.4byte	0
 16412 1ac4 00000000 		.4byte	0
 16413              	.LLST175:
 16414 1ac8 E2050000 		.4byte	.LVL322
 16415 1acc 12060000 		.4byte	.LVL331
 16416 1ad0 0100     		.2byte	0x1
 16417 1ad2 55       		.byte	0x55
 16418 1ad3 00000000 		.4byte	0
 16419 1ad7 00000000 		.4byte	0
 16420              	.LLST176:
 16421 1adb E4050000 		.4byte	.LVL323
 16422 1adf F4050000 		.4byte	.LVL326
 16423 1ae3 0100     		.2byte	0x1
 16424 1ae5 54       		.byte	0x54
 16425 1ae6 0E060000 		.4byte	.LVL330
 16426 1aea 16060000 		.4byte	.LVL332
 16427 1aee 0100     		.2byte	0x1
 16428 1af0 54       		.byte	0x54
 16429 1af1 00000000 		.4byte	0
 16430 1af5 00000000 		.4byte	0
 16431              	.LLST177:
 16432 1af9 E8050000 		.4byte	.LVL324
 16433 1afd 0A060000 		.4byte	.LVL329
 16434 1b01 0100     		.2byte	0x1
 16435 1b03 57       		.byte	0x57
 16436 1b04 0A060000 		.4byte	.LVL329
 16437 1b08 0E060000 		.4byte	.LVL330
 16438 1b0c 0300     		.2byte	0x3
 16439 1b0e 76       		.byte	0x76
 16440 1b0f 10       		.sleb128 16
 16441 1b10 9F       		.byte	0x9f
 16442 1b11 0E060000 		.4byte	.LVL330
 16443 1b15 12060000 		.4byte	.LVL331
 16444 1b19 0100     		.2byte	0x1
 16445 1b1b 57       		.byte	0x57
 16446 1b1c 00000000 		.4byte	0
 16447 1b20 00000000 		.4byte	0
 16448              	.LLST178:
 16449 1b24 16060000 		.4byte	.LVL332
ARM GAS  C:\Users\164\AppData\Local\Temp\cc4PZf78.s 			page 335


 16450 1b28 F4060000 		.4byte	.LVL355
 16451 1b2c 0100     		.2byte	0x1
 16452 1b2e 56       		.byte	0x56
 16453 1b2f 00000000 		.4byte	0
 16454 1b33 00000000 		.4byte	0
 16455              	.LLST179:
 16456 1b37 16060000 		.4byte	.LVL332
 16457 1b3b C4060000 		.4byte	.LVL352
 16458 1b3f 0100     		.2byte	0x1
 16459 1b41 54       		.byte	0x54
 16460 1b42 00000000 		.4byte	0
 16461 1b46 00000000 		.4byte	0
 16462              	.LLST180:
 16463 1b4a 16060000 		.4byte	.LVL332
 16464 1b4e 5E070000 		.4byte	.LVL369
 16465 1b52 0100     		.2byte	0x1
 16466 1b54 55       		.byte	0x55
 16467 1b55 00000000 		.4byte	0
 16468 1b59 00000000 		.4byte	0
 16469              	.LLST181:
 16470 1b5d 18060000 		.4byte	.LVL333
 16471 1b61 34060000 		.4byte	.LVL335
 16472 1b65 0100     		.2byte	0x1
 16473 1b67 53       		.byte	0x53
 16474 1b68 34060000 		.4byte	.LVL335
 16475 1b6c 3C060000 		.4byte	.LVL336
 16476 1b70 0500     		.2byte	0x5
 16477 1b72 74       		.byte	0x74
 16478 1b73 00       		.sleb128 0
 16479 1b74 47       		.byte	0x47
 16480 1b75 25       		.byte	0x25
 16481 1b76 9F       		.byte	0x9f
 16482 1b77 3C060000 		.4byte	.LVL336
 16483 1b7b 42060000 		.4byte	.LVL337
 16484 1b7f 0100     		.2byte	0x1
 16485 1b81 53       		.byte	0x53
 16486 1b82 42060000 		.4byte	.LVL337
 16487 1b86 5C060000 		.4byte	.LVL340
 16488 1b8a 0500     		.2byte	0x5
 16489 1b8c 74       		.byte	0x74
 16490 1b8d 00       		.sleb128 0
 16491 1b8e 47       		.byte	0x47
 16492 1b8f 25       		.byte	0x25
 16493 1b90 9F       		.byte	0x9f
 16494 1b91 5C060000 		.4byte	.LVL340
 16495 1b95 62060000 		.4byte	.LVL341
 16496 1b99 0100     		.2byte	0x1
 16497 1b9b 53       		.byte	0x53
 16498 1b9c 62060000 		.4byte	.LVL341
 16499 1ba0 64060000 		.4byte	.LVL342
 16500 1ba4 0300     		.2byte	0x3
 16501 1ba6 73       		.byte	0x73
 16502 1ba7 7F       		.sleb128 -1
 16503 1ba8 9F       		.byte	0x9f
 16504 1ba9 64060000 		.4byte	.LVL342
 16505 1bad C4060000 		.4byte	.LVL352
 16506 1bb1 0500     		.2byte	0x5
ARM GAS  C:\Users\164\AppData\Local\Temp\cc4PZf78.s 			page 336


 16507 1bb3 74       		.byte	0x74
 16508 1bb4 00       		.sleb128 0
 16509 1bb5 47       		.byte	0x47
 16510 1bb6 25       		.byte	0x25
 16511 1bb7 9F       		.byte	0x9f
 16512 1bb8 00000000 		.4byte	0
 16513 1bbc 00000000 		.4byte	0
 16514              	.LLST182:
 16515 1bc0 9E060000 		.4byte	.LVL346
 16516 1bc4 F4060000 		.4byte	.LVL355
 16517 1bc8 0100     		.2byte	0x1
 16518 1bca 56       		.byte	0x56
 16519 1bcb 00000000 		.4byte	0
 16520 1bcf 00000000 		.4byte	0
 16521              	.LLST183:
 16522 1bd3 9E060000 		.4byte	.LVL346
 16523 1bd7 C4060000 		.4byte	.LVL352
 16524 1bdb 0100     		.2byte	0x1
 16525 1bdd 54       		.byte	0x54
 16526 1bde 00000000 		.4byte	0
 16527 1be2 00000000 		.4byte	0
 16528              	.LLST184:
 16529 1be6 9E060000 		.4byte	.LVL346
 16530 1bea 5E070000 		.4byte	.LVL369
 16531 1bee 0100     		.2byte	0x1
 16532 1bf0 55       		.byte	0x55
 16533 1bf1 00000000 		.4byte	0
 16534 1bf5 00000000 		.4byte	0
 16535              	.LLST185:
 16536 1bf9 A0060000 		.4byte	.LVL347
 16537 1bfd BE060000 		.4byte	.LVL350
 16538 1c01 0100     		.2byte	0x1
 16539 1c03 57       		.byte	0x57
 16540 1c04 BE060000 		.4byte	.LVL350
 16541 1c08 C4060000 		.4byte	.LVL352
 16542 1c0c 0500     		.2byte	0x5
 16543 1c0e 74       		.byte	0x74
 16544 1c0f 00       		.sleb128 0
 16545 1c10 47       		.byte	0x47
 16546 1c11 25       		.byte	0x25
 16547 1c12 9F       		.byte	0x9f
 16548 1c13 00000000 		.4byte	0
 16549 1c17 00000000 		.4byte	0
 16550              	.LLST186:
 16551 1c1b A4060000 		.4byte	.LVL348
 16552 1c1f 5E070000 		.4byte	.LVL369
 16553 1c23 0100     		.2byte	0x1
 16554 1c25 5B       		.byte	0x5b
 16555 1c26 00000000 		.4byte	0
 16556 1c2a 00000000 		.4byte	0
 16557              	.LLST187:
 16558 1c2e A8060000 		.4byte	.LVL349
 16559 1c32 5E070000 		.4byte	.LVL369
 16560 1c36 0100     		.2byte	0x1
 16561 1c38 5A       		.byte	0x5a
 16562 1c39 00000000 		.4byte	0
 16563 1c3d 00000000 		.4byte	0
ARM GAS  C:\Users\164\AppData\Local\Temp\cc4PZf78.s 			page 337


 16564              	.LLST188:
 16565 1c41 C0060000 		.4byte	.LVL351
 16566 1c45 5E070000 		.4byte	.LVL369
 16567 1c49 0100     		.2byte	0x1
 16568 1c4b 57       		.byte	0x57
 16569 1c4c 00000000 		.4byte	0
 16570 1c50 00000000 		.4byte	0
 16571              	.LLST189:
 16572 1c54 F4060000 		.4byte	.LVL355
 16573 1c58 F7060000 		.4byte	.LVL356-1
 16574 1c5c 0100     		.2byte	0x1
 16575 1c5e 50       		.byte	0x50
 16576 1c5f F7060000 		.4byte	.LVL356-1
 16577 1c63 5E070000 		.4byte	.LVL369
 16578 1c67 0100     		.2byte	0x1
 16579 1c69 56       		.byte	0x56
 16580 1c6a 00000000 		.4byte	0
 16581 1c6e 00000000 		.4byte	0
 16582              	.LLST190:
 16583 1c72 F8060000 		.4byte	.LVL356
 16584 1c76 00070000 		.4byte	.LVL357
 16585 1c7a 0100     		.2byte	0x1
 16586 1c7c 50       		.byte	0x50
 16587 1c7d 00000000 		.4byte	0
 16588 1c81 00000000 		.4byte	0
 16589              	.LLST191:
 16590 1c85 0E070000 		.4byte	.LVL358
 16591 1c89 1A070000 		.4byte	.LVL359
 16592 1c8d 0100     		.2byte	0x1
 16593 1c8f 50       		.byte	0x50
 16594 1c90 1A070000 		.4byte	.LVL359
 16595 1c94 20070000 		.4byte	.LVL361
 16596 1c98 0100     		.2byte	0x1
 16597 1c9a 54       		.byte	0x54
 16598 1c9b 20070000 		.4byte	.LVL361
 16599 1c9f 30070000 		.4byte	.LVL362
 16600 1ca3 0100     		.2byte	0x1
 16601 1ca5 50       		.byte	0x50
 16602 1ca6 30070000 		.4byte	.LVL362
 16603 1caa 44070000 		.4byte	.LVL366
 16604 1cae 0100     		.2byte	0x1
 16605 1cb0 54       		.byte	0x54
 16606 1cb1 44070000 		.4byte	.LVL366
 16607 1cb5 48070000 		.4byte	.LVL367
 16608 1cb9 0100     		.2byte	0x1
 16609 1cbb 50       		.byte	0x50
 16610 1cbc 48070000 		.4byte	.LVL367
 16611 1cc0 5E070000 		.4byte	.LVL369
 16612 1cc4 0100     		.2byte	0x1
 16613 1cc6 54       		.byte	0x54
 16614 1cc7 00000000 		.4byte	0
 16615 1ccb 00000000 		.4byte	0
 16616              	.LLST192:
 16617 1ccf 32070000 		.4byte	.LVL363
 16618 1cd3 36070000 		.4byte	.LVL364
 16619 1cd7 0100     		.2byte	0x1
 16620 1cd9 57       		.byte	0x57
ARM GAS  C:\Users\164\AppData\Local\Temp\cc4PZf78.s 			page 338


 16621 1cda 36070000 		.4byte	.LVL364
 16622 1cde 44070000 		.4byte	.LVL366
 16623 1ce2 0100     		.2byte	0x1
 16624 1ce4 53       		.byte	0x53
 16625 1ce5 00000000 		.4byte	0
 16626 1ce9 00000000 		.4byte	0
 16627              	.LLST193:
 16628 1ced 64070000 		.4byte	.LVL370
 16629 1cf1 9E070000 		.4byte	.LVL378
 16630 1cf5 0100     		.2byte	0x1
 16631 1cf7 56       		.byte	0x56
 16632 1cf8 00000000 		.4byte	0
 16633 1cfc 00000000 		.4byte	0
 16634              	.LLST194:
 16635 1d00 64070000 		.4byte	.LVL370
 16636 1d04 74070000 		.4byte	.LVL374
 16637 1d08 0100     		.2byte	0x1
 16638 1d0a 54       		.byte	0x54
 16639 1d0b 7C070000 		.4byte	.LVL375
 16640 1d0f 9E070000 		.4byte	.LVL378
 16641 1d13 0100     		.2byte	0x1
 16642 1d15 54       		.byte	0x54
 16643 1d16 00000000 		.4byte	0
 16644 1d1a 00000000 		.4byte	0
 16645              	.LLST195:
 16646 1d1e 64070000 		.4byte	.LVL370
 16647 1d22 9E070000 		.4byte	.LVL378
 16648 1d26 0100     		.2byte	0x1
 16649 1d28 55       		.byte	0x55
 16650 1d29 00000000 		.4byte	0
 16651 1d2d 00000000 		.4byte	0
 16652              	.LLST196:
 16653 1d31 66070000 		.4byte	.LVL371
 16654 1d35 68070000 		.4byte	.LVL372
 16655 1d39 0100     		.2byte	0x1
 16656 1d3b 53       		.byte	0x53
 16657 1d3c 68070000 		.4byte	.LVL372
 16658 1d40 74070000 		.4byte	.LVL374
 16659 1d44 0500     		.2byte	0x5
 16660 1d46 74       		.byte	0x74
 16661 1d47 00       		.sleb128 0
 16662 1d48 47       		.byte	0x47
 16663 1d49 25       		.byte	0x25
 16664 1d4a 9F       		.byte	0x9f
 16665 1d4b 7C070000 		.4byte	.LVL375
 16666 1d4f 9E070000 		.4byte	.LVL378
 16667 1d53 0500     		.2byte	0x5
 16668 1d55 74       		.byte	0x74
 16669 1d56 00       		.sleb128 0
 16670 1d57 47       		.byte	0x47
 16671 1d58 25       		.byte	0x25
 16672 1d59 9F       		.byte	0x9f
 16673 1d5a 00000000 		.4byte	0
 16674 1d5e 00000000 		.4byte	0
 16675              	.LLST197:
 16676 1d62 A4070000 		.4byte	.LVL379
 16677 1d66 F8080000 		.4byte	.LVL415
ARM GAS  C:\Users\164\AppData\Local\Temp\cc4PZf78.s 			page 339


 16678 1d6a 0100     		.2byte	0x1
 16679 1d6c 56       		.byte	0x56
 16680 1d6d 00000000 		.4byte	0
 16681 1d71 00000000 		.4byte	0
 16682              	.LLST198:
 16683 1d75 A4070000 		.4byte	.LVL379
 16684 1d79 58080000 		.4byte	.LVL397
 16685 1d7d 0100     		.2byte	0x1
 16686 1d7f 54       		.byte	0x54
 16687 1d80 00000000 		.4byte	0
 16688 1d84 00000000 		.4byte	0
 16689              	.LLST199:
 16690 1d88 A4070000 		.4byte	.LVL379
 16691 1d8c F8080000 		.4byte	.LVL415
 16692 1d90 0100     		.2byte	0x1
 16693 1d92 55       		.byte	0x55
 16694 1d93 00000000 		.4byte	0
 16695 1d97 00000000 		.4byte	0
 16696              	.LLST200:
 16697 1d9b A8070000 		.4byte	.LVL380
 16698 1d9f D8070000 		.4byte	.LVL383
 16699 1da3 0100     		.2byte	0x1
 16700 1da5 58       		.byte	0x58
 16701 1da6 D8070000 		.4byte	.LVL383
 16702 1daa EC070000 		.4byte	.LVL386
 16703 1dae 0500     		.2byte	0x5
 16704 1db0 74       		.byte	0x74
 16705 1db1 00       		.sleb128 0
 16706 1db2 47       		.byte	0x47
 16707 1db3 25       		.byte	0x25
 16708 1db4 9F       		.byte	0x9f
 16709 1db5 EC070000 		.4byte	.LVL386
 16710 1db9 F8080000 		.4byte	.LVL415
 16711 1dbd 0100     		.2byte	0x1
 16712 1dbf 58       		.byte	0x58
 16713 1dc0 00000000 		.4byte	0
 16714 1dc4 00000000 		.4byte	0
 16715              	.LLST201:
 16716 1dc8 30080000 		.4byte	.LVL390
 16717 1dcc EC080000 		.4byte	.LVL414
 16718 1dd0 0100     		.2byte	0x1
 16719 1dd2 56       		.byte	0x56
 16720 1dd3 00000000 		.4byte	0
 16721 1dd7 00000000 		.4byte	0
 16722              	.LLST202:
 16723 1ddb 30080000 		.4byte	.LVL390
 16724 1ddf 58080000 		.4byte	.LVL397
 16725 1de3 0100     		.2byte	0x1
 16726 1de5 54       		.byte	0x54
 16727 1de6 00000000 		.4byte	0
 16728 1dea 00000000 		.4byte	0
 16729              	.LLST203:
 16730 1dee 30080000 		.4byte	.LVL390
 16731 1df2 EC080000 		.4byte	.LVL414
 16732 1df6 0100     		.2byte	0x1
 16733 1df8 55       		.byte	0x55
 16734 1df9 00000000 		.4byte	0
ARM GAS  C:\Users\164\AppData\Local\Temp\cc4PZf78.s 			page 340


 16735 1dfd 00000000 		.4byte	0
 16736              	.LLST204:
 16737 1e01 32080000 		.4byte	.LVL391
 16738 1e05 52080000 		.4byte	.LVL395
 16739 1e09 0100     		.2byte	0x1
 16740 1e0b 57       		.byte	0x57
 16741 1e0c 52080000 		.4byte	.LVL395
 16742 1e10 58080000 		.4byte	.LVL397
 16743 1e14 0500     		.2byte	0x5
 16744 1e16 74       		.byte	0x74
 16745 1e17 00       		.sleb128 0
 16746 1e18 47       		.byte	0x47
 16747 1e19 25       		.byte	0x25
 16748 1e1a 9F       		.byte	0x9f
 16749 1e1b 00000000 		.4byte	0
 16750 1e1f 00000000 		.4byte	0
 16751              	.LLST205:
 16752 1e23 38080000 		.4byte	.LVL392
 16753 1e27 48080000 		.4byte	.LVL394
 16754 1e2b 0100     		.2byte	0x1
 16755 1e2d 53       		.byte	0x53
 16756 1e2e 48080000 		.4byte	.LVL394
 16757 1e32 88080000 		.4byte	.LVL400
 16758 1e36 0300     		.2byte	0x3
 16759 1e38 91       		.byte	0x91
 16760 1e39 B47F     		.sleb128 -76
 16761 1e3b 00000000 		.4byte	0
 16762 1e3f 00000000 		.4byte	0
 16763              	.LLST206:
 16764 1e43 3C080000 		.4byte	.LVL393
 16765 1e47 EC080000 		.4byte	.LVL414
 16766 1e4b 0100     		.2byte	0x1
 16767 1e4d 5B       		.byte	0x5b
 16768 1e4e 00000000 		.4byte	0
 16769 1e52 00000000 		.4byte	0
 16770              	.LLST207:
 16771 1e56 54080000 		.4byte	.LVL396
 16772 1e5a EC080000 		.4byte	.LVL414
 16773 1e5e 0100     		.2byte	0x1
 16774 1e60 57       		.byte	0x57
 16775 1e61 00000000 		.4byte	0
 16776 1e65 00000000 		.4byte	0
 16777              	.LLST208:
 16778 1e69 88080000 		.4byte	.LVL400
 16779 1e6d 8B080000 		.4byte	.LVL401-1
 16780 1e71 0100     		.2byte	0x1
 16781 1e73 50       		.byte	0x50
 16782 1e74 8B080000 		.4byte	.LVL401-1
 16783 1e78 EC080000 		.4byte	.LVL414
 16784 1e7c 0300     		.2byte	0x3
 16785 1e7e 91       		.byte	0x91
 16786 1e7f B47F     		.sleb128 -76
 16787 1e81 00000000 		.4byte	0
 16788 1e85 00000000 		.4byte	0
 16789              	.LLST209:
 16790 1e89 8C080000 		.4byte	.LVL401
 16791 1e8d 94080000 		.4byte	.LVL402
ARM GAS  C:\Users\164\AppData\Local\Temp\cc4PZf78.s 			page 341


 16792 1e91 0100     		.2byte	0x1
 16793 1e93 50       		.byte	0x50
 16794 1e94 00000000 		.4byte	0
 16795 1e98 00000000 		.4byte	0
 16796              	.LLST210:
 16797 1e9c A2080000 		.4byte	.LVL403
 16798 1ea0 AE080000 		.4byte	.LVL404
 16799 1ea4 0100     		.2byte	0x1
 16800 1ea6 50       		.byte	0x50
 16801 1ea7 AE080000 		.4byte	.LVL404
 16802 1eab B4080000 		.4byte	.LVL406
 16803 1eaf 0100     		.2byte	0x1
 16804 1eb1 54       		.byte	0x54
 16805 1eb2 B4080000 		.4byte	.LVL406
 16806 1eb6 C4080000 		.4byte	.LVL407
 16807 1eba 0100     		.2byte	0x1
 16808 1ebc 50       		.byte	0x50
 16809 1ebd C4080000 		.4byte	.LVL407
 16810 1ec1 D2080000 		.4byte	.LVL411
 16811 1ec5 0100     		.2byte	0x1
 16812 1ec7 54       		.byte	0x54
 16813 1ec8 D2080000 		.4byte	.LVL411
 16814 1ecc D6080000 		.4byte	.LVL412
 16815 1ed0 0100     		.2byte	0x1
 16816 1ed2 50       		.byte	0x50
 16817 1ed3 D6080000 		.4byte	.LVL412
 16818 1ed7 EC080000 		.4byte	.LVL414
 16819 1edb 0100     		.2byte	0x1
 16820 1edd 54       		.byte	0x54
 16821 1ede 00000000 		.4byte	0
 16822 1ee2 00000000 		.4byte	0
 16823              	.LLST211:
 16824 1ee6 C6080000 		.4byte	.LVL408
 16825 1eea CA080000 		.4byte	.LVL409
 16826 1eee 0100     		.2byte	0x1
 16827 1ef0 57       		.byte	0x57
 16828 1ef1 CA080000 		.4byte	.LVL409
 16829 1ef5 D2080000 		.4byte	.LVL411
 16830 1ef9 0100     		.2byte	0x1
 16831 1efb 53       		.byte	0x53
 16832 1efc 00000000 		.4byte	0
 16833 1f00 00000000 		.4byte	0
 16834              	.LLST212:
 16835 1f04 FE080000 		.4byte	.LVL416
 16836 1f08 38090000 		.4byte	.LVL424
 16837 1f0c 0100     		.2byte	0x1
 16838 1f0e 56       		.byte	0x56
 16839 1f0f 00000000 		.4byte	0
 16840 1f13 00000000 		.4byte	0
 16841              	.LLST213:
 16842 1f17 FE080000 		.4byte	.LVL416
 16843 1f1b 0E090000 		.4byte	.LVL420
 16844 1f1f 0100     		.2byte	0x1
 16845 1f21 54       		.byte	0x54
 16846 1f22 16090000 		.4byte	.LVL421
 16847 1f26 38090000 		.4byte	.LVL424
 16848 1f2a 0100     		.2byte	0x1
ARM GAS  C:\Users\164\AppData\Local\Temp\cc4PZf78.s 			page 342


 16849 1f2c 54       		.byte	0x54
 16850 1f2d 00000000 		.4byte	0
 16851 1f31 00000000 		.4byte	0
 16852              	.LLST214:
 16853 1f35 FE080000 		.4byte	.LVL416
 16854 1f39 38090000 		.4byte	.LVL424
 16855 1f3d 0100     		.2byte	0x1
 16856 1f3f 55       		.byte	0x55
 16857 1f40 00000000 		.4byte	0
 16858 1f44 00000000 		.4byte	0
 16859              	.LLST215:
 16860 1f48 00090000 		.4byte	.LVL417
 16861 1f4c 02090000 		.4byte	.LVL418
 16862 1f50 0100     		.2byte	0x1
 16863 1f52 53       		.byte	0x53
 16864 1f53 02090000 		.4byte	.LVL418
 16865 1f57 0E090000 		.4byte	.LVL420
 16866 1f5b 0500     		.2byte	0x5
 16867 1f5d 74       		.byte	0x74
 16868 1f5e 00       		.sleb128 0
 16869 1f5f 47       		.byte	0x47
 16870 1f60 25       		.byte	0x25
 16871 1f61 9F       		.byte	0x9f
 16872 1f62 16090000 		.4byte	.LVL421
 16873 1f66 38090000 		.4byte	.LVL424
 16874 1f6a 0500     		.2byte	0x5
 16875 1f6c 74       		.byte	0x74
 16876 1f6d 00       		.sleb128 0
 16877 1f6e 47       		.byte	0x47
 16878 1f6f 25       		.byte	0x25
 16879 1f70 9F       		.byte	0x9f
 16880 1f71 00000000 		.4byte	0
 16881 1f75 00000000 		.4byte	0
 16882              	.LLST216:
 16883 1f79 3E090000 		.4byte	.LVL425
 16884 1f7d 940A0000 		.4byte	.LVL461
 16885 1f81 0100     		.2byte	0x1
 16886 1f83 56       		.byte	0x56
 16887 1f84 00000000 		.4byte	0
 16888 1f88 00000000 		.4byte	0
 16889              	.LLST217:
 16890 1f8c 3E090000 		.4byte	.LVL425
 16891 1f90 F4090000 		.4byte	.LVL443
 16892 1f94 0100     		.2byte	0x1
 16893 1f96 54       		.byte	0x54
 16894 1f97 00000000 		.4byte	0
 16895 1f9b 00000000 		.4byte	0
 16896              	.LLST218:
 16897 1f9f 3E090000 		.4byte	.LVL425
 16898 1fa3 940A0000 		.4byte	.LVL461
 16899 1fa7 0100     		.2byte	0x1
 16900 1fa9 55       		.byte	0x55
 16901 1faa 00000000 		.4byte	0
 16902 1fae 00000000 		.4byte	0
 16903              	.LLST219:
 16904 1fb2 42090000 		.4byte	.LVL426
 16905 1fb6 74090000 		.4byte	.LVL429
ARM GAS  C:\Users\164\AppData\Local\Temp\cc4PZf78.s 			page 343


 16906 1fba 0100     		.2byte	0x1
 16907 1fbc 58       		.byte	0x58
 16908 1fbd 74090000 		.4byte	.LVL429
 16909 1fc1 88090000 		.4byte	.LVL432
 16910 1fc5 0500     		.2byte	0x5
 16911 1fc7 74       		.byte	0x74
 16912 1fc8 00       		.sleb128 0
 16913 1fc9 47       		.byte	0x47
 16914 1fca 25       		.byte	0x25
 16915 1fcb 9F       		.byte	0x9f
 16916 1fcc 88090000 		.4byte	.LVL432
 16917 1fd0 940A0000 		.4byte	.LVL461
 16918 1fd4 0100     		.2byte	0x1
 16919 1fd6 58       		.byte	0x58
 16920 1fd7 00000000 		.4byte	0
 16921 1fdb 00000000 		.4byte	0
 16922              	.LLST220:
 16923 1fdf CC090000 		.4byte	.LVL436
 16924 1fe3 880A0000 		.4byte	.LVL460
 16925 1fe7 0100     		.2byte	0x1
 16926 1fe9 56       		.byte	0x56
 16927 1fea 00000000 		.4byte	0
 16928 1fee 00000000 		.4byte	0
 16929              	.LLST221:
 16930 1ff2 CC090000 		.4byte	.LVL436
 16931 1ff6 F4090000 		.4byte	.LVL443
 16932 1ffa 0100     		.2byte	0x1
 16933 1ffc 54       		.byte	0x54
 16934 1ffd 00000000 		.4byte	0
 16935 2001 00000000 		.4byte	0
 16936              	.LLST222:
 16937 2005 CC090000 		.4byte	.LVL436
 16938 2009 880A0000 		.4byte	.LVL460
 16939 200d 0100     		.2byte	0x1
 16940 200f 55       		.byte	0x55
 16941 2010 00000000 		.4byte	0
 16942 2014 00000000 		.4byte	0
 16943              	.LLST223:
 16944 2018 CE090000 		.4byte	.LVL437
 16945 201c EE090000 		.4byte	.LVL441
 16946 2020 0100     		.2byte	0x1
 16947 2022 57       		.byte	0x57
 16948 2023 EE090000 		.4byte	.LVL441
 16949 2027 F4090000 		.4byte	.LVL443
 16950 202b 0500     		.2byte	0x5
 16951 202d 74       		.byte	0x74
 16952 202e 00       		.sleb128 0
 16953 202f 47       		.byte	0x47
 16954 2030 25       		.byte	0x25
 16955 2031 9F       		.byte	0x9f
 16956 2032 00000000 		.4byte	0
 16957 2036 00000000 		.4byte	0
 16958              	.LLST224:
 16959 203a D4090000 		.4byte	.LVL438
 16960 203e E4090000 		.4byte	.LVL440
 16961 2042 0100     		.2byte	0x1
 16962 2044 53       		.byte	0x53
ARM GAS  C:\Users\164\AppData\Local\Temp\cc4PZf78.s 			page 344


 16963 2045 E4090000 		.4byte	.LVL440
 16964 2049 240A0000 		.4byte	.LVL446
 16965 204d 0300     		.2byte	0x3
 16966 204f 91       		.byte	0x91
 16967 2050 B47F     		.sleb128 -76
 16968 2052 00000000 		.4byte	0
 16969 2056 00000000 		.4byte	0
 16970              	.LLST225:
 16971 205a D8090000 		.4byte	.LVL439
 16972 205e 880A0000 		.4byte	.LVL460
 16973 2062 0100     		.2byte	0x1
 16974 2064 5B       		.byte	0x5b
 16975 2065 00000000 		.4byte	0
 16976 2069 00000000 		.4byte	0
 16977              	.LLST226:
 16978 206d F0090000 		.4byte	.LVL442
 16979 2071 880A0000 		.4byte	.LVL460
 16980 2075 0100     		.2byte	0x1
 16981 2077 57       		.byte	0x57
 16982 2078 00000000 		.4byte	0
 16983 207c 00000000 		.4byte	0
 16984              	.LLST227:
 16985 2080 240A0000 		.4byte	.LVL446
 16986 2084 270A0000 		.4byte	.LVL447-1
 16987 2088 0100     		.2byte	0x1
 16988 208a 50       		.byte	0x50
 16989 208b 270A0000 		.4byte	.LVL447-1
 16990 208f 880A0000 		.4byte	.LVL460
 16991 2093 0300     		.2byte	0x3
 16992 2095 91       		.byte	0x91
 16993 2096 B47F     		.sleb128 -76
 16994 2098 00000000 		.4byte	0
 16995 209c 00000000 		.4byte	0
 16996              	.LLST228:
 16997 20a0 280A0000 		.4byte	.LVL447
 16998 20a4 300A0000 		.4byte	.LVL448
 16999 20a8 0100     		.2byte	0x1
 17000 20aa 50       		.byte	0x50
 17001 20ab 00000000 		.4byte	0
 17002 20af 00000000 		.4byte	0
 17003              	.LLST229:
 17004 20b3 3E0A0000 		.4byte	.LVL449
 17005 20b7 4A0A0000 		.4byte	.LVL450
 17006 20bb 0100     		.2byte	0x1
 17007 20bd 50       		.byte	0x50
 17008 20be 4A0A0000 		.4byte	.LVL450
 17009 20c2 500A0000 		.4byte	.LVL452
 17010 20c6 0100     		.2byte	0x1
 17011 20c8 54       		.byte	0x54
 17012 20c9 500A0000 		.4byte	.LVL452
 17013 20cd 600A0000 		.4byte	.LVL453
 17014 20d1 0100     		.2byte	0x1
 17015 20d3 50       		.byte	0x50
 17016 20d4 600A0000 		.4byte	.LVL453
 17017 20d8 6E0A0000 		.4byte	.LVL457
 17018 20dc 0100     		.2byte	0x1
 17019 20de 54       		.byte	0x54
ARM GAS  C:\Users\164\AppData\Local\Temp\cc4PZf78.s 			page 345


 17020 20df 6E0A0000 		.4byte	.LVL457
 17021 20e3 720A0000 		.4byte	.LVL458
 17022 20e7 0100     		.2byte	0x1
 17023 20e9 50       		.byte	0x50
 17024 20ea 720A0000 		.4byte	.LVL458
 17025 20ee 880A0000 		.4byte	.LVL460
 17026 20f2 0100     		.2byte	0x1
 17027 20f4 54       		.byte	0x54
 17028 20f5 00000000 		.4byte	0
 17029 20f9 00000000 		.4byte	0
 17030              	.LLST230:
 17031 20fd 620A0000 		.4byte	.LVL454
 17032 2101 660A0000 		.4byte	.LVL455
 17033 2105 0100     		.2byte	0x1
 17034 2107 57       		.byte	0x57
 17035 2108 660A0000 		.4byte	.LVL455
 17036 210c 6E0A0000 		.4byte	.LVL457
 17037 2110 0100     		.2byte	0x1
 17038 2112 53       		.byte	0x53
 17039 2113 00000000 		.4byte	0
 17040 2117 00000000 		.4byte	0
 17041              	.LLST231:
 17042 211b 9A0A0000 		.4byte	.LVL462
 17043 211f F40B0000 		.4byte	.LVL498
 17044 2123 0100     		.2byte	0x1
 17045 2125 56       		.byte	0x56
 17046 2126 00000000 		.4byte	0
 17047 212a 00000000 		.4byte	0
 17048              	.LLST232:
 17049 212e 9A0A0000 		.4byte	.LVL462
 17050 2132 500B0000 		.4byte	.LVL480
 17051 2136 0100     		.2byte	0x1
 17052 2138 54       		.byte	0x54
 17053 2139 00000000 		.4byte	0
 17054 213d 00000000 		.4byte	0
 17055              	.LLST233:
 17056 2141 9A0A0000 		.4byte	.LVL462
 17057 2145 F40B0000 		.4byte	.LVL498
 17058 2149 0100     		.2byte	0x1
 17059 214b 55       		.byte	0x55
 17060 214c 00000000 		.4byte	0
 17061 2150 00000000 		.4byte	0
 17062              	.LLST234:
 17063 2154 9E0A0000 		.4byte	.LVL463
 17064 2158 D00A0000 		.4byte	.LVL466
 17065 215c 0100     		.2byte	0x1
 17066 215e 58       		.byte	0x58
 17067 215f D00A0000 		.4byte	.LVL466
 17068 2163 E40A0000 		.4byte	.LVL469
 17069 2167 0500     		.2byte	0x5
 17070 2169 74       		.byte	0x74
 17071 216a 00       		.sleb128 0
 17072 216b 47       		.byte	0x47
 17073 216c 25       		.byte	0x25
 17074 216d 9F       		.byte	0x9f
 17075 216e E40A0000 		.4byte	.LVL469
 17076 2172 F40B0000 		.4byte	.LVL498
ARM GAS  C:\Users\164\AppData\Local\Temp\cc4PZf78.s 			page 346


 17077 2176 0100     		.2byte	0x1
 17078 2178 58       		.byte	0x58
 17079 2179 00000000 		.4byte	0
 17080 217d 00000000 		.4byte	0
 17081              	.LLST235:
 17082 2181 280B0000 		.4byte	.LVL473
 17083 2185 E80B0000 		.4byte	.LVL497
 17084 2189 0100     		.2byte	0x1
 17085 218b 56       		.byte	0x56
 17086 218c 00000000 		.4byte	0
 17087 2190 00000000 		.4byte	0
 17088              	.LLST236:
 17089 2194 280B0000 		.4byte	.LVL473
 17090 2198 500B0000 		.4byte	.LVL480
 17091 219c 0100     		.2byte	0x1
 17092 219e 54       		.byte	0x54
 17093 219f 00000000 		.4byte	0
 17094 21a3 00000000 		.4byte	0
 17095              	.LLST237:
 17096 21a7 280B0000 		.4byte	.LVL473
 17097 21ab E80B0000 		.4byte	.LVL497
 17098 21af 0100     		.2byte	0x1
 17099 21b1 55       		.byte	0x55
 17100 21b2 00000000 		.4byte	0
 17101 21b6 00000000 		.4byte	0
 17102              	.LLST238:
 17103 21ba 2A0B0000 		.4byte	.LVL474
 17104 21be 4A0B0000 		.4byte	.LVL478
 17105 21c2 0100     		.2byte	0x1
 17106 21c4 57       		.byte	0x57
 17107 21c5 4A0B0000 		.4byte	.LVL478
 17108 21c9 500B0000 		.4byte	.LVL480
 17109 21cd 0500     		.2byte	0x5
 17110 21cf 74       		.byte	0x74
 17111 21d0 00       		.sleb128 0
 17112 21d1 47       		.byte	0x47
 17113 21d2 25       		.byte	0x25
 17114 21d3 9F       		.byte	0x9f
 17115 21d4 00000000 		.4byte	0
 17116 21d8 00000000 		.4byte	0
 17117              	.LLST239:
 17118 21dc 300B0000 		.4byte	.LVL475
 17119 21e0 400B0000 		.4byte	.LVL477
 17120 21e4 0100     		.2byte	0x1
 17121 21e6 53       		.byte	0x53
 17122 21e7 400B0000 		.4byte	.LVL477
 17123 21eb 840B0000 		.4byte	.LVL483
 17124 21ef 0300     		.2byte	0x3
 17125 21f1 91       		.byte	0x91
 17126 21f2 B47F     		.sleb128 -76
 17127 21f4 00000000 		.4byte	0
 17128 21f8 00000000 		.4byte	0
 17129              	.LLST240:
 17130 21fc 340B0000 		.4byte	.LVL476
 17131 2200 E80B0000 		.4byte	.LVL497
 17132 2204 0100     		.2byte	0x1
 17133 2206 5B       		.byte	0x5b
ARM GAS  C:\Users\164\AppData\Local\Temp\cc4PZf78.s 			page 347


 17134 2207 00000000 		.4byte	0
 17135 220b 00000000 		.4byte	0
 17136              	.LLST241:
 17137 220f 4C0B0000 		.4byte	.LVL479
 17138 2213 E80B0000 		.4byte	.LVL497
 17139 2217 0100     		.2byte	0x1
 17140 2219 57       		.byte	0x57
 17141 221a 00000000 		.4byte	0
 17142 221e 00000000 		.4byte	0
 17143              	.LLST242:
 17144 2222 840B0000 		.4byte	.LVL483
 17145 2226 870B0000 		.4byte	.LVL484-1
 17146 222a 0100     		.2byte	0x1
 17147 222c 50       		.byte	0x50
 17148 222d 870B0000 		.4byte	.LVL484-1
 17149 2231 E80B0000 		.4byte	.LVL497
 17150 2235 0300     		.2byte	0x3
 17151 2237 91       		.byte	0x91
 17152 2238 B47F     		.sleb128 -76
 17153 223a 00000000 		.4byte	0
 17154 223e 00000000 		.4byte	0
 17155              	.LLST243:
 17156 2242 880B0000 		.4byte	.LVL484
 17157 2246 900B0000 		.4byte	.LVL485
 17158 224a 0100     		.2byte	0x1
 17159 224c 50       		.byte	0x50
 17160 224d 00000000 		.4byte	0
 17161 2251 00000000 		.4byte	0
 17162              	.LLST244:
 17163 2255 9E0B0000 		.4byte	.LVL486
 17164 2259 AA0B0000 		.4byte	.LVL487
 17165 225d 0100     		.2byte	0x1
 17166 225f 50       		.byte	0x50
 17167 2260 AA0B0000 		.4byte	.LVL487
 17168 2264 B00B0000 		.4byte	.LVL489
 17169 2268 0100     		.2byte	0x1
 17170 226a 54       		.byte	0x54
 17171 226b B00B0000 		.4byte	.LVL489
 17172 226f C00B0000 		.4byte	.LVL490
 17173 2273 0100     		.2byte	0x1
 17174 2275 50       		.byte	0x50
 17175 2276 C00B0000 		.4byte	.LVL490
 17176 227a CE0B0000 		.4byte	.LVL494
 17177 227e 0100     		.2byte	0x1
 17178 2280 54       		.byte	0x54
 17179 2281 CE0B0000 		.4byte	.LVL494
 17180 2285 D20B0000 		.4byte	.LVL495
 17181 2289 0100     		.2byte	0x1
 17182 228b 50       		.byte	0x50
 17183 228c D20B0000 		.4byte	.LVL495
 17184 2290 E80B0000 		.4byte	.LVL497
 17185 2294 0100     		.2byte	0x1
 17186 2296 54       		.byte	0x54
 17187 2297 00000000 		.4byte	0
 17188 229b 00000000 		.4byte	0
 17189              	.LLST245:
 17190 229f C20B0000 		.4byte	.LVL491
ARM GAS  C:\Users\164\AppData\Local\Temp\cc4PZf78.s 			page 348


 17191 22a3 C60B0000 		.4byte	.LVL492
 17192 22a7 0100     		.2byte	0x1
 17193 22a9 57       		.byte	0x57
 17194 22aa C60B0000 		.4byte	.LVL492
 17195 22ae CE0B0000 		.4byte	.LVL494
 17196 22b2 0100     		.2byte	0x1
 17197 22b4 53       		.byte	0x53
 17198 22b5 00000000 		.4byte	0
 17199 22b9 00000000 		.4byte	0
 17200              	.LLST246:
 17201 22bd FA0B0000 		.4byte	.LVL499
 17202 22c1 2C0C0000 		.4byte	.LVL509
 17203 22c5 0100     		.2byte	0x1
 17204 22c7 56       		.byte	0x56
 17205 22c8 00000000 		.4byte	0
 17206 22cc 00000000 		.4byte	0
 17207              	.LLST247:
 17208 22d0 FA0B0000 		.4byte	.LVL499
 17209 22d4 FC0B0000 		.4byte	.LVL500
 17210 22d8 0100     		.2byte	0x1
 17211 22da 54       		.byte	0x54
 17212 22db 00000000 		.4byte	0
 17213 22df 00000000 		.4byte	0
 17214              	.LLST248:
 17215 22e3 FA0B0000 		.4byte	.LVL499
 17216 22e7 2C0C0000 		.4byte	.LVL509
 17217 22eb 0100     		.2byte	0x1
 17218 22ed 55       		.byte	0x55
 17219 22ee 00000000 		.4byte	0
 17220 22f2 00000000 		.4byte	0
 17221              	.LLST249:
 17222 22f6 FC0B0000 		.4byte	.LVL500
 17223 22fa 040C0000 		.4byte	.LVL502
 17224 22fe 0100     		.2byte	0x1
 17225 2300 54       		.byte	0x54
 17226 2301 040C0000 		.4byte	.LVL502
 17227 2305 080C0000 		.4byte	.LVL503
 17228 2309 0300     		.2byte	0x3
 17229 230b 74       		.byte	0x74
 17230 230c 7F       		.sleb128 -1
 17231 230d 9F       		.byte	0x9f
 17232 230e 00000000 		.4byte	0
 17233 2312 00000000 		.4byte	0
 17234              	.LLST250:
 17235 2316 120C0000 		.4byte	.LVL505
 17236 231a 140C0000 		.4byte	.LVL506
 17237 231e 0100     		.2byte	0x1
 17238 2320 50       		.byte	0x50
 17239 2321 140C0000 		.4byte	.LVL506
 17240 2325 2C0C0000 		.4byte	.LVL509
 17241 2329 0100     		.2byte	0x1
 17242 232b 59       		.byte	0x59
 17243 232c 00000000 		.4byte	0
 17244 2330 00000000 		.4byte	0
 17245              	.LLST251:
 17246 2334 320C0000 		.4byte	.LVL510
 17247 2338 AE0D0000 		.4byte	.LVL561
ARM GAS  C:\Users\164\AppData\Local\Temp\cc4PZf78.s 			page 349


 17248 233c 0100     		.2byte	0x1
 17249 233e 56       		.byte	0x56
 17250 233f 00000000 		.4byte	0
 17251 2343 00000000 		.4byte	0
 17252              	.LLST252:
 17253 2347 320C0000 		.4byte	.LVL510
 17254 234b 700C0000 		.4byte	.LVL518
 17255 234f 0100     		.2byte	0x1
 17256 2351 54       		.byte	0x54
 17257 2352 820C0000 		.4byte	.LVL521
 17258 2356 A20C0000 		.4byte	.LVL524
 17259 235a 0100     		.2byte	0x1
 17260 235c 54       		.byte	0x54
 17261 235d B80C0000 		.4byte	.LVL527
 17262 2361 C00C0000 		.4byte	.LVL528
 17263 2365 0100     		.2byte	0x1
 17264 2367 54       		.byte	0x54
 17265 2368 DA0C0000 		.4byte	.LVL531
 17266 236c 020D0000 		.4byte	.LVL538
 17267 2370 0100     		.2byte	0x1
 17268 2372 54       		.byte	0x54
 17269 2373 00000000 		.4byte	0
 17270 2377 00000000 		.4byte	0
 17271              	.LLST253:
 17272 237b 320C0000 		.4byte	.LVL510
 17273 237f AE0D0000 		.4byte	.LVL561
 17274 2383 0100     		.2byte	0x1
 17275 2385 55       		.byte	0x55
 17276 2386 00000000 		.4byte	0
 17277 238a 00000000 		.4byte	0
 17278              	.LLST254:
 17279 238e 360C0000 		.4byte	.LVL511
 17280 2392 660C0000 		.4byte	.LVL516
 17281 2396 0100     		.2byte	0x1
 17282 2398 58       		.byte	0x58
 17283 2399 660C0000 		.4byte	.LVL516
 17284 239d 700C0000 		.4byte	.LVL518
 17285 23a1 0500     		.2byte	0x5
 17286 23a3 74       		.byte	0x74
 17287 23a4 00       		.sleb128 0
 17288 23a5 47       		.byte	0x47
 17289 23a6 25       		.byte	0x25
 17290 23a7 9F       		.byte	0x9f
 17291 23a8 820C0000 		.4byte	.LVL521
 17292 23ac 980C0000 		.4byte	.LVL522
 17293 23b0 0100     		.2byte	0x1
 17294 23b2 58       		.byte	0x58
 17295 23b3 980C0000 		.4byte	.LVL522
 17296 23b7 A20C0000 		.4byte	.LVL524
 17297 23bb 0500     		.2byte	0x5
 17298 23bd 74       		.byte	0x74
 17299 23be 00       		.sleb128 0
 17300 23bf 47       		.byte	0x47
 17301 23c0 25       		.byte	0x25
 17302 23c1 9F       		.byte	0x9f
 17303 23c2 B80C0000 		.4byte	.LVL527
 17304 23c6 A40D0000 		.4byte	.LVL557
ARM GAS  C:\Users\164\AppData\Local\Temp\cc4PZf78.s 			page 350


 17305 23ca 0100     		.2byte	0x1
 17306 23cc 58       		.byte	0x58
 17307 23cd 00000000 		.4byte	0
 17308 23d1 00000000 		.4byte	0
 17309              	.LLST255:
 17310 23d5 5C0C0000 		.4byte	.LVL514
 17311 23d9 5E0C0000 		.4byte	.LVL515
 17312 23dd 0100     		.2byte	0x1
 17313 23df 53       		.byte	0x53
 17314 23e0 800C0000 		.4byte	.LVL520
 17315 23e4 820C0000 		.4byte	.LVL521
 17316 23e8 0100     		.2byte	0x1
 17317 23ea 53       		.byte	0x53
 17318 23eb B60C0000 		.4byte	.LVL526
 17319 23ef B80C0000 		.4byte	.LVL527
 17320 23f3 0100     		.2byte	0x1
 17321 23f5 53       		.byte	0x53
 17322 23f6 D80C0000 		.4byte	.LVL530
 17323 23fa DA0C0000 		.4byte	.LVL531
 17324 23fe 0100     		.2byte	0x1
 17325 2400 53       		.byte	0x53
 17326 2401 A40D0000 		.4byte	.LVL557
 17327 2405 A80D0000 		.4byte	.LVL558
 17328 2409 0100     		.2byte	0x1
 17329 240b 53       		.byte	0x53
 17330 240c AA0D0000 		.4byte	.LVL559
 17331 2410 AC0D0000 		.4byte	.LVL560
 17332 2414 0100     		.2byte	0x1
 17333 2416 53       		.byte	0x53
 17334 2417 00000000 		.4byte	0
 17335 241b 00000000 		.4byte	0
 17336              	.LLST256:
 17337 241f DA0C0000 		.4byte	.LVL531
 17338 2423 960D0000 		.4byte	.LVL555
 17339 2427 0100     		.2byte	0x1
 17340 2429 56       		.byte	0x56
 17341 242a 00000000 		.4byte	0
 17342 242e 00000000 		.4byte	0
 17343              	.LLST257:
 17344 2432 DA0C0000 		.4byte	.LVL531
 17345 2436 020D0000 		.4byte	.LVL538
 17346 243a 0100     		.2byte	0x1
 17347 243c 54       		.byte	0x54
 17348 243d 00000000 		.4byte	0
 17349 2441 00000000 		.4byte	0
 17350              	.LLST258:
 17351 2445 DA0C0000 		.4byte	.LVL531
 17352 2449 960D0000 		.4byte	.LVL555
 17353 244d 0100     		.2byte	0x1
 17354 244f 55       		.byte	0x55
 17355 2450 00000000 		.4byte	0
 17356 2454 00000000 		.4byte	0
 17357              	.LLST259:
 17358 2458 DC0C0000 		.4byte	.LVL532
 17359 245c FC0C0000 		.4byte	.LVL536
 17360 2460 0100     		.2byte	0x1
 17361 2462 57       		.byte	0x57
ARM GAS  C:\Users\164\AppData\Local\Temp\cc4PZf78.s 			page 351


 17362 2463 FC0C0000 		.4byte	.LVL536
 17363 2467 020D0000 		.4byte	.LVL538
 17364 246b 0500     		.2byte	0x5
 17365 246d 74       		.byte	0x74
 17366 246e 00       		.sleb128 0
 17367 246f 47       		.byte	0x47
 17368 2470 25       		.byte	0x25
 17369 2471 9F       		.byte	0x9f
 17370 2472 00000000 		.4byte	0
 17371 2476 00000000 		.4byte	0
 17372              	.LLST260:
 17373 247a E20C0000 		.4byte	.LVL533
 17374 247e F20C0000 		.4byte	.LVL535
 17375 2482 0100     		.2byte	0x1
 17376 2484 53       		.byte	0x53
 17377 2485 F20C0000 		.4byte	.LVL535
 17378 2489 320D0000 		.4byte	.LVL541
 17379 248d 0300     		.2byte	0x3
 17380 248f 91       		.byte	0x91
 17381 2490 B47F     		.sleb128 -76
 17382 2492 00000000 		.4byte	0
 17383 2496 00000000 		.4byte	0
 17384              	.LLST261:
 17385 249a E60C0000 		.4byte	.LVL534
 17386 249e 960D0000 		.4byte	.LVL555
 17387 24a2 0100     		.2byte	0x1
 17388 24a4 5B       		.byte	0x5b
 17389 24a5 00000000 		.4byte	0
 17390 24a9 00000000 		.4byte	0
 17391              	.LLST262:
 17392 24ad FE0C0000 		.4byte	.LVL537
 17393 24b1 960D0000 		.4byte	.LVL555
 17394 24b5 0100     		.2byte	0x1
 17395 24b7 57       		.byte	0x57
 17396 24b8 00000000 		.4byte	0
 17397 24bc 00000000 		.4byte	0
 17398              	.LLST263:
 17399 24c0 320D0000 		.4byte	.LVL541
 17400 24c4 350D0000 		.4byte	.LVL542-1
 17401 24c8 0100     		.2byte	0x1
 17402 24ca 50       		.byte	0x50
 17403 24cb 350D0000 		.4byte	.LVL542-1
 17404 24cf 960D0000 		.4byte	.LVL555
 17405 24d3 0300     		.2byte	0x3
 17406 24d5 91       		.byte	0x91
 17407 24d6 B47F     		.sleb128 -76
 17408 24d8 00000000 		.4byte	0
 17409 24dc 00000000 		.4byte	0
 17410              	.LLST264:
 17411 24e0 360D0000 		.4byte	.LVL542
 17412 24e4 3E0D0000 		.4byte	.LVL543
 17413 24e8 0100     		.2byte	0x1
 17414 24ea 50       		.byte	0x50
 17415 24eb 00000000 		.4byte	0
 17416 24ef 00000000 		.4byte	0
 17417              	.LLST265:
 17418 24f3 4C0D0000 		.4byte	.LVL544
ARM GAS  C:\Users\164\AppData\Local\Temp\cc4PZf78.s 			page 352


 17419 24f7 580D0000 		.4byte	.LVL545
 17420 24fb 0100     		.2byte	0x1
 17421 24fd 50       		.byte	0x50
 17422 24fe 580D0000 		.4byte	.LVL545
 17423 2502 5E0D0000 		.4byte	.LVL547
 17424 2506 0100     		.2byte	0x1
 17425 2508 54       		.byte	0x54
 17426 2509 5E0D0000 		.4byte	.LVL547
 17427 250d 6E0D0000 		.4byte	.LVL548
 17428 2511 0100     		.2byte	0x1
 17429 2513 50       		.byte	0x50
 17430 2514 6E0D0000 		.4byte	.LVL548
 17431 2518 7C0D0000 		.4byte	.LVL552
 17432 251c 0100     		.2byte	0x1
 17433 251e 54       		.byte	0x54
 17434 251f 7C0D0000 		.4byte	.LVL552
 17435 2523 800D0000 		.4byte	.LVL553
 17436 2527 0100     		.2byte	0x1
 17437 2529 50       		.byte	0x50
 17438 252a 800D0000 		.4byte	.LVL553
 17439 252e 960D0000 		.4byte	.LVL555
 17440 2532 0100     		.2byte	0x1
 17441 2534 54       		.byte	0x54
 17442 2535 00000000 		.4byte	0
 17443 2539 00000000 		.4byte	0
 17444              	.LLST266:
 17445 253d 700D0000 		.4byte	.LVL549
 17446 2541 740D0000 		.4byte	.LVL550
 17447 2545 0100     		.2byte	0x1
 17448 2547 57       		.byte	0x57
 17449 2548 740D0000 		.4byte	.LVL550
 17450 254c 7C0D0000 		.4byte	.LVL552
 17451 2550 0100     		.2byte	0x1
 17452 2552 53       		.byte	0x53
 17453 2553 00000000 		.4byte	0
 17454 2557 00000000 		.4byte	0
 17455              	.LLST267:
 17456 255b B40D0000 		.4byte	.LVL562
 17457 255f 360F0000 		.4byte	.LVL613
 17458 2563 0100     		.2byte	0x1
 17459 2565 56       		.byte	0x56
 17460 2566 00000000 		.4byte	0
 17461 256a 00000000 		.4byte	0
 17462              	.LLST268:
 17463 256e B40D0000 		.4byte	.LVL562
 17464 2572 F20D0000 		.4byte	.LVL570
 17465 2576 0100     		.2byte	0x1
 17466 2578 54       		.byte	0x54
 17467 2579 040E0000 		.4byte	.LVL573
 17468 257d 240E0000 		.4byte	.LVL576
 17469 2581 0100     		.2byte	0x1
 17470 2583 54       		.byte	0x54
 17471 2584 3A0E0000 		.4byte	.LVL579
 17472 2588 420E0000 		.4byte	.LVL580
 17473 258c 0100     		.2byte	0x1
 17474 258e 54       		.byte	0x54
 17475 258f 5C0E0000 		.4byte	.LVL583
ARM GAS  C:\Users\164\AppData\Local\Temp\cc4PZf78.s 			page 353


 17476 2593 840E0000 		.4byte	.LVL590
 17477 2597 0100     		.2byte	0x1
 17478 2599 54       		.byte	0x54
 17479 259a 00000000 		.4byte	0
 17480 259e 00000000 		.4byte	0
 17481              	.LLST269:
 17482 25a2 B40D0000 		.4byte	.LVL562
 17483 25a6 360F0000 		.4byte	.LVL613
 17484 25aa 0100     		.2byte	0x1
 17485 25ac 55       		.byte	0x55
 17486 25ad 00000000 		.4byte	0
 17487 25b1 00000000 		.4byte	0
 17488              	.LLST270:
 17489 25b5 B80D0000 		.4byte	.LVL563
 17490 25b9 E80D0000 		.4byte	.LVL568
 17491 25bd 0100     		.2byte	0x1
 17492 25bf 58       		.byte	0x58
 17493 25c0 E80D0000 		.4byte	.LVL568
 17494 25c4 F20D0000 		.4byte	.LVL570
 17495 25c8 0500     		.2byte	0x5
 17496 25ca 74       		.byte	0x74
 17497 25cb 00       		.sleb128 0
 17498 25cc 47       		.byte	0x47
 17499 25cd 25       		.byte	0x25
 17500 25ce 9F       		.byte	0x9f
 17501 25cf 040E0000 		.4byte	.LVL573
 17502 25d3 1A0E0000 		.4byte	.LVL574
 17503 25d7 0100     		.2byte	0x1
 17504 25d9 58       		.byte	0x58
 17505 25da 1A0E0000 		.4byte	.LVL574
 17506 25de 240E0000 		.4byte	.LVL576
 17507 25e2 0500     		.2byte	0x5
 17508 25e4 74       		.byte	0x74
 17509 25e5 00       		.sleb128 0
 17510 25e6 47       		.byte	0x47
 17511 25e7 25       		.byte	0x25
 17512 25e8 9F       		.byte	0x9f
 17513 25e9 3A0E0000 		.4byte	.LVL579
 17514 25ed 2C0F0000 		.4byte	.LVL609
 17515 25f1 0100     		.2byte	0x1
 17516 25f3 58       		.byte	0x58
 17517 25f4 00000000 		.4byte	0
 17518 25f8 00000000 		.4byte	0
 17519              	.LLST271:
 17520 25fc DE0D0000 		.4byte	.LVL566
 17521 2600 E00D0000 		.4byte	.LVL567
 17522 2604 0100     		.2byte	0x1
 17523 2606 53       		.byte	0x53
 17524 2607 020E0000 		.4byte	.LVL572
 17525 260b 040E0000 		.4byte	.LVL573
 17526 260f 0100     		.2byte	0x1
 17527 2611 53       		.byte	0x53
 17528 2612 380E0000 		.4byte	.LVL578
 17529 2616 3A0E0000 		.4byte	.LVL579
 17530 261a 0100     		.2byte	0x1
 17531 261c 53       		.byte	0x53
 17532 261d 5A0E0000 		.4byte	.LVL582
ARM GAS  C:\Users\164\AppData\Local\Temp\cc4PZf78.s 			page 354


 17533 2621 5C0E0000 		.4byte	.LVL583
 17534 2625 0100     		.2byte	0x1
 17535 2627 53       		.byte	0x53
 17536 2628 2C0F0000 		.4byte	.LVL609
 17537 262c 300F0000 		.4byte	.LVL610
 17538 2630 0100     		.2byte	0x1
 17539 2632 53       		.byte	0x53
 17540 2633 320F0000 		.4byte	.LVL611
 17541 2637 340F0000 		.4byte	.LVL612
 17542 263b 0100     		.2byte	0x1
 17543 263d 53       		.byte	0x53
 17544 263e 00000000 		.4byte	0
 17545 2642 00000000 		.4byte	0
 17546              	.LLST272:
 17547 2646 5C0E0000 		.4byte	.LVL583
 17548 264a 1E0F0000 		.4byte	.LVL607
 17549 264e 0100     		.2byte	0x1
 17550 2650 56       		.byte	0x56
 17551 2651 00000000 		.4byte	0
 17552 2655 00000000 		.4byte	0
 17553              	.LLST273:
 17554 2659 5C0E0000 		.4byte	.LVL583
 17555 265d 840E0000 		.4byte	.LVL590
 17556 2661 0100     		.2byte	0x1
 17557 2663 54       		.byte	0x54
 17558 2664 00000000 		.4byte	0
 17559 2668 00000000 		.4byte	0
 17560              	.LLST274:
 17561 266c 5C0E0000 		.4byte	.LVL583
 17562 2670 1E0F0000 		.4byte	.LVL607
 17563 2674 0100     		.2byte	0x1
 17564 2676 55       		.byte	0x55
 17565 2677 00000000 		.4byte	0
 17566 267b 00000000 		.4byte	0
 17567              	.LLST275:
 17568 267f 5E0E0000 		.4byte	.LVL584
 17569 2683 7E0E0000 		.4byte	.LVL588
 17570 2687 0100     		.2byte	0x1
 17571 2689 57       		.byte	0x57
 17572 268a 7E0E0000 		.4byte	.LVL588
 17573 268e 840E0000 		.4byte	.LVL590
 17574 2692 0500     		.2byte	0x5
 17575 2694 74       		.byte	0x74
 17576 2695 00       		.sleb128 0
 17577 2696 47       		.byte	0x47
 17578 2697 25       		.byte	0x25
 17579 2698 9F       		.byte	0x9f
 17580 2699 00000000 		.4byte	0
 17581 269d 00000000 		.4byte	0
 17582              	.LLST276:
 17583 26a1 640E0000 		.4byte	.LVL585
 17584 26a5 740E0000 		.4byte	.LVL587
 17585 26a9 0100     		.2byte	0x1
 17586 26ab 53       		.byte	0x53
 17587 26ac 740E0000 		.4byte	.LVL587
 17588 26b0 BA0E0000 		.4byte	.LVL593
 17589 26b4 0300     		.2byte	0x3
ARM GAS  C:\Users\164\AppData\Local\Temp\cc4PZf78.s 			page 355


 17590 26b6 91       		.byte	0x91
 17591 26b7 B47F     		.sleb128 -76
 17592 26b9 00000000 		.4byte	0
 17593 26bd 00000000 		.4byte	0
 17594              	.LLST277:
 17595 26c1 680E0000 		.4byte	.LVL586
 17596 26c5 1E0F0000 		.4byte	.LVL607
 17597 26c9 0100     		.2byte	0x1
 17598 26cb 5B       		.byte	0x5b
 17599 26cc 00000000 		.4byte	0
 17600 26d0 00000000 		.4byte	0
 17601              	.LLST278:
 17602 26d4 800E0000 		.4byte	.LVL589
 17603 26d8 1E0F0000 		.4byte	.LVL607
 17604 26dc 0100     		.2byte	0x1
 17605 26de 57       		.byte	0x57
 17606 26df 00000000 		.4byte	0
 17607 26e3 00000000 		.4byte	0
 17608              	.LLST279:
 17609 26e7 BA0E0000 		.4byte	.LVL593
 17610 26eb BD0E0000 		.4byte	.LVL594-1
 17611 26ef 0100     		.2byte	0x1
 17612 26f1 50       		.byte	0x50
 17613 26f2 BD0E0000 		.4byte	.LVL594-1
 17614 26f6 1E0F0000 		.4byte	.LVL607
 17615 26fa 0300     		.2byte	0x3
 17616 26fc 91       		.byte	0x91
 17617 26fd B47F     		.sleb128 -76
 17618 26ff 00000000 		.4byte	0
 17619 2703 00000000 		.4byte	0
 17620              	.LLST280:
 17621 2707 BE0E0000 		.4byte	.LVL594
 17622 270b C60E0000 		.4byte	.LVL595
 17623 270f 0100     		.2byte	0x1
 17624 2711 50       		.byte	0x50
 17625 2712 00000000 		.4byte	0
 17626 2716 00000000 		.4byte	0
 17627              	.LLST281:
 17628 271a D40E0000 		.4byte	.LVL596
 17629 271e E00E0000 		.4byte	.LVL597
 17630 2722 0100     		.2byte	0x1
 17631 2724 50       		.byte	0x50
 17632 2725 E00E0000 		.4byte	.LVL597
 17633 2729 E60E0000 		.4byte	.LVL599
 17634 272d 0100     		.2byte	0x1
 17635 272f 54       		.byte	0x54
 17636 2730 E60E0000 		.4byte	.LVL599
 17637 2734 F60E0000 		.4byte	.LVL600
 17638 2738 0100     		.2byte	0x1
 17639 273a 50       		.byte	0x50
 17640 273b F60E0000 		.4byte	.LVL600
 17641 273f 040F0000 		.4byte	.LVL604
 17642 2743 0100     		.2byte	0x1
 17643 2745 54       		.byte	0x54
 17644 2746 040F0000 		.4byte	.LVL604
 17645 274a 080F0000 		.4byte	.LVL605
 17646 274e 0100     		.2byte	0x1
ARM GAS  C:\Users\164\AppData\Local\Temp\cc4PZf78.s 			page 356


 17647 2750 50       		.byte	0x50
 17648 2751 080F0000 		.4byte	.LVL605
 17649 2755 1E0F0000 		.4byte	.LVL607
 17650 2759 0100     		.2byte	0x1
 17651 275b 54       		.byte	0x54
 17652 275c 00000000 		.4byte	0
 17653 2760 00000000 		.4byte	0
 17654              	.LLST282:
 17655 2764 F80E0000 		.4byte	.LVL601
 17656 2768 FC0E0000 		.4byte	.LVL602
 17657 276c 0100     		.2byte	0x1
 17658 276e 57       		.byte	0x57
 17659 276f FC0E0000 		.4byte	.LVL602
 17660 2773 040F0000 		.4byte	.LVL604
 17661 2777 0100     		.2byte	0x1
 17662 2779 53       		.byte	0x53
 17663 277a 00000000 		.4byte	0
 17664 277e 00000000 		.4byte	0
 17665              	.LLST283:
 17666 2782 3A0F0000 		.4byte	.LVL614
 17667 2786 B6100000 		.4byte	.LVL665
 17668 278a 0100     		.2byte	0x1
 17669 278c 56       		.byte	0x56
 17670 278d 00000000 		.4byte	0
 17671 2791 00000000 		.4byte	0
 17672              	.LLST284:
 17673 2795 3A0F0000 		.4byte	.LVL614
 17674 2799 780F0000 		.4byte	.LVL622
 17675 279d 0100     		.2byte	0x1
 17676 279f 54       		.byte	0x54
 17677 27a0 8A0F0000 		.4byte	.LVL625
 17678 27a4 AA0F0000 		.4byte	.LVL628
 17679 27a8 0100     		.2byte	0x1
 17680 27aa 54       		.byte	0x54
 17681 27ab C00F0000 		.4byte	.LVL631
 17682 27af C80F0000 		.4byte	.LVL632
 17683 27b3 0100     		.2byte	0x1
 17684 27b5 54       		.byte	0x54
 17685 27b6 E20F0000 		.4byte	.LVL635
 17686 27ba 0A100000 		.4byte	.LVL642
 17687 27be 0100     		.2byte	0x1
 17688 27c0 54       		.byte	0x54
 17689 27c1 00000000 		.4byte	0
 17690 27c5 00000000 		.4byte	0
 17691              	.LLST285:
 17692 27c9 3A0F0000 		.4byte	.LVL614
 17693 27cd B6100000 		.4byte	.LVL665
 17694 27d1 0100     		.2byte	0x1
 17695 27d3 55       		.byte	0x55
 17696 27d4 00000000 		.4byte	0
 17697 27d8 00000000 		.4byte	0
 17698              	.LLST286:
 17699 27dc 3E0F0000 		.4byte	.LVL615
 17700 27e0 6E0F0000 		.4byte	.LVL620
 17701 27e4 0100     		.2byte	0x1
 17702 27e6 58       		.byte	0x58
 17703 27e7 6E0F0000 		.4byte	.LVL620
ARM GAS  C:\Users\164\AppData\Local\Temp\cc4PZf78.s 			page 357


 17704 27eb 780F0000 		.4byte	.LVL622
 17705 27ef 0500     		.2byte	0x5
 17706 27f1 74       		.byte	0x74
 17707 27f2 00       		.sleb128 0
 17708 27f3 47       		.byte	0x47
 17709 27f4 25       		.byte	0x25
 17710 27f5 9F       		.byte	0x9f
 17711 27f6 8A0F0000 		.4byte	.LVL625
 17712 27fa A00F0000 		.4byte	.LVL626
 17713 27fe 0100     		.2byte	0x1
 17714 2800 58       		.byte	0x58
 17715 2801 A00F0000 		.4byte	.LVL626
 17716 2805 AA0F0000 		.4byte	.LVL628
 17717 2809 0500     		.2byte	0x5
 17718 280b 74       		.byte	0x74
 17719 280c 00       		.sleb128 0
 17720 280d 47       		.byte	0x47
 17721 280e 25       		.byte	0x25
 17722 280f 9F       		.byte	0x9f
 17723 2810 C00F0000 		.4byte	.LVL631
 17724 2814 AC100000 		.4byte	.LVL661
 17725 2818 0100     		.2byte	0x1
 17726 281a 58       		.byte	0x58
 17727 281b 00000000 		.4byte	0
 17728 281f 00000000 		.4byte	0
 17729              	.LLST287:
 17730 2823 640F0000 		.4byte	.LVL618
 17731 2827 660F0000 		.4byte	.LVL619
 17732 282b 0100     		.2byte	0x1
 17733 282d 53       		.byte	0x53
 17734 282e 880F0000 		.4byte	.LVL624
 17735 2832 8A0F0000 		.4byte	.LVL625
 17736 2836 0100     		.2byte	0x1
 17737 2838 53       		.byte	0x53
 17738 2839 BE0F0000 		.4byte	.LVL630
 17739 283d C00F0000 		.4byte	.LVL631
 17740 2841 0100     		.2byte	0x1
 17741 2843 53       		.byte	0x53
 17742 2844 E00F0000 		.4byte	.LVL634
 17743 2848 E20F0000 		.4byte	.LVL635
 17744 284c 0100     		.2byte	0x1
 17745 284e 53       		.byte	0x53
 17746 284f AC100000 		.4byte	.LVL661
 17747 2853 B0100000 		.4byte	.LVL662
 17748 2857 0100     		.2byte	0x1
 17749 2859 53       		.byte	0x53
 17750 285a B2100000 		.4byte	.LVL663
 17751 285e B4100000 		.4byte	.LVL664
 17752 2862 0100     		.2byte	0x1
 17753 2864 53       		.byte	0x53
 17754 2865 00000000 		.4byte	0
 17755 2869 00000000 		.4byte	0
 17756              	.LLST288:
 17757 286d E20F0000 		.4byte	.LVL635
 17758 2871 9E100000 		.4byte	.LVL659
 17759 2875 0100     		.2byte	0x1
 17760 2877 56       		.byte	0x56
ARM GAS  C:\Users\164\AppData\Local\Temp\cc4PZf78.s 			page 358


 17761 2878 00000000 		.4byte	0
 17762 287c 00000000 		.4byte	0
 17763              	.LLST289:
 17764 2880 E20F0000 		.4byte	.LVL635
 17765 2884 0A100000 		.4byte	.LVL642
 17766 2888 0100     		.2byte	0x1
 17767 288a 54       		.byte	0x54
 17768 288b 00000000 		.4byte	0
 17769 288f 00000000 		.4byte	0
 17770              	.LLST290:
 17771 2893 E20F0000 		.4byte	.LVL635
 17772 2897 9E100000 		.4byte	.LVL659
 17773 289b 0100     		.2byte	0x1
 17774 289d 55       		.byte	0x55
 17775 289e 00000000 		.4byte	0
 17776 28a2 00000000 		.4byte	0
 17777              	.LLST291:
 17778 28a6 E40F0000 		.4byte	.LVL636
 17779 28aa 04100000 		.4byte	.LVL640
 17780 28ae 0100     		.2byte	0x1
 17781 28b0 57       		.byte	0x57
 17782 28b1 04100000 		.4byte	.LVL640
 17783 28b5 0A100000 		.4byte	.LVL642
 17784 28b9 0500     		.2byte	0x5
 17785 28bb 74       		.byte	0x74
 17786 28bc 00       		.sleb128 0
 17787 28bd 47       		.byte	0x47
 17788 28be 25       		.byte	0x25
 17789 28bf 9F       		.byte	0x9f
 17790 28c0 00000000 		.4byte	0
 17791 28c4 00000000 		.4byte	0
 17792              	.LLST292:
 17793 28c8 EA0F0000 		.4byte	.LVL637
 17794 28cc FA0F0000 		.4byte	.LVL639
 17795 28d0 0100     		.2byte	0x1
 17796 28d2 53       		.byte	0x53
 17797 28d3 FA0F0000 		.4byte	.LVL639
 17798 28d7 3A100000 		.4byte	.LVL645
 17799 28db 0300     		.2byte	0x3
 17800 28dd 91       		.byte	0x91
 17801 28de B47F     		.sleb128 -76
 17802 28e0 00000000 		.4byte	0
 17803 28e4 00000000 		.4byte	0
 17804              	.LLST293:
 17805 28e8 EE0F0000 		.4byte	.LVL638
 17806 28ec 9E100000 		.4byte	.LVL659
 17807 28f0 0100     		.2byte	0x1
 17808 28f2 5B       		.byte	0x5b
 17809 28f3 00000000 		.4byte	0
 17810 28f7 00000000 		.4byte	0
 17811              	.LLST294:
 17812 28fb 06100000 		.4byte	.LVL641
 17813 28ff 9E100000 		.4byte	.LVL659
 17814 2903 0100     		.2byte	0x1
 17815 2905 57       		.byte	0x57
 17816 2906 00000000 		.4byte	0
 17817 290a 00000000 		.4byte	0
ARM GAS  C:\Users\164\AppData\Local\Temp\cc4PZf78.s 			page 359


 17818              	.LLST295:
 17819 290e 3A100000 		.4byte	.LVL645
 17820 2912 3D100000 		.4byte	.LVL646-1
 17821 2916 0100     		.2byte	0x1
 17822 2918 50       		.byte	0x50
 17823 2919 3D100000 		.4byte	.LVL646-1
 17824 291d 9E100000 		.4byte	.LVL659
 17825 2921 0300     		.2byte	0x3
 17826 2923 91       		.byte	0x91
 17827 2924 B47F     		.sleb128 -76
 17828 2926 00000000 		.4byte	0
 17829 292a 00000000 		.4byte	0
 17830              	.LLST296:
 17831 292e 3E100000 		.4byte	.LVL646
 17832 2932 46100000 		.4byte	.LVL647
 17833 2936 0100     		.2byte	0x1
 17834 2938 50       		.byte	0x50
 17835 2939 00000000 		.4byte	0
 17836 293d 00000000 		.4byte	0
 17837              	.LLST297:
 17838 2941 54100000 		.4byte	.LVL648
 17839 2945 60100000 		.4byte	.LVL649
 17840 2949 0100     		.2byte	0x1
 17841 294b 50       		.byte	0x50
 17842 294c 60100000 		.4byte	.LVL649
 17843 2950 66100000 		.4byte	.LVL651
 17844 2954 0100     		.2byte	0x1
 17845 2956 54       		.byte	0x54
 17846 2957 66100000 		.4byte	.LVL651
 17847 295b 76100000 		.4byte	.LVL652
 17848 295f 0100     		.2byte	0x1
 17849 2961 50       		.byte	0x50
 17850 2962 76100000 		.4byte	.LVL652
 17851 2966 84100000 		.4byte	.LVL656
 17852 296a 0100     		.2byte	0x1
 17853 296c 54       		.byte	0x54
 17854 296d 84100000 		.4byte	.LVL656
 17855 2971 88100000 		.4byte	.LVL657
 17856 2975 0100     		.2byte	0x1
 17857 2977 50       		.byte	0x50
 17858 2978 88100000 		.4byte	.LVL657
 17859 297c 9E100000 		.4byte	.LVL659
 17860 2980 0100     		.2byte	0x1
 17861 2982 54       		.byte	0x54
 17862 2983 00000000 		.4byte	0
 17863 2987 00000000 		.4byte	0
 17864              	.LLST298:
 17865 298b 78100000 		.4byte	.LVL653
 17866 298f 7C100000 		.4byte	.LVL654
 17867 2993 0100     		.2byte	0x1
 17868 2995 57       		.byte	0x57
 17869 2996 7C100000 		.4byte	.LVL654
 17870 299a 84100000 		.4byte	.LVL656
 17871 299e 0100     		.2byte	0x1
 17872 29a0 53       		.byte	0x53
 17873 29a1 00000000 		.4byte	0
 17874 29a5 00000000 		.4byte	0
ARM GAS  C:\Users\164\AppData\Local\Temp\cc4PZf78.s 			page 360


 17875              	.LLST299:
 17876 29a9 BA100000 		.4byte	.LVL666
 17877 29ad 3C120000 		.4byte	.LVL717
 17878 29b1 0100     		.2byte	0x1
 17879 29b3 56       		.byte	0x56
 17880 29b4 00000000 		.4byte	0
 17881 29b8 00000000 		.4byte	0
 17882              	.LLST300:
 17883 29bc BA100000 		.4byte	.LVL666
 17884 29c0 F8100000 		.4byte	.LVL674
 17885 29c4 0100     		.2byte	0x1
 17886 29c6 54       		.byte	0x54
 17887 29c7 0A110000 		.4byte	.LVL677
 17888 29cb 2A110000 		.4byte	.LVL680
 17889 29cf 0100     		.2byte	0x1
 17890 29d1 54       		.byte	0x54
 17891 29d2 40110000 		.4byte	.LVL683
 17892 29d6 48110000 		.4byte	.LVL684
 17893 29da 0100     		.2byte	0x1
 17894 29dc 54       		.byte	0x54
 17895 29dd 62110000 		.4byte	.LVL687
 17896 29e1 8A110000 		.4byte	.LVL694
 17897 29e5 0100     		.2byte	0x1
 17898 29e7 54       		.byte	0x54
 17899 29e8 00000000 		.4byte	0
 17900 29ec 00000000 		.4byte	0
 17901              	.LLST301:
 17902 29f0 BA100000 		.4byte	.LVL666
 17903 29f4 3C120000 		.4byte	.LVL717
 17904 29f8 0100     		.2byte	0x1
 17905 29fa 55       		.byte	0x55
 17906 29fb 00000000 		.4byte	0
 17907 29ff 00000000 		.4byte	0
 17908              	.LLST302:
 17909 2a03 BE100000 		.4byte	.LVL667
 17910 2a07 EE100000 		.4byte	.LVL672
 17911 2a0b 0100     		.2byte	0x1
 17912 2a0d 58       		.byte	0x58
 17913 2a0e EE100000 		.4byte	.LVL672
 17914 2a12 F8100000 		.4byte	.LVL674
 17915 2a16 0500     		.2byte	0x5
 17916 2a18 74       		.byte	0x74
 17917 2a19 00       		.sleb128 0
 17918 2a1a 47       		.byte	0x47
 17919 2a1b 25       		.byte	0x25
 17920 2a1c 9F       		.byte	0x9f
 17921 2a1d 0A110000 		.4byte	.LVL677
 17922 2a21 20110000 		.4byte	.LVL678
 17923 2a25 0100     		.2byte	0x1
 17924 2a27 58       		.byte	0x58
 17925 2a28 20110000 		.4byte	.LVL678
 17926 2a2c 2A110000 		.4byte	.LVL680
 17927 2a30 0500     		.2byte	0x5
 17928 2a32 74       		.byte	0x74
 17929 2a33 00       		.sleb128 0
 17930 2a34 47       		.byte	0x47
 17931 2a35 25       		.byte	0x25
ARM GAS  C:\Users\164\AppData\Local\Temp\cc4PZf78.s 			page 361


 17932 2a36 9F       		.byte	0x9f
 17933 2a37 40110000 		.4byte	.LVL683
 17934 2a3b 32120000 		.4byte	.LVL713
 17935 2a3f 0100     		.2byte	0x1
 17936 2a41 58       		.byte	0x58
 17937 2a42 00000000 		.4byte	0
 17938 2a46 00000000 		.4byte	0
 17939              	.LLST303:
 17940 2a4a E4100000 		.4byte	.LVL670
 17941 2a4e E6100000 		.4byte	.LVL671
 17942 2a52 0100     		.2byte	0x1
 17943 2a54 53       		.byte	0x53
 17944 2a55 08110000 		.4byte	.LVL676
 17945 2a59 0A110000 		.4byte	.LVL677
 17946 2a5d 0100     		.2byte	0x1
 17947 2a5f 53       		.byte	0x53
 17948 2a60 3E110000 		.4byte	.LVL682
 17949 2a64 40110000 		.4byte	.LVL683
 17950 2a68 0100     		.2byte	0x1
 17951 2a6a 53       		.byte	0x53
 17952 2a6b 60110000 		.4byte	.LVL686
 17953 2a6f 62110000 		.4byte	.LVL687
 17954 2a73 0100     		.2byte	0x1
 17955 2a75 53       		.byte	0x53
 17956 2a76 32120000 		.4byte	.LVL713
 17957 2a7a 36120000 		.4byte	.LVL714
 17958 2a7e 0100     		.2byte	0x1
 17959 2a80 53       		.byte	0x53
 17960 2a81 38120000 		.4byte	.LVL715
 17961 2a85 3A120000 		.4byte	.LVL716
 17962 2a89 0100     		.2byte	0x1
 17963 2a8b 53       		.byte	0x53
 17964 2a8c 00000000 		.4byte	0
 17965 2a90 00000000 		.4byte	0
 17966              	.LLST304:
 17967 2a94 62110000 		.4byte	.LVL687
 17968 2a98 24120000 		.4byte	.LVL711
 17969 2a9c 0100     		.2byte	0x1
 17970 2a9e 56       		.byte	0x56
 17971 2a9f 00000000 		.4byte	0
 17972 2aa3 00000000 		.4byte	0
 17973              	.LLST305:
 17974 2aa7 62110000 		.4byte	.LVL687
 17975 2aab 8A110000 		.4byte	.LVL694
 17976 2aaf 0100     		.2byte	0x1
 17977 2ab1 54       		.byte	0x54
 17978 2ab2 00000000 		.4byte	0
 17979 2ab6 00000000 		.4byte	0
 17980              	.LLST306:
 17981 2aba 62110000 		.4byte	.LVL687
 17982 2abe 24120000 		.4byte	.LVL711
 17983 2ac2 0100     		.2byte	0x1
 17984 2ac4 55       		.byte	0x55
 17985 2ac5 00000000 		.4byte	0
 17986 2ac9 00000000 		.4byte	0
 17987              	.LLST307:
 17988 2acd 64110000 		.4byte	.LVL688
ARM GAS  C:\Users\164\AppData\Local\Temp\cc4PZf78.s 			page 362


 17989 2ad1 84110000 		.4byte	.LVL692
 17990 2ad5 0100     		.2byte	0x1
 17991 2ad7 57       		.byte	0x57
 17992 2ad8 84110000 		.4byte	.LVL692
 17993 2adc 8A110000 		.4byte	.LVL694
 17994 2ae0 0500     		.2byte	0x5
 17995 2ae2 74       		.byte	0x74
 17996 2ae3 00       		.sleb128 0
 17997 2ae4 47       		.byte	0x47
 17998 2ae5 25       		.byte	0x25
 17999 2ae6 9F       		.byte	0x9f
 18000 2ae7 00000000 		.4byte	0
 18001 2aeb 00000000 		.4byte	0
 18002              	.LLST308:
 18003 2aef 6A110000 		.4byte	.LVL689
 18004 2af3 7A110000 		.4byte	.LVL691
 18005 2af7 0100     		.2byte	0x1
 18006 2af9 53       		.byte	0x53
 18007 2afa 7A110000 		.4byte	.LVL691
 18008 2afe C0110000 		.4byte	.LVL697
 18009 2b02 0300     		.2byte	0x3
 18010 2b04 91       		.byte	0x91
 18011 2b05 B47F     		.sleb128 -76
 18012 2b07 00000000 		.4byte	0
 18013 2b0b 00000000 		.4byte	0
 18014              	.LLST309:
 18015 2b0f 6E110000 		.4byte	.LVL690
 18016 2b13 24120000 		.4byte	.LVL711
 18017 2b17 0100     		.2byte	0x1
 18018 2b19 5B       		.byte	0x5b
 18019 2b1a 00000000 		.4byte	0
 18020 2b1e 00000000 		.4byte	0
 18021              	.LLST310:
 18022 2b22 86110000 		.4byte	.LVL693
 18023 2b26 24120000 		.4byte	.LVL711
 18024 2b2a 0100     		.2byte	0x1
 18025 2b2c 57       		.byte	0x57
 18026 2b2d 00000000 		.4byte	0
 18027 2b31 00000000 		.4byte	0
 18028              	.LLST311:
 18029 2b35 C0110000 		.4byte	.LVL697
 18030 2b39 C3110000 		.4byte	.LVL698-1
 18031 2b3d 0100     		.2byte	0x1
 18032 2b3f 50       		.byte	0x50
 18033 2b40 C3110000 		.4byte	.LVL698-1
 18034 2b44 24120000 		.4byte	.LVL711
 18035 2b48 0300     		.2byte	0x3
 18036 2b4a 91       		.byte	0x91
 18037 2b4b B47F     		.sleb128 -76
 18038 2b4d 00000000 		.4byte	0
 18039 2b51 00000000 		.4byte	0
 18040              	.LLST312:
 18041 2b55 C4110000 		.4byte	.LVL698
 18042 2b59 CC110000 		.4byte	.LVL699
 18043 2b5d 0100     		.2byte	0x1
 18044 2b5f 50       		.byte	0x50
 18045 2b60 00000000 		.4byte	0
ARM GAS  C:\Users\164\AppData\Local\Temp\cc4PZf78.s 			page 363


 18046 2b64 00000000 		.4byte	0
 18047              	.LLST313:
 18048 2b68 DA110000 		.4byte	.LVL700
 18049 2b6c E6110000 		.4byte	.LVL701
 18050 2b70 0100     		.2byte	0x1
 18051 2b72 50       		.byte	0x50
 18052 2b73 E6110000 		.4byte	.LVL701
 18053 2b77 EC110000 		.4byte	.LVL703
 18054 2b7b 0100     		.2byte	0x1
 18055 2b7d 54       		.byte	0x54
 18056 2b7e EC110000 		.4byte	.LVL703
 18057 2b82 FC110000 		.4byte	.LVL704
 18058 2b86 0100     		.2byte	0x1
 18059 2b88 50       		.byte	0x50
 18060 2b89 FC110000 		.4byte	.LVL704
 18061 2b8d 0A120000 		.4byte	.LVL708
 18062 2b91 0100     		.2byte	0x1
 18063 2b93 54       		.byte	0x54
 18064 2b94 0A120000 		.4byte	.LVL708
 18065 2b98 0E120000 		.4byte	.LVL709
 18066 2b9c 0100     		.2byte	0x1
 18067 2b9e 50       		.byte	0x50
 18068 2b9f 0E120000 		.4byte	.LVL709
 18069 2ba3 24120000 		.4byte	.LVL711
 18070 2ba7 0100     		.2byte	0x1
 18071 2ba9 54       		.byte	0x54
 18072 2baa 00000000 		.4byte	0
 18073 2bae 00000000 		.4byte	0
 18074              	.LLST314:
 18075 2bb2 FE110000 		.4byte	.LVL705
 18076 2bb6 02120000 		.4byte	.LVL706
 18077 2bba 0100     		.2byte	0x1
 18078 2bbc 57       		.byte	0x57
 18079 2bbd 02120000 		.4byte	.LVL706
 18080 2bc1 0A120000 		.4byte	.LVL708
 18081 2bc5 0100     		.2byte	0x1
 18082 2bc7 53       		.byte	0x53
 18083 2bc8 00000000 		.4byte	0
 18084 2bcc 00000000 		.4byte	0
 18085              	.LLST315:
 18086 2bd0 40120000 		.4byte	.LVL718
 18087 2bd4 7C120000 		.4byte	.LVL727
 18088 2bd8 0100     		.2byte	0x1
 18089 2bda 56       		.byte	0x56
 18090 2bdb 90120000 		.4byte	.LVL730
 18091 2bdf 94120000 		.4byte	.LVL731
 18092 2be3 0100     		.2byte	0x1
 18093 2be5 56       		.byte	0x56
 18094 2be6 00000000 		.4byte	0
 18095 2bea 00000000 		.4byte	0
 18096              	.LLST316:
 18097 2bee 40120000 		.4byte	.LVL718
 18098 2bf2 56120000 		.4byte	.LVL723
 18099 2bf6 0100     		.2byte	0x1
 18100 2bf8 54       		.byte	0x54
 18101 2bf9 00000000 		.4byte	0
 18102 2bfd 00000000 		.4byte	0
ARM GAS  C:\Users\164\AppData\Local\Temp\cc4PZf78.s 			page 364


 18103              	.LLST317:
 18104 2c01 40120000 		.4byte	.LVL718
 18105 2c05 94120000 		.4byte	.LVL731
 18106 2c09 0100     		.2byte	0x1
 18107 2c0b 55       		.byte	0x55
 18108 2c0c 00000000 		.4byte	0
 18109 2c10 00000000 		.4byte	0
 18110              	.LLST318:
 18111 2c14 42120000 		.4byte	.LVL719
 18112 2c18 8E120000 		.4byte	.LVL729
 18113 2c1c 0100     		.2byte	0x1
 18114 2c1e 57       		.byte	0x57
 18115 2c1f 90120000 		.4byte	.LVL730
 18116 2c23 94120000 		.4byte	.LVL731
 18117 2c27 0100     		.2byte	0x1
 18118 2c29 57       		.byte	0x57
 18119 2c2a 00000000 		.4byte	0
 18120 2c2e 00000000 		.4byte	0
 18121              	.LLST319:
 18122 2c32 46120000 		.4byte	.LVL720
 18123 2c36 5C120000 		.4byte	.LVL724
 18124 2c3a 0100     		.2byte	0x1
 18125 2c3c 58       		.byte	0x58
 18126 2c3d 90120000 		.4byte	.LVL730
 18127 2c41 94120000 		.4byte	.LVL731
 18128 2c45 0100     		.2byte	0x1
 18129 2c47 58       		.byte	0x58
 18130 2c48 00000000 		.4byte	0
 18131 2c4c 00000000 		.4byte	0
 18132              	.LLST320:
 18133 2c50 4A120000 		.4byte	.LVL721
 18134 2c54 94120000 		.4byte	.LVL731
 18135 2c58 0100     		.2byte	0x1
 18136 2c5a 59       		.byte	0x59
 18137 2c5b 00000000 		.4byte	0
 18138 2c5f 00000000 		.4byte	0
 18139              	.LLST321:
 18140 2c63 96120000 		.4byte	.LVL732
 18141 2c67 C2120000 		.4byte	.LVL743
 18142 2c6b 0100     		.2byte	0x1
 18143 2c6d 56       		.byte	0x56
 18144 2c6e D6120000 		.4byte	.LVL746
 18145 2c72 DA120000 		.4byte	.LVL747
 18146 2c76 0100     		.2byte	0x1
 18147 2c78 56       		.byte	0x56
 18148 2c79 00000000 		.4byte	0
 18149 2c7d 00000000 		.4byte	0
 18150              	.LLST322:
 18151 2c81 96120000 		.4byte	.LVL732
 18152 2c85 9C120000 		.4byte	.LVL734
 18153 2c89 0100     		.2byte	0x1
 18154 2c8b 54       		.byte	0x54
 18155 2c8c 00000000 		.4byte	0
 18156 2c90 00000000 		.4byte	0
 18157              	.LLST323:
 18158 2c94 96120000 		.4byte	.LVL732
 18159 2c98 DA120000 		.4byte	.LVL747
ARM GAS  C:\Users\164\AppData\Local\Temp\cc4PZf78.s 			page 365


 18160 2c9c 0100     		.2byte	0x1
 18161 2c9e 55       		.byte	0x55
 18162 2c9f 00000000 		.4byte	0
 18163 2ca3 00000000 		.4byte	0
 18164              	.LLST324:
 18165 2ca7 98120000 		.4byte	.LVL733
 18166 2cab D4120000 		.4byte	.LVL745
 18167 2caf 0100     		.2byte	0x1
 18168 2cb1 57       		.byte	0x57
 18169 2cb2 D6120000 		.4byte	.LVL746
 18170 2cb6 DA120000 		.4byte	.LVL747
 18171 2cba 0100     		.2byte	0x1
 18172 2cbc 57       		.byte	0x57
 18173 2cbd 00000000 		.4byte	0
 18174 2cc1 00000000 		.4byte	0
 18175              	.LLST325:
 18176 2cc5 9C120000 		.4byte	.LVL734
 18177 2cc9 DA120000 		.4byte	.LVL747
 18178 2ccd 0100     		.2byte	0x1
 18179 2ccf 54       		.byte	0x54
 18180 2cd0 00000000 		.4byte	0
 18181 2cd4 00000000 		.4byte	0
 18182              	.LLST326:
 18183 2cd8 A4120000 		.4byte	.LVL736
 18184 2cdc AC120000 		.4byte	.LVL739
 18185 2ce0 0100     		.2byte	0x1
 18186 2ce2 53       		.byte	0x53
 18187 2ce3 AC120000 		.4byte	.LVL739
 18188 2ce7 B9120000 		.4byte	.LVL742-1
 18189 2ceb 0B00     		.2byte	0xb
 18190 2ced 74       		.byte	0x74
 18191 2cee 00       		.sleb128 0
 18192 2cef 32       		.byte	0x32
 18193 2cf0 24       		.byte	0x24
 18194 2cf1 75       		.byte	0x75
 18195 2cf2 0C       		.sleb128 12
 18196 2cf3 06       		.byte	0x6
 18197 2cf4 23       		.byte	0x23
 18198 2cf5 10       		.uleb128 0x10
 18199 2cf6 06       		.byte	0x6
 18200 2cf7 22       		.byte	0x22
 18201 2cf8 00000000 		.4byte	0
 18202 2cfc 00000000 		.4byte	0
 18203              	.LLST327:
 18204 2d00 B0120000 		.4byte	.LVL740
 18205 2d04 B2120000 		.4byte	.LVL741
 18206 2d08 0700     		.2byte	0x7
 18207 2d0a 73       		.byte	0x73
 18208 2d0b 00       		.sleb128 0
 18209 2d0c 0A       		.byte	0xa
 18210 2d0d FFFF     		.2byte	0xffff
 18211 2d0f 1A       		.byte	0x1a
 18212 2d10 9F       		.byte	0x9f
 18213 2d11 B2120000 		.4byte	.LVL741
 18214 2d15 B9120000 		.4byte	.LVL742-1
 18215 2d19 0100     		.2byte	0x1
 18216 2d1b 53       		.byte	0x53
ARM GAS  C:\Users\164\AppData\Local\Temp\cc4PZf78.s 			page 366


 18217 2d1c 00000000 		.4byte	0
 18218 2d20 00000000 		.4byte	0
 18219              	.LLST328:
 18220 2d24 A6120000 		.4byte	.LVL737
 18221 2d28 B0120000 		.4byte	.LVL740
 18222 2d2c 0300     		.2byte	0x3
 18223 2d2e 72       		.byte	0x72
 18224 2d2f 7E       		.sleb128 -2
 18225 2d30 9F       		.byte	0x9f
 18226 2d31 00000000 		.4byte	0
 18227 2d35 00000000 		.4byte	0
 18228              	.LLST329:
 18229 2d39 AA120000 		.4byte	.LVL738
 18230 2d3d B0120000 		.4byte	.LVL740
 18231 2d41 0100     		.2byte	0x1
 18232 2d43 51       		.byte	0x51
 18233 2d44 00000000 		.4byte	0
 18234 2d48 00000000 		.4byte	0
 18235              	.LLST330:
 18236 2d4c DC120000 		.4byte	.LVL748
 18237 2d50 1E130000 		.4byte	.LVL758
 18238 2d54 0100     		.2byte	0x1
 18239 2d56 56       		.byte	0x56
 18240 2d57 00000000 		.4byte	0
 18241 2d5b 00000000 		.4byte	0
 18242              	.LLST331:
 18243 2d5f DC120000 		.4byte	.LVL748
 18244 2d63 E2120000 		.4byte	.LVL750
 18245 2d67 0100     		.2byte	0x1
 18246 2d69 54       		.byte	0x54
 18247 2d6a 00000000 		.4byte	0
 18248 2d6e 00000000 		.4byte	0
 18249              	.LLST332:
 18250 2d72 DC120000 		.4byte	.LVL748
 18251 2d76 6A130000 		.4byte	.LVL764
 18252 2d7a 0100     		.2byte	0x1
 18253 2d7c 55       		.byte	0x55
 18254 2d7d 00000000 		.4byte	0
 18255 2d81 00000000 		.4byte	0
 18256              	.LLST333:
 18257 2d85 DE120000 		.4byte	.LVL749
 18258 2d89 EE120000 		.4byte	.LVL753
 18259 2d8d 0100     		.2byte	0x1
 18260 2d8f 57       		.byte	0x57
 18261 2d90 00000000 		.4byte	0
 18262 2d94 00000000 		.4byte	0
 18263              	.LLST334:
 18264 2d98 E2120000 		.4byte	.LVL750
 18265 2d9c 6A130000 		.4byte	.LVL764
 18266 2da0 0100     		.2byte	0x1
 18267 2da2 54       		.byte	0x54
 18268 2da3 00000000 		.4byte	0
 18269 2da7 00000000 		.4byte	0
 18270              	.LLST335:
 18271 2dab EA120000 		.4byte	.LVL752
 18272 2daf F8120000 		.4byte	.LVL754
 18273 2db3 0100     		.2byte	0x1
ARM GAS  C:\Users\164\AppData\Local\Temp\cc4PZf78.s 			page 367


 18274 2db5 50       		.byte	0x50
 18275 2db6 00000000 		.4byte	0
 18276 2dba 00000000 		.4byte	0
 18277              	.LLST336:
 18278 2dbe 06130000 		.4byte	.LVL755
 18279 2dc2 18130000 		.4byte	.LVL756
 18280 2dc6 0100     		.2byte	0x1
 18281 2dc8 50       		.byte	0x50
 18282 2dc9 38130000 		.4byte	.LVL759
 18283 2dcd 4A130000 		.4byte	.LVL760
 18284 2dd1 0100     		.2byte	0x1
 18285 2dd3 50       		.byte	0x50
 18286 2dd4 00000000 		.4byte	0
 18287 2dd8 00000000 		.4byte	0
 18288              	.LLST337:
 18289 2ddc 6E130000 		.4byte	.LVL765
 18290 2de0 A8130000 		.4byte	.LVL774
 18291 2de4 0100     		.2byte	0x1
 18292 2de6 56       		.byte	0x56
 18293 2de7 00000000 		.4byte	0
 18294 2deb 00000000 		.4byte	0
 18295              	.LLST338:
 18296 2def 6E130000 		.4byte	.LVL765
 18297 2df3 76130000 		.4byte	.LVL767
 18298 2df7 0100     		.2byte	0x1
 18299 2df9 54       		.byte	0x54
 18300 2dfa 00000000 		.4byte	0
 18301 2dfe 00000000 		.4byte	0
 18302              	.LLST339:
 18303 2e02 6E130000 		.4byte	.LVL765
 18304 2e06 A8130000 		.4byte	.LVL774
 18305 2e0a 0100     		.2byte	0x1
 18306 2e0c 55       		.byte	0x55
 18307 2e0d 00000000 		.4byte	0
 18308 2e11 00000000 		.4byte	0
 18309              	.LLST340:
 18310 2e15 72130000 		.4byte	.LVL766
 18311 2e19 9A130000 		.4byte	.LVL771
 18312 2e1d 0100     		.2byte	0x1
 18313 2e1f 58       		.byte	0x58
 18314 2e20 00000000 		.4byte	0
 18315 2e24 00000000 		.4byte	0
 18316              	.LLST341:
 18317 2e28 76130000 		.4byte	.LVL767
 18318 2e2c 96130000 		.4byte	.LVL770
 18319 2e30 0100     		.2byte	0x1
 18320 2e32 54       		.byte	0x54
 18321 2e33 00000000 		.4byte	0
 18322 2e37 00000000 		.4byte	0
 18323              	.LLST342:
 18324 2e3b 80130000 		.4byte	.LVL769
 18325 2e3f 9C130000 		.4byte	.LVL772
 18326 2e43 0100     		.2byte	0x1
 18327 2e45 50       		.byte	0x50
 18328 2e46 9C130000 		.4byte	.LVL772
 18329 2e4a A8130000 		.4byte	.LVL774
 18330 2e4e 0100     		.2byte	0x1
ARM GAS  C:\Users\164\AppData\Local\Temp\cc4PZf78.s 			page 368


 18331 2e50 57       		.byte	0x57
 18332 2e51 00000000 		.4byte	0
 18333 2e55 00000000 		.4byte	0
 18334              	.LLST343:
 18335 2e59 AC130000 		.4byte	.LVL775
 18336 2e5d E4130000 		.4byte	.LVL784
 18337 2e61 0100     		.2byte	0x1
 18338 2e63 56       		.byte	0x56
 18339 2e64 F8130000 		.4byte	.LVL787
 18340 2e68 FC130000 		.4byte	.LVL788
 18341 2e6c 0100     		.2byte	0x1
 18342 2e6e 56       		.byte	0x56
 18343 2e6f 00000000 		.4byte	0
 18344 2e73 00000000 		.4byte	0
 18345              	.LLST344:
 18346 2e77 AC130000 		.4byte	.LVL775
 18347 2e7b B6130000 		.4byte	.LVL778
 18348 2e7f 0100     		.2byte	0x1
 18349 2e81 54       		.byte	0x54
 18350 2e82 00000000 		.4byte	0
 18351 2e86 00000000 		.4byte	0
 18352              	.LLST345:
 18353 2e8a AC130000 		.4byte	.LVL775
 18354 2e8e FC130000 		.4byte	.LVL788
 18355 2e92 0100     		.2byte	0x1
 18356 2e94 55       		.byte	0x55
 18357 2e95 00000000 		.4byte	0
 18358 2e99 00000000 		.4byte	0
 18359              	.LLST346:
 18360 2e9d AE130000 		.4byte	.LVL776
 18361 2ea1 F6130000 		.4byte	.LVL786
 18362 2ea5 0100     		.2byte	0x1
 18363 2ea7 57       		.byte	0x57
 18364 2ea8 F8130000 		.4byte	.LVL787
 18365 2eac FC130000 		.4byte	.LVL788
 18366 2eb0 0100     		.2byte	0x1
 18367 2eb2 57       		.byte	0x57
 18368 2eb3 00000000 		.4byte	0
 18369 2eb7 00000000 		.4byte	0
 18370              	.LLST347:
 18371 2ebb B2130000 		.4byte	.LVL777
 18372 2ebf C4130000 		.4byte	.LVL780
 18373 2ec3 0100     		.2byte	0x1
 18374 2ec5 58       		.byte	0x58
 18375 2ec6 C4130000 		.4byte	.LVL780
 18376 2eca C8130000 		.4byte	.LVL781
 18377 2ece 0300     		.2byte	0x3
 18378 2ed0 78       		.byte	0x78
 18379 2ed1 7F       		.sleb128 -1
 18380 2ed2 9F       		.byte	0x9f
 18381 2ed3 00000000 		.4byte	0
 18382 2ed7 00000000 		.4byte	0
 18383              	.LLST348:
 18384 2edb B6130000 		.4byte	.LVL778
 18385 2edf FC130000 		.4byte	.LVL788
 18386 2ee3 0100     		.2byte	0x1
 18387 2ee5 54       		.byte	0x54
ARM GAS  C:\Users\164\AppData\Local\Temp\cc4PZf78.s 			page 369


 18388 2ee6 00000000 		.4byte	0
 18389 2eea 00000000 		.4byte	0
 18390              	.LLST349:
 18391 2eee FE130000 		.4byte	.LVL789
 18392 2ef2 42140000 		.4byte	.LVL799
 18393 2ef6 0100     		.2byte	0x1
 18394 2ef8 56       		.byte	0x56
 18395 2ef9 00000000 		.4byte	0
 18396 2efd 00000000 		.4byte	0
 18397              	.LLST350:
 18398 2f01 FE130000 		.4byte	.LVL789
 18399 2f05 48140000 		.4byte	.LVL801
 18400 2f09 0100     		.2byte	0x1
 18401 2f0b 54       		.byte	0x54
 18402 2f0c 00000000 		.4byte	0
 18403 2f10 00000000 		.4byte	0
 18404              	.LLST351:
 18405 2f14 FE130000 		.4byte	.LVL789
 18406 2f18 48140000 		.4byte	.LVL801
 18407 2f1c 0100     		.2byte	0x1
 18408 2f1e 55       		.byte	0x55
 18409 2f1f 00000000 		.4byte	0
 18410 2f23 00000000 		.4byte	0
 18411              	.LLST352:
 18412 2f27 02140000 		.4byte	.LVL790
 18413 2f2b 4A140000 		.4byte	.LVL802
 18414 2f2f 0100     		.2byte	0x1
 18415 2f31 58       		.byte	0x58
 18416 2f32 00000000 		.4byte	0
 18417 2f36 00000000 		.4byte	0
 18418              	.LLST353:
 18419 2f3a 02140000 		.4byte	.LVL790
 18420 2f3e 08140000 		.4byte	.LVL792
 18421 2f42 0900     		.2byte	0x9
 18422 2f44 74       		.byte	0x74
 18423 2f45 00       		.sleb128 0
 18424 2f46 09       		.byte	0x9
 18425 2f47 ED       		.byte	0xed
 18426 2f48 24       		.byte	0x24
 18427 2f49 09       		.byte	0x9
 18428 2f4a FB       		.byte	0xfb
 18429 2f4b 25       		.byte	0x25
 18430 2f4c 9F       		.byte	0x9f
 18431 2f4d 08140000 		.4byte	.LVL792
 18432 2f51 0D140000 		.4byte	.LVL793-1
 18433 2f55 0100     		.2byte	0x1
 18434 2f57 51       		.byte	0x51
 18435 2f58 0D140000 		.4byte	.LVL793-1
 18436 2f5c 48140000 		.4byte	.LVL801
 18437 2f60 0900     		.2byte	0x9
 18438 2f62 74       		.byte	0x74
 18439 2f63 00       		.sleb128 0
 18440 2f64 09       		.byte	0x9
 18441 2f65 ED       		.byte	0xed
 18442 2f66 24       		.byte	0x24
 18443 2f67 09       		.byte	0x9
 18444 2f68 FB       		.byte	0xfb
ARM GAS  C:\Users\164\AppData\Local\Temp\cc4PZf78.s 			page 370


 18445 2f69 25       		.byte	0x25
 18446 2f6a 9F       		.byte	0x9f
 18447 2f6b 00000000 		.4byte	0
 18448 2f6f 00000000 		.4byte	0
 18449              	.LLST354:
 18450 2f73 04140000 		.4byte	.LVL791
 18451 2f77 0D140000 		.4byte	.LVL793-1
 18452 2f7b 0100     		.2byte	0x1
 18453 2f7d 53       		.byte	0x53
 18454 2f7e 00000000 		.4byte	0
 18455 2f82 00000000 		.4byte	0
 18456              	.LLST355:
 18457 2f86 10140000 		.4byte	.LVL794
 18458 2f8a 28140000 		.4byte	.LVL796
 18459 2f8e 0100     		.2byte	0x1
 18460 2f90 50       		.byte	0x50
 18461 2f91 28140000 		.4byte	.LVL796
 18462 2f95 2B140000 		.4byte	.LVL797-1
 18463 2f99 0100     		.2byte	0x1
 18464 2f9b 51       		.byte	0x51
 18465 2f9c 00000000 		.4byte	0
 18466 2fa0 00000000 		.4byte	0
 18467              	.LLST356:
 18468 2fa4 26140000 		.4byte	.LVL795
 18469 2fa8 2B140000 		.4byte	.LVL797-1
 18470 2fac 0100     		.2byte	0x1
 18471 2fae 52       		.byte	0x52
 18472 2faf 00000000 		.4byte	0
 18473 2fb3 00000000 		.4byte	0
 18474              	.LLST357:
 18475 2fb7 2C140000 		.4byte	.LVL797
 18476 2fbb 44140000 		.4byte	.LVL800
 18477 2fbf 0100     		.2byte	0x1
 18478 2fc1 50       		.byte	0x50
 18479 2fc2 44140000 		.4byte	.LVL800
 18480 2fc6 48140000 		.4byte	.LVL801
 18481 2fca 0200     		.2byte	0x2
 18482 2fcc 91       		.byte	0x91
 18483 2fcd 50       		.sleb128 -48
 18484 2fce 00000000 		.4byte	0
 18485 2fd2 00000000 		.4byte	0
 18486              	.LLST358:
 18487 2fd6 4A140000 		.4byte	.LVL802
 18488 2fda 58140000 		.4byte	.LVL806
 18489 2fde 0100     		.2byte	0x1
 18490 2fe0 56       		.byte	0x56
 18491 2fe1 58140000 		.4byte	.LVL806
 18492 2fe5 64140000 		.4byte	.LVL808
 18493 2fe9 0300     		.2byte	0x3
 18494 2feb 75       		.byte	0x75
 18495 2fec D80C     		.sleb128 1624
 18496 2fee 00000000 		.4byte	0
 18497 2ff2 00000000 		.4byte	0
 18498              	.LLST359:
 18499 2ff6 4A140000 		.4byte	.LVL802
 18500 2ffa 52140000 		.4byte	.LVL804
 18501 2ffe 0100     		.2byte	0x1
ARM GAS  C:\Users\164\AppData\Local\Temp\cc4PZf78.s 			page 371


 18502 3000 54       		.byte	0x54
 18503 3001 00000000 		.4byte	0
 18504 3005 00000000 		.4byte	0
 18505              	.LLST360:
 18506 3009 4A140000 		.4byte	.LVL802
 18507 300d BA140000 		.4byte	.LVL812
 18508 3011 0100     		.2byte	0x1
 18509 3013 55       		.byte	0x55
 18510 3014 00000000 		.4byte	0
 18511 3018 00000000 		.4byte	0
 18512              	.LLST361:
 18513 301c 4E140000 		.4byte	.LVL803
 18514 3020 56140000 		.4byte	.LVL805
 18515 3024 0100     		.2byte	0x1
 18516 3026 5E       		.byte	0x5e
 18517 3027 00000000 		.4byte	0
 18518 302b 00000000 		.4byte	0
 18519              	.LLST362:
 18520 302f 52140000 		.4byte	.LVL804
 18521 3033 BA140000 		.4byte	.LVL812
 18522 3037 0100     		.2byte	0x1
 18523 3039 54       		.byte	0x54
 18524 303a 00000000 		.4byte	0
 18525 303e 00000000 		.4byte	0
 18526              	.LLST363:
 18527 3042 74140000 		.4byte	.LVL809
 18528 3046 B5140000 		.4byte	.LVL811-1
 18529 304a 0100     		.2byte	0x1
 18530 304c 52       		.byte	0x52
 18531 304d 00000000 		.4byte	0
 18532 3051 00000000 		.4byte	0
 18533              	.LLST364:
 18534 3055 BC140000 		.4byte	.LVL813
 18535 3059 58150000 		.4byte	.LVL830
 18536 305d 0100     		.2byte	0x1
 18537 305f 56       		.byte	0x56
 18538 3060 00000000 		.4byte	0
 18539 3064 00000000 		.4byte	0
 18540              	.LLST365:
 18541 3068 BC140000 		.4byte	.LVL813
 18542 306c CA140000 		.4byte	.LVL817
 18543 3070 0100     		.2byte	0x1
 18544 3072 54       		.byte	0x54
 18545 3073 00000000 		.4byte	0
 18546 3077 00000000 		.4byte	0
 18547              	.LLST366:
 18548 307b BC140000 		.4byte	.LVL813
 18549 307f 58150000 		.4byte	.LVL830
 18550 3083 0100     		.2byte	0x1
 18551 3085 55       		.byte	0x55
 18552 3086 00000000 		.4byte	0
 18553 308a 00000000 		.4byte	0
 18554              	.LLST367:
 18555 308e BE140000 		.4byte	.LVL814
 18556 3092 CC140000 		.4byte	.LVL818
 18557 3096 0100     		.2byte	0x1
 18558 3098 53       		.byte	0x53
ARM GAS  C:\Users\164\AppData\Local\Temp\cc4PZf78.s 			page 372


 18559 3099 00000000 		.4byte	0
 18560 309d 00000000 		.4byte	0
 18561              	.LLST368:
 18562 30a1 C2140000 		.4byte	.LVL815
 18563 30a5 DF140000 		.4byte	.LVL821-1
 18564 30a9 0100     		.2byte	0x1
 18565 30ab 51       		.byte	0x51
 18566 30ac 00000000 		.4byte	0
 18567 30b0 00000000 		.4byte	0
 18568              	.LLST369:
 18569 30b4 CA140000 		.4byte	.LVL817
 18570 30b8 58150000 		.4byte	.LVL830
 18571 30bc 0100     		.2byte	0x1
 18572 30be 54       		.byte	0x54
 18573 30bf 00000000 		.4byte	0
 18574 30c3 00000000 		.4byte	0
 18575              	.LLST370:
 18576 30c7 D8140000 		.4byte	.LVL819
 18577 30cb 58150000 		.4byte	.LVL830
 18578 30cf 0100     		.2byte	0x1
 18579 30d1 58       		.byte	0x58
 18580 30d2 00000000 		.4byte	0
 18581 30d6 00000000 		.4byte	0
 18582              	.LLST371:
 18583 30da DA140000 		.4byte	.LVL820
 18584 30de DF140000 		.4byte	.LVL821-1
 18585 30e2 0100     		.2byte	0x1
 18586 30e4 53       		.byte	0x53
 18587 30e5 00000000 		.4byte	0
 18588 30e9 00000000 		.4byte	0
 18589              	.LLST372:
 18590 30ed E0140000 		.4byte	.LVL821
 18591 30f1 E3140000 		.4byte	.LVL822-1
 18592 30f5 0100     		.2byte	0x1
 18593 30f7 50       		.byte	0x50
 18594 30f8 00000000 		.4byte	0
 18595 30fc 00000000 		.4byte	0
 18596              	.LLST373:
 18597 3100 E6140000 		.4byte	.LVL823
 18598 3104 32150000 		.4byte	.LVL827
 18599 3108 0100     		.2byte	0x1
 18600 310a 50       		.byte	0x50
 18601 310b 32150000 		.4byte	.LVL827
 18602 310f 58150000 		.4byte	.LVL830
 18603 3113 0100     		.2byte	0x1
 18604 3115 59       		.byte	0x59
 18605 3116 00000000 		.4byte	0
 18606 311a 00000000 		.4byte	0
 18607              	.LLST374:
 18608 311e EC140000 		.4byte	.LVL824
 18609 3122 35150000 		.4byte	.LVL828-1
 18610 3126 0100     		.2byte	0x1
 18611 3128 53       		.byte	0x53
 18612 3129 00000000 		.4byte	0
 18613 312d 00000000 		.4byte	0
 18614              	.LLST375:
 18615 3131 EC140000 		.4byte	.LVL824
ARM GAS  C:\Users\164\AppData\Local\Temp\cc4PZf78.s 			page 373


 18616 3135 35150000 		.4byte	.LVL828-1
 18617 3139 0100     		.2byte	0x1
 18618 313b 51       		.byte	0x51
 18619 313c 00000000 		.4byte	0
 18620 3140 00000000 		.4byte	0
 18621              	.LLST376:
 18622 3144 5C150000 		.4byte	.LVL831
 18623 3148 72150000 		.4byte	.LVL836
 18624 314c 0100     		.2byte	0x1
 18625 314e 56       		.byte	0x56
 18626 314f 00000000 		.4byte	0
 18627 3153 00000000 		.4byte	0
 18628              	.LLST377:
 18629 3157 5C150000 		.4byte	.LVL831
 18630 315b 5E150000 		.4byte	.LVL832
 18631 315f 0100     		.2byte	0x1
 18632 3161 54       		.byte	0x54
 18633 3162 00000000 		.4byte	0
 18634 3166 00000000 		.4byte	0
 18635              	.LLST378:
 18636 316a 5C150000 		.4byte	.LVL831
 18637 316e 72150000 		.4byte	.LVL836
 18638 3172 0100     		.2byte	0x1
 18639 3174 55       		.byte	0x55
 18640 3175 00000000 		.4byte	0
 18641 3179 00000000 		.4byte	0
 18642              	.LLST379:
 18643 317d 5E150000 		.4byte	.LVL832
 18644 3181 60150000 		.4byte	.LVL833
 18645 3185 0100     		.2byte	0x1
 18646 3187 54       		.byte	0x54
 18647 3188 00000000 		.4byte	0
 18648 318c 00000000 		.4byte	0
 18649              	.LLST380:
 18650 3190 76150000 		.4byte	.LVL837
 18651 3194 9A150000 		.4byte	.LVL845
 18652 3198 0100     		.2byte	0x1
 18653 319a 56       		.byte	0x56
 18654 319b 00000000 		.4byte	0
 18655 319f 00000000 		.4byte	0
 18656              	.LLST381:
 18657 31a3 76150000 		.4byte	.LVL837
 18658 31a7 7A150000 		.4byte	.LVL838
 18659 31ab 0100     		.2byte	0x1
 18660 31ad 54       		.byte	0x54
 18661 31ae 00000000 		.4byte	0
 18662 31b2 00000000 		.4byte	0
 18663              	.LLST382:
 18664 31b6 76150000 		.4byte	.LVL837
 18665 31ba 9A150000 		.4byte	.LVL845
 18666 31be 0100     		.2byte	0x1
 18667 31c0 55       		.byte	0x55
 18668 31c1 00000000 		.4byte	0
 18669 31c5 00000000 		.4byte	0
 18670              	.LLST383:
 18671 31c9 80150000 		.4byte	.LVL839
 18672 31cd 8E150000 		.4byte	.LVL842
ARM GAS  C:\Users\164\AppData\Local\Temp\cc4PZf78.s 			page 374


 18673 31d1 0100     		.2byte	0x1
 18674 31d3 54       		.byte	0x54
 18675 31d4 90150000 		.4byte	.LVL843
 18676 31d8 94150000 		.4byte	.LVL844
 18677 31dc 0100     		.2byte	0x1
 18678 31de 54       		.byte	0x54
 18679 31df 00000000 		.4byte	0
 18680 31e3 00000000 		.4byte	0
 18681              	.LLST384:
 18682 31e7 A0150000 		.4byte	.LVL846
 18683 31eb C4150000 		.4byte	.LVL854
 18684 31ef 0100     		.2byte	0x1
 18685 31f1 56       		.byte	0x56
 18686 31f2 00000000 		.4byte	0
 18687 31f6 00000000 		.4byte	0
 18688              	.LLST385:
 18689 31fa A0150000 		.4byte	.LVL846
 18690 31fe A4150000 		.4byte	.LVL847
 18691 3202 0100     		.2byte	0x1
 18692 3204 54       		.byte	0x54
 18693 3205 00000000 		.4byte	0
 18694 3209 00000000 		.4byte	0
 18695              	.LLST386:
 18696 320d A0150000 		.4byte	.LVL846
 18697 3211 C4150000 		.4byte	.LVL854
 18698 3215 0100     		.2byte	0x1
 18699 3217 55       		.byte	0x55
 18700 3218 00000000 		.4byte	0
 18701 321c 00000000 		.4byte	0
 18702              	.LLST387:
 18703 3220 AA150000 		.4byte	.LVL848
 18704 3224 B8150000 		.4byte	.LVL851
 18705 3228 0100     		.2byte	0x1
 18706 322a 54       		.byte	0x54
 18707 322b BA150000 		.4byte	.LVL852
 18708 322f BE150000 		.4byte	.LVL853
 18709 3233 0100     		.2byte	0x1
 18710 3235 54       		.byte	0x54
 18711 3236 00000000 		.4byte	0
 18712 323a 00000000 		.4byte	0
 18713              		.section	.debug_aranges,"",%progbits
 18714 0000 64000000 		.4byte	0x64
 18715 0004 0200     		.2byte	0x2
 18716 0006 00000000 		.4byte	.Ldebug_info0
 18717 000a 04       		.byte	0x4
 18718 000b 00       		.byte	0
 18719 000c 0000     		.2byte	0
 18720 000e 0000     		.2byte	0
 18721 0010 00000000 		.4byte	.LFB93
 18722 0014 10000000 		.4byte	.LFE93-.LFB93
 18723 0018 00000000 		.4byte	.LFB91
 18724 001c 40000000 		.4byte	.LFE91-.LFB91
 18725 0020 00000000 		.4byte	.LFB92
 18726 0024 2C000000 		.4byte	.LFE92-.LFB92
 18727 0028 00000000 		.4byte	.LFB94
 18728 002c 36000000 		.4byte	.LFE94-.LFB94
 18729 0030 00000000 		.4byte	.LFB95
ARM GAS  C:\Users\164\AppData\Local\Temp\cc4PZf78.s 			page 375


 18730 0034 32000000 		.4byte	.LFE95-.LFB95
 18731 0038 00000000 		.4byte	.LFB142
 18732 003c A8000000 		.4byte	.LFE142-.LFB142
 18733 0040 00000000 		.4byte	.LFB143
 18734 0044 74000000 		.4byte	.LFE143-.LFB143
 18735 0048 00000000 		.4byte	.LFB144
 18736 004c 4C000000 		.4byte	.LFE144-.LFB144
 18737 0050 00000000 		.4byte	.LFB145
 18738 0054 10000000 		.4byte	.LFE145-.LFB145
 18739 0058 00000000 		.4byte	.LFB146
 18740 005c 04160000 		.4byte	.LFE146-.LFB146
 18741 0060 00000000 		.4byte	0
 18742 0064 00000000 		.4byte	0
 18743              		.section	.debug_ranges,"",%progbits
 18744              	.Ldebug_ranges0:
 18745 0000 80150000 		.4byte	.LBB309
 18746 0004 8E150000 		.4byte	.LBE309
 18747 0008 90150000 		.4byte	.LBB310
 18748 000c 94150000 		.4byte	.LBE310
 18749 0010 00000000 		.4byte	0
 18750 0014 00000000 		.4byte	0
 18751 0018 AA150000 		.4byte	.LBB313
 18752 001c B8150000 		.4byte	.LBE313
 18753 0020 BA150000 		.4byte	.LBB314
 18754 0024 BE150000 		.4byte	.LBE314
 18755 0028 00000000 		.4byte	0
 18756 002c 00000000 		.4byte	0
 18757 0030 00000000 		.4byte	.LFB93
 18758 0034 10000000 		.4byte	.LFE93
 18759 0038 00000000 		.4byte	.LFB91
 18760 003c 40000000 		.4byte	.LFE91
 18761 0040 00000000 		.4byte	.LFB92
 18762 0044 2C000000 		.4byte	.LFE92
 18763 0048 00000000 		.4byte	.LFB94
 18764 004c 36000000 		.4byte	.LFE94
 18765 0050 00000000 		.4byte	.LFB95
 18766 0054 32000000 		.4byte	.LFE95
 18767 0058 00000000 		.4byte	.LFB142
 18768 005c A8000000 		.4byte	.LFE142
 18769 0060 00000000 		.4byte	.LFB143
 18770 0064 74000000 		.4byte	.LFE143
 18771 0068 00000000 		.4byte	.LFB144
 18772 006c 4C000000 		.4byte	.LFE144
 18773 0070 00000000 		.4byte	.LFB145
 18774 0074 10000000 		.4byte	.LFE145
 18775 0078 00000000 		.4byte	.LFB146
 18776 007c 04160000 		.4byte	.LFE146
 18777 0080 00000000 		.4byte	0
 18778 0084 00000000 		.4byte	0
 18779              		.section	.debug_line,"",%progbits
 18780              	.Ldebug_line0:
 18781 0000 CF070000 		.section	.debug_str,"MS",%progbits,1
 18781      02006902 
 18781      00000201 
 18781      FB0E0D00 
 18781      01010101 
 18782              	.LASF42:
ARM GAS  C:\Users\164\AppData\Local\Temp\cc4PZf78.s 			page 376


 18783 0000 4D52425F 		.ascii	"MRB_TT_TRUE\000"
 18783      54545F54 
 18783      52554500 
 18784              	.LASF115:
 18785 000c 4F505F53 		.ascii	"OP_SETIV\000"
 18785      45544956 
 18785      00
 18786              	.LASF15:
 18787 0015 696E7438 		.ascii	"int8_t\000"
 18787      5F7400
 18788              	.LASF22:
 18789 001c 73697A65 		.ascii	"sizetype\000"
 18789      74797065 
 18789      00
 18790              	.LASF258:
 18791 0025 66696E64 		.ascii	"find_class_by_object\000"
 18791      5F636C61 
 18791      73735F62 
 18791      795F6F62 
 18791      6A656374 
 18792              	.LASF264:
 18793 003a 4F50434F 		.ascii	"OPCODE\000"
 18793      444500
 18794              	.LASF168:
 18795 0041 6F705F74 		.ascii	"op_tclass\000"
 18795      636C6173 
 18795      7300
 18796              	.LASF19:
 18797 004b 696E7433 		.ascii	"int32_t\000"
 18797      325F7400 
 18798              	.LASF206:
 18799 0053 6F705F73 		.ascii	"op_sub\000"
 18799      756200
 18800              	.LASF55:
 18801 005a 696E7374 		.ascii	"instance\000"
 18801      616E6365 
 18801      00
 18802              	.LASF250:
 18803 0063 6D726263 		.ascii	"mrbc_array_new\000"
 18803      5F617272 
 18803      61795F6E 
 18803      657700
 18804              	.LASF178:
 18805 0072 5F5F6675 		.ascii	"__func__\000"
 18805      6E635F5F 
 18805      00
 18806              	.LASF96:
 18807 007b 72657073 		.ascii	"reps\000"
 18807      00
 18808              	.LASF192:
 18809 0080 6F705F73 		.ascii	"op_setconst\000"
 18809      6574636F 
 18809      6E737400 
 18810              	.LASF198:
 18811 008c 62696478 		.ascii	"bidx\000"
 18811      00
 18812              	.LASF262:
ARM GAS  C:\Users\164\AppData\Local\Temp\cc4PZf78.s 			page 377


 18813 0091 433A5C55 		.ascii	"C:\\Users\\164\\Documents\\PSoC Creator\\mcmc\\Desi"
 18813      73657273 
 18813      5C313634 
 18813      5C446F63 
 18813      756D656E 
 18814 00be 676E3031 		.ascii	"gn01.cydsn\000"
 18814      2E637964 
 18814      736E00
 18815              	.LASF236:
 18816 00c9 6D726263 		.ascii	"mrbc_irep_free\000"
 18816      5F697265 
 18816      705F6672 
 18816      656500
 18817              	.LASF207:
 18818 00d8 6F705F73 		.ascii	"op_subi\000"
 18818      75626900 
 18819              	.LASF63:
 18820 00e0 73796D5F 		.ascii	"sym_id\000"
 18820      696400
 18821              	.LASF226:
 18822 00e7 6F705F6D 		.ascii	"op_method\000"
 18822      6574686F 
 18822      6400
 18823              	.LASF201:
 18824 00f1 72656773 		.ascii	"regs_ptr\000"
 18824      5F707472 
 18824      00
 18825              	.LASF199:
 18826 00fa 72656C65 		.ascii	"release_reg\000"
 18826      6173655F 
 18826      72656700 
 18827              	.LASF238:
 18828 0106 6D726263 		.ascii	"mrbc_free_all\000"
 18828      5F667265 
 18828      655F616C 
 18828      6C00
 18829              	.LASF263:
 18830 0114 524B6579 		.ascii	"RKeyValueHandle\000"
 18830      56616C75 
 18830      6548616E 
 18830      646C6500 
 18831              	.LASF100:
 18832 0124 6E5F6172 		.ascii	"n_args\000"
 18832      677300
 18833              	.LASF175:
 18834 012b 6D726263 		.ascii	"mrbc_vm_open\000"
 18834      5F766D5F 
 18834      6F70656E 
 18834      00
 18835              	.LASF191:
 18836 0138 6F705F67 		.ascii	"op_getconst\000"
 18836      6574636F 
 18836      6E737400 
 18837              	.LASF90:
 18838 0144 726C656E 		.ascii	"rlen\000"
 18838      00
 18839              	.LASF46:
ARM GAS  C:\Users\164\AppData\Local\Temp\cc4PZf78.s 			page 378


 18840 0149 4D52425F 		.ascii	"MRB_TT_CLASS\000"
 18840      54545F43 
 18840      4C415353 
 18840      00
 18841              	.LASF64:
 18842 0156 73757065 		.ascii	"super\000"
 18842      7200
 18843              	.LASF68:
 18844 015c 69766172 		.ascii	"ivar\000"
 18844      00
 18845              	.LASF62:
 18846 0161 52436C61 		.ascii	"RClass\000"
 18846      737300
 18847              	.LASF50:
 18848 0168 4D52425F 		.ascii	"MRB_TT_STRING\000"
 18848      54545F53 
 18848      5452494E 
 18848      4700
 18849              	.LASF1:
 18850 0176 5F5F7569 		.ascii	"__uint8_t\000"
 18850      6E74385F 
 18850      7400
 18851              	.LASF134:
 18852 0180 4F505F44 		.ascii	"OP_DIV\000"
 18852      495600
 18853              	.LASF211:
 18854 0187 72657375 		.ascii	"result\000"
 18854      6C7400
 18855              	.LASF127:
 18856 018e 4F505F52 		.ascii	"OP_RETURN\000"
 18856      45545552 
 18856      4E00
 18857              	.LASF111:
 18858 0198 4F505F4C 		.ascii	"OP_LOADF\000"
 18858      4F414446 
 18858      00
 18859              	.LASF106:
 18860 01a1 4F505F4C 		.ascii	"OP_LOADI\000"
 18860      4F414449 
 18860      00
 18861              	.LASF105:
 18862 01aa 4F505F4C 		.ascii	"OP_LOADL\000"
 18862      4F41444C 
 18862      00
 18863              	.LASF85:
 18864 01b3 6D72625F 		.ascii	"mrb_class\000"
 18864      636C6173 
 18864      7300
 18865              	.LASF110:
 18866 01bd 4F505F4C 		.ascii	"OP_LOADT\000"
 18866      4F414454 
 18866      00
 18867              	.LASF234:
 18868 01c6 6D726263 		.ascii	"mrbc_raw_free\000"
 18868      5F726177 
 18868      5F667265 
 18868      6500
ARM GAS  C:\Users\164\AppData\Local\Temp\cc4PZf78.s 			page 379


 18869              	.LASF9:
 18870 01d4 6C6F6E67 		.ascii	"long int\000"
 18870      20696E74 
 18870      00
 18871              	.LASF189:
 18872 01dd 6F705F67 		.ascii	"op_getiv\000"
 18872      65746976 
 18872      00
 18873              	.LASF143:
 18874 01e6 4F505F48 		.ascii	"OP_HASH\000"
 18874      41534800 
 18875              	.LASF171:
 18876 01ee 6D726263 		.ascii	"mrbc_get_callee_name\000"
 18876      5F676574 
 18876      5F63616C 
 18876      6C65655F 
 18876      6E616D65 
 18877              	.LASF260:
 18878 0203 474E5520 		.ascii	"GNU C11 5.4.1 20160609 (release) [ARM/embedded-5-br"
 18878      43313120 
 18878      352E342E 
 18878      31203230 
 18878      31363036 
 18879 0236 616E6368 		.ascii	"anch revision 237715] -mcpu=cortex-m3 -mthumb -g -O"
 18879      20726576 
 18879      6973696F 
 18879      6E203233 
 18879      37373135 
 18880 0269 67202D66 		.ascii	"g -ffunction-sections -ffat-lto-objects\000"
 18880      66756E63 
 18880      74696F6E 
 18880      2D736563 
 18880      74696F6E 
 18881              	.LASF135:
 18882 0291 4F505F45 		.ascii	"OP_EQ\000"
 18882      5100
 18883              	.LASF2:
 18884 0297 7369676E 		.ascii	"signed char\000"
 18884      65642063 
 18884      68617200 
 18885              	.LASF16:
 18886 02a3 75696E74 		.ascii	"uint8_t\000"
 18886      385F7400 
 18887              	.LASF132:
 18888 02ab 4F505F53 		.ascii	"OP_SUBI\000"
 18888      55424900 
 18889              	.LASF224:
 18890 02b3 6375725F 		.ascii	"cur_irep\000"
 18890      69726570 
 18890      00
 18891              	.LASF37:
 18892 02bc 524F626A 		.ascii	"RObject\000"
 18892      65637400 
 18893              	.LASF3:
 18894 02c4 756E7369 		.ascii	"unsigned char\000"
 18894      676E6564 
 18894      20636861 
ARM GAS  C:\Users\164\AppData\Local\Temp\cc4PZf78.s 			page 380


 18894      7200
 18895              	.LASF247:
 18896 02d2 636F6E73 		.ascii	"const_object_add\000"
 18896      745F6F62 
 18896      6A656374 
 18896      5F616464 
 18896      00
 18897              	.LASF142:
 18898 02e3 4F505F53 		.ascii	"OP_STRCAT\000"
 18898      54524341 
 18898      5400
 18899              	.LASF255:
 18900 02ed 6D726263 		.ascii	"mrbc_rproc_alloc\000"
 18900      5F727072 
 18900      6F635F61 
 18900      6C6C6F63 
 18900      00
 18901              	.LASF67:
 18902 02fe 7265665F 		.ascii	"ref_count\000"
 18902      636F756E 
 18902      7400
 18903              	.LASF25:
 18904 0308 6D72625F 		.ascii	"mrb_func_t\000"
 18904      66756E63 
 18904      5F7400
 18905              	.LASF196:
 18906 0313 6F705F73 		.ascii	"op_send\000"
 18906      656E6400 
 18907              	.LASF208:
 18908 031b 6F705F6D 		.ascii	"op_mul\000"
 18908      756C00
 18909              	.LASF107:
 18910 0322 4F505F4C 		.ascii	"OP_LOADSYM\000"
 18910      4F414453 
 18910      594D00
 18911              	.LASF161:
 18912 032d 6F705F6A 		.ascii	"op_jmpif\000"
 18912      6D706966 
 18912      00
 18913              	.LASF139:
 18914 0336 4F505F47 		.ascii	"OP_GE\000"
 18914      4500
 18915              	.LASF177:
 18916 033c 6D726263 		.ascii	"mrbc_vm_close\000"
 18916      5F766D5F 
 18916      636C6F73 
 18916      6500
 18917              	.LASF138:
 18918 034a 4F505F47 		.ascii	"OP_GT\000"
 18918      5400
 18919              	.LASF219:
 18920 0350 6F705F73 		.ascii	"op_string\000"
 18920      7472696E 
 18920      6700
 18921              	.LASF94:
 18922 035a 706F6F6C 		.ascii	"pools\000"
 18922      7300
ARM GAS  C:\Users\164\AppData\Local\Temp\cc4PZf78.s 			page 381


 18923              	.LASF218:
 18924 0360 76616C75 		.ascii	"value\000"
 18924      6500
 18925              	.LASF97:
 18926 0366 6D72625F 		.ascii	"mrb_proc\000"
 18926      70726F63 
 18926      00
 18927              	.LASF23:
 18928 036f 63686172 		.ascii	"char\000"
 18928      00
 18929              	.LASF28:
 18930 0374 70635F69 		.ascii	"pc_irep\000"
 18930      72657000 
 18931              	.LASF157:
 18932 037c 6F705F6C 		.ascii	"op_loadnil\000"
 18932      6F61646E 
 18932      696C00
 18933              	.LASF186:
 18934 0387 6F705F6C 		.ascii	"op_loadself\000"
 18934      6F616473 
 18934      656C6600 
 18935              	.LASF230:
 18936 0393 6D726263 		.ascii	"mrbc_class_object\000"
 18936      5F636C61 
 18936      73735F6F 
 18936      626A6563 
 18936      7400
 18937              	.LASF6:
 18938 03a5 5F5F7569 		.ascii	"__uint16_t\000"
 18938      6E743136 
 18938      5F7400
 18939              	.LASF163:
 18940 03b0 6F705F63 		.ascii	"op_call\000"
 18940      616C6C00 
 18941              	.LASF128:
 18942 03b8 4F505F42 		.ascii	"OP_BLKPUSH\000"
 18942      4C4B5055 
 18942      534800
 18943              	.LASF49:
 18944 03c3 4D52425F 		.ascii	"MRB_TT_ARRAY\000"
 18944      54545F41 
 18944      52524159 
 18944      00
 18945              	.LASF73:
 18946 03d0 52417272 		.ascii	"RArray\000"
 18946      617900
 18947              	.LASF56:
 18948 03d7 70726F63 		.ascii	"proc\000"
 18948      00
 18949              	.LASF41:
 18950 03dc 4D52425F 		.ascii	"MRB_TT_FALSE\000"
 18950      54545F46 
 18950      414C5345 
 18950      00
 18951              	.LASF27:
 18952 03e9 766D5F69 		.ascii	"vm_id\000"
 18952      6400
ARM GAS  C:\Users\164\AppData\Local\Temp\cc4PZf78.s 			page 382


 18953              	.LASF101:
 18954 03ef 6D72625F 		.ascii	"mrb_callinfo\000"
 18954      63616C6C 
 18954      696E666F 
 18954      00
 18955              	.LASF95:
 18956 03fc 7074725F 		.ascii	"ptr_to_sym\000"
 18956      746F5F73 
 18956      796D00
 18957              	.LASF239:
 18958 0407 6D726263 		.ascii	"mrbc_release\000"
 18958      5F72656C 
 18958      65617365 
 18958      00
 18959              	.LASF133:
 18960 0414 4F505F4D 		.ascii	"OP_MUL\000"
 18960      554C00
 18961              	.LASF253:
 18962 041b 6D726263 		.ascii	"mrbc_string_new\000"
 18962      5F737472 
 18962      696E675F 
 18962      6E657700 
 18963              	.LASF113:
 18964 042b 4F505F53 		.ascii	"OP_SETGLOBAL\000"
 18964      4554474C 
 18964      4F42414C 
 18964      00
 18965              	.LASF237:
 18966 0438 6D726263 		.ascii	"mrbc_global_clear_vm_id\000"
 18966      5F676C6F 
 18966      62616C5F 
 18966      636C6561 
 18966      725F766D 
 18967              	.LASF103:
 18968 0450 4F505F4E 		.ascii	"OP_NOP\000"
 18968      4F5000
 18969              	.LASF57:
 18970 0457 61727261 		.ascii	"array\000"
 18970      7900
 18971              	.LASF129:
 18972 045d 4F505F41 		.ascii	"OP_ADD\000"
 18972      444400
 18973              	.LASF174:
 18974 0464 6E6C7A33 		.ascii	"nlz32\000"
 18974      3200
 18975              	.LASF32:
 18976 046a 63616C6C 		.ascii	"callinfo\000"
 18976      696E666F 
 18976      00
 18977              	.LASF39:
 18978 0473 4D52425F 		.ascii	"MRB_TT_EMPTY\000"
 18978      54545F45 
 18978      4D505459 
 18978      00
 18979              	.LASF123:
 18980 0480 4F505F53 		.ascii	"OP_SEND\000"
 18980      454E4400 
ARM GAS  C:\Users\164\AppData\Local\Temp\cc4PZf78.s 			page 383


 18981              	.LASF119:
 18982 0488 4F505F53 		.ascii	"OP_SETUPVAR\000"
 18982      45545550 
 18982      56415200 
 18983              	.LASF235:
 18984 0494 5F5F6173 		.ascii	"__assert_func\000"
 18984      73657274 
 18984      5F66756E 
 18984      6300
 18985              	.LASF241:
 18986 04a2 7374725F 		.ascii	"str_to_symid\000"
 18986      746F5F73 
 18986      796D6964 
 18986      00
 18987              	.LASF137:
 18988 04af 4F505F4C 		.ascii	"OP_LE\000"
 18988      4500
 18989              	.LASF11:
 18990 04b5 6C6F6E67 		.ascii	"long unsigned int\000"
 18990      20756E73 
 18990      69676E65 
 18990      6420696E 
 18990      7400
 18991              	.LASF232:
 18992 04c7 636F6E73 		.ascii	"console_printf\000"
 18992      6F6C655F 
 18992      7072696E 
 18992      746600
 18993              	.LASF136:
 18994 04d6 4F505F4C 		.ascii	"OP_LT\000"
 18994      5400
 18995              	.LASF125:
 18996 04dc 4F505F43 		.ascii	"OP_CALL\000"
 18996      414C4C00 
 18997              	.LASF76:
 18998 04e4 52537472 		.ascii	"RString\000"
 18998      696E6700 
 18999              	.LASF75:
 19000 04ec 6E5F7374 		.ascii	"n_stored\000"
 19000      6F726564 
 19000      00
 19001              	.LASF118:
 19002 04f5 4F505F47 		.ascii	"OP_GETUPVAR\000"
 19002      45545550 
 19002      56415200 
 19003              	.LASF150:
 19004 0501 4F505F53 		.ascii	"OP_STOP\000"
 19004      544F5000 
 19005              	.LASF153:
 19006 0509 62696E5F 		.ascii	"bin_to_uint16\000"
 19006      746F5F75 
 19006      696E7431 
 19006      3600
 19007              	.LASF188:
 19008 0517 6F705F73 		.ascii	"op_setglobal\000"
 19008      6574676C 
 19008      6F62616C 
ARM GAS  C:\Users\164\AppData\Local\Temp\cc4PZf78.s 			page 384


 19008      00
 19009              	.LASF26:
 19010 0524 69726570 		.ascii	"irep\000"
 19010      00
 19011              	.LASF45:
 19012 0529 4D52425F 		.ascii	"MRB_TT_SYMBOL\000"
 19012      54545F53 
 19012      594D424F 
 19012      4C00
 19013              	.LASF52:
 19014 0537 4D52425F 		.ascii	"MRB_TT_HASH\000"
 19014      54545F48 
 19014      41534800 
 19015              	.LASF51:
 19016 0543 4D52425F 		.ascii	"MRB_TT_RANGE\000"
 19016      54545F52 
 19016      414E4745 
 19016      00
 19017              	.LASF74:
 19018 0550 64617461 		.ascii	"data_size\000"
 19018      5F73697A 
 19018      6500
 19019              	.LASF78:
 19020 055a 5252616E 		.ascii	"RRange\000"
 19020      676500
 19021              	.LASF210:
 19022 0561 6F705F65 		.ascii	"op_eq\000"
 19022      7100
 19023              	.LASF120:
 19024 0567 4F505F4A 		.ascii	"OP_JMP\000"
 19024      4D5000
 19025              	.LASF122:
 19026 056e 4F505F4A 		.ascii	"OP_JMPNOT\000"
 19026      4D504E4F 
 19026      5400
 19027              	.LASF167:
 19028 0578 61726773 		.ascii	"args\000"
 19028      00
 19029              	.LASF222:
 19030 057d 6F705F72 		.ascii	"op_range\000"
 19030      616E6765 
 19030      00
 19031              	.LASF65:
 19032 0586 70726F63 		.ascii	"procs\000"
 19032      7300
 19033              	.LASF181:
 19034 058c 6F705F6D 		.ascii	"op_move\000"
 19034      6F766500 
 19035              	.LASF10:
 19036 0594 5F5F7569 		.ascii	"__uint32_t\000"
 19036      6E743332 
 19036      5F7400
 19037              	.LASF183:
 19038 059f 706F6F6C 		.ascii	"pool_obj\000"
 19038      5F6F626A 
 19038      00
 19039              	.LASF30:
ARM GAS  C:\Users\164\AppData\Local\Temp\cc4PZf78.s 			page 385


 19040 05a8 63757272 		.ascii	"current_regs\000"
 19040      656E745F 
 19040      72656773 
 19040      00
 19041              	.LASF12:
 19042 05b5 6C6F6E67 		.ascii	"long long int\000"
 19042      206C6F6E 
 19042      6720696E 
 19042      7400
 19043              	.LASF154:
 19044 05c3 62696E5F 		.ascii	"bin_to_uint32\000"
 19044      746F5F75 
 19044      696E7433 
 19044      3200
 19045              	.LASF246:
 19046 05d1 636F6E73 		.ascii	"const_object_get\000"
 19046      745F6F62 
 19046      6A656374 
 19046      5F676574 
 19046      00
 19047              	.LASF61:
 19048 05e2 646F7562 		.ascii	"double\000"
 19048      6C6500
 19049              	.LASF203:
 19050 05e9 73746163 		.ascii	"stack\000"
 19050      6B00
 19051              	.LASF216:
 19052 05ef 6F705F67 		.ascii	"op_ge\000"
 19052      6500
 19053              	.LASF215:
 19054 05f5 6F705F67 		.ascii	"op_gt\000"
 19054      7400
 19055              	.LASF200:
 19056 05fb 6F705F72 		.ascii	"op_return\000"
 19056      65747572 
 19056      6E00
 19057              	.LASF202:
 19058 0605 6F705F62 		.ascii	"op_blkpush\000"
 19058      6C6B7075 
 19058      736800
 19059              	.LASF231:
 19060 0610 49544D5F 		.ascii	"ITM_RxBuffer\000"
 19060      52784275 
 19060      66666572 
 19060      00
 19061              	.LASF131:
 19062 061d 4F505F53 		.ascii	"OP_SUB\000"
 19062      554200
 19063              	.LASF66:
 19064 0624 52496E73 		.ascii	"RInstance\000"
 19064      74616E63 
 19064      6500
 19065              	.LASF152:
 19066 062e 666C6F61 		.ascii	"float\000"
 19066      7400
 19067              	.LASF228:
 19068 0634 6F70636F 		.ascii	"opcode\000"
ARM GAS  C:\Users\164\AppData\Local\Temp\cc4PZf78.s 			page 386


 19068      646500
 19069              	.LASF31:
 19070 063b 63616C6C 		.ascii	"callinfo_top\000"
 19070      696E666F 
 19070      5F746F70 
 19070      00
 19071              	.LASF58:
 19072 0648 73747269 		.ascii	"string\000"
 19072      6E6700
 19073              	.LASF14:
 19074 064f 756E7369 		.ascii	"unsigned int\000"
 19074      676E6564 
 19074      20696E74 
 19074      00
 19075              	.LASF243:
 19076 065c 676C6F62 		.ascii	"global_object_add\000"
 19076      616C5F6F 
 19076      626A6563 
 19076      745F6164 
 19076      6400
 19077              	.LASF151:
 19078 066e 4F505F41 		.ascii	"OP_ABORT\000"
 19078      424F5254 
 19078      00
 19079              	.LASF233:
 19080 0677 6D726263 		.ascii	"mrbc_raw_alloc\000"
 19080      5F726177 
 19080      5F616C6C 
 19080      6F6300
 19081              	.LASF144:
 19082 0686 4F505F4C 		.ascii	"OP_LAMBDA\000"
 19082      414D4244 
 19082      4100
 19083              	.LASF126:
 19084 0690 4F505F45 		.ascii	"OP_ENTER\000"
 19084      4E544552 
 19084      00
 19085              	.LASF256:
 19086 0699 6D726263 		.ascii	"mrbc_range_new\000"
 19086      5F72616E 
 19086      67655F6E 
 19086      657700
 19087              	.LASF248:
 19088 06a8 66696E64 		.ascii	"find_method\000"
 19088      5F6D6574 
 19088      686F6400 
 19089              	.LASF82:
 19090 06b4 52486173 		.ascii	"RHash\000"
 19090      6800
 19091              	.LASF80:
 19092 06ba 66697273 		.ascii	"first\000"
 19092      7400
 19093              	.LASF35:
 19094 06c0 666C6167 		.ascii	"flag_preemption\000"
 19094      5F707265 
 19094      656D7074 
 19094      696F6E00 
ARM GAS  C:\Users\164\AppData\Local\Temp\cc4PZf78.s 			page 387


 19095              	.LASF205:
 19096 06d0 6F705F61 		.ascii	"op_addi\000"
 19096      64646900 
 19097              	.LASF259:
 19098 06d8 6D726263 		.ascii	"mrbc_set_vm_id\000"
 19098      5F736574 
 19098      5F766D5F 
 19098      696400
 19099              	.LASF124:
 19100 06e7 4F505F53 		.ascii	"OP_SENDB\000"
 19100      454E4442 
 19100      00
 19101              	.LASF79:
 19102 06f0 666C6167 		.ascii	"flag_exclude\000"
 19102      5F657863 
 19102      6C756465 
 19102      00
 19103              	.LASF121:
 19104 06fd 4F505F4A 		.ascii	"OP_JMPIF\000"
 19104      4D504946 
 19104      00
 19105              	.LASF220:
 19106 0706 6F705F73 		.ascii	"op_strcat\000"
 19106      74726361 
 19106      7400
 19107              	.LASF209:
 19108 0710 6F705F64 		.ascii	"op_div\000"
 19108      697600
 19109              	.LASF197:
 19110 0717 72656376 		.ascii	"recv\000"
 19110      00
 19111              	.LASF190:
 19112 071c 6F705F73 		.ascii	"op_setiv\000"
 19112      65746976 
 19112      00
 19113              	.LASF149:
 19114 0725 4F505F54 		.ascii	"OP_TCLASS\000"
 19114      434C4153 
 19114      5300
 19115              	.LASF21:
 19116 072f 6C6F6E67 		.ascii	"long double\000"
 19116      20646F75 
 19116      626C6500 
 19117              	.LASF117:
 19118 073b 4F505F53 		.ascii	"OP_SETCONST\000"
 19118      4554434F 
 19118      4E535400 
 19119              	.LASF91:
 19120 0747 696C656E 		.ascii	"ilen\000"
 19120      00
 19121              	.LASF54:
 19122 074c 68616E64 		.ascii	"handle\000"
 19122      6C6500
 19123              	.LASF170:
 19124 0753 6D726263 		.ascii	"mrbc_get_irep_symbol\000"
 19124      5F676574 
 19124      5F697265 
ARM GAS  C:\Users\164\AppData\Local\Temp\cc4PZf78.s 			page 388


 19124      705F7379 
 19124      6D626F6C 
 19125              	.LASF254:
 19126 0768 6D726263 		.ascii	"mrbc_string_add\000"
 19126      5F737472 
 19126      696E675F 
 19126      61646400 
 19127              	.LASF102:
 19128 0778 6D72625F 		.ascii	"mrb_vm\000"
 19128      766D00
 19129              	.LASF0:
 19130 077f 5F5F696E 		.ascii	"__int8_t\000"
 19130      74385F74 
 19130      00
 19131              	.LASF148:
 19132 0788 4F505F4D 		.ascii	"OP_METHOD\000"
 19132      4554484F 
 19132      4400
 19133              	.LASF213:
 19134 0792 6F705F6C 		.ascii	"op_le\000"
 19134      6500
 19135              	.LASF77:
 19136 0798 73697A65 		.ascii	"size\000"
 19136      00
 19137              	.LASF13:
 19138 079d 6C6F6E67 		.ascii	"long long unsigned int\000"
 19138      206C6F6E 
 19138      6720756E 
 19138      7369676E 
 19138      65642069 
 19139              	.LASF212:
 19140 07b4 6F705F6C 		.ascii	"op_lt\000"
 19140      7400
 19141              	.LASF116:
 19142 07ba 4F505F47 		.ascii	"OP_GETCONST\000"
 19142      4554434F 
 19142      4E535400 
 19143              	.LASF140:
 19144 07c6 4F505F41 		.ascii	"OP_ARRAY\000"
 19144      52524159 
 19144      00
 19145              	.LASF71:
 19146 07cf 635F6675 		.ascii	"c_func\000"
 19146      6E6300
 19147              	.LASF18:
 19148 07d6 75696E74 		.ascii	"uint16_t\000"
 19148      31365F74 
 19148      00
 19149              	.LASF173:
 19150 07df 6D726263 		.ascii	"mrbc_pop_callinfo\000"
 19150      5F706F70 
 19150      5F63616C 
 19150      6C696E66 
 19150      6F00
 19151              	.LASF225:
 19152 07f1 6F705F65 		.ascii	"op_exec\000"
 19152      78656300 
ARM GAS  C:\Users\164\AppData\Local\Temp\cc4PZf78.s 			page 389


 19153              	.LASF172:
 19154 07f9 6D726263 		.ascii	"mrbc_push_callinfo\000"
 19154      5F707573 
 19154      685F6361 
 19154      6C6C696E 
 19154      666F00
 19155              	.LASF108:
 19156 080c 4F505F4C 		.ascii	"OP_LOADNIL\000"
 19156      4F41444E 
 19156      494C00
 19157              	.LASF36:
 19158 0817 666C6167 		.ascii	"flag_need_memfree\000"
 19158      5F6E6565 
 19158      645F6D65 
 19158      6D667265 
 19158      6500
 19159              	.LASF265:
 19160 0829 6E6F745F 		.ascii	"not_supported\000"
 19160      73757070 
 19160      6F727465 
 19160      6400
 19161              	.LASF176:
 19162 0837 766D5F61 		.ascii	"vm_arg\000"
 19162      726700
 19163              	.LASF251:
 19164 083e 6D656D73 		.ascii	"memset\000"
 19164      657400
 19165              	.LASF34:
 19166 0845 6572726F 		.ascii	"error_code\000"
 19166      725F636F 
 19166      646500
 19167              	.LASF227:
 19168 0850 6D726263 		.ascii	"mrbc_vm_run\000"
 19168      5F766D5F 
 19168      72756E00 
 19169              	.LASF249:
 19170 085c 6D726263 		.ascii	"mrbc_compare\000"
 19170      5F636F6D 
 19170      70617265 
 19170      00
 19171              	.LASF4:
 19172 0869 5F5F696E 		.ascii	"__int16_t\000"
 19172      7431365F 
 19172      7400
 19173              	.LASF130:
 19174 0873 4F505F41 		.ascii	"OP_ADDI\000"
 19174      44444900 
 19175              	.LASF29:
 19176 087b 72656773 		.ascii	"regs\000"
 19176      00
 19177              	.LASF159:
 19178 0880 6F705F6C 		.ascii	"op_loadf\000"
 19178      6F616466 
 19178      00
 19179              	.LASF156:
 19180 0889 6F705F6C 		.ascii	"op_loadi\000"
 19180      6F616469 
ARM GAS  C:\Users\164\AppData\Local\Temp\cc4PZf78.s 			page 390


 19180      00
 19181              	.LASF87:
 19182 0892 49524550 		.ascii	"IREP\000"
 19182      00
 19183              	.LASF182:
 19184 0897 6F705F6C 		.ascii	"op_loadl\000"
 19184      6F61646C 
 19184      00
 19185              	.LASF158:
 19186 08a0 6F705F6C 		.ascii	"op_loadt\000"
 19186      6F616474 
 19186      00
 19187              	.LASF92:
 19188 08a9 706C656E 		.ascii	"plen\000"
 19188      00
 19189              	.LASF93:
 19190 08ae 636F6465 		.ascii	"code\000"
 19190      00
 19191              	.LASF40:
 19192 08b3 4D52425F 		.ascii	"MRB_TT_NIL\000"
 19192      54545F4E 
 19192      494C00
 19193              	.LASF48:
 19194 08be 4D52425F 		.ascii	"MRB_TT_PROC\000"
 19194      54545F50 
 19194      524F4300 
 19195              	.LASF229:
 19196 08ca 66726565 		.ascii	"free_vm_bitmap\000"
 19196      5F766D5F 
 19196      6269746D 
 19196      617000
 19197              	.LASF187:
 19198 08d9 6F705F67 		.ascii	"op_getglobal\000"
 19198      6574676C 
 19198      6F62616C 
 19198      00
 19199              	.LASF195:
 19200 08e6 6F705F73 		.ascii	"op_setupvar\000"
 19200      65747570 
 19200      76617200 
 19201              	.LASF185:
 19202 08f2 73796D5F 		.ascii	"sym_name\000"
 19202      6E616D65 
 19202      00
 19203              	.LASF43:
 19204 08fb 4D52425F 		.ascii	"MRB_TT_FIXNUM\000"
 19204      54545F46 
 19204      49584E55 
 19204      4D00
 19205              	.LASF99:
 19206 0909 43414C4C 		.ascii	"CALLINFO\000"
 19206      494E464F 
 19206      00
 19207              	.LASF194:
 19208 0912 75705F72 		.ascii	"up_regs\000"
 19208      65677300 
 19209              	.LASF184:
ARM GAS  C:\Users\164\AppData\Local\Temp\cc4PZf78.s 			page 391


 19210 091a 6F705F6C 		.ascii	"op_loadsym\000"
 19210      6F616473 
 19210      796D00
 19211              	.LASF242:
 19212 0925 676C6F62 		.ascii	"global_object_get\000"
 19212      616C5F6F 
 19212      626A6563 
 19212      745F6765 
 19212      7400
 19213              	.LASF5:
 19214 0937 73686F72 		.ascii	"short int\000"
 19214      7420696E 
 19214      7400
 19215              	.LASF223:
 19216 0941 6F705F63 		.ascii	"op_class\000"
 19216      6C617373 
 19216      00
 19217              	.LASF104:
 19218 094a 4F505F4D 		.ascii	"OP_MOVE\000"
 19218      4F564500 
 19219              	.LASF86:
 19220 0952 66756E63 		.ascii	"func\000"
 19220      00
 19221              	.LASF59:
 19222 0957 72616E67 		.ascii	"range\000"
 19222      6500
 19223              	.LASF17:
 19224 095d 696E7431 		.ascii	"int16_t\000"
 19224      365F7400 
 19225              	.LASF147:
 19226 0965 4F505F45 		.ascii	"OP_EXEC\000"
 19226      58454300 
 19227              	.LASF193:
 19228 096d 6F705F67 		.ascii	"op_getupvar\000"
 19228      65747570 
 19228      76617200 
 19229              	.LASF155:
 19230 0979 6F705F6E 		.ascii	"op_nop\000"
 19230      6F7000
 19231              	.LASF244:
 19232 0980 6D726263 		.ascii	"mrbc_instance_getiv\000"
 19232      5F696E73 
 19232      74616E63 
 19232      655F6765 
 19232      74697600 
 19233              	.LASF204:
 19234 0994 6F705F61 		.ascii	"op_add\000"
 19234      646400
 19235              	.LASF145:
 19236 099b 4F505F52 		.ascii	"OP_RANGE\000"
 19236      414E4745 
 19236      00
 19237              	.LASF141:
 19238 09a4 4F505F53 		.ascii	"OP_STRING\000"
 19238      5452494E 
 19238      4700
 19239              	.LASF114:
ARM GAS  C:\Users\164\AppData\Local\Temp\cc4PZf78.s 			page 392


 19240 09ae 4F505F47 		.ascii	"OP_GETIV\000"
 19240      45544956 
 19240      00
 19241              	.LASF162:
 19242 09b7 6F705F6A 		.ascii	"op_jmpnot\000"
 19242      6D706E6F 
 19242      7400
 19243              	.LASF146:
 19244 09c1 4F505F43 		.ascii	"OP_CLASS\000"
 19244      4C415353 
 19244      00
 19245              	.LASF109:
 19246 09ca 4F505F4C 		.ascii	"OP_LOADSELF\000"
 19246      4F414453 
 19246      454C4600 
 19247              	.LASF252:
 19248 09d6 6D656D63 		.ascii	"memcpy\000"
 19248      707900
 19249              	.LASF44:
 19250 09dd 4D52425F 		.ascii	"MRB_TT_FLOAT\000"
 19250      54545F46 
 19250      4C4F4154 
 19250      00
 19251              	.LASF261:
 19252 09ea 2E2E5C2E 		.ascii	"..\\..\\mruby_c2\\Design01.cydsn\\vm.c\000"
 19252      2E5C6D72 
 19252      7562795F 
 19252      63325C44 
 19252      65736967 
 19253              	.LASF98:
 19254 0a0d 6D72625F 		.ascii	"mrb_irep\000"
 19254      69726570 
 19254      00
 19255              	.LASF164:
 19256 0a16 6F705F65 		.ascii	"op_enter\000"
 19256      6E746572 
 19256      00
 19257              	.LASF83:
 19258 0a1f 6D72625F 		.ascii	"mrb_object\000"
 19258      6F626A65 
 19258      637400
 19259              	.LASF180:
 19260 0a2a 6D726263 		.ascii	"mrbc_vm_end\000"
 19260      5F766D5F 
 19260      656E6400 
 19261              	.LASF20:
 19262 0a36 75696E74 		.ascii	"uint32_t\000"
 19262      33325F74 
 19262      00
 19263              	.LASF38:
 19264 0a3f 4D52425F 		.ascii	"MRB_TT_HANDLE\000"
 19264      54545F48 
 19264      414E444C 
 19264      4500
 19265              	.LASF84:
 19266 0a4d 6D72625F 		.ascii	"mrb_value\000"
 19266      76616C75 
ARM GAS  C:\Users\164\AppData\Local\Temp\cc4PZf78.s 			page 393


 19266      6500
 19267              	.LASF214:
 19268 0a57 444F4E45 		.ascii	"DONE\000"
 19268      00
 19269              	.LASF47:
 19270 0a5c 4D52425F 		.ascii	"MRB_TT_OBJECT\000"
 19270      54545F4F 
 19270      424A4543 
 19270      5400
 19271              	.LASF7:
 19272 0a6a 73686F72 		.ascii	"short unsigned int\000"
 19272      7420756E 
 19272      7369676E 
 19272      65642069 
 19272      6E7400
 19273              	.LASF240:
 19274 0a7d 6D726263 		.ascii	"mrbc_dup\000"
 19274      5F647570 
 19274      00
 19275              	.LASF179:
 19276 0a86 6D726263 		.ascii	"mrbc_vm_begin\000"
 19276      5F766D5F 
 19276      62656769 
 19276      6E00
 19277              	.LASF112:
 19278 0a94 4F505F47 		.ascii	"OP_GETGLOBAL\000"
 19278      4554474C 
 19278      4F42414C 
 19278      00
 19279              	.LASF33:
 19280 0aa1 74617267 		.ascii	"target_class\000"
 19280      65745F63 
 19280      6C617373 
 19280      00
 19281              	.LASF70:
 19282 0aae 5250726F 		.ascii	"RProc\000"
 19282      6300
 19283              	.LASF169:
 19284 0ab4 6F705F73 		.ascii	"op_stop\000"
 19284      746F7000 
 19285              	.LASF8:
 19286 0abc 5F5F696E 		.ascii	"__int32_t\000"
 19286      7433325F 
 19286      7400
 19287              	.LASF89:
 19288 0ac6 6E726567 		.ascii	"nregs\000"
 19288      7300
 19289              	.LASF160:
 19290 0acc 6F705F6A 		.ascii	"op_jmp\000"
 19290      6D7000
 19291              	.LASF165:
 19292 0ad3 656E7465 		.ascii	"enter_param\000"
 19292      725F7061 
 19292      72616D00 
 19293              	.LASF60:
 19294 0adf 68617368 		.ascii	"hash\000"
 19294      00
ARM GAS  C:\Users\164\AppData\Local\Temp\cc4PZf78.s 			page 394


 19295              	.LASF53:
 19296 0ae4 6D72625F 		.ascii	"mrb_vtype\000"
 19296      76747970 
 19296      6500
 19297              	.LASF88:
 19298 0aee 6E6C6F63 		.ascii	"nlocals\000"
 19298      616C7300 
 19299              	.LASF221:
 19300 0af6 6F705F6C 		.ascii	"op_lambda\000"
 19300      616D6264 
 19300      6100
 19301              	.LASF72:
 19302 0b00 6E657874 		.ascii	"next\000"
 19302      00
 19303              	.LASF69:
 19304 0b05 64617461 		.ascii	"data\000"
 19304      00
 19305              	.LASF245:
 19306 0b0a 6D726263 		.ascii	"mrbc_instance_setiv\000"
 19306      5F696E73 
 19306      74616E63 
 19306      655F7365 
 19306      74697600 
 19307              	.LASF24:
 19308 0b1e 6D72625F 		.ascii	"mrb_sym\000"
 19308      73796D00 
 19309              	.LASF81:
 19310 0b26 6C617374 		.ascii	"last\000"
 19310      00
 19311              	.LASF217:
 19312 0b2b 6F705F61 		.ascii	"op_array\000"
 19312      72726179 
 19312      00
 19313              	.LASF166:
 19314 0b34 6465665F 		.ascii	"def_args\000"
 19314      61726773 
 19314      00
 19315              	.LASF257:
 19316 0b3d 6D726263 		.ascii	"mrbc_define_class\000"
 19316      5F646566 
 19316      696E655F 
 19316      636C6173 
 19316      7300
 19317              		.ident	"GCC: (GNU Tools for ARM Embedded Processors) 5.4.1 20160609 (release) [ARM/embedded-5-bran
